ARM GAS  /tmp/ccvWBHcm.s 			page 1


   1              		.cpu cortex-m4
   2              		.eabi_attribute 27, 1
   3              		.eabi_attribute 28, 1
   4              		.eabi_attribute 20, 1
   5              		.eabi_attribute 21, 1
   6              		.eabi_attribute 23, 3
   7              		.eabi_attribute 24, 1
   8              		.eabi_attribute 25, 1
   9              		.eabi_attribute 26, 1
  10              		.eabi_attribute 30, 2
  11              		.eabi_attribute 34, 1
  12              		.eabi_attribute 18, 4
  13              		.file	"adis16470.c"
  14              		.text
  15              	.Ltext0:
  16              		.cfi_sections	.debug_frame
  17              		.section	.text.adis16470_start,"ax",%progbits
  18              		.align	1
  19              		.p2align 2,,3
  20              		.global	adis16470_start
  21              		.syntax unified
  22              		.thumb
  23              		.thumb_func
  24              		.fpu fpv4-sp-d16
  25              		.type	adis16470_start, %function
  26              	adis16470_start:
  27              	.LFB339:
  28              		.file 1 "./RM18A-ChibiOS18-Core/src/ext_hw/adis16470.c"
  29              		.loc 1 68 0
  30              		.cfi_startproc
  31              		@ args = 0, pretend = 0, frame = 8
  32              		@ frame_needed = 0, uses_anonymous_args = 0
  33              	.LVL0:
  34 0000 2DE9F043 		push	{r4, r5, r6, r7, r8, r9, lr}
  35              		.cfi_def_cfa_offset 28
  36              		.cfi_offset 4, -28
  37              		.cfi_offset 5, -24
  38              		.cfi_offset 6, -20
  39              		.cfi_offset 7, -16
  40              		.cfi_offset 8, -12
  41              		.cfi_offset 9, -8
  42              		.cfi_offset 14, -4
  43 0004 2DED028B 		vpush.64	{d8}
  44              		.cfi_def_cfa_offset 36
  45              		.cfi_offset 80, -36
  46              		.cfi_offset 81, -32
  47              		.loc 1 69 0
  48 0008 6E4D     		ldr	r5, .L4
  49              		.loc 1 74 0
  50 000a 6F4E     		ldr	r6, .L4+4
  51              		.loc 1 69 0
  52 000c 2862     		str	r0, [r5, #32]
  53              		.loc 1 68 0
  54 000e 85B0     		sub	sp, sp, #20
  55              		.cfi_def_cfa_offset 56
  56              		.loc 1 74 0
  57 0010 3046     		mov	r0, r6
ARM GAS  /tmp/ccvWBHcm.s 			page 2


  58              	.LVL1:
  59 0012 40F29A22 		movw	r2, #666
  60 0016 2021     		movs	r1, #32
  61 0018 FFF7FEFF 		bl	_pal_lld_setgroupmode
  62              	.LVL2:
  63              		.loc 1 75 0
  64 001c 3046     		mov	r0, r6
  65 001e 40F29A22 		movw	r2, #666
  66 0022 4021     		movs	r1, #64
  67 0024 FFF7FEFF 		bl	_pal_lld_setgroupmode
  68              	.LVL3:
  69              		.loc 1 78 0
  70 0028 684F     		ldr	r7, .L4+8
  71              		.loc 1 88 0
  72 002a 694C     		ldr	r4, .L4+12
  73              		.loc 1 93 0
  74 002c 9FED698A 		vldr.32	s16, .L4+16
  75 0030 DFF8B891 		ldr	r9, .L4+40
  76              		.loc 1 97 0
  77 0034 DFED688A 		vldr.32	s17, .L4+20
  78              		.loc 1 76 0
  79 0038 3046     		mov	r0, r6
  80 003a 40F29A22 		movw	r2, #666
  81 003e 4FF48051 		mov	r1, #4096
  82 0042 FFF7FEFF 		bl	_pal_lld_setgroupmode
  83              	.LVL4:
  84              		.loc 1 77 0
  85 0046 3046     		mov	r0, r6
  86 0048 1922     		movs	r2, #25
  87 004a 1021     		movs	r1, #16
  88 004c FFF7FEFF 		bl	_pal_lld_setgroupmode
  89              	.LVL5:
  90              		.loc 1 78 0
  91 0050 3846     		mov	r0, r7
  92 0052 0122     		movs	r2, #1
  93 0054 0221     		movs	r1, #2
  94 0056 FFF7FEFF 		bl	_pal_lld_setgroupmode
  95              	.LVL6:
  96              		.loc 1 89 0
  97 005a D4E90623 		ldrd	r2, r3, [r4, #24]
  98              		.loc 1 79 0
  99 005e 4FF00208 		mov	r8, #2
 100              		.loc 1 88 0
 101 0062 42F42052 		orr	r2, r2, #10240
 102 0066 A261     		str	r2, [r4, #24]
 103              		.loc 1 91 0
 104 0068 5C49     		ldr	r1, .L4+24
 105              		.loc 1 79 0
 106 006a A7F81880 		strh	r8, [r7, #24]	@ movhi
 107              		.loc 1 89 0
 108 006e 43F42053 		orr	r3, r3, #10240
 109              		.loc 1 91 0
 110 0072 2046     		mov	r0, r4
 111              		.loc 1 89 0
 112 0074 E361     		str	r3, [r4, #28]
 113              		.loc 1 91 0
 114 0076 FFF7FEFF 		bl	spiStart
ARM GAS  /tmp/ccvWBHcm.s 			page 3


 115              	.LVL7:
 116              		.loc 1 93 0
 117 007a B0EE480A 		vmov.f32	s0, s16
 118 007e 4846     		mov	r0, r9
 119 0080 F2EE0E0A 		vmov.f32	s1, #1.5e+1
 120 0084 FFF7FEFF 		bl	lpfilter_init
 121              	.LVL8:
 122              		.loc 1 97 0
 123 0088 554E     		ldr	r6, .L4+28
 124              		.loc 1 94 0
 125 008a B0EE480A 		vmov.f32	s0, s16
 126 008e 09F11C00 		add	r0, r9, #28
 127 0092 F2EE0E0A 		vmov.f32	s1, #1.5e+1
 128 0096 FFF7FEFF 		bl	lpfilter_init
 129              	.LVL9:
 130              		.loc 1 95 0
 131 009a 09F13800 		add	r0, r9, #56
 132 009e B0EE480A 		vmov.f32	s0, s16
 133 00a2 F2EE0E0A 		vmov.f32	s1, #1.5e+1
 134 00a6 FFF7FEFF 		bl	lpfilter_init
 135              	.LVL10:
 136              		.loc 1 97 0
 137 00aa B0EE480A 		vmov.f32	s0, s16
 138 00ae F0EE680A 		vmov.f32	s1, s17
 139 00b2 3046     		mov	r0, r6
 140 00b4 FFF7FEFF 		bl	lpfilter_init
 141              	.LVL11:
 142              		.loc 1 98 0
 143 00b8 F0EE680A 		vmov.f32	s1, s17
 144 00bc B0EE480A 		vmov.f32	s0, s16
 145 00c0 06F11C00 		add	r0, r6, #28
 146 00c4 FFF7FEFF 		bl	lpfilter_init
 147              	.LVL12:
 148              		.loc 1 99 0
 149 00c8 F0EE680A 		vmov.f32	s1, s17
 150 00cc B0EE480A 		vmov.f32	s0, s16
 151 00d0 06F13800 		add	r0, r6, #56
 152 00d4 FFF7FEFF 		bl	lpfilter_init
 153              	.LVL13:
 154              	.LBB56:
 155              		.loc 1 103 0
 156 00d8 0023     		movs	r3, #0
 157 00da 2B60     		str	r3, [r5]	@ float
 158              	.LBE56:
 159              	.LBB57:
 160              	.LBB58:
 161              		.loc 1 128 0
 162 00dc 04AE     		add	r6, sp, #16
 163              	.LBE58:
 164              	.LBE57:
 165              	.LBB61:
 166              		.loc 1 104 0
 167 00de 2B63     		str	r3, [r5, #48]	@ float
 168              	.LBE61:
 169              		.loc 1 109 0
 170 00e0 4FF4FA60 		mov	r0, #2000
 171              	.LBB62:
ARM GAS  /tmp/ccvWBHcm.s 			page 4


 172              		.loc 1 105 0
 173 00e4 EB60     		str	r3, [r5, #12]	@ float
 174              	.LVL14:
 175              		.loc 1 103 0
 176 00e6 6B60     		str	r3, [r5, #4]	@ float
 177              		.loc 1 104 0
 178 00e8 6B63     		str	r3, [r5, #52]	@ float
 179              		.loc 1 105 0
 180 00ea 2B61     		str	r3, [r5, #16]	@ float
 181              	.LVL15:
 182              		.loc 1 103 0
 183 00ec AB60     		str	r3, [r5, #8]	@ float
 184              		.loc 1 104 0
 185 00ee AB63     		str	r3, [r5, #56]	@ float
 186              		.loc 1 105 0
 187 00f0 6B61     		str	r3, [r5, #20]	@ float
 188              	.LVL16:
 189              	.LBE62:
 190              		.loc 1 108 0
 191 00f2 A7F81A80 		strh	r8, [r7, #26]	@ movhi
 192              		.loc 1 109 0
 193 00f6 FFF7FEFF 		bl	chThdSleep
 194              	.LVL17:
 195              	.LBB63:
 196              	.LBB59:
 197              		.loc 1 128 0
 198 00fa 4FF4C043 		mov	r3, #24576
 199              	.LBE59:
 200              	.LBE63:
 201              		.loc 1 110 0
 202 00fe A7F81880 		strh	r8, [r7, #24]	@ movhi
 203              	.LVL18:
 204              	.LBB64:
 205              	.LBB60:
 206              		.loc 1 128 0
 207 0102 26F8043D 		strh	r3, [r6, #-4]!	@ movhi
 208              		.loc 1 131 0
 209 0106 2046     		mov	r0, r4
 210 0108 FFF7FEFF 		bl	spiSelect
 211              	.LVL19:
 212              		.loc 1 132 0
 213 010c 3246     		mov	r2, r6
 214 010e 0121     		movs	r1, #1
 215 0110 2046     		mov	r0, r4
 216 0112 FFF7FEFF 		bl	spiSend
 217              	.LVL20:
 218              		.loc 1 133 0
 219 0116 2046     		mov	r0, r4
 220 0118 FFF7FEFF 		bl	spiUnselect
 221              	.LVL21:
 222              		.loc 1 135 0
 223 011c 0120     		movs	r0, #1
 224 011e FFF7FEFF 		bl	chThdSleep
 225              	.LVL22:
 226              		.loc 1 137 0
 227 0122 2046     		mov	r0, r4
 228 0124 FFF7FEFF 		bl	spiSelect
ARM GAS  /tmp/ccvWBHcm.s 			page 5


 229              	.LVL23:
 230              		.loc 1 138 0
 231 0128 3246     		mov	r2, r6
 232 012a 0121     		movs	r1, #1
 233 012c 2046     		mov	r0, r4
 234 012e FFF7FEFF 		bl	spiReceive
 235              	.LVL24:
 236              		.loc 1 139 0
 237 0132 2046     		mov	r0, r4
 238 0134 FFF7FEFF 		bl	spiUnselect
 239              	.LVL25:
 240              		.loc 1 142 0
 241 0138 0120     		movs	r0, #1
 242 013a FFF7FEFF 		bl	chThdSleep
 243              	.LVL26:
 244              		.loc 1 144 0
 245 013e BDF80C30 		ldrh	r3, [sp, #12]
 246              	.LVL27:
 247              	.LBE60:
 248              	.LBE64:
 249              	.LBB65:
 250              	.LBB66:
 251              		.loc 1 151 0
 252 0142 03F0E302 		and	r2, r3, #227
 253              		.loc 1 152 0
 254 0146 04AF     		add	r7, sp, #16
 255              		.loc 1 151 0
 256 0148 6FEAC242 		mvn	r2, r2, lsl #19
 257              		.loc 1 152 0
 258 014c 1B0A     		lsrs	r3, r3, #8
 259              	.LVL28:
 260 014e 43F46143 		orr	r3, r3, #57600
 261              		.loc 1 151 0
 262 0152 6FEAD242 		mvn	r2, r2, lsr #19
 263              		.loc 1 155 0
 264 0156 2046     		mov	r0, r4
 265              		.loc 1 152 0
 266 0158 27F8023D 		strh	r3, [r7, #-2]!	@ movhi
 267              		.loc 1 151 0
 268 015c ADF80C20 		strh	r2, [sp, #12]	@ movhi
 269              	.LVL29:
 270              		.loc 1 155 0
 271 0160 FFF7FEFF 		bl	spiSelect
 272              	.LVL30:
 273              		.loc 1 156 0
 274 0164 3246     		mov	r2, r6
 275 0166 0121     		movs	r1, #1
 276 0168 2046     		mov	r0, r4
 277 016a FFF7FEFF 		bl	spiSend
 278              	.LVL31:
 279              		.loc 1 157 0
 280 016e 2046     		mov	r0, r4
 281 0170 FFF7FEFF 		bl	spiUnselect
 282              	.LVL32:
 283              		.loc 1 159 0
 284 0174 0120     		movs	r0, #1
 285 0176 FFF7FEFF 		bl	chThdSleep
ARM GAS  /tmp/ccvWBHcm.s 			page 6


 286              	.LVL33:
 287              		.loc 1 161 0
 288 017a 2046     		mov	r0, r4
 289 017c FFF7FEFF 		bl	spiSelect
 290              	.LVL34:
 291              		.loc 1 162 0
 292 0180 3A46     		mov	r2, r7
 293 0182 0121     		movs	r1, #1
 294 0184 2046     		mov	r0, r4
 295 0186 FFF7FEFF 		bl	spiSend
 296              	.LVL35:
 297              		.loc 1 163 0
 298 018a 2046     		mov	r0, r4
 299 018c FFF7FEFF 		bl	spiUnselect
 300              	.LVL36:
 301              		.loc 1 166 0
 302 0190 0120     		movs	r0, #1
 303 0192 FFF7FEFF 		bl	chThdSleep
 304              	.LVL37:
 305              	.LBE66:
 306              	.LBE65:
 307              		.loc 1 118 0
 308 0196 05F14400 		add	r0, r5, #68
 309 019a FFF7FEFF 		bl	chMtxObjectInit
 310              	.LVL38:
 311              		.loc 1 119 0
 312 019e 05F15400 		add	r0, r5, #84
 313 01a2 FFF7FEFF 		bl	chCondObjectInit
 314              	.LVL39:
 315              		.loc 1 121 0
 316 01a6 0023     		movs	r3, #0
 317 01a8 0093     		str	r3, [sp]
 318 01aa 8722     		movs	r2, #135
 319 01ac 0D4B     		ldr	r3, .L4+32
 320 01ae 0E48     		ldr	r0, .L4+36
 321 01b0 4FF4AA61 		mov	r1, #1360
 322 01b4 FFF7FEFF 		bl	chThdCreateStatic
 323              	.LVL40:
 324              		.loc 1 123 0
 325 01b8 05B0     		add	sp, sp, #20
 326              		.cfi_def_cfa_offset 36
 327              		@ sp needed
 328 01ba BDEC028B 		vldm	sp!, {d8}
 329              		.cfi_restore 80
 330              		.cfi_restore 81
 331              		.cfi_def_cfa_offset 28
 332 01be BDE8F083 		pop	{r4, r5, r6, r7, r8, r9, pc}
 333              	.L5:
 334 01c2 00BF     		.align	2
 335              	.L4:
 336 01c4 00000000 		.word	.LANCHOR0
 337 01c8 00100240 		.word	1073876992
 338 01cc 00040240 		.word	1073873920
 339 01d0 00000000 		.word	SPID4
 340 01d4 0000FA44 		.word	1157234688
 341 01d8 00007042 		.word	1114636288
 342 01dc 00000000 		.word	.LANCHOR1
ARM GAS  /tmp/ccvWBHcm.s 			page 7


 343 01e0 00000000 		.word	.LANCHOR3
 344 01e4 00000000 		.word	adis16470Thd
 345 01e8 00000000 		.word	.LANCHOR4
 346 01ec 00000000 		.word	.LANCHOR2
 347              		.cfi_endproc
 348              	.LFE339:
 349              		.size	adis16470_start, .-adis16470_start
 350              		.global	__aeabi_uldivmod
 351              		.global	__aeabi_ldivmod
 352              		.section	.text.adis16470_update,"ax",%progbits
 353              		.align	1
 354              		.p2align 2,,3
 355              		.global	adis16470_update
 356              		.syntax unified
 357              		.thumb
 358              		.thumb_func
 359              		.fpu fpv4-sp-d16
 360              		.type	adis16470_update, %function
 361              	adis16470_update:
 362              	.LFB343:
 363              		.loc 1 191 0
 364              		.cfi_startproc
 365              		@ args = 0, pretend = 0, frame = 24
 366              		@ frame_needed = 0, uses_anonymous_args = 0
 367              	.LVL41:
 368 0000 2DE9F041 		push	{r4, r5, r6, r7, r8, lr}
 369              		.cfi_def_cfa_offset 24
 370              		.cfi_offset 4, -24
 371              		.cfi_offset 5, -20
 372              		.cfi_offset 6, -16
 373              		.cfi_offset 7, -12
 374              		.cfi_offset 8, -8
 375              		.cfi_offset 14, -4
 376 0004 0546     		mov	r5, r0
 377 0006 86B0     		sub	sp, sp, #24
 378              		.cfi_def_cfa_offset 48
 379              	.LBB70:
 380              	.LBB71:
 381              		.loc 1 173 0
 382 0008 8A48     		ldr	r0, .L25
 383              	.LVL42:
 384 000a FFF7FEFF 		bl	spiSelect
 385              	.LVL43:
 386              		.loc 1 174 0
 387 000e 8A4A     		ldr	r2, .L25+4
 388 0010 8848     		ldr	r0, .L25
 389 0012 0121     		movs	r1, #1
 390 0014 FFF7FEFF 		bl	spiSend
 391              	.LVL44:
 392              		.loc 1 176 0
 393 0018 884A     		ldr	r2, .L25+8
 394 001a 8648     		ldr	r0, .L25
 395 001c 0A21     		movs	r1, #10
 396 001e FFF7FEFF 		bl	spiReceive
 397              	.LVL45:
 398              		.loc 1 177 0
 399 0022 8448     		ldr	r0, .L25
ARM GAS  /tmp/ccvWBHcm.s 			page 8


 400 0024 FFF7FEFF 		bl	spiUnselect
 401              	.LVL46:
 402              		.loc 1 181 0
 403 0028 8549     		ldr	r1, .L25+12
 404 002a 864A     		ldr	r2, .L25+16
 405 002c 0023     		movs	r3, #0
 406 002e 0B70     		strb	r3, [r1]
 407              	.LVL47:
 408 0030 02F11204 		add	r4, r2, #18
 409              	.LVL48:
 410              	.L7:
 411              		.loc 1 184 0
 412 0034 0B78     		ldrb	r3, [r1]	@ zero_extendqisi2
 413 0036 12F8010F 		ldrb	r0, [r2, #1]!	@ zero_extendqisi2
 414              	.LVL49:
 415 003a 0344     		add	r3, r3, r0
 416 003c DBB2     		uxtb	r3, r3
 417              		.loc 1 183 0
 418 003e 9442     		cmp	r4, r2
 419              		.loc 1 184 0
 420 0040 0B70     		strb	r3, [r1]
 421              	.LVL50:
 422              		.loc 1 183 0
 423 0042 F7D1     		bne	.L7
 424              	.LVL51:
 425              		.loc 1 186 0
 426 0044 7D4C     		ldr	r4, .L25+8
 427 0046 0B78     		ldrb	r3, [r1]	@ zero_extendqisi2
 428              	.LBE71:
 429              	.LBE70:
 430              		.loc 1 193 0
 431 0048 A27C     		ldrb	r2, [r4, #18]	@ zero_extendqisi2
 432 004a 9A42     		cmp	r2, r3
 433 004c 16D0     		beq	.L8
 434              		.loc 1 196 0
 435 004e 7E48     		ldr	r0, .L25+20
 436              		.loc 1 195 0
 437 0050 7E49     		ldr	r1, .L25+24
 438              		.loc 1 196 0
 439 0052 0378     		ldrb	r3, [r0]	@ zero_extendqisi2
 440              		.loc 1 195 0
 441 0054 CA8F     		ldrh	r2, [r1, #62]
 442              		.loc 1 196 0
 443 0056 0133     		adds	r3, r3, #1
 444 0058 DBB2     		uxtb	r3, r3
 445              		.loc 1 195 0
 446 005a 42F04002 		orr	r2, r2, #64
 447              		.loc 1 196 0
 448 005e 0370     		strb	r3, [r0]
 449              		.loc 1 195 0
 450 0060 CA87     		strh	r2, [r1, #62]	@ movhi
 451              	.L9:
 452              		.loc 1 254 0
 453 0062 C82B     		cmp	r3, #200
 454 0064 07D9     		bls	.L6
 455              		.loc 1 256 0
 456 0066 794B     		ldr	r3, .L25+24
ARM GAS  /tmp/ccvWBHcm.s 			page 9


 457 0068 0522     		movs	r2, #5
 458              		.loc 1 257 0
 459 006a 1846     		mov	r0, r3
 460 006c 1146     		mov	r1, r2
 461              		.loc 1 256 0
 462 006e 83F83C20 		strb	r2, [r3, #60]
 463              		.loc 1 257 0
 464 0072 FFF7FEFF 		bl	imu_setError
 465              	.LVL52:
 466              	.L6:
 467              		.loc 1 259 0
 468 0076 06B0     		add	sp, sp, #24
 469              		.cfi_remember_state
 470              		.cfi_def_cfa_offset 24
 471              		@ sp needed
 472 0078 BDE8F081 		pop	{r4, r5, r6, r7, r8, pc}
 473              	.LVL53:
 474              	.L8:
 475              		.cfi_restore_state
 476              		.loc 1 203 0
 477 007c 2388     		ldrh	r3, [r4]
 478 007e 13B1     		cbz	r3, .L10
 479 0080 714B     		ldr	r3, .L25+20
 480 0082 1B78     		ldrb	r3, [r3]	@ zero_extendqisi2
 481 0084 EDE7     		b	.L9
 482              	.L10:
 483              	.LBB72:
 484              		.loc 1 207 0
 485 0086 B4F90830 		ldrsh	r3, [r4, #8]
 486 008a DFED713A 		vldr.32	s7, .L25+28
 487              		.loc 1 211 0
 488 008e 9FED714A 		vldr.32	s8, .L25+32
 489              		.loc 1 207 0
 490 0092 DFED714A 		vldr.32	s9, .L25+36
 491              		.loc 1 211 0
 492 0096 95ED092A 		vldr.32	s4, [r5, #36]
 493              		.loc 1 212 0
 494 009a D5ED0A2A 		vldr.32	s5, [r5, #40]
 495              		.loc 1 213 0
 496 009e 95ED0B3A 		vldr.32	s6, [r5, #44]
 497              		.loc 1 225 0
 498 00a2 6E4F     		ldr	r7, .L25+40
 499              		.loc 1 207 0
 500 00a4 05EE103A 		vmov	s10, r3	@ int
 501              		.loc 1 208 0
 502 00a8 B4F90A30 		ldrsh	r3, [r4, #10]
 503 00ac 05EE903A 		vmov	s11, r3	@ int
 504              		.loc 1 209 0
 505 00b0 B4F90C30 		ldrsh	r3, [r4, #12]
 506 00b4 06EE103A 		vmov	s12, r3	@ int
 507              		.loc 1 211 0
 508 00b8 B4F90230 		ldrsh	r3, [r4, #2]
 509 00bc 06EE903A 		vmov	s13, r3	@ int
 510              		.loc 1 212 0
 511 00c0 B4F90430 		ldrsh	r3, [r4, #4]
 512 00c4 07EE103A 		vmov	s14, r3	@ int
 513              		.loc 1 213 0
ARM GAS  /tmp/ccvWBHcm.s 			page 10


 514 00c8 B4F90630 		ldrsh	r3, [r4, #6]
 515 00cc 07EE903A 		vmov	s15, r3	@ int
 516              		.loc 1 207 0
 517 00d0 B8EEC55A 		vcvt.f32.s32	s10, s10
 518              		.loc 1 208 0
 519 00d4 F8EEE55A 		vcvt.f32.s32	s11, s11
 520              		.loc 1 209 0
 521 00d8 B8EEC66A 		vcvt.f32.s32	s12, s12
 522              		.loc 1 211 0
 523 00dc F8EEE66A 		vcvt.f32.s32	s13, s13
 524              		.loc 1 212 0
 525 00e0 B8EEC77A 		vcvt.f32.s32	s14, s14
 526              		.loc 1 213 0
 527 00e4 F8EEE77A 		vcvt.f32.s32	s15, s15
 528              		.loc 1 207 0
 529 00e8 25EE235A 		vmul.f32	s10, s10, s7
 530              		.loc 1 208 0
 531 00ec 65EEA35A 		vmul.f32	s11, s11, s7
 532              		.loc 1 209 0
 533 00f0 26EE236A 		vmul.f32	s12, s12, s7
 534              		.loc 1 211 0
 535 00f4 66EE846A 		vmul.f32	s13, s13, s8
 536              		.loc 1 212 0
 537 00f8 27EE047A 		vmul.f32	s14, s14, s8
 538              		.loc 1 213 0
 539 00fc 67EE847A 		vmul.f32	s15, s15, s8
 540              		.loc 1 207 0
 541 0100 25EE245A 		vmul.f32	s10, s10, s9
 542              		.loc 1 208 0
 543 0104 65EEA45A 		vmul.f32	s11, s11, s9
 544              		.loc 1 209 0
 545 0108 26EE246A 		vmul.f32	s12, s12, s9
 546              		.loc 1 211 0
 547 010c 76EEC26A 		vsub.f32	s13, s13, s4
 548              		.loc 1 212 0
 549 0110 37EE627A 		vsub.f32	s14, s14, s5
 550              		.loc 1 213 0
 551 0114 77EEC37A 		vsub.f32	s15, s15, s6
 552              		.loc 1 215 0
 553 0118 05F14406 		add	r6, r5, #68
 554 011c 3046     		mov	r0, r6
 555              		.loc 1 207 0
 556 011e 8DED005A 		vstr.32	s10, [sp]
 557              		.loc 1 208 0
 558 0122 CDED015A 		vstr.32	s11, [sp, #4]
 559              		.loc 1 209 0
 560 0126 8DED026A 		vstr.32	s12, [sp, #8]
 561              		.loc 1 211 0
 562 012a CDED036A 		vstr.32	s13, [sp, #12]
 563              		.loc 1 212 0
 564 012e 8DED047A 		vstr.32	s14, [sp, #16]
 565              		.loc 1 213 0
 566 0132 CDED057A 		vstr.32	s15, [sp, #20]
 567              		.loc 1 215 0
 568 0136 FFF7FEFF 		bl	chMtxLock
 569              	.LVL54:
 570              		.loc 1 216 0
ARM GAS  /tmp/ccvWBHcm.s 			page 11


 571 013a 03AA     		add	r2, sp, #12
 572 013c 6946     		mov	r1, sp
 573 013e 2846     		mov	r0, r5
 574 0140 FFF7FEFF 		bl	imu_update
 575              	.LVL55:
 576              		.loc 1 218 0
 577 0144 4648     		ldr	r0, .L25+44
 578 0146 95ED030A 		vldr.32	s0, [r5, #12]
 579 014a FFF7FEFF 		bl	lpfilter_apply
 580              	.LVL56:
 581 014e 85ED030A 		vstr.32	s0, [r5, #12]
 582              		.loc 1 219 0
 583 0152 4448     		ldr	r0, .L25+48
 584 0154 95ED040A 		vldr.32	s0, [r5, #16]
 585 0158 FFF7FEFF 		bl	lpfilter_apply
 586              	.LVL57:
 587 015c 85ED040A 		vstr.32	s0, [r5, #16]
 588              		.loc 1 220 0
 589 0160 4148     		ldr	r0, .L25+52
 590 0162 95ED050A 		vldr.32	s0, [r5, #20]
 591 0166 FFF7FEFF 		bl	lpfilter_apply
 592              	.LVL58:
 593 016a 85ED050A 		vstr.32	s0, [r5, #20]
 594              		.loc 1 221 0
 595 016e 3F48     		ldr	r0, .L25+56
 596 0170 95ED000A 		vldr.32	s0, [r5]
 597 0174 FFF7FEFF 		bl	lpfilter_apply
 598              	.LVL59:
 599 0178 85ED0C0A 		vstr.32	s0, [r5, #48]
 600              		.loc 1 222 0
 601 017c 3C48     		ldr	r0, .L25+60
 602 017e 95ED010A 		vldr.32	s0, [r5, #4]
 603 0182 FFF7FEFF 		bl	lpfilter_apply
 604              	.LVL60:
 605 0186 85ED0D0A 		vstr.32	s0, [r5, #52]
 606              		.loc 1 223 0
 607 018a 3A48     		ldr	r0, .L25+64
 608 018c 95ED020A 		vldr.32	s0, [r5, #8]
 609 0190 FFF7FEFF 		bl	lpfilter_apply
 610              	.LVL61:
 611              		.loc 1 225 0
 612 0194 DFF8E8C0 		ldr	ip, .L25+76
 613              		.loc 1 223 0
 614 0198 85ED0E0A 		vstr.32	s0, [r5, #56]
 615              		.loc 1 226 0
 616 019c 218A     		ldrh	r1, [r4, #16]
 617              		.loc 1 225 0
 618 019e BCF80000 		ldrh	r0, [ip]
 619 01a2 3A68     		ldr	r2, [r7]
 620              		.loc 1 226 0
 621 01a4 8842     		cmp	r0, r1
 622              		.loc 1 225 0
 623 01a6 4FEA0243 		lsl	r3, r2, #16
 624 01aa 40EA0304 		orr	r4, r0, r3
 625              	.LVL62:
 626              		.loc 1 226 0
 627 01ae 02D9     		bls	.L11
ARM GAS  /tmp/ccvWBHcm.s 			page 12


 628              		.loc 1 227 0
 629 01b0 531C     		adds	r3, r2, #1
 630 01b2 3B60     		str	r3, [r7]
 631 01b4 1B04     		lsls	r3, r3, #16
 632              	.L11:
 633              	.LVL63:
 634              		.loc 1 229 0
 635 01b6 0B43     		orrs	r3, r3, r1
 636              	.LVL64:
 637              		.loc 1 231 0
 638 01b8 1B1B     		subs	r3, r3, r4
 639              	.LVL65:
 640 01ba DFF89080 		ldr	r8, .L25+24
 641              		.loc 1 232 0
 642 01be 322B     		cmp	r3, #50
 643 01c0 B8F83E40 		ldrh	r4, [r8, #62]
 644              	.LVL66:
 645 01c4 28D8     		bhi	.L12
 646              		.loc 1 232 0 is_stmt 0 discriminator 1
 647 01c6 39B3     		cbz	r1, .L12
 648              		.loc 1 240 0 is_stmt 1
 649 01c8 4FF4FA72 		mov	r2, #500
 650              	.LVL67:
 651 01cc 2A48     		ldr	r0, .L25+68
 652              		.loc 1 239 0
 653 01ce ACF80010 		strh	r1, [ip]	@ movhi
 654              		.loc 1 240 0
 655 01d2 02FB03F3 		mul	r3, r2, r3
 656              	.LVL68:
 657 01d6 0021     		movs	r1, #0
 658 01d8 42F21072 		movw	r2, #10000
 659 01dc E2FB0301 		umlal	r0, r1, r2, r3
 660 01e0 264A     		ldr	r2, .L25+72
 661              		.loc 1 243 0
 662 01e2 194F     		ldr	r7, .L25+20
 663              		.loc 1 240 0
 664 01e4 0023     		movs	r3, #0
 665 01e6 FFF7FEFF 		bl	__aeabi_uldivmod
 666              	.LVL69:
 667 01ea EB69     		ldr	r3, [r5, #28]
 668              		.loc 1 245 0
 669 01ec 98F83C20 		ldrb	r2, [r8, #60]	@ zero_extendqisi2
 670              		.loc 1 242 0
 671 01f0 24F04004 		bic	r4, r4, #64
 672              		.loc 1 240 0
 673 01f4 0344     		add	r3, r3, r0
 674              		.loc 1 243 0
 675 01f6 0021     		movs	r1, #0
 676              		.loc 1 245 0
 677 01f8 052A     		cmp	r2, #5
 678              		.loc 1 240 0
 679 01fa EB61     		str	r3, [r5, #28]
 680              		.loc 1 243 0
 681 01fc 3970     		strb	r1, [r7]
 682              		.loc 1 242 0
 683 01fe A8F83E40 		strh	r4, [r8, #62]	@ movhi
 684              		.loc 1 245 0
ARM GAS  /tmp/ccvWBHcm.s 			page 13


 685 0202 04D0     		beq	.L15
 686              		.loc 1 245 0 is_stmt 0 discriminator 1
 687 0204 022A     		cmp	r2, #2
 688              		.loc 1 246 0 is_stmt 1 discriminator 1
 689 0206 1CBF     		itt	ne
 690 0208 0123     		movne	r3, #1
 691 020a 88F83C30 		strbne	r3, [r8, #60]
 692              	.L15:
 693              		.loc 1 247 0
 694 020e 05F15400 		add	r0, r5, #84
 695 0212 FFF7FEFF 		bl	chCondBroadcast
 696              	.LVL70:
 697 0216 07E0     		b	.L14
 698              	.LVL71:
 699              	.L12:
 700              		.loc 1 235 0
 701 0218 0B4F     		ldr	r7, .L25+20
 702 021a 3B78     		ldrb	r3, [r7]	@ zero_extendqisi2
 703              	.LVL72:
 704              		.loc 1 234 0
 705 021c 44F04004 		orr	r4, r4, #64
 706              		.loc 1 235 0
 707 0220 0133     		adds	r3, r3, #1
 708              		.loc 1 234 0
 709 0222 A8F83E40 		strh	r4, [r8, #62]	@ movhi
 710              		.loc 1 235 0
 711 0226 3B70     		strb	r3, [r7]
 712              	.LVL73:
 713              	.L14:
 714              		.loc 1 250 0
 715 0228 3046     		mov	r0, r6
 716 022a FFF7FEFF 		bl	chMtxUnlock
 717              	.LVL74:
 718 022e 3B78     		ldrb	r3, [r7]	@ zero_extendqisi2
 719 0230 17E7     		b	.L9
 720              	.L26:
 721 0232 00BF     		.align	2
 722              	.L25:
 723 0234 00000000 		.word	SPID4
 724 0238 00000000 		.word	.LANCHOR5
 725 023c 00000000 		.word	.LANCHOR6
 726 0240 00000000 		.word	.LANCHOR7
 727 0244 FFFFFFFF 		.word	.LANCHOR6-1
 728 0248 00000000 		.word	.LANCHOR8
 729 024c 00000000 		.word	.LANCHOR0
 730 0250 0AD7A33A 		.word	983815946
 731 0254 88C3E43A 		.word	988070792
 732 0258 0AE81C41 		.word	1092413450
 733 025c 00000000 		.word	.LANCHOR9
 734 0260 00000000 		.word	.LANCHOR2
 735 0264 1C000000 		.word	.LANCHOR2+28
 736 0268 38000000 		.word	.LANCHOR2+56
 737 026c 00000000 		.word	.LANCHOR3
 738 0270 1C000000 		.word	.LANCHOR3+28
 739 0274 38000000 		.word	.LANCHOR3+56
 740 0278 3F420F00 		.word	999999
 741 027c 40420F00 		.word	1000000
ARM GAS  /tmp/ccvWBHcm.s 			page 14


 742 0280 00000000 		.word	.LANCHOR10
 743              	.LBE72:
 744              		.cfi_endproc
 745              	.LFE343:
 746              		.size	adis16470_update, .-adis16470_update
 747              		.section	.text.adis16470Thd,"ax",%progbits
 748              		.align	1
 749              		.p2align 2,,3
 750              		.syntax unified
 751              		.thumb
 752              		.thumb_func
 753              		.fpu fpv4-sp-d16
 754              		.type	adis16470Thd, %function
 755              	adis16470Thd:
 756              	.LFB338:
 757              		.loc 1 31 0
 758              		.cfi_startproc
 759              		@ args = 0, pretend = 0, frame = 0
 760              		@ frame_needed = 0, uses_anonymous_args = 0
 761              	.LVL75:
 762 0000 2DE9F843 		push	{r3, r4, r5, r6, r7, r8, r9, lr}
 763              		.cfi_def_cfa_offset 32
 764              		.cfi_offset 3, -32
 765              		.cfi_offset 4, -28
 766              		.cfi_offset 5, -24
 767              		.cfi_offset 6, -20
 768              		.cfi_offset 7, -16
 769              		.cfi_offset 8, -12
 770              		.cfi_offset 9, -8
 771              		.cfi_offset 14, -4
 772              		.loc 1 34 0
 773 0004 264D     		ldr	r5, .L51
 774 0006 95F83C30 		ldrb	r3, [r5, #60]	@ zero_extendqisi2
 775 000a 012B     		cmp	r3, #1
 776 000c 10D0     		beq	.L28
 777              		.loc 1 36 0
 778 000e 2C46     		mov	r4, r5
 779 0010 05E0     		b	.L29
 780              	.LVL76:
 781              	.L48:
 782              		.loc 1 39 0
 783 0012 FFF7FEFF 		bl	chThdSleep
 784              	.LVL77:
 785              		.loc 1 34 0
 786 0016 95F83C30 		ldrb	r3, [r5, #60]	@ zero_extendqisi2
 787 001a 012B     		cmp	r3, #1
 788 001c 08D0     		beq	.L28
 789              	.L29:
 790              		.loc 1 36 0
 791 001e 2046     		mov	r0, r4
 792 0020 FFF7FEFF 		bl	adis16470_update
 793              	.LVL78:
 794              		.loc 1 37 0
 795 0024 95F83C30 		ldrb	r3, [r5, #60]	@ zero_extendqisi2
 796 0028 052B     		cmp	r3, #5
 797              		.loc 1 39 0
 798 002a 4FF06400 		mov	r0, #100
ARM GAS  /tmp/ccvWBHcm.s 			page 15


 799              		.loc 1 37 0
 800 002e F0D1     		bne	.L48
 801              	.L28:
 802              	.LBB73:
 803              	.LBB74:
 804              	.LBB75:
 805              	.LBB76:
 806              		.file 2 "./RM18A-ChibiOS18-Core/chibios/os/hal/ports/STM32/LLD/TIMv1/hal_st_lld.h"
 807              		.loc 2 147 0
 808 0030 4FF08043 		mov	r3, #1073741824
 809              	.LBE76:
 810              	.LBE75:
 811              	.LBE74:
 812              	.LBE73:
 813              		.loc 1 49 0
 814 0034 DFF87080 		ldr	r8, .L51+8
 815              	.LBB80:
 816              	.LBB79:
 817              	.LBB78:
 818              	.LBB77:
 819              		.loc 2 147 0
 820 0038 5C6A     		ldr	r4, [r3, #36]
 821 003a 1A4E     		ldr	r6, .L51+4
 822              	.LBE77:
 823              	.LBE78:
 824              	.LBE79:
 825              	.LBE80:
 826              		.loc 1 54 0
 827 003c A8F15C07 		sub	r7, r8, #92
 828              	.LBB81:
 829              	.LBB82:
 830              	.LBB83:
 831              	.LBB84:
 832              		.file 3 "./RM18A-ChibiOS18-Core/chibios/os/common/ext/ARM/CMSIS/Core/Include/cmsis_gcc.h"
 833              		.loc 3 493 0
 834 0040 4FF02009 		mov	r9, #32
 835              	.L30:
 836              	.LVL79:
 837              	.LBE84:
 838              	.LBE83:
 839              	.LBE82:
 840              	.LBE81:
 841              	.LBB88:
 842              	.LBB89:
 843              		.file 4 "./RM18A-ChibiOS18-Core/chibios/os/rt/include/chthreads.h"
 844              		.loc 4 347 0
 845 0044 B369     		ldr	r3, [r6, #24]
 846              	.LBE89:
 847              	.LBE88:
 848              		.loc 1 43 0
 849 0046 93F82130 		ldrb	r3, [r3, #33]	@ zero_extendqisi2
 850 004a 5B07     		lsls	r3, r3, #29
 851 004c 14D4     		bmi	.L49
 852              	.L36:
 853              		.loc 1 45 0
 854 004e 95F83C30 		ldrb	r3, [r5, #60]	@ zero_extendqisi2
 855 0052 022B     		cmp	r3, #2
ARM GAS  /tmp/ccvWBHcm.s 			page 16


 856 0054 12D0     		beq	.L31
 857              		.loc 1 45 0 is_stmt 0 discriminator 1
 858 0056 052B     		cmp	r3, #5
 859              		.loc 1 54 0 is_stmt 1 discriminator 1
 860 0058 3846     		mov	r0, r7
 861              		.loc 1 45 0 discriminator 1
 862 005a 0FD0     		beq	.L31
 863              		.loc 1 54 0
 864 005c FFF7FEFF 		bl	adis16470_update
 865              	.LVL80:
 866              	.LBB91:
 867              	.LBB92:
 868              	.LBB93:
 869              	.LBB94:
 870              		.loc 2 147 0
 871 0060 4FF08043 		mov	r3, #1073741824
 872              	.LBE94:
 873              	.LBE93:
 874              	.LBE92:
 875              	.LBE91:
 876              		.loc 1 57 0
 877 0064 0534     		adds	r4, r4, #5
 878              	.LVL81:
 879              	.LBB104:
 880              	.LBB101:
 881              	.LBB98:
 882              	.LBB95:
 883              		.loc 2 147 0
 884 0066 5A6A     		ldr	r2, [r3, #36]
 885              	.LBE95:
 886              	.LBE98:
 887              	.LBE101:
 888              	.LBE104:
 889              		.loc 1 58 0
 890 0068 9442     		cmp	r4, r2
 891 006a 15D8     		bhi	.L50
 892              	.LVL82:
 893              	.L34:
 894              	.LBB105:
 895              	.LBB106:
 896              	.LBB107:
 897              	.LBB108:
 898              		.loc 2 147 0
 899 006c 5C6A     		ldr	r4, [r3, #36]
 900              	.LVL83:
 901              	.LBE108:
 902              	.LBE107:
 903              	.LBE106:
 904              	.LBE105:
 905              	.LBB109:
 906              	.LBB90:
 907              		.loc 4 347 0
 908 006e B369     		ldr	r3, [r6, #24]
 909              	.LBE90:
 910              	.LBE109:
 911              		.loc 1 43 0
 912 0070 93F82130 		ldrb	r3, [r3, #33]	@ zero_extendqisi2
ARM GAS  /tmp/ccvWBHcm.s 			page 17


 913 0074 5B07     		lsls	r3, r3, #29
 914 0076 EAD5     		bpl	.L36
 915              	.L49:
 916              		.loc 1 65 0
 917 0078 BDE8F883 		pop	{r3, r4, r5, r6, r7, r8, r9, pc}
 918              	.LVL84:
 919              	.L31:
 920              	.LBB110:
 921              	.LBB87:
 922              	.LBB86:
 923              	.LBB85:
 924              		.loc 3 493 0
 925              		.syntax unified
 926              	@ 493 "./RM18A-ChibiOS18-Core/chibios/os/common/ext/ARM/CMSIS/Core/Include/cmsis_gcc.h" 1
 927 007c 89F31188 		MSR basepri, r9
 928              	@ 0 "" 2
 929              	.LVL85:
 930              		.thumb
 931              		.syntax unified
 932              	.LBE85:
 933              	.LBE86:
 934              	.LBE87:
 935              	.LBE110:
 936              		.loc 1 49 0
 937 0080 4046     		mov	r0, r8
 938 0082 FFF7FEFF 		bl	chThdSuspendS
 939              	.LVL86:
 940              	.LBB111:
 941              	.LBB112:
 942              	.LBB113:
 943              	.LBB114:
 944              	.LBB115:
 945              		.loc 3 493 0
 946 0086 0023     		movs	r3, #0
 947              		.syntax unified
 948              	@ 493 "./RM18A-ChibiOS18-Core/chibios/os/common/ext/ARM/CMSIS/Core/Include/cmsis_gcc.h" 1
 949 0088 83F31188 		MSR basepri, r3
 950              	@ 0 "" 2
 951              	.LVL87:
 952              		.thumb
 953              		.syntax unified
 954              	.LBE115:
 955              	.LBE114:
 956              	.LBE113:
 957              	.LBE112:
 958              	.LBE111:
 959              	.LBB116:
 960              	.LBB102:
 961              	.LBB99:
 962              	.LBB96:
 963              		.loc 2 147 0
 964 008c 4FF08043 		mov	r3, #1073741824
 965              	.LBE96:
 966              	.LBE99:
 967              	.LBE102:
 968              	.LBE116:
 969              		.loc 1 57 0
ARM GAS  /tmp/ccvWBHcm.s 			page 18


 970 0090 0534     		adds	r4, r4, #5
 971              	.LVL88:
 972              	.LBB117:
 973              	.LBB103:
 974              	.LBB100:
 975              	.LBB97:
 976              		.loc 2 147 0
 977 0092 5A6A     		ldr	r2, [r3, #36]
 978              	.LBE97:
 979              	.LBE100:
 980              	.LBE103:
 981              	.LBE117:
 982              		.loc 1 58 0
 983 0094 9442     		cmp	r4, r2
 984 0096 E9D9     		bls	.L34
 985              	.L50:
 986              		.loc 1 59 0
 987 0098 2046     		mov	r0, r4
 988 009a FFF7FEFF 		bl	chThdSleepUntil
 989              	.LVL89:
 990 009e D1E7     		b	.L30
 991              	.L52:
 992              		.align	2
 993              	.L51:
 994 00a0 00000000 		.word	.LANCHOR0
 995 00a4 00000000 		.word	ch
 996 00a8 5C000000 		.word	.LANCHOR0+92
 997              		.cfi_endproc
 998              	.LFE338:
 999              		.size	adis16470Thd, .-adis16470Thd
 1000              		.section	.text.adis16470_get_gyro_raw,"ax",%progbits
 1001              		.align	1
 1002              		.p2align 2,,3
 1003              		.global	adis16470_get_gyro_raw
 1004              		.syntax unified
 1005              		.thumb
 1006              		.thumb_func
 1007              		.fpu fpv4-sp-d16
 1008              		.type	adis16470_get_gyro_raw, %function
 1009              	adis16470_get_gyro_raw:
 1010              	.LFB344:
 1011              		.loc 1 262 0
 1012              		.cfi_startproc
 1013              		@ args = 0, pretend = 0, frame = 8
 1014              		@ frame_needed = 0, uses_anonymous_args = 0
 1015              	.LVL90:
 1016 0000 F0B5     		push	{r4, r5, r6, r7, lr}
 1017              		.cfi_def_cfa_offset 20
 1018              		.cfi_offset 4, -20
 1019              		.cfi_offset 5, -16
 1020              		.cfi_offset 6, -12
 1021              		.cfi_offset 7, -8
 1022              		.cfi_offset 14, -4
 1023 0002 83B0     		sub	sp, sp, #12
 1024              		.cfi_def_cfa_offset 32
 1025              	.LBB130:
 1026              	.LBB131:
ARM GAS  /tmp/ccvWBHcm.s 			page 19


 1027              		.loc 1 128 0
 1028 0004 02AD     		add	r5, sp, #8
 1029              		.loc 1 131 0
 1030 0006 6C4C     		ldr	r4, .L55
 1031              		.loc 1 128 0
 1032 0008 4FF48063 		mov	r3, #1024
 1033 000c 25F8023D 		strh	r3, [r5, #-2]!	@ movhi
 1034              	.LBE131:
 1035              	.LBE130:
 1036              		.loc 1 262 0
 1037 0010 0646     		mov	r6, r0
 1038              	.LBB134:
 1039              	.LBB132:
 1040              		.loc 1 131 0
 1041 0012 2046     		mov	r0, r4
 1042              	.LVL91:
 1043 0014 FFF7FEFF 		bl	spiSelect
 1044              	.LVL92:
 1045              		.loc 1 132 0
 1046 0018 2A46     		mov	r2, r5
 1047 001a 0121     		movs	r1, #1
 1048 001c 2046     		mov	r0, r4
 1049 001e FFF7FEFF 		bl	spiSend
 1050              	.LVL93:
 1051              		.loc 1 133 0
 1052 0022 2046     		mov	r0, r4
 1053 0024 FFF7FEFF 		bl	spiUnselect
 1054              	.LVL94:
 1055              		.loc 1 135 0
 1056 0028 0120     		movs	r0, #1
 1057 002a FFF7FEFF 		bl	chThdSleep
 1058              	.LVL95:
 1059              		.loc 1 137 0
 1060 002e 2046     		mov	r0, r4
 1061 0030 FFF7FEFF 		bl	spiSelect
 1062              	.LVL96:
 1063              		.loc 1 138 0
 1064 0034 2A46     		mov	r2, r5
 1065 0036 0121     		movs	r1, #1
 1066 0038 2046     		mov	r0, r4
 1067 003a FFF7FEFF 		bl	spiReceive
 1068              	.LVL97:
 1069              		.loc 1 139 0
 1070 003e 2046     		mov	r0, r4
 1071 0040 FFF7FEFF 		bl	spiUnselect
 1072              	.LVL98:
 1073              		.loc 1 142 0
 1074 0044 0120     		movs	r0, #1
 1075 0046 FFF7FEFF 		bl	chThdSleep
 1076              	.LVL99:
 1077              	.LBE132:
 1078              	.LBE134:
 1079              	.LBB135:
 1080              	.LBB136:
 1081              		.loc 1 128 0
 1082 004a 4FF4C063 		mov	r3, #1536
 1083              		.loc 1 131 0
ARM GAS  /tmp/ccvWBHcm.s 			page 20


 1084 004e 2046     		mov	r0, r4
 1085              	.LBE136:
 1086              	.LBE135:
 1087              	.LBB138:
 1088              	.LBB133:
 1089              		.loc 1 144 0
 1090 0050 BDF80670 		ldrh	r7, [sp, #6]
 1091              	.LVL100:
 1092              	.LBE133:
 1093              	.LBE138:
 1094              	.LBB139:
 1095              	.LBB137:
 1096              		.loc 1 128 0
 1097 0054 ADF80630 		strh	r3, [sp, #6]	@ movhi
 1098              		.loc 1 131 0
 1099 0058 FFF7FEFF 		bl	spiSelect
 1100              	.LVL101:
 1101              		.loc 1 132 0
 1102 005c 2A46     		mov	r2, r5
 1103 005e 0121     		movs	r1, #1
 1104 0060 2046     		mov	r0, r4
 1105 0062 FFF7FEFF 		bl	spiSend
 1106              	.LVL102:
 1107              		.loc 1 133 0
 1108 0066 2046     		mov	r0, r4
 1109 0068 FFF7FEFF 		bl	spiUnselect
 1110              	.LVL103:
 1111              		.loc 1 135 0
 1112 006c 0120     		movs	r0, #1
 1113 006e FFF7FEFF 		bl	chThdSleep
 1114              	.LVL104:
 1115              		.loc 1 137 0
 1116 0072 2046     		mov	r0, r4
 1117 0074 FFF7FEFF 		bl	spiSelect
 1118              	.LVL105:
 1119              		.loc 1 138 0
 1120 0078 2A46     		mov	r2, r5
 1121 007a 0121     		movs	r1, #1
 1122 007c 2046     		mov	r0, r4
 1123 007e FFF7FEFF 		bl	spiReceive
 1124              	.LVL106:
 1125              		.loc 1 139 0
 1126 0082 2046     		mov	r0, r4
 1127 0084 FFF7FEFF 		bl	spiUnselect
 1128              	.LVL107:
 1129              		.loc 1 142 0
 1130 0088 0120     		movs	r0, #1
 1131 008a FFF7FEFF 		bl	chThdSleep
 1132              	.LVL108:
 1133              		.loc 1 144 0
 1134 008e BDF80630 		ldrh	r3, [sp, #6]
 1135              	.LVL109:
 1136              	.LBE137:
 1137              	.LBE139:
 1138              		.loc 1 263 0
 1139 0092 47EA0347 		orr	r7, r7, r3, lsl #16
 1140 0096 3760     		str	r7, [r6]
ARM GAS  /tmp/ccvWBHcm.s 			page 21


 1141              	.LVL110:
 1142              	.LBB140:
 1143              	.LBB141:
 1144              		.loc 1 128 0
 1145 0098 4FF40063 		mov	r3, #2048
 1146              		.loc 1 131 0
 1147 009c 2046     		mov	r0, r4
 1148              		.loc 1 128 0
 1149 009e ADF80630 		strh	r3, [sp, #6]	@ movhi
 1150              		.loc 1 131 0
 1151 00a2 FFF7FEFF 		bl	spiSelect
 1152              	.LVL111:
 1153              		.loc 1 132 0
 1154 00a6 2A46     		mov	r2, r5
 1155 00a8 0121     		movs	r1, #1
 1156 00aa 2046     		mov	r0, r4
 1157 00ac FFF7FEFF 		bl	spiSend
 1158              	.LVL112:
 1159              		.loc 1 133 0
 1160 00b0 2046     		mov	r0, r4
 1161 00b2 FFF7FEFF 		bl	spiUnselect
 1162              	.LVL113:
 1163              		.loc 1 135 0
 1164 00b6 0120     		movs	r0, #1
 1165 00b8 FFF7FEFF 		bl	chThdSleep
 1166              	.LVL114:
 1167              		.loc 1 137 0
 1168 00bc 2046     		mov	r0, r4
 1169 00be FFF7FEFF 		bl	spiSelect
 1170              	.LVL115:
 1171              		.loc 1 138 0
 1172 00c2 2A46     		mov	r2, r5
 1173 00c4 0121     		movs	r1, #1
 1174 00c6 2046     		mov	r0, r4
 1175 00c8 FFF7FEFF 		bl	spiReceive
 1176              	.LVL116:
 1177              		.loc 1 139 0
 1178 00cc 2046     		mov	r0, r4
 1179 00ce FFF7FEFF 		bl	spiUnselect
 1180              	.LVL117:
 1181              		.loc 1 142 0
 1182 00d2 0120     		movs	r0, #1
 1183 00d4 FFF7FEFF 		bl	chThdSleep
 1184              	.LVL118:
 1185              	.LBE141:
 1186              	.LBE140:
 1187              	.LBB143:
 1188              	.LBB144:
 1189              		.loc 1 128 0
 1190 00d8 4FF42063 		mov	r3, #2560
 1191              		.loc 1 131 0
 1192 00dc 2046     		mov	r0, r4
 1193              	.LBE144:
 1194              	.LBE143:
 1195              	.LBB146:
 1196              	.LBB142:
 1197              		.loc 1 144 0
ARM GAS  /tmp/ccvWBHcm.s 			page 22


 1198 00de BDF80670 		ldrh	r7, [sp, #6]
 1199              	.LVL119:
 1200              	.LBE142:
 1201              	.LBE146:
 1202              	.LBB147:
 1203              	.LBB145:
 1204              		.loc 1 128 0
 1205 00e2 ADF80630 		strh	r3, [sp, #6]	@ movhi
 1206              		.loc 1 131 0
 1207 00e6 FFF7FEFF 		bl	spiSelect
 1208              	.LVL120:
 1209              		.loc 1 132 0
 1210 00ea 2A46     		mov	r2, r5
 1211 00ec 0121     		movs	r1, #1
 1212 00ee 2046     		mov	r0, r4
 1213 00f0 FFF7FEFF 		bl	spiSend
 1214              	.LVL121:
 1215              		.loc 1 133 0
 1216 00f4 2046     		mov	r0, r4
 1217 00f6 FFF7FEFF 		bl	spiUnselect
 1218              	.LVL122:
 1219              		.loc 1 135 0
 1220 00fa 0120     		movs	r0, #1
 1221 00fc FFF7FEFF 		bl	chThdSleep
 1222              	.LVL123:
 1223              		.loc 1 137 0
 1224 0100 2046     		mov	r0, r4
 1225 0102 FFF7FEFF 		bl	spiSelect
 1226              	.LVL124:
 1227              		.loc 1 138 0
 1228 0106 2A46     		mov	r2, r5
 1229 0108 0121     		movs	r1, #1
 1230 010a 2046     		mov	r0, r4
 1231 010c FFF7FEFF 		bl	spiReceive
 1232              	.LVL125:
 1233              		.loc 1 139 0
 1234 0110 2046     		mov	r0, r4
 1235 0112 FFF7FEFF 		bl	spiUnselect
 1236              	.LVL126:
 1237              		.loc 1 142 0
 1238 0116 0120     		movs	r0, #1
 1239 0118 FFF7FEFF 		bl	chThdSleep
 1240              	.LVL127:
 1241              		.loc 1 144 0
 1242 011c BDF80630 		ldrh	r3, [sp, #6]
 1243              	.LVL128:
 1244              	.LBE145:
 1245              	.LBE147:
 1246              		.loc 1 264 0
 1247 0120 47EA0347 		orr	r7, r7, r3, lsl #16
 1248 0124 7760     		str	r7, [r6, #4]
 1249              	.LVL129:
 1250              	.LBB148:
 1251              	.LBB149:
 1252              		.loc 1 128 0
 1253 0126 4FF44063 		mov	r3, #3072
 1254              		.loc 1 131 0
ARM GAS  /tmp/ccvWBHcm.s 			page 23


 1255 012a 2046     		mov	r0, r4
 1256              		.loc 1 128 0
 1257 012c ADF80630 		strh	r3, [sp, #6]	@ movhi
 1258              		.loc 1 131 0
 1259 0130 FFF7FEFF 		bl	spiSelect
 1260              	.LVL130:
 1261              		.loc 1 132 0
 1262 0134 2A46     		mov	r2, r5
 1263 0136 0121     		movs	r1, #1
 1264 0138 2046     		mov	r0, r4
 1265 013a FFF7FEFF 		bl	spiSend
 1266              	.LVL131:
 1267              		.loc 1 133 0
 1268 013e 2046     		mov	r0, r4
 1269 0140 FFF7FEFF 		bl	spiUnselect
 1270              	.LVL132:
 1271              		.loc 1 135 0
 1272 0144 0120     		movs	r0, #1
 1273 0146 FFF7FEFF 		bl	chThdSleep
 1274              	.LVL133:
 1275              		.loc 1 137 0
 1276 014a 2046     		mov	r0, r4
 1277 014c FFF7FEFF 		bl	spiSelect
 1278              	.LVL134:
 1279              		.loc 1 138 0
 1280 0150 2A46     		mov	r2, r5
 1281 0152 0121     		movs	r1, #1
 1282 0154 2046     		mov	r0, r4
 1283 0156 FFF7FEFF 		bl	spiReceive
 1284              	.LVL135:
 1285              		.loc 1 139 0
 1286 015a 2046     		mov	r0, r4
 1287 015c FFF7FEFF 		bl	spiUnselect
 1288              	.LVL136:
 1289              		.loc 1 142 0
 1290 0160 0120     		movs	r0, #1
 1291 0162 FFF7FEFF 		bl	chThdSleep
 1292              	.LVL137:
 1293              	.LBE149:
 1294              	.LBE148:
 1295              	.LBB151:
 1296              	.LBB152:
 1297              		.loc 1 128 0
 1298 0166 4FF46063 		mov	r3, #3584
 1299              		.loc 1 131 0
 1300 016a 2046     		mov	r0, r4
 1301              	.LBE152:
 1302              	.LBE151:
 1303              	.LBB154:
 1304              	.LBB150:
 1305              		.loc 1 144 0
 1306 016c BDF80670 		ldrh	r7, [sp, #6]
 1307              	.LVL138:
 1308              	.LBE150:
 1309              	.LBE154:
 1310              	.LBB155:
 1311              	.LBB153:
ARM GAS  /tmp/ccvWBHcm.s 			page 24


 1312              		.loc 1 128 0
 1313 0170 ADF80630 		strh	r3, [sp, #6]	@ movhi
 1314              		.loc 1 131 0
 1315 0174 FFF7FEFF 		bl	spiSelect
 1316              	.LVL139:
 1317              		.loc 1 132 0
 1318 0178 2A46     		mov	r2, r5
 1319 017a 0121     		movs	r1, #1
 1320 017c 2046     		mov	r0, r4
 1321 017e FFF7FEFF 		bl	spiSend
 1322              	.LVL140:
 1323              		.loc 1 133 0
 1324 0182 2046     		mov	r0, r4
 1325 0184 FFF7FEFF 		bl	spiUnselect
 1326              	.LVL141:
 1327              		.loc 1 135 0
 1328 0188 0120     		movs	r0, #1
 1329 018a FFF7FEFF 		bl	chThdSleep
 1330              	.LVL142:
 1331              		.loc 1 137 0
 1332 018e 2046     		mov	r0, r4
 1333 0190 FFF7FEFF 		bl	spiSelect
 1334              	.LVL143:
 1335              		.loc 1 138 0
 1336 0194 2A46     		mov	r2, r5
 1337 0196 0121     		movs	r1, #1
 1338 0198 2046     		mov	r0, r4
 1339 019a FFF7FEFF 		bl	spiReceive
 1340              	.LVL144:
 1341              		.loc 1 139 0
 1342 019e 2046     		mov	r0, r4
 1343 01a0 FFF7FEFF 		bl	spiUnselect
 1344              	.LVL145:
 1345              		.loc 1 142 0
 1346 01a4 0120     		movs	r0, #1
 1347 01a6 FFF7FEFF 		bl	chThdSleep
 1348              	.LVL146:
 1349              		.loc 1 144 0
 1350 01aa BDF80630 		ldrh	r3, [sp, #6]
 1351              	.LVL147:
 1352              	.LBE153:
 1353              	.LBE155:
 1354              		.loc 1 265 0
 1355 01ae 47EA0347 		orr	r7, r7, r3, lsl #16
 1356 01b2 B760     		str	r7, [r6, #8]
 1357              		.loc 1 266 0
 1358 01b4 03B0     		add	sp, sp, #12
 1359              		.cfi_def_cfa_offset 20
 1360              		@ sp needed
 1361 01b6 F0BD     		pop	{r4, r5, r6, r7, pc}
 1362              	.LVL148:
 1363              	.L56:
 1364              		.align	2
 1365              	.L55:
 1366 01b8 00000000 		.word	SPID4
 1367              		.cfi_endproc
 1368              	.LFE344:
ARM GAS  /tmp/ccvWBHcm.s 			page 25


 1369              		.size	adis16470_get_gyro_raw, .-adis16470_get_gyro_raw
 1370              		.section	.text.adis16470_get_accel_raw,"ax",%progbits
 1371              		.align	1
 1372              		.p2align 2,,3
 1373              		.global	adis16470_get_accel_raw
 1374              		.syntax unified
 1375              		.thumb
 1376              		.thumb_func
 1377              		.fpu fpv4-sp-d16
 1378              		.type	adis16470_get_accel_raw, %function
 1379              	adis16470_get_accel_raw:
 1380              	.LFB345:
 1381              		.loc 1 269 0
 1382              		.cfi_startproc
 1383              		@ args = 0, pretend = 0, frame = 8
 1384              		@ frame_needed = 0, uses_anonymous_args = 0
 1385              	.LVL149:
 1386 0000 F0B5     		push	{r4, r5, r6, r7, lr}
 1387              		.cfi_def_cfa_offset 20
 1388              		.cfi_offset 4, -20
 1389              		.cfi_offset 5, -16
 1390              		.cfi_offset 6, -12
 1391              		.cfi_offset 7, -8
 1392              		.cfi_offset 14, -4
 1393 0002 83B0     		sub	sp, sp, #12
 1394              		.cfi_def_cfa_offset 32
 1395              	.LBB168:
 1396              	.LBB169:
 1397              		.loc 1 128 0
 1398 0004 02AD     		add	r5, sp, #8
 1399              		.loc 1 131 0
 1400 0006 6C4C     		ldr	r4, .L59
 1401              		.loc 1 128 0
 1402 0008 4FF48053 		mov	r3, #4096
 1403 000c 25F8023D 		strh	r3, [r5, #-2]!	@ movhi
 1404              	.LBE169:
 1405              	.LBE168:
 1406              		.loc 1 269 0
 1407 0010 0646     		mov	r6, r0
 1408              	.LBB172:
 1409              	.LBB170:
 1410              		.loc 1 131 0
 1411 0012 2046     		mov	r0, r4
 1412              	.LVL150:
 1413 0014 FFF7FEFF 		bl	spiSelect
 1414              	.LVL151:
 1415              		.loc 1 132 0
 1416 0018 2A46     		mov	r2, r5
 1417 001a 0121     		movs	r1, #1
 1418 001c 2046     		mov	r0, r4
 1419 001e FFF7FEFF 		bl	spiSend
 1420              	.LVL152:
 1421              		.loc 1 133 0
 1422 0022 2046     		mov	r0, r4
 1423 0024 FFF7FEFF 		bl	spiUnselect
 1424              	.LVL153:
 1425              		.loc 1 135 0
ARM GAS  /tmp/ccvWBHcm.s 			page 26


 1426 0028 0120     		movs	r0, #1
 1427 002a FFF7FEFF 		bl	chThdSleep
 1428              	.LVL154:
 1429              		.loc 1 137 0
 1430 002e 2046     		mov	r0, r4
 1431 0030 FFF7FEFF 		bl	spiSelect
 1432              	.LVL155:
 1433              		.loc 1 138 0
 1434 0034 2A46     		mov	r2, r5
 1435 0036 0121     		movs	r1, #1
 1436 0038 2046     		mov	r0, r4
 1437 003a FFF7FEFF 		bl	spiReceive
 1438              	.LVL156:
 1439              		.loc 1 139 0
 1440 003e 2046     		mov	r0, r4
 1441 0040 FFF7FEFF 		bl	spiUnselect
 1442              	.LVL157:
 1443              		.loc 1 142 0
 1444 0044 0120     		movs	r0, #1
 1445 0046 FFF7FEFF 		bl	chThdSleep
 1446              	.LVL158:
 1447              	.LBE170:
 1448              	.LBE172:
 1449              	.LBB173:
 1450              	.LBB174:
 1451              		.loc 1 128 0
 1452 004a 4FF49053 		mov	r3, #4608
 1453              		.loc 1 131 0
 1454 004e 2046     		mov	r0, r4
 1455              	.LBE174:
 1456              	.LBE173:
 1457              	.LBB176:
 1458              	.LBB171:
 1459              		.loc 1 144 0
 1460 0050 BDF80670 		ldrh	r7, [sp, #6]
 1461              	.LVL159:
 1462              	.LBE171:
 1463              	.LBE176:
 1464              	.LBB177:
 1465              	.LBB175:
 1466              		.loc 1 128 0
 1467 0054 ADF80630 		strh	r3, [sp, #6]	@ movhi
 1468              		.loc 1 131 0
 1469 0058 FFF7FEFF 		bl	spiSelect
 1470              	.LVL160:
 1471              		.loc 1 132 0
 1472 005c 2A46     		mov	r2, r5
 1473 005e 0121     		movs	r1, #1
 1474 0060 2046     		mov	r0, r4
 1475 0062 FFF7FEFF 		bl	spiSend
 1476              	.LVL161:
 1477              		.loc 1 133 0
 1478 0066 2046     		mov	r0, r4
 1479 0068 FFF7FEFF 		bl	spiUnselect
 1480              	.LVL162:
 1481              		.loc 1 135 0
 1482 006c 0120     		movs	r0, #1
ARM GAS  /tmp/ccvWBHcm.s 			page 27


 1483 006e FFF7FEFF 		bl	chThdSleep
 1484              	.LVL163:
 1485              		.loc 1 137 0
 1486 0072 2046     		mov	r0, r4
 1487 0074 FFF7FEFF 		bl	spiSelect
 1488              	.LVL164:
 1489              		.loc 1 138 0
 1490 0078 2A46     		mov	r2, r5
 1491 007a 0121     		movs	r1, #1
 1492 007c 2046     		mov	r0, r4
 1493 007e FFF7FEFF 		bl	spiReceive
 1494              	.LVL165:
 1495              		.loc 1 139 0
 1496 0082 2046     		mov	r0, r4
 1497 0084 FFF7FEFF 		bl	spiUnselect
 1498              	.LVL166:
 1499              		.loc 1 142 0
 1500 0088 0120     		movs	r0, #1
 1501 008a FFF7FEFF 		bl	chThdSleep
 1502              	.LVL167:
 1503              		.loc 1 144 0
 1504 008e BDF80630 		ldrh	r3, [sp, #6]
 1505              	.LVL168:
 1506              	.LBE175:
 1507              	.LBE177:
 1508              		.loc 1 270 0
 1509 0092 47EA0347 		orr	r7, r7, r3, lsl #16
 1510 0096 3760     		str	r7, [r6]
 1511              	.LVL169:
 1512              	.LBB178:
 1513              	.LBB179:
 1514              		.loc 1 128 0
 1515 0098 4FF4A053 		mov	r3, #5120
 1516              		.loc 1 131 0
 1517 009c 2046     		mov	r0, r4
 1518              		.loc 1 128 0
 1519 009e ADF80630 		strh	r3, [sp, #6]	@ movhi
 1520              		.loc 1 131 0
 1521 00a2 FFF7FEFF 		bl	spiSelect
 1522              	.LVL170:
 1523              		.loc 1 132 0
 1524 00a6 2A46     		mov	r2, r5
 1525 00a8 0121     		movs	r1, #1
 1526 00aa 2046     		mov	r0, r4
 1527 00ac FFF7FEFF 		bl	spiSend
 1528              	.LVL171:
 1529              		.loc 1 133 0
 1530 00b0 2046     		mov	r0, r4
 1531 00b2 FFF7FEFF 		bl	spiUnselect
 1532              	.LVL172:
 1533              		.loc 1 135 0
 1534 00b6 0120     		movs	r0, #1
 1535 00b8 FFF7FEFF 		bl	chThdSleep
 1536              	.LVL173:
 1537              		.loc 1 137 0
 1538 00bc 2046     		mov	r0, r4
 1539 00be FFF7FEFF 		bl	spiSelect
ARM GAS  /tmp/ccvWBHcm.s 			page 28


 1540              	.LVL174:
 1541              		.loc 1 138 0
 1542 00c2 2A46     		mov	r2, r5
 1543 00c4 0121     		movs	r1, #1
 1544 00c6 2046     		mov	r0, r4
 1545 00c8 FFF7FEFF 		bl	spiReceive
 1546              	.LVL175:
 1547              		.loc 1 139 0
 1548 00cc 2046     		mov	r0, r4
 1549 00ce FFF7FEFF 		bl	spiUnselect
 1550              	.LVL176:
 1551              		.loc 1 142 0
 1552 00d2 0120     		movs	r0, #1
 1553 00d4 FFF7FEFF 		bl	chThdSleep
 1554              	.LVL177:
 1555              	.LBE179:
 1556              	.LBE178:
 1557              	.LBB181:
 1558              	.LBB182:
 1559              		.loc 1 128 0
 1560 00d8 4FF4B053 		mov	r3, #5632
 1561              		.loc 1 131 0
 1562 00dc 2046     		mov	r0, r4
 1563              	.LBE182:
 1564              	.LBE181:
 1565              	.LBB184:
 1566              	.LBB180:
 1567              		.loc 1 144 0
 1568 00de BDF80670 		ldrh	r7, [sp, #6]
 1569              	.LVL178:
 1570              	.LBE180:
 1571              	.LBE184:
 1572              	.LBB185:
 1573              	.LBB183:
 1574              		.loc 1 128 0
 1575 00e2 ADF80630 		strh	r3, [sp, #6]	@ movhi
 1576              		.loc 1 131 0
 1577 00e6 FFF7FEFF 		bl	spiSelect
 1578              	.LVL179:
 1579              		.loc 1 132 0
 1580 00ea 2A46     		mov	r2, r5
 1581 00ec 0121     		movs	r1, #1
 1582 00ee 2046     		mov	r0, r4
 1583 00f0 FFF7FEFF 		bl	spiSend
 1584              	.LVL180:
 1585              		.loc 1 133 0
 1586 00f4 2046     		mov	r0, r4
 1587 00f6 FFF7FEFF 		bl	spiUnselect
 1588              	.LVL181:
 1589              		.loc 1 135 0
 1590 00fa 0120     		movs	r0, #1
 1591 00fc FFF7FEFF 		bl	chThdSleep
 1592              	.LVL182:
 1593              		.loc 1 137 0
 1594 0100 2046     		mov	r0, r4
 1595 0102 FFF7FEFF 		bl	spiSelect
 1596              	.LVL183:
ARM GAS  /tmp/ccvWBHcm.s 			page 29


 1597              		.loc 1 138 0
 1598 0106 2A46     		mov	r2, r5
 1599 0108 0121     		movs	r1, #1
 1600 010a 2046     		mov	r0, r4
 1601 010c FFF7FEFF 		bl	spiReceive
 1602              	.LVL184:
 1603              		.loc 1 139 0
 1604 0110 2046     		mov	r0, r4
 1605 0112 FFF7FEFF 		bl	spiUnselect
 1606              	.LVL185:
 1607              		.loc 1 142 0
 1608 0116 0120     		movs	r0, #1
 1609 0118 FFF7FEFF 		bl	chThdSleep
 1610              	.LVL186:
 1611              		.loc 1 144 0
 1612 011c BDF80630 		ldrh	r3, [sp, #6]
 1613              	.LVL187:
 1614              	.LBE183:
 1615              	.LBE185:
 1616              		.loc 1 271 0
 1617 0120 47EA0347 		orr	r7, r7, r3, lsl #16
 1618 0124 7760     		str	r7, [r6, #4]
 1619              	.LVL188:
 1620              	.LBB186:
 1621              	.LBB187:
 1622              		.loc 1 128 0
 1623 0126 4FF4C053 		mov	r3, #6144
 1624              		.loc 1 131 0
 1625 012a 2046     		mov	r0, r4
 1626              		.loc 1 128 0
 1627 012c ADF80630 		strh	r3, [sp, #6]	@ movhi
 1628              		.loc 1 131 0
 1629 0130 FFF7FEFF 		bl	spiSelect
 1630              	.LVL189:
 1631              		.loc 1 132 0
 1632 0134 2A46     		mov	r2, r5
 1633 0136 0121     		movs	r1, #1
 1634 0138 2046     		mov	r0, r4
 1635 013a FFF7FEFF 		bl	spiSend
 1636              	.LVL190:
 1637              		.loc 1 133 0
 1638 013e 2046     		mov	r0, r4
 1639 0140 FFF7FEFF 		bl	spiUnselect
 1640              	.LVL191:
 1641              		.loc 1 135 0
 1642 0144 0120     		movs	r0, #1
 1643 0146 FFF7FEFF 		bl	chThdSleep
 1644              	.LVL192:
 1645              		.loc 1 137 0
 1646 014a 2046     		mov	r0, r4
 1647 014c FFF7FEFF 		bl	spiSelect
 1648              	.LVL193:
 1649              		.loc 1 138 0
 1650 0150 2A46     		mov	r2, r5
 1651 0152 0121     		movs	r1, #1
 1652 0154 2046     		mov	r0, r4
 1653 0156 FFF7FEFF 		bl	spiReceive
ARM GAS  /tmp/ccvWBHcm.s 			page 30


 1654              	.LVL194:
 1655              		.loc 1 139 0
 1656 015a 2046     		mov	r0, r4
 1657 015c FFF7FEFF 		bl	spiUnselect
 1658              	.LVL195:
 1659              		.loc 1 142 0
 1660 0160 0120     		movs	r0, #1
 1661 0162 FFF7FEFF 		bl	chThdSleep
 1662              	.LVL196:
 1663              	.LBE187:
 1664              	.LBE186:
 1665              	.LBB189:
 1666              	.LBB190:
 1667              		.loc 1 128 0
 1668 0166 4FF4D053 		mov	r3, #6656
 1669              		.loc 1 131 0
 1670 016a 2046     		mov	r0, r4
 1671              	.LBE190:
 1672              	.LBE189:
 1673              	.LBB192:
 1674              	.LBB188:
 1675              		.loc 1 144 0
 1676 016c BDF80670 		ldrh	r7, [sp, #6]
 1677              	.LVL197:
 1678              	.LBE188:
 1679              	.LBE192:
 1680              	.LBB193:
 1681              	.LBB191:
 1682              		.loc 1 128 0
 1683 0170 ADF80630 		strh	r3, [sp, #6]	@ movhi
 1684              		.loc 1 131 0
 1685 0174 FFF7FEFF 		bl	spiSelect
 1686              	.LVL198:
 1687              		.loc 1 132 0
 1688 0178 2A46     		mov	r2, r5
 1689 017a 0121     		movs	r1, #1
 1690 017c 2046     		mov	r0, r4
 1691 017e FFF7FEFF 		bl	spiSend
 1692              	.LVL199:
 1693              		.loc 1 133 0
 1694 0182 2046     		mov	r0, r4
 1695 0184 FFF7FEFF 		bl	spiUnselect
 1696              	.LVL200:
 1697              		.loc 1 135 0
 1698 0188 0120     		movs	r0, #1
 1699 018a FFF7FEFF 		bl	chThdSleep
 1700              	.LVL201:
 1701              		.loc 1 137 0
 1702 018e 2046     		mov	r0, r4
 1703 0190 FFF7FEFF 		bl	spiSelect
 1704              	.LVL202:
 1705              		.loc 1 138 0
 1706 0194 2A46     		mov	r2, r5
 1707 0196 0121     		movs	r1, #1
 1708 0198 2046     		mov	r0, r4
 1709 019a FFF7FEFF 		bl	spiReceive
 1710              	.LVL203:
ARM GAS  /tmp/ccvWBHcm.s 			page 31


 1711              		.loc 1 139 0
 1712 019e 2046     		mov	r0, r4
 1713 01a0 FFF7FEFF 		bl	spiUnselect
 1714              	.LVL204:
 1715              		.loc 1 142 0
 1716 01a4 0120     		movs	r0, #1
 1717 01a6 FFF7FEFF 		bl	chThdSleep
 1718              	.LVL205:
 1719              		.loc 1 144 0
 1720 01aa BDF80630 		ldrh	r3, [sp, #6]
 1721              	.LVL206:
 1722              	.LBE191:
 1723              	.LBE193:
 1724              		.loc 1 272 0
 1725 01ae 47EA0347 		orr	r7, r7, r3, lsl #16
 1726 01b2 B760     		str	r7, [r6, #8]
 1727              		.loc 1 273 0
 1728 01b4 03B0     		add	sp, sp, #12
 1729              		.cfi_def_cfa_offset 20
 1730              		@ sp needed
 1731 01b6 F0BD     		pop	{r4, r5, r6, r7, pc}
 1732              	.LVL207:
 1733              	.L60:
 1734              		.align	2
 1735              	.L59:
 1736 01b8 00000000 		.word	SPID4
 1737              		.cfi_endproc
 1738              	.LFE345:
 1739              		.size	adis16470_get_accel_raw, .-adis16470_get_accel_raw
 1740              		.section	.text.adis16470_getData,"ax",%progbits
 1741              		.align	1
 1742              		.p2align 2,,3
 1743              		.global	adis16470_getData
 1744              		.syntax unified
 1745              		.thumb
 1746              		.thumb_func
 1747              		.fpu fpv4-sp-d16
 1748              		.type	adis16470_getData, %function
 1749              	adis16470_getData:
 1750              	.LFB346:
 1751              		.loc 1 276 0
 1752              		.cfi_startproc
 1753              		@ args = 0, pretend = 0, frame = 0
 1754              		@ frame_needed = 0, uses_anonymous_args = 0
 1755              		@ link register save eliminated.
 1756              		.loc 1 278 0
 1757 0000 0048     		ldr	r0, .L62
 1758 0002 7047     		bx	lr
 1759              	.L63:
 1760              		.align	2
 1761              	.L62:
 1762 0004 00000000 		.word	.LANCHOR0
 1763              		.cfi_endproc
 1764              	.LFE346:
 1765              		.size	adis16470_getData, .-adis16470_getData
 1766              		.section	.bss.adis16470,"aw",%nobits
 1767              		.align	2
ARM GAS  /tmp/ccvWBHcm.s 			page 32


 1768              		.set	.LANCHOR0,. + 0
 1769              		.type	adis16470, %object
 1770              		.size	adis16470, 96
 1771              	adis16470:
 1772 0000 00000000 		.space	96
 1772      00000000 
 1772      00000000 
 1772      00000000 
 1772      00000000 
 1773              		.section	.bss.adis16470Thd_wa,"aw",%nobits
 1774              		.align	3
 1775              		.set	.LANCHOR4,. + 0
 1776              		.type	adis16470Thd_wa, %object
 1777              		.size	adis16470Thd_wa, 1360
 1778              	adis16470Thd_wa:
 1779 0000 00000000 		.space	1360
 1779      00000000 
 1779      00000000 
 1779      00000000 
 1779      00000000 
 1780              		.section	.bss.burst_data,"aw",%nobits
 1781              		.align	2
 1782              		.set	.LANCHOR6,. + 0
 1783              		.type	burst_data, %object
 1784              		.size	burst_data, 20
 1785              	burst_data:
 1786 0000 00000000 		.space	20
 1786      00000000 
 1786      00000000 
 1786      00000000 
 1786      00000000 
 1787              		.section	.bss.checksum.10813,"aw",%nobits
 1788              		.set	.LANCHOR7,. + 0
 1789              		.type	checksum.10813, %object
 1790              		.size	checksum.10813, 1
 1791              	checksum.10813:
 1792 0000 00       		.space	1
 1793              		.section	.bss.error_counter.10821,"aw",%nobits
 1794              		.set	.LANCHOR8,. + 0
 1795              		.type	error_counter.10821, %object
 1796              		.size	error_counter.10821, 1
 1797              	error_counter.10821:
 1798 0000 00       		.space	1
 1799              		.section	.bss.lp_accel,"aw",%nobits
 1800              		.align	2
 1801              		.set	.LANCHOR2,. + 0
 1802              		.type	lp_accel, %object
 1803              		.size	lp_accel, 84
 1804              	lp_accel:
 1805 0000 00000000 		.space	84
 1805      00000000 
 1805      00000000 
 1805      00000000 
 1805      00000000 
 1806              		.section	.bss.lp_gyro,"aw",%nobits
 1807              		.align	2
 1808              		.set	.LANCHOR3,. + 0
ARM GAS  /tmp/ccvWBHcm.s 			page 33


 1809              		.type	lp_gyro, %object
 1810              		.size	lp_gyro, 84
 1811              	lp_gyro:
 1812 0000 00000000 		.space	84
 1812      00000000 
 1812      00000000 
 1812      00000000 
 1812      00000000 
 1813              		.section	.bss.prev_data_cnt.10824,"aw",%nobits
 1814              		.align	1
 1815              		.set	.LANCHOR10,. + 0
 1816              		.type	prev_data_cnt.10824, %object
 1817              		.size	prev_data_cnt.10824, 2
 1818              	prev_data_cnt.10824:
 1819 0000 0000     		.space	2
 1820              		.section	.bss.stamp_upper16.10823,"aw",%nobits
 1821              		.align	2
 1822              		.set	.LANCHOR9,. + 0
 1823              		.type	stamp_upper16.10823, %object
 1824              		.size	stamp_upper16.10823, 4
 1825              	stamp_upper16.10823:
 1826 0000 00000000 		.space	4
 1827              		.section	.rodata.adis16470SpiCfg.10793,"a",%progbits
 1828              		.align	2
 1829              		.set	.LANCHOR1,. + 0
 1830              		.type	adis16470SpiCfg.10793, %object
 1831              		.size	adis16470SpiCfg.10793, 16
 1832              	adis16470SpiCfg.10793:
 1833 0000 00       		.byte	0
 1834 0001 000000   		.space	3
 1835 0004 00000000 		.word	0
 1836 0008 04100240 		.word	1073876996
 1837 000c 2F08     		.short	2095
 1838 000e 0000     		.short	0
 1839              		.section	.rodata.burst_cmd.10811,"a",%progbits
 1840              		.align	1
 1841              		.set	.LANCHOR5,. + 0
 1842              		.type	burst_cmd.10811, %object
 1843              		.size	burst_cmd.10811, 2
 1844              	burst_cmd.10811:
 1845 0000 0068     		.short	26624
 1846              		.text
 1847              	.Letext0:
 1848              		.file 5 "/usr/lib/gcc/arm-none-eabi/7.3.1/include/stddef.h"
 1849              		.file 6 "/usr/arm-none-eabi/include/machine/_default_types.h"
 1850              		.file 7 "/usr/arm-none-eabi/include/sys/_stdint.h"
 1851              		.file 8 "./RM18A-ChibiOS18-Core/chibios/os/common/ports/ARMCMx/compilers/GCC/chtypes.h"
 1852              		.file 9 "./RM18A-ChibiOS18-Core/chibios/os/rt/include/chsystypes.h"
 1853              		.file 10 "./RM18A-ChibiOS18-Core/chibios/os/rt/include/chschd.h"
 1854              		.file 11 "./RM18A-ChibiOS18-Core/chibios/os/rt/include/chtime.h"
 1855              		.file 12 "./RM18A-ChibiOS18-Core/chibios/os/common/ext/ARM/CMSIS/Core/Include/core_cm4.h"
 1856              		.file 13 "./RM18A-ChibiOS18-Core/chibios/os/common/ext/ST/STM32F4xx/system_stm32f4xx.h"
 1857              		.file 14 "./RM18A-ChibiOS18-Core/chibios/os/common/ext/ST/STM32F4xx/stm32f427xx.h"
 1858              		.file 15 "./RM18A-ChibiOS18-Core/chibios/os/common/ports/ARMCMx/chcore.h"
 1859              		.file 16 "./RM18A-ChibiOS18-Core/chibios/os/common/ports/ARMCMx/chcore_v7m.h"
 1860              		.file 17 "./RM18A-ChibiOS18-Core/chibios/os/hal/ports/STM32/LLD/TIMv1/stm32_tim.h"
 1861              		.file 18 "./RM18A-ChibiOS18-Core/chibios/os/rt/include/chtm.h"
ARM GAS  /tmp/ccvWBHcm.s 			page 34


 1862              		.file 19 "./RM18A-ChibiOS18-Core/chibios/os/rt/include/chsem.h"
 1863              		.file 20 "./RM18A-ChibiOS18-Core/chibios/os/rt/include/chmtx.h"
 1864              		.file 21 "./RM18A-ChibiOS18-Core/chibios/os/rt/include/chsys.h"
 1865              		.file 22 "./RM18A-ChibiOS18-Core/chibios/os/rt/include/chregistry.h"
 1866              		.file 23 "./RM18A-ChibiOS18-Core/chibios/os/rt/include/chcond.h"
 1867              		.file 24 "./RM18A-ChibiOS18-Core/chibios/os/rt/include/chevents.h"
 1868              		.file 25 "./RM18A-ChibiOS18-Core/chibios/os/oslib/include/chmemcore.h"
 1869              		.file 26 "./RM18A-ChibiOS18-Core/chibios/os/oslib/include/chmempools.h"
 1870              		.file 27 "./RM18A-ChibiOS18-Core/chibios/os/oslib/include/chfactory.h"
 1871              		.file 28 "./RM18A-ChibiOS18-Core/chibios/os/hal/ports/STM32/LLD/DMAv2/stm32_dma.h"
 1872              		.file 29 "./RM18A-ChibiOS18-Core/chibios/os/hal/include/hal_queues.h"
 1873              		.file 30 "./RM18A-ChibiOS18-Core/chibios/os/hal/include/hal_pal.h"
 1874              		.file 31 "./RM18A-ChibiOS18-Core/chibios/os/hal/ports/STM32/LLD/GPIOv2/stm32_gpio.h"
 1875              		.file 32 "./RM18A-ChibiOS18-Core/chibios/os/hal/ports/STM32/LLD/GPIOv2/hal_pal_lld.h"
 1876              		.file 33 "./RM18A-ChibiOS18-Core/chibios/os/hal/include/hal_adc.h"
 1877              		.file 34 "./RM18A-ChibiOS18-Core/chibios/os/hal/ports/STM32/LLD/ADCv2/hal_adc_lld.h"
 1878              		.file 35 "./RM18A-ChibiOS18-Core/chibios/os/hal/include/hal_can.h"
 1879              		.file 36 "./RM18A-ChibiOS18-Core/chibios/os/hal/ports/STM32/LLD/CANv1/hal_can_lld.h"
 1880              		.file 37 "./RM18A-ChibiOS18-Core/chibios/os/hal/include/hal_i2c.h"
 1881              		.file 38 "./RM18A-ChibiOS18-Core/chibios/os/hal/ports/STM32/LLD/I2Cv1/hal_i2c_lld.h"
 1882              		.file 39 "./RM18A-ChibiOS18-Core/chibios/os/hal/include/hal_pwm.h"
 1883              		.file 40 "./RM18A-ChibiOS18-Core/chibios/os/hal/ports/STM32/LLD/TIMv1/hal_pwm_lld.h"
 1884              		.file 41 "./RM18A-ChibiOS18-Core/chibios/os/hal/include/hal_serial.h"
 1885              		.file 42 "./RM18A-ChibiOS18-Core/chibios/os/hal/ports/STM32/LLD/USARTv1/hal_serial_lld.h"
 1886              		.file 43 "./RM18A-ChibiOS18-Core/chibios/os/hal/include/hal_spi.h"
 1887              		.file 44 "./RM18A-ChibiOS18-Core/chibios/os/hal/ports/STM32/LLD/SPIv1/hal_spi_lld.h"
 1888              		.file 45 "./RM18A-ChibiOS18-Core/chibios/os/hal/include/hal_uart.h"
 1889              		.file 46 "./RM18A-ChibiOS18-Core/chibios/os/hal/ports/STM32/LLD/USARTv1/hal_uart_lld.h"
 1890              		.file 47 "./RM18A-ChibiOS18-Core/chibios/os/hal/include/hal_usb.h"
 1891              		.file 48 "./RM18A-ChibiOS18-Core/chibios/os/hal/ports/STM32/LLD/OTGv1/hal_usb_lld.h"
 1892              		.file 49 "./RM18A-ChibiOS18-Core/chibios/os/hal/ports/STM32/LLD/OTGv1/stm32_otg.h"
 1893              		.file 50 "/usr/arm-none-eabi/include/sys/lock.h"
 1894              		.file 51 "/usr/arm-none-eabi/include/sys/_types.h"
 1895              		.file 52 "/usr/arm-none-eabi/include/sys/reent.h"
 1896              		.file 53 "./RM18A-ChibiOS18-Core/src/utility/math_misc.h"
 1897              		.file 54 "./RM18A-ChibiOS18-Core/src/imu.h"
 1898              		.file 55 "./RM18A-ChibiOS18-Core/src/ext_hw/adis16470.h"
 1899              		.file 56 "./RM18A-ChibiOS18-Core/chibios/os/rt/include/chvt.h"
 1900              		.file 57 "./RM18A-ChibiOS18-Core/chibios/os/common/ports/ARMCMx/chcore_timer.h"