ARM GAS  /tmp/ccMTmCmO.s 			page 1


   1              		.cpu cortex-m4
   2              		.eabi_attribute 27, 1
   3              		.eabi_attribute 28, 1
   4              		.eabi_attribute 20, 1
   5              		.eabi_attribute 21, 1
   6              		.eabi_attribute 23, 3
   7              		.eabi_attribute 24, 1
   8              		.eabi_attribute 25, 1
   9              		.eabi_attribute 26, 1
  10              		.eabi_attribute 30, 2
  11              		.eabi_attribute 34, 1
  12              		.eabi_attribute 18, 4
  13              		.file	"attitude.cpp"
  14              		.text
  15              	.Ltext0:
  16              		.cfi_sections	.debug_frame
  17              		.global	__aeabi_uldivmod
  18              		.global	__aeabi_ldivmod
  19              		.section	.text._ZL15Attitude_threadPv,"ax",%progbits
  20              		.align	1
  21              		.p2align 2,,3
  22              		.syntax unified
  23              		.thumb
  24              		.thumb_func
  25              		.fpu fpv4-sp-d16
  26              		.type	_ZL15Attitude_threadPv, %function
  27              	_ZL15Attitude_threadPv:
  28              	.LFB582:
  29              		.file 1 "./RM18A-ChibiOS18-Core/src/attitude.cpp"
  30              		.loc 1 74 0
  31              		.cfi_startproc
  32              		@ args = 0, pretend = 0, frame = 96
  33              		@ frame_needed = 0, uses_anonymous_args = 0
  34              	.LVL0:
  35 0000 2DE9F04F 		push	{r4, r5, r6, r7, r8, r9, r10, fp, lr}
  36              		.cfi_def_cfa_offset 36
  37              		.cfi_offset 4, -36
  38              		.cfi_offset 5, -32
  39              		.cfi_offset 6, -28
  40              		.cfi_offset 7, -24
  41              		.cfi_offset 8, -20
  42              		.cfi_offset 9, -16
  43              		.cfi_offset 10, -12
  44              		.cfi_offset 11, -8
  45              		.cfi_offset 14, -4
  46              		.loc 1 78 0
  47 0004 D04D     		ldr	r5, .L59
  48 0006 2C68     		ldr	r4, [r5]
  49              		.loc 1 74 0
  50 0008 2DED0A8B 		vpush.64	{d8, d9, d10, d11, d12}
  51              		.cfi_def_cfa_offset 76
  52              		.cfi_offset 80, -76
  53              		.cfi_offset 81, -72
  54              		.cfi_offset 82, -68
  55              		.cfi_offset 83, -64
  56              		.cfi_offset 84, -60
  57              		.cfi_offset 85, -56
ARM GAS  /tmp/ccMTmCmO.s 			page 2


  58              		.cfi_offset 86, -52
  59              		.cfi_offset 87, -48
  60              		.cfi_offset 88, -44
  61              		.cfi_offset 89, -40
  62              		.loc 1 78 0
  63 000c 94F83C30 		ldrb	r3, [r4, #60]	@ zero_extendqisi2
  64 0010 012B     		cmp	r3, #1
  65              		.loc 1 74 0
  66 0012 99B0     		sub	sp, sp, #100
  67              		.cfi_def_cfa_offset 176
  68              		.loc 1 78 0
  69 0014 1ED0     		beq	.L2
  70 0016 DFF85C83 		ldr	r8, .L59+44
  71              		.loc 1 82 0
  72 001a CC4F     		ldr	r7, .L59+4
  73              		.loc 1 83 0
  74 001c 0026     		movs	r6, #0
  75 001e 0AE0     		b	.L3
  76              	.LVL1:
  77              	.L54:
  78              		.loc 1 82 0
  79 0020 3B68     		ldr	r3, [r7]
  80 0022 2B60     		str	r3, [r5]
  81              		.loc 1 83 0
  82 0024 88F80060 		strb	r6, [r8]
  83              		.loc 1 85 0
  84 0028 FFF7FEFF 		bl	chThdSleep
  85              	.LVL2:
  86              		.loc 1 78 0
  87 002c 2C68     		ldr	r4, [r5]
  88 002e 94F83C30 		ldrb	r3, [r4, #60]	@ zero_extendqisi2
  89 0032 012B     		cmp	r3, #1
  90 0034 0ED0     		beq	.L2
  91              	.L3:
  92              		.loc 1 80 0
  93 0036 98F80030 		ldrb	r3, [r8]	@ zero_extendqisi2
  94              		.loc 1 85 0
  95 003a 4FF47A70 		mov	r0, #1000
  96              		.loc 1 80 0
  97 003e 002B     		cmp	r3, #0
  98 0040 EED1     		bne	.L54
  99              		.loc 1 85 0
 100 0042 4FF47A70 		mov	r0, #1000
 101 0046 FFF7FEFF 		bl	chThdSleep
 102              	.LVL3:
 103              		.loc 1 78 0
 104 004a 2C68     		ldr	r4, [r5]
 105 004c 94F83C30 		ldrb	r3, [r4, #60]	@ zero_extendqisi2
 106 0050 012B     		cmp	r3, #1
 107 0052 F0D1     		bne	.L3
 108              	.L2:
 109              	.LVL4:
 110              	.LBB52:
 111              	.LBB53:
 112              		.loc 1 197 0
 113 0054 E068     		ldr	r0, [r4, #12]	@ float
 114 0056 2169     		ldr	r1, [r4, #16]	@ float
ARM GAS  /tmp/ccMTmCmO.s 			page 3


 115 0058 6269     		ldr	r2, [r4, #20]	@ float
 116              	.LVL5:
 117              	.LBB54:
 118              	.LBB55:
 119              	.LBB56:
 120              		.file 2 "./RM18A-ChibiOS18-Core/src/utility/Quaternion.hpp"
 121              		.loc 2 14 0
 122 005a 0490     		str	r0, [sp, #16]	@ float
 123 005c 0023     		movs	r3, #0
 124              	.LBE56:
 125              	.LBE55:
 126              	.LBE54:
 127              		.loc 1 198 0
 128 005e 03A8     		add	r0, sp, #12
 129              	.LVL6:
 130              	.LBB59:
 131              	.LBB58:
 132              	.LBB57:
 133              		.loc 2 14 0
 134 0060 0591     		str	r1, [sp, #20]	@ float
 135 0062 0692     		str	r2, [sp, #24]	@ float
 136              	.LVL7:
 137 0064 0393     		str	r3, [sp, #12]	@ float
 138              	.LBE57:
 139              	.LBE58:
 140              	.LBE59:
 141              		.loc 1 198 0
 142 0066 FFF7FEFF 		bl	_ZN10Quaternion4normEv
 143              	.LVL8:
 144              	.LBB60:
 145              		.loc 1 201 0
 146 006a 94ED037A 		vldr.32	s14, [r4, #12]
 147 006e C7EE007A 		vdiv.f32	s15, s14, s0
 148 0072 CDED157A 		vstr.32	s15, [sp, #84]
 149              	.LVL9:
 150 0076 94ED047A 		vldr.32	s14, [r4, #16]
 151 007a 87EE006A 		vdiv.f32	s12, s14, s0
 152              	.LBE60:
 153              		.loc 1 204 0
 154 007e 67EEA76A 		vmul.f32	s13, s15, s15
 155              	.LBB61:
 156              		.loc 1 201 0
 157 0082 8DED166A 		vstr.32	s12, [sp, #88]
 158              	.LVL10:
 159 0086 D4ED055A 		vldr.32	s11, [r4, #20]
 160 008a 85EE807A 		vdiv.f32	s14, s11, s0
 161              	.LBE61:
 162              		.loc 1 203 0
 163 008e E7EE076A 		vfma.f32	s13, s14, s14
 164              	.LBB62:
 165              		.loc 1 201 0
 166 0092 8DED177A 		vstr.32	s14, [sp, #92]
 167              	.LVL11:
 168 0096 F5EE406A 		vcmp.f32	s13, #0
 169 009a F1EE10FA 		vmrs	APSR_nzcv, FPSCR
 170              	.LBE62:
 171              		.loc 1 203 0
ARM GAS  /tmp/ccMTmCmO.s 			page 4


 172 009e B1EEE68A 		vsqrt.f32	s16, s13
 173 00a2 00F11F82 		bmi	.L55
 174              	.LVL12:
 175              	.L7:
 176              		.loc 1 211 0
 177 00a6 0FAE     		add	r6, sp, #60
 178 00a8 3146     		mov	r1, r6
 179 00aa 07A8     		add	r0, sp, #28
 180 00ac 0BAF     		add	r7, sp, #44
 181              	.LBE53:
 182              	.LBE52:
 183              		.loc 1 88 0
 184 00ae A84C     		ldr	r4, .L59+8
 185              	.LVL13:
 186              	.LBB70:
 187              	.LBB67:
 188              		.loc 1 208 0
 189 00b0 F1EE676A 		vneg.f32	s13, s15
 190 00b4 C6EE884A 		vdiv.f32	s9, s13, s16
 191              		.loc 1 206 0
 192 00b8 87EE084A 		vdiv.f32	s8, s14, s16
 193              		.loc 1 207 0
 194 00bc 9FEDA59A 		vldr.32	s18, .L59+12
 195              		.loc 1 208 0
 196 00c0 CDED114A 		vstr.32	s9, [sp, #68]
 197              	.LVL14:
 198              	.LBB63:
 199              	.LBB64:
 200              		.file 3 "./RM18A-ChibiOS18-Core/src/utility/math_misc.h"
 201              		.loc 3 100 0
 202 00c4 27EEE45A 		vnmul.f32	s10, s15, s9
 203              		.loc 3 99 0
 204 00c8 69EE475A 		vnmul.f32	s11, s18, s14
 205              		.loc 3 101 0
 206 00cc 66EE446A 		vnmul.f32	s13, s12, s8
 207              		.loc 3 100 0
 208 00d0 A4EE075A 		vfma.f32	s10, s8, s14
 209              		.loc 3 99 0
 210 00d4 B0EE657A 		vmov.f32	s14, s11
 211 00d8 A4EE867A 		vfma.f32	s14, s9, s12
 212              		.loc 3 101 0
 213 00dc E7EE896A 		vfma.f32	s13, s15, s18
 214              	.LBE64:
 215              	.LBE63:
 216              		.loc 1 207 0
 217 00e0 8DED109A 		vstr.32	s18, [sp, #64]
 218              		.loc 1 206 0
 219 00e4 8DED0F4A 		vstr.32	s8, [sp, #60]
 220              	.LBB66:
 221              	.LBB65:
 222              		.loc 3 100 0
 223 00e8 8DED135A 		vstr.32	s10, [sp, #76]
 224              		.loc 3 99 0
 225 00ec 8DED127A 		vstr.32	s14, [sp, #72]
 226              		.loc 3 101 0
 227 00f0 CDED146A 		vstr.32	s13, [sp, #80]
 228              	.LVL15:
ARM GAS  /tmp/ccMTmCmO.s 			page 5


 229              	.LBE65:
 230              	.LBE66:
 231              		.loc 1 211 0
 232 00f4 FFF7FEFF 		bl	_ZN10QuaternionC1EPA3_Kf
 233              	.LVL16:
 234 00f8 07AB     		add	r3, sp, #28
 235 00fa 0FCB     		ldm	r3, {r0, r1, r2, r3}
 236 00fc 86E80F00 		stm	r6, {r0, r1, r2, r3}
 237              	.LVL17:
 238              	.LBE67:
 239              	.LBE70:
 240              	.LBB71:
 241              	.LBB72:
 242              		.file 4 "./RM18A-ChibiOS18-Core/chibios/os/rt/include/chthreads.h"
 243              		.loc 4 347 0
 244 0100 954E     		ldr	r6, .L59+16
 245              	.LBE72:
 246              	.LBE71:
 247              		.loc 1 89 0
 248 0102 D5F800C0 		ldr	ip, [r5]
 249              	.LBB76:
 250              	.LBB73:
 251              		.loc 4 347 0
 252 0106 B669     		ldr	r6, [r6, #24]
 253              	.LBE73:
 254              	.LBE76:
 255              	.LBB77:
 256              	.LBB68:
 257              		.loc 1 211 0
 258 0108 87E80F00 		stm	r7, {r0, r1, r2, r3}
 259              	.LBE68:
 260              	.LBE77:
 261              		.loc 1 91 0
 262 010c 96F82170 		ldrb	r7, [r6, #33]	@ zero_extendqisi2
 263              		.loc 1 89 0
 264 0110 DCF81C60 		ldr	r6, [ip, #28]
 265              	.LVL18:
 266              		.loc 1 88 0
 267 0114 84E80F00 		stm	r4, {r0, r1, r2, r3}
 268              		.loc 1 91 0
 269 0118 7A07     		lsls	r2, r7, #29
 270 011a 00F10F81 		bmi	.L1
 271 011e DFF85482 		ldr	r8, .L59+44
 272 0122 8E4F     		ldr	r7, .L59+20
 273 0124 DFF85092 		ldr	r9, .L59+48
 274 0128 DFF850A2 		ldr	r10, .L59+52
 275              	.LBB78:
 276              		.loc 1 122 0
 277 012c 9FED8CAA 		vldr.32	s20, .L59+24
 278              	.LBB79:
 279              		.loc 1 126 0
 280 0130 DFED8C9A 		vldr.32	s19, .L59+28
 281 0134 9FED8CBA 		vldr.32	s22, .L59+32
 282              	.LBB80:
 283              	.LBB81:
 284              		.loc 1 143 0
 285 0138 DFED8CAA 		vldr.32	s21, .L59+36
ARM GAS  /tmp/ccMTmCmO.s 			page 6


 286              	.LBE81:
 287              	.LBE80:
 288              	.LBE79:
 289              		.loc 1 162 0
 290 013c 6046     		mov	r0, ip
 291 013e 75E0     		b	.L29
 292              	.LVL19:
 293              	.L57:
 294              	.LBB92:
 295              		.loc 1 126 0
 296 0140 DFED847A 		vldr.32	s15, .L59+12
 297 0144 D9ED006A 		vldr.32	s13, [r9]
 298 0148 99ED025A 		vldr.32	s10, [r9, #8]
 299 014c 99ED017A 		vldr.32	s14, [r9, #4]
 300 0150 F0EE675A 		vmov.f32	s11, s15
 301 0154 B0EE496A 		vmov.f32	s12, s18
 302              	.L14:
 303              	.LVL20:
 304              	.LBE92:
 305              	.LBB93:
 306              		.loc 1 158 0 discriminator 3
 307 0158 78EEA68A 		vadd.f32	s17, s17, s13
 308              	.LVL21:
 309 015c 38EE078A 		vadd.f32	s16, s16, s14
 310              	.LVL22:
 311 0160 35EE2B7A 		vadd.f32	s14, s10, s23
 312 0164 78EEA55A 		vadd.f32	s11, s17, s11
 313 0168 37EE066A 		vadd.f32	s12, s14, s12
 314 016c 78EE277A 		vadd.f32	s15, s16, s15
 315              	.LBE93:
 316              		.loc 1 160 0 discriminator 3
 317 0170 7A49     		ldr	r1, .L59+20
 318              	.LBB94:
 319              		.loc 1 158 0 discriminator 3
 320 0172 C7ED005A 		vstr.32	s11, [r7]
 321              	.LVL23:
 322              	.LBE94:
 323              		.loc 1 160 0 discriminator 3
 324 0176 07A8     		add	r0, sp, #28
 325              	.LBB95:
 326              		.loc 1 158 0 discriminator 3
 327 0178 C7ED017A 		vstr.32	s15, [r7, #4]
 328              	.LVL24:
 329 017c 87ED026A 		vstr.32	s12, [r7, #8]
 330              	.LVL25:
 331              	.LBE95:
 332              		.loc 1 160 0 discriminator 3
 333 0180 FFF7FEFF 		bl	_ZN10QuaternionC1EPKff
 334              	.LVL26:
 335              	.LBB96:
 336              	.LBB97:
 337              		.loc 2 54 0 discriminator 3
 338 0184 9DED074A 		vldr.32	s8, [sp, #28]
 339 0188 D4ED027A 		vldr.32	s15, [r4, #8]
 340 018c 9DED0A5A 		vldr.32	s10, [sp, #40]
 341 0190 DDED093A 		vldr.32	s7, [sp, #36]
 342              		.loc 2 55 0 discriminator 3
ARM GAS  /tmp/ccMTmCmO.s 			page 7


 343 0194 DDED084A 		vldr.32	s9, [sp, #32]
 344              		.loc 2 54 0 discriminator 3
 345 0198 D4ED012A 		vldr.32	s5, [r4, #4]
 346 019c 94ED033A 		vldr.32	s6, [r4, #12]
 347              		.loc 2 55 0 discriminator 3
 348 01a0 D4ED005A 		vldr.32	s11, [r4]
 349              	.LVL27:
 350              	.LBE97:
 351              	.LBE96:
 352              		.loc 1 162 0 discriminator 3
 353 01a4 6A48     		ldr	r0, .L59+8
 354              	.LBB99:
 355              	.LBB98:
 356              		.loc 2 56 0 discriminator 3
 357 01a6 24EE276A 		vmul.f32	s12, s8, s15
 358              		.loc 2 60 0 discriminator 3
 359 01aa 63EEE76A 		vnmul.f32	s13, s7, s15
 360              		.loc 2 54 0 discriminator 3
 361 01ae 27EE857A 		vmul.f32	s14, s15, s10
 362              		.loc 2 58 0 discriminator 3
 363 01b2 64EEE77A 		vnmul.f32	s15, s9, s15
 364              	.LVL28:
 365              		.loc 2 56 0 discriminator 3
 366 01b6 B1EE622A 		vneg.f32	s4, s5
 367              	.LVL29:
 368 01ba A5EE026A 		vfma.f32	s12, s10, s4
 369              		.loc 2 60 0 discriminator 3
 370 01be E4EE826A 		vfma.f32	s13, s9, s4
 371              		.loc 2 54 0 discriminator 3
 372 01c2 A2EE847A 		vfma.f32	s14, s5, s8
 373              		.loc 2 58 0 discriminator 3
 374 01c6 E2EEA37A 		vfma.f32	s15, s5, s7
 375              		.loc 2 56 0 discriminator 3
 376 01ca A3EE246A 		vfma.f32	s12, s6, s9
 377              		.loc 2 60 0 discriminator 3
 378 01ce E5EE436A 		vfms.f32	s13, s10, s6
 379              		.loc 2 54 0 discriminator 3
 380 01d2 A3EE637A 		vfms.f32	s14, s6, s7
 381              		.loc 2 58 0 discriminator 3
 382 01d6 E4EE037A 		vfma.f32	s15, s8, s6
 383              		.loc 2 56 0 discriminator 3
 384 01da A3EEA56A 		vfma.f32	s12, s7, s11
 385              		.loc 2 60 0 discriminator 3
 386 01de E4EE256A 		vfma.f32	s13, s8, s11
 387              		.loc 2 54 0 discriminator 3
 388 01e2 A5EEA47A 		vfma.f32	s14, s11, s9
 389              	.LVL30:
 390              		.loc 2 58 0 discriminator 3
 391 01e6 E5EE257A 		vfma.f32	s15, s10, s11
 392              		.loc 2 64 0 discriminator 3
 393 01ea 84ED026A 		vstr.32	s12, [r4, #8]
 394              	.LVL31:
 395              		.loc 2 66 0 discriminator 3
 396 01ee C4ED006A 		vstr.32	s13, [r4]
 397              	.LVL32:
 398              		.loc 2 63 0 discriminator 3
 399 01f2 84ED017A 		vstr.32	s14, [r4, #4]
ARM GAS  /tmp/ccMTmCmO.s 			page 8


 400              		.loc 2 65 0 discriminator 3
 401 01f6 C4ED037A 		vstr.32	s15, [r4, #12]
 402              	.LBE98:
 403              	.LBE99:
 404              		.loc 1 162 0 discriminator 3
 405 01fa FFF7FEFF 		bl	_ZN10Quaternion9normalizeEv
 406              	.LVL33:
 407              		.loc 1 165 0 discriminator 3
 408 01fe 02AB     		add	r3, sp, #8
 409 0200 01AA     		add	r2, sp, #4
 410 0202 6946     		mov	r1, sp
 411 0204 5248     		ldr	r0, .L59+8
 412 0206 FFF7FEFF 		bl	_ZNK10Quaternion12toEulerAngleEPVfS1_S1_
 413              	.LVL34:
 414              	.LBE78:
 415              	.LBB110:
 416              	.LBB74:
 417              		.loc 4 347 0 discriminator 3
 418 020a 534B     		ldr	r3, .L59+16
 419              	.LBE74:
 420              	.LBE110:
 421              	.LBB111:
 422              		.loc 1 167 0 discriminator 3
 423 020c 0098     		ldr	r0, [sp]	@ float
 424              	.LBE111:
 425              	.LBB112:
 426              	.LBB75:
 427              		.loc 4 347 0 discriminator 3
 428 020e 9B69     		ldr	r3, [r3, #24]
 429              	.LBE75:
 430              	.LBE112:
 431              	.LBB113:
 432              		.loc 1 168 0 discriminator 3
 433 0210 0199     		ldr	r1, [sp, #4]	@ float
 434              	.LBE113:
 435              		.loc 1 91 0 discriminator 3
 436 0212 93F82130 		ldrb	r3, [r3, #33]	@ zero_extendqisi2
 437              	.LBB114:
 438              		.loc 1 169 0 discriminator 3
 439 0216 029A     		ldr	r2, [sp, #8]	@ float
 440              		.loc 1 167 0 discriminator 3
 441 0218 CAF80000 		str	r0, [r10]	@ float
 442              	.LBE114:
 443              		.loc 1 91 0 discriminator 3
 444 021c 5B07     		lsls	r3, r3, #29
 445              	.LBB115:
 446              		.loc 1 168 0 discriminator 3
 447 021e CAF80410 		str	r1, [r10, #4]	@ float
 448              		.loc 1 169 0 discriminator 3
 449 0222 CAF80820 		str	r2, [r10, #8]	@ float
 450              	.LVL35:
 451              	.LBE115:
 452              		.loc 1 91 0 discriminator 3
 453 0226 00F18980 		bmi	.L1
 454 022a 2868     		ldr	r0, [r5]
 455              	.LVL36:
 456              	.L29:
ARM GAS  /tmp/ccMTmCmO.s 			page 9


 457              	.LBB116:
 458              		.loc 1 94 0
 459 022c 8DED049A 		vstr.32	s18, [sp, #16]
 460 0230 4FF07E53 		mov	r3, #1065353216
 461              		.loc 1 96 0
 462 0234 4430     		adds	r0, r0, #68
 463              		.loc 1 94 0
 464 0236 0393     		str	r3, [sp, #12]	@ float
 465 0238 8DED059A 		vstr.32	s18, [sp, #20]
 466 023c 8DED069A 		vstr.32	s18, [sp, #24]
 467              		.loc 1 96 0
 468 0240 FFF7FEFF 		bl	chMtxLock
 469              	.LVL37:
 470              		.loc 1 97 0
 471 0244 2868     		ldr	r0, [r5]
 472 0246 4FF0FF31 		mov	r1, #-1
 473 024a 5430     		adds	r0, r0, #84
 474 024c FFF7FEFF 		bl	chCondWaitTimeout
 475              	.LVL38:
 476              		.loc 1 98 0
 477 0250 98F80030 		ldrb	r3, [r8]	@ zero_extendqisi2
 478 0254 002B     		cmp	r3, #0
 479 0256 5DD0     		beq	.L9
 480              		.loc 1 93 0
 481 0258 9FED3E8A 		vldr.32	s16, .L59+12
 482 025c 2868     		ldr	r0, [r5]
 483 025e F0EE488A 		vmov.f32	s17, s16
 484 0262 F0EE49BA 		vmov.f32	s23, s18
 485              	.LVL39:
 486              	.L10:
 487              		.loc 1 105 0
 488 0266 4430     		adds	r0, r0, #68
 489 0268 FFF7FEFF 		bl	chMtxUnlock
 490              	.LVL40:
 491              		.loc 1 107 0
 492 026c 98F80030 		ldrb	r3, [r8]	@ zero_extendqisi2
 493 0270 2BB1     		cbz	r3, .L11
 494              		.loc 1 109 0
 495 0272 364B     		ldr	r3, .L59+4
 496 0274 1B68     		ldr	r3, [r3]
 497 0276 2B60     		str	r3, [r5]
 498              		.loc 1 110 0
 499 0278 0023     		movs	r3, #0
 500 027a 88F80030 		strb	r3, [r8]
 501              	.L11:
 502              	.LVL41:
 503              	.LBB100:
 504              	.LBB101:
 505              		.loc 3 84 0
 506 027e B0EE490A 		vmov.f32	s0, s18
 507 0282 A8EEA80A 		vfma.f32	s0, s17, s17
 508              	.LVL42:
 509 0286 A8EE080A 		vfma.f32	s0, s16, s16
 510              	.LVL43:
 511 028a ABEEAB0A 		vfma.f32	s0, s23, s23
 512              	.LVL44:
 513 028e B5EE400A 		vcmp.f32	s0, #0
ARM GAS  /tmp/ccMTmCmO.s 			page 10


 514 0292 F1EE10FA 		vmrs	APSR_nzcv, FPSCR
 515              		.loc 3 85 0
 516 0296 B1EEC0CA 		vsqrt.f32	s24, s0
 517 029a 00F12081 		bmi	.L56
 518              	.LVL45:
 519              	.L12:
 520              	.LBE101:
 521              	.LBE100:
 522              		.loc 1 114 0
 523 029e 03A8     		add	r0, sp, #12
 524 02a0 FFF7FEFF 		bl	_ZN10Quaternion4normEv
 525              	.LVL46:
 526              		.loc 1 122 0
 527 02a4 D5F800B0 		ldr	fp, [r5]
 528 02a8 314A     		ldr	r2, .L59+40
 529 02aa DBF81C30 		ldr	r3, [fp, #28]
 530 02ae 42F20F70 		movw	r0, #9999
 531 02b2 9E1B     		subs	r6, r3, r6
 532              	.LVL47:
 533 02b4 0021     		movs	r1, #0
 534 02b6 E2FB0601 		umlal	r0, r1, r2, r6
 535              	.LBB103:
 536              		.loc 1 118 0
 537 02ba 87ED009A 		vstr.32	s18, [r7]
 538              	.LBE103:
 539              		.loc 1 122 0
 540 02be 42F21072 		movw	r2, #10000
 541 02c2 0023     		movs	r3, #0
 542              	.LBB104:
 543              		.loc 1 118 0
 544 02c4 87ED019A 		vstr.32	s18, [r7, #4]
 545 02c8 87ED029A 		vstr.32	s18, [r7, #8]
 546              	.LBE104:
 547              		.loc 1 114 0
 548 02cc F0EE40CA 		vmov.f32	s25, s0
 549              	.LVL48:
 550              		.loc 1 122 0
 551 02d0 FFF7FEFF 		bl	__aeabi_uldivmod
 552              	.LVL49:
 553 02d4 07EE900A 		vmov	s15, r0	@ int
 554              	.LBB105:
 555              		.loc 1 126 0
 556 02d8 F4EEE9CA 		vcmpe.f32	s25, s19
 557              	.LBE105:
 558              		.loc 1 122 0
 559 02dc F8EE677A 		vcvt.f32.u32	s15, s15
 560              	.LBB106:
 561              		.loc 1 126 0
 562 02e0 F1EE10FA 		vmrs	APSR_nzcv, FPSCR
 563              	.LBE106:
 564              		.loc 1 124 0
 565 02e4 DBF81C60 		ldr	r6, [fp, #28]
 566              		.loc 1 122 0
 567 02e8 87EE8A0A 		vdiv.f32	s0, s15, s20
 568              	.LVL50:
 569              	.LBB107:
 570              		.loc 1 126 0
ARM GAS  /tmp/ccMTmCmO.s 			page 11


 571 02ec 7FF528AF 		bpl	.L57
 572              		.loc 1 126 0 is_stmt 0 discriminator 1
 573 02f0 F4EECBCA 		vcmpe.f32	s25, s22
 574 02f4 F1EE10FA 		vmrs	APSR_nzcv, FPSCR
 575 02f8 D9ED006A 		vldr.32	s13, [r9]
 576 02fc 99ED025A 		vldr.32	s10, [r9, #8]
 577 0300 99ED017A 		vldr.32	s14, [r9, #4]
 578 0304 44DC     		bgt	.L58
 579 0306 DFED137A 		vldr.32	s15, .L59+12
 580 030a B0EE496A 		vmov.f32	s12, s18
 581 030e F0EE675A 		vmov.f32	s11, s15
 582 0312 21E7     		b	.L14
 583              	.LVL51:
 584              	.L9:
 585              	.LBE107:
 586              		.loc 1 100 0 is_stmt 1
 587 0314 2B68     		ldr	r3, [r5]
 588 0316 03A8     		add	r0, sp, #12
 589 0318 D3ED030A 		vldr.32	s1, [r3, #12]
 590 031c 93ED041A 		vldr.32	s2, [r3, #16]
 591 0320 D3ED051A 		vldr.32	s3, [r3, #20]
 592 0324 B0EE490A 		vmov.f32	s0, s18
 593 0328 FFF7FEFF 		bl	_ZN10Quaternion3setEffff
 594              	.LVL52:
 595              		.loc 1 101 0
 596 032c 2868     		ldr	r0, [r5]
 597 032e D0ED008A 		vldr.32	s17, [r0]
 598              	.LVL53:
 599              		.loc 1 102 0
 600 0332 90ED018A 		vldr.32	s16, [r0, #4]
 601              	.LVL54:
 602              		.loc 1 103 0
 603 0336 D0ED02BA 		vldr.32	s23, [r0, #8]
 604              	.LVL55:
 605 033a 94E7     		b	.L10
 606              	.LVL56:
 607              	.L1:
 608              	.LBE116:
 609              		.loc 1 171 0
 610 033c 19B0     		add	sp, sp, #100
 611              		.cfi_remember_state
 612              		.cfi_def_cfa_offset 76
 613              		@ sp needed
 614 033e BDEC0A8B 		vldm	sp!, {d8-d12}
 615              		.cfi_restore 88
 616              		.cfi_restore 89
 617              		.cfi_restore 86
 618              		.cfi_restore 87
 619              		.cfi_restore 84
 620              		.cfi_restore 85
 621              		.cfi_restore 82
 622              		.cfi_restore 83
 623              		.cfi_restore 80
 624              		.cfi_restore 81
 625              		.cfi_def_cfa_offset 36
 626 0342 BDE8F08F 		pop	{r4, r5, r6, r7, r8, r9, r10, fp, pc}
 627              	.LVL57:
ARM GAS  /tmp/ccMTmCmO.s 			page 12


 628              	.L60:
 629 0346 00BF     		.align	2
 630              	.L59:
 631 0348 00000000 		.word	.LANCHOR0
 632 034c 00000000 		.word	.LANCHOR2
 633 0350 00000000 		.word	.LANCHOR3
 634 0354 00000000 		.word	0
 635 0358 00000000 		.word	ch
 636 035c 00000000 		.word	.LANCHOR4
 637 0360 00247449 		.word	1232348160
 638 0364 C3F54C41 		.word	1095562691
 639 0368 85EBD940 		.word	1088023429
 640 036c CDCCCC3E 		.word	1053609165
 641 0370 40420F00 		.word	1000000
 642 0374 00000000 		.word	.LANCHOR1
 643 0378 00000000 		.word	.LANCHOR5
 644 037c 00000000 		.word	.LANCHOR6
 645 0380 3333333E 		.word	1043542835
 646 0384 CDCCCC3D 		.word	1036831949
 647 0388 0AD7A33C 		.word	1017370378
 648 038c 0AD7A3BC 		.word	3164854026
 649              	.LVL58:
 650              	.L58:
 651              		.cfi_restore_state
 652              	.LBB117:
 653              	.LBB108:
 654              	.LBB91:
 655              		.loc 1 137 0
 656 0390 DDED042A 		vldr.32	s5, [sp, #16]
 657              		.loc 1 130 0
 658 0394 94ED014A 		vldr.32	s8, [r4, #4]
 659              		.loc 1 138 0
 660 0398 9DED056A 		vldr.32	s12, [sp, #20]
 661              		.loc 1 139 0
 662 039c DDED065A 		vldr.32	s11, [sp, #24]
 663              		.loc 1 130 0
 664 03a0 D4ED007A 		vldr.32	s15, [r4]
 665 03a4 D4ED023A 		vldr.32	s7, [r4, #8]
 666 03a8 D4ED034A 		vldr.32	s9, [r4, #12]
 667              		.loc 1 137 0
 668 03ac 82EEAC3A 		vdiv.f32	s6, s5, s25
 669              		.loc 1 138 0
 670 03b0 C6EE2C2A 		vdiv.f32	s5, s12, s25
 671              		.loc 1 132 0
 672 03b4 24EE446A 		vnmul.f32	s12, s8, s8
 673              		.loc 1 139 0
 674 03b8 85EEAC2A 		vdiv.f32	s4, s11, s25
 675              		.loc 1 132 0
 676 03bc A7EEA76A 		vfma.f32	s12, s15, s15
 677              		.loc 1 131 0
 678 03c0 64EE275A 		vmul.f32	s11, s8, s15
 679              		.loc 1 133 0
 680 03c4 A3EEE36A 		vfms.f32	s12, s7, s7
 681              		.loc 1 130 0
 682 03c8 63EEE77A 		vnmul.f32	s15, s7, s15
 683              		.loc 1 134 0
 684 03cc A4EEA46A 		vfma.f32	s12, s9, s9
ARM GAS  /tmp/ccMTmCmO.s 			page 13


 685              		.loc 1 131 0
 686 03d0 E4EEA35A 		vfma.f32	s11, s9, s7
 687              		.loc 1 130 0
 688 03d4 E4EE247A 		vfma.f32	s15, s8, s9
 689              		.loc 1 131 0
 690 03d8 75EEA55A 		vadd.f32	s11, s11, s11
 691              		.loc 1 130 0
 692 03dc 77EEA77A 		vadd.f32	s15, s15, s15
 693              	.LVL59:
 694              	.LBB82:
 695              	.LBB83:
 696              		.loc 3 100 0
 697 03e0 63EE463A 		vnmul.f32	s7, s6, s12
 698              		.loc 3 101 0
 699 03e4 62EEE74A 		vnmul.f32	s9, s5, s15
 700              		.loc 3 99 0
 701 03e8 22EE654A 		vnmul.f32	s8, s4, s11
 702              		.loc 3 100 0
 703 03ec E7EE823A 		vfma.f32	s7, s15, s4
 704              		.loc 3 99 0
 705 03f0 A6EE224A 		vfma.f32	s8, s12, s5
 706              		.loc 3 101 0
 707 03f4 B0EE646A 		vmov.f32	s12, s9
 708              	.LVL60:
 709 03f8 A5EE836A 		vfma.f32	s12, s11, s6
 710              	.LBE83:
 711              	.LBE82:
 712              	.LBB84:
 713              		.loc 1 143 0
 714 03fc F0EE495A 		vmov.f32	s11, s18
 715              	.LVL61:
 716 0400 E3EEAA5A 		vfma.f32	s11, s7, s21
 717              	.LBE84:
 718              	.LBB85:
 719              		.loc 1 145 0
 720 0404 5FED224A 		vldr.32	s9, .L59+56
 721              	.LBE85:
 722              	.LBB87:
 723              		.loc 1 143 0
 724 0408 F0EE657A 		vmov.f32	s15, s11
 725              	.LVL62:
 726 040c F0EE495A 		vmov.f32	s11, s18
 727 0410 E4EE2A5A 		vfma.f32	s11, s8, s21
 728              	.LVL63:
 729 0414 B0EE494A 		vmov.f32	s8, s18
 730 0418 A6EE2A4A 		vfma.f32	s8, s12, s21
 731              	.LBE87:
 732              	.LBB88:
 733              		.loc 1 145 0
 734 041c B4EEE4CA 		vcmpe.f32	s24, s9
 735 0420 F1EE10FA 		vmrs	APSR_nzcv, FPSCR
 736              	.LBE88:
 737              	.LBB89:
 738              		.loc 1 143 0
 739 0424 B0EE446A 		vmov.f32	s12, s8
 740              	.LVL64:
 741              	.LBE89:
ARM GAS  /tmp/ccMTmCmO.s 			page 14


 742              	.LBB90:
 743              		.loc 1 145 0
 744 0428 7FF596AE 		bpl	.L14
 745              	.LVL65:
 746              	.LBB86:
 747              		.loc 1 148 0
 748 042c 5FED2B4A 		vldr.32	s9, .L59+60
 749              		.loc 1 150 0
 750 0430 1FED2B4A 		vldr.32	s8, .L59+64
 751              		.loc 1 148 0
 752 0434 60EE244A 		vmul.f32	s9, s0, s9
 753 0438 E4EEA56A 		vfma.f32	s13, s9, s11
 754              		.loc 1 150 0
 755 043c F4EEC46A 		vcmpe.f32	s13, s8
 756 0440 F1EE10FA 		vmrs	APSR_nzcv, FPSCR
 757 0444 22DD     		ble	.L47
 758              		.loc 1 151 0
 759 0446 89ED004A 		vstr.32	s8, [r9]
 760              	.L20:
 761              	.LVL66:
 762              		.loc 1 148 0
 763 044a A4EEA77A 		vfma.f32	s14, s9, s15
 764              		.loc 1 150 0
 765 044e 5FED326A 		vldr.32	s13, .L59+64
 766 0452 B4EEE67A 		vcmpe.f32	s14, s13
 767 0456 F1EE10FA 		vmrs	APSR_nzcv, FPSCR
 768 045a 32DD     		ble	.L48
 769              		.loc 1 151 0
 770 045c C9ED016A 		vstr.32	s13, [r9, #4]
 771 0460 B0EE667A 		vmov.f32	s14, s13
 772              	.L24:
 773              	.LVL67:
 774              		.loc 1 148 0
 775 0464 A4EE865A 		vfma.f32	s10, s9, s12
 776              		.loc 1 150 0
 777 0468 5FED396A 		vldr.32	s13, .L59+64
 778              		.loc 1 148 0
 779 046c 89ED025A 		vstr.32	s10, [r9, #8]
 780              		.loc 1 150 0
 781 0470 B4EEE65A 		vcmpe.f32	s10, s13
 782 0474 F1EE10FA 		vmrs	APSR_nzcv, FPSCR
 783 0478 14DD     		ble	.L49
 784              		.loc 1 151 0
 785 047a C9ED026A 		vstr.32	s13, [r9, #8]
 786 047e B0EE665A 		vmov.f32	s10, s13
 787 0482 99ED017A 		vldr.32	s14, [r9, #4]
 788 0486 D9ED006A 		vldr.32	s13, [r9]
 789 048a 65E6     		b	.L14
 790              	.LVL68:
 791              	.L47:
 792              		.loc 1 152 0
 793 048c 1FED414A 		vldr.32	s8, .L59+68
 794              		.loc 1 148 0
 795 0490 F4EEC46A 		vcmpe.f32	s13, s8
 796 0494 F1EE10FA 		vmrs	APSR_nzcv, FPSCR
 797 0498 48BF     		it	mi
 798 049a F0EE446A 		vmovmi.f32	s13, s8
ARM GAS  /tmp/ccMTmCmO.s 			page 15


 799 049e C9ED006A 		vstr.32	s13, [r9]
 800 04a2 D2E7     		b	.L20
 801              	.LVL69:
 802              	.L49:
 803              		.loc 1 152 0
 804 04a4 5FED474A 		vldr.32	s9, .L59+68
 805 04a8 D9ED006A 		vldr.32	s13, [r9]
 806 04ac B4EEE45A 		vcmpe.f32	s10, s9
 807 04b0 F1EE10FA 		vmrs	APSR_nzcv, FPSCR
 808 04b4 7FF550AE 		bpl	.L14
 809              		.loc 1 153 0
 810 04b8 C9ED024A 		vstr.32	s9, [r9, #8]
 811 04bc B0EE645A 		vmov.f32	s10, s9
 812 04c0 4AE6     		b	.L14
 813              	.LVL70:
 814              	.L48:
 815              		.loc 1 152 0
 816 04c2 5FED4E6A 		vldr.32	s13, .L59+68
 817 04c6 B4EEE67A 		vcmpe.f32	s14, s13
 818 04ca F1EE10FA 		vmrs	APSR_nzcv, FPSCR
 819              		.loc 1 148 0
 820 04ce 52BF     		itee	pl
 821 04d0 89ED017A 		vstrpl.32	s14, [r9, #4]
 822              		.loc 1 153 0
 823 04d4 B0EE667A 		vmovmi.f32	s14, s13
 824 04d8 C9ED016A 		vstrmi.32	s13, [r9, #4]
 825 04dc C2E7     		b	.L24
 826              	.LVL71:
 827              	.L56:
 828              	.LBE86:
 829              	.LBE90:
 830              	.LBE91:
 831              	.LBE108:
 832              	.LBB109:
 833              	.LBB102:
 834              		.loc 3 85 0
 835 04de FFF7FEFF 		bl	sqrtf
 836              	.LVL72:
 837 04e2 DCE6     		b	.L12
 838              	.LVL73:
 839              	.L55:
 840              	.LBE102:
 841              	.LBE109:
 842              	.LBE117:
 843              	.LBB118:
 844              	.LBB69:
 845              		.loc 1 203 0
 846 04e4 B0EE660A 		vmov.f32	s0, s13
 847              	.LVL74:
 848 04e8 FFF7FEFF 		bl	sqrtf
 849              	.LVL75:
 850 04ec 9DED177A 		vldr.32	s14, [sp, #92]
 851 04f0 DDED157A 		vldr.32	s15, [sp, #84]
 852 04f4 9DED166A 		vldr.32	s12, [sp, #88]
 853 04f8 D5E5     		b	.L7
 854              	.LBE69:
 855              	.LBE118:
ARM GAS  /tmp/ccMTmCmO.s 			page 16


 856              		.cfi_endproc
 857              	.LFE582:
 858              		.size	_ZL15Attitude_threadPv, .-_ZL15Attitude_threadPv
 859 04fa 00BF     		.section	.text._Z22attitude_getQuaternionv,"ax",%progbits
 860              		.align	1
 861              		.p2align 2,,3
 862              		.global	_Z22attitude_getQuaternionv
 863              		.syntax unified
 864              		.thumb
 865              		.thumb_func
 866              		.fpu fpv4-sp-d16
 867              		.type	_Z22attitude_getQuaternionv, %function
 868              	_Z22attitude_getQuaternionv:
 869              	.LFB574:
 870              		.loc 1 23 0
 871              		.cfi_startproc
 872              		@ args = 0, pretend = 0, frame = 0
 873              		@ frame_needed = 0, uses_anonymous_args = 0
 874              		@ link register save eliminated.
 875              		.loc 1 25 0
 876 0000 0048     		ldr	r0, .L62
 877 0002 7047     		bx	lr
 878              	.L63:
 879              		.align	2
 880              	.L62:
 881 0004 00000000 		.word	.LANCHOR3
 882              		.cfi_endproc
 883              	.LFE574:
 884              		.size	_Z22attitude_getQuaternionv, .-_Z22attitude_getQuaternionv
 885              		.section	.text._Z22attitude_getEulerAnglev,"ax",%progbits
 886              		.align	1
 887              		.p2align 2,,3
 888              		.global	_Z22attitude_getEulerAnglev
 889              		.syntax unified
 890              		.thumb
 891              		.thumb_func
 892              		.fpu fpv4-sp-d16
 893              		.type	_Z22attitude_getEulerAnglev, %function
 894              	_Z22attitude_getEulerAnglev:
 895              	.LFB575:
 896              		.loc 1 28 0
 897              		.cfi_startproc
 898              		@ args = 0, pretend = 0, frame = 0
 899              		@ frame_needed = 0, uses_anonymous_args = 0
 900              		@ link register save eliminated.
 901              		.loc 1 30 0
 902 0000 0048     		ldr	r0, .L65
 903 0002 7047     		bx	lr
 904              	.L66:
 905              		.align	2
 906              	.L65:
 907 0004 00000000 		.word	.LANCHOR6
 908              		.cfi_endproc
 909              	.LFE575:
 910              		.size	_Z22attitude_getEulerAnglev, .-_Z22attitude_getEulerAnglev
 911              		.section	.text.imu_getData,"ax",%progbits
 912              		.align	1
ARM GAS  /tmp/ccMTmCmO.s 			page 17


 913              		.p2align 2,,3
 914              		.global	imu_getData
 915              		.syntax unified
 916              		.thumb
 917              		.thumb_func
 918              		.fpu fpv4-sp-d16
 919              		.type	imu_getData, %function
 920              	imu_getData:
 921              	.LFB576:
 922              		.loc 1 33 0
 923              		.cfi_startproc
 924              		@ args = 0, pretend = 0, frame = 0
 925              		@ frame_needed = 0, uses_anonymous_args = 0
 926              		@ link register save eliminated.
 927              		.loc 1 34 0
 928 0000 014B     		ldr	r3, .L68
 929              		.loc 1 35 0
 930 0002 1868     		ldr	r0, [r3]
 931 0004 7047     		bx	lr
 932              	.L69:
 933 0006 00BF     		.align	2
 934              	.L68:
 935 0008 00000000 		.word	.LANCHOR0
 936              		.cfi_endproc
 937              	.LFE576:
 938              		.size	imu_getData, .-imu_getData
 939              		.section	.text.imu_getState,"ax",%progbits
 940              		.align	1
 941              		.p2align 2,,3
 942              		.global	imu_getState
 943              		.syntax unified
 944              		.thumb
 945              		.thumb_func
 946              		.fpu fpv4-sp-d16
 947              		.type	imu_getState, %function
 948              	imu_getState:
 949              	.LFB577:
 950              		.loc 1 38 0
 951              		.cfi_startproc
 952              		@ args = 0, pretend = 0, frame = 0
 953              		@ frame_needed = 0, uses_anonymous_args = 0
 954              		@ link register save eliminated.
 955              		.loc 1 39 0
 956 0000 024B     		ldr	r3, .L71
 957 0002 1B68     		ldr	r3, [r3]
 958              		.loc 1 40 0
 959 0004 93F83C00 		ldrb	r0, [r3, #60]	@ zero_extendqisi2
 960 0008 7047     		bx	lr
 961              	.L72:
 962 000a 00BF     		.align	2
 963              	.L71:
 964 000c 00000000 		.word	.LANCHOR0
 965              		.cfi_endproc
 966              	.LFE577:
 967              		.size	imu_getState, .-imu_getState
 968              		.section	.text.imu_getAccelData,"ax",%progbits
 969              		.align	1
ARM GAS  /tmp/ccMTmCmO.s 			page 18


 970              		.p2align 2,,3
 971              		.global	imu_getAccelData
 972              		.syntax unified
 973              		.thumb
 974              		.thumb_func
 975              		.fpu fpv4-sp-d16
 976              		.type	imu_getAccelData, %function
 977              	imu_getAccelData:
 978              	.LFB578:
 979              		.loc 1 43 0
 980              		.cfi_startproc
 981              		@ args = 0, pretend = 0, frame = 0
 982              		@ frame_needed = 0, uses_anonymous_args = 0
 983              		@ link register save eliminated.
 984              	.LVL76:
 985              		.loc 1 44 0
 986 0000 044B     		ldr	r3, .L74
 987 0002 1B68     		ldr	r3, [r3]
 988 0004 DA68     		ldr	r2, [r3, #12]	@ float
 989 0006 0260     		str	r2, [r0]	@ float
 990              		.loc 1 45 0
 991 0008 1A69     		ldr	r2, [r3, #16]	@ float
 992 000a 4260     		str	r2, [r0, #4]	@ float
 993              		.loc 1 46 0
 994 000c 5B69     		ldr	r3, [r3, #20]	@ float
 995 000e 8360     		str	r3, [r0, #8]	@ float
 996              		.loc 1 47 0
 997 0010 7047     		bx	lr
 998              	.L75:
 999 0012 00BF     		.align	2
 1000              	.L74:
 1001 0014 00000000 		.word	.LANCHOR0
 1002              		.cfi_endproc
 1003              	.LFE578:
 1004              		.size	imu_getAccelData, .-imu_getAccelData
 1005              		.section	.text.imu_getGyroData,"ax",%progbits
 1006              		.align	1
 1007              		.p2align 2,,3
 1008              		.global	imu_getGyroData
 1009              		.syntax unified
 1010              		.thumb
 1011              		.thumb_func
 1012              		.fpu fpv4-sp-d16
 1013              		.type	imu_getGyroData, %function
 1014              	imu_getGyroData:
 1015              	.LFB579:
 1016              		.loc 1 50 0
 1017              		.cfi_startproc
 1018              		@ args = 0, pretend = 0, frame = 0
 1019              		@ frame_needed = 0, uses_anonymous_args = 0
 1020              		@ link register save eliminated.
 1021              	.LVL77:
 1022              		.loc 1 51 0
 1023 0000 044B     		ldr	r3, .L77
 1024 0002 1B68     		ldr	r3, [r3]
 1025 0004 1A6B     		ldr	r2, [r3, #48]	@ float
 1026 0006 0260     		str	r2, [r0]	@ float
ARM GAS  /tmp/ccMTmCmO.s 			page 19


 1027              		.loc 1 52 0
 1028 0008 5A6B     		ldr	r2, [r3, #52]	@ float
 1029 000a 4260     		str	r2, [r0, #4]	@ float
 1030              		.loc 1 53 0
 1031 000c 9B6B     		ldr	r3, [r3, #56]	@ float
 1032 000e 8360     		str	r3, [r0, #8]	@ float
 1033              		.loc 1 54 0
 1034 0010 7047     		bx	lr
 1035              	.L78:
 1036 0012 00BF     		.align	2
 1037              	.L77:
 1038 0014 00000000 		.word	.LANCHOR0
 1039              		.cfi_endproc
 1040              	.LFE579:
 1041              		.size	imu_getGyroData, .-imu_getGyroData
 1042              		.section	.text.imu_switchToRedundant,"ax",%progbits
 1043              		.align	1
 1044              		.p2align 2,,3
 1045              		.global	imu_switchToRedundant
 1046              		.syntax unified
 1047              		.thumb
 1048              		.thumb_func
 1049              		.fpu fpv4-sp-d16
 1050              		.type	imu_switchToRedundant, %function
 1051              	imu_switchToRedundant:
 1052              	.LFB580:
 1053              		.loc 1 57 0
 1054              		.cfi_startproc
 1055              		@ args = 0, pretend = 0, frame = 0
 1056              		@ frame_needed = 0, uses_anonymous_args = 0
 1057              	.LVL78:
 1058 0000 10B5     		push	{r4, lr}
 1059              		.cfi_def_cfa_offset 8
 1060              		.cfi_offset 4, -8
 1061              		.cfi_offset 14, -4
 1062              		.loc 1 59 0
 1063 0002 084C     		ldr	r4, .L81
 1064 0004 2068     		ldr	r0, [r4]
 1065              	.LVL79:
 1066 0006 4430     		adds	r0, r0, #68
 1067 0008 FFF7FEFF 		bl	chMtxLock
 1068              	.LVL80:
 1069              		.loc 1 60 0
 1070 000c 2068     		ldr	r0, [r4]
 1071 000e 5430     		adds	r0, r0, #84
 1072 0010 FFF7FEFF 		bl	chCondBroadcast
 1073              	.LVL81:
 1074              		.loc 1 61 0
 1075 0014 2068     		ldr	r0, [r4]
 1076 0016 4430     		adds	r0, r0, #68
 1077 0018 FFF7FEFF 		bl	chMtxUnlock
 1078              	.LVL82:
 1079              		.loc 1 63 0
 1080 001c 024B     		ldr	r3, .L81+4
 1081 001e 0122     		movs	r2, #1
 1082 0020 1A70     		strb	r2, [r3]
 1083              		.loc 1 64 0
ARM GAS  /tmp/ccMTmCmO.s 			page 20


 1084 0022 10BD     		pop	{r4, pc}
 1085              	.L82:
 1086              		.align	2
 1087              	.L81:
 1088 0024 00000000 		.word	.LANCHOR0
 1089 0028 00000000 		.word	.LANCHOR1
 1090              		.cfi_endproc
 1091              	.LFE580:
 1092              		.size	imu_switchToRedundant, .-imu_switchToRedundant
 1093              		.section	.text.imu_ready,"ax",%progbits
 1094              		.align	1
 1095              		.p2align 2,,3
 1096              		.global	imu_ready
 1097              		.syntax unified
 1098              		.thumb
 1099              		.thumb_func
 1100              		.fpu fpv4-sp-d16
 1101              		.type	imu_ready, %function
 1102              	imu_ready:
 1103              	.LFB581:
 1104              		.loc 1 67 0
 1105              		.cfi_startproc
 1106              		@ args = 0, pretend = 0, frame = 0
 1107              		@ frame_needed = 0, uses_anonymous_args = 0
 1108              		@ link register save eliminated.
 1109              		.loc 1 68 0
 1110 0000 054B     		ldr	r3, .L84
 1111 0002 1B68     		ldr	r3, [r3]
 1112 0004 93F83C00 		ldrb	r0, [r3, #60]	@ zero_extendqisi2
 1113 0008 00F0FD00 		and	r0, r0, #253
 1114              		.loc 1 70 0
 1115 000c A0F10100 		sub	r0, #1
 1116 0010 B0FA80F0 		clz	r0, r0
 1117 0014 4009     		lsrs	r0, r0, #5
 1118 0016 7047     		bx	lr
 1119              	.L85:
 1120              		.align	2
 1121              	.L84:
 1122 0018 00000000 		.word	.LANCHOR0
 1123              		.cfi_endproc
 1124              	.LFE581:
 1125              		.size	imu_ready, .-imu_ready
 1126              		.section	.text._Z13attitude_initv,"ax",%progbits
 1127              		.align	1
 1128              		.p2align 2,,3
 1129              		.global	_Z13attitude_initv
 1130              		.syntax unified
 1131              		.thumb
 1132              		.thumb_func
 1133              		.fpu fpv4-sp-d16
 1134              		.type	_Z13attitude_initv, %function
 1135              	_Z13attitude_initv:
 1136              	.LFB583:
 1137              		.loc 1 174 0
 1138              		.cfi_startproc
 1139              		@ args = 0, pretend = 0, frame = 0
 1140              		@ frame_needed = 0, uses_anonymous_args = 0
ARM GAS  /tmp/ccMTmCmO.s 			page 21


 1141 0000 10B5     		push	{r4, lr}
 1142              		.cfi_def_cfa_offset 8
 1143              		.cfi_offset 4, -8
 1144              		.cfi_offset 14, -4
 1145 0002 82B0     		sub	sp, sp, #8
 1146              		.cfi_def_cfa_offset 16
 1147              		.loc 1 175 0
 1148 0004 FFF7FEFF 		bl	mpu6500_getData
 1149              	.LVL83:
 1150 0008 0B4C     		ldr	r4, .L88
 1151 000a 2060     		str	r0, [r4]
 1152              		.loc 1 178 0
 1153 000c FFF7FEFF 		bl	adis16470_getData
 1154              	.LVL84:
 1155              		.loc 1 180 0
 1156 0010 2168     		ldr	r1, [r4]
 1157              		.loc 1 178 0
 1158 0012 0A4A     		ldr	r2, .L88+4
 1159              		.loc 1 179 0
 1160 0014 0A4B     		ldr	r3, .L88+8
 1161              		.loc 1 180 0
 1162 0016 0164     		str	r1, [r0, #64]
 1163              		.loc 1 178 0
 1164 0018 1060     		str	r0, [r2]
 1165              		.loc 1 179 0
 1166 001a 1860     		str	r0, [r3]
 1167              		.loc 1 181 0
 1168 001c FFF7FEFF 		bl	mpu6500_sleep
 1169              	.LVL85:
 1170              		.loc 1 190 0
 1171 0020 0023     		movs	r3, #0
 1172 0022 0093     		str	r3, [sp]
 1173 0024 7F22     		movs	r2, #127
 1174 0026 074B     		ldr	r3, .L88+12
 1175 0028 0748     		ldr	r0, .L88+16
 1176 002a 41F25011 		movw	r1, #4432
 1177 002e FFF7FEFF 		bl	chThdCreateStatic
 1178              	.LVL86:
 1179              		.loc 1 192 0
 1180 0032 02B0     		add	sp, sp, #8
 1181              		.cfi_def_cfa_offset 8
 1182              		@ sp needed
 1183 0034 10BD     		pop	{r4, pc}
 1184              	.L89:
 1185 0036 00BF     		.align	2
 1186              	.L88:
 1187 0038 00000000 		.word	.LANCHOR2
 1188 003c 00000000 		.word	.LANCHOR7
 1189 0040 00000000 		.word	.LANCHOR0
 1190 0044 00000000 		.word	_ZL15Attitude_threadPv
 1191 0048 00000000 		.word	_ZL18Attitude_thread_wa
 1192              		.cfi_endproc
 1193              	.LFE583:
 1194              		.size	_Z13attitude_initv, .-_Z13attitude_initv
 1195              		.global	redundant_switch_flag
 1196              		.global	bias
 1197              		.global	euler
ARM GAS  /tmp/ccMTmCmO.s 			page 22


 1198              		.global	mpu6500
 1199              		.global	adis16470
 1200              		.global	pIMU
 1201              		.global	orientation
 1202              		.global	corr
 1203              		.section	.bss._ZL10_error_int,"aw",%nobits
 1204              		.align	2
 1205              		.set	.LANCHOR5,. + 0
 1206              		.type	_ZL10_error_int, %object
 1207              		.size	_ZL10_error_int, 12
 1208              	_ZL10_error_int:
 1209 0000 00000000 		.space	12
 1209      00000000 
 1209      00000000 
 1210              		.section	.bss._ZL18Attitude_thread_wa,"aw",%nobits
 1211              		.align	3
 1212              		.type	_ZL18Attitude_thread_wa, %object
 1213              		.size	_ZL18Attitude_thread_wa, 4432
 1214              	_ZL18Attitude_thread_wa:
 1215 0000 00000000 		.space	4432
 1215      00000000 
 1215      00000000 
 1215      00000000 
 1215      00000000 
 1216              		.section	.bss.adis16470,"aw",%nobits
 1217              		.align	2
 1218              		.set	.LANCHOR7,. + 0
 1219              		.type	adis16470, %object
 1220              		.size	adis16470, 4
 1221              	adis16470:
 1222 0000 00000000 		.space	4
 1223              		.section	.bss.bias,"aw",%nobits
 1224              		.align	2
 1225              		.type	bias, %object
 1226              		.size	bias, 12
 1227              	bias:
 1228 0000 00000000 		.space	12
 1228      00000000 
 1228      00000000 
 1229              		.section	.bss.corr,"aw",%nobits
 1230              		.align	2
 1231              		.set	.LANCHOR4,. + 0
 1232              		.type	corr, %object
 1233              		.size	corr, 12
 1234              	corr:
 1235 0000 00000000 		.space	12
 1235      00000000 
 1235      00000000 
 1236              		.section	.bss.euler,"aw",%nobits
 1237              		.align	2
 1238              		.set	.LANCHOR6,. + 0
 1239              		.type	euler, %object
 1240              		.size	euler, 12
 1241              	euler:
 1242 0000 00000000 		.space	12
 1242      00000000 
 1242      00000000 
ARM GAS  /tmp/ccMTmCmO.s 			page 23


 1243              		.section	.bss.mpu6500,"aw",%nobits
 1244              		.align	2
 1245              		.set	.LANCHOR2,. + 0
 1246              		.type	mpu6500, %object
 1247              		.size	mpu6500, 4
 1248              	mpu6500:
 1249 0000 00000000 		.space	4
 1250              		.section	.bss.pIMU,"aw",%nobits
 1251              		.align	2
 1252              		.set	.LANCHOR0,. + 0
 1253              		.type	pIMU, %object
 1254              		.size	pIMU, 4
 1255              	pIMU:
 1256 0000 00000000 		.space	4
 1257              		.section	.bss.redundant_switch_flag,"aw",%nobits
 1258              		.set	.LANCHOR1,. + 0
 1259              		.type	redundant_switch_flag, %object
 1260              		.size	redundant_switch_flag, 1
 1261              	redundant_switch_flag:
 1262 0000 00       		.space	1
 1263              		.section	.data.orientation,"aw",%progbits
 1264              		.align	2
 1265              		.set	.LANCHOR3,. + 0
 1266              		.type	orientation, %object
 1267              		.size	orientation, 16
 1268              	orientation:
 1269 0000 0000803F 		.word	1065353216
 1270 0004 00000000 		.word	0
 1271 0008 00000000 		.word	0
 1272 000c 00000000 		.word	0
 1273              		.text
 1274              	.Letext0:
 1275              		.file 5 "/usr/lib/gcc/arm-none-eabi/7.3.1/include/stddef.h"
 1276              		.file 6 "/usr/arm-none-eabi/include/machine/_default_types.h"
 1277              		.file 7 "/usr/arm-none-eabi/include/sys/_stdint.h"
 1278              		.file 8 "./RM18A-ChibiOS18-Core/chibios/os/common/ports/ARMCMx/compilers/GCC/chtypes.h"
 1279              		.file 9 "./RM18A-ChibiOS18-Core/chibios/os/rt/include/chsystypes.h"
 1280              		.file 10 "./RM18A-ChibiOS18-Core/chibios/os/rt/include/chschd.h"
 1281              		.file 11 "./RM18A-ChibiOS18-Core/chibios/os/rt/include/chtime.h"
 1282              		.file 12 "./RM18A-ChibiOS18-Core/chibios/os/common/ext/ARM/CMSIS/Core/Include/core_cm4.h"
 1283              		.file 13 "./RM18A-ChibiOS18-Core/chibios/os/common/ext/ST/STM32F4xx/system_stm32f4xx.h"
 1284              		.file 14 "./RM18A-ChibiOS18-Core/chibios/os/common/ext/ST/STM32F4xx/stm32f427xx.h"
 1285              		.file 15 "./RM18A-ChibiOS18-Core/chibios/os/common/ext/ST/STM32F4xx/stm32f4xx.h"
 1286              		.file 16 "./RM18A-ChibiOS18-Core/chibios/os/common/ports/ARMCMx/chcore.h"
 1287              		.file 17 "./RM18A-ChibiOS18-Core/chibios/os/common/ports/ARMCMx/chcore_v7m.h"
 1288              		.file 18 "./RM18A-ChibiOS18-Core/chibios/os/hal/ports/STM32/LLD/TIMv1/stm32_tim.h"
 1289              		.file 19 "./RM18A-ChibiOS18-Core/chibios/os/rt/include/chtm.h"
 1290              		.file 20 "./RM18A-ChibiOS18-Core/chibios/os/rt/include/chsem.h"
 1291              		.file 21 "./RM18A-ChibiOS18-Core/chibios/os/rt/include/chmtx.h"
 1292              		.file 22 "./RM18A-ChibiOS18-Core/chibios/os/rt/include/chsys.h"
 1293              		.file 23 "./RM18A-ChibiOS18-Core/chibios/os/rt/include/chregistry.h"
 1294              		.file 24 "./RM18A-ChibiOS18-Core/chibios/os/rt/include/chcond.h"
 1295              		.file 25 "./RM18A-ChibiOS18-Core/chibios/os/rt/include/chevents.h"
 1296              		.file 26 "./RM18A-ChibiOS18-Core/chibios/os/oslib/include/chmemcore.h"
 1297              		.file 27 "./RM18A-ChibiOS18-Core/chibios/os/oslib/include/chmempools.h"
 1298              		.file 28 "./RM18A-ChibiOS18-Core/chibios/os/oslib/include/chfactory.h"
 1299              		.file 29 "./RM18A-ChibiOS18-Core/chibios/os/hal/ports/STM32/LLD/DMAv2/stm32_dma.h"
ARM GAS  /tmp/ccMTmCmO.s 			page 24


 1300              		.file 30 "./RM18A-ChibiOS18-Core/chibios/os/hal/include/hal_queues.h"
 1301              		.file 31 "./RM18A-ChibiOS18-Core/chibios/os/hal/include/hal_pal.h"
 1302              		.file 32 "./RM18A-ChibiOS18-Core/chibios/os/hal/ports/STM32/LLD/GPIOv2/hal_pal_lld.h"
 1303              		.file 33 "./RM18A-ChibiOS18-Core/chibios/os/hal/include/hal_adc.h"
 1304              		.file 34 "./RM18A-ChibiOS18-Core/chibios/os/hal/ports/STM32/LLD/ADCv2/hal_adc_lld.h"
 1305              		.file 35 "./RM18A-ChibiOS18-Core/chibios/os/hal/include/hal_can.h"
 1306              		.file 36 "./RM18A-ChibiOS18-Core/chibios/os/hal/ports/STM32/LLD/CANv1/hal_can_lld.h"
 1307              		.file 37 "./RM18A-ChibiOS18-Core/chibios/os/hal/include/hal_i2c.h"
 1308              		.file 38 "./RM18A-ChibiOS18-Core/chibios/os/hal/ports/STM32/LLD/I2Cv1/hal_i2c_lld.h"
 1309              		.file 39 "./RM18A-ChibiOS18-Core/chibios/os/hal/include/hal_pwm.h"
 1310              		.file 40 "./RM18A-ChibiOS18-Core/chibios/os/hal/ports/STM32/LLD/TIMv1/hal_pwm_lld.h"
 1311              		.file 41 "./RM18A-ChibiOS18-Core/chibios/os/hal/include/hal_serial.h"
 1312              		.file 42 "./RM18A-ChibiOS18-Core/chibios/os/hal/ports/STM32/LLD/USARTv1/hal_serial_lld.h"
 1313              		.file 43 "./RM18A-ChibiOS18-Core/chibios/os/hal/include/hal_spi.h"
 1314              		.file 44 "./RM18A-ChibiOS18-Core/chibios/os/hal/ports/STM32/LLD/SPIv1/hal_spi_lld.h"
 1315              		.file 45 "./RM18A-ChibiOS18-Core/chibios/os/hal/include/hal_uart.h"
 1316              		.file 46 "./RM18A-ChibiOS18-Core/chibios/os/hal/ports/STM32/LLD/USARTv1/hal_uart_lld.h"
 1317              		.file 47 "./RM18A-ChibiOS18-Core/chibios/os/hal/include/hal_usb.h"
 1318              		.file 48 "./RM18A-ChibiOS18-Core/chibios/os/hal/ports/STM32/LLD/OTGv1/hal_usb_lld.h"
 1319              		.file 49 "./RM18A-ChibiOS18-Core/chibios/os/hal/ports/STM32/LLD/OTGv1/stm32_otg.h"
 1320              		.file 50 "/usr/arm-none-eabi/include/c++/7.3.1/bits/cpp_type_traits.h"
 1321              		.file 51 "/usr/arm-none-eabi/include/c++/7.3.1/cmath"
 1322              		.file 52 "/usr/arm-none-eabi/include/c++/7.3.1/arm-none-eabi/thumb/v7e-m/fpv4-sp/hard/bits/c++conf
 1323              		.file 53 "/usr/arm-none-eabi/include/sys/lock.h"
 1324              		.file 54 "/usr/arm-none-eabi/include/sys/_types.h"
 1325              		.file 55 "/usr/arm-none-eabi/include/sys/reent.h"
 1326              		.file 56 "/usr/arm-none-eabi/include/math.h"
 1327              		.file 57 "/usr/arm-none-eabi/include/stdlib.h"
 1328              		.file 58 "/usr/arm-none-eabi/include/c++/7.3.1/math.h"
 1329              		.file 59 "./RM18A-ChibiOS18-Core/src/imu.h"
 1330              		.file 60 "./RM18A-ChibiOS18-Core/src/ext_hw/mpu6500.h"
 1331              		.file 61 "./RM18A-ChibiOS18-Core/src/ext_hw/adis16470.h"
 1332              		.file 62 "<built-in>"