ARM GAS  /tmp/ccDXgbOp.s 			page 1


   1              		.cpu cortex-m4
   2              		.eabi_attribute 27, 1
   3              		.eabi_attribute 28, 1
   4              		.eabi_attribute 20, 1
   5              		.eabi_attribute 21, 1
   6              		.eabi_attribute 23, 3
   7              		.eabi_attribute 24, 1
   8              		.eabi_attribute 25, 1
   9              		.eabi_attribute 26, 1
  10              		.eabi_attribute 30, 2
  11              		.eabi_attribute 34, 1
  12              		.eabi_attribute 18, 4
  13              		.file	"board.c"
  14              		.text
  15              	.Ltext0:
  16              		.cfi_sections	.debug_frame
  17              		.section	.text.__early_init,"ax",%progbits
  18              		.align	1
  19              		.p2align 2,,3
  20              		.global	__early_init
  21              		.syntax unified
  22              		.thumb
  23              		.thumb_func
  24              		.fpu fpv4-sp-d16
  25              		.type	__early_init, %function
  26              	__early_init:
  27              	.LFB329:
  28              		.file 1 "./RM18A-ChibiOS18-Core/defaultBoard/board.c"
  29              		.loc 1 210 0
  30              		.cfi_startproc
  31              		@ args = 0, pretend = 0, frame = 0
  32              		@ frame_needed = 0, uses_anonymous_args = 0
  33              		@ link register save eliminated.
  34              	.LBB40:
  35              	.LBB41:
  36              		.loc 1 158 0
  37 0000 4E4A     		ldr	r2, .L4
  38              	.LBB42:
  39              	.LBB43:
  40              		.loc 1 145 0
  41 0002 4F48     		ldr	r0, .L4+4
  42              	.LBE43:
  43              	.LBE42:
  44              		.loc 1 158 0
  45 0004 1369     		ldr	r3, [r2, #16]
  46 0006 40F2FF11 		movw	r1, #511
  47 000a 0B43     		orrs	r3, r3, r1
  48              	.LBE41:
  49              	.LBE40:
  50              		.loc 1 210 0
  51 000c F0B4     		push	{r4, r5, r6, r7}
  52              		.cfi_def_cfa_offset 16
  53              		.cfi_offset 4, -16
  54              		.cfi_offset 5, -12
  55              		.cfi_offset 6, -8
  56              		.cfi_offset 7, -4
  57              	.LBB100:
ARM GAS  /tmp/ccDXgbOp.s 			page 2


  58              	.LBB98:
  59              		.loc 1 158 0
  60 000e 1361     		str	r3, [r2, #16]
  61 0010 1369     		ldr	r3, [r2, #16]
  62              	.LBB45:
  63              	.LBB46:
  64              		.loc 1 145 0
  65 0012 4C4D     		ldr	r5, .L4+8
  66              		.loc 1 146 0
  67 0014 4C4E     		ldr	r6, .L4+12
  68              	.LBE46:
  69              	.LBE45:
  70              	.LBB48:
  71              	.LBB49:
  72              		.loc 1 145 0
  73 0016 4D4C     		ldr	r4, .L4+16
  74              	.LBE49:
  75              	.LBE48:
  76              		.loc 1 158 0
  77 0018 23F4FF73 		bic	r3, r3, #510
  78 001c 23F00103 		bic	r3, r3, #1
  79 0020 1361     		str	r3, [r2, #16]
  80 0022 1369     		ldr	r3, [r2, #16]
  81              		.loc 1 159 0
  82 0024 136B     		ldr	r3, [r2, #48]
  83 0026 0B43     		orrs	r3, r3, r1
  84 0028 1363     		str	r3, [r2, #48]
  85 002a 136D     		ldr	r3, [r2, #80]
  86 002c 0B43     		orrs	r3, r3, r1
  87 002e 1365     		str	r3, [r2, #80]
  88 0030 126D     		ldr	r2, [r2, #80]
  89              	.LVL0:
  90              	.LBB51:
  91              	.LBB52:
  92              		.loc 1 145 0
  93 0032 4749     		ldr	r1, .L4+20
  94              	.LBE52:
  95              	.LBE51:
  96              	.LBB56:
  97              	.LBB47:
  98 0034 0023     		movs	r3, #0
  99              		.loc 1 147 0
 100 0036 4FF01052 		mov	r2, #603979776
 101              		.loc 1 145 0
 102 003a 6B60     		str	r3, [r5, #4]
 103              		.loc 1 146 0
 104 003c AE60     		str	r6, [r5, #8]
 105              		.loc 1 147 0
 106 003e EA60     		str	r2, [r5, #12]
 107              		.loc 1 148 0
 108 0040 4FF6FF76 		movw	r6, #65535
 109              		.loc 1 149 0
 110 0044 4FF0AA42 		mov	r2, #1426063360
 111              		.loc 1 148 0
 112 0048 6E61     		str	r6, [r5, #20]
 113              		.loc 1 149 0
 114 004a 2A62     		str	r2, [r5, #32]
ARM GAS  /tmp/ccDXgbOp.s 			page 3


 115              		.loc 1 150 0
 116 004c 414A     		ldr	r2, .L4+24
 117 004e 6A62     		str	r2, [r5, #36]
 118              		.loc 1 151 0
 119 0050 414A     		ldr	r2, .L4+28
 120 0052 2A60     		str	r2, [r5]
 121              	.LVL1:
 122              	.LBE47:
 123              	.LBE56:
 124              	.LBB57:
 125              	.LBB50:
 126              		.loc 1 146 0
 127 0054 414D     		ldr	r5, .L4+32
 128              		.loc 1 145 0
 129 0056 6360     		str	r3, [r4, #4]
 130              		.loc 1 146 0
 131 0058 A560     		str	r5, [r4, #8]
 132              		.loc 1 147 0
 133 005a 44F22005 		movw	r5, #16416
 134 005e E560     		str	r5, [r4, #12]
 135              		.loc 1 148 0
 136 0060 4FF6DF75 		movw	r5, #65503
 137 0064 6561     		str	r5, [r4, #20]
 138              		.loc 1 149 0
 139 0066 3E4D     		ldr	r5, .L4+36
 140 0068 2562     		str	r5, [r4, #32]
 141              		.loc 1 150 0
 142 006a 4FF41905 		mov	r5, #10027008
 143 006e 6562     		str	r5, [r4, #36]
 144              		.loc 1 151 0
 145 0070 3C4D     		ldr	r5, .L4+40
 146 0072 2560     		str	r5, [r4]
 147              	.LVL2:
 148              	.LBE50:
 149              	.LBE57:
 150              	.LBB58:
 151              	.LBB44:
 152              		.loc 1 146 0
 153 0074 4FF0AA35 		mov	r5, #-1431655766
 154              		.loc 1 150 0
 155 0078 3B4C     		ldr	r4, .L4+44
 156              		.loc 1 145 0
 157 007a 4360     		str	r3, [r0, #4]
 158              		.loc 1 146 0
 159 007c 8560     		str	r5, [r0, #8]
 160              		.loc 1 147 0
 161 007e C360     		str	r3, [r0, #12]
 162              		.loc 1 148 0
 163 0080 4661     		str	r6, [r0, #20]
 164              		.loc 1 149 0
 165 0082 0362     		str	r3, [r0, #32]
 166              		.loc 1 150 0
 167 0084 4462     		str	r4, [r0, #36]
 168              		.loc 1 151 0
 169 0086 394C     		ldr	r4, .L4+48
 170 0088 0460     		str	r4, [r0]
 171              	.LVL3:
ARM GAS  /tmp/ccDXgbOp.s 			page 4


 172              	.LBE44:
 173              	.LBE58:
 174              	.LBB59:
 175              	.LBB53:
 176              		.loc 1 146 0
 177 008a 3948     		ldr	r0, .L4+52
 178              		.loc 1 145 0
 179 008c 4B60     		str	r3, [r1, #4]
 180              		.loc 1 146 0
 181 008e 8860     		str	r0, [r1, #8]
 182              		.loc 1 147 0
 183 0090 3848     		ldr	r0, .L4+56
 184 0092 C860     		str	r0, [r1, #12]
 185              		.loc 1 149 0
 186 0094 3848     		ldr	r0, .L4+60
 187              		.loc 1 148 0
 188 0096 4E61     		str	r6, [r1, #20]
 189              	.LBE53:
 190              	.LBE59:
 191              	.LBB60:
 192              	.LBB61:
 193              		.loc 1 145 0
 194 0098 02F1AB52 		add	r2, r2, #358612992
 195              	.LBE61:
 196              	.LBE60:
 197              	.LBB66:
 198              	.LBB54:
 199              		.loc 1 149 0
 200 009c 0862     		str	r0, [r1, #32]
 201              		.loc 1 150 0
 202 009e 7720     		movs	r0, #119
 203 00a0 4862     		str	r0, [r1, #36]
 204              	.LBE54:
 205              	.LBE66:
 206              	.LBB67:
 207              	.LBB62:
 208              		.loc 1 145 0
 209 00a2 02F5B032 		add	r2, r2, #90112
 210              	.LBE62:
 211              	.LBE67:
 212              	.LBB68:
 213              	.LBB55:
 214              		.loc 1 151 0
 215 00a6 3548     		ldr	r0, .L4+64
 216 00a8 0860     		str	r0, [r1]
 217              	.LVL4:
 218              	.LBE55:
 219              	.LBE68:
 220              	.LBB69:
 221              	.LBB63:
 222              		.loc 1 145 0
 223 00aa 4FF40061 		mov	r1, #2048
 224 00ae 5160     		str	r1, [r2, #4]
 225              		.loc 1 146 0
 226 00b0 3349     		ldr	r1, .L4+68
 227 00b2 9160     		str	r1, [r2, #8]
 228              		.loc 1 147 0
ARM GAS  /tmp/ccDXgbOp.s 			page 5


 229 00b4 3349     		ldr	r1, .L4+72
 230 00b6 D160     		str	r1, [r2, #12]
 231              		.loc 1 148 0
 232 00b8 4FF2FF71 		movw	r1, #63487
 233 00bc 5161     		str	r1, [r2, #20]
 234              		.loc 1 149 0
 235 00be 3249     		ldr	r1, .L4+76
 236 00c0 1162     		str	r1, [r2, #32]
 237              	.LBE63:
 238              	.LBE69:
 239              	.LBB70:
 240              	.LBB71:
 241              		.loc 1 145 0
 242 00c2 324C     		ldr	r4, .L4+80
 243              	.LBE71:
 244              	.LBE70:
 245              	.LBB75:
 246              	.LBB64:
 247              		.loc 1 150 0
 248 00c4 3249     		ldr	r1, .L4+84
 249 00c6 5162     		str	r1, [r2, #36]
 250              	.LBE64:
 251              	.LBE75:
 252              	.LBB76:
 253              	.LBB72:
 254              		.loc 1 145 0
 255 00c8 44F20307 		movw	r7, #16387
 256              	.LBE72:
 257              	.LBE76:
 258              	.LBB77:
 259              	.LBB65:
 260              		.loc 1 151 0
 261 00cc 3149     		ldr	r1, .L4+88
 262 00ce 1160     		str	r1, [r2]
 263              	.LVL5:
 264              	.LBE65:
 265              	.LBE77:
 266              	.LBB78:
 267              	.LBB73:
 268              		.loc 1 145 0
 269 00d0 6760     		str	r7, [r4, #4]
 270              		.loc 1 148 0
 271 00d2 4BF6FF77 		movw	r7, #49151
 272              		.loc 1 146 0
 273 00d6 A560     		str	r5, [r4, #8]
 274              		.loc 1 147 0
 275 00d8 E360     		str	r3, [r4, #12]
 276              		.loc 1 148 0
 277 00da 6761     		str	r7, [r4, #20]
 278              		.loc 1 149 0
 279 00dc 2E4F     		ldr	r7, .L4+92
 280 00de 2762     		str	r7, [r4, #32]
 281              		.loc 1 150 0
 282 00e0 5527     		movs	r7, #85
 283 00e2 6762     		str	r7, [r4, #36]
 284              	.LBE73:
 285              	.LBE78:
ARM GAS  /tmp/ccDXgbOp.s 			page 6


 286              	.LBB79:
 287              	.LBB80:
 288              		.loc 1 145 0
 289 00e4 2D48     		ldr	r0, .L4+96
 290              	.LBE80:
 291              	.LBE79:
 292              	.LBB83:
 293              	.LBB74:
 294              		.loc 1 151 0
 295 00e6 2E4F     		ldr	r7, .L4+100
 296 00e8 2760     		str	r7, [r4]
 297              	.LVL6:
 298              	.LBE74:
 299              	.LBE83:
 300              	.LBB84:
 301              	.LBB81:
 302              		.loc 1 145 0
 303 00ea 4FF4FF74 		mov	r4, #510
 304 00ee 4460     		str	r4, [r0, #4]
 305              		.loc 1 146 0
 306 00f0 2C4C     		ldr	r4, .L4+104
 307 00f2 8460     		str	r4, [r0, #8]
 308              		.loc 1 147 0
 309 00f4 2C4C     		ldr	r4, .L4+108
 310 00f6 C460     		str	r4, [r0, #12]
 311              		.loc 1 148 0
 312 00f8 4FF60164 		movw	r4, #65025
 313 00fc 4461     		str	r4, [r0, #20]
 314              		.loc 1 150 0
 315 00fe 2B4C     		ldr	r4, .L4+112
 316              		.loc 1 149 0
 317 0100 0362     		str	r3, [r0, #32]
 318              	.LBE81:
 319              	.LBE84:
 320              	.LBB85:
 321              	.LBB86:
 322              		.loc 1 145 0
 323 0102 2B49     		ldr	r1, .L4+116
 324              	.LBE86:
 325              	.LBE85:
 326              	.LBB89:
 327              	.LBB82:
 328              		.loc 1 150 0
 329 0104 4462     		str	r4, [r0, #36]
 330              		.loc 1 151 0
 331 0106 2B4C     		ldr	r4, .L4+120
 332 0108 0460     		str	r4, [r0]
 333              	.LVL7:
 334              	.LBE82:
 335              	.LBE89:
 336              	.LBB90:
 337              	.LBB87:
 338              		.loc 1 146 0
 339 010a 2B48     		ldr	r0, .L4+124
 340              		.loc 1 145 0
 341 010c 4B60     		str	r3, [r1, #4]
 342              	.LBE87:
ARM GAS  /tmp/ccDXgbOp.s 			page 7


 343              	.LBE90:
 344              	.LBB91:
 345              	.LBB92:
 346 010e 02F58052 		add	r2, r2, #4096
 347              	.LBE92:
 348              	.LBE91:
 349              	.LBB95:
 350              	.LBB88:
 351              		.loc 1 146 0
 352 0112 8860     		str	r0, [r1, #8]
 353              		.loc 1 149 0
 354 0114 4FF01060 		mov	r0, #150994944
 355              		.loc 1 147 0
 356 0118 CB60     		str	r3, [r1, #12]
 357              		.loc 1 148 0
 358 011a 4E61     		str	r6, [r1, #20]
 359              		.loc 1 149 0
 360 011c 0862     		str	r0, [r1, #32]
 361              		.loc 1 151 0
 362 011e 42F25050 		movw	r0, #9552
 363              		.loc 1 150 0
 364 0122 4B62     		str	r3, [r1, #36]
 365              		.loc 1 151 0
 366 0124 0860     		str	r0, [r1]
 367              	.LVL8:
 368              	.LBE88:
 369              	.LBE95:
 370              	.LBB96:
 371              	.LBB93:
 372              		.loc 1 145 0
 373 0126 5360     		str	r3, [r2, #4]
 374              		.loc 1 146 0
 375 0128 9560     		str	r5, [r2, #8]
 376              		.loc 1 147 0
 377 012a D360     		str	r3, [r2, #12]
 378              		.loc 1 148 0
 379 012c 5661     		str	r6, [r2, #20]
 380              		.loc 1 149 0
 381 012e 1362     		str	r3, [r2, #32]
 382              	.LBE93:
 383              	.LBE96:
 384              	.LBE98:
 385              	.LBE100:
 386              		.loc 1 214 0
 387 0130 F0BC     		pop	{r4, r5, r6, r7}
 388              		.cfi_restore 7
 389              		.cfi_restore 6
 390              		.cfi_restore 5
 391              		.cfi_restore 4
 392              		.cfi_def_cfa_offset 0
 393              	.LBB101:
 394              	.LBB99:
 395              	.LBB97:
 396              	.LBB94:
 397              		.loc 1 150 0
 398 0132 5362     		str	r3, [r2, #36]
 399              		.loc 1 151 0
ARM GAS  /tmp/ccDXgbOp.s 			page 8


 400 0134 1360     		str	r3, [r2]
 401              	.LVL9:
 402              	.LBE94:
 403              	.LBE97:
 404              	.LBE99:
 405              	.LBE101:
 406              		.loc 1 213 0
 407 0136 FFF7FEBF 		b	stm32_clock_init
 408              	.LVL10:
 409              	.L5:
 410 013a 00BF     		.align	2
 411              	.L4:
 412 013c 00380240 		.word	1073887232
 413 0140 00080240 		.word	1073874944
 414 0144 00000240 		.word	1073872896
 415 0148 EAEAFEBF 		.word	-1073812758
 416 014c 00040240 		.word	1073873920
 417 0150 000C0240 		.word	1073875968
 418 0154 00AA0A00 		.word	698880
 419 0158 00B0A02A 		.word	715173888
 420 015c EAEABFAF 		.word	-1346376982
 421 0160 00500070 		.word	1879068672
 422 0164 8484140A 		.word	169116804
 423 0168 CCCC0C00 		.word	838860
 424 016c 0000AA02 		.word	44695552
 425 0170 BFAAAAAA 		.word	-1431655745
 426 0174 00140500 		.word	332800
 427 0178 990C7007 		.word	124783769
 428 017c 2A280A00 		.word	665642
 429 0180 AAABAAAA 		.word	-1431655510
 430 0184 05400100 		.word	81925
 431 0188 88005085 		.word	-2058354552
 432 018c 00140240 		.word	1073878016
 433 0190 08000500 		.word	327688
 434 0194 0AA94202 		.word	37923082
 435 0198 44000055 		.word	1426063428
 436 019c 00180240 		.word	1073879040
 437 01a0 0AA00A10 		.word	269131786
 438 01a4 AAAAAAAE 		.word	-1364546902
 439 01a8 00000410 		.word	268697600
 440 01ac 80000008 		.word	134217856
 441 01b0 001C0240 		.word	1073880064
 442 01b4 54550924 		.word	604591444
 443 01b8 AFAAAAAA 		.word	-1431655761
 444              		.cfi_endproc
 445              	.LFE329:
 446              		.size	__early_init, .-__early_init
 447              		.section	.text.boardInit,"ax",%progbits
 448              		.align	1
 449              		.p2align 2,,3
 450              		.global	boardInit
 451              		.syntax unified
 452              		.thumb
 453              		.thumb_func
 454              		.fpu fpv4-sp-d16
 455              		.type	boardInit, %function
 456              	boardInit:
ARM GAS  /tmp/ccDXgbOp.s 			page 9


 457              	.LFB330:
 458              		.loc 1 264 0
 459              		.cfi_startproc
 460              		@ args = 0, pretend = 0, frame = 0
 461              		@ frame_needed = 0, uses_anonymous_args = 0
 462              		@ link register save eliminated.
 463              		.loc 1 266 0
 464 0000 7047     		bx	lr
 465              		.cfi_endproc
 466              	.LFE330:
 467              		.size	boardInit, .-boardInit
 468 0002 00BF     		.text
 469              	.Letext0:
 470              		.file 2 "/usr/lib/gcc/arm-none-eabi/7.3.1/include/stddef.h"
 471              		.file 3 "/usr/arm-none-eabi/include/machine/_default_types.h"
 472              		.file 4 "/usr/arm-none-eabi/include/sys/_stdint.h"
 473              		.file 5 "./RM18A-ChibiOS18-Core/chibios/os/common/ports/ARMCMx/compilers/GCC/chtypes.h"
 474              		.file 6 "./RM18A-ChibiOS18-Core/chibios/os/rt/include/chsystypes.h"
 475              		.file 7 "./RM18A-ChibiOS18-Core/chibios/os/rt/include/chschd.h"
 476              		.file 8 "./RM18A-ChibiOS18-Core/chibios/os/rt/include/chtime.h"
 477              		.file 9 "./RM18A-ChibiOS18-Core/chibios/os/common/ext/ARM/CMSIS/Core/Include/core_cm4.h"
 478              		.file 10 "./RM18A-ChibiOS18-Core/chibios/os/common/ext/ST/STM32F4xx/system_stm32f4xx.h"
 479              		.file 11 "./RM18A-ChibiOS18-Core/chibios/os/common/ext/ST/STM32F4xx/stm32f427xx.h"
 480              		.file 12 "./RM18A-ChibiOS18-Core/chibios/os/common/ports/ARMCMx/chcore.h"
 481              		.file 13 "./RM18A-ChibiOS18-Core/chibios/os/common/ports/ARMCMx/chcore_v7m.h"
 482              		.file 14 "./RM18A-ChibiOS18-Core/chibios/os/hal/ports/STM32/LLD/TIMv1/stm32_tim.h"
 483              		.file 15 "./RM18A-ChibiOS18-Core/chibios/os/rt/include/chtm.h"
 484              		.file 16 "./RM18A-ChibiOS18-Core/chibios/os/rt/include/chsem.h"
 485              		.file 17 "./RM18A-ChibiOS18-Core/chibios/os/rt/include/chmtx.h"
 486              		.file 18 "./RM18A-ChibiOS18-Core/chibios/os/rt/include/chsys.h"
 487              		.file 19 "./RM18A-ChibiOS18-Core/chibios/os/rt/include/chregistry.h"
 488              		.file 20 "./RM18A-ChibiOS18-Core/chibios/os/rt/include/chevents.h"
 489              		.file 21 "./RM18A-ChibiOS18-Core/chibios/os/oslib/include/chmemcore.h"
 490              		.file 22 "./RM18A-ChibiOS18-Core/chibios/os/oslib/include/chmempools.h"
 491              		.file 23 "./RM18A-ChibiOS18-Core/chibios/os/oslib/include/chfactory.h"
 492              		.file 24 "./RM18A-ChibiOS18-Core/chibios/os/hal/ports/STM32/LLD/DMAv2/stm32_dma.h"
 493              		.file 25 "./RM18A-ChibiOS18-Core/chibios/os/hal/include/hal_queues.h"
 494              		.file 26 "./RM18A-ChibiOS18-Core/chibios/os/hal/include/hal_pal.h"
 495              		.file 27 "./RM18A-ChibiOS18-Core/chibios/os/hal/ports/STM32/LLD/GPIOv2/stm32_gpio.h"
 496              		.file 28 "./RM18A-ChibiOS18-Core/chibios/os/hal/ports/STM32/LLD/GPIOv2/hal_pal_lld.h"
 497              		.file 29 "./RM18A-ChibiOS18-Core/chibios/os/hal/include/hal_adc.h"
 498              		.file 30 "./RM18A-ChibiOS18-Core/chibios/os/hal/ports/STM32/LLD/ADCv2/hal_adc_lld.h"
 499              		.file 31 "./RM18A-ChibiOS18-Core/chibios/os/hal/include/hal_can.h"
 500              		.file 32 "./RM18A-ChibiOS18-Core/chibios/os/hal/ports/STM32/LLD/CANv1/hal_can_lld.h"
 501              		.file 33 "./RM18A-ChibiOS18-Core/chibios/os/hal/include/hal_i2c.h"
 502              		.file 34 "./RM18A-ChibiOS18-Core/chibios/os/hal/ports/STM32/LLD/I2Cv1/hal_i2c_lld.h"
 503              		.file 35 "./RM18A-ChibiOS18-Core/chibios/os/hal/include/hal_pwm.h"
 504              		.file 36 "./RM18A-ChibiOS18-Core/chibios/os/hal/ports/STM32/LLD/TIMv1/hal_pwm_lld.h"
 505              		.file 37 "./RM18A-ChibiOS18-Core/chibios/os/hal/include/hal_serial.h"
 506              		.file 38 "./RM18A-ChibiOS18-Core/chibios/os/hal/ports/STM32/LLD/USARTv1/hal_serial_lld.h"
 507              		.file 39 "./RM18A-ChibiOS18-Core/chibios/os/hal/include/hal_spi.h"
 508              		.file 40 "./RM18A-ChibiOS18-Core/chibios/os/hal/ports/STM32/LLD/SPIv1/hal_spi_lld.h"
 509              		.file 41 "./RM18A-ChibiOS18-Core/chibios/os/hal/include/hal_uart.h"
 510              		.file 42 "./RM18A-ChibiOS18-Core/chibios/os/hal/ports/STM32/LLD/USARTv1/hal_uart_lld.h"
 511              		.file 43 "./RM18A-ChibiOS18-Core/chibios/os/hal/include/hal_usb.h"
 512              		.file 44 "./RM18A-ChibiOS18-Core/chibios/os/hal/ports/STM32/LLD/OTGv1/hal_usb_lld.h"
 513              		.file 45 "./RM18A-ChibiOS18-Core/chibios/os/hal/ports/STM32/LLD/OTGv1/stm32_otg.h"
ARM GAS  /tmp/ccDXgbOp.s 			page 10


 514              		.file 46 "./RM18A-ChibiOS18-Core/chibios/os/hal/ports/STM32/STM32F4xx/hal_lld_type1.h"