ARM GAS  /tmp/ccXrQEOb.s 			page 1


   1              		.cpu cortex-m4
   2              		.eabi_attribute 27, 1
   3              		.eabi_attribute 28, 1
   4              		.eabi_attribute 20, 1
   5              		.eabi_attribute 21, 1
   6              		.eabi_attribute 23, 3
   7              		.eabi_attribute 24, 1
   8              		.eabi_attribute 25, 1
   9              		.eabi_attribute 26, 1
  10              		.eabi_attribute 30, 2
  11              		.eabi_attribute 34, 1
  12              		.eabi_attribute 18, 4
  13              		.file	"buzzer.c"
  14              		.text
  15              	.Ltext0:
  16              		.cfi_sections	.debug_frame
  17              		.section	.text.buzzer_thd,"ax",%progbits
  18              		.align	1
  19              		.p2align 2,,3
  20              		.global	buzzer_thd
  21              		.syntax unified
  22              		.thumb
  23              		.thumb_func
  24              		.fpu fpv4-sp-d16
  25              		.type	buzzer_thd, %function
  26              	buzzer_thd:
  27              	.LFB330:
  28              		.file 1 "./RM18A-ChibiOS18-Core/src/peripherals/buzzer.c"
  29              		.loc 1 49 0
  30              		.cfi_startproc
  31              		@ args = 0, pretend = 0, frame = 0
  32              		@ frame_needed = 0, uses_anonymous_args = 0
  33              	.LVL0:
  34 0000 2DE9F843 		push	{r3, r4, r5, r6, r7, r8, r9, lr}
  35              		.cfi_def_cfa_offset 32
  36              		.cfi_offset 3, -32
  37              		.cfi_offset 4, -28
  38              		.cfi_offset 5, -24
  39              		.cfi_offset 6, -20
  40              		.cfi_offset 7, -16
  41              		.cfi_offset 8, -12
  42              		.cfi_offset 9, -8
  43              		.cfi_offset 14, -4
  44              	.LBB68:
  45              	.LBB69:
  46              		.file 2 "./RM18A-ChibiOS18-Core/chibios/os/rt/include/chregistry.h"
  47              		.loc 2 136 0
  48 0004 DFF85C90 		ldr	r9, .L8+16
  49 0008 1249     		ldr	r1, .L8
  50 000a D9F81830 		ldr	r3, [r9, #24]
  51              	.LBE69:
  52              	.LBE68:
  53              		.loc 1 52 0
  54 000e 93F82120 		ldrb	r2, [r3, #33]	@ zero_extendqisi2
  55              	.LBB71:
  56              	.LBB70:
  57              		.loc 2 136 0
ARM GAS  /tmp/ccXrQEOb.s 			page 2


  58 0012 9961     		str	r1, [r3, #24]
  59              	.LBE70:
  60              	.LBE71:
  61              		.loc 1 52 0
  62 0014 5207     		lsls	r2, r2, #29
  63 0016 1BD4     		bmi	.L1
  64 0018 0F4C     		ldr	r4, .L8+4
  65 001a DFF84C80 		ldr	r8, .L8+20
  66 001e 0F4F     		ldr	r7, .L8+8
  67              	.LBB72:
  68              	.LBB73:
  69              		.file 3 "./RM18A-ChibiOS18-Core/chibios/os/oslib/include/chbsem.h"
  70              		.loc 3 143 0
  71 0020 0F4E     		ldr	r6, .L8+12
  72              	.LBE73:
  73              	.LBE72:
  74              	.LBB75:
  75              	.LBB76:
  76              		.loc 1 29 0
  77 0022 2546     		mov	r5, r4
  78              	.LVL1:
  79              	.L3:
  80              	.LBE76:
  81              	.LBE75:
  82              	.LBB78:
  83              	.LBB74:
  84              		.loc 3 143 0
  85 0024 3046     		mov	r0, r6
  86 0026 FFF7FEFF 		bl	chSemWait
  87              	.LVL2:
  88              	.LBE74:
  89              	.LBE78:
  90              		.loc 1 55 0
  91 002a D8F80010 		ldr	r1, [r8]
  92 002e 3868     		ldr	r0, [r7]
  93 0030 FFF7FEFF 		bl	chThdSleepUntilWindowed
  94              	.LVL3:
  95              	.LBB79:
  96              	.LBB77:
  97              		.loc 1 29 0
  98 0034 E368     		ldr	r3, [r4, #12]
  99 0036 0021     		movs	r1, #0
 100 0038 23F00103 		bic	r3, r3, #1
 101 003c 2846     		mov	r0, r5
 102 003e E360     		str	r3, [r4, #12]
 103 0040 FFF7FEFF 		bl	pwm_lld_disable_channel
 104              	.LVL4:
 105              	.LBE77:
 106              	.LBE79:
 107              	.LBB80:
 108              	.LBB81:
 109              		.file 4 "./RM18A-ChibiOS18-Core/chibios/os/rt/include/chthreads.h"
 110              		.loc 4 347 0
 111 0044 D9F81830 		ldr	r3, [r9, #24]
 112              	.LBE81:
 113              	.LBE80:
 114              		.loc 1 52 0
ARM GAS  /tmp/ccXrQEOb.s 			page 3


 115 0048 93F82130 		ldrb	r3, [r3, #33]	@ zero_extendqisi2
 116 004c 5B07     		lsls	r3, r3, #29
 117 004e E9D5     		bpl	.L3
 118              	.L1:
 119              		.loc 1 58 0
 120 0050 BDE8F883 		pop	{r3, r4, r5, r6, r7, r8, r9, pc}
 121              	.L9:
 122              		.align	2
 123              	.L8:
 124 0054 00000000 		.word	.LC0
 125 0058 00000000 		.word	PWMD12
 126 005c 00000000 		.word	.LANCHOR2
 127 0060 00000000 		.word	.LANCHOR0
 128 0064 00000000 		.word	ch
 129 0068 00000000 		.word	.LANCHOR1
 130              		.cfi_endproc
 131              	.LFE330:
 132              		.size	buzzer_thd, .-buzzer_thd
 133              		.section	.text.Buzzer_start,"ax",%progbits
 134              		.align	1
 135              		.p2align 2,,3
 136              		.global	Buzzer_start
 137              		.syntax unified
 138              		.thumb
 139              		.thumb_func
 140              		.fpu fpv4-sp-d16
 141              		.type	Buzzer_start, %function
 142              	Buzzer_start:
 143              	.LFB327:
 144              		.loc 1 27 0
 145              		.cfi_startproc
 146              		@ args = 0, pretend = 0, frame = 0
 147              		@ frame_needed = 0, uses_anonymous_args = 0
 148              	.LVL5:
 149 0000 10B5     		push	{r4, lr}
 150              		.cfi_def_cfa_offset 8
 151              		.cfi_offset 4, -8
 152              		.cfi_offset 14, -4
 153              	.LBB86:
 154              	.LBB87:
 155              	.LBB88:
 156              	.LBB89:
 157              		.loc 1 37 0
 158 0002 0C4C     		ldr	r4, .L12
 159 0004 C821     		movs	r1, #200
 160 0006 2046     		mov	r0, r4
 161 0008 FFF7FEFF 		bl	pwmChangePeriod
 162              	.LVL6:
 163              		.loc 1 38 0
 164 000c A068     		ldr	r0, [r4, #8]
 165 000e E368     		ldr	r3, [r4, #12]
 166 0010 0949     		ldr	r1, .L12+4
 167 0012 41F28832 		movw	r2, #5000
 168 0016 02FB00F2 		mul	r2, r2, r0
 169 001a A1FB0212 		umull	r1, r2, r1, r2
 170 001e 43F00103 		orr	r3, r3, #1
 171 0022 2046     		mov	r0, r4
ARM GAS  /tmp/ccXrQEOb.s 			page 4


 172 0024 E360     		str	r3, [r4, #12]
 173 0026 520B     		lsrs	r2, r2, #13
 174 0028 0021     		movs	r1, #0
 175              	.LBE89:
 176              	.LBE88:
 177              	.LBE87:
 178              	.LBE86:
 179              		.loc 1 27 0
 180 002a BDE81040 		pop	{r4, lr}
 181              		.cfi_restore 14
 182              		.cfi_restore 4
 183              		.cfi_def_cfa_offset 0
 184              	.LBB93:
 185              	.LBB92:
 186              	.LBB91:
 187              	.LBB90:
 188              		.loc 1 38 0
 189 002e FFF7FEBF 		b	pwm_lld_enable_channel
 190              	.LVL7:
 191              	.L13:
 192 0032 00BF     		.align	2
 193              	.L12:
 194 0034 00000000 		.word	PWMD12
 195 0038 5917B7D1 		.word	-776530087
 196              	.LBE90:
 197              	.LBE91:
 198              	.LBE92:
 199              	.LBE93:
 200              		.cfi_endproc
 201              	.LFE327:
 202              		.size	Buzzer_start, .-Buzzer_start
 203              		.section	.text.Buzzer_stop,"ax",%progbits
 204              		.align	1
 205              		.p2align 2,,3
 206              		.global	Buzzer_stop
 207              		.syntax unified
 208              		.thumb
 209              		.thumb_func
 210              		.fpu fpv4-sp-d16
 211              		.type	Buzzer_stop, %function
 212              	Buzzer_stop:
 213              	.LFB328:
 214              		.loc 1 29 0
 215              		.cfi_startproc
 216              		@ args = 0, pretend = 0, frame = 0
 217              		@ frame_needed = 0, uses_anonymous_args = 0
 218              		@ link register save eliminated.
 219              		.loc 1 29 0
 220 0000 044B     		ldr	r3, .L15
 221 0002 DA68     		ldr	r2, [r3, #12]
 222 0004 1846     		mov	r0, r3
 223 0006 22F00102 		bic	r2, r2, #1
 224 000a 0021     		movs	r1, #0
 225 000c DA60     		str	r2, [r3, #12]
 226 000e FFF7FEBF 		b	pwm_lld_disable_channel
 227              	.LVL8:
 228              	.L16:
ARM GAS  /tmp/ccXrQEOb.s 			page 5


 229 0012 00BF     		.align	2
 230              	.L15:
 231 0014 00000000 		.word	PWMD12
 232              		.cfi_endproc
 233              	.LFE328:
 234              		.size	Buzzer_stop, .-Buzzer_stop
 235              		.section	.text.Buzzer_playNote,"ax",%progbits
 236              		.align	1
 237              		.p2align 2,,3
 238              		.global	Buzzer_playNote
 239              		.syntax unified
 240              		.thumb
 241              		.thumb_func
 242              		.fpu fpv4-sp-d16
 243              		.type	Buzzer_playNote, %function
 244              	Buzzer_playNote:
 245              	.LFB329:
 246              		.loc 1 33 0
 247              		.cfi_startproc
 248              		@ args = 0, pretend = 0, frame = 0
 249              		@ frame_needed = 0, uses_anonymous_args = 0
 250              	.LVL9:
 251              		.loc 1 34 0
 252 0000 08B3     		cbz	r0, .L17
 253              	.LVL10:
 254              		.loc 1 33 0
 255 0002 70B5     		push	{r4, r5, r6, lr}
 256              		.cfi_def_cfa_offset 16
 257              		.cfi_offset 4, -16
 258              		.cfi_offset 5, -12
 259              		.cfi_offset 6, -8
 260              		.cfi_offset 14, -4
 261              	.LBB96:
 262              	.LBB97:
 263              		.loc 1 37 0
 264 0004 104D     		ldr	r5, .L22
 265 0006 0C46     		mov	r4, r1
 266              	.LVL11:
 267              		.loc 1 36 0
 268 0008 1049     		ldr	r1, .L22+4
 269              	.LVL12:
 270              		.loc 1 37 0
 271 000a B1FBF0F1 		udiv	r1, r1, r0
 272              	.LVL13:
 273 000e 2846     		mov	r0, r5
 274              	.LVL14:
 275 0010 FFF7FEFF 		bl	pwmChangePeriod
 276              	.LVL15:
 277              		.loc 1 38 0
 278 0014 AE68     		ldr	r6, [r5, #8]
 279 0016 EB68     		ldr	r3, [r5, #12]
 280 0018 0D48     		ldr	r0, .L22+8
 281 001a 642C     		cmp	r4, #100
 282 001c 4FF03202 		mov	r2, #50
 283 0020 2146     		mov	r1, r4
 284 0022 02FB06F2 		mul	r2, r2, r6
 285 0026 28BF     		it	cs
ARM GAS  /tmp/ccXrQEOb.s 			page 6


 286 0028 6421     		movcs	r1, #100
 287 002a 01FB02F2 		mul	r2, r1, r2
 288 002e A0FB0212 		umull	r1, r2, r0, r2
 289 0032 43F00103 		orr	r3, r3, #1
 290 0036 2846     		mov	r0, r5
 291 0038 EB60     		str	r3, [r5, #12]
 292 003a 520B     		lsrs	r2, r2, #13
 293 003c 0021     		movs	r1, #0
 294              	.LBE97:
 295              	.LBE96:
 296              		.loc 1 40 0
 297 003e BDE87040 		pop	{r4, r5, r6, lr}
 298              		.cfi_restore 14
 299              		.cfi_restore 6
 300              		.cfi_restore 5
 301              		.cfi_restore 4
 302              		.cfi_def_cfa_offset 0
 303              	.LVL16:
 304              	.LBB99:
 305              	.LBB98:
 306              		.loc 1 38 0
 307 0042 FFF7FEBF 		b	pwm_lld_enable_channel
 308              	.LVL17:
 309              	.L17:
 310 0046 7047     		bx	lr
 311              	.L23:
 312              		.align	2
 313              	.L22:
 314 0048 00000000 		.word	PWMD12
 315 004c 40420F00 		.word	1000000
 316 0050 5917B7D1 		.word	-776530087
 317              	.LBE98:
 318              	.LBE99:
 319              		.cfi_endproc
 320              	.LFE329:
 321              		.size	Buzzer_playNote, .-Buzzer_playNote
 322              		.section	.text.Buzzer_initialize,"ax",%progbits
 323              		.align	1
 324              		.p2align 2,,3
 325              		.global	Buzzer_initialize
 326              		.syntax unified
 327              		.thumb
 328              		.thumb_func
 329              		.fpu fpv4-sp-d16
 330              		.type	Buzzer_initialize, %function
 331              	Buzzer_initialize:
 332              	.LFB331:
 333              		.loc 1 61 0
 334              		.cfi_startproc
 335              		@ args = 0, pretend = 0, frame = 0
 336              		@ frame_needed = 0, uses_anonymous_args = 0
 337              	.LVL18:
 338 0000 10B5     		push	{r4, lr}
 339              		.cfi_def_cfa_offset 8
 340              		.cfi_offset 4, -8
 341              		.cfi_offset 14, -4
 342              	.LBB100:
ARM GAS  /tmp/ccXrQEOb.s 			page 7


 343              	.LBB101:
 344              		.loc 3 126 0
 345 0002 0121     		movs	r1, #1
 346              	.LBE101:
 347              	.LBE100:
 348              		.loc 1 61 0
 349 0004 82B0     		sub	sp, sp, #8
 350              		.cfi_def_cfa_offset 16
 351              	.LBB104:
 352              	.LBB102:
 353              		.loc 3 126 0
 354 0006 0E48     		ldr	r0, .L28
 355              	.LBE102:
 356              	.LBE104:
 357              		.loc 1 65 0
 358 0008 0E4C     		ldr	r4, .L28+4
 359              	.LBB105:
 360              	.LBB103:
 361              		.loc 3 126 0
 362 000a FFF7FEFF 		bl	chSemObjectInit
 363              	.LVL19:
 364              	.LBE103:
 365              	.LBE105:
 366              		.loc 1 63 0
 367 000e 40F28242 		movw	r2, #1154
 368 0012 4021     		movs	r1, #64
 369 0014 0C48     		ldr	r0, .L28+8
 370 0016 FFF7FEFF 		bl	_pal_lld_setgroupmode
 371              	.LVL20:
 372              		.loc 1 64 0
 373 001a 0C49     		ldr	r1, .L28+12
 374 001c 0C48     		ldr	r0, .L28+16
 375 001e FFF7FEFF 		bl	pwmStart
 376              	.LVL21:
 377              		.loc 1 65 0
 378 0022 2368     		ldr	r3, [r4]
 379 0024 0BB1     		cbz	r3, .L27
 380              		.loc 1 68 0
 381 0026 02B0     		add	sp, sp, #8
 382              		.cfi_remember_state
 383              		.cfi_def_cfa_offset 8
 384              		@ sp needed
 385 0028 10BD     		pop	{r4, pc}
 386              	.L27:
 387              		.cfi_restore_state
 388              		.loc 1 66 0
 389 002a 0093     		str	r3, [sp]
 390 002c 8022     		movs	r2, #128
 391 002e 094B     		ldr	r3, .L28+20
 392 0030 0948     		ldr	r0, .L28+24
 393 0032 4FF4C871 		mov	r1, #400
 394 0036 FFF7FEFF 		bl	chThdCreateStatic
 395              	.LVL22:
 396 003a 2060     		str	r0, [r4]
 397              		.loc 1 68 0
 398 003c 02B0     		add	sp, sp, #8
 399              		.cfi_def_cfa_offset 8
ARM GAS  /tmp/ccXrQEOb.s 			page 8


 400              		@ sp needed
 401 003e 10BD     		pop	{r4, pc}
 402              	.L29:
 403              		.align	2
 404              	.L28:
 405 0040 00000000 		.word	.LANCHOR0
 406 0044 00000000 		.word	.LANCHOR4
 407 0048 001C0240 		.word	1073880064
 408 004c 00000000 		.word	.LANCHOR3
 409 0050 00000000 		.word	PWMD12
 410 0054 00000000 		.word	buzzer_thd
 411 0058 00000000 		.word	.LANCHOR5
 412              		.cfi_endproc
 413              	.LFE331:
 414              		.size	Buzzer_initialize, .-Buzzer_initialize
 415              		.section	.text.Buzzer_asyncPlayNote,"ax",%progbits
 416              		.align	1
 417              		.p2align 2,,3
 418              		.global	Buzzer_asyncPlayNote
 419              		.syntax unified
 420              		.thumb
 421              		.thumb_func
 422              		.fpu fpv4-sp-d16
 423              		.type	Buzzer_asyncPlayNote, %function
 424              	Buzzer_asyncPlayNote:
 425              	.LFB332:
 426              		.loc 1 72 0
 427              		.cfi_startproc
 428              		@ args = 0, pretend = 0, frame = 0
 429              		@ frame_needed = 0, uses_anonymous_args = 0
 430              	.LVL23:
 431 0000 F8B5     		push	{r3, r4, r5, r6, r7, lr}
 432              		.cfi_def_cfa_offset 24
 433              		.cfi_offset 3, -24
 434              		.cfi_offset 4, -20
 435              		.cfi_offset 5, -16
 436              		.cfi_offset 6, -12
 437              		.cfi_offset 7, -8
 438              		.cfi_offset 14, -4
 439              		.loc 1 73 0
 440 0002 1E4B     		ldr	r3, .L43
 441 0004 1B68     		ldr	r3, [r3]
 442 0006 B3B1     		cbz	r3, .L30
 443              	.LVL24:
 444 0008 1546     		mov	r5, r2
 445 000a 0C46     		mov	r4, r1
 446              	.LVL25:
 447              	.LBB129:
 448              	.LBB130:
 449              		.loc 1 34 0
 450 000c A0B9     		cbnz	r0, .L41
 451              	.LVL26:
 452              	.L32:
 453              	.LBE130:
 454              	.LBE129:
 455              	.LBB134:
 456              	.LBB135:
ARM GAS  /tmp/ccXrQEOb.s 			page 9


 457              	.LBB136:
 458              	.LBB137:
 459              		.file 5 "./RM18A-ChibiOS18-Core/chibios/os/hal/ports/STM32/LLD/TIMv1/hal_st_lld.h"
 460              		.loc 5 147 0
 461 000e 4FF08043 		mov	r3, #1073741824
 462              	.LBE137:
 463              	.LBE136:
 464              	.LBE135:
 465              	.LBE134:
 466              		.loc 1 77 0
 467 0012 1B48     		ldr	r0, .L43+4
 468              	.LBB141:
 469              	.LBB140:
 470              	.LBB139:
 471              	.LBB138:
 472              		.loc 5 147 0
 473 0014 5B6A     		ldr	r3, [r3, #36]
 474              	.LBE138:
 475              	.LBE139:
 476              	.LBE140:
 477              	.LBE141:
 478              		.loc 1 76 0
 479 0016 1B49     		ldr	r1, .L43+8
 480              	.LBB142:
 481              	.LBB143:
 482              		.file 6 "./RM18A-ChibiOS18-Core/chibios/os/rt/include/chtime.h"
 483              		.loc 6 448 0
 484 0018 1D44     		add	r5, r5, r3
 485              	.LVL27:
 486              	.LBE143:
 487              	.LBE142:
 488              		.loc 1 76 0
 489 001a 0B60     		str	r3, [r1]
 490              	.LVL28:
 491              		.loc 1 77 0
 492 001c 0560     		str	r5, [r0]
 493              	.LBB144:
 494              	.LBB145:
 495              	.LBB146:
 496              	.LBB147:
 497              	.LBB148:
 498              	.LBB149:
 499              		.file 7 "./RM18A-ChibiOS18-Core/chibios/os/common/ext/ARM/CMSIS/Core/Include/cmsis_gcc.h"
 500              		.loc 7 493 0
 501 001e 2023     		movs	r3, #32
 502              		.syntax unified
 503              	@ 493 "./RM18A-ChibiOS18-Core/chibios/os/common/ext/ARM/CMSIS/Core/Include/cmsis_gcc.h" 1
 504 0020 83F31188 		MSR basepri, r3
 505              	@ 0 "" 2
 506              	.LVL29:
 507              		.thumb
 508              		.syntax unified
 509              	.LBE149:
 510              	.LBE148:
 511              	.LBE147:
 512              	.LBE146:
 513              	.LBB150:
ARM GAS  /tmp/ccXrQEOb.s 			page 10


 514              	.LBB151:
 515              		.loc 3 270 0
 516 0024 1848     		ldr	r0, .L43+12
 517 0026 8368     		ldr	r3, [r0, #8]
 518 0028 002B     		cmp	r3, #0
 519 002a 23DD     		ble	.L42
 520              	.L33:
 521              	.LVL30:
 522              	.LBE151:
 523              	.LBE150:
 524              		.loc 3 286 0
 525 002c FFF7FEFF 		bl	chSchRescheduleS
 526              	.LVL31:
 527              	.LBB153:
 528              	.LBB154:
 529              	.LBB155:
 530              	.LBB156:
 531              	.LBB157:
 532              		.loc 7 493 0
 533 0030 0023     		movs	r3, #0
 534              		.syntax unified
 535              	@ 493 "./RM18A-ChibiOS18-Core/chibios/os/common/ext/ARM/CMSIS/Core/Include/cmsis_gcc.h" 1
 536 0032 83F31188 		MSR basepri, r3
 537              	@ 0 "" 2
 538              	.LVL32:
 539              		.thumb
 540              		.syntax unified
 541              	.L30:
 542              	.LBE157:
 543              	.LBE156:
 544              	.LBE155:
 545              	.LBE154:
 546              	.LBE153:
 547              	.LBE145:
 548              	.LBE144:
 549              		.loc 1 80 0
 550 0036 F8BD     		pop	{r3, r4, r5, r6, r7, pc}
 551              	.LVL33:
 552              	.L41:
 553              	.LBB160:
 554              	.LBB133:
 555              	.LBB131:
 556              	.LBB132:
 557              		.loc 1 37 0
 558 0038 144E     		ldr	r6, .L43+16
 559              		.loc 1 36 0
 560 003a 1549     		ldr	r1, .L43+20
 561              	.LVL34:
 562              		.loc 1 37 0
 563 003c B1FBF0F1 		udiv	r1, r1, r0
 564              	.LVL35:
 565 0040 3046     		mov	r0, r6
 566              	.LVL36:
 567 0042 FFF7FEFF 		bl	pwmChangePeriod
 568              	.LVL37:
 569              		.loc 1 38 0
 570 0046 B768     		ldr	r7, [r6, #8]
ARM GAS  /tmp/ccXrQEOb.s 			page 11


 571 0048 1248     		ldr	r0, .L43+24
 572 004a F368     		ldr	r3, [r6, #12]
 573 004c 3222     		movs	r2, #50
 574 004e 642C     		cmp	r4, #100
 575 0050 2146     		mov	r1, r4
 576 0052 02FB07F4 		mul	r4, r2, r7
 577              	.LVL38:
 578 0056 28BF     		it	cs
 579 0058 6421     		movcs	r1, #100
 580              	.LVL39:
 581 005a 01FB04F1 		mul	r1, r1, r4
 582 005e A0FB0121 		umull	r2, r1, r0, r1
 583 0062 43F00103 		orr	r3, r3, #1
 584 0066 4A0B     		lsrs	r2, r1, #13
 585 0068 3046     		mov	r0, r6
 586 006a 0021     		movs	r1, #0
 587 006c F360     		str	r3, [r6, #12]
 588 006e FFF7FEFF 		bl	pwm_lld_enable_channel
 589              	.LVL40:
 590 0072 CCE7     		b	.L32
 591              	.LVL41:
 592              	.L42:
 593              	.LBE132:
 594              	.LBE131:
 595              	.LBE133:
 596              	.LBE160:
 597              	.LBB161:
 598              	.LBB159:
 599              	.LBB158:
 600              	.LBB152:
 601              		.loc 3 271 0
 602 0074 FFF7FEFF 		bl	chSemSignalI
 603              	.LVL42:
 604 0078 D8E7     		b	.L33
 605              	.L44:
 606 007a 00BF     		.align	2
 607              	.L43:
 608 007c 00000000 		.word	.LANCHOR4
 609 0080 00000000 		.word	.LANCHOR1
 610 0084 00000000 		.word	.LANCHOR2
 611 0088 00000000 		.word	.LANCHOR0
 612 008c 00000000 		.word	PWMD12
 613 0090 40420F00 		.word	1000000
 614 0094 5917B7D1 		.word	-776530087
 615              	.LBE152:
 616              	.LBE158:
 617              	.LBE159:
 618              	.LBE161:
 619              		.cfi_endproc
 620              	.LFE332:
 621              		.size	Buzzer_asyncPlayNote, .-Buzzer_asyncPlayNote
 622              		.global	buzzer_wa
 623              		.section	.bss.buzzer_request_sem,"aw",%nobits
 624              		.align	2
 625              		.set	.LANCHOR0,. + 0
 626              		.type	buzzer_request_sem, %object
 627              		.size	buzzer_request_sem, 12
ARM GAS  /tmp/ccXrQEOb.s 			page 12


 628              	buzzer_request_sem:
 629 0000 00000000 		.space	12
 629      00000000 
 629      00000000 
 630              		.section	.bss.buzzer_wa,"aw",%nobits
 631              		.align	3
 632              		.set	.LANCHOR5,. + 0
 633              		.type	buzzer_wa, %object
 634              		.size	buzzer_wa, 400
 635              	buzzer_wa:
 636 0000 00000000 		.space	400
 636      00000000 
 636      00000000 
 636      00000000 
 636      00000000 
 637              		.section	.bss.p_thd,"aw",%nobits
 638              		.align	2
 639              		.set	.LANCHOR4,. + 0
 640              		.type	p_thd, %object
 641              		.size	p_thd, 4
 642              	p_thd:
 643 0000 00000000 		.space	4
 644              		.section	.bss.startTime,"aw",%nobits
 645              		.align	2
 646              		.set	.LANCHOR2,. + 0
 647              		.type	startTime, %object
 648              		.size	startTime, 4
 649              	startTime:
 650 0000 00000000 		.space	4
 651              		.section	.bss.stopTime,"aw",%nobits
 652              		.align	2
 653              		.set	.LANCHOR1,. + 0
 654              		.type	stopTime, %object
 655              		.size	stopTime, 4
 656              	stopTime:
 657 0000 00000000 		.space	4
 658              		.section	.rodata.buzzer_cfg,"a",%progbits
 659              		.align	2
 660              		.set	.LANCHOR3,. + 0
 661              		.type	buzzer_cfg, %object
 662              		.size	buzzer_cfg, 52
 663              	buzzer_cfg:
 664 0000 40420F00 		.word	1000000
 665 0004 14000000 		.word	20
 666 0008 00000000 		.word	0
 667 000c 01000000 		.word	1
 668 0010 00000000 		.word	0
 669 0014 00000000 		.word	0
 670 0018 00000000 		.word	0
 671 001c 00000000 		.word	0
 672 0020 00000000 		.word	0
 673 0024 00000000 		.word	0
 674 0028 00000000 		.word	0
 675 002c 00000000 		.word	0
 676 0030 00000000 		.word	0
 677              		.section	.rodata.buzzer_thd.str1.4,"aMS",%progbits,1
 678              		.align	2
ARM GAS  /tmp/ccXrQEOb.s 			page 13


 679              	.LC0:
 680 0000 42757A7A 		.ascii	"Buzzer\000"
 680      657200
 681              		.text
 682              	.Letext0:
 683              		.file 8 "/usr/lib/gcc/arm-none-eabi/7.3.1/include/stddef.h"
 684              		.file 9 "/usr/arm-none-eabi/include/machine/_default_types.h"
 685              		.file 10 "/usr/arm-none-eabi/include/sys/_stdint.h"
 686              		.file 11 "./RM18A-ChibiOS18-Core/chibios/os/common/ports/ARMCMx/compilers/GCC/chtypes.h"
 687              		.file 12 "./RM18A-ChibiOS18-Core/chibios/os/rt/include/chsystypes.h"
 688              		.file 13 "./RM18A-ChibiOS18-Core/chibios/os/rt/include/chschd.h"
 689              		.file 14 "./RM18A-ChibiOS18-Core/chibios/os/common/ext/ARM/CMSIS/Core/Include/core_cm4.h"
 690              		.file 15 "./RM18A-ChibiOS18-Core/chibios/os/common/ext/ST/STM32F4xx/system_stm32f4xx.h"
 691              		.file 16 "./RM18A-ChibiOS18-Core/chibios/os/common/ext/ST/STM32F4xx/stm32f427xx.h"
 692              		.file 17 "./RM18A-ChibiOS18-Core/chibios/os/common/ports/ARMCMx/chcore.h"
 693              		.file 18 "./RM18A-ChibiOS18-Core/chibios/os/common/ports/ARMCMx/chcore_v7m.h"
 694              		.file 19 "./RM18A-ChibiOS18-Core/chibios/os/hal/ports/STM32/LLD/TIMv1/stm32_tim.h"
 695              		.file 20 "./RM18A-ChibiOS18-Core/chibios/os/rt/include/chtm.h"
 696              		.file 21 "./RM18A-ChibiOS18-Core/chibios/os/rt/include/chsem.h"
 697              		.file 22 "./RM18A-ChibiOS18-Core/chibios/os/rt/include/chmtx.h"
 698              		.file 23 "./RM18A-ChibiOS18-Core/chibios/os/rt/include/chsys.h"
 699              		.file 24 "./RM18A-ChibiOS18-Core/chibios/os/rt/include/chevents.h"
 700              		.file 25 "./RM18A-ChibiOS18-Core/chibios/os/oslib/include/chmemcore.h"
 701              		.file 26 "./RM18A-ChibiOS18-Core/chibios/os/oslib/include/chmempools.h"
 702              		.file 27 "./RM18A-ChibiOS18-Core/chibios/os/oslib/include/chfactory.h"
 703              		.file 28 "./RM18A-ChibiOS18-Core/chibios/os/hal/ports/STM32/LLD/DMAv2/stm32_dma.h"
 704              		.file 29 "./RM18A-ChibiOS18-Core/chibios/os/hal/include/hal_queues.h"
 705              		.file 30 "./RM18A-ChibiOS18-Core/chibios/os/hal/include/hal_pal.h"
 706              		.file 31 "./RM18A-ChibiOS18-Core/chibios/os/hal/ports/STM32/LLD/GPIOv2/stm32_gpio.h"
 707              		.file 32 "./RM18A-ChibiOS18-Core/chibios/os/hal/ports/STM32/LLD/GPIOv2/hal_pal_lld.h"
 708              		.file 33 "./RM18A-ChibiOS18-Core/chibios/os/hal/include/hal_adc.h"
 709              		.file 34 "./RM18A-ChibiOS18-Core/chibios/os/hal/ports/STM32/LLD/ADCv2/hal_adc_lld.h"
 710              		.file 35 "./RM18A-ChibiOS18-Core/chibios/os/hal/include/hal_can.h"
 711              		.file 36 "./RM18A-ChibiOS18-Core/chibios/os/hal/ports/STM32/LLD/CANv1/hal_can_lld.h"
 712              		.file 37 "./RM18A-ChibiOS18-Core/chibios/os/hal/include/hal_icu.h"
 713              		.file 38 "./RM18A-ChibiOS18-Core/chibios/os/hal/ports/STM32/LLD/TIMv1/hal_icu_lld.h"
 714              		.file 39 "./RM18A-ChibiOS18-Core/chibios/os/hal/include/hal_pwm.h"
 715              		.file 40 "./RM18A-ChibiOS18-Core/chibios/os/hal/ports/STM32/LLD/TIMv1/hal_pwm_lld.h"
 716              		.file 41 "./RM18A-ChibiOS18-Core/chibios/os/hal/include/hal_serial.h"
 717              		.file 42 "./RM18A-ChibiOS18-Core/chibios/os/hal/ports/STM32/LLD/USARTv1/hal_serial_lld.h"
 718              		.file 43 "./RM18A-ChibiOS18-Core/chibios/os/hal/include/hal_spi.h"
 719              		.file 44 "./RM18A-ChibiOS18-Core/chibios/os/hal/ports/STM32/LLD/SPIv1/hal_spi_lld.h"
 720              		.file 45 "./RM18A-ChibiOS18-Core/chibios/os/hal/include/hal_uart.h"
 721              		.file 46 "./RM18A-ChibiOS18-Core/chibios/os/hal/ports/STM32/LLD/USARTv1/hal_uart_lld.h"
 722              		.file 47 "./RM18A-ChibiOS18-Core/chibios/os/hal/include/hal_usb.h"
 723              		.file 48 "./RM18A-ChibiOS18-Core/chibios/os/hal/ports/STM32/LLD/OTGv1/hal_usb_lld.h"
 724              		.file 49 "./RM18A-ChibiOS18-Core/chibios/os/hal/ports/STM32/LLD/OTGv1/stm32_otg.h"
 725              		.file 50 "./RM18A-ChibiOS18-Core/chibios/os/rt/include/chvt.h"
 726              		.file 51 "./RM18A-ChibiOS18-Core/chibios/os/common/ports/ARMCMx/chcore_timer.h"