ARM GAS  /tmp/ccAA0tEB.s 			page 1


   1              		.cpu cortex-m4
   2              		.eabi_attribute 27, 1
   3              		.eabi_attribute 28, 1
   4              		.eabi_attribute 20, 1
   5              		.eabi_attribute 21, 1
   6              		.eabi_attribute 23, 3
   7              		.eabi_attribute 24, 1
   8              		.eabi_attribute 25, 1
   9              		.eabi_attribute 26, 1
  10              		.eabi_attribute 30, 2
  11              		.eabi_attribute 34, 1
  12              		.eabi_attribute 18, 4
  13              		.file	"CAN_Manager.c"
  14              		.text
  15              	.Ltext0:
  16              		.cfi_sections	.debug_frame
  17              		.section	.text.CAN2_receiveCB,"ax",%progbits
  18              		.align	1
  19              		.p2align 2,,3
  20              		.syntax unified
  21              		.thumb
  22              		.thumb_func
  23              		.fpu fpv4-sp-d16
  24              		.type	CAN2_receiveCB, %function
  25              	CAN2_receiveCB:
  26              	.LFB328:
  27              		.file 1 "./RM18A-ChibiOS18-Core/src/peripherals/CAN_Manager.c"
  28              		.loc 1 67 0
  29              		.cfi_startproc
  30              		@ args = 0, pretend = 0, frame = 24
  31              		@ frame_needed = 0, uses_anonymous_args = 0
  32              	.LVL0:
  33 0000 70B5     		push	{r4, r5, r6, lr}
  34              		.cfi_def_cfa_offset 16
  35              		.cfi_offset 4, -16
  36              		.cfi_offset 5, -12
  37              		.cfi_offset 6, -8
  38              		.cfi_offset 14, -4
  39 0002 0446     		mov	r4, r0
  40 0004 86B0     		sub	sp, sp, #24
  41              		.cfi_def_cfa_offset 40
  42              		.loc 1 84 0
  43 0006 0A4E     		ldr	r6, .L6
  44              		.loc 1 78 0
  45 0008 06E0     		b	.L2
  46              	.LVL1:
  47              	.L3:
  48              		.loc 1 84 0
  49 000a 9DF80030 		ldrb	r3, [sp]	@ zero_extendqisi2
  50 000e 56F82330 		ldr	r3, [r6, r3, lsl #2]
  51 0012 D3E90050 		ldrd	r5, r0, [r3]
  52 0016 A847     		blx	r5
  53              	.LVL2:
  54              	.L2:
  55              		.loc 1 78 0
  56 0018 6A46     		mov	r2, sp
  57 001a 0021     		movs	r1, #0
ARM GAS  /tmp/ccAA0tEB.s 			page 2


  58 001c 2046     		mov	r0, r4
  59 001e FFF7FEFF 		bl	canTryReceiveI
  60              	.LVL3:
  61              		.loc 1 84 0
  62 0022 6A46     		mov	r2, sp
  63 0024 2146     		mov	r1, r4
  64              		.loc 1 78 0
  65 0026 0028     		cmp	r0, #0
  66 0028 EFD0     		beq	.L3
  67              	.LVL4:
  68              		.loc 1 94 0
  69 002a 06B0     		add	sp, sp, #24
  70              		.cfi_def_cfa_offset 16
  71              		@ sp needed
  72 002c 70BD     		pop	{r4, r5, r6, pc}
  73              	.L7:
  74 002e 00BF     		.align	2
  75              	.L6:
  76 0030 00000000 		.word	.LANCHOR0
  77              		.cfi_endproc
  78              	.LFE328:
  79              		.size	CAN2_receiveCB, .-CAN2_receiveCB
  80              		.section	.text.CAN1_receiveCB,"ax",%progbits
  81              		.align	1
  82              		.p2align 2,,3
  83              		.syntax unified
  84              		.thumb
  85              		.thumb_func
  86              		.fpu fpv4-sp-d16
  87              		.type	CAN1_receiveCB, %function
  88              	CAN1_receiveCB:
  89              	.LFB327:
  90              		.loc 1 31 0
  91              		.cfi_startproc
  92              		@ args = 0, pretend = 0, frame = 24
  93              		@ frame_needed = 0, uses_anonymous_args = 0
  94              	.LVL5:
  95 0000 70B5     		push	{r4, r5, r6, lr}
  96              		.cfi_def_cfa_offset 16
  97              		.cfi_offset 4, -16
  98              		.cfi_offset 5, -12
  99              		.cfi_offset 6, -8
 100              		.cfi_offset 14, -4
 101 0002 0446     		mov	r4, r0
 102 0004 86B0     		sub	sp, sp, #24
 103              		.cfi_def_cfa_offset 40
 104              		.loc 1 48 0
 105 0006 0A4E     		ldr	r6, .L12
 106              		.loc 1 42 0
 107 0008 06E0     		b	.L9
 108              	.LVL6:
 109              	.L10:
 110              		.loc 1 48 0
 111 000a 9DF80030 		ldrb	r3, [sp]	@ zero_extendqisi2
 112 000e 56F82330 		ldr	r3, [r6, r3, lsl #2]
 113 0012 D3E90050 		ldrd	r5, r0, [r3]
 114 0016 A847     		blx	r5
ARM GAS  /tmp/ccAA0tEB.s 			page 3


 115              	.LVL7:
 116              	.L9:
 117              		.loc 1 42 0
 118 0018 6A46     		mov	r2, sp
 119 001a 0021     		movs	r1, #0
 120 001c 2046     		mov	r0, r4
 121 001e FFF7FEFF 		bl	canTryReceiveI
 122              	.LVL8:
 123              		.loc 1 48 0
 124 0022 6A46     		mov	r2, sp
 125 0024 2146     		mov	r1, r4
 126              		.loc 1 42 0
 127 0026 0028     		cmp	r0, #0
 128 0028 EFD0     		beq	.L10
 129              	.LVL9:
 130              		.loc 1 58 0
 131 002a 06B0     		add	sp, sp, #24
 132              		.cfi_def_cfa_offset 16
 133              		@ sp needed
 134 002c 70BD     		pop	{r4, r5, r6, pc}
 135              	.L13:
 136 002e 00BF     		.align	2
 137              	.L12:
 138 0030 00000000 		.word	.LANCHOR1
 139              		.cfi_endproc
 140              	.LFE327:
 141              		.size	CAN1_receiveCB, .-CAN1_receiveCB
 142              		.section	.text.CAN_Manager_start,"ax",%progbits
 143              		.align	1
 144              		.p2align 2,,3
 145              		.global	CAN_Manager_start
 146              		.syntax unified
 147              		.thumb
 148              		.thumb_func
 149              		.fpu fpv4-sp-d16
 150              		.type	CAN_Manager_start, %function
 151              	CAN_Manager_start:
 152              	.LFB332:
 153              		.loc 1 319 0
 154              		.cfi_startproc
 155              		@ args = 0, pretend = 0, frame = 24
 156              		@ frame_needed = 0, uses_anonymous_args = 0
 157              	.LVL10:
 158 0000 2DE9F04F 		push	{r4, r5, r6, r7, r8, r9, r10, fp, lr}
 159              		.cfi_def_cfa_offset 36
 160              		.cfi_offset 4, -36
 161              		.cfi_offset 5, -32
 162              		.cfi_offset 6, -28
 163              		.cfi_offset 7, -24
 164              		.cfi_offset 8, -20
 165              		.cfi_offset 9, -16
 166              		.cfi_offset 10, -12
 167              		.cfi_offset 11, -8
 168              		.cfi_offset 14, -4
 169              		.loc 1 326 0
 170 0004 C54D     		ldr	r5, .L211
 171              		.loc 1 328 0
ARM GAS  /tmp/ccAA0tEB.s 			page 4


 172 0006 DFF83483 		ldr	r8, .L211+32
 173              		.loc 1 326 0
 174 000a 2E6C     		ldr	r6, [r5, #64]
 175              		.loc 1 328 0
 176 000c D8F82840 		ldr	r4, [r8, #40]
 177              		.loc 1 326 0
 178 0010 46F00076 		orr	r6, r6, #33554432
 179 0014 2E64     		str	r6, [r5, #64]
 180 0016 2E6E     		ldr	r6, [r5, #96]
 181 0018 46F00076 		orr	r6, r6, #33554432
 182 001c 2E66     		str	r6, [r5, #96]
 183 001e 2D6E     		ldr	r5, [r5, #96]
 184              		.loc 1 328 0
 185 0020 D4F80052 		ldr	r5, [r4, #512]
 186 0024 2D0C     		lsrs	r5, r5, #16
 187 0026 2D04     		lsls	r5, r5, #16
 188              		.loc 1 331 0
 189 0028 0027     		movs	r7, #0
 190              		.loc 1 328 0
 191 002a 45F00106 		orr	r6, r5, #1
 192              		.loc 1 319 0
 193 002e 87B0     		sub	sp, sp, #28
 194              		.cfi_def_cfa_offset 64
 195              		.loc 1 328 0
 196 0030 C4F80062 		str	r6, [r4, #512]
 197              		.loc 1 319 0
 198 0034 CDE90432 		strd	r3, r2, [sp, #16]
 199              		.loc 1 331 0
 200 0038 C4F81C72 		str	r7, [r4, #540]
 201              	.LBB150:
 202              		.loc 1 337 0
 203 003c 3D46     		mov	r5, r7
 204              	.LBE150:
 205              		.loc 1 332 0
 206 003e C4F80472 		str	r7, [r4, #516]
 207              	.LBB151:
 208              		.loc 1 339 0
 209 0042 3A46     		mov	r2, r7
 210              	.LVL11:
 211              	.LBE151:
 212              		.loc 1 333 0
 213 0044 C4F80C72 		str	r7, [r4, #524]
 214              		.loc 1 334 0
 215 0048 C4F81472 		str	r7, [r4, #532]
 216              	.LVL12:
 217              	.L15:
 218 004c 04EBC503 		add	r3, r4, r5, lsl #3
 219              	.LBB152:
 220              		.loc 1 337 0 discriminator 3
 221 0050 0135     		adds	r5, r5, #1
 222              	.LVL13:
 223 0052 1C2D     		cmp	r5, #28
 224              		.loc 1 339 0 discriminator 3
 225 0054 C3F84022 		str	r2, [r3, #576]
 226              		.loc 1 340 0 discriminator 3
 227 0058 C3F84422 		str	r2, [r3, #580]
 228              		.loc 1 337 0 discriminator 3
ARM GAS  /tmp/ccAA0tEB.s 			page 5


 229 005c F6D1     		bne	.L15
 230              	.LVL14:
 231              	.LBE152:
 232              	.LBB153:
 233              		.loc 1 344 0
 234 005e 0029     		cmp	r1, #0
 235 0060 00F0B880 		beq	.L16
 236 0064 AE4B     		ldr	r3, .L211+4
 237 0066 AF4E     		ldr	r6, .L211+8
 238 0068 0193     		str	r3, [sp, #4]
 239 006a A0F10409 		sub	r9, r0, #4
 240 006e 09EB8103 		add	r3, r9, r1, lsl #2
 241 0072 0393     		str	r3, [sp, #12]
 242              	.LBB154:
 243              	.LBB155:
 244              		.loc 1 143 0
 245 0074 0125     		movs	r5, #1
 246              	.LVL15:
 247 0076 0296     		str	r6, [sp, #8]
 248              	.LVL16:
 249              	.L53:
 250              		.loc 1 132 0 discriminator 3
 251 0078 0299     		ldr	r1, [sp, #8]
 252              		.loc 1 143 0 discriminator 3
 253 007a D4F81C32 		ldr	r3, [r4, #540]
 254              	.LBE155:
 255              	.LBE154:
 256              		.loc 1 346 0 discriminator 3
 257 007e 59F8040F 		ldr	r0, [r9, #4]!
 258              	.LVL17:
 259              	.LBB206:
 260              	.LBB192:
 261              		.loc 1 132 0 discriminator 3
 262 0082 0022     		movs	r2, #0
 263 0084 0A60     		str	r2, [r1]
 264              		.loc 1 135 0 discriminator 3
 265 0086 0199     		ldr	r1, [sp, #4]
 266 0088 90F810B0 		ldrb	fp, [r0, #16]	@ zero_extendqisi2
 267 008c 0A60     		str	r2, [r1]
 268              		.loc 1 143 0 discriminator 3
 269 008e 13F00103 		ands	r3, r3, #1
 270 0092 00F0FD82 		beq	.L130
 271              		.loc 1 143 0 is_stmt 0
 272 0096 9646     		mov	lr, r2
 273 0098 1346     		mov	r3, r2
 274 009a 0121     		movs	r1, #1
 275 009c 8246     		mov	r10, r0
 276 009e 5F46     		mov	r7, fp
 277 00a0 1EE0     		b	.L49
 278              	.L18:
 279              		.loc 1 226 0 is_stmt 1
 280 00a2 D4F80462 		ldr	r6, [r4, #516]
 281              		.loc 1 227 0
 282 00a6 D4F80CE2 		ldr	lr, [r4, #524]
 283              		.loc 1 226 0
 284 00aa 0E40     		ands	r6, r6, r1
 285 00ac 002E     		cmp	r6, #0
ARM GAS  /tmp/ccAA0tEB.s 			page 6


 286 00ae 15BF     		itete	ne
 287 00b0 0426     		movne	r6, #4
 288 00b2 0226     		moveq	r6, #2
 289 00b4 4FF0020C 		movne	ip, #2
 290 00b8 4FF0010C 		moveq	ip, #1
 291              		.loc 1 144 0
 292 00bc 0133     		adds	r3, r3, #1
 293              		.loc 1 227 0
 294 00be 1EEA010F 		tst	lr, r1
 295 00c2 18BF     		it	ne
 296 00c4 6646     		movne	r6, ip
 297              		.loc 1 143 0
 298 00c6 1C2B     		cmp	r3, #28
 299              		.loc 1 226 0
 300 00c8 3244     		add	r2, r2, r6
 301              		.loc 1 143 0
 302 00ca 00F05781 		beq	.L48
 303 00ce D4F81C62 		ldr	r6, [r4, #540]
 304 00d2 05FA03F1 		lsl	r1, r5, r3
 305 00d6 3142     		tst	r1, r6
 306 00d8 4FF0010E 		mov	lr, #1
 307 00dc 00F03682 		beq	.L174
 308              	.L49:
 309              		.loc 1 146 0
 310 00e0 D4F80462 		ldr	r6, [r4, #516]
 311 00e4 0E42     		tst	r6, r1
 312 00e6 14BF     		ite	ne
 313 00e8 0126     		movne	r6, #1
 314 00ea 0026     		moveq	r6, #0
 315 00ec BE42     		cmp	r6, r7
 316 00ee D8D1     		bne	.L18
 317              		.loc 1 147 0
 318 00f0 D4F80C62 		ldr	r6, [r4, #524]
 319 00f4 9AF811C0 		ldrb	ip, [r10, #17]	@ zero_extendqisi2
 320 00f8 0E42     		tst	r6, r1
 321              		.loc 1 146 0
 322 00fa 14BF     		ite	ne
 323 00fc 0126     		movne	r6, #1
 324 00fe 0026     		moveq	r6, #0
 325 0100 6645     		cmp	r6, ip
 326 0102 CED1     		bne	.L18
 327              		.loc 1 149 0
 328 0104 EEB1     		cbz	r6, .L19
 329              		.loc 1 151 0
 330 0106 002F     		cmp	r7, #0
 331 0108 47D0     		beq	.L20
 332 010a 04EBC306 		add	r6, r4, r3, lsl #3
 333              		.loc 1 154 0
 334 010e D6F840C2 		ldr	ip, [r6, #576]
 335 0112 BCF1000F 		cmp	ip, #0
 336 0116 00F0BD82 		beq	.L175
 337              		.loc 1 160 0
 338 011a D6F84462 		ldr	r6, [r6, #580]
 339 011e 002E     		cmp	r6, #0
 340 0120 BFD1     		bne	.L18
 341 0122 5046     		mov	r0, r10
 342 0124 BEF1000F 		cmp	lr, #0
ARM GAS  /tmp/ccAA0tEB.s 			page 7


 343 0128 40F0F883 		bne	.L176
 344              		.loc 1 162 0
 345 012c 4833     		adds	r3, r3, #72
 346 012e 04EBC302 		add	r2, r4, r3, lsl #3
 347 0132 DAF80830 		ldr	r3, [r10, #8]
 348 0136 5360     		str	r3, [r2, #4]
 349              	.LVL18:
 350 0138 0121     		movs	r1, #1
 351              	.LVL19:
 352              	.L113:
 353              	.LBB156:
 354              	.LBB157:
 355              		.loc 1 104 0
 356 013a 7B4B     		ldr	r3, .L211+12
 357 013c 43F82100 		str	r0, [r3, r1, lsl #2]
 358              	.LVL20:
 359 0140 25E1     		b	.L24
 360              	.LVL21:
 361              	.L19:
 362              	.LBE157:
 363              	.LBE156:
 364              		.loc 1 178 0
 365 0142 002F     		cmp	r7, #0
 366 0144 00F0FC80 		beq	.L29
 367 0148 04EBC30C 		add	ip, r4, r3, lsl #3
 368              		.loc 1 181 0
 369 014c DCF84062 		ldr	r6, [ip, #576]
 370 0150 B6B2     		uxth	r6, r6
 371 0152 002E     		cmp	r6, #0
 372 0154 00F0DF82 		beq	.L177
 373              		.loc 1 187 0
 374 0158 DCF84062 		ldr	r6, [ip, #576]
 375 015c 7348     		ldr	r0, .L211+16
 376 015e 0642     		tst	r6, r0
 377 0160 00F00983 		beq	.L178
 378              		.loc 1 193 0
 379 0164 DCF84462 		ldr	r6, [ip, #580]
 380 0168 B6B2     		uxth	r6, r6
 381 016a 002E     		cmp	r6, #0
 382 016c 00F01283 		beq	.L179
 383              		.loc 1 199 0
 384 0170 DCF84462 		ldr	r6, [ip, #580]
 385 0174 6D48     		ldr	r0, .L211+16
 386 0176 0642     		tst	r6, r0
 387 0178 93D1     		bne	.L18
 388 017a 5046     		mov	r0, r10
 389 017c BEF1000F 		cmp	lr, #0
 390 0180 40F00F84 		bne	.L180
 391              		.loc 1 201 0
 392 0184 DAF80830 		ldr	r3, [r10, #8]
 393 0188 DCF84422 		ldr	r2, [ip, #580]
 394 018c 1B0C     		lsrs	r3, r3, #16
 395 018e 1B04     		lsls	r3, r3, #16
 396 0190 1343     		orrs	r3, r3, r2
 397 0192 CCF84432 		str	r3, [ip, #580]
 398              	.LVL22:
 399 0196 0322     		movs	r2, #3
ARM GAS  /tmp/ccAA0tEB.s 			page 8


 400 0198 15E0     		b	.L120
 401              	.LVL23:
 402              	.L20:
 403              		.loc 1 167 0
 404 019a 03F14806 		add	r6, r3, #72
 405 019e 04EBC606 		add	r6, r4, r6, lsl #3
 406 01a2 7668     		ldr	r6, [r6, #4]
 407 01a4 002E     		cmp	r6, #0
 408 01a6 7FF47CAF 		bne	.L18
 409 01aa 5046     		mov	r0, r10
 410 01ac BEF1000F 		cmp	lr, #0
 411 01b0 40F00184 		bne	.L181
 412              		.loc 1 171 0
 413 01b4 DAE90221 		ldrd	r2, r1, [r10, #8]
 414 01b8 04EBC303 		add	r3, r4, r3, lsl #3
 415              		.loc 1 170 0
 416 01bc C3F84022 		str	r2, [r3, #576]
 417              		.loc 1 171 0
 418 01c0 7246     		mov	r2, lr
 419 01c2 C3F84412 		str	r1, [r3, #580]
 420              	.LVL24:
 421              	.L120:
 422              	.LBB160:
 423              	.LBB161:
 424              		.loc 1 104 0
 425 01c6 584B     		ldr	r3, .L211+12
 426 01c8 43F82200 		str	r0, [r3, r2, lsl #2]
 427              	.LVL25:
 428              	.LBE161:
 429              	.LBE160:
 430              	.LBE192:
 431              	.LBE206:
 432              		.loc 1 344 0
 433 01cc 039B     		ldr	r3, [sp, #12]
 434 01ce 9945     		cmp	r9, r3
 435 01d0 7FF452AF 		bne	.L53
 436              	.L16:
 437              	.LBE153:
 438              		.loc 1 352 0
 439 01d4 D4F81C32 		ldr	r3, [r4, #540]
 440 01d8 554E     		ldr	r6, .L211+20
 441 01da 0022     		movs	r2, #0
 442 01dc 13F00103 		ands	r3, r3, #1
 443 01e0 3260     		str	r2, [r6]
 444 01e2 0DD0     		beq	.L54
 445 01e4 0123     		movs	r3, #1
 446 01e6 1D46     		mov	r5, r3
 447 01e8 00E0     		b	.L55
 448              	.L133:
 449 01ea 0346     		mov	r3, r0
 450              	.L55:
 451              		.loc 1 352 0 is_stmt 0 discriminator 3
 452 01ec D4F81C12 		ldr	r1, [r4, #540]
 453 01f0 05FA03F2 		lsl	r2, r5, r3
 454 01f4 0A42     		tst	r2, r1
 455 01f6 03F10100 		add	r0, r3, #1
 456 01fa F6D1     		bne	.L133
ARM GAS  /tmp/ccAA0tEB.s 			page 9


 457 01fc 3360     		str	r3, [r6]
 458 01fe 1B02     		lsls	r3, r3, #8
 459              	.L54:
 460              		.loc 1 356 0 is_stmt 1
 461 0200 D4F80022 		ldr	r2, [r4, #512]
 462 0204 4949     		ldr	r1, .L211+16
 463 0206 0A40     		ands	r2, r2, r1
 464 0208 42F00102 		orr	r2, r2, #1
 465 020c 1343     		orrs	r3, r3, r2
 466 020e C4F80032 		str	r3, [r4, #512]
 467              	.LVL26:
 468              	.LBB220:
 469              		.loc 1 359 0
 470 0212 049B     		ldr	r3, [sp, #16]
 471 0214 002B     		cmp	r3, #0
 472 0216 00F03882 		beq	.L182
 473 021a 059B     		ldr	r3, [sp, #20]
 474 021c 414E     		ldr	r6, .L211+8
 475              	.LBB221:
 476              	.LBB222:
 477              		.loc 1 187 0
 478 021e 0291     		str	r1, [sp, #8]
 479 0220 A3F10409 		sub	r9, r3, #4
 480 0224 3E4B     		ldr	r3, .L211+4
 481 0226 0193     		str	r3, [sp, #4]
 482 0228 424B     		ldr	r3, .L211+24
 483 022a 0393     		str	r3, [sp, #12]
 484 022c 049B     		ldr	r3, [sp, #16]
 485 022e 09EB8303 		add	r3, r9, r3, lsl #2
 486 0232 0493     		str	r3, [sp, #16]
 487              	.LVL27:
 488              		.loc 1 133 0
 489 0234 0125     		movs	r5, #1
 490 0236 B246     		mov	r10, r6
 491              	.LVL28:
 492              	.L97:
 493              		.loc 1 133 0 is_stmt 0 discriminator 3
 494 0238 039B     		ldr	r3, [sp, #12]
 495              	.LBE222:
 496              	.LBE221:
 497              		.loc 1 361 0 is_stmt 1 discriminator 3
 498 023a 59F8041F 		ldr	r1, [r9, #4]!
 499              	.LVL29:
 500              	.LBB274:
 501              	.LBB259:
 502              		.loc 1 132 0 discriminator 3
 503 023e 0022     		movs	r2, #0
 504              		.loc 1 133 0 discriminator 3
 505 0240 4345     		cmp	r3, r8
 506              		.loc 1 132 0 discriminator 3
 507 0242 CAF80020 		str	r2, [r10]
 508              		.loc 1 133 0 discriminator 3
 509 0246 00F0AA81 		beq	.L57
 510              		.loc 1 139 0
 511 024a D4F80022 		ldr	r2, [r4, #512]
 512 024e 019B     		ldr	r3, [sp, #4]
 513 0250 C2F30522 		ubfx	r2, r2, #8, #6
ARM GAS  /tmp/ccAA0tEB.s 			page 10


 514              		.loc 1 143 0
 515 0254 1B2A     		cmp	r2, #27
 516 0256 1A60     		str	r2, [r3]
 517 0258 00F27281 		bhi	.L58
 518 025c 05FA02F3 		lsl	r3, r5, r2
 519              	.L110:
 520 0260 D4F81C02 		ldr	r0, [r4, #540]
 521 0264 91F810B0 		ldrb	fp, [r1, #16]	@ zero_extendqisi2
 522 0268 1842     		tst	r0, r3
 523 026a 00F03C81 		beq	.L59
 524 026e 4FF0000E 		mov	lr, #0
 525 0272 7046     		mov	r0, lr
 526 0274 5F46     		mov	r7, fp
 527 0276 1EE0     		b	.L91
 528              	.L60:
 529              		.loc 1 226 0
 530 0278 D4F80462 		ldr	r6, [r4, #516]
 531              		.loc 1 227 0
 532 027c D4F80CE2 		ldr	lr, [r4, #524]
 533              		.loc 1 226 0
 534 0280 1E40     		ands	r6, r6, r3
 535 0282 002E     		cmp	r6, #0
 536 0284 15BF     		itete	ne
 537 0286 0426     		movne	r6, #4
 538 0288 0226     		moveq	r6, #2
 539 028a 4FF0020C 		movne	ip, #2
 540 028e 4FF0010C 		moveq	ip, #1
 541              		.loc 1 144 0
 542 0292 0132     		adds	r2, r2, #1
 543              		.loc 1 227 0
 544 0294 13EA0E0F 		tst	r3, lr
 545 0298 18BF     		it	ne
 546 029a 6646     		movne	r6, ip
 547              		.loc 1 143 0
 548 029c 1C2A     		cmp	r2, #28
 549              		.loc 1 226 0
 550 029e 3044     		add	r0, r0, r6
 551              		.loc 1 143 0
 552 02a0 00F04A81 		beq	.L90
 553 02a4 D4F81C62 		ldr	r6, [r4, #540]
 554 02a8 05FA02F3 		lsl	r3, r5, r2
 555 02ac 3342     		tst	r3, r6
 556 02ae 4FF0010E 		mov	lr, #1
 557 02b2 00F01381 		beq	.L183
 558              	.L91:
 559              		.loc 1 146 0
 560 02b6 D4F80462 		ldr	r6, [r4, #516]
 561 02ba 1E42     		tst	r6, r3
 562 02bc 14BF     		ite	ne
 563 02be 0126     		movne	r6, #1
 564 02c0 0026     		moveq	r6, #0
 565 02c2 BE42     		cmp	r6, r7
 566 02c4 D8D1     		bne	.L60
 567              		.loc 1 147 0
 568 02c6 D4F80C62 		ldr	r6, [r4, #524]
 569 02ca 91F811C0 		ldrb	ip, [r1, #17]	@ zero_extendqisi2
 570 02ce 1E42     		tst	r6, r3
ARM GAS  /tmp/ccAA0tEB.s 			page 11


 571              		.loc 1 146 0
 572 02d0 14BF     		ite	ne
 573 02d2 0126     		movne	r6, #1
 574 02d4 0026     		moveq	r6, #0
 575 02d6 6645     		cmp	r6, ip
 576 02d8 CED1     		bne	.L60
 577              		.loc 1 149 0
 578 02da 002E     		cmp	r6, #0
 579 02dc 5CD0     		beq	.L61
 580              		.loc 1 151 0
 581 02de 002F     		cmp	r7, #0
 582 02e0 00F08680 		beq	.L62
 583 02e4 04EBC206 		add	r6, r4, r2, lsl #3
 584              		.loc 1 154 0
 585 02e8 D6F840C2 		ldr	ip, [r6, #576]
 586 02ec BCF1000F 		cmp	ip, #0
 587 02f0 00F01F82 		beq	.L184
 588              		.loc 1 160 0
 589 02f4 D6F84462 		ldr	r6, [r6, #580]
 590 02f8 002E     		cmp	r6, #0
 591 02fa BDD1     		bne	.L60
 592 02fc BEF1000F 		cmp	lr, #0
 593 0300 40F0FA82 		bne	.L185
 594              		.loc 1 162 0
 595 0304 4832     		adds	r2, r2, #72
 596 0306 04EBC202 		add	r2, r4, r2, lsl #3
 597 030a 8B68     		ldr	r3, [r1, #8]
 598 030c 5360     		str	r3, [r2, #4]
 599              	.LVL30:
 600 030e 4FF0010C 		mov	ip, #1
 601              	.LVL31:
 602              	.L122:
 603              	.LBB223:
 604              	.LBB224:
 605              		.loc 1 104 0
 606 0312 094B     		ldr	r3, .L211+28
 607 0314 43F82C10 		str	r1, [r3, ip, lsl #2]
 608              	.LVL32:
 609 0318 09E1     		b	.L66
 610              	.L212:
 611 031a 00BF     		.align	2
 612              	.L211:
 613 031c 00380240 		.word	1073887232
 614 0320 00000000 		.word	.LANCHOR3
 615 0324 00000000 		.word	.LANCHOR2
 616 0328 00000000 		.word	.LANCHOR1
 617 032c 0000FFFF 		.word	-65536
 618 0330 00000000 		.word	.LANCHOR4
 619 0334 00000000 		.word	CAND2
 620 0338 00000000 		.word	.LANCHOR0
 621 033c 00000000 		.word	CAND1
 622              	.LVL33:
 623              	.L29:
 624 0340 04EBC306 		add	r6, r4, r3, lsl #3
 625              	.LBE224:
 626              	.LBE223:
 627              	.LBE259:
ARM GAS  /tmp/ccAA0tEB.s 			page 12


 628              	.LBE274:
 629              	.LBE220:
 630              	.LBB289:
 631              	.LBB207:
 632              	.LBB193:
 633              		.loc 1 209 0
 634 0344 D6F840C2 		ldr	ip, [r6, #576]
 635 0348 BCF1000F 		cmp	ip, #0
 636 034c 00F0C681 		beq	.L186
 637              		.loc 1 215 0
 638 0350 D6F84462 		ldr	r6, [r6, #580]
 639 0354 002E     		cmp	r6, #0
 640 0356 7FF4A4AE 		bne	.L18
 641 035a 5046     		mov	r0, r10
 642 035c BEF1000F 		cmp	lr, #0
 643 0360 40F00183 		bne	.L187
 644              		.loc 1 217 0
 645 0364 DAF80C20 		ldr	r2, [r10, #12]
 646 0368 BAF80810 		ldrh	r1, [r10, #8]
 647 036c 4833     		adds	r3, r3, #72
 648 036e 04EBC303 		add	r3, r4, r3, lsl #3
 649 0372 41EA0242 		orr	r2, r1, r2, lsl #16
 650 0376 5A60     		str	r2, [r3, #4]
 651              	.LVL34:
 652 0378 0122     		movs	r2, #1
 653 037a 24E7     		b	.L120
 654              	.LVL35:
 655              	.L48:
 656 037c 0299     		ldr	r1, [sp, #8]
 657              		.loc 1 271 0
 658 037e CB48     		ldr	r0, .L213
 659 0380 0A60     		str	r2, [r1]
 660 0382 019A     		ldr	r2, [sp, #4]
 661 0384 1360     		str	r3, [r2]
 662 0386 FFF7FEFF 		bl	chSysHalt
 663              	.LVL36:
 664 038a D8F82840 		ldr	r4, [r8, #40]
 665              	.L24:
 666              	.LVL37:
 667              	.LBE193:
 668              	.LBE207:
 669              		.loc 1 344 0 discriminator 3
 670 038e 039B     		ldr	r3, [sp, #12]
 671 0390 9945     		cmp	r9, r3
 672 0392 7FF471AE 		bne	.L53
 673 0396 1DE7     		b	.L16
 674              	.LVL38:
 675              	.L61:
 676              	.LBE289:
 677              	.LBB290:
 678              	.LBB275:
 679              	.LBB260:
 680              		.loc 1 178 0
 681 0398 002F     		cmp	r7, #0
 682 039a 00F08480 		beq	.L71
 683 039e 04EBC20C 		add	ip, r4, r2, lsl #3
 684              		.loc 1 181 0
ARM GAS  /tmp/ccAA0tEB.s 			page 13


 685 03a2 DCF84062 		ldr	r6, [ip, #576]
 686 03a6 B6B2     		uxth	r6, r6
 687 03a8 002E     		cmp	r6, #0
 688 03aa 00F0CC81 		beq	.L188
 689              		.loc 1 187 0
 690 03ae DCF840B2 		ldr	fp, [ip, #576]
 691 03b2 029E     		ldr	r6, [sp, #8]
 692 03b4 1BEA060F 		tst	fp, r6
 693 03b8 00F0D181 		beq	.L189
 694              		.loc 1 193 0
 695 03bc DCF84462 		ldr	r6, [ip, #580]
 696 03c0 B6B2     		uxth	r6, r6
 697 03c2 002E     		cmp	r6, #0
 698 03c4 00F0F381 		beq	.L190
 699              		.loc 1 199 0
 700 03c8 DCF844B2 		ldr	fp, [ip, #580]
 701 03cc 029E     		ldr	r6, [sp, #8]
 702 03ce 1BEA060F 		tst	fp, r6
 703 03d2 7FF451AF 		bne	.L60
 704 03d6 BEF1000F 		cmp	lr, #0
 705 03da 40F0D982 		bne	.L191
 706              		.loc 1 201 0
 707 03de 8B68     		ldr	r3, [r1, #8]
 708 03e0 DCF84422 		ldr	r2, [ip, #580]
 709 03e4 3340     		ands	r3, r3, r6
 710 03e6 1343     		orrs	r3, r3, r2
 711 03e8 CCF84432 		str	r3, [ip, #580]
 712              	.LVL39:
 713 03ec 0320     		movs	r0, #3
 714 03ee 14E0     		b	.L129
 715              	.LVL40:
 716              	.L62:
 717              		.loc 1 167 0
 718 03f0 02F14806 		add	r6, r2, #72
 719 03f4 04EBC606 		add	r6, r4, r6, lsl #3
 720 03f8 7668     		ldr	r6, [r6, #4]
 721 03fa 002E     		cmp	r6, #0
 722 03fc 7FF43CAF 		bne	.L60
 723 0400 BEF1000F 		cmp	lr, #0
 724 0404 40F0DE81 		bne	.L192
 725              		.loc 1 171 0
 726 0408 D1E90203 		ldrd	r0, r3, [r1, #8]
 727 040c 04EBC202 		add	r2, r4, r2, lsl #3
 728              		.loc 1 170 0
 729 0410 C2F84002 		str	r0, [r2, #576]
 730              		.loc 1 171 0
 731 0414 7046     		mov	r0, lr
 732 0416 C2F84432 		str	r3, [r2, #580]
 733              	.LVL41:
 734              	.L129:
 735              	.LBB227:
 736              	.LBB228:
 737              		.loc 1 104 0
 738 041a A54B     		ldr	r3, .L213+4
 739 041c 43F82010 		str	r1, [r3, r0, lsl #2]
 740              	.LVL42:
 741              	.LBE228:
ARM GAS  /tmp/ccAA0tEB.s 			page 14


 742              	.LBE227:
 743              	.LBE260:
 744              	.LBE275:
 745              		.loc 1 359 0
 746 0420 049B     		ldr	r3, [sp, #16]
 747 0422 4B45     		cmp	r3, r9
 748 0424 7FF408AF 		bne	.L97
 749              	.L56:
 750              	.LBE290:
 751              	.LBB291:
 752              		.loc 1 383 0
 753 0428 A24E     		ldr	r6, .L213+8
 754              		.loc 1 369 0
 755 042a 0023     		movs	r3, #0
 756              		.loc 1 371 0
 757 042c 0120     		movs	r0, #1
 758              	.L102:
 759              	.LVL43:
 760 042e D4F81C12 		ldr	r1, [r4, #540]
 761 0432 00FA03F2 		lsl	r2, r0, r3
 762 0436 1142     		tst	r1, r2
 763 0438 1BD0     		beq	.L99
 764              		.loc 1 372 0
 765 043a D4F80412 		ldr	r1, [r4, #516]
 766 043e 0A42     		tst	r2, r1
 767 0440 17D1     		bne	.L99
 768              		.loc 1 374 0
 769 0442 D4F80C52 		ldr	r5, [r4, #524]
 770 0446 2A42     		tst	r2, r5
 771 0448 04EBC301 		add	r1, r4, r3, lsl #3
 772 044c 11D1     		bne	.L99
 773              		.loc 1 376 0
 774 044e D1F84022 		ldr	r2, [r1, #576]
 775 0452 92B2     		uxth	r2, r2
 776 0454 22B9     		cbnz	r2, .L101
 777              		.loc 1 378 0
 778 0456 D1F84022 		ldr	r2, [r1, #576]
 779 045a 3243     		orrs	r2, r2, r6
 780 045c C1F84022 		str	r2, [r1, #576]
 781              	.L101:
 782              		.loc 1 381 0
 783 0460 D1F84422 		ldr	r2, [r1, #580]
 784 0464 92B2     		uxth	r2, r2
 785 0466 22B9     		cbnz	r2, .L99
 786              		.loc 1 383 0
 787 0468 D1F84422 		ldr	r2, [r1, #580]
 788 046c 3243     		orrs	r2, r2, r6
 789 046e C1F84422 		str	r2, [r1, #580]
 790              	.L99:
 791              		.loc 1 369 0 discriminator 2
 792 0472 0133     		adds	r3, r3, #1
 793              	.LVL44:
 794 0474 1C2B     		cmp	r3, #28
 795 0476 DAD1     		bne	.L102
 796              	.LBE291:
 797              		.loc 1 389 0
 798 0478 D4F80032 		ldr	r3, [r4, #512]
ARM GAS  /tmp/ccAA0tEB.s 			page 15


 799              	.LVL45:
 800              		.loc 1 391 0
 801 047c 8E4A     		ldr	r2, .L213+12
 802 047e C8F81820 		str	r2, [r8, #24]
 803              		.loc 1 389 0
 804 0482 23F00103 		bic	r3, r3, #1
 805              		.loc 1 393 0
 806 0486 039A     		ldr	r2, [sp, #12]
 807              		.loc 1 389 0
 808 0488 C4F80032 		str	r3, [r4, #512]
 809              		.loc 1 396 0
 810 048c 8B49     		ldr	r1, .L213+16
 811              		.loc 1 393 0
 812 048e 8C4B     		ldr	r3, .L213+20
 813              		.loc 1 396 0
 814 0490 8C48     		ldr	r0, .L213+24
 815              		.loc 1 393 0
 816 0492 9361     		str	r3, [r2, #24]
 817              		.loc 1 396 0
 818 0494 FFF7FEFF 		bl	canStart
 819              	.LVL46:
 820              		.loc 1 398 0
 821 0498 8B49     		ldr	r1, .L213+28
 822 049a 8C48     		ldr	r0, .L213+32
 823              		.loc 1 400 0
 824 049c 07B0     		add	sp, sp, #28
 825              		.cfi_remember_state
 826              		.cfi_def_cfa_offset 36
 827              		@ sp needed
 828 049e BDE8F04F 		pop	{r4, r5, r6, r7, r8, r9, r10, fp, lr}
 829              		.cfi_restore 14
 830              		.cfi_restore 11
 831              		.cfi_restore 10
 832              		.cfi_restore 9
 833              		.cfi_restore 8
 834              		.cfi_restore 7
 835              		.cfi_restore 6
 836              		.cfi_restore 5
 837              		.cfi_restore 4
 838              		.cfi_def_cfa_offset 0
 839              	.LVL47:
 840              		.loc 1 398 0
 841 04a2 FFF7FEBF 		b	canStart
 842              	.LVL48:
 843              	.L71:
 844              		.cfi_restore_state
 845 04a6 04EBC206 		add	r6, r4, r2, lsl #3
 846              	.LBB292:
 847              	.LBB276:
 848              	.LBB261:
 849              		.loc 1 209 0
 850 04aa D6F840C2 		ldr	ip, [r6, #576]
 851 04ae BCF1000F 		cmp	ip, #0
 852 04b2 00F02381 		beq	.L193
 853              		.loc 1 215 0
 854 04b6 D6F84462 		ldr	r6, [r6, #580]
 855 04ba 002E     		cmp	r6, #0
ARM GAS  /tmp/ccAA0tEB.s 			page 16


 856 04bc 7FF4DCAE 		bne	.L60
 857 04c0 BEF1000F 		cmp	lr, #0
 858 04c4 40F03B82 		bne	.L194
 859              		.loc 1 217 0
 860 04c8 0889     		ldrh	r0, [r1, #8]
 861 04ca CB68     		ldr	r3, [r1, #12]
 862 04cc 4832     		adds	r2, r2, #72
 863 04ce 04EBC202 		add	r2, r4, r2, lsl #3
 864 04d2 40EA0343 		orr	r3, r0, r3, lsl #16
 865 04d6 5360     		str	r3, [r2, #4]
 866              	.LVL49:
 867 04d8 0120     		movs	r0, #1
 868 04da 9EE7     		b	.L129
 869              	.LVL50:
 870              	.L183:
 871 04dc CAF80000 		str	r0, [r10]
 872 04e0 0198     		ldr	r0, [sp, #4]
 873 04e2 BB46     		mov	fp, r7
 874 04e4 0260     		str	r2, [r0]
 875              	.L59:
 876              		.loc 1 234 0
 877 04e6 487C     		ldrb	r0, [r1, #17]	@ zero_extendqisi2
 878 04e8 D1F808C0 		ldr	ip, [r1, #8]
 879 04ec 0028     		cmp	r0, #0
 880 04ee 76D0     		beq	.L195
 881              		.loc 1 235 0
 882 04f0 D4F80C02 		ldr	r0, [r4, #524]
 883 04f4 1843     		orrs	r0, r0, r3
 884 04f6 C4F80C02 		str	r0, [r4, #524]
 885              		.loc 1 236 0
 886 04fa BBF1000F 		cmp	fp, #0
 887 04fe 00F0A780 		beq	.L196
 888              		.loc 1 237 0
 889 0502 D4F80402 		ldr	r0, [r4, #516]
 890 0506 1843     		orrs	r0, r0, r3
 891 0508 C4F80402 		str	r0, [r4, #516]
 892              		.loc 1 239 0
 893 050c D4F81C02 		ldr	r0, [r4, #540]
 894              		.loc 1 245 0
 895 0510 4832     		adds	r2, r2, #72
 896              		.loc 1 239 0
 897 0512 0343     		orrs	r3, r3, r0
 898 0514 C4F81C32 		str	r3, [r4, #540]
 899              		.loc 1 245 0
 900 0518 44F832C0 		str	ip, [r4, r2, lsl #3]
 901              	.L111:
 902              		.loc 1 268 0
 903 051c DAF80030 		ldr	r3, [r10]
 904              	.LVL51:
 905              	.LBB231:
 906              	.LBB232:
 907              		.loc 1 103 0
 908 0520 132B     		cmp	r3, #19
 909 0522 72D8     		bhi	.L96
 910              	.LVL52:
 911              	.L200:
 912              		.loc 1 104 0
ARM GAS  /tmp/ccAA0tEB.s 			page 17


 913 0524 624A     		ldr	r2, .L213+4
 914 0526 D8F82840 		ldr	r4, [r8, #40]
 915 052a 42F82310 		str	r1, [r2, r3, lsl #2]
 916              	.LVL53:
 917              	.L66:
 918              	.LBE232:
 919              	.LBE231:
 920              	.LBE261:
 921              	.LBE276:
 922              		.loc 1 359 0 discriminator 3
 923 052e 049B     		ldr	r3, [sp, #16]
 924 0530 4B45     		cmp	r3, r9
 925 0532 7FF481AE 		bne	.L97
 926 0536 77E7     		b	.L56
 927              	.LVL54:
 928              	.L90:
 929 0538 019B     		ldr	r3, [sp, #4]
 930 053a CAF80000 		str	r0, [r10]
 931 053e 1A60     		str	r2, [r3]
 932              	.L58:
 933              	.LBB277:
 934              	.LBB262:
 935              		.loc 1 271 0
 936 0540 5A48     		ldr	r0, .L213
 937 0542 FFF7FEFF 		bl	chSysHalt
 938              	.LVL55:
 939 0546 D8F82840 		ldr	r4, [r8, #40]
 940 054a F0E7     		b	.L66
 941              	.LVL56:
 942              	.L174:
 943 054c 029E     		ldr	r6, [sp, #8]
 944 054e 3260     		str	r2, [r6]
 945 0550 019A     		ldr	r2, [sp, #4]
 946 0552 5046     		mov	r0, r10
 947 0554 BB46     		mov	fp, r7
 948 0556 1360     		str	r3, [r2]
 949              	.L17:
 950              	.LBE262:
 951              	.LBE277:
 952              	.LBE292:
 953              	.LBB293:
 954              	.LBB208:
 955              	.LBB194:
 956              		.loc 1 234 0
 957 0558 427C     		ldrb	r2, [r0, #17]	@ zero_extendqisi2
 958 055a D0F808C0 		ldr	ip, [r0, #8]
 959 055e 12B3     		cbz	r2, .L197
 960              		.loc 1 235 0
 961 0560 D4F80C22 		ldr	r2, [r4, #524]
 962 0564 0A43     		orrs	r2, r2, r1
 963 0566 C4F80C22 		str	r2, [r4, #524]
 964              		.loc 1 236 0
 965 056a BBF1000F 		cmp	fp, #0
 966 056e 52D0     		beq	.L51
 967              		.loc 1 237 0
 968 0570 D4F80422 		ldr	r2, [r4, #516]
 969 0574 0A43     		orrs	r2, r2, r1
ARM GAS  /tmp/ccAA0tEB.s 			page 18


 970 0576 C4F80422 		str	r2, [r4, #516]
 971              		.loc 1 239 0
 972 057a D4F81C22 		ldr	r2, [r4, #540]
 973              		.loc 1 245 0
 974 057e 4833     		adds	r3, r3, #72
 975              		.loc 1 239 0
 976 0580 1143     		orrs	r1, r1, r2
 977 0582 C4F81C12 		str	r1, [r4, #540]
 978              		.loc 1 245 0
 979 0586 44F833C0 		str	ip, [r4, r3, lsl #3]
 980              	.L107:
 981              		.loc 1 268 0
 982 058a 029B     		ldr	r3, [sp, #8]
 983 058c 1B68     		ldr	r3, [r3]
 984              	.LVL57:
 985              	.LBB164:
 986              	.LBB165:
 987              		.loc 1 103 0
 988 058e 132B     		cmp	r3, #19
 989 0590 1FD8     		bhi	.L52
 990              	.L199:
 991              		.loc 1 104 0
 992 0592 4F4A     		ldr	r2, .L213+36
 993 0594 D8F82840 		ldr	r4, [r8, #40]
 994 0598 42F82300 		str	r0, [r2, r3, lsl #2]
 995              	.LVL58:
 996 059c F7E6     		b	.L24
 997              	.LVL59:
 998              	.L57:
 999 059e 019B     		ldr	r3, [sp, #4]
 1000 05a0 1A60     		str	r2, [r3]
 1001              	.LBE165:
 1002              	.LBE164:
 1003              	.LBE194:
 1004              	.LBE208:
 1005              	.LBE293:
 1006              	.LBB294:
 1007              	.LBB278:
 1008              	.LBB263:
 1009              		.loc 1 133 0
 1010 05a2 0123     		movs	r3, #1
 1011 05a4 5CE6     		b	.L110
 1012              	.LVL60:
 1013              	.L197:
 1014              	.LBE263:
 1015              	.LBE278:
 1016              	.LBE294:
 1017              	.LBB295:
 1018              	.LBB209:
 1019              	.LBB195:
 1020              		.loc 1 236 0
 1021 05a6 BBF1000F 		cmp	fp, #0
 1022 05aa 5FD0     		beq	.L198
 1023              		.loc 1 237 0
 1024 05ac D4F80422 		ldr	r2, [r4, #516]
 1025 05b0 0A43     		orrs	r2, r2, r1
 1026 05b2 C4F80422 		str	r2, [r4, #516]
ARM GAS  /tmp/ccAA0tEB.s 			page 19


 1027              		.loc 1 239 0
 1028 05b6 D4F81C22 		ldr	r2, [r4, #540]
 1029              		.loc 1 259 0
 1030 05ba 4833     		adds	r3, r3, #72
 1031 05bc 1FFA8CFC 		uxth	ip, ip
 1032              		.loc 1 239 0
 1033 05c0 1143     		orrs	r1, r1, r2
 1034 05c2 C4F81C12 		str	r1, [r4, #540]
 1035              		.loc 1 259 0
 1036 05c6 44F833C0 		str	ip, [r4, r3, lsl #3]
 1037              		.loc 1 268 0
 1038 05ca 029B     		ldr	r3, [sp, #8]
 1039 05cc 1B68     		ldr	r3, [r3]
 1040              	.LVL61:
 1041              	.LBB169:
 1042              	.LBB168:
 1043              		.loc 1 103 0
 1044 05ce 132B     		cmp	r3, #19
 1045 05d0 DFD9     		bls	.L199
 1046              	.LVL62:
 1047              	.L52:
 1048              	.LBB166:
 1049              	.LBB167:
 1050              		.loc 1 107 0
 1051 05d2 4048     		ldr	r0, .L213+40
 1052 05d4 FFF7FEFF 		bl	chSysHalt
 1053              	.LVL63:
 1054 05d8 D8F82840 		ldr	r4, [r8, #40]
 1055 05dc D7E6     		b	.L24
 1056              	.LVL64:
 1057              	.L195:
 1058              	.LBE167:
 1059              	.LBE166:
 1060              	.LBE168:
 1061              	.LBE169:
 1062              	.LBE195:
 1063              	.LBE209:
 1064              	.LBE295:
 1065              	.LBB296:
 1066              	.LBB279:
 1067              	.LBB264:
 1068              		.loc 1 236 0
 1069 05de BBF1000F 		cmp	fp, #0
 1070 05e2 26D0     		beq	.L95
 1071              		.loc 1 237 0
 1072 05e4 D4F80402 		ldr	r0, [r4, #516]
 1073 05e8 1843     		orrs	r0, r0, r3
 1074 05ea C4F80402 		str	r0, [r4, #516]
 1075              		.loc 1 239 0
 1076 05ee D4F81C02 		ldr	r0, [r4, #540]
 1077 05f2 0343     		orrs	r3, r3, r0
 1078 05f4 C4F81C32 		str	r3, [r4, #540]
 1079              		.loc 1 268 0
 1080 05f8 DAF80030 		ldr	r3, [r10]
 1081              		.loc 1 259 0
 1082 05fc 4832     		adds	r2, r2, #72
 1083 05fe 1FFA8CFC 		uxth	ip, ip
ARM GAS  /tmp/ccAA0tEB.s 			page 20


 1084              	.LBB237:
 1085              	.LBB235:
 1086              		.loc 1 103 0
 1087 0602 132B     		cmp	r3, #19
 1088              	.LBE235:
 1089              	.LBE237:
 1090              		.loc 1 259 0
 1091 0604 44F832C0 		str	ip, [r4, r2, lsl #3]
 1092              	.LVL65:
 1093              	.LBB238:
 1094              	.LBB236:
 1095              		.loc 1 103 0
 1096 0608 8CD9     		bls	.L200
 1097              	.LVL66:
 1098              	.L96:
 1099              	.LBB233:
 1100              	.LBB234:
 1101              		.loc 1 111 0
 1102 060a 3348     		ldr	r0, .L213+44
 1103 060c FFF7FEFF 		bl	chSysHalt
 1104              	.LVL67:
 1105 0610 D8F82840 		ldr	r4, [r8, #40]
 1106 0614 8BE7     		b	.L66
 1107              	.LVL68:
 1108              	.L51:
 1109              	.LBE234:
 1110              	.LBE233:
 1111              	.LBE236:
 1112              	.LBE238:
 1113              	.LBE264:
 1114              	.LBE279:
 1115              	.LBE296:
 1116              	.LBB297:
 1117              	.LBB210:
 1118              	.LBB196:
 1119              		.loc 1 239 0
 1120 0616 D4F81C22 		ldr	r2, [r4, #540]
 1121 061a D0F80CE0 		ldr	lr, [r0, #12]
 1122 061e 04EBC303 		add	r3, r4, r3, lsl #3
 1123 0622 1143     		orrs	r1, r1, r2
 1124 0624 C4F81C12 		str	r1, [r4, #540]
 1125              		.loc 1 250 0
 1126 0628 C3F840C2 		str	ip, [r3, #576]
 1127              		.loc 1 251 0
 1128 062c C3F844E2 		str	lr, [r3, #580]
 1129 0630 ABE7     		b	.L107
 1130              	.LVL69:
 1131              	.L95:
 1132              	.LBE196:
 1133              	.LBE210:
 1134              	.LBE297:
 1135              	.LBB298:
 1136              	.LBB280:
 1137              	.LBB265:
 1138              		.loc 1 264 0
 1139 0632 C868     		ldr	r0, [r1, #12]
 1140              		.loc 1 239 0
ARM GAS  /tmp/ccAA0tEB.s 			page 21


 1141 0634 D4F81CE2 		ldr	lr, [r4, #540]
 1142              		.loc 1 264 0
 1143 0638 1FFA8CFC 		uxth	ip, ip
 1144 063c 4832     		adds	r2, r2, #72
 1145 063e 4CEA0040 		orr	r0, ip, r0, lsl #16
 1146              		.loc 1 239 0
 1147 0642 43EA0E03 		orr	r3, r3, lr
 1148 0646 C4F81C32 		str	r3, [r4, #540]
 1149              		.loc 1 264 0
 1150 064a 44F83200 		str	r0, [r4, r2, lsl #3]
 1151 064e 65E7     		b	.L111
 1152              	.L196:
 1153              		.loc 1 239 0
 1154 0650 D4F81CE2 		ldr	lr, [r4, #540]
 1155 0654 C868     		ldr	r0, [r1, #12]
 1156 0656 04EBC202 		add	r2, r4, r2, lsl #3
 1157 065a 43EA0E03 		orr	r3, r3, lr
 1158 065e C4F81C32 		str	r3, [r4, #540]
 1159              		.loc 1 250 0
 1160 0662 C2F840C2 		str	ip, [r2, #576]
 1161              		.loc 1 251 0
 1162 0666 C2F84402 		str	r0, [r2, #580]
 1163 066a 57E7     		b	.L111
 1164              	.LVL70:
 1165              	.L198:
 1166              	.LBE265:
 1167              	.LBE280:
 1168              	.LBE298:
 1169              	.LBB299:
 1170              	.LBB211:
 1171              	.LBB197:
 1172              		.loc 1 264 0
 1173 066c C268     		ldr	r2, [r0, #12]
 1174              		.loc 1 239 0
 1175 066e D4F81CE2 		ldr	lr, [r4, #540]
 1176              		.loc 1 264 0
 1177 0672 1FFA8CFC 		uxth	ip, ip
 1178 0676 4833     		adds	r3, r3, #72
 1179 0678 4CEA0242 		orr	r2, ip, r2, lsl #16
 1180              		.loc 1 239 0
 1181 067c 41EA0E01 		orr	r1, r1, lr
 1182 0680 C4F81C12 		str	r1, [r4, #540]
 1183              		.loc 1 264 0
 1184 0684 44F83320 		str	r2, [r4, r3, lsl #3]
 1185 0688 7FE7     		b	.L107
 1186              	.LVL71:
 1187              	.L182:
 1188 068a 104B     		ldr	r3, .L213+32
 1189 068c 0393     		str	r3, [sp, #12]
 1190 068e CBE6     		b	.L56
 1191              	.LVL72:
 1192              	.L130:
 1193              		.loc 1 143 0
 1194 0690 0121     		movs	r1, #1
 1195 0692 61E7     		b	.L17
 1196              	.L175:
 1197 0694 5046     		mov	r0, r10
ARM GAS  /tmp/ccAA0tEB.s 			page 22


 1198 0696 BEF1000F 		cmp	lr, #0
 1199 069a 40F01F81 		bne	.L201
 1200              		.loc 1 156 0
 1201 069e 4833     		adds	r3, r3, #72
 1202 06a0 DAF80820 		ldr	r2, [r10, #8]
 1203 06a4 44F83320 		str	r2, [r4, r3, lsl #3]
 1204              	.LVL73:
 1205 06a8 7246     		mov	r2, lr
 1206 06aa 8CE5     		b	.L120
 1207              	.L214:
 1208              		.align	2
 1209              	.L213:
 1210 06ac 48000000 		.word	.LC2
 1211 06b0 00000000 		.word	.LANCHOR0
 1212 06b4 0000FFFF 		.word	-65536
 1213 06b8 00000000 		.word	CAN1_receiveCB
 1214 06bc 00000000 		.word	.LANCHOR5
 1215 06c0 00000000 		.word	CAN2_receiveCB
 1216 06c4 00000000 		.word	CAND1
 1217 06c8 00000000 		.word	.LANCHOR6
 1218 06cc 00000000 		.word	CAND2
 1219 06d0 00000000 		.word	.LANCHOR1
 1220 06d4 00000000 		.word	.LC0
 1221 06d8 24000000 		.word	.LC1
 1222              	.LVL74:
 1223              	.L186:
 1224 06dc 5046     		mov	r0, r10
 1225 06de BEF1000F 		cmp	lr, #0
 1226 06e2 40F0E980 		bne	.L202
 1227              		.loc 1 211 0
 1228 06e6 DAF80C20 		ldr	r2, [r10, #12]
 1229 06ea BAF80810 		ldrh	r1, [r10, #8]
 1230 06ee 4833     		adds	r3, r3, #72
 1231 06f0 41EA0241 		orr	r1, r1, r2, lsl #16
 1232 06f4 44F83310 		str	r1, [r4, r3, lsl #3]
 1233              	.LVL75:
 1234 06f8 7246     		mov	r2, lr
 1235 06fa 64E5     		b	.L120
 1236              	.LVL76:
 1237              	.L193:
 1238 06fc BEF1000F 		cmp	lr, #0
 1239 0700 40F0D080 		bne	.L203
 1240              	.LBE197:
 1241              	.LBE211:
 1242              	.LBE299:
 1243              	.LBB300:
 1244              	.LBB281:
 1245              	.LBB266:
 1246 0704 0889     		ldrh	r0, [r1, #8]
 1247 0706 CB68     		ldr	r3, [r1, #12]
 1248 0708 4832     		adds	r2, r2, #72
 1249 070a 40EA0343 		orr	r3, r0, r3, lsl #16
 1250 070e 44F83230 		str	r3, [r4, r2, lsl #3]
 1251              	.LVL77:
 1252 0712 7046     		mov	r0, lr
 1253 0714 81E6     		b	.L129
 1254              	.LVL78:
ARM GAS  /tmp/ccAA0tEB.s 			page 23


 1255              	.L177:
 1256 0716 5046     		mov	r0, r10
 1257 0718 BEF1000F 		cmp	lr, #0
 1258 071c 40F0BB80 		bne	.L204
 1259              	.LBE266:
 1260              	.LBE281:
 1261              	.LBE300:
 1262              	.LBB301:
 1263              	.LBB212:
 1264              	.LBB198:
 1265              		.loc 1 183 0
 1266 0720 DCF84022 		ldr	r2, [ip, #576]
 1267 0724 BAF80830 		ldrh	r3, [r10, #8]
 1268 0728 1343     		orrs	r3, r3, r2
 1269 072a CCF84032 		str	r3, [ip, #576]
 1270              	.LVL79:
 1271 072e 7246     		mov	r2, lr
 1272 0730 49E5     		b	.L120
 1273              	.LVL80:
 1274              	.L184:
 1275 0732 BEF1000F 		cmp	lr, #0
 1276 0736 40F0A180 		bne	.L205
 1277              	.LBE198:
 1278              	.LBE212:
 1279              	.LBE301:
 1280              	.LBB302:
 1281              	.LBB282:
 1282              	.LBB267:
 1283              		.loc 1 156 0
 1284 073a 4832     		adds	r2, r2, #72
 1285 073c 8B68     		ldr	r3, [r1, #8]
 1286 073e 44F83230 		str	r3, [r4, r2, lsl #3]
 1287              	.LVL81:
 1288 0742 7046     		mov	r0, lr
 1289 0744 69E6     		b	.L129
 1290              	.LVL82:
 1291              	.L188:
 1292 0746 BEF1000F 		cmp	lr, #0
 1293 074a 40F09180 		bne	.L206
 1294              		.loc 1 183 0
 1295 074e DCF84022 		ldr	r2, [ip, #576]
 1296 0752 0B89     		ldrh	r3, [r1, #8]
 1297 0754 1343     		orrs	r3, r3, r2
 1298 0756 7046     		mov	r0, lr
 1299 0758 CCF84032 		str	r3, [ip, #576]
 1300              	.LVL83:
 1301 075c 5DE6     		b	.L129
 1302              	.LVL84:
 1303              	.L189:
 1304 075e BEF1000F 		cmp	lr, #0
 1305 0762 73D1     		bne	.L207
 1306              		.loc 1 189 0
 1307 0764 8B68     		ldr	r3, [r1, #8]
 1308 0766 DCF84022 		ldr	r2, [ip, #576]
 1309 076a 3340     		ands	r3, r3, r6
 1310 076c 1343     		orrs	r3, r3, r2
 1311 076e CCF84032 		str	r3, [ip, #576]
ARM GAS  /tmp/ccAA0tEB.s 			page 24


 1312              	.LVL85:
 1313 0772 0120     		movs	r0, #1
 1314 0774 51E6     		b	.L129
 1315              	.LVL86:
 1316              	.L178:
 1317 0776 5046     		mov	r0, r10
 1318 0778 BEF1000F 		cmp	lr, #0
 1319 077c 53D1     		bne	.L208
 1320              	.LBE267:
 1321              	.LBE282:
 1322              	.LBE302:
 1323              	.LBB303:
 1324              	.LBB213:
 1325              	.LBB199:
 1326 077e DAF80830 		ldr	r3, [r10, #8]
 1327 0782 DCF84022 		ldr	r2, [ip, #576]
 1328 0786 1B0C     		lsrs	r3, r3, #16
 1329 0788 1B04     		lsls	r3, r3, #16
 1330 078a 1343     		orrs	r3, r3, r2
 1331 078c CCF84032 		str	r3, [ip, #576]
 1332              	.LVL87:
 1333 0790 0122     		movs	r2, #1
 1334 0792 18E5     		b	.L120
 1335              	.LVL88:
 1336              	.L179:
 1337 0794 5046     		mov	r0, r10
 1338 0796 BEF1000F 		cmp	lr, #0
 1339 079a 33D1     		bne	.L209
 1340              		.loc 1 195 0
 1341 079c DCF84422 		ldr	r2, [ip, #580]
 1342 07a0 BAF80830 		ldrh	r3, [r10, #8]
 1343 07a4 1343     		orrs	r3, r3, r2
 1344 07a6 CCF84432 		str	r3, [ip, #580]
 1345              	.LVL89:
 1346 07aa 0222     		movs	r2, #2
 1347 07ac 0BE5     		b	.L120
 1348              	.LVL90:
 1349              	.L190:
 1350 07ae BEF1000F 		cmp	lr, #0
 1351 07b2 17D1     		bne	.L210
 1352              	.LBE199:
 1353              	.LBE213:
 1354              	.LBE303:
 1355              	.LBB304:
 1356              	.LBB283:
 1357              	.LBB268:
 1358 07b4 DCF84422 		ldr	r2, [ip, #580]
 1359 07b8 0B89     		ldrh	r3, [r1, #8]
 1360 07ba 1343     		orrs	r3, r3, r2
 1361 07bc CCF84432 		str	r3, [ip, #580]
 1362              	.LVL91:
 1363 07c0 0220     		movs	r0, #2
 1364 07c2 2AE6     		b	.L129
 1365              	.LVL92:
 1366              	.L192:
 1367 07c4 019E     		ldr	r6, [sp, #4]
 1368              		.loc 1 170 0
ARM GAS  /tmp/ccAA0tEB.s 			page 25


 1369 07c6 8B68     		ldr	r3, [r1, #8]
 1370 07c8 3260     		str	r2, [r6]
 1371 07ca 04EBC20C 		add	ip, r4, r2, lsl #3
 1372              	.LBB239:
 1373              	.LBB240:
 1374              		.loc 1 103 0
 1375 07ce 1328     		cmp	r0, #19
 1376              	.LBE240:
 1377              	.LBE239:
 1378              		.loc 1 171 0
 1379 07d0 CA68     		ldr	r2, [r1, #12]
 1380 07d2 CAF80000 		str	r0, [r10]
 1381              		.loc 1 170 0
 1382 07d6 CCF84032 		str	r3, [ip, #576]
 1383              		.loc 1 171 0
 1384 07da CCF84422 		str	r2, [ip, #580]
 1385              	.LVL93:
 1386              	.LBB242:
 1387              	.LBB241:
 1388              		.loc 1 103 0
 1389 07de 7FF61CAE 		bls	.L129
 1390 07e2 12E7     		b	.L96
 1391              	.LVL94:
 1392              	.L210:
 1393              	.LBE241:
 1394              	.LBE242:
 1395              		.loc 1 195 0
 1396 07e4 DCF844E2 		ldr	lr, [ip, #580]
 1397 07e8 0B89     		ldrh	r3, [r1, #8]
 1398 07ea CAF80000 		str	r0, [r10]
 1399 07ee 0230     		adds	r0, r0, #2
 1400              	.L173:
 1401 07f0 019E     		ldr	r6, [sp, #4]
 1402              		.loc 1 201 0
 1403 07f2 43EA0E03 		orr	r3, r3, lr
 1404              	.LBB243:
 1405              	.LBB244:
 1406              		.loc 1 103 0
 1407 07f6 1328     		cmp	r0, #19
 1408 07f8 3260     		str	r2, [r6]
 1409              	.LBE244:
 1410              	.LBE243:
 1411              		.loc 1 201 0
 1412 07fa CCF84432 		str	r3, [ip, #580]
 1413              	.LVL95:
 1414              	.LBB246:
 1415              	.LBB245:
 1416              		.loc 1 103 0
 1417 07fe 7FF60CAE 		bls	.L129
 1418 0802 02E7     		b	.L96
 1419              	.LVL96:
 1420              	.L209:
 1421 0804 029E     		ldr	r6, [sp, #8]
 1422              	.LBE245:
 1423              	.LBE246:
 1424              	.LBE268:
 1425              	.LBE283:
ARM GAS  /tmp/ccAA0tEB.s 			page 26


 1426              	.LBE304:
 1427              	.LBB305:
 1428              	.LBB214:
 1429              	.LBB200:
 1430              		.loc 1 195 0
 1431 0806 DCF844E2 		ldr	lr, [ip, #580]
 1432 080a BAF80810 		ldrh	r1, [r10, #8]
 1433 080e 3260     		str	r2, [r6]
 1434 0810 0232     		adds	r2, r2, #2
 1435              	.L167:
 1436 0812 019E     		ldr	r6, [sp, #4]
 1437              		.loc 1 201 0
 1438 0814 41EA0E01 		orr	r1, r1, lr
 1439              	.LBB170:
 1440              	.LBB171:
 1441              		.loc 1 103 0
 1442 0818 132A     		cmp	r2, #19
 1443 081a 3360     		str	r3, [r6]
 1444              	.LBE171:
 1445              	.LBE170:
 1446              		.loc 1 201 0
 1447 081c CCF84412 		str	r1, [ip, #580]
 1448              	.LVL97:
 1449              	.LBB173:
 1450              	.LBB172:
 1451              		.loc 1 103 0
 1452 0820 7FF6D1AC 		bls	.L120
 1453 0824 D5E6     		b	.L52
 1454              	.LVL98:
 1455              	.L208:
 1456              	.LBE172:
 1457              	.LBE173:
 1458              		.loc 1 189 0
 1459 0826 DAF80810 		ldr	r1, [r10, #8]
 1460 082a 029E     		ldr	r6, [sp, #8]
 1461 082c DCF840E2 		ldr	lr, [ip, #576]
 1462 0830 3260     		str	r2, [r6]
 1463 0832 090C     		lsrs	r1, r1, #16
 1464 0834 0904     		lsls	r1, r1, #16
 1465 0836 0132     		adds	r2, r2, #1
 1466              	.L165:
 1467 0838 019E     		ldr	r6, [sp, #4]
 1468 083a 41EA0E01 		orr	r1, r1, lr
 1469              	.LBB174:
 1470              	.LBB175:
 1471              		.loc 1 103 0
 1472 083e 132A     		cmp	r2, #19
 1473 0840 3360     		str	r3, [r6]
 1474              	.LBE175:
 1475              	.LBE174:
 1476              		.loc 1 189 0
 1477 0842 CCF84012 		str	r1, [ip, #576]
 1478              	.LVL99:
 1479              	.LBB177:
 1480              	.LBB176:
 1481              		.loc 1 103 0
 1482 0846 7FF6BEAC 		bls	.L120
ARM GAS  /tmp/ccAA0tEB.s 			page 27


 1483 084a C2E6     		b	.L52
 1484              	.LVL100:
 1485              	.L207:
 1486              	.LBE176:
 1487              	.LBE177:
 1488              	.LBE200:
 1489              	.LBE214:
 1490              	.LBE305:
 1491              	.LBB306:
 1492              	.LBB284:
 1493              	.LBB269:
 1494              		.loc 1 189 0
 1495 084c 8B68     		ldr	r3, [r1, #8]
 1496 084e 029E     		ldr	r6, [sp, #8]
 1497 0850 DCF840E2 		ldr	lr, [ip, #576]
 1498 0854 CAF80000 		str	r0, [r10]
 1499 0858 3340     		ands	r3, r3, r6
 1500 085a 0130     		adds	r0, r0, #1
 1501              	.L171:
 1502 085c 019E     		ldr	r6, [sp, #4]
 1503 085e 43EA0E03 		orr	r3, r3, lr
 1504              	.LBB247:
 1505              	.LBB248:
 1506              		.loc 1 103 0
 1507 0862 1328     		cmp	r0, #19
 1508 0864 3260     		str	r2, [r6]
 1509              	.LBE248:
 1510              	.LBE247:
 1511              		.loc 1 189 0
 1512 0866 CCF84032 		str	r3, [ip, #576]
 1513              	.LVL101:
 1514              	.LBB250:
 1515              	.LBB249:
 1516              		.loc 1 103 0
 1517 086a 7FF6D6AD 		bls	.L129
 1518 086e CCE6     		b	.L96
 1519              	.LVL102:
 1520              	.L206:
 1521              	.LBE249:
 1522              	.LBE250:
 1523              		.loc 1 183 0
 1524 0870 DCF840E2 		ldr	lr, [ip, #576]
 1525 0874 0B89     		ldrh	r3, [r1, #8]
 1526 0876 CAF80000 		str	r0, [r10]
 1527 087a EFE7     		b	.L171
 1528              	.L205:
 1529              		.loc 1 156 0
 1530 087c 8B68     		ldr	r3, [r1, #8]
 1531 087e CAF80000 		str	r0, [r10]
 1532 0882 02F1480C 		add	ip, r2, #72
 1533              	.L169:
 1534 0886 019E     		ldr	r6, [sp, #4]
 1535              	.LBB251:
 1536              	.LBB252:
 1537              		.loc 1 103 0
 1538 0888 1328     		cmp	r0, #19
 1539 088a 3260     		str	r2, [r6]
ARM GAS  /tmp/ccAA0tEB.s 			page 28


 1540              	.LBE252:
 1541              	.LBE251:
 1542              		.loc 1 211 0
 1543 088c 44F83C30 		str	r3, [r4, ip, lsl #3]
 1544              	.LVL103:
 1545              	.LBB254:
 1546              	.LBB253:
 1547              		.loc 1 103 0
 1548 0890 7FF6C3AD 		bls	.L129
 1549 0894 B9E6     		b	.L96
 1550              	.LVL104:
 1551              	.L204:
 1552 0896 029E     		ldr	r6, [sp, #8]
 1553              	.LBE253:
 1554              	.LBE254:
 1555              	.LBE269:
 1556              	.LBE284:
 1557              	.LBE306:
 1558              	.LBB307:
 1559              	.LBB215:
 1560              	.LBB201:
 1561              		.loc 1 183 0
 1562 0898 DCF840E2 		ldr	lr, [ip, #576]
 1563 089c BAF80810 		ldrh	r1, [r10, #8]
 1564 08a0 3260     		str	r2, [r6]
 1565 08a2 C9E7     		b	.L165
 1566              	.LVL105:
 1567              	.L203:
 1568              	.LBE201:
 1569              	.LBE215:
 1570              	.LBE307:
 1571              	.LBB308:
 1572              	.LBB285:
 1573              	.LBB270:
 1574              		.loc 1 211 0
 1575 08a4 CB68     		ldr	r3, [r1, #12]
 1576 08a6 B1F808E0 		ldrh	lr, [r1, #8]
 1577 08aa CAF80000 		str	r0, [r10]
 1578 08ae 02F1480C 		add	ip, r2, #72
 1579 08b2 4EEA0343 		orr	r3, lr, r3, lsl #16
 1580 08b6 E6E7     		b	.L169
 1581              	.LVL106:
 1582              	.L202:
 1583 08b8 029E     		ldr	r6, [sp, #8]
 1584              	.LBE270:
 1585              	.LBE285:
 1586              	.LBE308:
 1587              	.LBB309:
 1588              	.LBB216:
 1589              	.LBB202:
 1590 08ba DAF80C10 		ldr	r1, [r10, #12]
 1591 08be BAF808C0 		ldrh	ip, [r10, #8]
 1592 08c2 3260     		str	r2, [r6]
 1593 08c4 03F1480E 		add	lr, r3, #72
 1594 08c8 019E     		ldr	r6, [sp, #4]
 1595 08ca 4CEA0141 		orr	r1, ip, r1, lsl #16
 1596              	.LBB178:
ARM GAS  /tmp/ccAA0tEB.s 			page 29


 1597              	.LBB179:
 1598              		.loc 1 103 0
 1599 08ce 132A     		cmp	r2, #19
 1600 08d0 3360     		str	r3, [r6]
 1601              	.LBE179:
 1602              	.LBE178:
 1603              		.loc 1 211 0
 1604 08d2 44F83E10 		str	r1, [r4, lr, lsl #3]
 1605              	.LVL107:
 1606              	.LBB181:
 1607              	.LBB180:
 1608              		.loc 1 103 0
 1609 08d6 7FF676AC 		bls	.L120
 1610 08da 7AE6     		b	.L52
 1611              	.LVL108:
 1612              	.L201:
 1613 08dc 029E     		ldr	r6, [sp, #8]
 1614              	.LBE180:
 1615              	.LBE181:
 1616              		.loc 1 156 0
 1617 08de DAF80810 		ldr	r1, [r10, #8]
 1618 08e2 3260     		str	r2, [r6]
 1619 08e4 03F1480C 		add	ip, r3, #72
 1620 08e8 019E     		ldr	r6, [sp, #4]
 1621 08ea 44F83C10 		str	r1, [r4, ip, lsl #3]
 1622              	.LVL109:
 1623              	.LBB182:
 1624              	.LBB183:
 1625              		.loc 1 103 0
 1626 08ee 132A     		cmp	r2, #19
 1627 08f0 3360     		str	r3, [r6]
 1628 08f2 7FF668AC 		bls	.L120
 1629 08f6 6CE6     		b	.L52
 1630              	.LVL110:
 1631              	.L185:
 1632              	.LBE183:
 1633              	.LBE182:
 1634              	.LBE202:
 1635              	.LBE216:
 1636              	.LBE309:
 1637              	.LBB310:
 1638              	.LBB286:
 1639              	.LBB271:
 1640              		.loc 1 162 0
 1641 08f8 02F1480E 		add	lr, r2, #72
 1642 08fc 00F1010C 		add	ip, r0, #1
 1643 0900 04EBCE0E 		add	lr, r4, lr, lsl #3
 1644 0904 CAF80000 		str	r0, [r10]
 1645 0908 0198     		ldr	r0, [sp, #4]
 1646 090a 8B68     		ldr	r3, [r1, #8]
 1647 090c 0260     		str	r2, [r0]
 1648              	.LBB255:
 1649              	.LBB225:
 1650              		.loc 1 103 0
 1651 090e BCF1130F 		cmp	ip, #19
 1652              	.LBE225:
 1653              	.LBE255:
ARM GAS  /tmp/ccAA0tEB.s 			page 30


 1654              		.loc 1 162 0
 1655 0912 CEF80430 		str	r3, [lr, #4]
 1656              	.LVL111:
 1657              	.LBB256:
 1658              	.LBB226:
 1659              		.loc 1 103 0
 1660 0916 7FF6FCAC 		bls	.L122
 1661 091a 76E6     		b	.L96
 1662              	.LVL112:
 1663              	.L176:
 1664 091c 029E     		ldr	r6, [sp, #8]
 1665              	.LBE226:
 1666              	.LBE256:
 1667              	.LBE271:
 1668              	.LBE286:
 1669              	.LBE310:
 1670              	.LBB311:
 1671              	.LBB217:
 1672              	.LBB203:
 1673              		.loc 1 162 0
 1674 091e 03F1480C 		add	ip, r3, #72
 1675 0922 3260     		str	r2, [r6]
 1676 0924 511C     		adds	r1, r2, #1
 1677 0926 04EBCC0C 		add	ip, r4, ip, lsl #3
 1678 092a 019E     		ldr	r6, [sp, #4]
 1679 092c DAF80820 		ldr	r2, [r10, #8]
 1680 0930 3360     		str	r3, [r6]
 1681              	.LBB184:
 1682              	.LBB158:
 1683              		.loc 1 103 0
 1684 0932 1329     		cmp	r1, #19
 1685              	.LBE158:
 1686              	.LBE184:
 1687              		.loc 1 162 0
 1688 0934 CCF80420 		str	r2, [ip, #4]
 1689              	.LVL113:
 1690              	.LBB185:
 1691              	.LBB159:
 1692              		.loc 1 103 0
 1693 0938 7FF6FFAB 		bls	.L113
 1694 093c 49E6     		b	.L52
 1695              	.LVL114:
 1696              	.L194:
 1697              	.LBE159:
 1698              	.LBE185:
 1699              	.LBE203:
 1700              	.LBE217:
 1701              	.LBE311:
 1702              	.LBB312:
 1703              	.LBB287:
 1704              	.LBB272:
 1705              		.loc 1 217 0
 1706 093e CB68     		ldr	r3, [r1, #12]
 1707 0940 B1F808E0 		ldrh	lr, [r1, #8]
 1708 0944 CAF80000 		str	r0, [r10]
 1709 0948 02F1480C 		add	ip, r2, #72
 1710 094c 04EBCC0C 		add	ip, r4, ip, lsl #3
ARM GAS  /tmp/ccAA0tEB.s 			page 31


 1711 0950 0130     		adds	r0, r0, #1
 1712 0952 019E     		ldr	r6, [sp, #4]
 1713 0954 4EEA0343 		orr	r3, lr, r3, lsl #16
 1714              	.LBB257:
 1715              	.LBB229:
 1716              		.loc 1 103 0
 1717 0958 1328     		cmp	r0, #19
 1718 095a 3260     		str	r2, [r6]
 1719              	.LBE229:
 1720              	.LBE257:
 1721              		.loc 1 217 0
 1722 095c CCF80430 		str	r3, [ip, #4]
 1723              	.LVL115:
 1724              	.LBB258:
 1725              	.LBB230:
 1726              		.loc 1 103 0
 1727 0960 7FF65BAD 		bls	.L129
 1728 0964 51E6     		b	.L96
 1729              	.LVL116:
 1730              	.L187:
 1731 0966 029E     		ldr	r6, [sp, #8]
 1732              	.LBE230:
 1733              	.LBE258:
 1734              	.LBE272:
 1735              	.LBE287:
 1736              	.LBE312:
 1737              	.LBB313:
 1738              	.LBB218:
 1739              	.LBB204:
 1740              		.loc 1 217 0
 1741 0968 DAF80C10 		ldr	r1, [r10, #12]
 1742 096c BAF808E0 		ldrh	lr, [r10, #8]
 1743 0970 3260     		str	r2, [r6]
 1744 0972 03F1480C 		add	ip, r3, #72
 1745 0976 04EBCC0C 		add	ip, r4, ip, lsl #3
 1746 097a 0132     		adds	r2, r2, #1
 1747 097c 019E     		ldr	r6, [sp, #4]
 1748 097e 4EEA0141 		orr	r1, lr, r1, lsl #16
 1749              	.LBB186:
 1750              	.LBB162:
 1751              		.loc 1 103 0
 1752 0982 132A     		cmp	r2, #19
 1753 0984 3360     		str	r3, [r6]
 1754              	.LBE162:
 1755              	.LBE186:
 1756              		.loc 1 217 0
 1757 0986 CCF80410 		str	r1, [ip, #4]
 1758              	.LVL117:
 1759              	.LBB187:
 1760              	.LBB163:
 1761              		.loc 1 103 0
 1762 098a 7FF61CAC 		bls	.L120
 1763 098e 20E6     		b	.L52
 1764              	.LVL118:
 1765              	.L191:
 1766              	.LBE163:
 1767              	.LBE187:
ARM GAS  /tmp/ccAA0tEB.s 			page 32


 1768              	.LBE204:
 1769              	.LBE218:
 1770              	.LBE313:
 1771              	.LBB314:
 1772              	.LBB288:
 1773              	.LBB273:
 1774              		.loc 1 201 0
 1775 0990 8B68     		ldr	r3, [r1, #8]
 1776 0992 029E     		ldr	r6, [sp, #8]
 1777 0994 CAF80000 		str	r0, [r10]
 1778 0998 DCF844E2 		ldr	lr, [ip, #580]
 1779 099c 3340     		ands	r3, r3, r6
 1780 099e 0330     		adds	r0, r0, #3
 1781 09a0 26E7     		b	.L173
 1782              	.LVL119:
 1783              	.L180:
 1784              	.LBE273:
 1785              	.LBE288:
 1786              	.LBE314:
 1787              	.LBB315:
 1788              	.LBB219:
 1789              	.LBB205:
 1790 09a2 DAF80810 		ldr	r1, [r10, #8]
 1791 09a6 029E     		ldr	r6, [sp, #8]
 1792 09a8 DCF844E2 		ldr	lr, [ip, #580]
 1793 09ac 3260     		str	r2, [r6]
 1794 09ae 090C     		lsrs	r1, r1, #16
 1795 09b0 0904     		lsls	r1, r1, #16
 1796 09b2 0332     		adds	r2, r2, #3
 1797 09b4 2DE7     		b	.L167
 1798              	.L181:
 1799 09b6 029E     		ldr	r6, [sp, #8]
 1800              		.loc 1 170 0
 1801 09b8 DAF80810 		ldr	r1, [r10, #8]
 1802 09bc 3260     		str	r2, [r6]
 1803 09be 019E     		ldr	r6, [sp, #4]
 1804 09c0 04EBC30C 		add	ip, r4, r3, lsl #3
 1805 09c4 3360     		str	r3, [r6]
 1806              	.LBB188:
 1807              	.LBB189:
 1808              		.loc 1 103 0
 1809 09c6 132A     		cmp	r2, #19
 1810              	.LBE189:
 1811              	.LBE188:
 1812              		.loc 1 171 0
 1813 09c8 DAF80C30 		ldr	r3, [r10, #12]
 1814              		.loc 1 170 0
 1815 09cc CCF84012 		str	r1, [ip, #576]
 1816              		.loc 1 171 0
 1817 09d0 CCF84432 		str	r3, [ip, #580]
 1818              	.LVL120:
 1819              	.LBB191:
 1820              	.LBB190:
 1821              		.loc 1 103 0
 1822 09d4 7FF6F7AB 		bls	.L120
 1823 09d8 FBE5     		b	.L52
 1824              	.LBE190:
ARM GAS  /tmp/ccAA0tEB.s 			page 33


 1825              	.LBE191:
 1826              	.LBE205:
 1827              	.LBE219:
 1828              	.LBE315:
 1829              		.cfi_endproc
 1830              	.LFE332:
 1831              		.size	CAN_Manager_start, .-CAN_Manager_start
 1832 09da 00BF     		.section	.bss.CAN1FilterTable,"aw",%nobits
 1833              		.align	2
 1834              		.set	.LANCHOR1,. + 0
 1835              		.type	CAN1FilterTable, %object
 1836              		.size	CAN1FilterTable, 80
 1837              	CAN1FilterTable:
 1838 0000 00000000 		.space	80
 1838      00000000 
 1838      00000000 
 1838      00000000 
 1838      00000000 
 1839              		.section	.bss.CAN2FilterTable,"aw",%nobits
 1840              		.align	2
 1841              		.set	.LANCHOR0,. + 0
 1842              		.type	CAN2FilterTable, %object
 1843              		.size	CAN2FilterTable, 80
 1844              	CAN2FilterTable:
 1845 0000 00000000 		.space	80
 1845      00000000 
 1845      00000000 
 1845      00000000 
 1845      00000000 
 1846              		.section	.bss.bankID_iter.10074,"aw",%nobits
 1847              		.align	2
 1848              		.set	.LANCHOR3,. + 0
 1849              		.type	bankID_iter.10074, %object
 1850              		.size	bankID_iter.10074, 4
 1851              	bankID_iter.10074:
 1852 0000 00000000 		.space	4
 1853              		.section	.bss.filterBank_End.10103,"aw",%nobits
 1854              		.align	2
 1855              		.set	.LANCHOR4,. + 0
 1856              		.type	filterBank_End.10103, %object
 1857              		.size	filterBank_End.10103, 4
 1858              	filterBank_End.10103:
 1859 0000 00000000 		.space	4
 1860              		.section	.bss.filterID.10075,"aw",%nobits
 1861              		.align	2
 1862              		.set	.LANCHOR2,. + 0
 1863              		.type	filterID.10075, %object
 1864              		.size	filterID.10075, 4
 1865              	filterID.10075:
 1866 0000 00000000 		.space	4
 1867              		.section	.rodata.CAN1_Config,"a",%progbits
 1868              		.align	2
 1869              		.set	.LANCHOR5,. + 0
 1870              		.type	CAN1_Config, %object
 1871              		.size	CAN1_Config, 8
 1872              	CAN1_Config:
 1873 0000 64000000 		.word	100
ARM GAS  /tmp/ccAA0tEB.s 			page 34


 1874 0004 02003800 		.word	3670018
 1875              		.section	.rodata.CAN2_Config,"a",%progbits
 1876              		.align	2
 1877              		.set	.LANCHOR6,. + 0
 1878              		.type	CAN2_Config, %object
 1879              		.size	CAN2_Config, 8
 1880              	CAN2_Config:
 1881 0000 64000000 		.word	100
 1882 0004 02003800 		.word	3670018
 1883              		.section	.rodata.CAN_Manager_start.str1.4,"aMS",%progbits,1
 1884              		.align	2
 1885              	.LC0:
 1886 0000 43414E31 		.ascii	"CAN1_FILTER_TABLE_SIZE too small\000"
 1886      5F46494C 
 1886      5445525F 
 1886      5441424C 
 1886      455F5349 
 1887 0021 000000   		.space	3
 1888              	.LC1:
 1889 0024 43414E32 		.ascii	"CAN2_FILTER_TABLE_SIZE too small\000"
 1889      5F46494C 
 1889      5445525F 
 1889      5441424C 
 1889      455F5349 
 1890 0045 000000   		.space	3
 1891              	.LC2:
 1892 0048 4E6F7420 		.ascii	"Not enough CAN filter banks\000"
 1892      656E6F75 
 1892      67682043 
 1892      414E2066 
 1892      696C7465 
 1893              		.text
 1894              	.Letext0:
 1895              		.file 2 "/usr/lib/gcc/arm-none-eabi/7.3.1/include/stddef.h"
 1896              		.file 3 "/usr/arm-none-eabi/include/machine/_default_types.h"
 1897              		.file 4 "/usr/arm-none-eabi/include/sys/_stdint.h"
 1898              		.file 5 "./RM18A-ChibiOS18-Core/chibios/os/common/ports/ARMCMx/compilers/GCC/chtypes.h"
 1899              		.file 6 "./RM18A-ChibiOS18-Core/chibios/os/rt/include/chsystypes.h"
 1900              		.file 7 "./RM18A-ChibiOS18-Core/chibios/os/rt/include/chschd.h"
 1901              		.file 8 "./RM18A-ChibiOS18-Core/chibios/os/rt/include/chtime.h"
 1902              		.file 9 "./RM18A-ChibiOS18-Core/chibios/os/common/ext/ARM/CMSIS/Core/Include/core_cm4.h"
 1903              		.file 10 "./RM18A-ChibiOS18-Core/chibios/os/common/ext/ST/STM32F4xx/system_stm32f4xx.h"
 1904              		.file 11 "./RM18A-ChibiOS18-Core/chibios/os/common/ext/ST/STM32F4xx/stm32f427xx.h"
 1905              		.file 12 "./RM18A-ChibiOS18-Core/chibios/os/common/ports/ARMCMx/chcore.h"
 1906              		.file 13 "./RM18A-ChibiOS18-Core/chibios/os/common/ports/ARMCMx/chcore_v7m.h"
 1907              		.file 14 "./RM18A-ChibiOS18-Core/chibios/os/hal/ports/STM32/LLD/TIMv1/stm32_tim.h"
 1908              		.file 15 "./RM18A-ChibiOS18-Core/chibios/os/rt/include/chtm.h"
 1909              		.file 16 "./RM18A-ChibiOS18-Core/chibios/os/rt/include/chsem.h"
 1910              		.file 17 "./RM18A-ChibiOS18-Core/chibios/os/rt/include/chmtx.h"
 1911              		.file 18 "./RM18A-ChibiOS18-Core/chibios/os/rt/include/chsys.h"
 1912              		.file 19 "./RM18A-ChibiOS18-Core/chibios/os/rt/include/chregistry.h"
 1913              		.file 20 "./RM18A-ChibiOS18-Core/chibios/os/rt/include/chevents.h"
 1914              		.file 21 "./RM18A-ChibiOS18-Core/chibios/os/oslib/include/chmemcore.h"
 1915              		.file 22 "./RM18A-ChibiOS18-Core/chibios/os/oslib/include/chmempools.h"
 1916              		.file 23 "./RM18A-ChibiOS18-Core/chibios/os/oslib/include/chfactory.h"
 1917              		.file 24 "./RM18A-ChibiOS18-Core/chibios/os/hal/ports/STM32/LLD/DMAv2/stm32_dma.h"
 1918              		.file 25 "./RM18A-ChibiOS18-Core/chibios/os/hal/include/hal_queues.h"
ARM GAS  /tmp/ccAA0tEB.s 			page 35


 1919              		.file 26 "./RM18A-ChibiOS18-Core/chibios/os/hal/include/hal_pal.h"
 1920              		.file 27 "./RM18A-ChibiOS18-Core/chibios/os/hal/ports/STM32/LLD/GPIOv2/hal_pal_lld.h"
 1921              		.file 28 "./RM18A-ChibiOS18-Core/chibios/os/hal/include/hal_adc.h"
 1922              		.file 29 "./RM18A-ChibiOS18-Core/chibios/os/hal/ports/STM32/LLD/ADCv2/hal_adc_lld.h"
 1923              		.file 30 "./RM18A-ChibiOS18-Core/chibios/os/hal/include/hal_can.h"
 1924              		.file 31 "./RM18A-ChibiOS18-Core/chibios/os/hal/ports/STM32/LLD/CANv1/hal_can_lld.h"
 1925              		.file 32 "./RM18A-ChibiOS18-Core/chibios/os/hal/include/hal_i2c.h"
 1926              		.file 33 "./RM18A-ChibiOS18-Core/chibios/os/hal/lib/fallback/I2C/hal_i2c_lld.h"
 1927              		.file 34 "./RM18A-ChibiOS18-Core/chibios/os/hal/include/hal_icu.h"
 1928              		.file 35 "./RM18A-ChibiOS18-Core/chibios/os/hal/ports/STM32/LLD/TIMv1/hal_icu_lld.h"
 1929              		.file 36 "./RM18A-ChibiOS18-Core/chibios/os/hal/include/hal_pwm.h"
 1930              		.file 37 "./RM18A-ChibiOS18-Core/chibios/os/hal/ports/STM32/LLD/TIMv1/hal_pwm_lld.h"
 1931              		.file 38 "./RM18A-ChibiOS18-Core/chibios/os/hal/include/hal_serial.h"
 1932              		.file 39 "./RM18A-ChibiOS18-Core/chibios/os/hal/ports/STM32/LLD/USARTv1/hal_serial_lld.h"
 1933              		.file 40 "./RM18A-ChibiOS18-Core/chibios/os/hal/include/hal_spi.h"
 1934              		.file 41 "./RM18A-ChibiOS18-Core/chibios/os/hal/ports/STM32/LLD/SPIv1/hal_spi_lld.h"
 1935              		.file 42 "./RM18A-ChibiOS18-Core/chibios/os/hal/include/hal_uart.h"
 1936              		.file 43 "./RM18A-ChibiOS18-Core/chibios/os/hal/ports/STM32/LLD/USARTv1/hal_uart_lld.h"
 1937              		.file 44 "./RM18A-ChibiOS18-Core/chibios/os/hal/include/hal_usb.h"
 1938              		.file 45 "./RM18A-ChibiOS18-Core/chibios/os/hal/ports/STM32/LLD/OTGv1/hal_usb_lld.h"
 1939              		.file 46 "./RM18A-ChibiOS18-Core/chibios/os/hal/ports/STM32/LLD/OTGv1/stm32_otg.h"
 1940              		.file 47 "./RM18A-ChibiOS18-Core/src/peripherals/CAN_Manager.h"
 1941              		.file 48 "./RM18A-ChibiOS18-Core/chibios/os/rt/include/ch.h"