ARM GAS  /tmp/cc1lMVxE.s 			page 1


   1              		.cpu cortex-m4
   2              		.eabi_attribute 27, 1
   3              		.eabi_attribute 28, 1
   4              		.eabi_attribute 20, 1
   5              		.eabi_attribute 21, 1
   6              		.eabi_attribute 23, 3
   7              		.eabi_attribute 24, 1
   8              		.eabi_attribute 25, 1
   9              		.eabi_attribute 26, 1
  10              		.eabi_attribute 30, 2
  11              		.eabi_attribute 34, 1
  12              		.eabi_attribute 18, 4
  13              		.file	"chcore_v7m.c"
  14              		.text
  15              	.Ltext0:
  16              		.cfi_sections	.debug_frame
  17              		.section	.text.SVC_Handler,"ax",%progbits
  18              		.align	1
  19              		.p2align 2,,3
  20              		.global	SVC_Handler
  21              		.syntax unified
  22              		.thumb
  23              		.thumb_func
  24              		.fpu fpv4-sp-d16
  25              		.type	SVC_Handler, %function
  26              	SVC_Handler:
  27              	.LFB294:
  28              		.file 1 "./RM18A-ChibiOS18-Core/chibios/os/common/ports/ARMCMx/chcore_v7m.c"
  29              		.loc 1 62 0
  30              		.cfi_startproc
  31              		@ args = 0, pretend = 0, frame = 0
  32              		@ frame_needed = 0, uses_anonymous_args = 0
  33              		@ link register save eliminated.
  34              		.loc 1 68 0
  35 0000 064A     		ldr	r2, .L3
  36 0002 5368     		ldr	r3, [r2, #4]
  37 0004 23F00103 		bic	r3, r3, #1
  38 0008 5360     		str	r3, [r2, #4]
  39              	.LBB51:
  40              	.LBB52:
  41              		.file 2 "./RM18A-ChibiOS18-Core/chibios/os/common/ext/ARM/CMSIS/Core/Include/cmsis_gcc.h"
  42              		.loc 2 251 0
  43              		.syntax unified
  44              	@ 251 "./RM18A-ChibiOS18-Core/chibios/os/common/ext/ARM/CMSIS/Core/Include/cmsis_gcc.h" 1
  45 000a EFF30983 		MRS r3, psp
  46              	@ 0 "" 2
  47              	.LVL0:
  48              		.thumb
  49              		.syntax unified
  50              	.LBE52:
  51              	.LBE51:
  52              		.loc 1 76 0
  53 000e 6833     		adds	r3, r3, #104
  54              	.LVL1:
  55              	.LBB53:
  56              	.LBB54:
  57              		.loc 2 279 0
ARM GAS  /tmp/cc1lMVxE.s 			page 2


  58              		.syntax unified
  59              	@ 279 "./RM18A-ChibiOS18-Core/chibios/os/common/ext/ARM/CMSIS/Core/Include/cmsis_gcc.h" 1
  60 0010 83F30988 		MSR psp, r3
  61              	@ 0 "" 2
  62              	.LVL2:
  63              		.thumb
  64              		.syntax unified
  65              	.LBE54:
  66              	.LBE53:
  67              	.LBB55:
  68              	.LBB56:
  69              	.LBB57:
  70              	.LBB58:
  71              		.loc 2 493 0
  72 0014 0023     		movs	r3, #0
  73              	.LVL3:
  74              		.syntax unified
  75              	@ 493 "./RM18A-ChibiOS18-Core/chibios/os/common/ext/ARM/CMSIS/Core/Include/cmsis_gcc.h" 1
  76 0016 83F31188 		MSR basepri, r3
  77              	@ 0 "" 2
  78              	.LVL4:
  79              		.thumb
  80              		.syntax unified
  81              	.LBE58:
  82              	.LBE57:
  83              	.LBE56:
  84              	.LBE55:
  85              		.loc 1 83 0
  86 001a 7047     		bx	lr
  87              	.L4:
  88              		.align	2
  89              	.L3:
  90 001c 30EF00E0 		.word	-536809680
  91              		.cfi_endproc
  92              	.LFE294:
  93              		.size	SVC_Handler, .-SVC_Handler
  94              		.section	.text._port_irq_epilogue,"ax",%progbits
  95              		.align	1
  96              		.p2align 2,,3
  97              		.global	_port_irq_epilogue
  98              		.syntax unified
  99              		.thumb
 100              		.thumb_func
 101              		.fpu fpv4-sp-d16
 102              		.type	_port_irq_epilogue, %function
 103              	_port_irq_epilogue:
 104              	.LFB295:
 105              		.loc 1 122 0
 106              		.cfi_startproc
 107              		@ args = 0, pretend = 0, frame = 0
 108              		@ frame_needed = 0, uses_anonymous_args = 0
 109              	.LVL5:
 110              	.LBB59:
 111              	.LBB60:
 112              	.LBB61:
 113              	.LBB62:
 114              		.loc 2 493 0
ARM GAS  /tmp/cc1lMVxE.s 			page 3


 115 0000 2023     		movs	r3, #32
 116              		.syntax unified
 117              	@ 493 "./RM18A-ChibiOS18-Core/chibios/os/common/ext/ARM/CMSIS/Core/Include/cmsis_gcc.h" 1
 118 0002 83F31188 		MSR basepri, r3
 119              	@ 0 "" 2
 120              	.LVL6:
 121              		.thumb
 122              		.syntax unified
 123              	.LBE62:
 124              	.LBE61:
 125              	.LBE60:
 126              	.LBE59:
 127              		.loc 1 125 0
 128 0006 124B     		ldr	r3, .L14
 129 0008 5B68     		ldr	r3, [r3, #4]
 130 000a 13F40063 		ands	r3, r3, #2048
 131 000e 02D1     		bne	.L13
 132              	.LVL7:
 133              	.LBB63:
 134              	.LBB64:
 135              	.LBB65:
 136              	.LBB66:
 137              		.loc 2 493 0
 138              		.syntax unified
 139              	@ 493 "./RM18A-ChibiOS18-Core/chibios/os/common/ext/ARM/CMSIS/Core/Include/cmsis_gcc.h" 1
 140 0010 83F31188 		MSR basepri, r3
 141              	@ 0 "" 2
 142              	.LVL8:
 143              		.thumb
 144              		.syntax unified
 145 0014 7047     		bx	lr
 146              	.L13:
 147              	.LBE66:
 148              	.LBE65:
 149              	.LBE64:
 150              	.LBE63:
 151              		.loc 1 122 0
 152 0016 10B5     		push	{r4, lr}
 153              		.cfi_def_cfa_offset 8
 154              		.cfi_offset 4, -8
 155              		.cfi_offset 14, -4
 156              	.LBB67:
 157              	.LBB68:
 158              	.LBB69:
 159              		.loc 2 778 0
 160              		.syntax unified
 161              	@ 778 "./RM18A-ChibiOS18-Core/chibios/os/common/ext/ARM/CMSIS/Core/Include/cmsis_gcc.h" 1
 162 0018 F1EE103A 		VMRS r3, fpscr
 163              	@ 0 "" 2
 164              		.thumb
 165              		.syntax unified
 166              	.LBE69:
 167              	.LBE68:
 168              	.LBB70:
 169              	.LBB71:
 170              		.loc 2 251 0
 171              		.syntax unified
ARM GAS  /tmp/cc1lMVxE.s 			page 4


 172              	@ 251 "./RM18A-ChibiOS18-Core/chibios/os/common/ext/ARM/CMSIS/Core/Include/cmsis_gcc.h" 1
 173 001c EFF30984 		MRS r4, psp
 174              	@ 0 "" 2
 175              	.LVL9:
 176              		.thumb
 177              		.syntax unified
 178              	.LBE71:
 179              	.LBE70:
 180              		.loc 1 143 0
 181 0020 0C4B     		ldr	r3, .L14+4
 182              		.loc 1 141 0
 183 0022 4FF08072 		mov	r2, #16777216
 184              		.loc 1 143 0
 185 0026 DB68     		ldr	r3, [r3, #12]
 186 0028 44F8083C 		str	r3, [r4, #-8]
 187              	.LVL10:
 188              		.loc 1 141 0
 189 002c 44F84C2C 		str	r2, [r4, #-76]
 190              		.loc 1 138 0
 191 0030 A4F16803 		sub	r3, r4, #104
 192              	.LVL11:
 193              	.LBB72:
 194              	.LBB73:
 195              		.loc 2 279 0
 196              		.syntax unified
 197              	@ 279 "./RM18A-ChibiOS18-Core/chibios/os/common/ext/ARM/CMSIS/Core/Include/cmsis_gcc.h" 1
 198 0034 83F30988 		MSR psp, r3
 199              	@ 0 "" 2
 200              	.LVL12:
 201              		.thumb
 202              		.syntax unified
 203              	.LBE73:
 204              	.LBE72:
 205              		.loc 1 151 0
 206 0038 FFF7FEFF 		bl	chSchIsPreemptionRequired
 207              	.LVL13:
 208 003c 18B1     		cbz	r0, .L7
 209              		.loc 1 153 0
 210 003e 064B     		ldr	r3, .L14+8
 211 0040 44F8503C 		str	r3, [r4, #-80]
 212              	.LBE67:
 213              		.loc 1 166 0
 214 0044 10BD     		pop	{r4, pc}
 215              	.LVL14:
 216              	.L7:
 217              	.LBB74:
 218              		.loc 1 158 0
 219 0046 054B     		ldr	r3, .L14+12
 220 0048 44F8503C 		str	r3, [r4, #-80]
 221              	.LBE74:
 222              		.loc 1 166 0
 223 004c 10BD     		pop	{r4, pc}
 224              	.LVL15:
 225              	.L15:
 226 004e 00BF     		.align	2
 227              	.L14:
 228 0050 00ED00E0 		.word	-536810240
ARM GAS  /tmp/cc1lMVxE.s 			page 5


 229 0054 30EF00E0 		.word	-536809680
 230 0058 00000000 		.word	_port_switch_from_isr
 231 005c 00000000 		.word	_port_exit_from_isr
 232              		.cfi_endproc
 233              	.LFE295:
 234              		.size	_port_irq_epilogue, .-_port_irq_epilogue
 235              		.text
 236              	.Letext0:
 237              		.file 3 "/usr/lib/gcc/arm-none-eabi/7.3.1/include/stddef.h"
 238              		.file 4 "/usr/arm-none-eabi/include/machine/_default_types.h"
 239              		.file 5 "/usr/arm-none-eabi/include/sys/_stdint.h"
 240              		.file 6 "./RM18A-ChibiOS18-Core/chibios/os/common/ports/ARMCMx/compilers/GCC/chtypes.h"
 241              		.file 7 "./RM18A-ChibiOS18-Core/chibios/os/rt/include/chsystypes.h"
 242              		.file 8 "./RM18A-ChibiOS18-Core/chibios/os/rt/include/chschd.h"
 243              		.file 9 "./RM18A-ChibiOS18-Core/chibios/os/rt/include/chtime.h"
 244              		.file 10 "./RM18A-ChibiOS18-Core/chibios/os/common/ext/ARM/CMSIS/Core/Include/core_cm4.h"
 245              		.file 11 "./RM18A-ChibiOS18-Core/chibios/os/common/ext/ST/STM32F4xx/system_stm32f4xx.h"
 246              		.file 12 "./RM18A-ChibiOS18-Core/chibios/os/common/ports/ARMCMx/chcore.h"
 247              		.file 13 "./RM18A-ChibiOS18-Core/chibios/os/common/ports/ARMCMx/chcore_v7m.h"
 248              		.file 14 "./RM18A-ChibiOS18-Core/chibios/os/rt/include/chtm.h"
 249              		.file 15 "./RM18A-ChibiOS18-Core/chibios/os/rt/include/chsem.h"
 250              		.file 16 "./RM18A-ChibiOS18-Core/chibios/os/rt/include/chmtx.h"
 251              		.file 17 "./RM18A-ChibiOS18-Core/chibios/os/rt/include/chsys.h"
 252              		.file 18 "./RM18A-ChibiOS18-Core/chibios/os/rt/include/chregistry.h"
 253              		.file 19 "./RM18A-ChibiOS18-Core/chibios/os/oslib/include/chmemcore.h"
 254              		.file 20 "./RM18A-ChibiOS18-Core/chibios/os/oslib/include/chmempools.h"
 255              		.file 21 "./RM18A-ChibiOS18-Core/chibios/os/oslib/include/chfactory.h"
 256              		.section	.debug_info,"",%progbits
 257              	.Ldebug_info0:
 258 0000 31100000 		.4byte	0x1031
 259 0004 0400     		.2byte	0x4
 260 0006 00000000 		.4byte	.Ldebug_abbrev0
 261 000a 04       		.byte	0x4
 262 000b 01       		.uleb128 0x1
 263 000c D7050000 		.4byte	.LASF186
 264 0010 0C       		.byte	0xc
 265 0011 C3070000 		.4byte	.LASF187
 266 0015 B2030000 		.4byte	.LASF188
 267 0019 18000000 		.4byte	.Ldebug_ranges0+0x18
 268 001d 00000000 		.4byte	0
 269 0021 00000000 		.4byte	.Ldebug_line0
 270 0025 02       		.uleb128 0x2
 271 0026 04       		.byte	0x4
 272 0027 05       		.byte	0x5
 273 0028 696E7400 		.ascii	"int\000"
 274 002c 03       		.uleb128 0x3
 275 002d 0D000000 		.4byte	.LASF4
 276 0031 03       		.byte	0x3
 277 0032 D8       		.byte	0xd8
 278 0033 37000000 		.4byte	0x37
 279 0037 04       		.uleb128 0x4
 280 0038 04       		.byte	0x4
 281 0039 07       		.byte	0x7
 282 003a 09020000 		.4byte	.LASF0
 283 003e 04       		.uleb128 0x4
 284 003f 08       		.byte	0x8
 285 0040 05       		.byte	0x5
ARM GAS  /tmp/cc1lMVxE.s 			page 6


 286 0041 D8010000 		.4byte	.LASF1
 287 0045 04       		.uleb128 0x4
 288 0046 08       		.byte	0x8
 289 0047 04       		.byte	0x4
 290 0048 85030000 		.4byte	.LASF2
 291 004c 04       		.uleb128 0x4
 292 004d 01       		.byte	0x1
 293 004e 06       		.byte	0x6
 294 004f 31000000 		.4byte	.LASF3
 295 0053 03       		.uleb128 0x3
 296 0054 3D000000 		.4byte	.LASF5
 297 0058 04       		.byte	0x4
 298 0059 2B       		.byte	0x2b
 299 005a 5E000000 		.4byte	0x5e
 300 005e 04       		.uleb128 0x4
 301 005f 01       		.byte	0x1
 302 0060 08       		.byte	0x8
 303 0061 BD040000 		.4byte	.LASF6
 304 0065 04       		.uleb128 0x4
 305 0066 02       		.byte	0x2
 306 0067 05       		.byte	0x5
 307 0068 F9040000 		.4byte	.LASF7
 308 006c 03       		.uleb128 0x3
 309 006d E0060000 		.4byte	.LASF8
 310 0071 04       		.byte	0x4
 311 0072 39       		.byte	0x39
 312 0073 77000000 		.4byte	0x77
 313 0077 04       		.uleb128 0x4
 314 0078 02       		.byte	0x2
 315 0079 07       		.byte	0x7
 316 007a 68070000 		.4byte	.LASF9
 317 007e 03       		.uleb128 0x3
 318 007f 17030000 		.4byte	.LASF10
 319 0083 04       		.byte	0x4
 320 0084 4D       		.byte	0x4d
 321 0085 89000000 		.4byte	0x89
 322 0089 04       		.uleb128 0x4
 323 008a 04       		.byte	0x4
 324 008b 05       		.byte	0x5
 325 008c 2F010000 		.4byte	.LASF11
 326 0090 03       		.uleb128 0x3
 327 0091 90010000 		.4byte	.LASF12
 328 0095 04       		.byte	0x4
 329 0096 4F       		.byte	0x4f
 330 0097 9B000000 		.4byte	0x9b
 331 009b 04       		.uleb128 0x4
 332 009c 04       		.byte	0x4
 333 009d 07       		.byte	0x7
 334 009e B3060000 		.4byte	.LASF13
 335 00a2 03       		.uleb128 0x3
 336 00a3 39040000 		.4byte	.LASF14
 337 00a7 04       		.byte	0x4
 338 00a8 69       		.byte	0x69
 339 00a9 AD000000 		.4byte	0xad
 340 00ad 04       		.uleb128 0x4
 341 00ae 08       		.byte	0x8
 342 00af 07       		.byte	0x7
ARM GAS  /tmp/cc1lMVxE.s 			page 7


 343 00b0 E3000000 		.4byte	.LASF15
 344 00b4 03       		.uleb128 0x3
 345 00b5 30080000 		.4byte	.LASF16
 346 00b9 05       		.byte	0x5
 347 00ba 18       		.byte	0x18
 348 00bb 53000000 		.4byte	0x53
 349 00bf 05       		.uleb128 0x5
 350 00c0 B4000000 		.4byte	0xb4
 351 00c4 06       		.uleb128 0x6
 352 00c5 B4000000 		.4byte	0xb4
 353 00c9 03       		.uleb128 0x3
 354 00ca 20020000 		.4byte	.LASF17
 355 00ce 05       		.byte	0x5
 356 00cf 24       		.byte	0x24
 357 00d0 6C000000 		.4byte	0x6c
 358 00d4 03       		.uleb128 0x3
 359 00d5 B5040000 		.4byte	.LASF18
 360 00d9 05       		.byte	0x5
 361 00da 2C       		.byte	0x2c
 362 00db 7E000000 		.4byte	0x7e
 363 00df 05       		.uleb128 0x5
 364 00e0 D4000000 		.4byte	0xd4
 365 00e4 03       		.uleb128 0x3
 366 00e5 B1050000 		.4byte	.LASF19
 367 00e9 05       		.byte	0x5
 368 00ea 30       		.byte	0x30
 369 00eb 90000000 		.4byte	0x90
 370 00ef 05       		.uleb128 0x5
 371 00f0 E4000000 		.4byte	0xe4
 372 00f4 06       		.uleb128 0x6
 373 00f5 EF000000 		.4byte	0xef
 374 00f9 03       		.uleb128 0x3
 375 00fa 28000000 		.4byte	.LASF20
 376 00fe 05       		.byte	0x5
 377 00ff 3C       		.byte	0x3c
 378 0100 A2000000 		.4byte	0xa2
 379 0104 03       		.uleb128 0x3
 380 0105 58030000 		.4byte	.LASF21
 381 0109 06       		.byte	0x6
 382 010a 27       		.byte	0x27
 383 010b E4000000 		.4byte	0xe4
 384 010f 03       		.uleb128 0x3
 385 0110 E0020000 		.4byte	.LASF22
 386 0114 06       		.byte	0x6
 387 0115 2A       		.byte	0x2a
 388 0116 B4000000 		.4byte	0xb4
 389 011a 03       		.uleb128 0x3
 390 011b 44010000 		.4byte	.LASF23
 391 011f 06       		.byte	0x6
 392 0120 2B       		.byte	0x2b
 393 0121 B4000000 		.4byte	0xb4
 394 0125 03       		.uleb128 0x3
 395 0126 5A040000 		.4byte	.LASF24
 396 012a 06       		.byte	0x6
 397 012b 2C       		.byte	0x2c
 398 012c B4000000 		.4byte	0xb4
 399 0130 03       		.uleb128 0x3
ARM GAS  /tmp/cc1lMVxE.s 			page 8


 400 0131 90040000 		.4byte	.LASF25
 401 0135 06       		.byte	0x6
 402 0136 2E       		.byte	0x2e
 403 0137 E4000000 		.4byte	0xe4
 404 013b 03       		.uleb128 0x3
 405 013c 93020000 		.4byte	.LASF26
 406 0140 06       		.byte	0x6
 407 0141 2F       		.byte	0x2f
 408 0142 D4000000 		.4byte	0xd4
 409 0146 03       		.uleb128 0x3
 410 0147 F6020000 		.4byte	.LASF27
 411 014b 06       		.byte	0x6
 412 014c 31       		.byte	0x31
 413 014d E4000000 		.4byte	0xe4
 414 0151 03       		.uleb128 0x3
 415 0152 FA010000 		.4byte	.LASF28
 416 0156 06       		.byte	0x6
 417 0157 33       		.byte	0x33
 418 0158 D4000000 		.4byte	0xd4
 419 015c 03       		.uleb128 0x3
 420 015d A4020000 		.4byte	.LASF29
 421 0161 06       		.byte	0x6
 422 0162 34       		.byte	0x34
 423 0163 E4000000 		.4byte	0xe4
 424 0167 03       		.uleb128 0x3
 425 0168 00070000 		.4byte	.LASF30
 426 016c 07       		.byte	0x7
 427 016d 34       		.byte	0x34
 428 016e 72010000 		.4byte	0x172
 429 0172 07       		.uleb128 0x7
 430 0173 7F020000 		.4byte	.LASF48
 431 0177 44       		.byte	0x44
 432 0178 08       		.byte	0x8
 433 0179 8E       		.byte	0x8e
 434 017a 50020000 		.4byte	0x250
 435 017e 08       		.uleb128 0x8
 436 017f 91030000 		.4byte	.LASF31
 437 0183 08       		.byte	0x8
 438 0184 8F       		.byte	0x8f
 439 0185 85020000 		.4byte	0x285
 440 0189 00       		.byte	0
 441 018a 08       		.uleb128 0x8
 442 018b 23040000 		.4byte	.LASF32
 443 018f 08       		.byte	0x8
 444 0190 90       		.byte	0x90
 445 0191 30010000 		.4byte	0x130
 446 0195 08       		.byte	0x8
 447 0196 09       		.uleb128 0x9
 448 0197 63747800 		.ascii	"ctx\000"
 449 019b 08       		.byte	0x8
 450 019c 91       		.byte	0x91
 451 019d F1060000 		.4byte	0x6f1
 452 01a1 0C       		.byte	0xc
 453 01a2 08       		.uleb128 0x8
 454 01a3 2C030000 		.4byte	.LASF33
 455 01a7 08       		.byte	0x8
 456 01a8 93       		.byte	0x93
ARM GAS  /tmp/cc1lMVxE.s 			page 9


 457 01a9 5B020000 		.4byte	0x25b
 458 01ad 10       		.byte	0x10
 459 01ae 08       		.uleb128 0x8
 460 01af D1060000 		.4byte	.LASF34
 461 01b3 08       		.byte	0x8
 462 01b4 94       		.byte	0x94
 463 01b5 5B020000 		.4byte	0x25b
 464 01b9 14       		.byte	0x14
 465 01ba 08       		.uleb128 0x8
 466 01bb 5D020000 		.4byte	.LASF35
 467 01bf 08       		.byte	0x8
 468 01c0 9B       		.byte	0x9b
 469 01c1 960A0000 		.4byte	0xa96
 470 01c5 18       		.byte	0x18
 471 01c6 08       		.uleb128 0x8
 472 01c7 C5060000 		.4byte	.LASF36
 473 01cb 08       		.byte	0x8
 474 01cc A4       		.byte	0xa4
 475 01cd AD0A0000 		.4byte	0xaad
 476 01d1 1C       		.byte	0x1c
 477 01d2 08       		.uleb128 0x8
 478 01d3 29010000 		.4byte	.LASF37
 479 01d7 08       		.byte	0x8
 480 01d8 A9       		.byte	0xa9
 481 01d9 1A010000 		.4byte	0x11a
 482 01dd 20       		.byte	0x20
 483 01de 08       		.uleb128 0x8
 484 01df 38080000 		.4byte	.LASF38
 485 01e3 08       		.byte	0x8
 486 01e4 AD       		.byte	0xad
 487 01e5 0F010000 		.4byte	0x10f
 488 01e9 21       		.byte	0x21
 489 01ea 08       		.uleb128 0x8
 490 01eb F4040000 		.4byte	.LASF39
 491 01ef 08       		.byte	0x8
 492 01f0 B2       		.byte	0xb2
 493 01f1 25010000 		.4byte	0x125
 494 01f5 22       		.byte	0x22
 495 01f6 0A       		.uleb128 0xa
 496 01f7 7500     		.ascii	"u\000"
 497 01f9 08       		.byte	0x8
 498 01fa 0301     		.2byte	0x103
 499 01fc CC090000 		.4byte	0x9cc
 500 0200 24       		.byte	0x24
 501 0201 0B       		.uleb128 0xb
 502 0202 BD010000 		.4byte	.LASF40
 503 0206 08       		.byte	0x8
 504 0207 0801     		.2byte	0x108
 505 0209 61020000 		.4byte	0x261
 506 020d 28       		.byte	0x28
 507 020e 0B       		.uleb128 0xb
 508 020f 20010000 		.4byte	.LASF41
 509 0213 08       		.byte	0x8
 510 0214 0E01     		.2byte	0x10e
 511 0216 85020000 		.4byte	0x285
 512 021a 2C       		.byte	0x2c
 513 021b 0B       		.uleb128 0xb
ARM GAS  /tmp/cc1lMVxE.s 			page 10


 514 021c AB020000 		.4byte	.LASF42
 515 0220 08       		.byte	0x8
 516 0221 1401     		.2byte	0x114
 517 0223 46010000 		.4byte	0x146
 518 0227 34       		.byte	0x34
 519 0228 0B       		.uleb128 0xb
 520 0229 93080000 		.4byte	.LASF43
 521 022d 08       		.byte	0x8
 522 022e 1B01     		.2byte	0x11b
 523 0230 900A0000 		.4byte	0xa90
 524 0234 38       		.byte	0x38
 525 0235 0B       		.uleb128 0xb
 526 0236 41030000 		.4byte	.LASF44
 527 023a 08       		.byte	0x8
 528 023b 1F01     		.2byte	0x11f
 529 023d 30010000 		.4byte	0x130
 530 0241 3C       		.byte	0x3c
 531 0242 0B       		.uleb128 0xb
 532 0243 67020000 		.4byte	.LASF45
 533 0247 08       		.byte	0x8
 534 0248 2601     		.2byte	0x126
 535 024a 38030000 		.4byte	0x338
 536 024e 40       		.byte	0x40
 537 024f 00       		.byte	0
 538 0250 03       		.uleb128 0x3
 539 0251 52080000 		.4byte	.LASF46
 540 0255 07       		.byte	0x7
 541 0256 39       		.byte	0x39
 542 0257 5B020000 		.4byte	0x25b
 543 025b 0C       		.uleb128 0xc
 544 025c 04       		.byte	0x4
 545 025d 67010000 		.4byte	0x167
 546 0261 03       		.uleb128 0x3
 547 0262 32030000 		.4byte	.LASF47
 548 0266 07       		.byte	0x7
 549 0267 3E       		.byte	0x3e
 550 0268 6C020000 		.4byte	0x26c
 551 026c 07       		.uleb128 0x7
 552 026d C1050000 		.4byte	.LASF49
 553 0271 04       		.byte	0x4
 554 0272 08       		.byte	0x8
 555 0273 7C       		.byte	0x7c
 556 0274 85020000 		.4byte	0x285
 557 0278 08       		.uleb128 0x8
 558 0279 C8000000 		.4byte	.LASF50
 559 027d 08       		.byte	0x8
 560 027e 7D       		.byte	0x7d
 561 027f 5B020000 		.4byte	0x25b
 562 0283 00       		.byte	0
 563 0284 00       		.byte	0
 564 0285 03       		.uleb128 0x3
 565 0286 06080000 		.4byte	.LASF51
 566 028a 07       		.byte	0x7
 567 028b 45       		.byte	0x45
 568 028c 90020000 		.4byte	0x290
 569 0290 07       		.uleb128 0x7
 570 0291 CD000000 		.4byte	.LASF52
ARM GAS  /tmp/cc1lMVxE.s 			page 11


 571 0295 08       		.byte	0x8
 572 0296 08       		.byte	0x8
 573 0297 83       		.byte	0x83
 574 0298 B5020000 		.4byte	0x2b5
 575 029c 08       		.uleb128 0x8
 576 029d C8000000 		.4byte	.LASF50
 577 02a1 08       		.byte	0x8
 578 02a2 84       		.byte	0x84
 579 02a3 5B020000 		.4byte	0x25b
 580 02a7 00       		.byte	0
 581 02a8 08       		.uleb128 0x8
 582 02a9 47000000 		.4byte	.LASF53
 583 02ad 08       		.byte	0x8
 584 02ae 85       		.byte	0x85
 585 02af 5B020000 		.4byte	0x25b
 586 02b3 04       		.byte	0x4
 587 02b4 00       		.byte	0
 588 02b5 03       		.uleb128 0x3
 589 02b6 00000000 		.4byte	.LASF54
 590 02ba 07       		.byte	0x7
 591 02bb 4C       		.byte	0x4c
 592 02bc C0020000 		.4byte	0x2c0
 593 02c0 0D       		.uleb128 0xd
 594 02c1 E8020000 		.4byte	.LASF55
 595 02c5 1C       		.byte	0x1c
 596 02c6 08       		.byte	0x8
 597 02c7 5E01     		.2byte	0x15e
 598 02c9 1C030000 		.4byte	0x31c
 599 02cd 0B       		.uleb128 0xb
 600 02ce 91030000 		.4byte	.LASF31
 601 02d2 08       		.byte	0x8
 602 02d3 5F01     		.2byte	0x15f
 603 02d5 85020000 		.4byte	0x285
 604 02d9 00       		.byte	0
 605 02da 0B       		.uleb128 0xb
 606 02db 23040000 		.4byte	.LASF32
 607 02df 08       		.byte	0x8
 608 02e0 6001     		.2byte	0x160
 609 02e2 30010000 		.4byte	0x130
 610 02e6 08       		.byte	0x8
 611 02e7 0A       		.uleb128 0xa
 612 02e8 63747800 		.ascii	"ctx\000"
 613 02ec 08       		.byte	0x8
 614 02ed 6201     		.2byte	0x162
 615 02ef F1060000 		.4byte	0x6f1
 616 02f3 0C       		.byte	0xc
 617 02f4 0B       		.uleb128 0xb
 618 02f5 2C030000 		.4byte	.LASF33
 619 02f9 08       		.byte	0x8
 620 02fa 6501     		.2byte	0x165
 621 02fc 5B020000 		.4byte	0x25b
 622 0300 10       		.byte	0x10
 623 0301 0B       		.uleb128 0xb
 624 0302 D1060000 		.4byte	.LASF34
 625 0306 08       		.byte	0x8
 626 0307 6601     		.2byte	0x166
 627 0309 5B020000 		.4byte	0x25b
ARM GAS  /tmp/cc1lMVxE.s 			page 12


 628 030d 14       		.byte	0x14
 629 030e 0B       		.uleb128 0xb
 630 030f 31040000 		.4byte	.LASF56
 631 0313 08       		.byte	0x8
 632 0314 6901     		.2byte	0x169
 633 0316 5B020000 		.4byte	0x25b
 634 031a 18       		.byte	0x18
 635 031b 00       		.byte	0
 636 031c 03       		.uleb128 0x3
 637 031d 1E070000 		.4byte	.LASF57
 638 0321 07       		.byte	0x7
 639 0322 51       		.byte	0x51
 640 0323 27030000 		.4byte	0x327
 641 0327 0C       		.uleb128 0xc
 642 0328 04       		.byte	0x4
 643 0329 2D030000 		.4byte	0x32d
 644 032d 0E       		.uleb128 0xe
 645 032e 38030000 		.4byte	0x338
 646 0332 0F       		.uleb128 0xf
 647 0333 38030000 		.4byte	0x338
 648 0337 00       		.byte	0
 649 0338 10       		.uleb128 0x10
 650 0339 04       		.byte	0x4
 651 033a 03       		.uleb128 0x3
 652 033b 71040000 		.4byte	.LASF58
 653 033f 07       		.byte	0x7
 654 0340 56       		.byte	0x56
 655 0341 45030000 		.4byte	0x345
 656 0345 0D       		.uleb128 0xd
 657 0346 65050000 		.4byte	.LASF59
 658 034a 14       		.byte	0x14
 659 034b 08       		.byte	0x8
 660 034c 3901     		.2byte	0x139
 661 034e 94030000 		.4byte	0x394
 662 0352 0B       		.uleb128 0xb
 663 0353 C8000000 		.4byte	.LASF50
 664 0357 08       		.byte	0x8
 665 0358 3A01     		.2byte	0x13a
 666 035a B30A0000 		.4byte	0xab3
 667 035e 00       		.byte	0
 668 035f 0B       		.uleb128 0xb
 669 0360 47000000 		.4byte	.LASF53
 670 0364 08       		.byte	0x8
 671 0365 3B01     		.2byte	0x13b
 672 0367 B30A0000 		.4byte	0xab3
 673 036b 04       		.byte	0x4
 674 036c 0B       		.uleb128 0xb
 675 036d 14000000 		.4byte	.LASF60
 676 0371 08       		.byte	0x8
 677 0372 3C01     		.2byte	0x13c
 678 0374 6B040000 		.4byte	0x46b
 679 0378 08       		.byte	0x8
 680 0379 0B       		.uleb128 0xb
 681 037a 4D010000 		.4byte	.LASF61
 682 037e 08       		.byte	0x8
 683 037f 3D01     		.2byte	0x13d
 684 0381 1C030000 		.4byte	0x31c
ARM GAS  /tmp/cc1lMVxE.s 			page 13


 685 0385 0C       		.byte	0xc
 686 0386 0A       		.uleb128 0xa
 687 0387 70617200 		.ascii	"par\000"
 688 038b 08       		.byte	0x8
 689 038c 3F01     		.2byte	0x13f
 690 038e 38030000 		.4byte	0x338
 691 0392 10       		.byte	0x10
 692 0393 00       		.byte	0
 693 0394 03       		.uleb128 0x3
 694 0395 AC000000 		.4byte	.LASF62
 695 0399 07       		.byte	0x7
 696 039a 5B       		.byte	0x5b
 697 039b 9F030000 		.4byte	0x39f
 698 039f 0D       		.uleb128 0xd
 699 03a0 6E030000 		.4byte	.LASF63
 700 03a4 10       		.byte	0x10
 701 03a5 08       		.byte	0x8
 702 03a6 4901     		.2byte	0x149
 703 03a8 E1030000 		.4byte	0x3e1
 704 03ac 0B       		.uleb128 0xb
 705 03ad C8000000 		.4byte	.LASF50
 706 03b1 08       		.byte	0x8
 707 03b2 4A01     		.2byte	0x14a
 708 03b4 B30A0000 		.4byte	0xab3
 709 03b8 00       		.byte	0
 710 03b9 0B       		.uleb128 0xb
 711 03ba 47000000 		.4byte	.LASF53
 712 03be 08       		.byte	0x8
 713 03bf 4C01     		.2byte	0x14c
 714 03c1 B30A0000 		.4byte	0xab3
 715 03c5 04       		.byte	0x4
 716 03c6 0B       		.uleb128 0xb
 717 03c7 14000000 		.4byte	.LASF60
 718 03cb 08       		.byte	0x8
 719 03cc 4E01     		.2byte	0x14e
 720 03ce 6B040000 		.4byte	0x46b
 721 03d2 08       		.byte	0x8
 722 03d3 0B       		.uleb128 0xb
 723 03d4 03050000 		.4byte	.LASF64
 724 03d8 08       		.byte	0x8
 725 03d9 5601     		.2byte	0x156
 726 03db 60040000 		.4byte	0x460
 727 03df 0C       		.byte	0xc
 728 03e0 00       		.byte	0
 729 03e1 03       		.uleb128 0x3
 730 03e2 58000000 		.4byte	.LASF65
 731 03e6 07       		.byte	0x7
 732 03e7 60       		.byte	0x60
 733 03e8 EC030000 		.4byte	0x3ec
 734 03ec 0D       		.uleb128 0xd
 735 03ed AD010000 		.4byte	.LASF66
 736 03f1 04       		.byte	0x4
 737 03f2 08       		.byte	0x8
 738 03f3 7001     		.2byte	0x170
 739 03f5 07040000 		.4byte	0x407
 740 03f9 0B       		.uleb128 0xb
 741 03fa 35070000 		.4byte	.LASF67
ARM GAS  /tmp/cc1lMVxE.s 			page 14


 742 03fe 08       		.byte	0x8
 743 03ff 7801     		.2byte	0x178
 744 0401 9C0A0000 		.4byte	0xa9c
 745 0405 00       		.byte	0
 746 0406 00       		.byte	0
 747 0407 03       		.uleb128 0x3
 748 0408 7B070000 		.4byte	.LASF68
 749 040c 07       		.byte	0x7
 750 040d 65       		.byte	0x65
 751 040e 12040000 		.4byte	0x412
 752 0412 0D       		.uleb128 0xd
 753 0413 18050000 		.4byte	.LASF69
 754 0417 78       		.byte	0x78
 755 0418 08       		.byte	0x8
 756 0419 9001     		.2byte	0x190
 757 041b 60040000 		.4byte	0x460
 758 041f 0B       		.uleb128 0xb
 759 0420 FA000000 		.4byte	.LASF70
 760 0424 08       		.byte	0x8
 761 0425 9401     		.2byte	0x194
 762 0427 B5020000 		.4byte	0x2b5
 763 042b 00       		.byte	0
 764 042c 0B       		.uleb128 0xb
 765 042d 0D010000 		.4byte	.LASF71
 766 0431 08       		.byte	0x8
 767 0432 9801     		.2byte	0x198
 768 0434 94030000 		.4byte	0x394
 769 0438 1C       		.byte	0x1c
 770 0439 0A       		.uleb128 0xa
 771 043a 64626700 		.ascii	"dbg\000"
 772 043e 08       		.byte	0x8
 773 043f 9C01     		.2byte	0x19c
 774 0441 E1030000 		.4byte	0x3e1
 775 0445 2C       		.byte	0x2c
 776 0446 0B       		.uleb128 0xb
 777 0447 99000000 		.4byte	.LASF72
 778 044b 08       		.byte	0x8
 779 044c A001     		.2byte	0x1a0
 780 044e 67010000 		.4byte	0x167
 781 0452 30       		.byte	0x30
 782 0453 0A       		.uleb128 0xa
 783 0454 746D00   		.ascii	"tm\000"
 784 0457 08       		.byte	0x8
 785 0458 A501     		.2byte	0x1a5
 786 045a C1090000 		.4byte	0x9c1
 787 045e 74       		.byte	0x74
 788 045f 00       		.byte	0
 789 0460 03       		.uleb128 0x3
 790 0461 14070000 		.4byte	.LASF73
 791 0465 09       		.byte	0x9
 792 0466 6D       		.byte	0x6d
 793 0467 E4000000 		.4byte	0xe4
 794 046b 03       		.uleb128 0x3
 795 046c EC010000 		.4byte	.LASF74
 796 0470 09       		.byte	0x9
 797 0471 79       		.byte	0x79
 798 0472 E4000000 		.4byte	0xe4
ARM GAS  /tmp/cc1lMVxE.s 			page 15


 799 0476 11       		.uleb128 0x11
 800 0477 8C       		.byte	0x8c
 801 0478 0A       		.byte	0xa
 802 0479 B801     		.2byte	0x1b8
 803 047b 91050000 		.4byte	0x591
 804 047f 0B       		.uleb128 0xb
 805 0480 C2000000 		.4byte	.LASF75
 806 0484 0A       		.byte	0xa
 807 0485 BA01     		.2byte	0x1ba
 808 0487 F4000000 		.4byte	0xf4
 809 048b 00       		.byte	0
 810 048c 0B       		.uleb128 0xb
 811 048d 8E020000 		.4byte	.LASF76
 812 0491 0A       		.byte	0xa
 813 0492 BB01     		.2byte	0x1bb
 814 0494 EF000000 		.4byte	0xef
 815 0498 04       		.byte	0x4
 816 0499 0B       		.uleb128 0xb
 817 049a 62020000 		.4byte	.LASF77
 818 049e 0A       		.byte	0xa
 819 049f BC01     		.2byte	0x1bc
 820 04a1 EF000000 		.4byte	0xef
 821 04a5 08       		.byte	0x8
 822 04a6 0B       		.uleb128 0xb
 823 04a7 99020000 		.4byte	.LASF78
 824 04ab 0A       		.byte	0xa
 825 04ac BD01     		.2byte	0x1bd
 826 04ae EF000000 		.4byte	0xef
 827 04b2 0C       		.byte	0xc
 828 04b3 0A       		.uleb128 0xa
 829 04b4 53435200 		.ascii	"SCR\000"
 830 04b8 0A       		.byte	0xa
 831 04b9 BE01     		.2byte	0x1be
 832 04bb EF000000 		.4byte	0xef
 833 04bf 10       		.byte	0x10
 834 04c0 0A       		.uleb128 0xa
 835 04c1 43435200 		.ascii	"CCR\000"
 836 04c5 0A       		.byte	0xa
 837 04c6 BF01     		.2byte	0x1bf
 838 04c8 EF000000 		.4byte	0xef
 839 04cc 14       		.byte	0x14
 840 04cd 0A       		.uleb128 0xa
 841 04ce 53485000 		.ascii	"SHP\000"
 842 04d2 0A       		.byte	0xa
 843 04d3 C001     		.2byte	0x1c0
 844 04d5 A1050000 		.4byte	0x5a1
 845 04d9 18       		.byte	0x18
 846 04da 0B       		.uleb128 0xb
 847 04db E1040000 		.4byte	.LASF79
 848 04df 0A       		.byte	0xa
 849 04e0 C101     		.2byte	0x1c1
 850 04e2 EF000000 		.4byte	0xef
 851 04e6 24       		.byte	0x24
 852 04e7 0B       		.uleb128 0xb
 853 04e8 A3030000 		.4byte	.LASF80
 854 04ec 0A       		.byte	0xa
 855 04ed C201     		.2byte	0x1c2
ARM GAS  /tmp/cc1lMVxE.s 			page 16


 856 04ef EF000000 		.4byte	0xef
 857 04f3 28       		.byte	0x28
 858 04f4 0B       		.uleb128 0xb
 859 04f5 8E080000 		.4byte	.LASF81
 860 04f9 0A       		.byte	0xa
 861 04fa C301     		.2byte	0x1c3
 862 04fc EF000000 		.4byte	0xef
 863 0500 2C       		.byte	0x2c
 864 0501 0B       		.uleb128 0xb
 865 0502 9F020000 		.4byte	.LASF82
 866 0506 0A       		.byte	0xa
 867 0507 C401     		.2byte	0x1c4
 868 0509 EF000000 		.4byte	0xef
 869 050d 30       		.byte	0x30
 870 050e 0B       		.uleb128 0xb
 871 050f BF020000 		.4byte	.LASF83
 872 0513 0A       		.byte	0xa
 873 0514 C501     		.2byte	0x1c5
 874 0516 EF000000 		.4byte	0xef
 875 051a 34       		.byte	0x34
 876 051b 0B       		.uleb128 0xb
 877 051c 89020000 		.4byte	.LASF84
 878 0520 0A       		.byte	0xa
 879 0521 C601     		.2byte	0x1c6
 880 0523 EF000000 		.4byte	0xef
 881 0527 38       		.byte	0x38
 882 0528 0B       		.uleb128 0xb
 883 0529 8B010000 		.4byte	.LASF85
 884 052d 0A       		.byte	0xa
 885 052e C701     		.2byte	0x1c7
 886 0530 EF000000 		.4byte	0xef
 887 0534 3C       		.byte	0x3c
 888 0535 0A       		.uleb128 0xa
 889 0536 50465200 		.ascii	"PFR\000"
 890 053a 0A       		.byte	0xa
 891 053b C801     		.2byte	0x1c8
 892 053d BB050000 		.4byte	0x5bb
 893 0541 40       		.byte	0x40
 894 0542 0A       		.uleb128 0xa
 895 0543 44465200 		.ascii	"DFR\000"
 896 0547 0A       		.byte	0xa
 897 0548 C901     		.2byte	0x1c9
 898 054a F4000000 		.4byte	0xf4
 899 054e 48       		.byte	0x48
 900 054f 0A       		.uleb128 0xa
 901 0550 41445200 		.ascii	"ADR\000"
 902 0554 0A       		.byte	0xa
 903 0555 CA01     		.2byte	0x1ca
 904 0557 F4000000 		.4byte	0xf4
 905 055b 4C       		.byte	0x4c
 906 055c 0B       		.uleb128 0xb
 907 055d 22080000 		.4byte	.LASF86
 908 0561 0A       		.byte	0xa
 909 0562 CB01     		.2byte	0x1cb
 910 0564 D5050000 		.4byte	0x5d5
 911 0568 50       		.byte	0x50
 912 0569 0B       		.uleb128 0xb
ARM GAS  /tmp/cc1lMVxE.s 			page 17


 913 056a 00010000 		.4byte	.LASF87
 914 056e 0A       		.byte	0xa
 915 056f CC01     		.2byte	0x1cc
 916 0571 EF050000 		.4byte	0x5ef
 917 0575 60       		.byte	0x60
 918 0576 0B       		.uleb128 0xb
 919 0577 62040000 		.4byte	.LASF88
 920 057b 0A       		.byte	0xa
 921 057c CD01     		.2byte	0x1cd
 922 057e F4050000 		.4byte	0x5f4
 923 0582 74       		.byte	0x74
 924 0583 0B       		.uleb128 0xb
 925 0584 88080000 		.4byte	.LASF89
 926 0588 0A       		.byte	0xa
 927 0589 CE01     		.2byte	0x1ce
 928 058b EF000000 		.4byte	0xef
 929 058f 88       		.byte	0x88
 930 0590 00       		.byte	0
 931 0591 12       		.uleb128 0x12
 932 0592 BF000000 		.4byte	0xbf
 933 0596 A1050000 		.4byte	0x5a1
 934 059a 13       		.uleb128 0x13
 935 059b 37000000 		.4byte	0x37
 936 059f 0B       		.byte	0xb
 937 05a0 00       		.byte	0
 938 05a1 05       		.uleb128 0x5
 939 05a2 91050000 		.4byte	0x591
 940 05a6 12       		.uleb128 0x12
 941 05a7 F4000000 		.4byte	0xf4
 942 05ab B6050000 		.4byte	0x5b6
 943 05af 13       		.uleb128 0x13
 944 05b0 37000000 		.4byte	0x37
 945 05b4 01       		.byte	0x1
 946 05b5 00       		.byte	0
 947 05b6 06       		.uleb128 0x6
 948 05b7 A6050000 		.4byte	0x5a6
 949 05bb 05       		.uleb128 0x5
 950 05bc B6050000 		.4byte	0x5b6
 951 05c0 12       		.uleb128 0x12
 952 05c1 F4000000 		.4byte	0xf4
 953 05c5 D0050000 		.4byte	0x5d0
 954 05c9 13       		.uleb128 0x13
 955 05ca 37000000 		.4byte	0x37
 956 05ce 03       		.byte	0x3
 957 05cf 00       		.byte	0
 958 05d0 06       		.uleb128 0x6
 959 05d1 C0050000 		.4byte	0x5c0
 960 05d5 05       		.uleb128 0x5
 961 05d6 D0050000 		.4byte	0x5d0
 962 05da 12       		.uleb128 0x12
 963 05db F4000000 		.4byte	0xf4
 964 05df EA050000 		.4byte	0x5ea
 965 05e3 13       		.uleb128 0x13
 966 05e4 37000000 		.4byte	0x37
 967 05e8 04       		.byte	0x4
 968 05e9 00       		.byte	0
 969 05ea 06       		.uleb128 0x6
ARM GAS  /tmp/cc1lMVxE.s 			page 18


 970 05eb DA050000 		.4byte	0x5da
 971 05ef 05       		.uleb128 0x5
 972 05f0 EA050000 		.4byte	0x5ea
 973 05f4 12       		.uleb128 0x12
 974 05f5 E4000000 		.4byte	0xe4
 975 05f9 04060000 		.4byte	0x604
 976 05fd 13       		.uleb128 0x13
 977 05fe 37000000 		.4byte	0x37
 978 0602 04       		.byte	0x4
 979 0603 00       		.byte	0
 980 0604 14       		.uleb128 0x14
 981 0605 A4010000 		.4byte	.LASF90
 982 0609 0A       		.byte	0xa
 983 060a CF01     		.2byte	0x1cf
 984 060c 76040000 		.4byte	0x476
 985 0610 12       		.uleb128 0x12
 986 0611 E4000000 		.4byte	0xe4
 987 0615 20060000 		.4byte	0x620
 988 0619 13       		.uleb128 0x13
 989 061a 37000000 		.4byte	0x37
 990 061e 00       		.byte	0
 991 061f 00       		.byte	0
 992 0620 11       		.uleb128 0x11
 993 0621 18       		.byte	0x18
 994 0622 0A       		.byte	0xa
 995 0623 2705     		.2byte	0x527
 996 0625 78060000 		.4byte	0x678
 997 0629 0B       		.uleb128 0xb
 998 062a 62040000 		.4byte	.LASF88
 999 062e 0A       		.byte	0xa
 1000 062f 2905     		.2byte	0x529
 1001 0631 10060000 		.4byte	0x610
 1002 0635 00       		.byte	0
 1003 0636 0B       		.uleb128 0xb
 1004 0637 52030000 		.4byte	.LASF91
 1005 063b 0A       		.byte	0xa
 1006 063c 2A05     		.2byte	0x52a
 1007 063e EF000000 		.4byte	0xef
 1008 0642 04       		.byte	0x4
 1009 0643 0B       		.uleb128 0xb
 1010 0644 43050000 		.4byte	.LASF92
 1011 0648 0A       		.byte	0xa
 1012 0649 2B05     		.2byte	0x52b
 1013 064b EF000000 		.4byte	0xef
 1014 064f 08       		.byte	0x8
 1015 0650 0B       		.uleb128 0xb
 1016 0651 21000000 		.4byte	.LASF93
 1017 0655 0A       		.byte	0xa
 1018 0656 2C05     		.2byte	0x52c
 1019 0658 EF000000 		.4byte	0xef
 1020 065c 0C       		.byte	0xc
 1021 065d 0B       		.uleb128 0xb
 1022 065e 4E040000 		.4byte	.LASF94
 1023 0662 0A       		.byte	0xa
 1024 0663 2D05     		.2byte	0x52d
 1025 0665 F4000000 		.4byte	0xf4
 1026 0669 10       		.byte	0x10
ARM GAS  /tmp/cc1lMVxE.s 			page 19


 1027 066a 0B       		.uleb128 0xb
 1028 066b 54040000 		.4byte	.LASF95
 1029 066f 0A       		.byte	0xa
 1030 0670 2E05     		.2byte	0x52e
 1031 0672 F4000000 		.4byte	0xf4
 1032 0676 14       		.byte	0x14
 1033 0677 00       		.byte	0
 1034 0678 14       		.uleb128 0x14
 1035 0679 00020000 		.4byte	.LASF96
 1036 067d 0A       		.byte	0xa
 1037 067e 2F05     		.2byte	0x52f
 1038 0680 20060000 		.4byte	0x620
 1039 0684 15       		.uleb128 0x15
 1040 0685 E7040000 		.4byte	.LASF97
 1041 0689 0A       		.byte	0xa
 1042 068a 0408     		.2byte	0x804
 1043 068c DF000000 		.4byte	0xdf
 1044 0690 16       		.uleb128 0x16
 1045 0691 29020000 		.4byte	.LASF98
 1046 0695 0B       		.byte	0xb
 1047 0696 4C       		.byte	0x4c
 1048 0697 E4000000 		.4byte	0xe4
 1049 069b 12       		.uleb128 0x12
 1050 069c C4000000 		.4byte	0xc4
 1051 06a0 AB060000 		.4byte	0x6ab
 1052 06a4 13       		.uleb128 0x13
 1053 06a5 37000000 		.4byte	0x37
 1054 06a9 0F       		.byte	0xf
 1055 06aa 00       		.byte	0
 1056 06ab 06       		.uleb128 0x6
 1057 06ac 9B060000 		.4byte	0x69b
 1058 06b0 16       		.uleb128 0x16
 1059 06b1 02030000 		.4byte	.LASF99
 1060 06b5 0B       		.byte	0xb
 1061 06b6 4E       		.byte	0x4e
 1062 06b7 AB060000 		.4byte	0x6ab
 1063 06bb 12       		.uleb128 0x12
 1064 06bc C4000000 		.4byte	0xc4
 1065 06c0 CB060000 		.4byte	0x6cb
 1066 06c4 13       		.uleb128 0x13
 1067 06c5 37000000 		.4byte	0x37
 1068 06c9 07       		.byte	0x7
 1069 06ca 00       		.byte	0
 1070 06cb 06       		.uleb128 0x6
 1071 06cc BB060000 		.4byte	0x6bb
 1072 06d0 16       		.uleb128 0x16
 1073 06d1 C5010000 		.4byte	.LASF100
 1074 06d5 0B       		.byte	0xb
 1075 06d6 4F       		.byte	0x4f
 1076 06d7 CB060000 		.4byte	0x6cb
 1077 06db 03       		.uleb128 0x3
 1078 06dc 9B010000 		.4byte	.LASF101
 1079 06e0 0C       		.byte	0xc
 1080 06e1 65       		.byte	0x65
 1081 06e2 38030000 		.4byte	0x338
 1082 06e6 03       		.uleb128 0x3
 1083 06e7 21030000 		.4byte	.LASF102
ARM GAS  /tmp/cc1lMVxE.s 			page 20


 1084 06eb 0C       		.byte	0xc
 1085 06ec 6D       		.byte	0x6d
 1086 06ed F9000000 		.4byte	0xf9
 1087 06f1 07       		.uleb128 0x7
 1088 06f2 F9030000 		.4byte	.LASF103
 1089 06f6 04       		.byte	0x4
 1090 06f7 0C       		.byte	0xc
 1091 06f8 89       		.byte	0x89
 1092 06f9 09070000 		.4byte	0x709
 1093 06fd 09       		.uleb128 0x9
 1094 06fe 737000   		.ascii	"sp\000"
 1095 0701 0C       		.byte	0xc
 1096 0702 8A       		.byte	0x8a
 1097 0703 55080000 		.4byte	0x855
 1098 0707 00       		.byte	0
 1099 0708 00       		.byte	0
 1100 0709 0D       		.uleb128 0xd
 1101 070a 4C000000 		.4byte	.LASF104
 1102 070e 64       		.byte	0x64
 1103 070f 0D       		.byte	0xd
 1104 0710 5901     		.2byte	0x159
 1105 0712 55080000 		.4byte	0x855
 1106 0716 0A       		.uleb128 0xa
 1107 0717 73313600 		.ascii	"s16\000"
 1108 071b 0D       		.byte	0xd
 1109 071c 5B01     		.2byte	0x15b
 1110 071e DB060000 		.4byte	0x6db
 1111 0722 00       		.byte	0
 1112 0723 0A       		.uleb128 0xa
 1113 0724 73313700 		.ascii	"s17\000"
 1114 0728 0D       		.byte	0xd
 1115 0729 5C01     		.2byte	0x15c
 1116 072b DB060000 		.4byte	0x6db
 1117 072f 04       		.byte	0x4
 1118 0730 0A       		.uleb128 0xa
 1119 0731 73313800 		.ascii	"s18\000"
 1120 0735 0D       		.byte	0xd
 1121 0736 5D01     		.2byte	0x15d
 1122 0738 DB060000 		.4byte	0x6db
 1123 073c 08       		.byte	0x8
 1124 073d 0A       		.uleb128 0xa
 1125 073e 73313900 		.ascii	"s19\000"
 1126 0742 0D       		.byte	0xd
 1127 0743 5E01     		.2byte	0x15e
 1128 0745 DB060000 		.4byte	0x6db
 1129 0749 0C       		.byte	0xc
 1130 074a 0A       		.uleb128 0xa
 1131 074b 73323000 		.ascii	"s20\000"
 1132 074f 0D       		.byte	0xd
 1133 0750 5F01     		.2byte	0x15f
 1134 0752 DB060000 		.4byte	0x6db
 1135 0756 10       		.byte	0x10
 1136 0757 0A       		.uleb128 0xa
 1137 0758 73323100 		.ascii	"s21\000"
 1138 075c 0D       		.byte	0xd
 1139 075d 6001     		.2byte	0x160
 1140 075f DB060000 		.4byte	0x6db
ARM GAS  /tmp/cc1lMVxE.s 			page 21


 1141 0763 14       		.byte	0x14
 1142 0764 0A       		.uleb128 0xa
 1143 0765 73323200 		.ascii	"s22\000"
 1144 0769 0D       		.byte	0xd
 1145 076a 6101     		.2byte	0x161
 1146 076c DB060000 		.4byte	0x6db
 1147 0770 18       		.byte	0x18
 1148 0771 0A       		.uleb128 0xa
 1149 0772 73323300 		.ascii	"s23\000"
 1150 0776 0D       		.byte	0xd
 1151 0777 6201     		.2byte	0x162
 1152 0779 DB060000 		.4byte	0x6db
 1153 077d 1C       		.byte	0x1c
 1154 077e 0A       		.uleb128 0xa
 1155 077f 73323400 		.ascii	"s24\000"
 1156 0783 0D       		.byte	0xd
 1157 0784 6301     		.2byte	0x163
 1158 0786 DB060000 		.4byte	0x6db
 1159 078a 20       		.byte	0x20
 1160 078b 0A       		.uleb128 0xa
 1161 078c 73323500 		.ascii	"s25\000"
 1162 0790 0D       		.byte	0xd
 1163 0791 6401     		.2byte	0x164
 1164 0793 DB060000 		.4byte	0x6db
 1165 0797 24       		.byte	0x24
 1166 0798 0A       		.uleb128 0xa
 1167 0799 73323600 		.ascii	"s26\000"
 1168 079d 0D       		.byte	0xd
 1169 079e 6501     		.2byte	0x165
 1170 07a0 DB060000 		.4byte	0x6db
 1171 07a4 28       		.byte	0x28
 1172 07a5 0A       		.uleb128 0xa
 1173 07a6 73323700 		.ascii	"s27\000"
 1174 07aa 0D       		.byte	0xd
 1175 07ab 6601     		.2byte	0x166
 1176 07ad DB060000 		.4byte	0x6db
 1177 07b1 2C       		.byte	0x2c
 1178 07b2 0A       		.uleb128 0xa
 1179 07b3 73323800 		.ascii	"s28\000"
 1180 07b7 0D       		.byte	0xd
 1181 07b8 6701     		.2byte	0x167
 1182 07ba DB060000 		.4byte	0x6db
 1183 07be 30       		.byte	0x30
 1184 07bf 0A       		.uleb128 0xa
 1185 07c0 73323900 		.ascii	"s29\000"
 1186 07c4 0D       		.byte	0xd
 1187 07c5 6801     		.2byte	0x168
 1188 07c7 DB060000 		.4byte	0x6db
 1189 07cb 34       		.byte	0x34
 1190 07cc 0A       		.uleb128 0xa
 1191 07cd 73333000 		.ascii	"s30\000"
 1192 07d1 0D       		.byte	0xd
 1193 07d2 6901     		.2byte	0x169
 1194 07d4 DB060000 		.4byte	0x6db
 1195 07d8 38       		.byte	0x38
 1196 07d9 0A       		.uleb128 0xa
 1197 07da 73333100 		.ascii	"s31\000"
ARM GAS  /tmp/cc1lMVxE.s 			page 22


 1198 07de 0D       		.byte	0xd
 1199 07df 6A01     		.2byte	0x16a
 1200 07e1 DB060000 		.4byte	0x6db
 1201 07e5 3C       		.byte	0x3c
 1202 07e6 0A       		.uleb128 0xa
 1203 07e7 723400   		.ascii	"r4\000"
 1204 07ea 0D       		.byte	0xd
 1205 07eb 6C01     		.2byte	0x16c
 1206 07ed DB060000 		.4byte	0x6db
 1207 07f1 40       		.byte	0x40
 1208 07f2 0A       		.uleb128 0xa
 1209 07f3 723500   		.ascii	"r5\000"
 1210 07f6 0D       		.byte	0xd
 1211 07f7 6D01     		.2byte	0x16d
 1212 07f9 DB060000 		.4byte	0x6db
 1213 07fd 44       		.byte	0x44
 1214 07fe 0A       		.uleb128 0xa
 1215 07ff 723600   		.ascii	"r6\000"
 1216 0802 0D       		.byte	0xd
 1217 0803 6E01     		.2byte	0x16e
 1218 0805 DB060000 		.4byte	0x6db
 1219 0809 48       		.byte	0x48
 1220 080a 0A       		.uleb128 0xa
 1221 080b 723700   		.ascii	"r7\000"
 1222 080e 0D       		.byte	0xd
 1223 080f 6F01     		.2byte	0x16f
 1224 0811 DB060000 		.4byte	0x6db
 1225 0815 4C       		.byte	0x4c
 1226 0816 0A       		.uleb128 0xa
 1227 0817 723800   		.ascii	"r8\000"
 1228 081a 0D       		.byte	0xd
 1229 081b 7001     		.2byte	0x170
 1230 081d DB060000 		.4byte	0x6db
 1231 0821 50       		.byte	0x50
 1232 0822 0A       		.uleb128 0xa
 1233 0823 723900   		.ascii	"r9\000"
 1234 0826 0D       		.byte	0xd
 1235 0827 7101     		.2byte	0x171
 1236 0829 DB060000 		.4byte	0x6db
 1237 082d 54       		.byte	0x54
 1238 082e 0A       		.uleb128 0xa
 1239 082f 72313000 		.ascii	"r10\000"
 1240 0833 0D       		.byte	0xd
 1241 0834 7201     		.2byte	0x172
 1242 0836 DB060000 		.4byte	0x6db
 1243 083a 58       		.byte	0x58
 1244 083b 0A       		.uleb128 0xa
 1245 083c 72313100 		.ascii	"r11\000"
 1246 0840 0D       		.byte	0xd
 1247 0841 7301     		.2byte	0x173
 1248 0843 DB060000 		.4byte	0x6db
 1249 0847 5C       		.byte	0x5c
 1250 0848 0A       		.uleb128 0xa
 1251 0849 6C7200   		.ascii	"lr\000"
 1252 084c 0D       		.byte	0xd
 1253 084d 7401     		.2byte	0x174
 1254 084f DB060000 		.4byte	0x6db
ARM GAS  /tmp/cc1lMVxE.s 			page 23


 1255 0853 60       		.byte	0x60
 1256 0854 00       		.byte	0
 1257 0855 0C       		.uleb128 0xc
 1258 0856 04       		.byte	0x4
 1259 0857 09070000 		.4byte	0x709
 1260 085b 0D       		.uleb128 0xd
 1261 085c 06040000 		.4byte	.LASF105
 1262 0860 68       		.byte	0x68
 1263 0861 0D       		.byte	0xd
 1264 0862 3A01     		.2byte	0x13a
 1265 0864 AC090000 		.4byte	0x9ac
 1266 0868 0A       		.uleb128 0xa
 1267 0869 723000   		.ascii	"r0\000"
 1268 086c 0D       		.byte	0xd
 1269 086d 3B01     		.2byte	0x13b
 1270 086f DB060000 		.4byte	0x6db
 1271 0873 00       		.byte	0
 1272 0874 0A       		.uleb128 0xa
 1273 0875 723100   		.ascii	"r1\000"
 1274 0878 0D       		.byte	0xd
 1275 0879 3C01     		.2byte	0x13c
 1276 087b DB060000 		.4byte	0x6db
 1277 087f 04       		.byte	0x4
 1278 0880 0A       		.uleb128 0xa
 1279 0881 723200   		.ascii	"r2\000"
 1280 0884 0D       		.byte	0xd
 1281 0885 3D01     		.2byte	0x13d
 1282 0887 DB060000 		.4byte	0x6db
 1283 088b 08       		.byte	0x8
 1284 088c 0A       		.uleb128 0xa
 1285 088d 723300   		.ascii	"r3\000"
 1286 0890 0D       		.byte	0xd
 1287 0891 3E01     		.2byte	0x13e
 1288 0893 DB060000 		.4byte	0x6db
 1289 0897 0C       		.byte	0xc
 1290 0898 0A       		.uleb128 0xa
 1291 0899 72313200 		.ascii	"r12\000"
 1292 089d 0D       		.byte	0xd
 1293 089e 3F01     		.2byte	0x13f
 1294 08a0 DB060000 		.4byte	0x6db
 1295 08a4 10       		.byte	0x10
 1296 08a5 0B       		.uleb128 0xb
 1297 08a6 33050000 		.4byte	.LASF106
 1298 08aa 0D       		.byte	0xd
 1299 08ab 4001     		.2byte	0x140
 1300 08ad DB060000 		.4byte	0x6db
 1301 08b1 14       		.byte	0x14
 1302 08b2 0A       		.uleb128 0xa
 1303 08b3 706300   		.ascii	"pc\000"
 1304 08b6 0D       		.byte	0xd
 1305 08b7 4101     		.2byte	0x141
 1306 08b9 DB060000 		.4byte	0x6db
 1307 08bd 18       		.byte	0x18
 1308 08be 0B       		.uleb128 0xb
 1309 08bf 0C050000 		.4byte	.LASF107
 1310 08c3 0D       		.byte	0xd
 1311 08c4 4201     		.2byte	0x142
ARM GAS  /tmp/cc1lMVxE.s 			page 24


 1312 08c6 DB060000 		.4byte	0x6db
 1313 08ca 1C       		.byte	0x1c
 1314 08cb 0A       		.uleb128 0xa
 1315 08cc 733000   		.ascii	"s0\000"
 1316 08cf 0D       		.byte	0xd
 1317 08d0 4401     		.2byte	0x144
 1318 08d2 DB060000 		.4byte	0x6db
 1319 08d6 20       		.byte	0x20
 1320 08d7 0A       		.uleb128 0xa
 1321 08d8 733100   		.ascii	"s1\000"
 1322 08db 0D       		.byte	0xd
 1323 08dc 4501     		.2byte	0x145
 1324 08de DB060000 		.4byte	0x6db
 1325 08e2 24       		.byte	0x24
 1326 08e3 0A       		.uleb128 0xa
 1327 08e4 733200   		.ascii	"s2\000"
 1328 08e7 0D       		.byte	0xd
 1329 08e8 4601     		.2byte	0x146
 1330 08ea DB060000 		.4byte	0x6db
 1331 08ee 28       		.byte	0x28
 1332 08ef 0A       		.uleb128 0xa
 1333 08f0 733300   		.ascii	"s3\000"
 1334 08f3 0D       		.byte	0xd
 1335 08f4 4701     		.2byte	0x147
 1336 08f6 DB060000 		.4byte	0x6db
 1337 08fa 2C       		.byte	0x2c
 1338 08fb 0A       		.uleb128 0xa
 1339 08fc 733400   		.ascii	"s4\000"
 1340 08ff 0D       		.byte	0xd
 1341 0900 4801     		.2byte	0x148
 1342 0902 DB060000 		.4byte	0x6db
 1343 0906 30       		.byte	0x30
 1344 0907 0A       		.uleb128 0xa
 1345 0908 733500   		.ascii	"s5\000"
 1346 090b 0D       		.byte	0xd
 1347 090c 4901     		.2byte	0x149
 1348 090e DB060000 		.4byte	0x6db
 1349 0912 34       		.byte	0x34
 1350 0913 0A       		.uleb128 0xa
 1351 0914 733600   		.ascii	"s6\000"
 1352 0917 0D       		.byte	0xd
 1353 0918 4A01     		.2byte	0x14a
 1354 091a DB060000 		.4byte	0x6db
 1355 091e 38       		.byte	0x38
 1356 091f 0A       		.uleb128 0xa
 1357 0920 733700   		.ascii	"s7\000"
 1358 0923 0D       		.byte	0xd
 1359 0924 4B01     		.2byte	0x14b
 1360 0926 DB060000 		.4byte	0x6db
 1361 092a 3C       		.byte	0x3c
 1362 092b 0A       		.uleb128 0xa
 1363 092c 733800   		.ascii	"s8\000"
 1364 092f 0D       		.byte	0xd
 1365 0930 4C01     		.2byte	0x14c
 1366 0932 DB060000 		.4byte	0x6db
 1367 0936 40       		.byte	0x40
 1368 0937 0A       		.uleb128 0xa
ARM GAS  /tmp/cc1lMVxE.s 			page 25


 1369 0938 733900   		.ascii	"s9\000"
 1370 093b 0D       		.byte	0xd
 1371 093c 4D01     		.2byte	0x14d
 1372 093e DB060000 		.4byte	0x6db
 1373 0942 44       		.byte	0x44
 1374 0943 0A       		.uleb128 0xa
 1375 0944 73313000 		.ascii	"s10\000"
 1376 0948 0D       		.byte	0xd
 1377 0949 4E01     		.2byte	0x14e
 1378 094b DB060000 		.4byte	0x6db
 1379 094f 48       		.byte	0x48
 1380 0950 0A       		.uleb128 0xa
 1381 0951 73313100 		.ascii	"s11\000"
 1382 0955 0D       		.byte	0xd
 1383 0956 4F01     		.2byte	0x14f
 1384 0958 DB060000 		.4byte	0x6db
 1385 095c 4C       		.byte	0x4c
 1386 095d 0A       		.uleb128 0xa
 1387 095e 73313200 		.ascii	"s12\000"
 1388 0962 0D       		.byte	0xd
 1389 0963 5001     		.2byte	0x150
 1390 0965 DB060000 		.4byte	0x6db
 1391 0969 50       		.byte	0x50
 1392 096a 0A       		.uleb128 0xa
 1393 096b 73313300 		.ascii	"s13\000"
 1394 096f 0D       		.byte	0xd
 1395 0970 5101     		.2byte	0x151
 1396 0972 DB060000 		.4byte	0x6db
 1397 0976 54       		.byte	0x54
 1398 0977 0A       		.uleb128 0xa
 1399 0978 73313400 		.ascii	"s14\000"
 1400 097c 0D       		.byte	0xd
 1401 097d 5201     		.2byte	0x152
 1402 097f DB060000 		.4byte	0x6db
 1403 0983 58       		.byte	0x58
 1404 0984 0A       		.uleb128 0xa
 1405 0985 73313500 		.ascii	"s15\000"
 1406 0989 0D       		.byte	0xd
 1407 098a 5301     		.2byte	0x153
 1408 098c DB060000 		.4byte	0x6db
 1409 0990 5C       		.byte	0x5c
 1410 0991 0B       		.uleb128 0xb
 1411 0992 22050000 		.4byte	.LASF108
 1412 0996 0D       		.byte	0xd
 1413 0997 5401     		.2byte	0x154
 1414 0999 DB060000 		.4byte	0x6db
 1415 099d 60       		.byte	0x60
 1416 099e 0B       		.uleb128 0xb
 1417 099f 6D020000 		.4byte	.LASF109
 1418 09a3 0D       		.byte	0xd
 1419 09a4 5501     		.2byte	0x155
 1420 09a6 DB060000 		.4byte	0x6db
 1421 09aa 64       		.byte	0x64
 1422 09ab 00       		.byte	0
 1423 09ac 17       		.uleb128 0x17
 1424 09ad 04       		.byte	0x4
 1425 09ae 0E       		.byte	0xe
ARM GAS  /tmp/cc1lMVxE.s 			page 26


 1426 09af 38       		.byte	0x38
 1427 09b0 C1090000 		.4byte	0x9c1
 1428 09b4 08       		.uleb128 0x8
 1429 09b5 4E070000 		.4byte	.LASF110
 1430 09b9 0E       		.byte	0xe
 1431 09ba 3C       		.byte	0x3c
 1432 09bb 04010000 		.4byte	0x104
 1433 09bf 00       		.byte	0
 1434 09c0 00       		.byte	0
 1435 09c1 03       		.uleb128 0x3
 1436 09c2 12040000 		.4byte	.LASF111
 1437 09c6 0E       		.byte	0xe
 1438 09c7 3D       		.byte	0x3d
 1439 09c8 AC090000 		.4byte	0x9ac
 1440 09cc 18       		.uleb128 0x18
 1441 09cd 04       		.byte	0x4
 1442 09ce 08       		.byte	0x8
 1443 09cf C6       		.byte	0xc6
 1444 09d0 2E0A0000 		.4byte	0xa2e
 1445 09d4 19       		.uleb128 0x19
 1446 09d5 1A000000 		.4byte	.LASF112
 1447 09d9 08       		.byte	0x8
 1448 09da CD       		.byte	0xcd
 1449 09db 3B010000 		.4byte	0x13b
 1450 09df 19       		.uleb128 0x19
 1451 09e0 90000000 		.4byte	.LASF113
 1452 09e4 08       		.byte	0x8
 1453 09e5 D4       		.byte	0xd4
 1454 09e6 3B010000 		.4byte	0x13b
 1455 09ea 19       		.uleb128 0x19
 1456 09eb 65080000 		.4byte	.LASF114
 1457 09ef 08       		.byte	0x8
 1458 09f0 DB       		.byte	0xdb
 1459 09f1 38030000 		.4byte	0x338
 1460 09f5 19       		.uleb128 0x19
 1461 09f6 40020000 		.4byte	.LASF115
 1462 09fa 08       		.byte	0x8
 1463 09fb E2       		.byte	0xe2
 1464 09fc 2E0A0000 		.4byte	0xa2e
 1465 0a00 19       		.uleb128 0x19
 1466 0a01 A4000000 		.4byte	.LASF116
 1467 0a05 08       		.byte	0x8
 1468 0a06 E7       		.byte	0xe7
 1469 0a07 3B010000 		.4byte	0x13b
 1470 0a0b 19       		.uleb128 0x19
 1471 0a0c 39020000 		.4byte	.LASF117
 1472 0a10 08       		.byte	0x8
 1473 0a11 F0       		.byte	0xf0
 1474 0a12 590A0000 		.4byte	0xa59
 1475 0a16 19       		.uleb128 0x19
 1476 0a17 BA050000 		.4byte	.LASF118
 1477 0a1b 08       		.byte	0x8
 1478 0a1c F9       		.byte	0xf9
 1479 0a1d 900A0000 		.4byte	0xa90
 1480 0a21 1A       		.uleb128 0x1a
 1481 0a22 11050000 		.4byte	.LASF119
 1482 0a26 08       		.byte	0x8
ARM GAS  /tmp/cc1lMVxE.s 			page 27


 1483 0a27 0101     		.2byte	0x101
 1484 0a29 46010000 		.4byte	0x146
 1485 0a2d 00       		.byte	0
 1486 0a2e 0C       		.uleb128 0xc
 1487 0a2f 04       		.byte	0x4
 1488 0a30 50020000 		.4byte	0x250
 1489 0a34 07       		.uleb128 0x7
 1490 0a35 76050000 		.4byte	.LASF120
 1491 0a39 0C       		.byte	0xc
 1492 0a3a 0F       		.byte	0xf
 1493 0a3b 34       		.byte	0x34
 1494 0a3c 590A0000 		.4byte	0xa59
 1495 0a40 08       		.uleb128 0x8
 1496 0a41 91030000 		.4byte	.LASF31
 1497 0a45 0F       		.byte	0xf
 1498 0a46 35       		.byte	0x35
 1499 0a47 85020000 		.4byte	0x285
 1500 0a4b 00       		.byte	0
 1501 0a4c 09       		.uleb128 0x9
 1502 0a4d 636E7400 		.ascii	"cnt\000"
 1503 0a51 0F       		.byte	0xf
 1504 0a52 37       		.byte	0x37
 1505 0a53 51010000 		.4byte	0x151
 1506 0a57 08       		.byte	0x8
 1507 0a58 00       		.byte	0
 1508 0a59 0C       		.uleb128 0xc
 1509 0a5a 04       		.byte	0x4
 1510 0a5b 340A0000 		.4byte	0xa34
 1511 0a5f 07       		.uleb128 0x7
 1512 0a60 55070000 		.4byte	.LASF121
 1513 0a64 10       		.byte	0x10
 1514 0a65 10       		.byte	0x10
 1515 0a66 39       		.byte	0x39
 1516 0a67 900A0000 		.4byte	0xa90
 1517 0a6b 08       		.uleb128 0x8
 1518 0a6c 91030000 		.4byte	.LASF31
 1519 0a70 10       		.byte	0x10
 1520 0a71 3A       		.byte	0x3a
 1521 0a72 85020000 		.4byte	0x285
 1522 0a76 00       		.byte	0
 1523 0a77 08       		.uleb128 0x8
 1524 0a78 D1050000 		.4byte	.LASF122
 1525 0a7c 10       		.byte	0x10
 1526 0a7d 3C       		.byte	0x3c
 1527 0a7e 5B020000 		.4byte	0x25b
 1528 0a82 08       		.byte	0x8
 1529 0a83 08       		.uleb128 0x8
 1530 0a84 C8000000 		.4byte	.LASF50
 1531 0a88 10       		.byte	0x10
 1532 0a89 3E       		.byte	0x3e
 1533 0a8a F20B0000 		.4byte	0xbf2
 1534 0a8e 0C       		.byte	0xc
 1535 0a8f 00       		.byte	0
 1536 0a90 0C       		.uleb128 0xc
 1537 0a91 04       		.byte	0x4
 1538 0a92 5F0A0000 		.4byte	0xa5f
 1539 0a96 0C       		.uleb128 0xc
ARM GAS  /tmp/cc1lMVxE.s 			page 28


 1540 0a97 04       		.byte	0x4
 1541 0a98 A80A0000 		.4byte	0xaa8
 1542 0a9c 05       		.uleb128 0x5
 1543 0a9d 960A0000 		.4byte	0xa96
 1544 0aa1 04       		.uleb128 0x4
 1545 0aa2 01       		.byte	0x1
 1546 0aa3 08       		.byte	0x8
 1547 0aa4 CC060000 		.4byte	.LASF123
 1548 0aa8 06       		.uleb128 0x6
 1549 0aa9 A10A0000 		.4byte	0xaa1
 1550 0aad 0C       		.uleb128 0xc
 1551 0aae 04       		.byte	0x4
 1552 0aaf E6060000 		.4byte	0x6e6
 1553 0ab3 0C       		.uleb128 0xc
 1554 0ab4 04       		.byte	0x4
 1555 0ab5 3A030000 		.4byte	0x33a
 1556 0ab9 1B       		.uleb128 0x1b
 1557 0aba 636800   		.ascii	"ch\000"
 1558 0abd 08       		.byte	0x8
 1559 0abe C701     		.2byte	0x1c7
 1560 0ac0 07040000 		.4byte	0x407
 1561 0ac4 12       		.uleb128 0x12
 1562 0ac5 E6060000 		.4byte	0x6e6
 1563 0ac9 CF0A0000 		.4byte	0xacf
 1564 0acd 1C       		.uleb128 0x1c
 1565 0ace 00       		.byte	0
 1566 0acf 15       		.uleb128 0x15
 1567 0ad0 8C050000 		.4byte	.LASF124
 1568 0ad4 11       		.byte	0x11
 1569 0ad5 1701     		.2byte	0x117
 1570 0ad7 C40A0000 		.4byte	0xac4
 1571 0adb 17       		.uleb128 0x17
 1572 0adc 16       		.byte	0x16
 1573 0add 12       		.byte	0x12
 1574 0ade 34       		.byte	0x34
 1575 0adf BC0B0000 		.4byte	0xbbc
 1576 0ae3 08       		.uleb128 0x8
 1577 0ae4 87070000 		.4byte	.LASF125
 1578 0ae8 12       		.byte	0x12
 1579 0ae9 35       		.byte	0x35
 1580 0aea BC0B0000 		.4byte	0xbbc
 1581 0aee 00       		.byte	0
 1582 0aef 08       		.uleb128 0x8
 1583 0af0 D3010000 		.4byte	.LASF126
 1584 0af4 12       		.byte	0x12
 1585 0af5 36       		.byte	0x36
 1586 0af6 B4000000 		.4byte	0xb4
 1587 0afa 04       		.byte	0x4
 1588 0afb 08       		.uleb128 0x8
 1589 0afc DE000000 		.4byte	.LASF127
 1590 0b00 12       		.byte	0x12
 1591 0b01 37       		.byte	0x37
 1592 0b02 B4000000 		.4byte	0xb4
 1593 0b06 05       		.byte	0x5
 1594 0b07 08       		.uleb128 0x8
 1595 0b08 4A030000 		.4byte	.LASF128
 1596 0b0c 12       		.byte	0x12
ARM GAS  /tmp/cc1lMVxE.s 			page 29


 1597 0b0d 38       		.byte	0x38
 1598 0b0e C9000000 		.4byte	0xc9
 1599 0b12 06       		.byte	0x6
 1600 0b13 08       		.uleb128 0x8
 1601 0b14 BB070000 		.4byte	.LASF129
 1602 0b18 12       		.byte	0x12
 1603 0b19 39       		.byte	0x39
 1604 0b1a B4000000 		.4byte	0xb4
 1605 0b1e 08       		.byte	0x8
 1606 0b1f 08       		.uleb128 0x8
 1607 0b20 9E050000 		.4byte	.LASF130
 1608 0b24 12       		.byte	0x12
 1609 0b25 3A       		.byte	0x3a
 1610 0b26 B4000000 		.4byte	0xb4
 1611 0b2a 09       		.byte	0x9
 1612 0b2b 08       		.uleb128 0x8
 1613 0b2c A4040000 		.4byte	.LASF131
 1614 0b30 12       		.byte	0x12
 1615 0b31 3B       		.byte	0x3b
 1616 0b32 B4000000 		.4byte	0xb4
 1617 0b36 0A       		.byte	0xa
 1618 0b37 08       		.uleb128 0x8
 1619 0b38 CB040000 		.4byte	.LASF132
 1620 0b3c 12       		.byte	0x12
 1621 0b3d 3C       		.byte	0x3c
 1622 0b3e B4000000 		.4byte	0xb4
 1623 0b42 0B       		.byte	0xb
 1624 0b43 08       		.uleb128 0x8
 1625 0b44 D8020000 		.4byte	.LASF133
 1626 0b48 12       		.byte	0x12
 1627 0b49 3D       		.byte	0x3d
 1628 0b4a B4000000 		.4byte	0xb4
 1629 0b4e 0C       		.byte	0xc
 1630 0b4f 08       		.uleb128 0x8
 1631 0b50 A8030000 		.4byte	.LASF134
 1632 0b54 12       		.byte	0x12
 1633 0b55 3E       		.byte	0x3e
 1634 0b56 B4000000 		.4byte	0xb4
 1635 0b5a 0D       		.byte	0xd
 1636 0b5b 08       		.uleb128 0x8
 1637 0b5c 5E070000 		.4byte	.LASF135
 1638 0b60 12       		.byte	0x12
 1639 0b61 3F       		.byte	0x3f
 1640 0b62 B4000000 		.4byte	0xb4
 1641 0b66 0E       		.byte	0xe
 1642 0b67 08       		.uleb128 0x8
 1643 0b68 27080000 		.4byte	.LASF136
 1644 0b6c 12       		.byte	0x12
 1645 0b6d 40       		.byte	0x40
 1646 0b6e B4000000 		.4byte	0xb4
 1647 0b72 0F       		.byte	0xf
 1648 0b73 08       		.uleb128 0x8
 1649 0b74 D4040000 		.4byte	.LASF137
 1650 0b78 12       		.byte	0x12
 1651 0b79 41       		.byte	0x41
 1652 0b7a B4000000 		.4byte	0xb4
 1653 0b7e 10       		.byte	0x10
ARM GAS  /tmp/cc1lMVxE.s 			page 30


 1654 0b7f 08       		.uleb128 0x8
 1655 0b80 6C080000 		.4byte	.LASF138
 1656 0b84 12       		.byte	0x12
 1657 0b85 42       		.byte	0x42
 1658 0b86 B4000000 		.4byte	0xb4
 1659 0b8a 11       		.byte	0x11
 1660 0b8b 08       		.uleb128 0x8
 1661 0b8c 48080000 		.4byte	.LASF139
 1662 0b90 12       		.byte	0x12
 1663 0b91 43       		.byte	0x43
 1664 0b92 B4000000 		.4byte	0xb4
 1665 0b96 12       		.byte	0x12
 1666 0b97 08       		.uleb128 0x8
 1667 0b98 82010000 		.4byte	.LASF140
 1668 0b9c 12       		.byte	0x12
 1669 0b9d 44       		.byte	0x44
 1670 0b9e B4000000 		.4byte	0xb4
 1671 0ba2 13       		.byte	0x13
 1672 0ba3 08       		.uleb128 0x8
 1673 0ba4 5C010000 		.4byte	.LASF141
 1674 0ba8 12       		.byte	0x12
 1675 0ba9 45       		.byte	0x45
 1676 0baa B4000000 		.4byte	0xb4
 1677 0bae 14       		.byte	0x14
 1678 0baf 08       		.uleb128 0x8
 1679 0bb0 83050000 		.4byte	.LASF142
 1680 0bb4 12       		.byte	0x12
 1681 0bb5 46       		.byte	0x46
 1682 0bb6 B4000000 		.4byte	0xb4
 1683 0bba 15       		.byte	0x15
 1684 0bbb 00       		.byte	0
 1685 0bbc 12       		.uleb128 0x12
 1686 0bbd A10A0000 		.4byte	0xaa1
 1687 0bc1 CC0B0000 		.4byte	0xbcc
 1688 0bc5 13       		.uleb128 0x13
 1689 0bc6 37000000 		.4byte	0x37
 1690 0bca 03       		.byte	0x3
 1691 0bcb 00       		.byte	0
 1692 0bcc 03       		.uleb128 0x3
 1693 0bcd 52010000 		.4byte	.LASF143
 1694 0bd1 12       		.byte	0x12
 1695 0bd2 47       		.byte	0x47
 1696 0bd3 DB0A0000 		.4byte	0xadb
 1697 0bd7 06       		.uleb128 0x6
 1698 0bd8 CC0B0000 		.4byte	0xbcc
 1699 0bdc 16       		.uleb128 0x16
 1700 0bdd 46020000 		.4byte	.LASF144
 1701 0be1 12       		.byte	0x12
 1702 0be2 6C       		.byte	0x6c
 1703 0be3 D70B0000 		.4byte	0xbd7
 1704 0be7 03       		.uleb128 0x3
 1705 0be8 9B080000 		.4byte	.LASF145
 1706 0bec 10       		.byte	0x10
 1707 0bed 34       		.byte	0x34
 1708 0bee 5F0A0000 		.4byte	0xa5f
 1709 0bf2 0C       		.uleb128 0xc
 1710 0bf3 04       		.byte	0x4
ARM GAS  /tmp/cc1lMVxE.s 			page 31


 1711 0bf4 E70B0000 		.4byte	0xbe7
 1712 0bf8 04       		.uleb128 0x4
 1713 0bf9 01       		.byte	0x1
 1714 0bfa 02       		.byte	0x2
 1715 0bfb AF040000 		.4byte	.LASF146
 1716 0bff 03       		.uleb128 0x3
 1717 0c00 83000000 		.4byte	.LASF147
 1718 0c04 13       		.byte	0x13
 1719 0c05 47       		.byte	0x47
 1720 0c06 0A0C0000 		.4byte	0xc0a
 1721 0c0a 0C       		.uleb128 0xc
 1722 0c0b 04       		.byte	0x4
 1723 0c0c 100C0000 		.4byte	0xc10
 1724 0c10 1D       		.uleb128 0x1d
 1725 0c11 38030000 		.4byte	0x338
 1726 0c15 240C0000 		.4byte	0xc24
 1727 0c19 0F       		.uleb128 0xf
 1728 0c1a 2C000000 		.4byte	0x2c
 1729 0c1e 0F       		.uleb128 0xf
 1730 0c1f 37000000 		.4byte	0x37
 1731 0c23 00       		.byte	0
 1732 0c24 17       		.uleb128 0x17
 1733 0c25 08       		.byte	0x8
 1734 0c26 13       		.byte	0x13
 1735 0c27 51       		.byte	0x51
 1736 0c28 450C0000 		.4byte	0xc45
 1737 0c2c 08       		.uleb128 0x8
 1738 0c2d AA080000 		.4byte	.LASF148
 1739 0c31 13       		.byte	0x13
 1740 0c32 55       		.byte	0x55
 1741 0c33 450C0000 		.4byte	0xc45
 1742 0c37 00       		.byte	0
 1743 0c38 08       		.uleb128 0x8
 1744 0c39 10030000 		.4byte	.LASF149
 1745 0c3d 13       		.byte	0x13
 1746 0c3e 59       		.byte	0x59
 1747 0c3f 450C0000 		.4byte	0xc45
 1748 0c43 04       		.byte	0x4
 1749 0c44 00       		.byte	0
 1750 0c45 0C       		.uleb128 0xc
 1751 0c46 04       		.byte	0x4
 1752 0c47 B4000000 		.4byte	0xb4
 1753 0c4b 03       		.uleb128 0x3
 1754 0c4c 44040000 		.4byte	.LASF150
 1755 0c50 13       		.byte	0x13
 1756 0c51 5A       		.byte	0x5a
 1757 0c52 240C0000 		.4byte	0xc24
 1758 0c56 16       		.uleb128 0x16
 1759 0c57 09070000 		.4byte	.LASF151
 1760 0c5b 13       		.byte	0x13
 1761 0c5c 65       		.byte	0x65
 1762 0c5d 4B0C0000 		.4byte	0xc4b
 1763 0c61 07       		.uleb128 0x7
 1764 0c62 16080000 		.4byte	.LASF152
 1765 0c66 04       		.byte	0x4
 1766 0c67 14       		.byte	0x14
 1767 0c68 38       		.byte	0x38
ARM GAS  /tmp/cc1lMVxE.s 			page 32


 1768 0c69 7A0C0000 		.4byte	0xc7a
 1769 0c6d 08       		.uleb128 0x8
 1770 0c6e C8000000 		.4byte	.LASF50
 1771 0c72 14       		.byte	0x14
 1772 0c73 39       		.byte	0x39
 1773 0c74 7A0C0000 		.4byte	0xc7a
 1774 0c78 00       		.byte	0
 1775 0c79 00       		.byte	0
 1776 0c7a 0C       		.uleb128 0xc
 1777 0c7b 04       		.byte	0x4
 1778 0c7c 610C0000 		.4byte	0xc61
 1779 0c80 17       		.uleb128 0x17
 1780 0c81 10       		.byte	0x10
 1781 0c82 14       		.byte	0x14
 1782 0c83 40       		.byte	0x40
 1783 0c84 B90C0000 		.4byte	0xcb9
 1784 0c88 08       		.uleb128 0x8
 1785 0c89 C8000000 		.4byte	.LASF50
 1786 0c8d 14       		.byte	0x14
 1787 0c8e 41       		.byte	0x41
 1788 0c8f 7A0C0000 		.4byte	0xc7a
 1789 0c93 00       		.byte	0
 1790 0c94 08       		.uleb128 0x8
 1791 0c95 AF070000 		.4byte	.LASF153
 1792 0c99 14       		.byte	0x14
 1793 0c9a 42       		.byte	0x42
 1794 0c9b 2C000000 		.4byte	0x2c
 1795 0c9f 04       		.byte	0x4
 1796 0ca0 08       		.uleb128 0x8
 1797 0ca1 E6010000 		.4byte	.LASF154
 1798 0ca5 14       		.byte	0x14
 1799 0ca6 44       		.byte	0x44
 1800 0ca7 37000000 		.4byte	0x37
 1801 0cab 08       		.byte	0x8
 1802 0cac 08       		.uleb128 0x8
 1803 0cad 67000000 		.4byte	.LASF155
 1804 0cb1 14       		.byte	0x14
 1805 0cb2 45       		.byte	0x45
 1806 0cb3 FF0B0000 		.4byte	0xbff
 1807 0cb7 0C       		.byte	0xc
 1808 0cb8 00       		.byte	0
 1809 0cb9 03       		.uleb128 0x3
 1810 0cba 4F020000 		.4byte	.LASF156
 1811 0cbe 14       		.byte	0x14
 1812 0cbf 47       		.byte	0x47
 1813 0cc0 800C0000 		.4byte	0xc80
 1814 0cc4 07       		.uleb128 0x7
 1815 0cc5 81040000 		.4byte	.LASF157
 1816 0cc9 10       		.byte	0x10
 1817 0cca 15       		.byte	0x15
 1818 0ccb A9       		.byte	0xa9
 1819 0ccc F50C0000 		.4byte	0xcf5
 1820 0cd0 08       		.uleb128 0x8
 1821 0cd1 C8000000 		.4byte	.LASF50
 1822 0cd5 15       		.byte	0x15
 1823 0cd6 AD       		.byte	0xad
 1824 0cd7 F50C0000 		.4byte	0xcf5
ARM GAS  /tmp/cc1lMVxE.s 			page 33


 1825 0cdb 00       		.byte	0
 1826 0cdc 08       		.uleb128 0x8
 1827 0cdd F4040000 		.4byte	.LASF39
 1828 0ce1 15       		.byte	0x15
 1829 0ce2 B1       		.byte	0xb1
 1830 0ce3 5C010000 		.4byte	0x15c
 1831 0ce7 04       		.byte	0x4
 1832 0ce8 08       		.uleb128 0x8
 1833 0ce9 5D020000 		.4byte	.LASF35
 1834 0ced 15       		.byte	0x15
 1835 0cee B3       		.byte	0xb3
 1836 0cef FB0C0000 		.4byte	0xcfb
 1837 0cf3 08       		.byte	0x8
 1838 0cf4 00       		.byte	0
 1839 0cf5 0C       		.uleb128 0xc
 1840 0cf6 04       		.byte	0x4
 1841 0cf7 C40C0000 		.4byte	0xcc4
 1842 0cfb 12       		.uleb128 0x12
 1843 0cfc A10A0000 		.4byte	0xaa1
 1844 0d00 0B0D0000 		.4byte	0xd0b
 1845 0d04 13       		.uleb128 0x13
 1846 0d05 37000000 		.4byte	0x37
 1847 0d09 07       		.byte	0x7
 1848 0d0a 00       		.byte	0
 1849 0d0b 03       		.uleb128 0x3
 1850 0d0c 60030000 		.4byte	.LASF158
 1851 0d10 15       		.byte	0x15
 1852 0d11 B7       		.byte	0xb7
 1853 0d12 C40C0000 		.4byte	0xcc4
 1854 0d16 07       		.uleb128 0x7
 1855 0d17 97030000 		.4byte	.LASF159
 1856 0d1b 04       		.byte	0x4
 1857 0d1c 15       		.byte	0x15
 1858 0d1d BC       		.byte	0xbc
 1859 0d1e 2F0D0000 		.4byte	0xd2f
 1860 0d22 08       		.uleb128 0x8
 1861 0d23 C8000000 		.4byte	.LASF50
 1862 0d27 15       		.byte	0x15
 1863 0d28 BD       		.byte	0xbd
 1864 0d29 2F0D0000 		.4byte	0xd2f
 1865 0d2d 00       		.byte	0
 1866 0d2e 00       		.byte	0
 1867 0d2f 0C       		.uleb128 0xc
 1868 0d30 04       		.byte	0x4
 1869 0d31 0B0D0000 		.4byte	0xd0b
 1870 0d35 03       		.uleb128 0x3
 1871 0d36 B4020000 		.4byte	.LASF160
 1872 0d3a 15       		.byte	0x15
 1873 0d3b BE       		.byte	0xbe
 1874 0d3c 160D0000 		.4byte	0xd16
 1875 0d40 0D       		.uleb128 0xd
 1876 0d41 49050000 		.4byte	.LASF161
 1877 0d45 48       		.byte	0x48
 1878 0d46 15       		.byte	0x15
 1879 0d47 3E01     		.2byte	0x13e
 1880 0d49 C30D0000 		.4byte	0xdc3
 1881 0d4d 0A       		.uleb128 0xa
ARM GAS  /tmp/cc1lMVxE.s 			page 34


 1882 0d4e 6D747800 		.ascii	"mtx\000"
 1883 0d52 15       		.byte	0x15
 1884 0d53 4301     		.2byte	0x143
 1885 0d55 E70B0000 		.4byte	0xbe7
 1886 0d59 00       		.byte	0
 1887 0d5a 0B       		.uleb128 0xb
 1888 0d5b D7060000 		.4byte	.LASF162
 1889 0d5f 15       		.byte	0x15
 1890 0d60 4A01     		.2byte	0x14a
 1891 0d62 350D0000 		.4byte	0xd35
 1892 0d66 10       		.byte	0x10
 1893 0d67 0B       		.uleb128 0xb
 1894 0d68 3A050000 		.4byte	.LASF163
 1895 0d6c 15       		.byte	0x15
 1896 0d6d 4E01     		.2byte	0x14e
 1897 0d6f B90C0000 		.4byte	0xcb9
 1898 0d73 14       		.byte	0x14
 1899 0d74 0B       		.uleb128 0xb
 1900 0d75 76020000 		.4byte	.LASF164
 1901 0d79 15       		.byte	0x15
 1902 0d7a 5301     		.2byte	0x153
 1903 0d7c 350D0000 		.4byte	0xd35
 1904 0d80 24       		.byte	0x24
 1905 0d81 0B       		.uleb128 0xb
 1906 0d82 70000000 		.4byte	.LASF165
 1907 0d86 15       		.byte	0x15
 1908 0d87 5901     		.2byte	0x159
 1909 0d89 350D0000 		.4byte	0xd35
 1910 0d8d 28       		.byte	0x28
 1911 0d8e 0B       		.uleb128 0xb
 1912 0d8f 28040000 		.4byte	.LASF166
 1913 0d93 15       		.byte	0x15
 1914 0d94 5D01     		.2byte	0x15d
 1915 0d96 B90C0000 		.4byte	0xcb9
 1916 0d9a 2C       		.byte	0x2c
 1917 0d9b 0B       		.uleb128 0xb
 1918 0d9c 5C050000 		.4byte	.LASF167
 1919 0da0 15       		.byte	0x15
 1920 0da1 6301     		.2byte	0x163
 1921 0da3 350D0000 		.4byte	0xd35
 1922 0da7 3C       		.byte	0x3c
 1923 0da8 0B       		.uleb128 0xb
 1924 0da9 3E080000 		.4byte	.LASF168
 1925 0dad 15       		.byte	0x15
 1926 0dae 6901     		.2byte	0x169
 1927 0db0 350D0000 		.4byte	0xd35
 1928 0db4 40       		.byte	0x40
 1929 0db5 0B       		.uleb128 0xb
 1930 0db6 A7050000 		.4byte	.LASF169
 1931 0dba 15       		.byte	0x15
 1932 0dbb 6F01     		.2byte	0x16f
 1933 0dbd 350D0000 		.4byte	0xd35
 1934 0dc1 44       		.byte	0x44
 1935 0dc2 00       		.byte	0
 1936 0dc3 14       		.uleb128 0x14
 1937 0dc4 76080000 		.4byte	.LASF170
 1938 0dc8 15       		.byte	0x15
ARM GAS  /tmp/cc1lMVxE.s 			page 35


 1939 0dc9 7101     		.2byte	0x171
 1940 0dcb 400D0000 		.4byte	0xd40
 1941 0dcf 15       		.uleb128 0x15
 1942 0dd0 28050000 		.4byte	.LASF171
 1943 0dd4 15       		.byte	0x15
 1944 0dd5 7C01     		.2byte	0x17c
 1945 0dd7 C30D0000 		.4byte	0xdc3
 1946 0ddb 1E       		.uleb128 0x1e
 1947 0ddc C5020000 		.4byte	.LASF172
 1948 0de0 01       		.byte	0x1
 1949 0de1 7A       		.byte	0x7a
 1950 0de2 00000000 		.4byte	.LFB295
 1951 0de6 60000000 		.4byte	.LFE295-.LFB295
 1952 0dea 01       		.uleb128 0x1
 1953 0deb 9C       		.byte	0x9c
 1954 0dec F00E0000 		.4byte	0xef0
 1955 0df0 1F       		.uleb128 0x1f
 1956 0df1 00000000 		.4byte	.Ldebug_ranges0+0
 1957 0df5 750E0000 		.4byte	0xe75
 1958 0df9 20       		.uleb128 0x20
 1959 0dfa 6C040000 		.4byte	.LASF174
 1960 0dfe 01       		.byte	0x1
 1961 0dff 7E       		.byte	0x7e
 1962 0e00 F00E0000 		.4byte	0xef0
 1963 0e04 00000000 		.4byte	.LLST5
 1964 0e08 21       		.uleb128 0x21
 1965 0e09 BA0F0000 		.4byte	0xfba
 1966 0e0d 18000000 		.4byte	.LBB68
 1967 0e11 04000000 		.4byte	.LBE68-.LBB68
 1968 0e15 01       		.byte	0x1
 1969 0e16 82       		.byte	0x82
 1970 0e17 2B0E0000 		.4byte	0xe2b
 1971 0e1b 22       		.uleb128 0x22
 1972 0e1c 18000000 		.4byte	.LBB69
 1973 0e20 04000000 		.4byte	.LBE69-.LBB69
 1974 0e24 23       		.uleb128 0x23
 1975 0e25 CB0F0000 		.4byte	0xfcb
 1976 0e29 00       		.byte	0
 1977 0e2a 00       		.byte	0
 1978 0e2b 21       		.uleb128 0x21
 1979 0e2c 0C100000 		.4byte	0x100c
 1980 0e30 1C000000 		.4byte	.LBB70
 1981 0e34 04000000 		.4byte	.LBE70-.LBB70
 1982 0e38 01       		.byte	0x1
 1983 0e39 86       		.byte	0x86
 1984 0e3a 4E0E0000 		.4byte	0xe4e
 1985 0e3e 22       		.uleb128 0x22
 1986 0e3f 1C000000 		.4byte	.LBB71
 1987 0e43 04000000 		.4byte	.LBE71-.LBB71
 1988 0e47 23       		.uleb128 0x23
 1989 0e48 1C100000 		.4byte	0x101c
 1990 0e4c 00       		.byte	0
 1991 0e4d 00       		.byte	0
 1992 0e4e 21       		.uleb128 0x21
 1993 0e4f F20F0000 		.4byte	0xff2
 1994 0e53 34000000 		.4byte	.LBB72
 1995 0e57 04000000 		.4byte	.LBE72-.LBB72
ARM GAS  /tmp/cc1lMVxE.s 			page 36


 1996 0e5b 01       		.byte	0x1
 1997 0e5c 93       		.byte	0x93
 1998 0e5d 6B0E0000 		.4byte	0xe6b
 1999 0e61 24       		.uleb128 0x24
 2000 0e62 FF0F0000 		.4byte	0xfff
 2001 0e66 2F000000 		.4byte	.LLST6
 2002 0e6a 00       		.byte	0
 2003 0e6b 25       		.uleb128 0x25
 2004 0e6c 3C000000 		.4byte	.LVL13
 2005 0e70 28100000 		.4byte	0x1028
 2006 0e74 00       		.byte	0
 2007 0e75 21       		.uleb128 0x21
 2008 0e76 9F0F0000 		.4byte	0xf9f
 2009 0e7a 00000000 		.4byte	.LBB59
 2010 0e7e 06000000 		.4byte	.LBE59-.LBB59
 2011 0e82 01       		.byte	0x1
 2012 0e83 7C       		.byte	0x7c
 2013 0e84 B40E0000 		.4byte	0xeb4
 2014 0e88 26       		.uleb128 0x26
 2015 0e89 B10F0000 		.4byte	0xfb1
 2016 0e8d 00000000 		.4byte	.LBB60
 2017 0e91 06000000 		.4byte	.LBE60-.LBB60
 2018 0e95 0D       		.byte	0xd
 2019 0e96 8302     		.2byte	0x283
 2020 0e98 26       		.uleb128 0x26
 2021 0e99 D80F0000 		.4byte	0xfd8
 2022 0e9d 00000000 		.4byte	.LBB61
 2023 0ea1 06000000 		.4byte	.LBE61-.LBB61
 2024 0ea5 0D       		.byte	0xd
 2025 0ea6 6202     		.2byte	0x262
 2026 0ea8 24       		.uleb128 0x24
 2027 0ea9 E50F0000 		.4byte	0xfe5
 2028 0ead 50000000 		.4byte	.LLST3
 2029 0eb1 00       		.byte	0
 2030 0eb2 00       		.byte	0
 2031 0eb3 00       		.byte	0
 2032 0eb4 27       		.uleb128 0x27
 2033 0eb5 960F0000 		.4byte	0xf96
 2034 0eb9 10000000 		.4byte	.LBB63
 2035 0ebd 06000000 		.4byte	.LBE63-.LBB63
 2036 0ec1 01       		.byte	0x1
 2037 0ec2 A5       		.byte	0xa5
 2038 0ec3 26       		.uleb128 0x26
 2039 0ec4 A80F0000 		.4byte	0xfa8
 2040 0ec8 10000000 		.4byte	.LBB64
 2041 0ecc 06000000 		.4byte	.LBE64-.LBB64
 2042 0ed0 0D       		.byte	0xd
 2043 0ed1 8E02     		.2byte	0x28e
 2044 0ed3 26       		.uleb128 0x26
 2045 0ed4 D80F0000 		.4byte	0xfd8
 2046 0ed8 10000000 		.4byte	.LBB65
 2047 0edc 06000000 		.4byte	.LBE65-.LBB65
 2048 0ee0 0D       		.byte	0xd
 2049 0ee1 7502     		.2byte	0x275
 2050 0ee3 24       		.uleb128 0x24
 2051 0ee4 E50F0000 		.4byte	0xfe5
 2052 0ee8 65000000 		.4byte	.LLST4
ARM GAS  /tmp/cc1lMVxE.s 			page 37


 2053 0eec 00       		.byte	0
 2054 0eed 00       		.byte	0
 2055 0eee 00       		.byte	0
 2056 0eef 00       		.byte	0
 2057 0ef0 0C       		.uleb128 0xc
 2058 0ef1 04       		.byte	0x4
 2059 0ef2 5B080000 		.4byte	0x85b
 2060 0ef6 1E       		.uleb128 0x1e
 2061 0ef7 38010000 		.4byte	.LASF173
 2062 0efb 01       		.byte	0x1
 2063 0efc 3E       		.byte	0x3e
 2064 0efd 00000000 		.4byte	.LFB294
 2065 0f01 20000000 		.4byte	.LFE294-.LFB294
 2066 0f05 01       		.uleb128 0x1
 2067 0f06 9C       		.byte	0x9c
 2068 0f07 960F0000 		.4byte	0xf96
 2069 0f0b 20       		.uleb128 0x20
 2070 0f0c 6C040000 		.4byte	.LASF174
 2071 0f10 01       		.byte	0x1
 2072 0f11 40       		.byte	0x40
 2073 0f12 F00E0000 		.4byte	0xef0
 2074 0f16 79000000 		.4byte	.LLST0
 2075 0f1a 21       		.uleb128 0x21
 2076 0f1b 0C100000 		.4byte	0x100c
 2077 0f1f 0A000000 		.4byte	.LBB51
 2078 0f23 04000000 		.4byte	.LBE51-.LBB51
 2079 0f27 01       		.byte	0x1
 2080 0f28 48       		.byte	0x48
 2081 0f29 3D0F0000 		.4byte	0xf3d
 2082 0f2d 22       		.uleb128 0x22
 2083 0f2e 0A000000 		.4byte	.LBB52
 2084 0f32 04000000 		.4byte	.LBE52-.LBB52
 2085 0f36 23       		.uleb128 0x23
 2086 0f37 1C100000 		.4byte	0x101c
 2087 0f3b 00       		.byte	0
 2088 0f3c 00       		.byte	0
 2089 0f3d 21       		.uleb128 0x21
 2090 0f3e F20F0000 		.4byte	0xff2
 2091 0f42 10000000 		.4byte	.LBB53
 2092 0f46 04000000 		.4byte	.LBE53-.LBB53
 2093 0f4a 01       		.byte	0x1
 2094 0f4b 4F       		.byte	0x4f
 2095 0f4c 5A0F0000 		.4byte	0xf5a
 2096 0f50 24       		.uleb128 0x24
 2097 0f51 FF0F0000 		.4byte	0xfff
 2098 0f55 9A000000 		.4byte	.LLST1
 2099 0f59 00       		.byte	0
 2100 0f5a 27       		.uleb128 0x27
 2101 0f5b 960F0000 		.4byte	0xf96
 2102 0f5f 14000000 		.4byte	.LBB55
 2103 0f63 06000000 		.4byte	.LBE55-.LBB55
 2104 0f67 01       		.byte	0x1
 2105 0f68 52       		.byte	0x52
 2106 0f69 26       		.uleb128 0x26
 2107 0f6a A80F0000 		.4byte	0xfa8
 2108 0f6e 14000000 		.4byte	.LBB56
 2109 0f72 06000000 		.4byte	.LBE56-.LBB56
ARM GAS  /tmp/cc1lMVxE.s 			page 38


 2110 0f76 0D       		.byte	0xd
 2111 0f77 8E02     		.2byte	0x28e
 2112 0f79 26       		.uleb128 0x26
 2113 0f7a D80F0000 		.4byte	0xfd8
 2114 0f7e 14000000 		.4byte	.LBB57
 2115 0f82 06000000 		.4byte	.LBE57-.LBB57
 2116 0f86 0D       		.byte	0xd
 2117 0f87 7502     		.2byte	0x275
 2118 0f89 24       		.uleb128 0x24
 2119 0f8a E50F0000 		.4byte	0xfe5
 2120 0f8e BB000000 		.4byte	.LLST2
 2121 0f92 00       		.byte	0
 2122 0f93 00       		.byte	0
 2123 0f94 00       		.byte	0
 2124 0f95 00       		.byte	0
 2125 0f96 28       		.uleb128 0x28
 2126 0f97 EB060000 		.4byte	.LASF175
 2127 0f9b 0D       		.byte	0xd
 2128 0f9c 8C02     		.2byte	0x28c
 2129 0f9e 03       		.byte	0x3
 2130 0f9f 28       		.uleb128 0x28
 2131 0fa0 92070000 		.4byte	.LASF176
 2132 0fa4 0D       		.byte	0xd
 2133 0fa5 8102     		.2byte	0x281
 2134 0fa7 03       		.byte	0x3
 2135 0fa8 28       		.uleb128 0x28
 2136 0fa9 14010000 		.4byte	.LASF177
 2137 0fad 0D       		.byte	0xd
 2138 0fae 7202     		.2byte	0x272
 2139 0fb0 03       		.byte	0x3
 2140 0fb1 28       		.uleb128 0x28
 2141 0fb2 79000000 		.4byte	.LASF178
 2142 0fb6 0D       		.byte	0xd
 2143 0fb7 5A02     		.2byte	0x25a
 2144 0fb9 03       		.byte	0x3
 2145 0fba 29       		.uleb128 0x29
 2146 0fbb 98040000 		.4byte	.LASF183
 2147 0fbf 02       		.byte	0x2
 2148 0fc0 FE02     		.2byte	0x2fe
 2149 0fc2 E4000000 		.4byte	0xe4
 2150 0fc6 03       		.byte	0x3
 2151 0fc7 D80F0000 		.4byte	0xfd8
 2152 0fcb 2A       		.uleb128 0x2a
 2153 0fcc A3080000 		.4byte	.LASF185
 2154 0fd0 02       		.byte	0x2
 2155 0fd1 0803     		.2byte	0x308
 2156 0fd3 E4000000 		.4byte	0xe4
 2157 0fd7 00       		.byte	0
 2158 0fd8 2B       		.uleb128 0x2b
 2159 0fd9 27070000 		.4byte	.LASF179
 2160 0fdd 02       		.byte	0x2
 2161 0fde EB01     		.2byte	0x1eb
 2162 0fe0 03       		.byte	0x3
 2163 0fe1 F20F0000 		.4byte	0xff2
 2164 0fe5 2C       		.uleb128 0x2c
 2165 0fe6 05010000 		.4byte	.LASF181
 2166 0fea 02       		.byte	0x2
ARM GAS  /tmp/cc1lMVxE.s 			page 39


 2167 0feb EB01     		.2byte	0x1eb
 2168 0fed E4000000 		.4byte	0xe4
 2169 0ff1 00       		.byte	0
 2170 0ff2 2B       		.uleb128 0x2b
 2171 0ff3 16020000 		.4byte	.LASF180
 2172 0ff7 02       		.byte	0x2
 2173 0ff8 1501     		.2byte	0x115
 2174 0ffa 03       		.byte	0x3
 2175 0ffb 0C100000 		.4byte	0x100c
 2176 0fff 2C       		.uleb128 0x2c
 2177 1000 3F070000 		.4byte	.LASF182
 2178 1004 02       		.byte	0x2
 2179 1005 1501     		.2byte	0x115
 2180 1007 E4000000 		.4byte	0xe4
 2181 100b 00       		.byte	0
 2182 100c 2D       		.uleb128 0x2d
 2183 100d A5070000 		.4byte	.LASF184
 2184 1011 02       		.byte	0x2
 2185 1012 F7       		.byte	0xf7
 2186 1013 E4000000 		.4byte	0xe4
 2187 1017 03       		.byte	0x3
 2188 1018 28100000 		.4byte	0x1028
 2189 101c 2E       		.uleb128 0x2e
 2190 101d A3080000 		.4byte	.LASF185
 2191 1021 02       		.byte	0x2
 2192 1022 F9       		.byte	0xf9
 2193 1023 E4000000 		.4byte	0xe4
 2194 1027 00       		.byte	0
 2195 1028 2F       		.uleb128 0x2f
 2196 1029 68010000 		.4byte	.LASF189
 2197 102d 68010000 		.4byte	.LASF189
 2198 1031 08       		.byte	0x8
 2199 1032 D701     		.2byte	0x1d7
 2200 1034 00       		.byte	0
 2201              		.section	.debug_abbrev,"",%progbits
 2202              	.Ldebug_abbrev0:
 2203 0000 01       		.uleb128 0x1
 2204 0001 11       		.uleb128 0x11
 2205 0002 01       		.byte	0x1
 2206 0003 25       		.uleb128 0x25
 2207 0004 0E       		.uleb128 0xe
 2208 0005 13       		.uleb128 0x13
 2209 0006 0B       		.uleb128 0xb
 2210 0007 03       		.uleb128 0x3
 2211 0008 0E       		.uleb128 0xe
 2212 0009 1B       		.uleb128 0x1b
 2213 000a 0E       		.uleb128 0xe
 2214 000b 55       		.uleb128 0x55
 2215 000c 17       		.uleb128 0x17
 2216 000d 11       		.uleb128 0x11
 2217 000e 01       		.uleb128 0x1
 2218 000f 10       		.uleb128 0x10
 2219 0010 17       		.uleb128 0x17
 2220 0011 00       		.byte	0
 2221 0012 00       		.byte	0
 2222 0013 02       		.uleb128 0x2
 2223 0014 24       		.uleb128 0x24
ARM GAS  /tmp/cc1lMVxE.s 			page 40


 2224 0015 00       		.byte	0
 2225 0016 0B       		.uleb128 0xb
 2226 0017 0B       		.uleb128 0xb
 2227 0018 3E       		.uleb128 0x3e
 2228 0019 0B       		.uleb128 0xb
 2229 001a 03       		.uleb128 0x3
 2230 001b 08       		.uleb128 0x8
 2231 001c 00       		.byte	0
 2232 001d 00       		.byte	0
 2233 001e 03       		.uleb128 0x3
 2234 001f 16       		.uleb128 0x16
 2235 0020 00       		.byte	0
 2236 0021 03       		.uleb128 0x3
 2237 0022 0E       		.uleb128 0xe
 2238 0023 3A       		.uleb128 0x3a
 2239 0024 0B       		.uleb128 0xb
 2240 0025 3B       		.uleb128 0x3b
 2241 0026 0B       		.uleb128 0xb
 2242 0027 49       		.uleb128 0x49
 2243 0028 13       		.uleb128 0x13
 2244 0029 00       		.byte	0
 2245 002a 00       		.byte	0
 2246 002b 04       		.uleb128 0x4
 2247 002c 24       		.uleb128 0x24
 2248 002d 00       		.byte	0
 2249 002e 0B       		.uleb128 0xb
 2250 002f 0B       		.uleb128 0xb
 2251 0030 3E       		.uleb128 0x3e
 2252 0031 0B       		.uleb128 0xb
 2253 0032 03       		.uleb128 0x3
 2254 0033 0E       		.uleb128 0xe
 2255 0034 00       		.byte	0
 2256 0035 00       		.byte	0
 2257 0036 05       		.uleb128 0x5
 2258 0037 35       		.uleb128 0x35
 2259 0038 00       		.byte	0
 2260 0039 49       		.uleb128 0x49
 2261 003a 13       		.uleb128 0x13
 2262 003b 00       		.byte	0
 2263 003c 00       		.byte	0
 2264 003d 06       		.uleb128 0x6
 2265 003e 26       		.uleb128 0x26
 2266 003f 00       		.byte	0
 2267 0040 49       		.uleb128 0x49
 2268 0041 13       		.uleb128 0x13
 2269 0042 00       		.byte	0
 2270 0043 00       		.byte	0
 2271 0044 07       		.uleb128 0x7
 2272 0045 13       		.uleb128 0x13
 2273 0046 01       		.byte	0x1
 2274 0047 03       		.uleb128 0x3
 2275 0048 0E       		.uleb128 0xe
 2276 0049 0B       		.uleb128 0xb
 2277 004a 0B       		.uleb128 0xb
 2278 004b 3A       		.uleb128 0x3a
 2279 004c 0B       		.uleb128 0xb
 2280 004d 3B       		.uleb128 0x3b
ARM GAS  /tmp/cc1lMVxE.s 			page 41


 2281 004e 0B       		.uleb128 0xb
 2282 004f 01       		.uleb128 0x1
 2283 0050 13       		.uleb128 0x13
 2284 0051 00       		.byte	0
 2285 0052 00       		.byte	0
 2286 0053 08       		.uleb128 0x8
 2287 0054 0D       		.uleb128 0xd
 2288 0055 00       		.byte	0
 2289 0056 03       		.uleb128 0x3
 2290 0057 0E       		.uleb128 0xe
 2291 0058 3A       		.uleb128 0x3a
 2292 0059 0B       		.uleb128 0xb
 2293 005a 3B       		.uleb128 0x3b
 2294 005b 0B       		.uleb128 0xb
 2295 005c 49       		.uleb128 0x49
 2296 005d 13       		.uleb128 0x13
 2297 005e 38       		.uleb128 0x38
 2298 005f 0B       		.uleb128 0xb
 2299 0060 00       		.byte	0
 2300 0061 00       		.byte	0
 2301 0062 09       		.uleb128 0x9
 2302 0063 0D       		.uleb128 0xd
 2303 0064 00       		.byte	0
 2304 0065 03       		.uleb128 0x3
 2305 0066 08       		.uleb128 0x8
 2306 0067 3A       		.uleb128 0x3a
 2307 0068 0B       		.uleb128 0xb
 2308 0069 3B       		.uleb128 0x3b
 2309 006a 0B       		.uleb128 0xb
 2310 006b 49       		.uleb128 0x49
 2311 006c 13       		.uleb128 0x13
 2312 006d 38       		.uleb128 0x38
 2313 006e 0B       		.uleb128 0xb
 2314 006f 00       		.byte	0
 2315 0070 00       		.byte	0
 2316 0071 0A       		.uleb128 0xa
 2317 0072 0D       		.uleb128 0xd
 2318 0073 00       		.byte	0
 2319 0074 03       		.uleb128 0x3
 2320 0075 08       		.uleb128 0x8
 2321 0076 3A       		.uleb128 0x3a
 2322 0077 0B       		.uleb128 0xb
 2323 0078 3B       		.uleb128 0x3b
 2324 0079 05       		.uleb128 0x5
 2325 007a 49       		.uleb128 0x49
 2326 007b 13       		.uleb128 0x13
 2327 007c 38       		.uleb128 0x38
 2328 007d 0B       		.uleb128 0xb
 2329 007e 00       		.byte	0
 2330 007f 00       		.byte	0
 2331 0080 0B       		.uleb128 0xb
 2332 0081 0D       		.uleb128 0xd
 2333 0082 00       		.byte	0
 2334 0083 03       		.uleb128 0x3
 2335 0084 0E       		.uleb128 0xe
 2336 0085 3A       		.uleb128 0x3a
 2337 0086 0B       		.uleb128 0xb
ARM GAS  /tmp/cc1lMVxE.s 			page 42


 2338 0087 3B       		.uleb128 0x3b
 2339 0088 05       		.uleb128 0x5
 2340 0089 49       		.uleb128 0x49
 2341 008a 13       		.uleb128 0x13
 2342 008b 38       		.uleb128 0x38
 2343 008c 0B       		.uleb128 0xb
 2344 008d 00       		.byte	0
 2345 008e 00       		.byte	0
 2346 008f 0C       		.uleb128 0xc
 2347 0090 0F       		.uleb128 0xf
 2348 0091 00       		.byte	0
 2349 0092 0B       		.uleb128 0xb
 2350 0093 0B       		.uleb128 0xb
 2351 0094 49       		.uleb128 0x49
 2352 0095 13       		.uleb128 0x13
 2353 0096 00       		.byte	0
 2354 0097 00       		.byte	0
 2355 0098 0D       		.uleb128 0xd
 2356 0099 13       		.uleb128 0x13
 2357 009a 01       		.byte	0x1
 2358 009b 03       		.uleb128 0x3
 2359 009c 0E       		.uleb128 0xe
 2360 009d 0B       		.uleb128 0xb
 2361 009e 0B       		.uleb128 0xb
 2362 009f 3A       		.uleb128 0x3a
 2363 00a0 0B       		.uleb128 0xb
 2364 00a1 3B       		.uleb128 0x3b
 2365 00a2 05       		.uleb128 0x5
 2366 00a3 01       		.uleb128 0x1
 2367 00a4 13       		.uleb128 0x13
 2368 00a5 00       		.byte	0
 2369 00a6 00       		.byte	0
 2370 00a7 0E       		.uleb128 0xe
 2371 00a8 15       		.uleb128 0x15
 2372 00a9 01       		.byte	0x1
 2373 00aa 27       		.uleb128 0x27
 2374 00ab 19       		.uleb128 0x19
 2375 00ac 01       		.uleb128 0x1
 2376 00ad 13       		.uleb128 0x13
 2377 00ae 00       		.byte	0
 2378 00af 00       		.byte	0
 2379 00b0 0F       		.uleb128 0xf
 2380 00b1 05       		.uleb128 0x5
 2381 00b2 00       		.byte	0
 2382 00b3 49       		.uleb128 0x49
 2383 00b4 13       		.uleb128 0x13
 2384 00b5 00       		.byte	0
 2385 00b6 00       		.byte	0
 2386 00b7 10       		.uleb128 0x10
 2387 00b8 0F       		.uleb128 0xf
 2388 00b9 00       		.byte	0
 2389 00ba 0B       		.uleb128 0xb
 2390 00bb 0B       		.uleb128 0xb
 2391 00bc 00       		.byte	0
 2392 00bd 00       		.byte	0
 2393 00be 11       		.uleb128 0x11
 2394 00bf 13       		.uleb128 0x13
ARM GAS  /tmp/cc1lMVxE.s 			page 43


 2395 00c0 01       		.byte	0x1
 2396 00c1 0B       		.uleb128 0xb
 2397 00c2 0B       		.uleb128 0xb
 2398 00c3 3A       		.uleb128 0x3a
 2399 00c4 0B       		.uleb128 0xb
 2400 00c5 3B       		.uleb128 0x3b
 2401 00c6 05       		.uleb128 0x5
 2402 00c7 01       		.uleb128 0x1
 2403 00c8 13       		.uleb128 0x13
 2404 00c9 00       		.byte	0
 2405 00ca 00       		.byte	0
 2406 00cb 12       		.uleb128 0x12
 2407 00cc 01       		.uleb128 0x1
 2408 00cd 01       		.byte	0x1
 2409 00ce 49       		.uleb128 0x49
 2410 00cf 13       		.uleb128 0x13
 2411 00d0 01       		.uleb128 0x1
 2412 00d1 13       		.uleb128 0x13
 2413 00d2 00       		.byte	0
 2414 00d3 00       		.byte	0
 2415 00d4 13       		.uleb128 0x13
 2416 00d5 21       		.uleb128 0x21
 2417 00d6 00       		.byte	0
 2418 00d7 49       		.uleb128 0x49
 2419 00d8 13       		.uleb128 0x13
 2420 00d9 2F       		.uleb128 0x2f
 2421 00da 0B       		.uleb128 0xb
 2422 00db 00       		.byte	0
 2423 00dc 00       		.byte	0
 2424 00dd 14       		.uleb128 0x14
 2425 00de 16       		.uleb128 0x16
 2426 00df 00       		.byte	0
 2427 00e0 03       		.uleb128 0x3
 2428 00e1 0E       		.uleb128 0xe
 2429 00e2 3A       		.uleb128 0x3a
 2430 00e3 0B       		.uleb128 0xb
 2431 00e4 3B       		.uleb128 0x3b
 2432 00e5 05       		.uleb128 0x5
 2433 00e6 49       		.uleb128 0x49
 2434 00e7 13       		.uleb128 0x13
 2435 00e8 00       		.byte	0
 2436 00e9 00       		.byte	0
 2437 00ea 15       		.uleb128 0x15
 2438 00eb 34       		.uleb128 0x34
 2439 00ec 00       		.byte	0
 2440 00ed 03       		.uleb128 0x3
 2441 00ee 0E       		.uleb128 0xe
 2442 00ef 3A       		.uleb128 0x3a
 2443 00f0 0B       		.uleb128 0xb
 2444 00f1 3B       		.uleb128 0x3b
 2445 00f2 05       		.uleb128 0x5
 2446 00f3 49       		.uleb128 0x49
 2447 00f4 13       		.uleb128 0x13
 2448 00f5 3F       		.uleb128 0x3f
 2449 00f6 19       		.uleb128 0x19
 2450 00f7 3C       		.uleb128 0x3c
 2451 00f8 19       		.uleb128 0x19
ARM GAS  /tmp/cc1lMVxE.s 			page 44


 2452 00f9 00       		.byte	0
 2453 00fa 00       		.byte	0
 2454 00fb 16       		.uleb128 0x16
 2455 00fc 34       		.uleb128 0x34
 2456 00fd 00       		.byte	0
 2457 00fe 03       		.uleb128 0x3
 2458 00ff 0E       		.uleb128 0xe
 2459 0100 3A       		.uleb128 0x3a
 2460 0101 0B       		.uleb128 0xb
 2461 0102 3B       		.uleb128 0x3b
 2462 0103 0B       		.uleb128 0xb
 2463 0104 49       		.uleb128 0x49
 2464 0105 13       		.uleb128 0x13
 2465 0106 3F       		.uleb128 0x3f
 2466 0107 19       		.uleb128 0x19
 2467 0108 3C       		.uleb128 0x3c
 2468 0109 19       		.uleb128 0x19
 2469 010a 00       		.byte	0
 2470 010b 00       		.byte	0
 2471 010c 17       		.uleb128 0x17
 2472 010d 13       		.uleb128 0x13
 2473 010e 01       		.byte	0x1
 2474 010f 0B       		.uleb128 0xb
 2475 0110 0B       		.uleb128 0xb
 2476 0111 3A       		.uleb128 0x3a
 2477 0112 0B       		.uleb128 0xb
 2478 0113 3B       		.uleb128 0x3b
 2479 0114 0B       		.uleb128 0xb
 2480 0115 01       		.uleb128 0x1
 2481 0116 13       		.uleb128 0x13
 2482 0117 00       		.byte	0
 2483 0118 00       		.byte	0
 2484 0119 18       		.uleb128 0x18
 2485 011a 17       		.uleb128 0x17
 2486 011b 01       		.byte	0x1
 2487 011c 0B       		.uleb128 0xb
 2488 011d 0B       		.uleb128 0xb
 2489 011e 3A       		.uleb128 0x3a
 2490 011f 0B       		.uleb128 0xb
 2491 0120 3B       		.uleb128 0x3b
 2492 0121 0B       		.uleb128 0xb
 2493 0122 01       		.uleb128 0x1
 2494 0123 13       		.uleb128 0x13
 2495 0124 00       		.byte	0
 2496 0125 00       		.byte	0
 2497 0126 19       		.uleb128 0x19
 2498 0127 0D       		.uleb128 0xd
 2499 0128 00       		.byte	0
 2500 0129 03       		.uleb128 0x3
 2501 012a 0E       		.uleb128 0xe
 2502 012b 3A       		.uleb128 0x3a
 2503 012c 0B       		.uleb128 0xb
 2504 012d 3B       		.uleb128 0x3b
 2505 012e 0B       		.uleb128 0xb
 2506 012f 49       		.uleb128 0x49
 2507 0130 13       		.uleb128 0x13
 2508 0131 00       		.byte	0
ARM GAS  /tmp/cc1lMVxE.s 			page 45


 2509 0132 00       		.byte	0
 2510 0133 1A       		.uleb128 0x1a
 2511 0134 0D       		.uleb128 0xd
 2512 0135 00       		.byte	0
 2513 0136 03       		.uleb128 0x3
 2514 0137 0E       		.uleb128 0xe
 2515 0138 3A       		.uleb128 0x3a
 2516 0139 0B       		.uleb128 0xb
 2517 013a 3B       		.uleb128 0x3b
 2518 013b 05       		.uleb128 0x5
 2519 013c 49       		.uleb128 0x49
 2520 013d 13       		.uleb128 0x13
 2521 013e 00       		.byte	0
 2522 013f 00       		.byte	0
 2523 0140 1B       		.uleb128 0x1b
 2524 0141 34       		.uleb128 0x34
 2525 0142 00       		.byte	0
 2526 0143 03       		.uleb128 0x3
 2527 0144 08       		.uleb128 0x8
 2528 0145 3A       		.uleb128 0x3a
 2529 0146 0B       		.uleb128 0xb
 2530 0147 3B       		.uleb128 0x3b
 2531 0148 05       		.uleb128 0x5
 2532 0149 49       		.uleb128 0x49
 2533 014a 13       		.uleb128 0x13
 2534 014b 3F       		.uleb128 0x3f
 2535 014c 19       		.uleb128 0x19
 2536 014d 3C       		.uleb128 0x3c
 2537 014e 19       		.uleb128 0x19
 2538 014f 00       		.byte	0
 2539 0150 00       		.byte	0
 2540 0151 1C       		.uleb128 0x1c
 2541 0152 21       		.uleb128 0x21
 2542 0153 00       		.byte	0
 2543 0154 00       		.byte	0
 2544 0155 00       		.byte	0
 2545 0156 1D       		.uleb128 0x1d
 2546 0157 15       		.uleb128 0x15
 2547 0158 01       		.byte	0x1
 2548 0159 27       		.uleb128 0x27
 2549 015a 19       		.uleb128 0x19
 2550 015b 49       		.uleb128 0x49
 2551 015c 13       		.uleb128 0x13
 2552 015d 01       		.uleb128 0x1
 2553 015e 13       		.uleb128 0x13
 2554 015f 00       		.byte	0
 2555 0160 00       		.byte	0
 2556 0161 1E       		.uleb128 0x1e
 2557 0162 2E       		.uleb128 0x2e
 2558 0163 01       		.byte	0x1
 2559 0164 3F       		.uleb128 0x3f
 2560 0165 19       		.uleb128 0x19
 2561 0166 03       		.uleb128 0x3
 2562 0167 0E       		.uleb128 0xe
 2563 0168 3A       		.uleb128 0x3a
 2564 0169 0B       		.uleb128 0xb
 2565 016a 3B       		.uleb128 0x3b
ARM GAS  /tmp/cc1lMVxE.s 			page 46


 2566 016b 0B       		.uleb128 0xb
 2567 016c 27       		.uleb128 0x27
 2568 016d 19       		.uleb128 0x19
 2569 016e 11       		.uleb128 0x11
 2570 016f 01       		.uleb128 0x1
 2571 0170 12       		.uleb128 0x12
 2572 0171 06       		.uleb128 0x6
 2573 0172 40       		.uleb128 0x40
 2574 0173 18       		.uleb128 0x18
 2575 0174 9742     		.uleb128 0x2117
 2576 0176 19       		.uleb128 0x19
 2577 0177 01       		.uleb128 0x1
 2578 0178 13       		.uleb128 0x13
 2579 0179 00       		.byte	0
 2580 017a 00       		.byte	0
 2581 017b 1F       		.uleb128 0x1f
 2582 017c 0B       		.uleb128 0xb
 2583 017d 01       		.byte	0x1
 2584 017e 55       		.uleb128 0x55
 2585 017f 17       		.uleb128 0x17
 2586 0180 01       		.uleb128 0x1
 2587 0181 13       		.uleb128 0x13
 2588 0182 00       		.byte	0
 2589 0183 00       		.byte	0
 2590 0184 20       		.uleb128 0x20
 2591 0185 34       		.uleb128 0x34
 2592 0186 00       		.byte	0
 2593 0187 03       		.uleb128 0x3
 2594 0188 0E       		.uleb128 0xe
 2595 0189 3A       		.uleb128 0x3a
 2596 018a 0B       		.uleb128 0xb
 2597 018b 3B       		.uleb128 0x3b
 2598 018c 0B       		.uleb128 0xb
 2599 018d 49       		.uleb128 0x49
 2600 018e 13       		.uleb128 0x13
 2601 018f 02       		.uleb128 0x2
 2602 0190 17       		.uleb128 0x17
 2603 0191 00       		.byte	0
 2604 0192 00       		.byte	0
 2605 0193 21       		.uleb128 0x21
 2606 0194 1D       		.uleb128 0x1d
 2607 0195 01       		.byte	0x1
 2608 0196 31       		.uleb128 0x31
 2609 0197 13       		.uleb128 0x13
 2610 0198 11       		.uleb128 0x11
 2611 0199 01       		.uleb128 0x1
 2612 019a 12       		.uleb128 0x12
 2613 019b 06       		.uleb128 0x6
 2614 019c 58       		.uleb128 0x58
 2615 019d 0B       		.uleb128 0xb
 2616 019e 59       		.uleb128 0x59
 2617 019f 0B       		.uleb128 0xb
 2618 01a0 01       		.uleb128 0x1
 2619 01a1 13       		.uleb128 0x13
 2620 01a2 00       		.byte	0
 2621 01a3 00       		.byte	0
 2622 01a4 22       		.uleb128 0x22
ARM GAS  /tmp/cc1lMVxE.s 			page 47


 2623 01a5 0B       		.uleb128 0xb
 2624 01a6 01       		.byte	0x1
 2625 01a7 11       		.uleb128 0x11
 2626 01a8 01       		.uleb128 0x1
 2627 01a9 12       		.uleb128 0x12
 2628 01aa 06       		.uleb128 0x6
 2629 01ab 00       		.byte	0
 2630 01ac 00       		.byte	0
 2631 01ad 23       		.uleb128 0x23
 2632 01ae 34       		.uleb128 0x34
 2633 01af 00       		.byte	0
 2634 01b0 31       		.uleb128 0x31
 2635 01b1 13       		.uleb128 0x13
 2636 01b2 00       		.byte	0
 2637 01b3 00       		.byte	0
 2638 01b4 24       		.uleb128 0x24
 2639 01b5 05       		.uleb128 0x5
 2640 01b6 00       		.byte	0
 2641 01b7 31       		.uleb128 0x31
 2642 01b8 13       		.uleb128 0x13
 2643 01b9 02       		.uleb128 0x2
 2644 01ba 17       		.uleb128 0x17
 2645 01bb 00       		.byte	0
 2646 01bc 00       		.byte	0
 2647 01bd 25       		.uleb128 0x25
 2648 01be 898201   		.uleb128 0x4109
 2649 01c1 00       		.byte	0
 2650 01c2 11       		.uleb128 0x11
 2651 01c3 01       		.uleb128 0x1
 2652 01c4 31       		.uleb128 0x31
 2653 01c5 13       		.uleb128 0x13
 2654 01c6 00       		.byte	0
 2655 01c7 00       		.byte	0
 2656 01c8 26       		.uleb128 0x26
 2657 01c9 1D       		.uleb128 0x1d
 2658 01ca 01       		.byte	0x1
 2659 01cb 31       		.uleb128 0x31
 2660 01cc 13       		.uleb128 0x13
 2661 01cd 11       		.uleb128 0x11
 2662 01ce 01       		.uleb128 0x1
 2663 01cf 12       		.uleb128 0x12
 2664 01d0 06       		.uleb128 0x6
 2665 01d1 58       		.uleb128 0x58
 2666 01d2 0B       		.uleb128 0xb
 2667 01d3 59       		.uleb128 0x59
 2668 01d4 05       		.uleb128 0x5
 2669 01d5 00       		.byte	0
 2670 01d6 00       		.byte	0
 2671 01d7 27       		.uleb128 0x27
 2672 01d8 1D       		.uleb128 0x1d
 2673 01d9 01       		.byte	0x1
 2674 01da 31       		.uleb128 0x31
 2675 01db 13       		.uleb128 0x13
 2676 01dc 11       		.uleb128 0x11
 2677 01dd 01       		.uleb128 0x1
 2678 01de 12       		.uleb128 0x12
 2679 01df 06       		.uleb128 0x6
ARM GAS  /tmp/cc1lMVxE.s 			page 48


 2680 01e0 58       		.uleb128 0x58
 2681 01e1 0B       		.uleb128 0xb
 2682 01e2 59       		.uleb128 0x59
 2683 01e3 0B       		.uleb128 0xb
 2684 01e4 00       		.byte	0
 2685 01e5 00       		.byte	0
 2686 01e6 28       		.uleb128 0x28
 2687 01e7 2E       		.uleb128 0x2e
 2688 01e8 00       		.byte	0
 2689 01e9 03       		.uleb128 0x3
 2690 01ea 0E       		.uleb128 0xe
 2691 01eb 3A       		.uleb128 0x3a
 2692 01ec 0B       		.uleb128 0xb
 2693 01ed 3B       		.uleb128 0x3b
 2694 01ee 05       		.uleb128 0x5
 2695 01ef 27       		.uleb128 0x27
 2696 01f0 19       		.uleb128 0x19
 2697 01f1 20       		.uleb128 0x20
 2698 01f2 0B       		.uleb128 0xb
 2699 01f3 00       		.byte	0
 2700 01f4 00       		.byte	0
 2701 01f5 29       		.uleb128 0x29
 2702 01f6 2E       		.uleb128 0x2e
 2703 01f7 01       		.byte	0x1
 2704 01f8 03       		.uleb128 0x3
 2705 01f9 0E       		.uleb128 0xe
 2706 01fa 3A       		.uleb128 0x3a
 2707 01fb 0B       		.uleb128 0xb
 2708 01fc 3B       		.uleb128 0x3b
 2709 01fd 05       		.uleb128 0x5
 2710 01fe 27       		.uleb128 0x27
 2711 01ff 19       		.uleb128 0x19
 2712 0200 49       		.uleb128 0x49
 2713 0201 13       		.uleb128 0x13
 2714 0202 20       		.uleb128 0x20
 2715 0203 0B       		.uleb128 0xb
 2716 0204 01       		.uleb128 0x1
 2717 0205 13       		.uleb128 0x13
 2718 0206 00       		.byte	0
 2719 0207 00       		.byte	0
 2720 0208 2A       		.uleb128 0x2a
 2721 0209 34       		.uleb128 0x34
 2722 020a 00       		.byte	0
 2723 020b 03       		.uleb128 0x3
 2724 020c 0E       		.uleb128 0xe
 2725 020d 3A       		.uleb128 0x3a
 2726 020e 0B       		.uleb128 0xb
 2727 020f 3B       		.uleb128 0x3b
 2728 0210 05       		.uleb128 0x5
 2729 0211 49       		.uleb128 0x49
 2730 0212 13       		.uleb128 0x13
 2731 0213 00       		.byte	0
 2732 0214 00       		.byte	0
 2733 0215 2B       		.uleb128 0x2b
 2734 0216 2E       		.uleb128 0x2e
 2735 0217 01       		.byte	0x1
 2736 0218 03       		.uleb128 0x3
ARM GAS  /tmp/cc1lMVxE.s 			page 49


 2737 0219 0E       		.uleb128 0xe
 2738 021a 3A       		.uleb128 0x3a
 2739 021b 0B       		.uleb128 0xb
 2740 021c 3B       		.uleb128 0x3b
 2741 021d 05       		.uleb128 0x5
 2742 021e 27       		.uleb128 0x27
 2743 021f 19       		.uleb128 0x19
 2744 0220 20       		.uleb128 0x20
 2745 0221 0B       		.uleb128 0xb
 2746 0222 01       		.uleb128 0x1
 2747 0223 13       		.uleb128 0x13
 2748 0224 00       		.byte	0
 2749 0225 00       		.byte	0
 2750 0226 2C       		.uleb128 0x2c
 2751 0227 05       		.uleb128 0x5
 2752 0228 00       		.byte	0
 2753 0229 03       		.uleb128 0x3
 2754 022a 0E       		.uleb128 0xe
 2755 022b 3A       		.uleb128 0x3a
 2756 022c 0B       		.uleb128 0xb
 2757 022d 3B       		.uleb128 0x3b
 2758 022e 05       		.uleb128 0x5
 2759 022f 49       		.uleb128 0x49
 2760 0230 13       		.uleb128 0x13
 2761 0231 00       		.byte	0
 2762 0232 00       		.byte	0
 2763 0233 2D       		.uleb128 0x2d
 2764 0234 2E       		.uleb128 0x2e
 2765 0235 01       		.byte	0x1
 2766 0236 03       		.uleb128 0x3
 2767 0237 0E       		.uleb128 0xe
 2768 0238 3A       		.uleb128 0x3a
 2769 0239 0B       		.uleb128 0xb
 2770 023a 3B       		.uleb128 0x3b
 2771 023b 0B       		.uleb128 0xb
 2772 023c 27       		.uleb128 0x27
 2773 023d 19       		.uleb128 0x19
 2774 023e 49       		.uleb128 0x49
 2775 023f 13       		.uleb128 0x13
 2776 0240 20       		.uleb128 0x20
 2777 0241 0B       		.uleb128 0xb
 2778 0242 01       		.uleb128 0x1
 2779 0243 13       		.uleb128 0x13
 2780 0244 00       		.byte	0
 2781 0245 00       		.byte	0
 2782 0246 2E       		.uleb128 0x2e
 2783 0247 34       		.uleb128 0x34
 2784 0248 00       		.byte	0
 2785 0249 03       		.uleb128 0x3
 2786 024a 0E       		.uleb128 0xe
 2787 024b 3A       		.uleb128 0x3a
 2788 024c 0B       		.uleb128 0xb
 2789 024d 3B       		.uleb128 0x3b
 2790 024e 0B       		.uleb128 0xb
 2791 024f 49       		.uleb128 0x49
 2792 0250 13       		.uleb128 0x13
 2793 0251 00       		.byte	0
ARM GAS  /tmp/cc1lMVxE.s 			page 50


 2794 0252 00       		.byte	0
 2795 0253 2F       		.uleb128 0x2f
 2796 0254 2E       		.uleb128 0x2e
 2797 0255 00       		.byte	0
 2798 0256 3F       		.uleb128 0x3f
 2799 0257 19       		.uleb128 0x19
 2800 0258 3C       		.uleb128 0x3c
 2801 0259 19       		.uleb128 0x19
 2802 025a 6E       		.uleb128 0x6e
 2803 025b 0E       		.uleb128 0xe
 2804 025c 03       		.uleb128 0x3
 2805 025d 0E       		.uleb128 0xe
 2806 025e 3A       		.uleb128 0x3a
 2807 025f 0B       		.uleb128 0xb
 2808 0260 3B       		.uleb128 0x3b
 2809 0261 05       		.uleb128 0x5
 2810 0262 00       		.byte	0
 2811 0263 00       		.byte	0
 2812 0264 00       		.byte	0
 2813              		.section	.debug_loc,"",%progbits
 2814              	.Ldebug_loc0:
 2815              	.LLST5:
 2816 0000 20000000 		.4byte	.LVL9
 2817 0004 34000000 		.4byte	.LVL11
 2818 0008 0400     		.2byte	0x4
 2819 000a 74       		.byte	0x74
 2820 000b 987F     		.sleb128 -104
 2821 000d 9F       		.byte	0x9f
 2822 000e 34000000 		.4byte	.LVL11
 2823 0012 3B000000 		.4byte	.LVL13-1
 2824 0016 0100     		.2byte	0x1
 2825 0018 53       		.byte	0x53
 2826 0019 3B000000 		.4byte	.LVL13-1
 2827 001d 4E000000 		.4byte	.LVL15
 2828 0021 0400     		.2byte	0x4
 2829 0023 74       		.byte	0x74
 2830 0024 987F     		.sleb128 -104
 2831 0026 9F       		.byte	0x9f
 2832 0027 00000000 		.4byte	0
 2833 002b 00000000 		.4byte	0
 2834              	.LLST6:
 2835 002f 2C000000 		.4byte	.LVL10
 2836 0033 34000000 		.4byte	.LVL11
 2837 0037 0400     		.2byte	0x4
 2838 0039 74       		.byte	0x74
 2839 003a 987F     		.sleb128 -104
 2840 003c 9F       		.byte	0x9f
 2841 003d 34000000 		.4byte	.LVL11
 2842 0041 38000000 		.4byte	.LVL12
 2843 0045 0100     		.2byte	0x1
 2844 0047 53       		.byte	0x53
 2845 0048 00000000 		.4byte	0
 2846 004c 00000000 		.4byte	0
 2847              	.LLST3:
 2848 0050 00000000 		.4byte	.LVL5
 2849 0054 06000000 		.4byte	.LVL6
 2850 0058 0300     		.2byte	0x3
ARM GAS  /tmp/cc1lMVxE.s 			page 51


 2851 005a 08       		.byte	0x8
 2852 005b 20       		.byte	0x20
 2853 005c 9F       		.byte	0x9f
 2854 005d 00000000 		.4byte	0
 2855 0061 00000000 		.4byte	0
 2856              	.LLST4:
 2857 0065 10000000 		.4byte	.LVL7
 2858 0069 14000000 		.4byte	.LVL8
 2859 006d 0200     		.2byte	0x2
 2860 006f 30       		.byte	0x30
 2861 0070 9F       		.byte	0x9f
 2862 0071 00000000 		.4byte	0
 2863 0075 00000000 		.4byte	0
 2864              	.LLST0:
 2865 0079 0E000000 		.4byte	.LVL0
 2866 007d 10000000 		.4byte	.LVL1
 2867 0081 0400     		.2byte	0x4
 2868 0083 73       		.byte	0x73
 2869 0084 E800     		.sleb128 104
 2870 0086 9F       		.byte	0x9f
 2871 0087 10000000 		.4byte	.LVL1
 2872 008b 16000000 		.4byte	.LVL3
 2873 008f 0100     		.2byte	0x1
 2874 0091 53       		.byte	0x53
 2875 0092 00000000 		.4byte	0
 2876 0096 00000000 		.4byte	0
 2877              	.LLST1:
 2878 009a 0E000000 		.4byte	.LVL0
 2879 009e 10000000 		.4byte	.LVL1
 2880 00a2 0400     		.2byte	0x4
 2881 00a4 73       		.byte	0x73
 2882 00a5 E800     		.sleb128 104
 2883 00a7 9F       		.byte	0x9f
 2884 00a8 10000000 		.4byte	.LVL1
 2885 00ac 14000000 		.4byte	.LVL2
 2886 00b0 0100     		.2byte	0x1
 2887 00b2 53       		.byte	0x53
 2888 00b3 00000000 		.4byte	0
 2889 00b7 00000000 		.4byte	0
 2890              	.LLST2:
 2891 00bb 14000000 		.4byte	.LVL2
 2892 00bf 1A000000 		.4byte	.LVL4
 2893 00c3 0200     		.2byte	0x2
 2894 00c5 30       		.byte	0x30
 2895 00c6 9F       		.byte	0x9f
 2896 00c7 00000000 		.4byte	0
 2897 00cb 00000000 		.4byte	0
 2898              		.section	.debug_aranges,"",%progbits
 2899 0000 24000000 		.4byte	0x24
 2900 0004 0200     		.2byte	0x2
 2901 0006 00000000 		.4byte	.Ldebug_info0
 2902 000a 04       		.byte	0x4
 2903 000b 00       		.byte	0
 2904 000c 0000     		.2byte	0
 2905 000e 0000     		.2byte	0
 2906 0010 00000000 		.4byte	.LFB294
 2907 0014 20000000 		.4byte	.LFE294-.LFB294
ARM GAS  /tmp/cc1lMVxE.s 			page 52


 2908 0018 00000000 		.4byte	.LFB295
 2909 001c 60000000 		.4byte	.LFE295-.LFB295
 2910 0020 00000000 		.4byte	0
 2911 0024 00000000 		.4byte	0
 2912              		.section	.debug_ranges,"",%progbits
 2913              	.Ldebug_ranges0:
 2914 0000 18000000 		.4byte	.LBB67
 2915 0004 44000000 		.4byte	.LBE67
 2916 0008 46000000 		.4byte	.LBB74
 2917 000c 4C000000 		.4byte	.LBE74
 2918 0010 00000000 		.4byte	0
 2919 0014 00000000 		.4byte	0
 2920 0018 00000000 		.4byte	.LFB294
 2921 001c 20000000 		.4byte	.LFE294
 2922 0020 00000000 		.4byte	.LFB295
 2923 0024 60000000 		.4byte	.LFE295
 2924 0028 00000000 		.4byte	0
 2925 002c 00000000 		.4byte	0
 2926              		.section	.debug_line,"",%progbits
 2927              	.Ldebug_line0:
 2928 0000 7F030000 		.section	.debug_str,"MS",%progbits,1
 2928      0200FD02 
 2928      00000201 
 2928      FB0E0D00 
 2928      01010101 
 2929              	.LASF54:
 2930 0000 72656164 		.ascii	"ready_list_t\000"
 2930      795F6C69 
 2930      73745F74 
 2930      00
 2931              	.LASF4:
 2932 000d 73697A65 		.ascii	"size_t\000"
 2932      5F7400
 2933              	.LASF60:
 2934 0014 64656C74 		.ascii	"delta\000"
 2934      6100
 2935              	.LASF112:
 2936 001a 7264796D 		.ascii	"rdymsg\000"
 2936      736700
 2937              	.LASF93:
 2938 0021 46504453 		.ascii	"FPDSCR\000"
 2938      435200
 2939              	.LASF20:
 2940 0028 75696E74 		.ascii	"uint64_t\000"
 2940      36345F74 
 2940      00
 2941              	.LASF3:
 2942 0031 7369676E 		.ascii	"signed char\000"
 2942      65642063 
 2942      68617200 
 2943              	.LASF5:
 2944 003d 5F5F7569 		.ascii	"__uint8_t\000"
 2944      6E74385F 
 2944      7400
 2945              	.LASF53:
 2946 0047 70726576 		.ascii	"prev\000"
 2946      00
ARM GAS  /tmp/cc1lMVxE.s 			page 53


 2947              	.LASF104:
 2948 004c 706F7274 		.ascii	"port_intctx\000"
 2948      5F696E74 
 2948      63747800 
 2949              	.LASF65:
 2950 0058 73797374 		.ascii	"system_debug_t\000"
 2950      656D5F64 
 2950      65627567 
 2950      5F7400
 2951              	.LASF155:
 2952 0067 70726F76 		.ascii	"provider\000"
 2952      69646572 
 2952      00
 2953              	.LASF165:
 2954 0070 73656D5F 		.ascii	"sem_list\000"
 2954      6C697374 
 2954      00
 2955              	.LASF178:
 2956 0079 706F7274 		.ascii	"port_lock\000"
 2956      5F6C6F63 
 2956      6B00
 2957              	.LASF147:
 2958 0083 6D656D67 		.ascii	"memgetfunc_t\000"
 2958      65746675 
 2958      6E635F74 
 2958      00
 2959              	.LASF113:
 2960 0090 65786974 		.ascii	"exitcode\000"
 2960      636F6465 
 2960      00
 2961              	.LASF72:
 2962 0099 6D61696E 		.ascii	"mainthread\000"
 2962      74687265 
 2962      616400
 2963              	.LASF116:
 2964 00a4 73656E74 		.ascii	"sentmsg\000"
 2964      6D736700 
 2965              	.LASF62:
 2966 00ac 76697274 		.ascii	"virtual_timers_list_t\000"
 2966      75616C5F 
 2966      74696D65 
 2966      72735F6C 
 2966      6973745F 
 2967              	.LASF75:
 2968 00c2 43505549 		.ascii	"CPUID\000"
 2968      4400
 2969              	.LASF50:
 2970 00c8 6E657874 		.ascii	"next\000"
 2970      00
 2971              	.LASF52:
 2972 00cd 63685F74 		.ascii	"ch_threads_queue\000"
 2972      68726561 
 2972      64735F71 
 2972      75657565 
 2972      00
 2973              	.LASF127:
 2974 00de 73697A65 		.ascii	"size\000"
ARM GAS  /tmp/cc1lMVxE.s 			page 54


 2974      00
 2975              	.LASF15:
 2976 00e3 6C6F6E67 		.ascii	"long long unsigned int\000"
 2976      206C6F6E 
 2976      6720756E 
 2976      7369676E 
 2976      65642069 
 2977              	.LASF70:
 2978 00fa 726C6973 		.ascii	"rlist\000"
 2978      7400
 2979              	.LASF87:
 2980 0100 49534152 		.ascii	"ISAR\000"
 2980      00
 2981              	.LASF181:
 2982 0105 62617365 		.ascii	"basePri\000"
 2982      50726900 
 2983              	.LASF71:
 2984 010d 76746C69 		.ascii	"vtlist\000"
 2984      737400
 2985              	.LASF177:
 2986 0114 706F7274 		.ascii	"port_unlock\000"
 2986      5F756E6C 
 2986      6F636B00 
 2987              	.LASF41:
 2988 0120 6D736771 		.ascii	"msgqueue\000"
 2988      75657565 
 2988      00
 2989              	.LASF37:
 2990 0129 73746174 		.ascii	"state\000"
 2990      6500
 2991              	.LASF11:
 2992 012f 6C6F6E67 		.ascii	"long int\000"
 2992      20696E74 
 2992      00
 2993              	.LASF173:
 2994 0138 5356435F 		.ascii	"SVC_Handler\000"
 2994      48616E64 
 2994      6C657200 
 2995              	.LASF23:
 2996 0144 74737461 		.ascii	"tstate_t\000"
 2996      74655F74 
 2996      00
 2997              	.LASF61:
 2998 014d 66756E63 		.ascii	"func\000"
 2998      00
 2999              	.LASF143:
 3000 0152 63686465 		.ascii	"chdebug_t\000"
 3000      6275675F 
 3000      7400
 3001              	.LASF141:
 3002 015c 6F66665F 		.ascii	"off_preempt\000"
 3002      70726565 
 3002      6D707400 
 3003              	.LASF189:
 3004 0168 63685363 		.ascii	"chSchIsPreemptionRequired\000"
 3004      68497350 
 3004      7265656D 
ARM GAS  /tmp/cc1lMVxE.s 			page 55


 3004      7074696F 
 3004      6E526571 
 3005              	.LASF140:
 3006 0182 6F66665F 		.ascii	"off_refs\000"
 3006      72656673 
 3006      00
 3007              	.LASF85:
 3008 018b 41465352 		.ascii	"AFSR\000"
 3008      00
 3009              	.LASF12:
 3010 0190 5F5F7569 		.ascii	"__uint32_t\000"
 3010      6E743332 
 3010      5F7400
 3011              	.LASF101:
 3012 019b 72656761 		.ascii	"regarm_t\000"
 3012      726D5F74 
 3012      00
 3013              	.LASF90:
 3014 01a4 5343425F 		.ascii	"SCB_Type\000"
 3014      54797065 
 3014      00
 3015              	.LASF66:
 3016 01ad 63685F73 		.ascii	"ch_system_debug\000"
 3016      79737465 
 3016      6D5F6465 
 3016      62756700 
 3017              	.LASF40:
 3018 01bd 77616974 		.ascii	"waiting\000"
 3018      696E6700 
 3019              	.LASF100:
 3020 01c5 41504250 		.ascii	"APBPrescTable\000"
 3020      72657363 
 3020      5461626C 
 3020      6500
 3021              	.LASF126:
 3022 01d3 7A65726F 		.ascii	"zero\000"
 3022      00
 3023              	.LASF1:
 3024 01d8 6C6F6E67 		.ascii	"long long int\000"
 3024      206C6F6E 
 3024      6720696E 
 3024      7400
 3025              	.LASF154:
 3026 01e6 616C6967 		.ascii	"align\000"
 3026      6E00
 3027              	.LASF74:
 3028 01ec 73797369 		.ascii	"sysinterval_t\000"
 3028      6E746572 
 3028      76616C5F 
 3028      7400
 3029              	.LASF28:
 3030 01fa 636E745F 		.ascii	"cnt_t\000"
 3030      7400
 3031              	.LASF96:
 3032 0200 4650555F 		.ascii	"FPU_Type\000"
 3032      54797065 
 3032      00
ARM GAS  /tmp/cc1lMVxE.s 			page 56


 3033              	.LASF0:
 3034 0209 756E7369 		.ascii	"unsigned int\000"
 3034      676E6564 
 3034      20696E74 
 3034      00
 3035              	.LASF180:
 3036 0216 5F5F7365 		.ascii	"__set_PSP\000"
 3036      745F5053 
 3036      5000
 3037              	.LASF17:
 3038 0220 75696E74 		.ascii	"uint16_t\000"
 3038      31365F74 
 3038      00
 3039              	.LASF98:
 3040 0229 53797374 		.ascii	"SystemCoreClock\000"
 3040      656D436F 
 3040      7265436C 
 3040      6F636B00 
 3041              	.LASF117:
 3042 0239 77747365 		.ascii	"wtsemp\000"
 3042      6D7000
 3043              	.LASF115:
 3044 0240 77747472 		.ascii	"wttrp\000"
 3044      7000
 3045              	.LASF144:
 3046 0246 63685F64 		.ascii	"ch_debug\000"
 3046      65627567 
 3046      00
 3047              	.LASF156:
 3048 024f 6D656D6F 		.ascii	"memory_pool_t\000"
 3048      72795F70 
 3048      6F6F6C5F 
 3048      7400
 3049              	.LASF35:
 3050 025d 6E616D65 		.ascii	"name\000"
 3050      00
 3051              	.LASF77:
 3052 0262 56544F52 		.ascii	"VTOR\000"
 3052      00
 3053              	.LASF45:
 3054 0267 6D706F6F 		.ascii	"mpool\000"
 3054      6C00
 3055              	.LASF109:
 3056 026d 72657365 		.ascii	"reserved\000"
 3056      72766564 
 3056      00
 3057              	.LASF164:
 3058 0276 6275665F 		.ascii	"buf_list\000"
 3058      6C697374 
 3058      00
 3059              	.LASF48:
 3060 027f 63685F74 		.ascii	"ch_thread\000"
 3060      68726561 
 3060      6400
 3061              	.LASF84:
 3062 0289 42464152 		.ascii	"BFAR\000"
 3062      00
ARM GAS  /tmp/cc1lMVxE.s 			page 57


 3063              	.LASF76:
 3064 028e 49435352 		.ascii	"ICSR\000"
 3064      00
 3065              	.LASF26:
 3066 0293 6D73675F 		.ascii	"msg_t\000"
 3066      7400
 3067              	.LASF78:
 3068 0299 41495243 		.ascii	"AIRCR\000"
 3068      5200
 3069              	.LASF82:
 3070 029f 44465352 		.ascii	"DFSR\000"
 3070      00
 3071              	.LASF29:
 3072 02a4 75636E74 		.ascii	"ucnt_t\000"
 3072      5F7400
 3073              	.LASF42:
 3074 02ab 6570656E 		.ascii	"epending\000"
 3074      64696E67 
 3074      00
 3075              	.LASF160:
 3076 02b4 64796E5F 		.ascii	"dyn_list_t\000"
 3076      6C697374 
 3076      5F7400
 3077              	.LASF83:
 3078 02bf 4D4D4641 		.ascii	"MMFAR\000"
 3078      5200
 3079              	.LASF172:
 3080 02c5 5F706F72 		.ascii	"_port_irq_epilogue\000"
 3080      745F6972 
 3080      715F6570 
 3080      696C6F67 
 3080      756500
 3081              	.LASF133:
 3082 02d8 6F66665F 		.ascii	"off_ctx\000"
 3082      63747800 
 3083              	.LASF22:
 3084 02e0 746D6F64 		.ascii	"tmode_t\000"
 3084      655F7400 
 3085              	.LASF55:
 3086 02e8 63685F72 		.ascii	"ch_ready_list\000"
 3086      65616479 
 3086      5F6C6973 
 3086      7400
 3087              	.LASF27:
 3088 02f6 6576656E 		.ascii	"eventmask_t\000"
 3088      746D6173 
 3088      6B5F7400 
 3089              	.LASF99:
 3090 0302 41484250 		.ascii	"AHBPrescTable\000"
 3090      72657363 
 3090      5461626C 
 3090      6500
 3091              	.LASF149:
 3092 0310 656E646D 		.ascii	"endmem\000"
 3092      656D00
 3093              	.LASF10:
 3094 0317 5F5F696E 		.ascii	"__int32_t\000"
ARM GAS  /tmp/cc1lMVxE.s 			page 58


 3094      7433325F 
 3094      7400
 3095              	.LASF102:
 3096 0321 73746B61 		.ascii	"stkalign_t\000"
 3096      6C69676E 
 3096      5F7400
 3097              	.LASF33:
 3098 032c 6E657765 		.ascii	"newer\000"
 3098      7200
 3099              	.LASF47:
 3100 0332 74687265 		.ascii	"threads_list_t\000"
 3100      6164735F 
 3100      6C697374 
 3100      5F7400
 3101              	.LASF44:
 3102 0341 7265616C 		.ascii	"realprio\000"
 3102      7072696F 
 3102      00
 3103              	.LASF128:
 3104 034a 76657273 		.ascii	"version\000"
 3104      696F6E00 
 3105              	.LASF91:
 3106 0352 46504343 		.ascii	"FPCCR\000"
 3106      5200
 3107              	.LASF21:
 3108 0358 7274636E 		.ascii	"rtcnt_t\000"
 3108      745F7400 
 3109              	.LASF158:
 3110 0360 64796E5F 		.ascii	"dyn_element_t\000"
 3110      656C656D 
 3110      656E745F 
 3110      7400
 3111              	.LASF63:
 3112 036e 63685F76 		.ascii	"ch_virtual_timers_list\000"
 3112      69727475 
 3112      616C5F74 
 3112      696D6572 
 3112      735F6C69 
 3113              	.LASF2:
 3114 0385 6C6F6E67 		.ascii	"long double\000"
 3114      20646F75 
 3114      626C6500 
 3115              	.LASF31:
 3116 0391 71756575 		.ascii	"queue\000"
 3116      6500
 3117              	.LASF159:
 3118 0397 63685F64 		.ascii	"ch_dyn_list\000"
 3118      796E5F6C 
 3118      69737400 
 3119              	.LASF80:
 3120 03a3 43465352 		.ascii	"CFSR\000"
 3120      00
 3121              	.LASF134:
 3122 03a8 6F66665F 		.ascii	"off_newer\000"
 3122      6E657765 
 3122      7200
 3123              	.LASF188:
ARM GAS  /tmp/cc1lMVxE.s 			page 59


 3124 03b2 2F686F6D 		.ascii	"/home/tongcheng/Downloads/RM2019_Power_Runes-master"
 3124      652F746F 
 3124      6E676368 
 3124      656E672F 
 3124      446F776E 
 3125 03e5 2F524D32 		.ascii	"/RM2019_Power_Runes\000"
 3125      3031395F 
 3125      506F7765 
 3125      725F5275 
 3125      6E657300 
 3126              	.LASF103:
 3127 03f9 706F7274 		.ascii	"port_context\000"
 3127      5F636F6E 
 3127      74657874 
 3127      00
 3128              	.LASF105:
 3129 0406 706F7274 		.ascii	"port_extctx\000"
 3129      5F657874 
 3129      63747800 
 3130              	.LASF111:
 3131 0412 746D5F63 		.ascii	"tm_calibration_t\000"
 3131      616C6962 
 3131      72617469 
 3131      6F6E5F74 
 3131      00
 3132              	.LASF32:
 3133 0423 7072696F 		.ascii	"prio\000"
 3133      00
 3134              	.LASF166:
 3135 0428 73656D5F 		.ascii	"sem_pool\000"
 3135      706F6F6C 
 3135      00
 3136              	.LASF56:
 3137 0431 63757272 		.ascii	"current\000"
 3137      656E7400 
 3138              	.LASF14:
 3139 0439 5F5F7569 		.ascii	"__uint64_t\000"
 3139      6E743634 
 3139      5F7400
 3140              	.LASF150:
 3141 0444 6D656D63 		.ascii	"memcore_t\000"
 3141      6F72655F 
 3141      7400
 3142              	.LASF94:
 3143 044e 4D564652 		.ascii	"MVFR0\000"
 3143      3000
 3144              	.LASF95:
 3145 0454 4D564652 		.ascii	"MVFR1\000"
 3145      3100
 3146              	.LASF24:
 3147 045a 74726566 		.ascii	"trefs_t\000"
 3147      735F7400 
 3148              	.LASF88:
 3149 0462 52455345 		.ascii	"RESERVED0\000"
 3149      52564544 
 3149      3000
 3150              	.LASF174:
ARM GAS  /tmp/cc1lMVxE.s 			page 60


 3151 046c 63747870 		.ascii	"ctxp\000"
 3151      00
 3152              	.LASF58:
 3153 0471 76697274 		.ascii	"virtual_timer_t\000"
 3153      75616C5F 
 3153      74696D65 
 3153      725F7400 
 3154              	.LASF157:
 3155 0481 63685F64 		.ascii	"ch_dyn_element\000"
 3155      796E5F65 
 3155      6C656D65 
 3155      6E7400
 3156              	.LASF25:
 3157 0490 74707269 		.ascii	"tprio_t\000"
 3157      6F5F7400 
 3158              	.LASF183:
 3159 0498 5F5F6765 		.ascii	"__get_FPSCR\000"
 3159      745F4650 
 3159      53435200 
 3160              	.LASF131:
 3161 04a4 74687265 		.ascii	"threadsize\000"
 3161      61647369 
 3161      7A6500
 3162              	.LASF146:
 3163 04af 5F426F6F 		.ascii	"_Bool\000"
 3163      6C00
 3164              	.LASF18:
 3165 04b5 696E7433 		.ascii	"int32_t\000"
 3165      325F7400 
 3166              	.LASF6:
 3167 04bd 756E7369 		.ascii	"unsigned char\000"
 3167      676E6564 
 3167      20636861 
 3167      7200
 3168              	.LASF132:
 3169 04cb 6F66665F 		.ascii	"off_prio\000"
 3169      7072696F 
 3169      00
 3170              	.LASF137:
 3171 04d4 6F66665F 		.ascii	"off_stklimit\000"
 3171      73746B6C 
 3171      696D6974 
 3171      00
 3172              	.LASF79:
 3173 04e1 53484353 		.ascii	"SHCSR\000"
 3173      5200
 3174              	.LASF97:
 3175 04e7 49544D5F 		.ascii	"ITM_RxBuffer\000"
 3175      52784275 
 3175      66666572 
 3175      00
 3176              	.LASF39:
 3177 04f4 72656673 		.ascii	"refs\000"
 3177      00
 3178              	.LASF7:
 3179 04f9 73686F72 		.ascii	"short int\000"
 3179      7420696E 
ARM GAS  /tmp/cc1lMVxE.s 			page 61


 3179      7400
 3180              	.LASF64:
 3181 0503 6C617374 		.ascii	"lasttime\000"
 3181      74696D65 
 3181      00
 3182              	.LASF107:
 3183 050c 78707372 		.ascii	"xpsr\000"
 3183      00
 3184              	.LASF119:
 3185 0511 65776D61 		.ascii	"ewmask\000"
 3185      736B00
 3186              	.LASF69:
 3187 0518 63685F73 		.ascii	"ch_system\000"
 3187      79737465 
 3187      6D00
 3188              	.LASF108:
 3189 0522 66707363 		.ascii	"fpscr\000"
 3189      7200
 3190              	.LASF171:
 3191 0528 63685F66 		.ascii	"ch_factory\000"
 3191      6163746F 
 3191      727900
 3192              	.LASF106:
 3193 0533 6C725F74 		.ascii	"lr_thd\000"
 3193      686400
 3194              	.LASF163:
 3195 053a 6F626A5F 		.ascii	"obj_pool\000"
 3195      706F6F6C 
 3195      00
 3196              	.LASF92:
 3197 0543 46504341 		.ascii	"FPCAR\000"
 3197      5200
 3198              	.LASF161:
 3199 0549 63685F6F 		.ascii	"ch_objects_factory\000"
 3199      626A6563 
 3199      74735F66 
 3199      6163746F 
 3199      727900
 3200              	.LASF167:
 3201 055c 6D62785F 		.ascii	"mbx_list\000"
 3201      6C697374 
 3201      00
 3202              	.LASF59:
 3203 0565 63685F76 		.ascii	"ch_virtual_timer\000"
 3203      69727475 
 3203      616C5F74 
 3203      696D6572 
 3203      00
 3204              	.LASF120:
 3205 0576 63685F73 		.ascii	"ch_semaphore\000"
 3205      656D6170 
 3205      686F7265 
 3205      00
 3206              	.LASF142:
 3207 0583 6F66665F 		.ascii	"off_time\000"
 3207      74696D65 
 3207      00
ARM GAS  /tmp/cc1lMVxE.s 			page 62


 3208              	.LASF124:
 3209 058c 63685F69 		.ascii	"ch_idle_thread_wa\000"
 3209      646C655F 
 3209      74687265 
 3209      61645F77 
 3209      6100
 3210              	.LASF130:
 3211 059e 74696D65 		.ascii	"timesize\000"
 3211      73697A65 
 3211      00
 3212              	.LASF169:
 3213 05a7 70697065 		.ascii	"pipe_list\000"
 3213      5F6C6973 
 3213      7400
 3214              	.LASF19:
 3215 05b1 75696E74 		.ascii	"uint32_t\000"
 3215      33325F74 
 3215      00
 3216              	.LASF118:
 3217 05ba 77746D74 		.ascii	"wtmtxp\000"
 3217      787000
 3218              	.LASF49:
 3219 05c1 63685F74 		.ascii	"ch_threads_list\000"
 3219      68726561 
 3219      64735F6C 
 3219      69737400 
 3220              	.LASF122:
 3221 05d1 6F776E65 		.ascii	"owner\000"
 3221      7200
 3222              	.LASF186:
 3223 05d7 474E5520 		.ascii	"GNU C11 7.3.1 20180622 (release) [ARM/embedded-7-br"
 3223      43313120 
 3223      372E332E 
 3223      31203230 
 3223      31383036 
 3224 060a 616E6368 		.ascii	"anch revision 261907] -mcpu=cortex-m4 -mthumb -mflo"
 3224      20726576 
 3224      6973696F 
 3224      6E203236 
 3224      31393037 
 3225 063d 61742D61 		.ascii	"at-abi=hard -mfpu=fpv4-sp-d16 -ggdb -O3 -std=c11 -f"
 3225      62693D68 
 3225      61726420 
 3225      2D6D6670 
 3225      753D6670 
 3226 0670 6F6D6974 		.ascii	"omit-frame-pointer -ffunction-sections -fdata-secti"
 3226      2D667261 
 3226      6D652D70 
 3226      6F696E74 
 3226      6572202D 
 3227 06a3 6F6E7320 		.ascii	"ons -fno-common\000"
 3227      2D666E6F 
 3227      2D636F6D 
 3227      6D6F6E00 
 3228              	.LASF13:
 3229 06b3 6C6F6E67 		.ascii	"long unsigned int\000"
 3229      20756E73 
ARM GAS  /tmp/cc1lMVxE.s 			page 63


 3229      69676E65 
 3229      6420696E 
 3229      7400
 3230              	.LASF36:
 3231 06c5 77616261 		.ascii	"wabase\000"
 3231      736500
 3232              	.LASF123:
 3233 06cc 63686172 		.ascii	"char\000"
 3233      00
 3234              	.LASF34:
 3235 06d1 6F6C6465 		.ascii	"older\000"
 3235      7200
 3236              	.LASF162:
 3237 06d7 6F626A5F 		.ascii	"obj_list\000"
 3237      6C697374 
 3237      00
 3238              	.LASF8:
 3239 06e0 5F5F7569 		.ascii	"__uint16_t\000"
 3239      6E743136 
 3239      5F7400
 3240              	.LASF175:
 3241 06eb 706F7274 		.ascii	"port_unlock_from_isr\000"
 3241      5F756E6C 
 3241      6F636B5F 
 3241      66726F6D 
 3241      5F697372 
 3242              	.LASF30:
 3243 0700 74687265 		.ascii	"thread_t\000"
 3243      61645F74 
 3243      00
 3244              	.LASF151:
 3245 0709 63685F6D 		.ascii	"ch_memcore\000"
 3245      656D636F 
 3245      726500
 3246              	.LASF73:
 3247 0714 73797374 		.ascii	"systime_t\000"
 3247      696D655F 
 3247      7400
 3248              	.LASF57:
 3249 071e 76746675 		.ascii	"vtfunc_t\000"
 3249      6E635F74 
 3249      00
 3250              	.LASF179:
 3251 0727 5F5F7365 		.ascii	"__set_BASEPRI\000"
 3251      745F4241 
 3251      53455052 
 3251      4900
 3252              	.LASF67:
 3253 0735 70616E69 		.ascii	"panic_msg\000"
 3253      635F6D73 
 3253      6700
 3254              	.LASF182:
 3255 073f 746F704F 		.ascii	"topOfProcStack\000"
 3255      6650726F 
 3255      63537461 
 3255      636B00
 3256              	.LASF110:
ARM GAS  /tmp/cc1lMVxE.s 			page 64


 3257 074e 6F666673 		.ascii	"offset\000"
 3257      657400
 3258              	.LASF121:
 3259 0755 63685F6D 		.ascii	"ch_mutex\000"
 3259      75746578 
 3259      00
 3260              	.LASF135:
 3261 075e 6F66665F 		.ascii	"off_older\000"
 3261      6F6C6465 
 3261      7200
 3262              	.LASF9:
 3263 0768 73686F72 		.ascii	"short unsigned int\000"
 3263      7420756E 
 3263      7369676E 
 3263      65642069 
 3263      6E7400
 3264              	.LASF68:
 3265 077b 63685F73 		.ascii	"ch_system_t\000"
 3265      79737465 
 3265      6D5F7400 
 3266              	.LASF125:
 3267 0787 6964656E 		.ascii	"identifier\000"
 3267      74696669 
 3267      657200
 3268              	.LASF176:
 3269 0792 706F7274 		.ascii	"port_lock_from_isr\000"
 3269      5F6C6F63 
 3269      6B5F6672 
 3269      6F6D5F69 
 3269      737200
 3270              	.LASF184:
 3271 07a5 5F5F6765 		.ascii	"__get_PSP\000"
 3271      745F5053 
 3271      5000
 3272              	.LASF153:
 3273 07af 6F626A65 		.ascii	"object_size\000"
 3273      63745F73 
 3273      697A6500 
 3274              	.LASF129:
 3275 07bb 70747273 		.ascii	"ptrsize\000"
 3275      697A6500 
 3276              	.LASF187:
 3277 07c3 2E2F524D 		.ascii	"./RM18A-ChibiOS18-Core/chibios/os/common/ports/ARMC"
 3277      3138412D 
 3277      43686962 
 3277      694F5331 
 3277      382D436F 
 3278 07f6 4D782F63 		.ascii	"Mx/chcore_v7m.c\000"
 3278      68636F72 
 3278      655F7637 
 3278      6D2E6300 
 3279              	.LASF51:
 3280 0806 74687265 		.ascii	"threads_queue_t\000"
 3280      6164735F 
 3280      71756575 
 3280      655F7400 
 3281              	.LASF152:
ARM GAS  /tmp/cc1lMVxE.s 			page 65


 3282 0816 706F6F6C 		.ascii	"pool_header\000"
 3282      5F686561 
 3282      64657200 
 3283              	.LASF86:
 3284 0822 4D4D4652 		.ascii	"MMFR\000"
 3284      00
 3285              	.LASF136:
 3286 0827 6F66665F 		.ascii	"off_name\000"
 3286      6E616D65 
 3286      00
 3287              	.LASF16:
 3288 0830 75696E74 		.ascii	"uint8_t\000"
 3288      385F7400 
 3289              	.LASF38:
 3290 0838 666C6167 		.ascii	"flags\000"
 3290      7300
 3291              	.LASF168:
 3292 083e 6669666F 		.ascii	"fifo_list\000"
 3292      5F6C6973 
 3292      7400
 3293              	.LASF139:
 3294 0848 6F66665F 		.ascii	"off_flags\000"
 3294      666C6167 
 3294      7300
 3295              	.LASF46:
 3296 0852 74687265 		.ascii	"thread_reference_t\000"
 3296      61645F72 
 3296      65666572 
 3296      656E6365 
 3296      5F7400
 3297              	.LASF114:
 3298 0865 77746F62 		.ascii	"wtobjp\000"
 3298      6A7000
 3299              	.LASF138:
 3300 086c 6F66665F 		.ascii	"off_state\000"
 3300      73746174 
 3300      6500
 3301              	.LASF170:
 3302 0876 6F626A65 		.ascii	"objects_factory_t\000"
 3302      6374735F 
 3302      66616374 
 3302      6F72795F 
 3302      7400
 3303              	.LASF89:
 3304 0888 43504143 		.ascii	"CPACR\000"
 3304      5200
 3305              	.LASF81:
 3306 088e 48465352 		.ascii	"HFSR\000"
 3306      00
 3307              	.LASF43:
 3308 0893 6D74786C 		.ascii	"mtxlist\000"
 3308      69737400 
 3309              	.LASF145:
 3310 089b 6D757465 		.ascii	"mutex_t\000"
 3310      785F7400 
 3311              	.LASF185:
 3312 08a3 72657375 		.ascii	"result\000"
ARM GAS  /tmp/cc1lMVxE.s 			page 66


 3312      6C7400
 3313              	.LASF148:
 3314 08aa 6E657874 		.ascii	"nextmem\000"
 3314      6D656D00 
 3315              		.ident	"GCC: (GNU Tools for Arm Embedded Processors 7-2018-q3-update) 7.3.1 20180622 (release) [AR
ARM GAS  /tmp/cc1lMVxE.s 			page 67


DEFINED SYMBOLS
                            *ABS*:0000000000000000 chcore_v7m.c
     /tmp/cc1lMVxE.s:18     .text.SVC_Handler:0000000000000000 $t
     /tmp/cc1lMVxE.s:26     .text.SVC_Handler:0000000000000000 SVC_Handler
     /tmp/cc1lMVxE.s:90     .text.SVC_Handler:000000000000001c $d
     /tmp/cc1lMVxE.s:95     .text._port_irq_epilogue:0000000000000000 $t
     /tmp/cc1lMVxE.s:103    .text._port_irq_epilogue:0000000000000000 _port_irq_epilogue
     /tmp/cc1lMVxE.s:228    .text._port_irq_epilogue:0000000000000050 $d

UNDEFINED SYMBOLS
chSchIsPreemptionRequired
_port_switch_from_isr
_port_exit_from_isr
