ARM GAS  /tmp/cc0z799O.s 			page 1


   1              		.cpu cortex-m4
   2              		.eabi_attribute 27, 1
   3              		.eabi_attribute 28, 1
   4              		.eabi_attribute 20, 1
   5              		.eabi_attribute 21, 1
   6              		.eabi_attribute 23, 3
   7              		.eabi_attribute 24, 1
   8              		.eabi_attribute 25, 1
   9              		.eabi_attribute 26, 1
  10              		.eabi_attribute 30, 2
  11              		.eabi_attribute 34, 1
  12              		.eabi_attribute 18, 4
  13              		.file	"chcond.c"
  14              		.text
  15              	.Ltext0:
  16              		.cfi_sections	.debug_frame
  17              		.section	.text.chCondObjectInit,"ax",%progbits
  18              		.align	1
  19              		.p2align 2,,3
  20              		.global	chCondObjectInit
  21              		.syntax unified
  22              		.thumb
  23              		.thumb_func
  24              		.fpu fpv4-sp-d16
  25              		.type	chCondObjectInit, %function
  26              	chCondObjectInit:
  27              	.LFB294:
  28              		.file 1 "./RM18A-ChibiOS18-Core/chibios/os/rt/src/chcond.c"
  29              		.loc 1 75 0
  30              		.cfi_startproc
  31              		@ args = 0, pretend = 0, frame = 0
  32              		@ frame_needed = 0, uses_anonymous_args = 0
  33              		@ link register save eliminated.
  34              	.LVL0:
  35              	.LBB89:
  36              	.LBB90:
  37              		.file 2 "./RM18A-ChibiOS18-Core/chibios/os/rt/include/chschd.h"
  38              		.loc 2 540 0
  39 0000 C0E90000 		strd	r0, r0, [r0]
  40              	.LVL1:
  41              	.LBE90:
  42              	.LBE89:
  43              		.loc 1 80 0
  44 0004 7047     		bx	lr
  45              		.cfi_endproc
  46              	.LFE294:
  47              		.size	chCondObjectInit, .-chCondObjectInit
  48 0006 00BF     		.section	.text.chCondSignal,"ax",%progbits
  49              		.align	1
  50              		.p2align 2,,3
  51              		.global	chCondSignal
  52              		.syntax unified
  53              		.thumb
  54              		.thumb_func
  55              		.fpu fpv4-sp-d16
  56              		.type	chCondSignal, %function
  57              	chCondSignal:
ARM GAS  /tmp/cc0z799O.s 			page 2


  58              	.LFB295:
  59              		.loc 1 89 0
  60              		.cfi_startproc
  61              		@ args = 0, pretend = 0, frame = 0
  62              		@ frame_needed = 0, uses_anonymous_args = 0
  63              	.LVL2:
  64 0000 08B5     		push	{r3, lr}
  65              		.cfi_def_cfa_offset 8
  66              		.cfi_offset 3, -8
  67              		.cfi_offset 14, -4
  68              	.LBB91:
  69              	.LBB92:
  70              	.LBB93:
  71              	.LBB94:
  72              		.file 3 "./RM18A-ChibiOS18-Core/chibios/os/common/ext/ARM/CMSIS/Core/Include/cmsis_gcc.h"
  73              		.loc 3 493 0
  74 0002 2023     		movs	r3, #32
  75              		.syntax unified
  76              	@ 493 "./RM18A-ChibiOS18-Core/chibios/os/common/ext/ARM/CMSIS/Core/Include/cmsis_gcc.h" 1
  77 0004 83F31188 		MSR basepri, r3
  78              	@ 0 "" 2
  79              	.LVL3:
  80              		.thumb
  81              		.syntax unified
  82              	.LBE94:
  83              	.LBE93:
  84              	.LBE92:
  85              	.LBE91:
  86              	.LBB95:
  87              	.LBB96:
  88              		.loc 2 566 0
  89 0008 0268     		ldr	r2, [r0]
  90              	.LVL4:
  91              	.LBE96:
  92              	.LBE95:
  93              		.loc 1 94 0
  94 000a 9042     		cmp	r0, r2
  95 000c 07D0     		beq	.L4
  96              	.LBB97:
  97              	.LBB98:
  98              		.loc 2 609 0
  99 000e 1168     		ldr	r1, [r2]
 100 0010 0160     		str	r1, [r0]
 101 0012 0346     		mov	r3, r0
 102              	.LVL5:
 103              		.loc 2 610 0
 104 0014 4B60     		str	r3, [r1, #4]
 105              	.LVL6:
 106              	.LBE98:
 107              	.LBE97:
 108              		.loc 1 95 0
 109 0016 1046     		mov	r0, r2
 110              	.LVL7:
 111 0018 0021     		movs	r1, #0
 112 001a FFF7FEFF 		bl	chSchWakeupS
 113              	.LVL8:
 114              	.L4:
ARM GAS  /tmp/cc0z799O.s 			page 3


 115              	.LBB99:
 116              	.LBB100:
 117              	.LBB101:
 118              	.LBB102:
 119              	.LBB103:
 120              		.loc 3 493 0
 121 001e 0023     		movs	r3, #0
 122              		.syntax unified
 123              	@ 493 "./RM18A-ChibiOS18-Core/chibios/os/common/ext/ARM/CMSIS/Core/Include/cmsis_gcc.h" 1
 124 0020 83F31188 		MSR basepri, r3
 125              	@ 0 "" 2
 126              	.LVL9:
 127              		.thumb
 128              		.syntax unified
 129              	.LBE103:
 130              	.LBE102:
 131              	.LBE101:
 132              	.LBE100:
 133              	.LBE99:
 134              		.loc 1 98 0
 135 0024 08BD     		pop	{r3, pc}
 136              		.cfi_endproc
 137              	.LFE295:
 138              		.size	chCondSignal, .-chCondSignal
 139 0026 00BF     		.section	.text.chCondSignalI,"ax",%progbits
 140              		.align	1
 141              		.p2align 2,,3
 142              		.global	chCondSignalI
 143              		.syntax unified
 144              		.thumb
 145              		.thumb_func
 146              		.fpu fpv4-sp-d16
 147              		.type	chCondSignalI, %function
 148              	chCondSignalI:
 149              	.LFB296:
 150              		.loc 1 111 0
 151              		.cfi_startproc
 152              		@ args = 0, pretend = 0, frame = 0
 153              		@ frame_needed = 0, uses_anonymous_args = 0
 154              		@ link register save eliminated.
 155              	.LVL10:
 156              	.LBB104:
 157              	.LBB105:
 158              		.loc 2 566 0
 159 0000 0368     		ldr	r3, [r0]
 160              	.LVL11:
 161              	.LBE105:
 162              	.LBE104:
 163              		.loc 1 116 0
 164 0002 9842     		cmp	r0, r3
 165 0004 07D0     		beq	.L6
 166              	.LVL12:
 167              	.LBB106:
 168              	.LBB107:
 169              	.LBB108:
 170              		.loc 2 609 0
 171 0006 1A68     		ldr	r2, [r3]
ARM GAS  /tmp/cc0z799O.s 			page 4


 172 0008 0260     		str	r2, [r0]
 173              	.LBE108:
 174              	.LBE107:
 175              		.loc 1 118 0
 176 000a 0021     		movs	r1, #0
 177              	.LBB110:
 178              	.LBB109:
 179              		.loc 2 610 0
 180 000c 5060     		str	r0, [r2, #4]
 181              	.LVL13:
 182              	.LBE109:
 183              	.LBE110:
 184              		.loc 1 119 0
 185 000e 1846     		mov	r0, r3
 186              	.LVL14:
 187              		.loc 1 118 0
 188 0010 5962     		str	r1, [r3, #36]
 189              		.loc 1 119 0
 190 0012 FFF7FEBF 		b	chSchReadyI
 191              	.LVL15:
 192              	.L6:
 193              	.LBE106:
 194              		.loc 1 121 0
 195 0016 7047     		bx	lr
 196              		.cfi_endproc
 197              	.LFE296:
 198              		.size	chCondSignalI, .-chCondSignalI
 199              		.section	.text.chCondBroadcast,"ax",%progbits
 200              		.align	1
 201              		.p2align 2,,3
 202              		.global	chCondBroadcast
 203              		.syntax unified
 204              		.thumb
 205              		.thumb_func
 206              		.fpu fpv4-sp-d16
 207              		.type	chCondBroadcast, %function
 208              	chCondBroadcast:
 209              	.LFB297:
 210              		.loc 1 130 0
 211              		.cfi_startproc
 212              		@ args = 0, pretend = 0, frame = 0
 213              		@ frame_needed = 0, uses_anonymous_args = 0
 214              	.LVL16:
 215 0000 38B5     		push	{r3, r4, r5, lr}
 216              		.cfi_def_cfa_offset 16
 217              		.cfi_offset 3, -16
 218              		.cfi_offset 4, -12
 219              		.cfi_offset 5, -8
 220              		.cfi_offset 14, -4
 221              	.LBB111:
 222              	.LBB112:
 223              	.LBB113:
 224              	.LBB114:
 225              		.loc 3 493 0
 226 0002 2023     		movs	r3, #32
 227              		.syntax unified
 228              	@ 493 "./RM18A-ChibiOS18-Core/chibios/os/common/ext/ARM/CMSIS/Core/Include/cmsis_gcc.h" 1
ARM GAS  /tmp/cc0z799O.s 			page 5


 229 0004 83F31188 		MSR basepri, r3
 230              	@ 0 "" 2
 231              	.LVL17:
 232              		.thumb
 233              		.syntax unified
 234              	.LBE114:
 235              	.LBE113:
 236              	.LBE112:
 237              	.LBE111:
 238              	.LBB115:
 239              	.LBB116:
 240              	.LBB117:
 241              	.LBB118:
 242              		.loc 2 566 0
 243 0008 0368     		ldr	r3, [r0]
 244              	.LVL18:
 245              	.LBE118:
 246              	.LBE117:
 247              		.loc 1 157 0
 248 000a 9842     		cmp	r0, r3
 249 000c 0CD0     		beq	.L9
 250 000e 0446     		mov	r4, r0
 251              		.loc 1 158 0
 252 0010 6FF00105 		mvn	r5, #1
 253              	.LVL19:
 254              	.L10:
 255              	.LBB120:
 256              	.LBB121:
 257              		.loc 2 609 0
 258 0014 1A68     		ldr	r2, [r3]
 259 0016 2260     		str	r2, [r4]
 260              	.LBE121:
 261              	.LBE120:
 262              		.loc 1 158 0
 263 0018 1846     		mov	r0, r3
 264              	.LBB123:
 265              	.LBB122:
 266              		.loc 2 610 0
 267 001a 5460     		str	r4, [r2, #4]
 268              	.LVL20:
 269              	.LBE122:
 270              	.LBE123:
 271              		.loc 1 158 0
 272 001c FFF7FEFF 		bl	chSchReadyI
 273              	.LVL21:
 274              	.LBB124:
 275              	.LBB119:
 276              		.loc 2 566 0
 277 0020 2368     		ldr	r3, [r4]
 278              	.LBE119:
 279              	.LBE124:
 280              		.loc 1 158 0
 281 0022 4562     		str	r5, [r0, #36]
 282              		.loc 1 157 0
 283 0024 A342     		cmp	r3, r4
 284 0026 F5D1     		bne	.L10
 285              	.LVL22:
ARM GAS  /tmp/cc0z799O.s 			page 6


 286              	.L9:
 287              	.LBE116:
 288              	.LBE115:
 289              		.loc 1 134 0
 290 0028 FFF7FEFF 		bl	chSchRescheduleS
 291              	.LVL23:
 292              	.LBB125:
 293              	.LBB126:
 294              	.LBB127:
 295              	.LBB128:
 296              	.LBB129:
 297              		.loc 3 493 0
 298 002c 0023     		movs	r3, #0
 299              		.syntax unified
 300              	@ 493 "./RM18A-ChibiOS18-Core/chibios/os/common/ext/ARM/CMSIS/Core/Include/cmsis_gcc.h" 1
 301 002e 83F31188 		MSR basepri, r3
 302              	@ 0 "" 2
 303              	.LVL24:
 304              		.thumb
 305              		.syntax unified
 306              	.LBE129:
 307              	.LBE128:
 308              	.LBE127:
 309              	.LBE126:
 310              	.LBE125:
 311              		.loc 1 136 0
 312 0032 38BD     		pop	{r3, r4, r5, pc}
 313              		.cfi_endproc
 314              	.LFE297:
 315              		.size	chCondBroadcast, .-chCondBroadcast
 316              		.section	.text.chCondBroadcastI,"ax",%progbits
 317              		.align	1
 318              		.p2align 2,,3
 319              		.global	chCondBroadcastI
 320              		.syntax unified
 321              		.thumb
 322              		.thumb_func
 323              		.fpu fpv4-sp-d16
 324              		.type	chCondBroadcastI, %function
 325              	chCondBroadcastI:
 326              	.LFB298:
 327              		.loc 1 149 0
 328              		.cfi_startproc
 329              		@ args = 0, pretend = 0, frame = 0
 330              		@ frame_needed = 0, uses_anonymous_args = 0
 331              	.LVL25:
 332 0000 38B5     		push	{r3, r4, r5, lr}
 333              		.cfi_def_cfa_offset 16
 334              		.cfi_offset 3, -16
 335              		.cfi_offset 4, -12
 336              		.cfi_offset 5, -8
 337              		.cfi_offset 14, -4
 338              	.LBB130:
 339              	.LBB131:
 340              		.loc 2 566 0
 341 0002 0368     		ldr	r3, [r0]
 342              	.LVL26:
ARM GAS  /tmp/cc0z799O.s 			page 7


 343              	.LBE131:
 344              	.LBE130:
 345              		.loc 1 157 0
 346 0004 8342     		cmp	r3, r0
 347 0006 0CD0     		beq	.L13
 348 0008 0446     		mov	r4, r0
 349              		.loc 1 158 0
 350 000a 6FF00105 		mvn	r5, #1
 351              	.LVL27:
 352              	.L15:
 353              	.LBB133:
 354              	.LBB134:
 355              		.loc 2 609 0
 356 000e 1A68     		ldr	r2, [r3]
 357 0010 2260     		str	r2, [r4]
 358              	.LBE134:
 359              	.LBE133:
 360              		.loc 1 158 0
 361 0012 1846     		mov	r0, r3
 362              	.LBB136:
 363              	.LBB135:
 364              		.loc 2 610 0
 365 0014 5460     		str	r4, [r2, #4]
 366              	.LVL28:
 367              	.LBE135:
 368              	.LBE136:
 369              		.loc 1 158 0
 370 0016 FFF7FEFF 		bl	chSchReadyI
 371              	.LVL29:
 372              	.LBB137:
 373              	.LBB132:
 374              		.loc 2 566 0
 375 001a 2368     		ldr	r3, [r4]
 376              	.LBE132:
 377              	.LBE137:
 378              		.loc 1 158 0
 379 001c 4562     		str	r5, [r0, #36]
 380              		.loc 1 157 0
 381 001e A342     		cmp	r3, r4
 382 0020 F5D1     		bne	.L15
 383              	.LVL30:
 384              	.L13:
 385              		.loc 1 160 0
 386 0022 38BD     		pop	{r3, r4, r5, pc}
 387              		.cfi_endproc
 388              	.LFE298:
 389              		.size	chCondBroadcastI, .-chCondBroadcastI
 390              		.section	.text.chCondWait,"ax",%progbits
 391              		.align	1
 392              		.p2align 2,,3
 393              		.global	chCondWait
 394              		.syntax unified
 395              		.thumb
 396              		.thumb_func
 397              		.fpu fpv4-sp-d16
 398              		.type	chCondWait, %function
 399              	chCondWait:
ARM GAS  /tmp/cc0z799O.s 			page 8


 400              	.LFB299:
 401              		.loc 1 179 0
 402              		.cfi_startproc
 403              		@ args = 0, pretend = 0, frame = 0
 404              		@ frame_needed = 0, uses_anonymous_args = 0
 405              	.LVL31:
 406 0000 F8B5     		push	{r3, r4, r5, r6, r7, lr}
 407              		.cfi_def_cfa_offset 24
 408              		.cfi_offset 3, -24
 409              		.cfi_offset 4, -20
 410              		.cfi_offset 5, -16
 411              		.cfi_offset 6, -12
 412              		.cfi_offset 7, -8
 413              		.cfi_offset 14, -4
 414              		.loc 1 179 0
 415 0002 0546     		mov	r5, r0
 416              	.LBB153:
 417              	.LBB154:
 418              	.LBB155:
 419              	.LBB156:
 420              		.loc 3 493 0
 421 0004 2023     		movs	r3, #32
 422              		.syntax unified
 423              	@ 493 "./RM18A-ChibiOS18-Core/chibios/os/common/ext/ARM/CMSIS/Core/Include/cmsis_gcc.h" 1
 424 0006 83F31188 		MSR basepri, r3
 425              	@ 0 "" 2
 426              	.LVL32:
 427              		.thumb
 428              		.syntax unified
 429              	.LBE156:
 430              	.LBE155:
 431              	.LBE154:
 432              	.LBE153:
 433              	.LBB157:
 434              	.LBB158:
 435              		.loc 1 206 0
 436 000a 124B     		ldr	r3, .L25
 437 000c 9C69     		ldr	r4, [r3, #24]
 438              	.LVL33:
 439              	.LBB159:
 440              	.LBB160:
 441              		.file 4 "./RM18A-ChibiOS18-Core/chibios/os/rt/include/chmtx.h"
 442              		.loc 4 161 0
 443 000e A76B     		ldr	r7, [r4, #56]
 444              	.LBE160:
 445              	.LBE159:
 446              		.loc 1 215 0
 447 0010 3846     		mov	r0, r7
 448              	.LVL34:
 449 0012 FFF7FEFF 		bl	chMtxUnlockS
 450              	.LVL35:
 451              		.loc 1 220 0
 452 0016 2E46     		mov	r6, r5
 453              	.LVL36:
 454              		.loc 1 219 0
 455 0018 6562     		str	r5, [r4, #36]
 456              		.loc 1 220 0
ARM GAS  /tmp/cc0z799O.s 			page 9


 457 001a 2B46     		mov	r3, r5
 458 001c 03E0     		b	.L20
 459              	.LVL37:
 460              	.L24:
 461              	.LBB161:
 462              	.LBB162:
 463              		.loc 2 591 0
 464 001e 9968     		ldr	r1, [r3, #8]
 465 0020 A268     		ldr	r2, [r4, #8]
 466 0022 9142     		cmp	r1, r2
 467 0024 13D3     		bcc	.L23
 468              	.LVL38:
 469              	.L20:
 470              		.loc 2 590 0
 471 0026 1B68     		ldr	r3, [r3]
 472              	.LVL39:
 473              		.loc 2 591 0
 474 0028 9D42     		cmp	r5, r3
 475 002a F8D1     		bne	.L24
 476              	.L19:
 477              		.loc 2 593 0
 478 002c 7368     		ldr	r3, [r6, #4]
 479              	.LVL40:
 480              	.LBE162:
 481              	.LBE161:
 482              		.loc 1 221 0
 483 002e 0720     		movs	r0, #7
 484              	.LBB165:
 485              	.LBB163:
 486              		.loc 2 593 0
 487 0030 C4E90063 		strd	r6, r3, [r4]
 488              		.loc 2 594 0
 489 0034 1C60     		str	r4, [r3]
 490              		.loc 2 595 0
 491 0036 7460     		str	r4, [r6, #4]
 492              	.LVL41:
 493              	.LBE163:
 494              	.LBE165:
 495              		.loc 1 221 0
 496 0038 FFF7FEFF 		bl	chSchGoSleepS
 497              	.LVL42:
 498              		.loc 1 223 0
 499 003c 3846     		mov	r0, r7
 500              		.loc 1 222 0
 501 003e 646A     		ldr	r4, [r4, #36]
 502              	.LVL43:
 503              		.loc 1 223 0
 504 0040 FFF7FEFF 		bl	chMtxLockS
 505              	.LVL44:
 506              	.LBE158:
 507              	.LBE157:
 508              	.LBB168:
 509              	.LBB169:
 510              	.LBB170:
 511              	.LBB171:
 512              	.LBB172:
 513              		.loc 3 493 0
ARM GAS  /tmp/cc0z799O.s 			page 10


 514 0044 0023     		movs	r3, #0
 515              		.syntax unified
 516              	@ 493 "./RM18A-ChibiOS18-Core/chibios/os/common/ext/ARM/CMSIS/Core/Include/cmsis_gcc.h" 1
 517 0046 83F31188 		MSR basepri, r3
 518              	@ 0 "" 2
 519              	.LVL45:
 520              		.thumb
 521              		.syntax unified
 522              	.LBE172:
 523              	.LBE171:
 524              	.LBE170:
 525              	.LBE169:
 526              	.LBE168:
 527              		.loc 1 186 0
 528 004a 2046     		mov	r0, r4
 529 004c F8BD     		pop	{r3, r4, r5, r6, r7, pc}
 530              	.LVL46:
 531              	.L23:
 532              	.LBB173:
 533              	.LBB167:
 534              	.LBB166:
 535              	.LBB164:
 536              		.loc 2 590 0
 537 004e 1E46     		mov	r6, r3
 538 0050 ECE7     		b	.L19
 539              	.L26:
 540 0052 00BF     		.align	2
 541              	.L25:
 542 0054 00000000 		.word	ch
 543              	.LBE164:
 544              	.LBE166:
 545              	.LBE167:
 546              	.LBE173:
 547              		.cfi_endproc
 548              	.LFE299:
 549              		.size	chCondWait, .-chCondWait
 550              		.section	.text.chCondWaitS,"ax",%progbits
 551              		.align	1
 552              		.p2align 2,,3
 553              		.global	chCondWaitS
 554              		.syntax unified
 555              		.thumb
 556              		.thumb_func
 557              		.fpu fpv4-sp-d16
 558              		.type	chCondWaitS, %function
 559              	chCondWaitS:
 560              	.LFB300:
 561              		.loc 1 205 0
 562              		.cfi_startproc
 563              		@ args = 0, pretend = 0, frame = 0
 564              		@ frame_needed = 0, uses_anonymous_args = 0
 565              	.LVL47:
 566 0000 F8B5     		push	{r3, r4, r5, r6, r7, lr}
 567              		.cfi_def_cfa_offset 24
 568              		.cfi_offset 3, -24
 569              		.cfi_offset 4, -20
 570              		.cfi_offset 5, -16
ARM GAS  /tmp/cc0z799O.s 			page 11


 571              		.cfi_offset 6, -12
 572              		.cfi_offset 7, -8
 573              		.cfi_offset 14, -4
 574              		.loc 1 206 0
 575 0002 114B     		ldr	r3, .L34
 576 0004 9C69     		ldr	r4, [r3, #24]
 577              	.LVL48:
 578              	.LBB174:
 579              	.LBB175:
 580              		.loc 4 161 0
 581 0006 A76B     		ldr	r7, [r4, #56]
 582              	.LBE175:
 583              	.LBE174:
 584              		.loc 1 205 0
 585 0008 0546     		mov	r5, r0
 586              		.loc 1 215 0
 587 000a 3846     		mov	r0, r7
 588              	.LVL49:
 589 000c FFF7FEFF 		bl	chMtxUnlockS
 590              	.LVL50:
 591              		.loc 1 220 0
 592 0010 2E46     		mov	r6, r5
 593              	.LVL51:
 594              		.loc 1 219 0
 595 0012 6562     		str	r5, [r4, #36]
 596              		.loc 1 220 0
 597 0014 2B46     		mov	r3, r5
 598 0016 03E0     		b	.L29
 599              	.LVL52:
 600              	.L33:
 601              	.LBB176:
 602              	.LBB177:
 603              		.loc 2 591 0
 604 0018 9968     		ldr	r1, [r3, #8]
 605 001a A268     		ldr	r2, [r4, #8]
 606 001c 9142     		cmp	r1, r2
 607 001e 10D3     		bcc	.L32
 608              	.LVL53:
 609              	.L29:
 610              		.loc 2 590 0
 611 0020 1B68     		ldr	r3, [r3]
 612              	.LVL54:
 613              		.loc 2 591 0
 614 0022 9D42     		cmp	r5, r3
 615 0024 F8D1     		bne	.L33
 616              	.L28:
 617              		.loc 2 593 0
 618 0026 7368     		ldr	r3, [r6, #4]
 619              	.LVL55:
 620              	.LBE177:
 621              	.LBE176:
 622              		.loc 1 221 0
 623 0028 0720     		movs	r0, #7
 624              	.LBB180:
 625              	.LBB178:
 626              		.loc 2 593 0
 627 002a C4E90063 		strd	r6, r3, [r4]
ARM GAS  /tmp/cc0z799O.s 			page 12


 628              		.loc 2 594 0
 629 002e 1C60     		str	r4, [r3]
 630              		.loc 2 595 0
 631 0030 7460     		str	r4, [r6, #4]
 632              	.LVL56:
 633              	.LBE178:
 634              	.LBE180:
 635              		.loc 1 221 0
 636 0032 FFF7FEFF 		bl	chSchGoSleepS
 637              	.LVL57:
 638              		.loc 1 222 0
 639 0036 646A     		ldr	r4, [r4, #36]
 640              	.LVL58:
 641              		.loc 1 223 0
 642 0038 3846     		mov	r0, r7
 643 003a FFF7FEFF 		bl	chMtxLockS
 644              	.LVL59:
 645              		.loc 1 226 0
 646 003e 2046     		mov	r0, r4
 647 0040 F8BD     		pop	{r3, r4, r5, r6, r7, pc}
 648              	.LVL60:
 649              	.L32:
 650              	.LBB181:
 651              	.LBB179:
 652              		.loc 2 590 0
 653 0042 1E46     		mov	r6, r3
 654 0044 EFE7     		b	.L28
 655              	.L35:
 656 0046 00BF     		.align	2
 657              	.L34:
 658 0048 00000000 		.word	ch
 659              	.LBE179:
 660              	.LBE181:
 661              		.cfi_endproc
 662              	.LFE300:
 663              		.size	chCondWaitS, .-chCondWaitS
 664              		.section	.text.chCondWaitTimeout,"ax",%progbits
 665              		.align	1
 666              		.p2align 2,,3
 667              		.global	chCondWaitTimeout
 668              		.syntax unified
 669              		.thumb
 670              		.thumb_func
 671              		.fpu fpv4-sp-d16
 672              		.type	chCondWaitTimeout, %function
 673              	chCondWaitTimeout:
 674              	.LFB301:
 675              		.loc 1 257 0
 676              		.cfi_startproc
 677              		@ args = 0, pretend = 0, frame = 0
 678              		@ frame_needed = 0, uses_anonymous_args = 0
 679              	.LVL61:
 680 0000 2DE9F041 		push	{r4, r5, r6, r7, r8, lr}
 681              		.cfi_def_cfa_offset 24
 682              		.cfi_offset 4, -24
 683              		.cfi_offset 5, -20
 684              		.cfi_offset 6, -16
ARM GAS  /tmp/cc0z799O.s 			page 13


 685              		.cfi_offset 7, -12
 686              		.cfi_offset 8, -8
 687              		.cfi_offset 14, -4
 688              	.LBB199:
 689              	.LBB200:
 690              	.LBB201:
 691              	.LBB202:
 692              		.loc 3 493 0
 693 0004 2023     		movs	r3, #32
 694              	.LBE202:
 695              	.LBE201:
 696              	.LBE200:
 697              	.LBE199:
 698              		.loc 1 257 0
 699 0006 0546     		mov	r5, r0
 700 0008 8846     		mov	r8, r1
 701              	.LBB206:
 702              	.LBB205:
 703              	.LBB204:
 704              	.LBB203:
 705              		.loc 3 493 0
 706              		.syntax unified
 707              	@ 493 "./RM18A-ChibiOS18-Core/chibios/os/common/ext/ARM/CMSIS/Core/Include/cmsis_gcc.h" 1
 708 000a 83F31188 		MSR basepri, r3
 709              	@ 0 "" 2
 710              	.LVL62:
 711              		.thumb
 712              		.syntax unified
 713              	.LBE203:
 714              	.LBE204:
 715              	.LBE205:
 716              	.LBE206:
 717              	.LBB207:
 718              	.LBB208:
 719              	.LBB209:
 720              	.LBB210:
 721              	.LBB211:
 722              	.LBB212:
 723              		.file 5 "./RM18A-ChibiOS18-Core/chibios/os/rt/include/chthreads.h"
 724              		.loc 5 274 0
 725 000e 144C     		ldr	r4, .L47
 726              	.LBE212:
 727              	.LBE211:
 728              		.loc 4 161 0
 729 0010 A369     		ldr	r3, [r4, #24]
 730 0012 9F6B     		ldr	r7, [r3, #56]
 731              	.LBE210:
 732              	.LBE209:
 733              		.loc 1 304 0
 734 0014 3846     		mov	r0, r7
 735              	.LVL63:
 736 0016 FFF7FEFF 		bl	chMtxUnlockS
 737              	.LVL64:
 738              		.loc 1 308 0
 739 001a A469     		ldr	r4, [r4, #24]
 740              		.loc 1 309 0
 741 001c 2E46     		mov	r6, r5
ARM GAS  /tmp/cc0z799O.s 			page 14


 742              	.LVL65:
 743              		.loc 1 308 0
 744 001e 6562     		str	r5, [r4, #36]
 745              		.loc 1 309 0
 746 0020 2B46     		mov	r3, r5
 747 0022 03E0     		b	.L38
 748              	.LVL66:
 749              	.L46:
 750              	.LBB213:
 751              	.LBB214:
 752              		.loc 2 591 0
 753 0024 9868     		ldr	r0, [r3, #8]
 754 0026 A268     		ldr	r2, [r4, #8]
 755 0028 9042     		cmp	r0, r2
 756 002a 17D3     		bcc	.L45
 757              	.LVL67:
 758              	.L38:
 759              		.loc 2 590 0
 760 002c 1B68     		ldr	r3, [r3]
 761              	.LVL68:
 762              		.loc 2 591 0
 763 002e 9D42     		cmp	r5, r3
 764 0030 F8D1     		bne	.L46
 765              	.L37:
 766              		.loc 2 593 0
 767 0032 7368     		ldr	r3, [r6, #4]
 768              	.LVL69:
 769 0034 6360     		str	r3, [r4, #4]
 770              		.loc 2 592 0
 771 0036 2660     		str	r6, [r4]
 772              	.LBE214:
 773              	.LBE213:
 774              		.loc 1 310 0
 775 0038 4146     		mov	r1, r8
 776              	.LBB218:
 777              	.LBB215:
 778              		.loc 2 594 0
 779 003a 1C60     		str	r4, [r3]
 780              	.LBE215:
 781              	.LBE218:
 782              		.loc 1 310 0
 783 003c 0720     		movs	r0, #7
 784              	.LBB219:
 785              	.LBB216:
 786              		.loc 2 595 0
 787 003e 7460     		str	r4, [r6, #4]
 788              	.LVL70:
 789              	.LBE216:
 790              	.LBE219:
 791              		.loc 1 310 0
 792 0040 FFF7FEFF 		bl	chSchGoSleepTimeoutS
 793              	.LVL71:
 794              		.loc 1 311 0
 795 0044 431C     		adds	r3, r0, #1
 796              		.loc 1 310 0
 797 0046 0446     		mov	r4, r0
 798              	.LVL72:
ARM GAS  /tmp/cc0z799O.s 			page 15


 799              		.loc 1 311 0
 800 0048 02D0     		beq	.L39
 801              		.loc 1 312 0
 802 004a 3846     		mov	r0, r7
 803              	.LVL73:
 804 004c FFF7FEFF 		bl	chMtxLockS
 805              	.LVL74:
 806              	.L39:
 807              	.LBE208:
 808              	.LBE207:
 809              	.LBB222:
 810              	.LBB223:
 811              	.LBB224:
 812              	.LBB225:
 813              	.LBB226:
 814              		.loc 3 493 0
 815 0050 0023     		movs	r3, #0
 816              		.syntax unified
 817              	@ 493 "./RM18A-ChibiOS18-Core/chibios/os/common/ext/ARM/CMSIS/Core/Include/cmsis_gcc.h" 1
 818 0052 83F31188 		MSR basepri, r3
 819              	@ 0 "" 2
 820              	.LVL75:
 821              		.thumb
 822              		.syntax unified
 823              	.LBE226:
 824              	.LBE225:
 825              	.LBE224:
 826              	.LBE223:
 827              	.LBE222:
 828              		.loc 1 265 0
 829 0056 2046     		mov	r0, r4
 830 0058 BDE8F081 		pop	{r4, r5, r6, r7, r8, pc}
 831              	.LVL76:
 832              	.L45:
 833              	.LBB227:
 834              	.LBB221:
 835              	.LBB220:
 836              	.LBB217:
 837              		.loc 2 590 0
 838 005c 1E46     		mov	r6, r3
 839 005e E8E7     		b	.L37
 840              	.L48:
 841              		.align	2
 842              	.L47:
 843 0060 00000000 		.word	ch
 844              	.LBE217:
 845              	.LBE220:
 846              	.LBE221:
 847              	.LBE227:
 848              		.cfi_endproc
 849              	.LFE301:
 850              		.size	chCondWaitTimeout, .-chCondWaitTimeout
 851              		.section	.text.chCondWaitTimeoutS,"ax",%progbits
 852              		.align	1
 853              		.p2align 2,,3
 854              		.global	chCondWaitTimeoutS
 855              		.syntax unified
ARM GAS  /tmp/cc0z799O.s 			page 16


 856              		.thumb
 857              		.thumb_func
 858              		.fpu fpv4-sp-d16
 859              		.type	chCondWaitTimeoutS, %function
 860              	chCondWaitTimeoutS:
 861              	.LFB302:
 862              		.loc 1 295 0
 863              		.cfi_startproc
 864              		@ args = 0, pretend = 0, frame = 0
 865              		@ frame_needed = 0, uses_anonymous_args = 0
 866              	.LVL77:
 867 0000 2DE9F041 		push	{r4, r5, r6, r7, r8, lr}
 868              		.cfi_def_cfa_offset 24
 869              		.cfi_offset 4, -24
 870              		.cfi_offset 5, -20
 871              		.cfi_offset 6, -16
 872              		.cfi_offset 7, -12
 873              		.cfi_offset 8, -8
 874              		.cfi_offset 14, -4
 875              	.LBB228:
 876              	.LBB229:
 877              	.LBB230:
 878              	.LBB231:
 879              		.loc 5 274 0
 880 0004 134C     		ldr	r4, .L60
 881              	.LBE231:
 882              	.LBE230:
 883              		.loc 4 161 0
 884 0006 A369     		ldr	r3, [r4, #24]
 885 0008 9F6B     		ldr	r7, [r3, #56]
 886              	.LBE229:
 887              	.LBE228:
 888              		.loc 1 295 0
 889 000a 0546     		mov	r5, r0
 890              		.loc 1 304 0
 891 000c 3846     		mov	r0, r7
 892              	.LVL78:
 893              		.loc 1 295 0
 894 000e 8846     		mov	r8, r1
 895              		.loc 1 304 0
 896 0010 FFF7FEFF 		bl	chMtxUnlockS
 897              	.LVL79:
 898              		.loc 1 308 0
 899 0014 A469     		ldr	r4, [r4, #24]
 900              		.loc 1 309 0
 901 0016 2E46     		mov	r6, r5
 902              	.LVL80:
 903              		.loc 1 308 0
 904 0018 6562     		str	r5, [r4, #36]
 905              		.loc 1 309 0
 906 001a 2B46     		mov	r3, r5
 907 001c 03E0     		b	.L51
 908              	.LVL81:
 909              	.L59:
 910              	.LBB232:
 911              	.LBB233:
 912              		.loc 2 591 0
ARM GAS  /tmp/cc0z799O.s 			page 17


 913 001e 9868     		ldr	r0, [r3, #8]
 914 0020 A268     		ldr	r2, [r4, #8]
 915 0022 9042     		cmp	r0, r2
 916 0024 14D3     		bcc	.L58
 917              	.LVL82:
 918              	.L51:
 919              		.loc 2 590 0
 920 0026 1B68     		ldr	r3, [r3]
 921              	.LVL83:
 922              		.loc 2 591 0
 923 0028 9D42     		cmp	r5, r3
 924 002a F8D1     		bne	.L59
 925              	.L50:
 926              		.loc 2 593 0
 927 002c 7368     		ldr	r3, [r6, #4]
 928              	.LVL84:
 929 002e 6360     		str	r3, [r4, #4]
 930              		.loc 2 592 0
 931 0030 2660     		str	r6, [r4]
 932              	.LBE233:
 933              	.LBE232:
 934              		.loc 1 310 0
 935 0032 4146     		mov	r1, r8
 936              	.LBB237:
 937              	.LBB234:
 938              		.loc 2 594 0
 939 0034 1C60     		str	r4, [r3]
 940              	.LBE234:
 941              	.LBE237:
 942              		.loc 1 310 0
 943 0036 0720     		movs	r0, #7
 944              	.LBB238:
 945              	.LBB235:
 946              		.loc 2 595 0
 947 0038 7460     		str	r4, [r6, #4]
 948              	.LVL85:
 949              	.LBE235:
 950              	.LBE238:
 951              		.loc 1 310 0
 952 003a FFF7FEFF 		bl	chSchGoSleepTimeoutS
 953              	.LVL86:
 954              		.loc 1 311 0
 955 003e 431C     		adds	r3, r0, #1
 956              		.loc 1 310 0
 957 0040 0446     		mov	r4, r0
 958              	.LVL87:
 959              		.loc 1 311 0
 960 0042 02D0     		beq	.L49
 961              		.loc 1 312 0
 962 0044 3846     		mov	r0, r7
 963              	.LVL88:
 964 0046 FFF7FEFF 		bl	chMtxLockS
 965              	.LVL89:
 966              	.L49:
 967              		.loc 1 316 0
 968 004a 2046     		mov	r0, r4
 969 004c BDE8F081 		pop	{r4, r5, r6, r7, r8, pc}
ARM GAS  /tmp/cc0z799O.s 			page 18


 970              	.LVL90:
 971              	.L58:
 972              	.LBB239:
 973              	.LBB236:
 974              		.loc 2 590 0
 975 0050 1E46     		mov	r6, r3
 976 0052 EBE7     		b	.L50
 977              	.L61:
 978              		.align	2
 979              	.L60:
 980 0054 00000000 		.word	ch
 981              	.LBE236:
 982              	.LBE239:
 983              		.cfi_endproc
 984              	.LFE302:
 985              		.size	chCondWaitTimeoutS, .-chCondWaitTimeoutS
 986              		.text
 987              	.Letext0:
 988              		.file 6 "/usr/lib/gcc/arm-none-eabi/7.3.1/include/stddef.h"
 989              		.file 7 "/usr/arm-none-eabi/include/machine/_default_types.h"
 990              		.file 8 "/usr/arm-none-eabi/include/sys/_stdint.h"
 991              		.file 9 "./RM18A-ChibiOS18-Core/chibios/os/common/ports/ARMCMx/compilers/GCC/chtypes.h"
 992              		.file 10 "./RM18A-ChibiOS18-Core/chibios/os/rt/include/chsystypes.h"
 993              		.file 11 "./RM18A-ChibiOS18-Core/chibios/os/rt/include/chtime.h"
 994              		.file 12 "./RM18A-ChibiOS18-Core/chibios/os/common/ext/ARM/CMSIS/Core/Include/core_cm4.h"
 995              		.file 13 "./RM18A-ChibiOS18-Core/chibios/os/common/ext/ST/STM32F4xx/system_stm32f4xx.h"
 996              		.file 14 "./RM18A-ChibiOS18-Core/chibios/os/common/ports/ARMCMx/chcore.h"
 997              		.file 15 "./RM18A-ChibiOS18-Core/chibios/os/common/ports/ARMCMx/chcore_v7m.h"
 998              		.file 16 "./RM18A-ChibiOS18-Core/chibios/os/rt/include/chtm.h"
 999              		.file 17 "./RM18A-ChibiOS18-Core/chibios/os/rt/include/chsem.h"
 1000              		.file 18 "./RM18A-ChibiOS18-Core/chibios/os/rt/include/chsys.h"
 1001              		.file 19 "./RM18A-ChibiOS18-Core/chibios/os/rt/include/chregistry.h"
 1002              		.file 20 "./RM18A-ChibiOS18-Core/chibios/os/rt/include/chcond.h"
 1003              		.file 21 "./RM18A-ChibiOS18-Core/chibios/os/oslib/include/chmemcore.h"
 1004              		.file 22 "./RM18A-ChibiOS18-Core/chibios/os/oslib/include/chmempools.h"
 1005              		.file 23 "./RM18A-ChibiOS18-Core/chibios/os/oslib/include/chfactory.h"