ARM GAS  /tmp/ccsCUGZH.s 			page 1


   1              		.cpu cortex-m4
   2              		.eabi_attribute 27, 1
   3              		.eabi_attribute 28, 1
   4              		.eabi_attribute 20, 1
   5              		.eabi_attribute 21, 1
   6              		.eabi_attribute 23, 3
   7              		.eabi_attribute 24, 1
   8              		.eabi_attribute 25, 1
   9              		.eabi_attribute 26, 1
  10              		.eabi_attribute 30, 2
  11              		.eabi_attribute 34, 1
  12              		.eabi_attribute 18, 4
  13              		.file	"chdynamic.c"
  14              		.text
  15              	.Ltext0:
  16              		.cfi_sections	.debug_frame
  17              		.section	.text.chThdCreateFromHeap,"ax",%progbits
  18              		.align	1
  19              		.p2align 2,,3
  20              		.global	chThdCreateFromHeap
  21              		.syntax unified
  22              		.thumb
  23              		.thumb_func
  24              		.fpu fpv4-sp-d16
  25              		.type	chThdCreateFromHeap, %function
  26              	chThdCreateFromHeap:
  27              	.LFB294:
  28              		.file 1 "./RM18A-ChibiOS18-Core/chibios/os/rt/src/chdynamic.c"
  29              		.loc 1 84 0
  30              		.cfi_startproc
  31              		@ args = 8, pretend = 0, frame = 24
  32              		@ frame_needed = 0, uses_anonymous_args = 0
  33              	.LVL0:
  34 0000 70B5     		push	{r4, r5, r6, lr}
  35              		.cfi_def_cfa_offset 16
  36              		.cfi_offset 4, -16
  37              		.cfi_offset 5, -12
  38              		.cfi_offset 6, -8
  39              		.cfi_offset 14, -4
  40 0002 1646     		mov	r6, r2
  41 0004 86B0     		sub	sp, sp, #24
  42              		.cfi_def_cfa_offset 40
  43              		.loc 1 88 0
  44 0006 0822     		movs	r2, #8
  45              	.LVL1:
  46              		.loc 1 84 0
  47 0008 1D46     		mov	r5, r3
  48 000a 0C46     		mov	r4, r1
  49              		.loc 1 88 0
  50 000c FFF7FEFF 		bl	chHeapAllocAligned
  51              	.LVL2:
  52              		.loc 1 89 0
  53 0010 D8B1     		cbz	r0, .L3
  54              		.loc 1 93 0
  55 0012 0A9B     		ldr	r3, [sp, #40]
  56 0014 0493     		str	r3, [sp, #16]
  57              		.loc 1 96 0
ARM GAS  /tmp/ccsCUGZH.s 			page 2


  58 0016 0444     		add	r4, r4, r0
  59              	.LVL3:
  60              		.loc 1 93 0
  61 0018 0B9B     		ldr	r3, [sp, #44]
  62 001a 0593     		str	r3, [sp, #20]
  63              	.LVL4:
  64 001c 0294     		str	r4, [sp, #8]
  65 001e CDE90060 		strd	r6, r0, [sp]
  66 0022 0395     		str	r5, [sp, #12]
  67              	.LBB34:
  68              	.LBB35:
  69              	.LBB36:
  70              	.LBB37:
  71              		.file 2 "./RM18A-ChibiOS18-Core/chibios/os/common/ext/ARM/CMSIS/Core/Include/cmsis_gcc.h"
  72              		.loc 2 493 0
  73 0024 2023     		movs	r3, #32
  74              		.syntax unified
  75              	@ 493 "./RM18A-ChibiOS18-Core/chibios/os/common/ext/ARM/CMSIS/Core/Include/cmsis_gcc.h" 1
  76 0026 83F31188 		MSR basepri, r3
  77              	@ 0 "" 2
  78              	.LVL5:
  79              		.thumb
  80              		.syntax unified
  81              	.LBE37:
  82              	.LBE36:
  83              	.LBE35:
  84              	.LBE34:
  85              		.loc 1 109 0
  86 002a 6846     		mov	r0, sp
  87              	.LVL6:
  88 002c FFF7FEFF 		bl	chThdCreateSuspendedI
  89              	.LVL7:
  90              		.loc 1 110 0
  91 0030 0123     		movs	r3, #1
  92 0032 80F82130 		strb	r3, [r0, #33]
  93              		.loc 1 111 0
  94 0036 0021     		movs	r1, #0
  95              		.loc 1 109 0
  96 0038 0446     		mov	r4, r0
  97              	.LVL8:
  98              		.loc 1 111 0
  99 003a FFF7FEFF 		bl	chSchWakeupS
 100              	.LVL9:
 101              	.LBB38:
 102              	.LBB39:
 103              	.LBB40:
 104              	.LBB41:
 105              	.LBB42:
 106              		.loc 2 493 0
 107 003e 0023     		movs	r3, #0
 108              		.syntax unified
 109              	@ 493 "./RM18A-ChibiOS18-Core/chibios/os/common/ext/ARM/CMSIS/Core/Include/cmsis_gcc.h" 1
 110 0040 83F31188 		MSR basepri, r3
 111              	@ 0 "" 2
 112              	.LVL10:
 113              		.thumb
 114              		.syntax unified
ARM GAS  /tmp/ccsCUGZH.s 			page 3


 115              	.L1:
 116              	.LBE42:
 117              	.LBE41:
 118              	.LBE40:
 119              	.LBE39:
 120              	.LBE38:
 121              		.loc 1 115 0
 122 0044 2046     		mov	r0, r4
 123 0046 06B0     		add	sp, sp, #24
 124              		.cfi_remember_state
 125              		.cfi_def_cfa_offset 16
 126              		@ sp needed
 127 0048 70BD     		pop	{r4, r5, r6, pc}
 128              	.LVL11:
 129              	.L3:
 130              		.cfi_restore_state
 131              		.loc 1 90 0
 132 004a 0446     		mov	r4, r0
 133              	.LVL12:
 134 004c FAE7     		b	.L1
 135              		.cfi_endproc
 136              	.LFE294:
 137              		.size	chThdCreateFromHeap, .-chThdCreateFromHeap
 138 004e 00BF     		.section	.text.chThdCreateFromMemoryPool,"ax",%progbits
 139              		.align	1
 140              		.p2align 2,,3
 141              		.global	chThdCreateFromMemoryPool
 142              		.syntax unified
 143              		.thumb
 144              		.thumb_func
 145              		.fpu fpv4-sp-d16
 146              		.type	chThdCreateFromMemoryPool, %function
 147              	chThdCreateFromMemoryPool:
 148              	.LFB295:
 149              		.loc 1 146 0
 150              		.cfi_startproc
 151              		@ args = 4, pretend = 0, frame = 24
 152              		@ frame_needed = 0, uses_anonymous_args = 0
 153              	.LVL13:
 154 0000 F0B5     		push	{r4, r5, r6, r7, lr}
 155              		.cfi_def_cfa_offset 20
 156              		.cfi_offset 4, -20
 157              		.cfi_offset 5, -16
 158              		.cfi_offset 6, -12
 159              		.cfi_offset 7, -8
 160              		.cfi_offset 14, -4
 161 0002 87B0     		sub	sp, sp, #28
 162              		.cfi_def_cfa_offset 48
 163              		.loc 1 146 0
 164 0004 0C46     		mov	r4, r1
 165 0006 1746     		mov	r7, r2
 166 0008 1E46     		mov	r6, r3
 167 000a 0546     		mov	r5, r0
 168              		.loc 1 152 0
 169 000c FFF7FEFF 		bl	chPoolAlloc
 170              	.LVL14:
 171              		.loc 1 153 0
ARM GAS  /tmp/ccsCUGZH.s 			page 4


 172 0010 E0B1     		cbz	r0, .L8
 173              		.loc 1 160 0
 174 0012 6B68     		ldr	r3, [r5, #4]
 175              		.loc 1 157 0
 176 0014 0094     		str	r4, [sp]
 177              		.loc 1 160 0
 178 0016 C418     		adds	r4, r0, r3
 179              	.LVL15:
 180              		.loc 1 157 0
 181 0018 0C9B     		ldr	r3, [sp, #48]
 182 001a 0593     		str	r3, [sp, #20]
 183              	.LVL16:
 184 001c 0190     		str	r0, [sp, #4]
 185 001e CDE90376 		strd	r7, r6, [sp, #12]
 186 0022 0294     		str	r4, [sp, #8]
 187              	.LBB43:
 188              	.LBB44:
 189              	.LBB45:
 190              	.LBB46:
 191              		.loc 2 493 0
 192 0024 2023     		movs	r3, #32
 193              		.syntax unified
 194              	@ 493 "./RM18A-ChibiOS18-Core/chibios/os/common/ext/ARM/CMSIS/Core/Include/cmsis_gcc.h" 1
 195 0026 83F31188 		MSR basepri, r3
 196              	@ 0 "" 2
 197              	.LVL17:
 198              		.thumb
 199              		.syntax unified
 200              	.LBE46:
 201              	.LBE45:
 202              	.LBE44:
 203              	.LBE43:
 204              		.loc 1 173 0
 205 002a 6846     		mov	r0, sp
 206              	.LVL18:
 207 002c FFF7FEFF 		bl	chThdCreateSuspendedI
 208              	.LVL19:
 209              		.loc 1 174 0
 210 0030 0223     		movs	r3, #2
 211 0032 80F82130 		strb	r3, [r0, #33]
 212              		.loc 1 175 0
 213 0036 0564     		str	r5, [r0, #64]
 214              		.loc 1 176 0
 215 0038 0021     		movs	r1, #0
 216              		.loc 1 173 0
 217 003a 0446     		mov	r4, r0
 218              	.LVL20:
 219              		.loc 1 176 0
 220 003c FFF7FEFF 		bl	chSchWakeupS
 221              	.LVL21:
 222              	.LBB47:
 223              	.LBB48:
 224              	.LBB49:
 225              	.LBB50:
 226              	.LBB51:
 227              		.loc 2 493 0
 228 0040 0023     		movs	r3, #0
ARM GAS  /tmp/ccsCUGZH.s 			page 5


 229              		.syntax unified
 230              	@ 493 "./RM18A-ChibiOS18-Core/chibios/os/common/ext/ARM/CMSIS/Core/Include/cmsis_gcc.h" 1
 231 0042 83F31188 		MSR basepri, r3
 232              	@ 0 "" 2
 233              	.LVL22:
 234              		.thumb
 235              		.syntax unified
 236              	.L6:
 237              	.LBE51:
 238              	.LBE50:
 239              	.LBE49:
 240              	.LBE48:
 241              	.LBE47:
 242              		.loc 1 180 0
 243 0046 2046     		mov	r0, r4
 244 0048 07B0     		add	sp, sp, #28
 245              		.cfi_remember_state
 246              		.cfi_def_cfa_offset 20
 247              		@ sp needed
 248 004a F0BD     		pop	{r4, r5, r6, r7, pc}
 249              	.LVL23:
 250              	.L8:
 251              		.cfi_restore_state
 252              		.loc 1 154 0
 253 004c 0446     		mov	r4, r0
 254              	.LVL24:
 255 004e FAE7     		b	.L6
 256              		.cfi_endproc
 257              	.LFE295:
 258              		.size	chThdCreateFromMemoryPool, .-chThdCreateFromMemoryPool
 259              		.text
 260              	.Letext0:
 261              		.file 3 "/usr/lib/gcc/arm-none-eabi/7.3.1/include/stddef.h"
 262              		.file 4 "/usr/arm-none-eabi/include/machine/_default_types.h"
 263              		.file 5 "/usr/arm-none-eabi/include/sys/_stdint.h"
 264              		.file 6 "./RM18A-ChibiOS18-Core/chibios/os/common/ports/ARMCMx/compilers/GCC/chtypes.h"
 265              		.file 7 "./RM18A-ChibiOS18-Core/chibios/os/rt/include/chsystypes.h"
 266              		.file 8 "./RM18A-ChibiOS18-Core/chibios/os/rt/include/chschd.h"
 267              		.file 9 "./RM18A-ChibiOS18-Core/chibios/os/rt/include/chtime.h"
 268              		.file 10 "./RM18A-ChibiOS18-Core/chibios/os/common/ext/ARM/CMSIS/Core/Include/core_cm4.h"
 269              		.file 11 "./RM18A-ChibiOS18-Core/chibios/os/common/ext/ST/STM32F4xx/system_stm32f4xx.h"
 270              		.file 12 "./RM18A-ChibiOS18-Core/chibios/os/common/ports/ARMCMx/chcore.h"
 271              		.file 13 "./RM18A-ChibiOS18-Core/chibios/os/common/ports/ARMCMx/chcore_v7m.h"
 272              		.file 14 "./RM18A-ChibiOS18-Core/chibios/os/rt/include/chtm.h"
 273              		.file 15 "./RM18A-ChibiOS18-Core/chibios/os/rt/include/chsem.h"
 274              		.file 16 "./RM18A-ChibiOS18-Core/chibios/os/rt/include/chmtx.h"
 275              		.file 17 "./RM18A-ChibiOS18-Core/chibios/os/rt/include/chsys.h"
 276              		.file 18 "./RM18A-ChibiOS18-Core/chibios/os/rt/include/chthreads.h"
 277              		.file 19 "./RM18A-ChibiOS18-Core/chibios/os/rt/include/chregistry.h"
 278              		.file 20 "./RM18A-ChibiOS18-Core/chibios/os/oslib/include/chmemcore.h"
 279              		.file 21 "./RM18A-ChibiOS18-Core/chibios/os/oslib/include/chmemheaps.h"
 280              		.file 22 "./RM18A-ChibiOS18-Core/chibios/os/oslib/include/chmempools.h"
 281              		.file 23 "./RM18A-ChibiOS18-Core/chibios/os/oslib/include/chfactory.h"
 282              		.section	.debug_info,"",%progbits
 283              	.Ldebug_info0:
 284 0000 290F0000 		.4byte	0xf29
 285 0004 0400     		.2byte	0x4
ARM GAS  /tmp/ccsCUGZH.s 			page 6


 286 0006 00000000 		.4byte	.Ldebug_abbrev0
 287 000a 04       		.byte	0x4
 288 000b 01       		.uleb128 0x1
 289 000c F0050000 		.4byte	.LASF171
 290 0010 0C       		.byte	0xc
 291 0011 AD040000 		.4byte	.LASF172
 292 0015 DA030000 		.4byte	.LASF173
 293 0019 00000000 		.4byte	.Ldebug_ranges0+0
 294 001d 00000000 		.4byte	0
 295 0021 00000000 		.4byte	.Ldebug_line0
 296 0025 02       		.uleb128 0x2
 297 0026 04       		.byte	0x4
 298 0027 05       		.byte	0x5
 299 0028 696E7400 		.ascii	"int\000"
 300 002c 03       		.uleb128 0x3
 301 002d 15000000 		.4byte	.LASF4
 302 0031 03       		.byte	0x3
 303 0032 D8       		.byte	0xd8
 304 0033 37000000 		.4byte	0x37
 305 0037 04       		.uleb128 0x4
 306 0038 04       		.byte	0x4
 307 0039 07       		.byte	0x7
 308 003a 5A020000 		.4byte	.LASF0
 309 003e 04       		.uleb128 0x4
 310 003f 08       		.byte	0x8
 311 0040 05       		.byte	0x5
 312 0041 3C010000 		.4byte	.LASF1
 313 0045 04       		.uleb128 0x4
 314 0046 08       		.byte	0x8
 315 0047 04       		.byte	0x4
 316 0048 90030000 		.4byte	.LASF2
 317 004c 04       		.uleb128 0x4
 318 004d 01       		.byte	0x1
 319 004e 06       		.byte	0x6
 320 004f 4A010000 		.4byte	.LASF3
 321 0053 03       		.uleb128 0x3
 322 0054 3D000000 		.4byte	.LASF5
 323 0058 04       		.byte	0x4
 324 0059 2B       		.byte	0x2b
 325 005a 5E000000 		.4byte	0x5e
 326 005e 04       		.uleb128 0x4
 327 005f 01       		.byte	0x1
 328 0060 08       		.byte	0x8
 329 0061 03050000 		.4byte	.LASF6
 330 0065 04       		.uleb128 0x4
 331 0066 02       		.byte	0x2
 332 0067 05       		.byte	0x5
 333 0068 27050000 		.4byte	.LASF7
 334 006c 03       		.uleb128 0x3
 335 006d FE060000 		.4byte	.LASF8
 336 0071 04       		.byte	0x4
 337 0072 39       		.byte	0x39
 338 0073 77000000 		.4byte	0x77
 339 0077 04       		.uleb128 0x4
 340 0078 02       		.byte	0x2
 341 0079 07       		.byte	0x7
 342 007a 75070000 		.4byte	.LASF9
ARM GAS  /tmp/ccsCUGZH.s 			page 7


 343 007e 03       		.uleb128 0x3
 344 007f 32030000 		.4byte	.LASF10
 345 0083 04       		.byte	0x4
 346 0084 4D       		.byte	0x4d
 347 0085 89000000 		.4byte	0x89
 348 0089 04       		.uleb128 0x4
 349 008a 04       		.byte	0x4
 350 008b 05       		.byte	0x5
 351 008c 9B010000 		.4byte	.LASF11
 352 0090 03       		.uleb128 0x3
 353 0091 F8010000 		.4byte	.LASF12
 354 0095 04       		.byte	0x4
 355 0096 4F       		.byte	0x4f
 356 0097 9B000000 		.4byte	0x9b
 357 009b 04       		.uleb128 0x4
 358 009c 04       		.byte	0x4
 359 009d 07       		.byte	0x7
 360 009e D1060000 		.4byte	.LASF13
 361 00a2 03       		.uleb128 0x3
 362 00a3 5C040000 		.4byte	.LASF14
 363 00a7 04       		.byte	0x4
 364 00a8 69       		.byte	0x69
 365 00a9 AD000000 		.4byte	0xad
 366 00ad 04       		.uleb128 0x4
 367 00ae 08       		.byte	0x8
 368 00af 07       		.byte	0x7
 369 00b0 BC000000 		.4byte	.LASF15
 370 00b4 03       		.uleb128 0x3
 371 00b5 EC070000 		.4byte	.LASF16
 372 00b9 05       		.byte	0x5
 373 00ba 18       		.byte	0x18
 374 00bb 53000000 		.4byte	0x53
 375 00bf 05       		.uleb128 0x5
 376 00c0 B4000000 		.4byte	0xb4
 377 00c4 03       		.uleb128 0x3
 378 00c5 67020000 		.4byte	.LASF17
 379 00c9 05       		.byte	0x5
 380 00ca 24       		.byte	0x24
 381 00cb 6C000000 		.4byte	0x6c
 382 00cf 03       		.uleb128 0x3
 383 00d0 FB040000 		.4byte	.LASF18
 384 00d4 05       		.byte	0x5
 385 00d5 2C       		.byte	0x2c
 386 00d6 7E000000 		.4byte	0x7e
 387 00da 06       		.uleb128 0x6
 388 00db CF000000 		.4byte	0xcf
 389 00df 03       		.uleb128 0x3
 390 00e0 CA050000 		.4byte	.LASF19
 391 00e4 05       		.byte	0x5
 392 00e5 30       		.byte	0x30
 393 00e6 90000000 		.4byte	0x90
 394 00ea 03       		.uleb128 0x3
 395 00eb 34000000 		.4byte	.LASF20
 396 00ef 05       		.byte	0x5
 397 00f0 3C       		.byte	0x3c
 398 00f1 A2000000 		.4byte	0xa2
 399 00f5 03       		.uleb128 0x3
ARM GAS  /tmp/ccsCUGZH.s 			page 8


 400 00f6 5E030000 		.4byte	.LASF21
 401 00fa 06       		.byte	0x6
 402 00fb 27       		.byte	0x27
 403 00fc DF000000 		.4byte	0xdf
 404 0100 03       		.uleb128 0x3
 405 0101 FB020000 		.4byte	.LASF22
 406 0105 06       		.byte	0x6
 407 0106 2A       		.byte	0x2a
 408 0107 B4000000 		.4byte	0xb4
 409 010b 03       		.uleb128 0x3
 410 010c B8010000 		.4byte	.LASF23
 411 0110 06       		.byte	0x6
 412 0111 2B       		.byte	0x2b
 413 0112 B4000000 		.4byte	0xb4
 414 0116 03       		.uleb128 0x3
 415 0117 76040000 		.4byte	.LASF24
 416 011b 06       		.byte	0x6
 417 011c 2C       		.byte	0x2c
 418 011d B4000000 		.4byte	0xb4
 419 0121 03       		.uleb128 0x3
 420 0122 E2040000 		.4byte	.LASF25
 421 0126 06       		.byte	0x6
 422 0127 2E       		.byte	0x2e
 423 0128 DF000000 		.4byte	0xdf
 424 012c 03       		.uleb128 0x3
 425 012d CC020000 		.4byte	.LASF26
 426 0131 06       		.byte	0x6
 427 0132 2F       		.byte	0x2f
 428 0133 CF000000 		.4byte	0xcf
 429 0137 03       		.uleb128 0x3
 430 0138 11030000 		.4byte	.LASF27
 431 013c 06       		.byte	0x6
 432 013d 31       		.byte	0x31
 433 013e DF000000 		.4byte	0xdf
 434 0142 03       		.uleb128 0x3
 435 0143 54020000 		.4byte	.LASF28
 436 0147 06       		.byte	0x6
 437 0148 33       		.byte	0x33
 438 0149 CF000000 		.4byte	0xcf
 439 014d 03       		.uleb128 0x3
 440 014e D2020000 		.4byte	.LASF29
 441 0152 06       		.byte	0x6
 442 0153 34       		.byte	0x34
 443 0154 DF000000 		.4byte	0xdf
 444 0158 03       		.uleb128 0x3
 445 0159 09070000 		.4byte	.LASF30
 446 015d 07       		.byte	0x7
 447 015e 34       		.byte	0x34
 448 015f 63010000 		.4byte	0x163
 449 0163 07       		.uleb128 0x7
 450 0164 C2020000 		.4byte	.LASF48
 451 0168 44       		.byte	0x44
 452 0169 08       		.byte	0x8
 453 016a 8E       		.byte	0x8e
 454 016b 41020000 		.4byte	0x241
 455 016f 08       		.uleb128 0x8
 456 0170 A4020000 		.4byte	.LASF31
ARM GAS  /tmp/ccsCUGZH.s 			page 9


 457 0174 08       		.byte	0x8
 458 0175 8F       		.byte	0x8f
 459 0176 76020000 		.4byte	0x276
 460 017a 00       		.byte	0
 461 017b 08       		.uleb128 0x8
 462 017c 46040000 		.4byte	.LASF32
 463 0180 08       		.byte	0x8
 464 0181 90       		.byte	0x90
 465 0182 21010000 		.4byte	0x121
 466 0186 08       		.byte	0x8
 467 0187 09       		.uleb128 0x9
 468 0188 63747800 		.ascii	"ctx\000"
 469 018c 08       		.byte	0x8
 470 018d 91       		.byte	0x91
 471 018e D4040000 		.4byte	0x4d4
 472 0192 0C       		.byte	0xc
 473 0193 08       		.uleb128 0x8
 474 0194 47030000 		.4byte	.LASF33
 475 0198 08       		.byte	0x8
 476 0199 93       		.byte	0x93
 477 019a 4C020000 		.4byte	0x24c
 478 019e 10       		.byte	0x10
 479 019f 08       		.uleb128 0x8
 480 01a0 EF060000 		.4byte	.LASF34
 481 01a4 08       		.byte	0x8
 482 01a5 94       		.byte	0x94
 483 01a6 4C020000 		.4byte	0x24c
 484 01aa 14       		.byte	0x14
 485 01ab 08       		.uleb128 0x8
 486 01ac E2020000 		.4byte	.LASF35
 487 01b0 08       		.byte	0x8
 488 01b1 9B       		.byte	0x9b
 489 01b2 28070000 		.4byte	0x728
 490 01b6 18       		.byte	0x18
 491 01b7 08       		.uleb128 0x8
 492 01b8 E3060000 		.4byte	.LASF36
 493 01bc 08       		.byte	0x8
 494 01bd A4       		.byte	0xa4
 495 01be 3F070000 		.4byte	0x73f
 496 01c2 1C       		.byte	0x1c
 497 01c3 08       		.uleb128 0x8
 498 01c4 95010000 		.4byte	.LASF37
 499 01c8 08       		.byte	0x8
 500 01c9 A9       		.byte	0xa9
 501 01ca 0B010000 		.4byte	0x10b
 502 01ce 20       		.byte	0x20
 503 01cf 08       		.uleb128 0x8
 504 01d0 00080000 		.4byte	.LASF38
 505 01d4 08       		.byte	0x8
 506 01d5 AD       		.byte	0xad
 507 01d6 00010000 		.4byte	0x100
 508 01da 21       		.byte	0x21
 509 01db 08       		.uleb128 0x8
 510 01dc 7E040000 		.4byte	.LASF39
 511 01e0 08       		.byte	0x8
 512 01e1 B2       		.byte	0xb2
 513 01e2 16010000 		.4byte	0x116
ARM GAS  /tmp/ccsCUGZH.s 			page 10


 514 01e6 22       		.byte	0x22
 515 01e7 0A       		.uleb128 0xa
 516 01e8 7500     		.ascii	"u\000"
 517 01ea 08       		.byte	0x8
 518 01eb 0301     		.2byte	0x103
 519 01ed 5E060000 		.4byte	0x65e
 520 01f1 24       		.byte	0x24
 521 01f2 0B       		.uleb128 0xb
 522 01f3 25020000 		.4byte	.LASF40
 523 01f7 08       		.byte	0x8
 524 01f8 0801     		.2byte	0x108
 525 01fa 52020000 		.4byte	0x252
 526 01fe 28       		.byte	0x28
 527 01ff 0B       		.uleb128 0xb
 528 0200 8C010000 		.4byte	.LASF41
 529 0204 08       		.byte	0x8
 530 0205 0E01     		.2byte	0x10e
 531 0207 76020000 		.4byte	0x276
 532 020b 2C       		.byte	0x2c
 533 020c 0B       		.uleb128 0xb
 534 020d D9020000 		.4byte	.LASF42
 535 0211 08       		.byte	0x8
 536 0212 1401     		.2byte	0x114
 537 0214 37010000 		.4byte	0x137
 538 0218 34       		.byte	0x34
 539 0219 0B       		.uleb128 0xb
 540 021a 58080000 		.4byte	.LASF43
 541 021e 08       		.byte	0x8
 542 021f 1B01     		.2byte	0x11b
 543 0221 22070000 		.4byte	0x722
 544 0225 38       		.byte	0x38
 545 0226 0B       		.uleb128 0xb
 546 0227 4D030000 		.4byte	.LASF44
 547 022b 08       		.byte	0x8
 548 022c 1F01     		.2byte	0x11f
 549 022e 21010000 		.4byte	0x121
 550 0232 3C       		.byte	0x3c
 551 0233 0B       		.uleb128 0xb
 552 0234 AA020000 		.4byte	.LASF45
 553 0238 08       		.byte	0x8
 554 0239 2601     		.2byte	0x126
 555 023b 29030000 		.4byte	0x329
 556 023f 40       		.byte	0x40
 557 0240 00       		.byte	0
 558 0241 03       		.uleb128 0x3
 559 0242 66030000 		.4byte	.LASF46
 560 0246 07       		.byte	0x7
 561 0247 39       		.byte	0x39
 562 0248 4C020000 		.4byte	0x24c
 563 024c 0C       		.uleb128 0xc
 564 024d 04       		.byte	0x4
 565 024e 58010000 		.4byte	0x158
 566 0252 03       		.uleb128 0x3
 567 0253 17080000 		.4byte	.LASF47
 568 0257 07       		.byte	0x7
 569 0258 3E       		.byte	0x3e
 570 0259 5D020000 		.4byte	0x25d
ARM GAS  /tmp/ccsCUGZH.s 			page 11


 571 025d 07       		.uleb128 0x7
 572 025e DA050000 		.4byte	.LASF49
 573 0262 04       		.byte	0x4
 574 0263 08       		.byte	0x8
 575 0264 7C       		.byte	0x7c
 576 0265 76020000 		.4byte	0x276
 577 0269 08       		.uleb128 0x8
 578 026a 1C000000 		.4byte	.LASF50
 579 026e 08       		.byte	0x8
 580 026f 7D       		.byte	0x7d
 581 0270 4C020000 		.4byte	0x24c
 582 0274 00       		.byte	0
 583 0275 00       		.byte	0
 584 0276 03       		.uleb128 0x3
 585 0277 C7070000 		.4byte	.LASF51
 586 027b 07       		.byte	0x7
 587 027c 45       		.byte	0x45
 588 027d 81020000 		.4byte	0x281
 589 0281 07       		.uleb128 0x7
 590 0282 2B010000 		.4byte	.LASF52
 591 0286 08       		.byte	0x8
 592 0287 08       		.byte	0x8
 593 0288 83       		.byte	0x83
 594 0289 A6020000 		.4byte	0x2a6
 595 028d 08       		.uleb128 0x8
 596 028e 1C000000 		.4byte	.LASF50
 597 0292 08       		.byte	0x8
 598 0293 84       		.byte	0x84
 599 0294 4C020000 		.4byte	0x24c
 600 0298 00       		.byte	0
 601 0299 08       		.uleb128 0x8
 602 029a 47000000 		.4byte	.LASF53
 603 029e 08       		.byte	0x8
 604 029f 85       		.byte	0x85
 605 02a0 4C020000 		.4byte	0x24c
 606 02a4 04       		.byte	0x4
 607 02a5 00       		.byte	0
 608 02a6 03       		.uleb128 0x3
 609 02a7 08000000 		.4byte	.LASF54
 610 02ab 07       		.byte	0x7
 611 02ac 4C       		.byte	0x4c
 612 02ad B1020000 		.4byte	0x2b1
 613 02b1 0D       		.uleb128 0xd
 614 02b2 03030000 		.4byte	.LASF55
 615 02b6 1C       		.byte	0x1c
 616 02b7 08       		.byte	0x8
 617 02b8 5E01     		.2byte	0x15e
 618 02ba 0D030000 		.4byte	0x30d
 619 02be 0B       		.uleb128 0xb
 620 02bf A4020000 		.4byte	.LASF31
 621 02c3 08       		.byte	0x8
 622 02c4 5F01     		.2byte	0x15f
 623 02c6 76020000 		.4byte	0x276
 624 02ca 00       		.byte	0
 625 02cb 0B       		.uleb128 0xb
 626 02cc 46040000 		.4byte	.LASF32
 627 02d0 08       		.byte	0x8
ARM GAS  /tmp/ccsCUGZH.s 			page 12


 628 02d1 6001     		.2byte	0x160
 629 02d3 21010000 		.4byte	0x121
 630 02d7 08       		.byte	0x8
 631 02d8 0A       		.uleb128 0xa
 632 02d9 63747800 		.ascii	"ctx\000"
 633 02dd 08       		.byte	0x8
 634 02de 6201     		.2byte	0x162
 635 02e0 D4040000 		.4byte	0x4d4
 636 02e4 0C       		.byte	0xc
 637 02e5 0B       		.uleb128 0xb
 638 02e6 47030000 		.4byte	.LASF33
 639 02ea 08       		.byte	0x8
 640 02eb 6501     		.2byte	0x165
 641 02ed 4C020000 		.4byte	0x24c
 642 02f1 10       		.byte	0x10
 643 02f2 0B       		.uleb128 0xb
 644 02f3 EF060000 		.4byte	.LASF34
 645 02f7 08       		.byte	0x8
 646 02f8 6601     		.2byte	0x166
 647 02fa 4C020000 		.4byte	0x24c
 648 02fe 14       		.byte	0x14
 649 02ff 0B       		.uleb128 0xb
 650 0300 54040000 		.4byte	.LASF56
 651 0304 08       		.byte	0x8
 652 0305 6901     		.2byte	0x169
 653 0307 4C020000 		.4byte	0x24c
 654 030b 18       		.byte	0x18
 655 030c 00       		.byte	0
 656 030d 03       		.uleb128 0x3
 657 030e 27070000 		.4byte	.LASF57
 658 0312 07       		.byte	0x7
 659 0313 51       		.byte	0x51
 660 0314 18030000 		.4byte	0x318
 661 0318 0C       		.uleb128 0xc
 662 0319 04       		.byte	0x4
 663 031a 1E030000 		.4byte	0x31e
 664 031e 0E       		.uleb128 0xe
 665 031f 29030000 		.4byte	0x329
 666 0323 0F       		.uleb128 0xf
 667 0324 29030000 		.4byte	0x329
 668 0328 00       		.byte	0
 669 0329 10       		.uleb128 0x10
 670 032a 04       		.byte	0x4
 671 032b 03       		.uleb128 0x3
 672 032c 83040000 		.4byte	.LASF58
 673 0330 07       		.byte	0x7
 674 0331 56       		.byte	0x56
 675 0332 36030000 		.4byte	0x336
 676 0336 0D       		.uleb128 0xd
 677 0337 7E050000 		.4byte	.LASF59
 678 033b 14       		.byte	0x14
 679 033c 08       		.byte	0x8
 680 033d 3901     		.2byte	0x139
 681 033f 85030000 		.4byte	0x385
 682 0343 0B       		.uleb128 0xb
 683 0344 1C000000 		.4byte	.LASF50
 684 0348 08       		.byte	0x8
ARM GAS  /tmp/ccsCUGZH.s 			page 13


 685 0349 3A01     		.2byte	0x13a
 686 034b 45070000 		.4byte	0x745
 687 034f 00       		.byte	0
 688 0350 0B       		.uleb128 0xb
 689 0351 47000000 		.4byte	.LASF53
 690 0355 08       		.byte	0x8
 691 0356 3B01     		.2byte	0x13b
 692 0358 45070000 		.4byte	0x745
 693 035c 04       		.byte	0x4
 694 035d 0B       		.uleb128 0xb
 695 035e 21000000 		.4byte	.LASF60
 696 0362 08       		.byte	0x8
 697 0363 3C01     		.2byte	0x13c
 698 0365 5C040000 		.4byte	0x45c
 699 0369 08       		.byte	0x8
 700 036a 0B       		.uleb128 0xb
 701 036b C1010000 		.4byte	.LASF61
 702 036f 08       		.byte	0x8
 703 0370 3D01     		.2byte	0x13d
 704 0372 0D030000 		.4byte	0x30d
 705 0376 0C       		.byte	0xc
 706 0377 0A       		.uleb128 0xa
 707 0378 70617200 		.ascii	"par\000"
 708 037c 08       		.byte	0x8
 709 037d 3F01     		.2byte	0x13f
 710 037f 29030000 		.4byte	0x329
 711 0383 10       		.byte	0x10
 712 0384 00       		.byte	0
 713 0385 03       		.uleb128 0x3
 714 0386 EF000000 		.4byte	.LASF62
 715 038a 07       		.byte	0x7
 716 038b 5B       		.byte	0x5b
 717 038c 90030000 		.4byte	0x390
 718 0390 0D       		.uleb128 0xd
 719 0391 79030000 		.4byte	.LASF63
 720 0395 10       		.byte	0x10
 721 0396 08       		.byte	0x8
 722 0397 4901     		.2byte	0x149
 723 0399 D2030000 		.4byte	0x3d2
 724 039d 0B       		.uleb128 0xb
 725 039e 1C000000 		.4byte	.LASF50
 726 03a2 08       		.byte	0x8
 727 03a3 4A01     		.2byte	0x14a
 728 03a5 45070000 		.4byte	0x745
 729 03a9 00       		.byte	0
 730 03aa 0B       		.uleb128 0xb
 731 03ab 47000000 		.4byte	.LASF53
 732 03af 08       		.byte	0x8
 733 03b0 4C01     		.2byte	0x14c
 734 03b2 45070000 		.4byte	0x745
 735 03b6 04       		.byte	0x4
 736 03b7 0B       		.uleb128 0xb
 737 03b8 21000000 		.4byte	.LASF60
 738 03bc 08       		.byte	0x8
 739 03bd 4E01     		.2byte	0x14e
 740 03bf 5C040000 		.4byte	0x45c
 741 03c3 08       		.byte	0x8
ARM GAS  /tmp/ccsCUGZH.s 			page 14


 742 03c4 0B       		.uleb128 0xb
 743 03c5 31050000 		.4byte	.LASF64
 744 03c9 08       		.byte	0x8
 745 03ca 5601     		.2byte	0x156
 746 03cc 51040000 		.4byte	0x451
 747 03d0 0C       		.byte	0xc
 748 03d1 00       		.byte	0
 749 03d2 03       		.uleb128 0x3
 750 03d3 5E000000 		.4byte	.LASF65
 751 03d7 07       		.byte	0x7
 752 03d8 60       		.byte	0x60
 753 03d9 DD030000 		.4byte	0x3dd
 754 03dd 0D       		.uleb128 0xd
 755 03de 15020000 		.4byte	.LASF66
 756 03e2 04       		.byte	0x4
 757 03e3 08       		.byte	0x8
 758 03e4 7001     		.2byte	0x170
 759 03e6 F8030000 		.4byte	0x3f8
 760 03ea 0B       		.uleb128 0xb
 761 03eb 3E070000 		.4byte	.LASF67
 762 03ef 08       		.byte	0x8
 763 03f0 7801     		.2byte	0x178
 764 03f2 2E070000 		.4byte	0x72e
 765 03f6 00       		.byte	0
 766 03f7 00       		.byte	0
 767 03f8 03       		.uleb128 0x3
 768 03f9 E7020000 		.4byte	.LASF68
 769 03fd 07       		.byte	0x7
 770 03fe 65       		.byte	0x65
 771 03ff 03040000 		.4byte	0x403
 772 0403 0D       		.uleb128 0xd
 773 0404 4D050000 		.4byte	.LASF69
 774 0408 78       		.byte	0x78
 775 0409 08       		.byte	0x8
 776 040a 9001     		.2byte	0x190
 777 040c 51040000 		.4byte	0x451
 778 0410 0B       		.uleb128 0xb
 779 0411 2D020000 		.4byte	.LASF70
 780 0415 08       		.byte	0x8
 781 0416 9401     		.2byte	0x194
 782 0418 A6020000 		.4byte	0x2a6
 783 041c 00       		.byte	0
 784 041d 0B       		.uleb128 0xb
 785 041e 79010000 		.4byte	.LASF71
 786 0422 08       		.byte	0x8
 787 0423 9801     		.2byte	0x198
 788 0425 85030000 		.4byte	0x385
 789 0429 1C       		.byte	0x1c
 790 042a 0A       		.uleb128 0xa
 791 042b 64626700 		.ascii	"dbg\000"
 792 042f 08       		.byte	0x8
 793 0430 9C01     		.2byte	0x19c
 794 0432 D2030000 		.4byte	0x3d2
 795 0436 2C       		.byte	0x2c
 796 0437 0B       		.uleb128 0xb
 797 0438 DC000000 		.4byte	.LASF72
 798 043c 08       		.byte	0x8
ARM GAS  /tmp/ccsCUGZH.s 			page 15


 799 043d A001     		.2byte	0x1a0
 800 043f 58010000 		.4byte	0x158
 801 0443 30       		.byte	0x30
 802 0444 0A       		.uleb128 0xa
 803 0445 746D00   		.ascii	"tm\000"
 804 0448 08       		.byte	0x8
 805 0449 A501     		.2byte	0x1a5
 806 044b 53060000 		.4byte	0x653
 807 044f 74       		.byte	0x74
 808 0450 00       		.byte	0
 809 0451 03       		.uleb128 0x3
 810 0452 1D070000 		.4byte	.LASF73
 811 0456 09       		.byte	0x9
 812 0457 6D       		.byte	0x6d
 813 0458 DF000000 		.4byte	0xdf
 814 045c 03       		.uleb128 0x3
 815 045d 46020000 		.4byte	.LASF74
 816 0461 09       		.byte	0x9
 817 0462 79       		.byte	0x79
 818 0463 DF000000 		.4byte	0xdf
 819 0467 11       		.uleb128 0x11
 820 0468 05010000 		.4byte	.LASF75
 821 046c 0A       		.byte	0xa
 822 046d 0408     		.2byte	0x804
 823 046f DA000000 		.4byte	0xda
 824 0473 12       		.uleb128 0x12
 825 0474 70020000 		.4byte	.LASF76
 826 0478 0B       		.byte	0xb
 827 0479 4C       		.byte	0x4c
 828 047a DF000000 		.4byte	0xdf
 829 047e 13       		.uleb128 0x13
 830 047f BF000000 		.4byte	0xbf
 831 0483 8E040000 		.4byte	0x48e
 832 0487 14       		.uleb128 0x14
 833 0488 37000000 		.4byte	0x37
 834 048c 0F       		.byte	0xf
 835 048d 00       		.byte	0
 836 048e 05       		.uleb128 0x5
 837 048f 7E040000 		.4byte	0x47e
 838 0493 12       		.uleb128 0x12
 839 0494 1D030000 		.4byte	.LASF77
 840 0498 0B       		.byte	0xb
 841 0499 4E       		.byte	0x4e
 842 049a 8E040000 		.4byte	0x48e
 843 049e 13       		.uleb128 0x13
 844 049f BF000000 		.4byte	0xbf
 845 04a3 AE040000 		.4byte	0x4ae
 846 04a7 14       		.uleb128 0x14
 847 04a8 37000000 		.4byte	0x37
 848 04ac 07       		.byte	0x7
 849 04ad 00       		.byte	0
 850 04ae 05       		.uleb128 0x5
 851 04af 9E040000 		.4byte	0x49e
 852 04b3 12       		.uleb128 0x12
 853 04b4 B2030000 		.4byte	.LASF78
 854 04b8 0B       		.byte	0xb
 855 04b9 4F       		.byte	0x4f
ARM GAS  /tmp/ccsCUGZH.s 			page 16


 856 04ba AE040000 		.4byte	0x4ae
 857 04be 03       		.uleb128 0x3
 858 04bf 03020000 		.4byte	.LASF79
 859 04c3 0C       		.byte	0xc
 860 04c4 65       		.byte	0x65
 861 04c5 29030000 		.4byte	0x329
 862 04c9 03       		.uleb128 0x3
 863 04ca 3C030000 		.4byte	.LASF80
 864 04ce 0C       		.byte	0xc
 865 04cf 6D       		.byte	0x6d
 866 04d0 EA000000 		.4byte	0xea
 867 04d4 07       		.uleb128 0x7
 868 04d5 9D000000 		.4byte	.LASF81
 869 04d9 04       		.byte	0x4
 870 04da 0C       		.byte	0xc
 871 04db 89       		.byte	0x89
 872 04dc EC040000 		.4byte	0x4ec
 873 04e0 09       		.uleb128 0x9
 874 04e1 737000   		.ascii	"sp\000"
 875 04e4 0C       		.byte	0xc
 876 04e5 8A       		.byte	0x8a
 877 04e6 38060000 		.4byte	0x638
 878 04ea 00       		.byte	0
 879 04eb 00       		.byte	0
 880 04ec 0D       		.uleb128 0xd
 881 04ed 4C000000 		.4byte	.LASF82
 882 04f1 64       		.byte	0x64
 883 04f2 0D       		.byte	0xd
 884 04f3 5901     		.2byte	0x159
 885 04f5 38060000 		.4byte	0x638
 886 04f9 0A       		.uleb128 0xa
 887 04fa 73313600 		.ascii	"s16\000"
 888 04fe 0D       		.byte	0xd
 889 04ff 5B01     		.2byte	0x15b
 890 0501 BE040000 		.4byte	0x4be
 891 0505 00       		.byte	0
 892 0506 0A       		.uleb128 0xa
 893 0507 73313700 		.ascii	"s17\000"
 894 050b 0D       		.byte	0xd
 895 050c 5C01     		.2byte	0x15c
 896 050e BE040000 		.4byte	0x4be
 897 0512 04       		.byte	0x4
 898 0513 0A       		.uleb128 0xa
 899 0514 73313800 		.ascii	"s18\000"
 900 0518 0D       		.byte	0xd
 901 0519 5D01     		.2byte	0x15d
 902 051b BE040000 		.4byte	0x4be
 903 051f 08       		.byte	0x8
 904 0520 0A       		.uleb128 0xa
 905 0521 73313900 		.ascii	"s19\000"
 906 0525 0D       		.byte	0xd
 907 0526 5E01     		.2byte	0x15e
 908 0528 BE040000 		.4byte	0x4be
 909 052c 0C       		.byte	0xc
 910 052d 0A       		.uleb128 0xa
 911 052e 73323000 		.ascii	"s20\000"
 912 0532 0D       		.byte	0xd
ARM GAS  /tmp/ccsCUGZH.s 			page 17


 913 0533 5F01     		.2byte	0x15f
 914 0535 BE040000 		.4byte	0x4be
 915 0539 10       		.byte	0x10
 916 053a 0A       		.uleb128 0xa
 917 053b 73323100 		.ascii	"s21\000"
 918 053f 0D       		.byte	0xd
 919 0540 6001     		.2byte	0x160
 920 0542 BE040000 		.4byte	0x4be
 921 0546 14       		.byte	0x14
 922 0547 0A       		.uleb128 0xa
 923 0548 73323200 		.ascii	"s22\000"
 924 054c 0D       		.byte	0xd
 925 054d 6101     		.2byte	0x161
 926 054f BE040000 		.4byte	0x4be
 927 0553 18       		.byte	0x18
 928 0554 0A       		.uleb128 0xa
 929 0555 73323300 		.ascii	"s23\000"
 930 0559 0D       		.byte	0xd
 931 055a 6201     		.2byte	0x162
 932 055c BE040000 		.4byte	0x4be
 933 0560 1C       		.byte	0x1c
 934 0561 0A       		.uleb128 0xa
 935 0562 73323400 		.ascii	"s24\000"
 936 0566 0D       		.byte	0xd
 937 0567 6301     		.2byte	0x163
 938 0569 BE040000 		.4byte	0x4be
 939 056d 20       		.byte	0x20
 940 056e 0A       		.uleb128 0xa
 941 056f 73323500 		.ascii	"s25\000"
 942 0573 0D       		.byte	0xd
 943 0574 6401     		.2byte	0x164
 944 0576 BE040000 		.4byte	0x4be
 945 057a 24       		.byte	0x24
 946 057b 0A       		.uleb128 0xa
 947 057c 73323600 		.ascii	"s26\000"
 948 0580 0D       		.byte	0xd
 949 0581 6501     		.2byte	0x165
 950 0583 BE040000 		.4byte	0x4be
 951 0587 28       		.byte	0x28
 952 0588 0A       		.uleb128 0xa
 953 0589 73323700 		.ascii	"s27\000"
 954 058d 0D       		.byte	0xd
 955 058e 6601     		.2byte	0x166
 956 0590 BE040000 		.4byte	0x4be
 957 0594 2C       		.byte	0x2c
 958 0595 0A       		.uleb128 0xa
 959 0596 73323800 		.ascii	"s28\000"
 960 059a 0D       		.byte	0xd
 961 059b 6701     		.2byte	0x167
 962 059d BE040000 		.4byte	0x4be
 963 05a1 30       		.byte	0x30
 964 05a2 0A       		.uleb128 0xa
 965 05a3 73323900 		.ascii	"s29\000"
 966 05a7 0D       		.byte	0xd
 967 05a8 6801     		.2byte	0x168
 968 05aa BE040000 		.4byte	0x4be
 969 05ae 34       		.byte	0x34
ARM GAS  /tmp/ccsCUGZH.s 			page 18


 970 05af 0A       		.uleb128 0xa
 971 05b0 73333000 		.ascii	"s30\000"
 972 05b4 0D       		.byte	0xd
 973 05b5 6901     		.2byte	0x169
 974 05b7 BE040000 		.4byte	0x4be
 975 05bb 38       		.byte	0x38
 976 05bc 0A       		.uleb128 0xa
 977 05bd 73333100 		.ascii	"s31\000"
 978 05c1 0D       		.byte	0xd
 979 05c2 6A01     		.2byte	0x16a
 980 05c4 BE040000 		.4byte	0x4be
 981 05c8 3C       		.byte	0x3c
 982 05c9 0A       		.uleb128 0xa
 983 05ca 723400   		.ascii	"r4\000"
 984 05cd 0D       		.byte	0xd
 985 05ce 6C01     		.2byte	0x16c
 986 05d0 BE040000 		.4byte	0x4be
 987 05d4 40       		.byte	0x40
 988 05d5 0A       		.uleb128 0xa
 989 05d6 723500   		.ascii	"r5\000"
 990 05d9 0D       		.byte	0xd
 991 05da 6D01     		.2byte	0x16d
 992 05dc BE040000 		.4byte	0x4be
 993 05e0 44       		.byte	0x44
 994 05e1 0A       		.uleb128 0xa
 995 05e2 723600   		.ascii	"r6\000"
 996 05e5 0D       		.byte	0xd
 997 05e6 6E01     		.2byte	0x16e
 998 05e8 BE040000 		.4byte	0x4be
 999 05ec 48       		.byte	0x48
 1000 05ed 0A       		.uleb128 0xa
 1001 05ee 723700   		.ascii	"r7\000"
 1002 05f1 0D       		.byte	0xd
 1003 05f2 6F01     		.2byte	0x16f
 1004 05f4 BE040000 		.4byte	0x4be
 1005 05f8 4C       		.byte	0x4c
 1006 05f9 0A       		.uleb128 0xa
 1007 05fa 723800   		.ascii	"r8\000"
 1008 05fd 0D       		.byte	0xd
 1009 05fe 7001     		.2byte	0x170
 1010 0600 BE040000 		.4byte	0x4be
 1011 0604 50       		.byte	0x50
 1012 0605 0A       		.uleb128 0xa
 1013 0606 723900   		.ascii	"r9\000"
 1014 0609 0D       		.byte	0xd
 1015 060a 7101     		.2byte	0x171
 1016 060c BE040000 		.4byte	0x4be
 1017 0610 54       		.byte	0x54
 1018 0611 0A       		.uleb128 0xa
 1019 0612 72313000 		.ascii	"r10\000"
 1020 0616 0D       		.byte	0xd
 1021 0617 7201     		.2byte	0x172
 1022 0619 BE040000 		.4byte	0x4be
 1023 061d 58       		.byte	0x58
 1024 061e 0A       		.uleb128 0xa
 1025 061f 72313100 		.ascii	"r11\000"
 1026 0623 0D       		.byte	0xd
ARM GAS  /tmp/ccsCUGZH.s 			page 19


 1027 0624 7301     		.2byte	0x173
 1028 0626 BE040000 		.4byte	0x4be
 1029 062a 5C       		.byte	0x5c
 1030 062b 0A       		.uleb128 0xa
 1031 062c 6C7200   		.ascii	"lr\000"
 1032 062f 0D       		.byte	0xd
 1033 0630 7401     		.2byte	0x174
 1034 0632 BE040000 		.4byte	0x4be
 1035 0636 60       		.byte	0x60
 1036 0637 00       		.byte	0
 1037 0638 0C       		.uleb128 0xc
 1038 0639 04       		.byte	0x4
 1039 063a EC040000 		.4byte	0x4ec
 1040 063e 15       		.uleb128 0x15
 1041 063f 04       		.byte	0x4
 1042 0640 0E       		.byte	0xe
 1043 0641 38       		.byte	0x38
 1044 0642 53060000 		.4byte	0x653
 1045 0646 08       		.uleb128 0x8
 1046 0647 48070000 		.4byte	.LASF83
 1047 064b 0E       		.byte	0xe
 1048 064c 3C       		.byte	0x3c
 1049 064d F5000000 		.4byte	0xf5
 1050 0651 00       		.byte	0
 1051 0652 00       		.byte	0
 1052 0653 03       		.uleb128 0x3
 1053 0654 27040000 		.4byte	.LASF84
 1054 0658 0E       		.byte	0xe
 1055 0659 3D       		.byte	0x3d
 1056 065a 3E060000 		.4byte	0x63e
 1057 065e 16       		.uleb128 0x16
 1058 065f 04       		.byte	0x4
 1059 0660 08       		.byte	0x8
 1060 0661 C6       		.byte	0xc6
 1061 0662 C0060000 		.4byte	0x6c0
 1062 0666 17       		.uleb128 0x17
 1063 0667 27000000 		.4byte	.LASF85
 1064 066b 08       		.byte	0x8
 1065 066c CD       		.byte	0xcd
 1066 066d 2C010000 		.4byte	0x12c
 1067 0671 17       		.uleb128 0x17
 1068 0672 D3000000 		.4byte	.LASF86
 1069 0676 08       		.byte	0x8
 1070 0677 D4       		.byte	0xd4
 1071 0678 2C010000 		.4byte	0x12c
 1072 067c 17       		.uleb128 0x17
 1073 067d 10080000 		.4byte	.LASF87
 1074 0681 08       		.byte	0x8
 1075 0682 DB       		.byte	0xdb
 1076 0683 29030000 		.4byte	0x329
 1077 0687 17       		.uleb128 0x17
 1078 0688 87020000 		.4byte	.LASF88
 1079 068c 08       		.byte	0x8
 1080 068d E2       		.byte	0xe2
 1081 068e C0060000 		.4byte	0x6c0
 1082 0692 17       		.uleb128 0x17
 1083 0693 E7000000 		.4byte	.LASF89
ARM GAS  /tmp/ccsCUGZH.s 			page 20


 1084 0697 08       		.byte	0x8
 1085 0698 E7       		.byte	0xe7
 1086 0699 2C010000 		.4byte	0x12c
 1087 069d 17       		.uleb128 0x17
 1088 069e 80020000 		.4byte	.LASF90
 1089 06a2 08       		.byte	0x8
 1090 06a3 F0       		.byte	0xf0
 1091 06a4 EB060000 		.4byte	0x6eb
 1092 06a8 17       		.uleb128 0x17
 1093 06a9 D3050000 		.4byte	.LASF91
 1094 06ad 08       		.byte	0x8
 1095 06ae F9       		.byte	0xf9
 1096 06af 22070000 		.4byte	0x722
 1097 06b3 18       		.uleb128 0x18
 1098 06b4 46050000 		.4byte	.LASF92
 1099 06b8 08       		.byte	0x8
 1100 06b9 0101     		.2byte	0x101
 1101 06bb 37010000 		.4byte	0x137
 1102 06bf 00       		.byte	0
 1103 06c0 0C       		.uleb128 0xc
 1104 06c1 04       		.byte	0x4
 1105 06c2 41020000 		.4byte	0x241
 1106 06c6 07       		.uleb128 0x7
 1107 06c7 8F050000 		.4byte	.LASF93
 1108 06cb 0C       		.byte	0xc
 1109 06cc 0F       		.byte	0xf
 1110 06cd 34       		.byte	0x34
 1111 06ce EB060000 		.4byte	0x6eb
 1112 06d2 08       		.uleb128 0x8
 1113 06d3 A4020000 		.4byte	.LASF31
 1114 06d7 0F       		.byte	0xf
 1115 06d8 35       		.byte	0x35
 1116 06d9 76020000 		.4byte	0x276
 1117 06dd 00       		.byte	0
 1118 06de 09       		.uleb128 0x9
 1119 06df 636E7400 		.ascii	"cnt\000"
 1120 06e3 0F       		.byte	0xf
 1121 06e4 37       		.byte	0x37
 1122 06e5 42010000 		.4byte	0x142
 1123 06e9 08       		.byte	0x8
 1124 06ea 00       		.byte	0
 1125 06eb 0C       		.uleb128 0xc
 1126 06ec 04       		.byte	0x4
 1127 06ed C6060000 		.4byte	0x6c6
 1128 06f1 07       		.uleb128 0x7
 1129 06f2 62070000 		.4byte	.LASF94
 1130 06f6 10       		.byte	0x10
 1131 06f7 10       		.byte	0x10
 1132 06f8 39       		.byte	0x39
 1133 06f9 22070000 		.4byte	0x722
 1134 06fd 08       		.uleb128 0x8
 1135 06fe A4020000 		.4byte	.LASF31
 1136 0702 10       		.byte	0x10
 1137 0703 3A       		.byte	0x3a
 1138 0704 76020000 		.4byte	0x276
 1139 0708 00       		.byte	0
 1140 0709 08       		.uleb128 0x8
ARM GAS  /tmp/ccsCUGZH.s 			page 21


 1141 070a EA050000 		.4byte	.LASF95
 1142 070e 10       		.byte	0x10
 1143 070f 3C       		.byte	0x3c
 1144 0710 4C020000 		.4byte	0x24c
 1145 0714 08       		.byte	0x8
 1146 0715 08       		.uleb128 0x8
 1147 0716 1C000000 		.4byte	.LASF50
 1148 071a 10       		.byte	0x10
 1149 071b 3E       		.byte	0x3e
 1150 071c EB080000 		.4byte	0x8eb
 1151 0720 0C       		.byte	0xc
 1152 0721 00       		.byte	0
 1153 0722 0C       		.uleb128 0xc
 1154 0723 04       		.byte	0x4
 1155 0724 F1060000 		.4byte	0x6f1
 1156 0728 0C       		.uleb128 0xc
 1157 0729 04       		.byte	0x4
 1158 072a 3A070000 		.4byte	0x73a
 1159 072e 06       		.uleb128 0x6
 1160 072f 28070000 		.4byte	0x728
 1161 0733 04       		.uleb128 0x4
 1162 0734 01       		.byte	0x1
 1163 0735 08       		.byte	0x8
 1164 0736 EA060000 		.4byte	.LASF96
 1165 073a 05       		.uleb128 0x5
 1166 073b 33070000 		.4byte	0x733
 1167 073f 0C       		.uleb128 0xc
 1168 0740 04       		.byte	0x4
 1169 0741 C9040000 		.4byte	0x4c9
 1170 0745 0C       		.uleb128 0xc
 1171 0746 04       		.byte	0x4
 1172 0747 2B030000 		.4byte	0x32b
 1173 074b 19       		.uleb128 0x19
 1174 074c 636800   		.ascii	"ch\000"
 1175 074f 08       		.byte	0x8
 1176 0750 C701     		.2byte	0x1c7
 1177 0752 F8030000 		.4byte	0x3f8
 1178 0756 13       		.uleb128 0x13
 1179 0757 C9040000 		.4byte	0x4c9
 1180 075b 61070000 		.4byte	0x761
 1181 075f 1A       		.uleb128 0x1a
 1182 0760 00       		.byte	0
 1183 0761 11       		.uleb128 0x11
 1184 0762 A5050000 		.4byte	.LASF97
 1185 0766 11       		.byte	0x11
 1186 0767 1701     		.2byte	0x117
 1187 0769 56070000 		.4byte	0x756
 1188 076d 03       		.uleb128 0x3
 1189 076e 00000000 		.4byte	.LASF98
 1190 0772 12       		.byte	0x12
 1191 0773 34       		.byte	0x34
 1192 0774 18030000 		.4byte	0x318
 1193 0778 15       		.uleb128 0x15
 1194 0779 18       		.byte	0x18
 1195 077a 12       		.byte	0x12
 1196 077b 39       		.byte	0x39
 1197 077c C9070000 		.4byte	0x7c9
ARM GAS  /tmp/ccsCUGZH.s 			page 22


 1198 0780 08       		.uleb128 0x8
 1199 0781 E2020000 		.4byte	.LASF35
 1200 0785 12       		.byte	0x12
 1201 0786 3D       		.byte	0x3d
 1202 0787 28070000 		.4byte	0x728
 1203 078b 00       		.byte	0
 1204 078c 08       		.uleb128 0x8
 1205 078d 21040000 		.4byte	.LASF99
 1206 0791 12       		.byte	0x12
 1207 0792 41       		.byte	0x41
 1208 0793 3F070000 		.4byte	0x73f
 1209 0797 04       		.byte	0x4
 1210 0798 08       		.uleb128 0x8
 1211 0799 B7000000 		.4byte	.LASF100
 1212 079d 12       		.byte	0x12
 1213 079e 45       		.byte	0x45
 1214 079f 3F070000 		.4byte	0x73f
 1215 07a3 08       		.byte	0x8
 1216 07a4 08       		.uleb128 0x8
 1217 07a5 46040000 		.4byte	.LASF32
 1218 07a9 12       		.byte	0x12
 1219 07aa 49       		.byte	0x49
 1220 07ab 21010000 		.4byte	0x121
 1221 07af 0C       		.byte	0xc
 1222 07b0 08       		.uleb128 0x8
 1223 07b1 2E000000 		.4byte	.LASF101
 1224 07b5 12       		.byte	0x12
 1225 07b6 4D       		.byte	0x4d
 1226 07b7 6D070000 		.4byte	0x76d
 1227 07bb 10       		.byte	0x10
 1228 07bc 09       		.uleb128 0x9
 1229 07bd 61726700 		.ascii	"arg\000"
 1230 07c1 12       		.byte	0x12
 1231 07c2 51       		.byte	0x51
 1232 07c3 29030000 		.4byte	0x329
 1233 07c7 14       		.byte	0x14
 1234 07c8 00       		.byte	0
 1235 07c9 03       		.uleb128 0x3
 1236 07ca 76000000 		.4byte	.LASF102
 1237 07ce 12       		.byte	0x12
 1238 07cf 52       		.byte	0x52
 1239 07d0 78070000 		.4byte	0x778
 1240 07d4 15       		.uleb128 0x15
 1241 07d5 16       		.byte	0x16
 1242 07d6 13       		.byte	0x13
 1243 07d7 34       		.byte	0x34
 1244 07d8 B5080000 		.4byte	0x8b5
 1245 07dc 08       		.uleb128 0x8
 1246 07dd 88070000 		.4byte	.LASF103
 1247 07e1 13       		.byte	0x13
 1248 07e2 35       		.byte	0x35
 1249 07e3 B5080000 		.4byte	0x8b5
 1250 07e7 00       		.byte	0
 1251 07e8 08       		.uleb128 0x8
 1252 07e9 33020000 		.4byte	.LASF104
 1253 07ed 13       		.byte	0x13
 1254 07ee 36       		.byte	0x36
ARM GAS  /tmp/ccsCUGZH.s 			page 23


 1255 07ef B4000000 		.4byte	0xb4
 1256 07f3 04       		.byte	0x4
 1257 07f4 08       		.uleb128 0x8
 1258 07f5 56010000 		.4byte	.LASF105
 1259 07f9 13       		.byte	0x13
 1260 07fa 37       		.byte	0x37
 1261 07fb B4000000 		.4byte	0xb4
 1262 07ff 05       		.byte	0x5
 1263 0800 08       		.uleb128 0x8
 1264 0801 56030000 		.4byte	.LASF106
 1265 0805 13       		.byte	0x13
 1266 0806 38       		.byte	0x38
 1267 0807 C4000000 		.4byte	0xc4
 1268 080b 06       		.byte	0x6
 1269 080c 08       		.uleb128 0x8
 1270 080d AC070000 		.4byte	.LASF107
 1271 0811 13       		.byte	0x13
 1272 0812 39       		.byte	0x39
 1273 0813 B4000000 		.4byte	0xb4
 1274 0817 08       		.byte	0x8
 1275 0818 08       		.uleb128 0x8
 1276 0819 B7050000 		.4byte	.LASF108
 1277 081d 13       		.byte	0x13
 1278 081e 3A       		.byte	0x3a
 1279 081f B4000000 		.4byte	0xb4
 1280 0823 09       		.byte	0x9
 1281 0824 08       		.uleb128 0x8
 1282 0825 EA040000 		.4byte	.LASF109
 1283 0829 13       		.byte	0x13
 1284 082a 3B       		.byte	0x3b
 1285 082b B4000000 		.4byte	0xb4
 1286 082f 0A       		.byte	0xa
 1287 0830 08       		.uleb128 0x8
 1288 0831 11050000 		.4byte	.LASF110
 1289 0835 13       		.byte	0x13
 1290 0836 3C       		.byte	0x3c
 1291 0837 B4000000 		.4byte	0xb4
 1292 083b 0B       		.byte	0xb
 1293 083c 08       		.uleb128 0x8
 1294 083d F3020000 		.4byte	.LASF111
 1295 0841 13       		.byte	0x13
 1296 0842 3D       		.byte	0x3d
 1297 0843 B4000000 		.4byte	0xb4
 1298 0847 0C       		.byte	0xc
 1299 0848 08       		.uleb128 0x8
 1300 0849 A8030000 		.4byte	.LASF112
 1301 084d 13       		.byte	0x13
 1302 084e 3E       		.byte	0x3e
 1303 084f B4000000 		.4byte	0xb4
 1304 0853 0D       		.byte	0xd
 1305 0854 08       		.uleb128 0x8
 1306 0855 6B070000 		.4byte	.LASF113
 1307 0859 13       		.byte	0x13
 1308 085a 3F       		.byte	0x3f
 1309 085b B4000000 		.4byte	0xb4
 1310 085f 0E       		.byte	0xe
 1311 0860 08       		.uleb128 0x8
ARM GAS  /tmp/ccsCUGZH.s 			page 24


 1312 0861 E3070000 		.4byte	.LASF114
 1313 0865 13       		.byte	0x13
 1314 0866 40       		.byte	0x40
 1315 0867 B4000000 		.4byte	0xb4
 1316 086b 0F       		.byte	0xf
 1317 086c 08       		.uleb128 0x8
 1318 086d 1A050000 		.4byte	.LASF115
 1319 0871 13       		.byte	0x13
 1320 0872 41       		.byte	0x41
 1321 0873 B4000000 		.4byte	0xb4
 1322 0877 10       		.byte	0x10
 1323 0878 08       		.uleb128 0x8
 1324 0879 26080000 		.4byte	.LASF116
 1325 087d 13       		.byte	0x13
 1326 087e 42       		.byte	0x42
 1327 087f B4000000 		.4byte	0xb4
 1328 0883 11       		.byte	0x11
 1329 0884 08       		.uleb128 0x8
 1330 0885 4E080000 		.4byte	.LASF117
 1331 0889 13       		.byte	0x13
 1332 088a 43       		.byte	0x43
 1333 088b B4000000 		.4byte	0xb4
 1334 088f 12       		.byte	0x12
 1335 0890 08       		.uleb128 0x8
 1336 0891 B0020000 		.4byte	.LASF118
 1337 0895 13       		.byte	0x13
 1338 0896 44       		.byte	0x44
 1339 0897 B4000000 		.4byte	0xb4
 1340 089b 13       		.byte	0x13
 1341 089c 08       		.uleb128 0x8
 1342 089d DE010000 		.4byte	.LASF119
 1343 08a1 13       		.byte	0x13
 1344 08a2 45       		.byte	0x45
 1345 08a3 B4000000 		.4byte	0xb4
 1346 08a7 14       		.byte	0x14
 1347 08a8 08       		.uleb128 0x8
 1348 08a9 9C050000 		.4byte	.LASF120
 1349 08ad 13       		.byte	0x13
 1350 08ae 46       		.byte	0x46
 1351 08af B4000000 		.4byte	0xb4
 1352 08b3 15       		.byte	0x15
 1353 08b4 00       		.byte	0
 1354 08b5 13       		.uleb128 0x13
 1355 08b6 33070000 		.4byte	0x733
 1356 08ba C5080000 		.4byte	0x8c5
 1357 08be 14       		.uleb128 0x14
 1358 08bf 37000000 		.4byte	0x37
 1359 08c3 03       		.byte	0x3
 1360 08c4 00       		.byte	0
 1361 08c5 03       		.uleb128 0x3
 1362 08c6 D4010000 		.4byte	.LASF121
 1363 08ca 13       		.byte	0x13
 1364 08cb 47       		.byte	0x47
 1365 08cc D4070000 		.4byte	0x7d4
 1366 08d0 05       		.uleb128 0x5
 1367 08d1 C5080000 		.4byte	0x8c5
 1368 08d5 12       		.uleb128 0x12
ARM GAS  /tmp/ccsCUGZH.s 			page 25


 1369 08d6 8D020000 		.4byte	.LASF122
 1370 08da 13       		.byte	0x13
 1371 08db 6C       		.byte	0x6c
 1372 08dc D0080000 		.4byte	0x8d0
 1373 08e0 03       		.uleb128 0x3
 1374 08e1 38020000 		.4byte	.LASF123
 1375 08e5 10       		.byte	0x10
 1376 08e6 34       		.byte	0x34
 1377 08e7 F1060000 		.4byte	0x6f1
 1378 08eb 0C       		.uleb128 0xc
 1379 08ec 04       		.byte	0x4
 1380 08ed E0080000 		.4byte	0x8e0
 1381 08f1 04       		.uleb128 0x4
 1382 08f2 01       		.byte	0x1
 1383 08f3 02       		.byte	0x2
 1384 08f4 F5040000 		.4byte	.LASF124
 1385 08f8 03       		.uleb128 0x3
 1386 08f9 AA000000 		.4byte	.LASF125
 1387 08fd 14       		.byte	0x14
 1388 08fe 47       		.byte	0x47
 1389 08ff 03090000 		.4byte	0x903
 1390 0903 0C       		.uleb128 0xc
 1391 0904 04       		.byte	0x4
 1392 0905 09090000 		.4byte	0x909
 1393 0909 1B       		.uleb128 0x1b
 1394 090a 29030000 		.4byte	0x329
 1395 090e 1D090000 		.4byte	0x91d
 1396 0912 0F       		.uleb128 0xf
 1397 0913 2C000000 		.4byte	0x2c
 1398 0917 0F       		.uleb128 0xf
 1399 0918 37000000 		.4byte	0x37
 1400 091c 00       		.byte	0
 1401 091d 03       		.uleb128 0x3
 1402 091e 38040000 		.4byte	.LASF126
 1403 0922 14       		.byte	0x14
 1404 0923 4C       		.byte	0x4c
 1405 0924 28090000 		.4byte	0x928
 1406 0928 0C       		.uleb128 0xc
 1407 0929 04       		.byte	0x4
 1408 092a 2E090000 		.4byte	0x92e
 1409 092e 1B       		.uleb128 0x1b
 1410 092f 29030000 		.4byte	0x329
 1411 0933 47090000 		.4byte	0x947
 1412 0937 0F       		.uleb128 0xf
 1413 0938 2C000000 		.4byte	0x2c
 1414 093c 0F       		.uleb128 0xf
 1415 093d 37000000 		.4byte	0x37
 1416 0941 0F       		.uleb128 0xf
 1417 0942 2C000000 		.4byte	0x2c
 1418 0946 00       		.byte	0
 1419 0947 15       		.uleb128 0x15
 1420 0948 08       		.byte	0x8
 1421 0949 14       		.byte	0x14
 1422 094a 51       		.byte	0x51
 1423 094b 68090000 		.4byte	0x968
 1424 094f 08       		.uleb128 0x8
 1425 0950 67080000 		.4byte	.LASF127
ARM GAS  /tmp/ccsCUGZH.s 			page 26


 1426 0954 14       		.byte	0x14
 1427 0955 55       		.byte	0x55
 1428 0956 68090000 		.4byte	0x968
 1429 095a 00       		.byte	0
 1430 095b 08       		.uleb128 0x8
 1431 095c 2B030000 		.4byte	.LASF128
 1432 0960 14       		.byte	0x14
 1433 0961 59       		.byte	0x59
 1434 0962 68090000 		.4byte	0x968
 1435 0966 04       		.byte	0x4
 1436 0967 00       		.byte	0
 1437 0968 0C       		.uleb128 0xc
 1438 0969 04       		.byte	0x4
 1439 096a B4000000 		.4byte	0xb4
 1440 096e 03       		.uleb128 0x3
 1441 096f 67040000 		.4byte	.LASF129
 1442 0973 14       		.byte	0x14
 1443 0974 5A       		.byte	0x5a
 1444 0975 47090000 		.4byte	0x947
 1445 0979 12       		.uleb128 0x12
 1446 097a 12070000 		.4byte	.LASF130
 1447 097e 14       		.byte	0x14
 1448 097f 65       		.byte	0x65
 1449 0980 6E090000 		.4byte	0x96e
 1450 0984 03       		.uleb128 0x3
 1451 0985 C6010000 		.4byte	.LASF131
 1452 0989 15       		.byte	0x15
 1453 098a 48       		.byte	0x48
 1454 098b 8F090000 		.4byte	0x98f
 1455 098f 07       		.uleb128 0x7
 1456 0990 6F080000 		.4byte	.LASF132
 1457 0994 1C       		.byte	0x1c
 1458 0995 15       		.byte	0x15
 1459 0996 60       		.byte	0x60
 1460 0997 C0090000 		.4byte	0x9c0
 1461 099b 08       		.uleb128 0x8
 1462 099c 6D000000 		.4byte	.LASF133
 1463 09a0 15       		.byte	0x15
 1464 09a1 61       		.byte	0x61
 1465 09a2 1D090000 		.4byte	0x91d
 1466 09a6 00       		.byte	0
 1467 09a7 08       		.uleb128 0x8
 1468 09a8 60080000 		.4byte	.LASF134
 1469 09ac 15       		.byte	0x15
 1470 09ad 63       		.byte	0x63
 1471 09ae C0090000 		.4byte	0x9c0
 1472 09b2 04       		.byte	0x4
 1473 09b3 09       		.uleb128 0x9
 1474 09b4 6D747800 		.ascii	"mtx\000"
 1475 09b8 15       		.byte	0x15
 1476 09b9 65       		.byte	0x65
 1477 09ba E0080000 		.4byte	0x8e0
 1478 09be 0C       		.byte	0xc
 1479 09bf 00       		.byte	0
 1480 09c0 03       		.uleb128 0x3
 1481 09c1 EA010000 		.4byte	.LASF135
 1482 09c5 15       		.byte	0x15
ARM GAS  /tmp/ccsCUGZH.s 			page 27


 1483 09c6 4D       		.byte	0x4d
 1484 09c7 CB090000 		.4byte	0x9cb
 1485 09cb 1C       		.uleb128 0x1c
 1486 09cc 3A050000 		.4byte	.LASF174
 1487 09d0 08       		.byte	0x8
 1488 09d1 15       		.byte	0x15
 1489 09d2 52       		.byte	0x52
 1490 09d3 EE090000 		.4byte	0x9ee
 1491 09d7 17       		.uleb128 0x17
 1492 09d8 26010000 		.4byte	.LASF136
 1493 09dc 15       		.byte	0x15
 1494 09dd 56       		.byte	0x56
 1495 09de EE090000 		.4byte	0x9ee
 1496 09e2 17       		.uleb128 0x17
 1497 09e3 71040000 		.4byte	.LASF137
 1498 09e7 15       		.byte	0x15
 1499 09e8 5A       		.byte	0x5a
 1500 09e9 150A0000 		.4byte	0xa15
 1501 09ed 00       		.byte	0
 1502 09ee 15       		.uleb128 0x15
 1503 09ef 08       		.byte	0x8
 1504 09f0 15       		.byte	0x15
 1505 09f1 53       		.byte	0x53
 1506 09f2 0F0A0000 		.4byte	0xa0f
 1507 09f6 08       		.uleb128 0x8
 1508 09f7 1C000000 		.4byte	.LASF50
 1509 09fb 15       		.byte	0x15
 1510 09fc 54       		.byte	0x54
 1511 09fd 0F0A0000 		.4byte	0xa0f
 1512 0a01 00       		.byte	0
 1513 0a02 08       		.uleb128 0x8
 1514 0a03 58000000 		.4byte	.LASF138
 1515 0a07 15       		.byte	0x15
 1516 0a08 55       		.byte	0x55
 1517 0a09 2C000000 		.4byte	0x2c
 1518 0a0d 04       		.byte	0x4
 1519 0a0e 00       		.byte	0
 1520 0a0f 0C       		.uleb128 0xc
 1521 0a10 04       		.byte	0x4
 1522 0a11 C0090000 		.4byte	0x9c0
 1523 0a15 15       		.uleb128 0x15
 1524 0a16 08       		.byte	0x8
 1525 0a17 15       		.byte	0x15
 1526 0a18 57       		.byte	0x57
 1527 0a19 360A0000 		.4byte	0xa36
 1528 0a1d 08       		.uleb128 0x8
 1529 0a1e CC060000 		.4byte	.LASF139
 1530 0a22 15       		.byte	0x15
 1531 0a23 58       		.byte	0x58
 1532 0a24 360A0000 		.4byte	0xa36
 1533 0a28 00       		.byte	0
 1534 0a29 08       		.uleb128 0x8
 1535 0a2a 56010000 		.4byte	.LASF105
 1536 0a2e 15       		.byte	0x15
 1537 0a2f 59       		.byte	0x59
 1538 0a30 2C000000 		.4byte	0x2c
 1539 0a34 04       		.byte	0x4
ARM GAS  /tmp/ccsCUGZH.s 			page 28


 1540 0a35 00       		.byte	0
 1541 0a36 0C       		.uleb128 0xc
 1542 0a37 04       		.byte	0x4
 1543 0a38 84090000 		.4byte	0x984
 1544 0a3c 07       		.uleb128 0x7
 1545 0a3d D7070000 		.4byte	.LASF140
 1546 0a41 04       		.byte	0x4
 1547 0a42 16       		.byte	0x16
 1548 0a43 38       		.byte	0x38
 1549 0a44 550A0000 		.4byte	0xa55
 1550 0a48 08       		.uleb128 0x8
 1551 0a49 1C000000 		.4byte	.LASF50
 1552 0a4d 16       		.byte	0x16
 1553 0a4e 39       		.byte	0x39
 1554 0a4f 550A0000 		.4byte	0xa55
 1555 0a53 00       		.byte	0
 1556 0a54 00       		.byte	0
 1557 0a55 0C       		.uleb128 0xc
 1558 0a56 04       		.byte	0x4
 1559 0a57 3C0A0000 		.4byte	0xa3c
 1560 0a5b 15       		.uleb128 0x15
 1561 0a5c 10       		.byte	0x10
 1562 0a5d 16       		.byte	0x16
 1563 0a5e 40       		.byte	0x40
 1564 0a5f 940A0000 		.4byte	0xa94
 1565 0a63 08       		.uleb128 0x8
 1566 0a64 1C000000 		.4byte	.LASF50
 1567 0a68 16       		.byte	0x16
 1568 0a69 41       		.byte	0x41
 1569 0a6a 550A0000 		.4byte	0xa55
 1570 0a6e 00       		.byte	0
 1571 0a6f 08       		.uleb128 0x8
 1572 0a70 A0070000 		.4byte	.LASF141
 1573 0a74 16       		.byte	0x16
 1574 0a75 42       		.byte	0x42
 1575 0a76 2C000000 		.4byte	0x2c
 1576 0a7a 04       		.byte	0x4
 1577 0a7b 08       		.uleb128 0x8
 1578 0a7c 40020000 		.4byte	.LASF142
 1579 0a80 16       		.byte	0x16
 1580 0a81 44       		.byte	0x44
 1581 0a82 37000000 		.4byte	0x37
 1582 0a86 08       		.byte	0x8
 1583 0a87 08       		.uleb128 0x8
 1584 0a88 6D000000 		.4byte	.LASF133
 1585 0a8c 16       		.byte	0x16
 1586 0a8d 45       		.byte	0x45
 1587 0a8e F8080000 		.4byte	0x8f8
 1588 0a92 0C       		.byte	0xc
 1589 0a93 00       		.byte	0
 1590 0a94 03       		.uleb128 0x3
 1591 0a95 96020000 		.4byte	.LASF143
 1592 0a99 16       		.byte	0x16
 1593 0a9a 47       		.byte	0x47
 1594 0a9b 5B0A0000 		.4byte	0xa5b
 1595 0a9f 07       		.uleb128 0x7
 1596 0aa0 93040000 		.4byte	.LASF144
ARM GAS  /tmp/ccsCUGZH.s 			page 29


 1597 0aa4 10       		.byte	0x10
 1598 0aa5 17       		.byte	0x17
 1599 0aa6 A9       		.byte	0xa9
 1600 0aa7 D00A0000 		.4byte	0xad0
 1601 0aab 08       		.uleb128 0x8
 1602 0aac 1C000000 		.4byte	.LASF50
 1603 0ab0 17       		.byte	0x17
 1604 0ab1 AD       		.byte	0xad
 1605 0ab2 D00A0000 		.4byte	0xad0
 1606 0ab6 00       		.byte	0
 1607 0ab7 08       		.uleb128 0x8
 1608 0ab8 7E040000 		.4byte	.LASF39
 1609 0abc 17       		.byte	0x17
 1610 0abd B1       		.byte	0xb1
 1611 0abe 4D010000 		.4byte	0x14d
 1612 0ac2 04       		.byte	0x4
 1613 0ac3 08       		.uleb128 0x8
 1614 0ac4 E2020000 		.4byte	.LASF35
 1615 0ac8 17       		.byte	0x17
 1616 0ac9 B3       		.byte	0xb3
 1617 0aca D60A0000 		.4byte	0xad6
 1618 0ace 08       		.byte	0x8
 1619 0acf 00       		.byte	0
 1620 0ad0 0C       		.uleb128 0xc
 1621 0ad1 04       		.byte	0x4
 1622 0ad2 9F0A0000 		.4byte	0xa9f
 1623 0ad6 13       		.uleb128 0x13
 1624 0ad7 33070000 		.4byte	0x733
 1625 0adb E60A0000 		.4byte	0xae6
 1626 0adf 14       		.uleb128 0x14
 1627 0ae0 37000000 		.4byte	0x37
 1628 0ae4 07       		.byte	0x7
 1629 0ae5 00       		.byte	0
 1630 0ae6 03       		.uleb128 0x3
 1631 0ae7 18010000 		.4byte	.LASF145
 1632 0aeb 17       		.byte	0x17
 1633 0aec B7       		.byte	0xb7
 1634 0aed 9F0A0000 		.4byte	0xa9f
 1635 0af1 07       		.uleb128 0x7
 1636 0af2 9C030000 		.4byte	.LASF146
 1637 0af6 04       		.byte	0x4
 1638 0af7 17       		.byte	0x17
 1639 0af8 BC       		.byte	0xbc
 1640 0af9 0A0B0000 		.4byte	0xb0a
 1641 0afd 08       		.uleb128 0x8
 1642 0afe 1C000000 		.4byte	.LASF50
 1643 0b02 17       		.byte	0x17
 1644 0b03 BD       		.byte	0xbd
 1645 0b04 0A0B0000 		.4byte	0xb0a
 1646 0b08 00       		.byte	0
 1647 0b09 00       		.byte	0
 1648 0b0a 0C       		.uleb128 0xc
 1649 0b0b 04       		.byte	0x4
 1650 0b0c E60A0000 		.4byte	0xae6
 1651 0b10 03       		.uleb128 0x3
 1652 0b11 A2040000 		.4byte	.LASF147
 1653 0b15 17       		.byte	0x17
ARM GAS  /tmp/ccsCUGZH.s 			page 30


 1654 0b16 BE       		.byte	0xbe
 1655 0b17 F10A0000 		.4byte	0xaf1
 1656 0b1b 0D       		.uleb128 0xd
 1657 0b1c B4070000 		.4byte	.LASF148
 1658 0b20 48       		.byte	0x48
 1659 0b21 17       		.byte	0x17
 1660 0b22 3E01     		.2byte	0x13e
 1661 0b24 9E0B0000 		.4byte	0xb9e
 1662 0b28 0A       		.uleb128 0xa
 1663 0b29 6D747800 		.ascii	"mtx\000"
 1664 0b2d 17       		.byte	0x17
 1665 0b2e 4301     		.2byte	0x143
 1666 0b30 E0080000 		.4byte	0x8e0
 1667 0b34 00       		.byte	0
 1668 0b35 0B       		.uleb128 0xb
 1669 0b36 F5060000 		.4byte	.LASF149
 1670 0b3a 17       		.byte	0x17
 1671 0b3b 4A01     		.2byte	0x14a
 1672 0b3d 100B0000 		.4byte	0xb10
 1673 0b41 10       		.byte	0x10
 1674 0b42 0B       		.uleb128 0xb
 1675 0b43 75050000 		.4byte	.LASF150
 1676 0b47 17       		.byte	0x17
 1677 0b48 4E01     		.2byte	0x14e
 1678 0b4a 940A0000 		.4byte	0xa94
 1679 0b4e 14       		.byte	0x14
 1680 0b4f 0B       		.uleb128 0xb
 1681 0b50 B9020000 		.4byte	.LASF151
 1682 0b54 17       		.byte	0x17
 1683 0b55 5301     		.2byte	0x153
 1684 0b57 100B0000 		.4byte	0xb10
 1685 0b5b 24       		.byte	0x24
 1686 0b5c 0B       		.uleb128 0xb
 1687 0b5d 8A000000 		.4byte	.LASF152
 1688 0b61 17       		.byte	0x17
 1689 0b62 5901     		.2byte	0x159
 1690 0b64 100B0000 		.4byte	0xb10
 1691 0b68 28       		.byte	0x28
 1692 0b69 0B       		.uleb128 0xb
 1693 0b6a 4B040000 		.4byte	.LASF153
 1694 0b6e 17       		.byte	0x17
 1695 0b6f 5D01     		.2byte	0x15d
 1696 0b71 940A0000 		.4byte	0xa94
 1697 0b75 2C       		.byte	0x2c
 1698 0b76 0B       		.uleb128 0xb
 1699 0b77 0C020000 		.4byte	.LASF154
 1700 0b7b 17       		.byte	0x17
 1701 0b7c 6301     		.2byte	0x163
 1702 0b7e 100B0000 		.4byte	0xb10
 1703 0b82 3C       		.byte	0x3c
 1704 0b83 0B       		.uleb128 0xb
 1705 0b84 06080000 		.4byte	.LASF155
 1706 0b88 17       		.byte	0x17
 1707 0b89 6901     		.2byte	0x169
 1708 0b8b 100B0000 		.4byte	0xb10
 1709 0b8f 40       		.byte	0x40
 1710 0b90 0B       		.uleb128 0xb
ARM GAS  /tmp/ccsCUGZH.s 			page 31


 1711 0b91 C0050000 		.4byte	.LASF156
 1712 0b95 17       		.byte	0x17
 1713 0b96 6F01     		.2byte	0x16f
 1714 0b98 100B0000 		.4byte	0xb10
 1715 0b9c 44       		.byte	0x44
 1716 0b9d 00       		.byte	0
 1717 0b9e 1D       		.uleb128 0x1d
 1718 0b9f 3C080000 		.4byte	.LASF157
 1719 0ba3 17       		.byte	0x17
 1720 0ba4 7101     		.2byte	0x171
 1721 0ba6 1B0B0000 		.4byte	0xb1b
 1722 0baa 11       		.uleb128 0x11
 1723 0bab 60050000 		.4byte	.LASF158
 1724 0baf 17       		.byte	0x17
 1725 0bb0 7C01     		.2byte	0x17c
 1726 0bb2 9E0B0000 		.4byte	0xb9e
 1727 0bb6 1E       		.uleb128 0x1e
 1728 0bb7 C0030000 		.4byte	.LASF159
 1729 0bbb 01       		.byte	0x1
 1730 0bbc 91       		.byte	0x91
 1731 0bbd 4C020000 		.4byte	0x24c
 1732 0bc1 00000000 		.4byte	.LFB295
 1733 0bc5 50000000 		.4byte	.LFE295-.LFB295
 1734 0bc9 01       		.uleb128 0x1
 1735 0bca 9C       		.byte	0x9c
 1736 0bcb 110D0000 		.4byte	0xd11
 1737 0bcf 1F       		.uleb128 0x1f
 1738 0bd0 6D7000   		.ascii	"mp\000"
 1739 0bd3 01       		.byte	0x1
 1740 0bd4 91       		.byte	0x91
 1741 0bd5 110D0000 		.4byte	0xd11
 1742 0bd9 00000000 		.4byte	.LLST10
 1743 0bdd 20       		.uleb128 0x20
 1744 0bde E2020000 		.4byte	.LASF35
 1745 0be2 01       		.byte	0x1
 1746 0be3 91       		.byte	0x91
 1747 0be4 28070000 		.4byte	0x728
 1748 0be8 1E000000 		.4byte	.LLST11
 1749 0bec 20       		.uleb128 0x20
 1750 0bed 46040000 		.4byte	.LASF32
 1751 0bf1 01       		.byte	0x1
 1752 0bf2 92       		.byte	0x92
 1753 0bf3 21010000 		.4byte	0x121
 1754 0bf7 6F000000 		.4byte	.LLST12
 1755 0bfb 1F       		.uleb128 0x1f
 1756 0bfc 706600   		.ascii	"pf\000"
 1757 0bff 01       		.byte	0x1
 1758 0c00 92       		.byte	0x92
 1759 0c01 6D070000 		.4byte	0x76d
 1760 0c05 8D000000 		.4byte	.LLST13
 1761 0c09 1F       		.uleb128 0x1f
 1762 0c0a 61726700 		.ascii	"arg\000"
 1763 0c0e 01       		.byte	0x1
 1764 0c0f 92       		.byte	0x92
 1765 0c10 29030000 		.4byte	0x329
 1766 0c14 AB000000 		.4byte	.LLST14
 1767 0c18 21       		.uleb128 0x21
ARM GAS  /tmp/ccsCUGZH.s 			page 32


 1768 0c19 747000   		.ascii	"tp\000"
 1769 0c1c 01       		.byte	0x1
 1770 0c1d 93       		.byte	0x93
 1771 0c1e 4C020000 		.4byte	0x24c
 1772 0c22 CB000000 		.4byte	.LLST15
 1773 0c26 21       		.uleb128 0x21
 1774 0c27 77737000 		.ascii	"wsp\000"
 1775 0c2b 01       		.byte	0x1
 1776 0c2c 94       		.byte	0x94
 1777 0c2d 29030000 		.4byte	0x329
 1778 0c31 E9000000 		.4byte	.LLST16
 1779 0c35 22       		.uleb128 0x22
 1780 0c36 57050000 		.4byte	.LASF175
 1781 0c3a 270D0000 		.4byte	0xd27
 1782 0c3e 23       		.uleb128 0x23
 1783 0c3f 746400   		.ascii	"td\000"
 1784 0c42 01       		.byte	0x1
 1785 0c43 9D       		.byte	0x9d
 1786 0c44 C9070000 		.4byte	0x7c9
 1787 0c48 02       		.uleb128 0x2
 1788 0c49 91       		.byte	0x91
 1789 0c4a 50       		.sleb128 -48
 1790 0c4b 24       		.uleb128 0x24
 1791 0c4c CA0E0000 		.4byte	0xeca
 1792 0c50 24000000 		.4byte	.LBB43
 1793 0c54 06000000 		.4byte	.LBE43-.LBB43
 1794 0c58 01       		.byte	0x1
 1795 0c59 AC       		.byte	0xac
 1796 0c5a 8A0C0000 		.4byte	0xc8a
 1797 0c5e 25       		.uleb128 0x25
 1798 0c5f DC0E0000 		.4byte	0xedc
 1799 0c63 24000000 		.4byte	.LBB44
 1800 0c67 06000000 		.4byte	.LBE44-.LBB44
 1801 0c6b 11       		.byte	0x11
 1802 0c6c 6301     		.2byte	0x163
 1803 0c6e 25       		.uleb128 0x25
 1804 0c6f E50E0000 		.4byte	0xee5
 1805 0c73 24000000 		.4byte	.LBB45
 1806 0c77 06000000 		.4byte	.LBE45-.LBB45
 1807 0c7b 0D       		.byte	0xd
 1808 0c7c 6202     		.2byte	0x262
 1809 0c7e 26       		.uleb128 0x26
 1810 0c7f F20E0000 		.4byte	0xef2
 1811 0c83 13010000 		.4byte	.LLST17
 1812 0c87 00       		.byte	0
 1813 0c88 00       		.byte	0
 1814 0c89 00       		.byte	0
 1815 0c8a 24       		.uleb128 0x24
 1816 0c8b 9A0E0000 		.4byte	0xe9a
 1817 0c8f 40000000 		.4byte	.LBB47
 1818 0c93 06000000 		.4byte	.LBE47-.LBB47
 1819 0c97 01       		.byte	0x1
 1820 0c98 B1       		.byte	0xb1
 1821 0c99 D30C0000 		.4byte	0xcd3
 1822 0c9d 27       		.uleb128 0x27
 1823 0c9e 40000000 		.4byte	.LBB48
 1824 0ca2 06000000 		.4byte	.LBE48-.LBB48
ARM GAS  /tmp/ccsCUGZH.s 			page 33


 1825 0ca6 25       		.uleb128 0x25
 1826 0ca7 D30E0000 		.4byte	0xed3
 1827 0cab 40000000 		.4byte	.LBB49
 1828 0caf 06000000 		.4byte	.LBE49-.LBB49
 1829 0cb3 11       		.byte	0x11
 1830 0cb4 7A01     		.2byte	0x17a
 1831 0cb6 25       		.uleb128 0x25
 1832 0cb7 E50E0000 		.4byte	0xee5
 1833 0cbb 40000000 		.4byte	.LBB50
 1834 0cbf 06000000 		.4byte	.LBE50-.LBB50
 1835 0cc3 0D       		.byte	0xd
 1836 0cc4 7502     		.2byte	0x275
 1837 0cc6 26       		.uleb128 0x26
 1838 0cc7 F20E0000 		.4byte	0xef2
 1839 0ccb 28010000 		.4byte	.LLST18
 1840 0ccf 00       		.byte	0
 1841 0cd0 00       		.byte	0
 1842 0cd1 00       		.byte	0
 1843 0cd2 00       		.byte	0
 1844 0cd3 28       		.uleb128 0x28
 1845 0cd4 10000000 		.4byte	.LVL14
 1846 0cd8 FF0E0000 		.4byte	0xeff
 1847 0cdc E70C0000 		.4byte	0xce7
 1848 0ce0 29       		.uleb128 0x29
 1849 0ce1 01       		.uleb128 0x1
 1850 0ce2 50       		.byte	0x50
 1851 0ce3 02       		.uleb128 0x2
 1852 0ce4 75       		.byte	0x75
 1853 0ce5 00       		.sleb128 0
 1854 0ce6 00       		.byte	0
 1855 0ce7 28       		.uleb128 0x28
 1856 0ce8 30000000 		.4byte	.LVL19
 1857 0cec 0A0F0000 		.4byte	0xf0a
 1858 0cf0 FB0C0000 		.4byte	0xcfb
 1859 0cf4 29       		.uleb128 0x29
 1860 0cf5 01       		.uleb128 0x1
 1861 0cf6 50       		.byte	0x50
 1862 0cf7 02       		.uleb128 0x2
 1863 0cf8 7D       		.byte	0x7d
 1864 0cf9 00       		.sleb128 0
 1865 0cfa 00       		.byte	0
 1866 0cfb 2A       		.uleb128 0x2a
 1867 0cfc 40000000 		.4byte	.LVL21
 1868 0d00 150F0000 		.4byte	0xf15
 1869 0d04 29       		.uleb128 0x29
 1870 0d05 01       		.uleb128 0x1
 1871 0d06 50       		.byte	0x50
 1872 0d07 02       		.uleb128 0x2
 1873 0d08 74       		.byte	0x74
 1874 0d09 00       		.sleb128 0
 1875 0d0a 29       		.uleb128 0x29
 1876 0d0b 01       		.uleb128 0x1
 1877 0d0c 51       		.byte	0x51
 1878 0d0d 01       		.uleb128 0x1
 1879 0d0e 30       		.byte	0x30
 1880 0d0f 00       		.byte	0
 1881 0d10 00       		.byte	0
ARM GAS  /tmp/ccsCUGZH.s 			page 34


 1882 0d11 0C       		.uleb128 0xc
 1883 0d12 04       		.byte	0x4
 1884 0d13 940A0000 		.4byte	0xa94
 1885 0d17 13       		.uleb128 0x13
 1886 0d18 3A070000 		.4byte	0x73a
 1887 0d1c 270D0000 		.4byte	0xd27
 1888 0d20 14       		.uleb128 0x14
 1889 0d21 37000000 		.4byte	0x37
 1890 0d25 19       		.byte	0x19
 1891 0d26 00       		.byte	0
 1892 0d27 05       		.uleb128 0x5
 1893 0d28 170D0000 		.4byte	0xd17
 1894 0d2c 1E       		.uleb128 0x1e
 1895 0d2d A4010000 		.4byte	.LASF160
 1896 0d31 01       		.byte	0x1
 1897 0d32 52       		.byte	0x52
 1898 0d33 4C020000 		.4byte	0x24c
 1899 0d37 00000000 		.4byte	.LFB294
 1900 0d3b 4E000000 		.4byte	.LFE294-.LFB294
 1901 0d3f 01       		.uleb128 0x1
 1902 0d40 9C       		.byte	0x9c
 1903 0d41 9A0E0000 		.4byte	0xe9a
 1904 0d45 20       		.uleb128 0x20
 1905 0d46 12010000 		.4byte	.LASF161
 1906 0d4a 01       		.byte	0x1
 1907 0d4b 52       		.byte	0x52
 1908 0d4c 360A0000 		.4byte	0xa36
 1909 0d50 3C010000 		.4byte	.LLST0
 1910 0d54 20       		.uleb128 0x20
 1911 0d55 56010000 		.4byte	.LASF105
 1912 0d59 01       		.byte	0x1
 1913 0d5a 52       		.byte	0x52
 1914 0d5b 2C000000 		.4byte	0x2c
 1915 0d5f 5D010000 		.4byte	.LLST1
 1916 0d63 20       		.uleb128 0x20
 1917 0d64 E2020000 		.4byte	.LASF35
 1918 0d68 01       		.byte	0x1
 1919 0d69 53       		.byte	0x53
 1920 0d6a 28070000 		.4byte	0x728
 1921 0d6e A2010000 		.4byte	.LLST2
 1922 0d72 20       		.uleb128 0x20
 1923 0d73 46040000 		.4byte	.LASF32
 1924 0d77 01       		.byte	0x1
 1925 0d78 53       		.byte	0x53
 1926 0d79 21010000 		.4byte	0x121
 1927 0d7d C0010000 		.4byte	.LLST3
 1928 0d81 1F       		.uleb128 0x1f
 1929 0d82 706600   		.ascii	"pf\000"
 1930 0d85 01       		.byte	0x1
 1931 0d86 54       		.byte	0x54
 1932 0d87 6D070000 		.4byte	0x76d
 1933 0d8b DE010000 		.4byte	.LLST4
 1934 0d8f 1F       		.uleb128 0x1f
 1935 0d90 61726700 		.ascii	"arg\000"
 1936 0d94 01       		.byte	0x1
 1937 0d95 54       		.byte	0x54
 1938 0d96 29030000 		.4byte	0x329
ARM GAS  /tmp/ccsCUGZH.s 			page 35


 1939 0d9a FE010000 		.4byte	.LLST5
 1940 0d9e 21       		.uleb128 0x21
 1941 0d9f 747000   		.ascii	"tp\000"
 1942 0da2 01       		.byte	0x1
 1943 0da3 55       		.byte	0x55
 1944 0da4 4C020000 		.4byte	0x24c
 1945 0da8 1E020000 		.4byte	.LLST6
 1946 0dac 21       		.uleb128 0x21
 1947 0dad 77737000 		.ascii	"wsp\000"
 1948 0db1 01       		.byte	0x1
 1949 0db2 56       		.byte	0x56
 1950 0db3 29030000 		.4byte	0x329
 1951 0db7 3C020000 		.4byte	.LLST7
 1952 0dbb 23       		.uleb128 0x23
 1953 0dbc 746400   		.ascii	"td\000"
 1954 0dbf 01       		.byte	0x1
 1955 0dc0 5D       		.byte	0x5d
 1956 0dc1 C9070000 		.4byte	0x7c9
 1957 0dc5 02       		.uleb128 0x2
 1958 0dc6 91       		.byte	0x91
 1959 0dc7 58       		.sleb128 -40
 1960 0dc8 24       		.uleb128 0x24
 1961 0dc9 CA0E0000 		.4byte	0xeca
 1962 0dcd 24000000 		.4byte	.LBB34
 1963 0dd1 06000000 		.4byte	.LBE34-.LBB34
 1964 0dd5 01       		.byte	0x1
 1965 0dd6 6C       		.byte	0x6c
 1966 0dd7 070E0000 		.4byte	0xe07
 1967 0ddb 25       		.uleb128 0x25
 1968 0ddc DC0E0000 		.4byte	0xedc
 1969 0de0 24000000 		.4byte	.LBB35
 1970 0de4 06000000 		.4byte	.LBE35-.LBB35
 1971 0de8 11       		.byte	0x11
 1972 0de9 6301     		.2byte	0x163
 1973 0deb 25       		.uleb128 0x25
 1974 0dec E50E0000 		.4byte	0xee5
 1975 0df0 24000000 		.4byte	.LBB36
 1976 0df4 06000000 		.4byte	.LBE36-.LBB36
 1977 0df8 0D       		.byte	0xd
 1978 0df9 6202     		.2byte	0x262
 1979 0dfb 26       		.uleb128 0x26
 1980 0dfc F20E0000 		.4byte	0xef2
 1981 0e00 66020000 		.4byte	.LLST8
 1982 0e04 00       		.byte	0
 1983 0e05 00       		.byte	0
 1984 0e06 00       		.byte	0
 1985 0e07 24       		.uleb128 0x24
 1986 0e08 9A0E0000 		.4byte	0xe9a
 1987 0e0c 3E000000 		.4byte	.LBB38
 1988 0e10 06000000 		.4byte	.LBE38-.LBB38
 1989 0e14 01       		.byte	0x1
 1990 0e15 70       		.byte	0x70
 1991 0e16 500E0000 		.4byte	0xe50
 1992 0e1a 27       		.uleb128 0x27
 1993 0e1b 3E000000 		.4byte	.LBB39
 1994 0e1f 06000000 		.4byte	.LBE39-.LBB39
 1995 0e23 25       		.uleb128 0x25
ARM GAS  /tmp/ccsCUGZH.s 			page 36


 1996 0e24 D30E0000 		.4byte	0xed3
 1997 0e28 3E000000 		.4byte	.LBB40
 1998 0e2c 06000000 		.4byte	.LBE40-.LBB40
 1999 0e30 11       		.byte	0x11
 2000 0e31 7A01     		.2byte	0x17a
 2001 0e33 25       		.uleb128 0x25
 2002 0e34 E50E0000 		.4byte	0xee5
 2003 0e38 3E000000 		.4byte	.LBB41
 2004 0e3c 06000000 		.4byte	.LBE41-.LBB41
 2005 0e40 0D       		.byte	0xd
 2006 0e41 7502     		.2byte	0x275
 2007 0e43 26       		.uleb128 0x26
 2008 0e44 F20E0000 		.4byte	0xef2
 2009 0e48 7B020000 		.4byte	.LLST9
 2010 0e4c 00       		.byte	0
 2011 0e4d 00       		.byte	0
 2012 0e4e 00       		.byte	0
 2013 0e4f 00       		.byte	0
 2014 0e50 28       		.uleb128 0x28
 2015 0e51 10000000 		.4byte	.LVL2
 2016 0e55 210F0000 		.4byte	0xf21
 2017 0e59 700E0000 		.4byte	0xe70
 2018 0e5d 29       		.uleb128 0x29
 2019 0e5e 01       		.uleb128 0x1
 2020 0e5f 50       		.byte	0x50
 2021 0e60 03       		.uleb128 0x3
 2022 0e61 F3       		.byte	0xf3
 2023 0e62 01       		.uleb128 0x1
 2024 0e63 50       		.byte	0x50
 2025 0e64 29       		.uleb128 0x29
 2026 0e65 01       		.uleb128 0x1
 2027 0e66 51       		.byte	0x51
 2028 0e67 02       		.uleb128 0x2
 2029 0e68 74       		.byte	0x74
 2030 0e69 00       		.sleb128 0
 2031 0e6a 29       		.uleb128 0x29
 2032 0e6b 01       		.uleb128 0x1
 2033 0e6c 52       		.byte	0x52
 2034 0e6d 01       		.uleb128 0x1
 2035 0e6e 38       		.byte	0x38
 2036 0e6f 00       		.byte	0
 2037 0e70 28       		.uleb128 0x28
 2038 0e71 30000000 		.4byte	.LVL7
 2039 0e75 0A0F0000 		.4byte	0xf0a
 2040 0e79 840E0000 		.4byte	0xe84
 2041 0e7d 29       		.uleb128 0x29
 2042 0e7e 01       		.uleb128 0x1
 2043 0e7f 50       		.byte	0x50
 2044 0e80 02       		.uleb128 0x2
 2045 0e81 7D       		.byte	0x7d
 2046 0e82 00       		.sleb128 0
 2047 0e83 00       		.byte	0
 2048 0e84 2A       		.uleb128 0x2a
 2049 0e85 3E000000 		.4byte	.LVL9
 2050 0e89 150F0000 		.4byte	0xf15
 2051 0e8d 29       		.uleb128 0x29
 2052 0e8e 01       		.uleb128 0x1
ARM GAS  /tmp/ccsCUGZH.s 			page 37


 2053 0e8f 50       		.byte	0x50
 2054 0e90 02       		.uleb128 0x2
 2055 0e91 74       		.byte	0x74
 2056 0e92 00       		.sleb128 0
 2057 0e93 29       		.uleb128 0x29
 2058 0e94 01       		.uleb128 0x1
 2059 0e95 51       		.byte	0x51
 2060 0e96 01       		.uleb128 0x1
 2061 0e97 30       		.byte	0x30
 2062 0e98 00       		.byte	0
 2063 0e99 00       		.byte	0
 2064 0e9a 2B       		.uleb128 0x2b
 2065 0e9b 30080000 		.4byte	.LASF165
 2066 0e9f 11       		.byte	0x11
 2067 0ea0 6D01     		.2byte	0x16d
 2068 0ea2 03       		.byte	0x3
 2069 0ea3 B50E0000 		.4byte	0xeb5
 2070 0ea7 2C       		.uleb128 0x2c
 2071 0ea8 57050000 		.4byte	.LASF175
 2072 0eac C50E0000 		.4byte	0xec5
 2073 0eb0 30080000 		.4byte	.LASF165
 2074 0eb4 00       		.byte	0
 2075 0eb5 13       		.uleb128 0x13
 2076 0eb6 3A070000 		.4byte	0x73a
 2077 0eba C50E0000 		.4byte	0xec5
 2078 0ebe 14       		.uleb128 0x14
 2079 0ebf 37000000 		.4byte	0x37
 2080 0ec3 0B       		.byte	0xb
 2081 0ec4 00       		.byte	0
 2082 0ec5 05       		.uleb128 0x5
 2083 0ec6 B50E0000 		.4byte	0xeb5
 2084 0eca 2D       		.uleb128 0x2d
 2085 0ecb 6B050000 		.4byte	.LASF162
 2086 0ecf 11       		.byte	0x11
 2087 0ed0 6101     		.2byte	0x161
 2088 0ed2 03       		.byte	0x3
 2089 0ed3 2D       		.uleb128 0x2d
 2090 0ed4 80010000 		.4byte	.LASF163
 2091 0ed8 0D       		.byte	0xd
 2092 0ed9 7202     		.2byte	0x272
 2093 0edb 03       		.byte	0x3
 2094 0edc 2D       		.uleb128 0x2d
 2095 0edd 93000000 		.4byte	.LASF164
 2096 0ee1 0D       		.byte	0xd
 2097 0ee2 5A02     		.2byte	0x25a
 2098 0ee4 03       		.byte	0x3
 2099 0ee5 2B       		.uleb128 0x2b
 2100 0ee6 30070000 		.4byte	.LASF166
 2101 0eea 02       		.byte	0x2
 2102 0eeb EB01     		.2byte	0x1eb
 2103 0eed 03       		.byte	0x3
 2104 0eee FF0E0000 		.4byte	0xeff
 2105 0ef2 2E       		.uleb128 0x2e
 2106 0ef3 71010000 		.4byte	.LASF176
 2107 0ef7 02       		.byte	0x2
 2108 0ef8 EB01     		.2byte	0x1eb
 2109 0efa DF000000 		.4byte	0xdf
ARM GAS  /tmp/ccsCUGZH.s 			page 38


 2110 0efe 00       		.byte	0
 2111 0eff 2F       		.uleb128 0x2f
 2112 0f00 F4070000 		.4byte	.LASF167
 2113 0f04 F4070000 		.4byte	.LASF167
 2114 0f08 16       		.byte	0x16
 2115 0f09 9A       		.byte	0x9a
 2116 0f0a 2F       		.uleb128 0x2f
 2117 0f0b 5B010000 		.4byte	.LASF168
 2118 0f0f 5B010000 		.4byte	.LASF168
 2119 0f13 12       		.byte	0x12
 2120 0f14 E3       		.byte	0xe3
 2121 0f15 30       		.uleb128 0x30
 2122 0f16 93070000 		.4byte	.LASF169
 2123 0f1a 93070000 		.4byte	.LASF169
 2124 0f1e 08       		.byte	0x8
 2125 0f1f D501     		.2byte	0x1d5
 2126 0f21 2F       		.uleb128 0x2f
 2127 0f22 4F070000 		.4byte	.LASF170
 2128 0f26 4F070000 		.4byte	.LASF170
 2129 0f2a 15       		.byte	0x15
 2130 0f2b 7F       		.byte	0x7f
 2131 0f2c 00       		.byte	0
 2132              		.section	.debug_abbrev,"",%progbits
 2133              	.Ldebug_abbrev0:
 2134 0000 01       		.uleb128 0x1
 2135 0001 11       		.uleb128 0x11
 2136 0002 01       		.byte	0x1
 2137 0003 25       		.uleb128 0x25
 2138 0004 0E       		.uleb128 0xe
 2139 0005 13       		.uleb128 0x13
 2140 0006 0B       		.uleb128 0xb
 2141 0007 03       		.uleb128 0x3
 2142 0008 0E       		.uleb128 0xe
 2143 0009 1B       		.uleb128 0x1b
 2144 000a 0E       		.uleb128 0xe
 2145 000b 55       		.uleb128 0x55
 2146 000c 17       		.uleb128 0x17
 2147 000d 11       		.uleb128 0x11
 2148 000e 01       		.uleb128 0x1
 2149 000f 10       		.uleb128 0x10
 2150 0010 17       		.uleb128 0x17
 2151 0011 00       		.byte	0
 2152 0012 00       		.byte	0
 2153 0013 02       		.uleb128 0x2
 2154 0014 24       		.uleb128 0x24
 2155 0015 00       		.byte	0
 2156 0016 0B       		.uleb128 0xb
 2157 0017 0B       		.uleb128 0xb
 2158 0018 3E       		.uleb128 0x3e
 2159 0019 0B       		.uleb128 0xb
 2160 001a 03       		.uleb128 0x3
 2161 001b 08       		.uleb128 0x8
 2162 001c 00       		.byte	0
 2163 001d 00       		.byte	0
 2164 001e 03       		.uleb128 0x3
 2165 001f 16       		.uleb128 0x16
 2166 0020 00       		.byte	0
ARM GAS  /tmp/ccsCUGZH.s 			page 39


 2167 0021 03       		.uleb128 0x3
 2168 0022 0E       		.uleb128 0xe
 2169 0023 3A       		.uleb128 0x3a
 2170 0024 0B       		.uleb128 0xb
 2171 0025 3B       		.uleb128 0x3b
 2172 0026 0B       		.uleb128 0xb
 2173 0027 49       		.uleb128 0x49
 2174 0028 13       		.uleb128 0x13
 2175 0029 00       		.byte	0
 2176 002a 00       		.byte	0
 2177 002b 04       		.uleb128 0x4
 2178 002c 24       		.uleb128 0x24
 2179 002d 00       		.byte	0
 2180 002e 0B       		.uleb128 0xb
 2181 002f 0B       		.uleb128 0xb
 2182 0030 3E       		.uleb128 0x3e
 2183 0031 0B       		.uleb128 0xb
 2184 0032 03       		.uleb128 0x3
 2185 0033 0E       		.uleb128 0xe
 2186 0034 00       		.byte	0
 2187 0035 00       		.byte	0
 2188 0036 05       		.uleb128 0x5
 2189 0037 26       		.uleb128 0x26
 2190 0038 00       		.byte	0
 2191 0039 49       		.uleb128 0x49
 2192 003a 13       		.uleb128 0x13
 2193 003b 00       		.byte	0
 2194 003c 00       		.byte	0
 2195 003d 06       		.uleb128 0x6
 2196 003e 35       		.uleb128 0x35
 2197 003f 00       		.byte	0
 2198 0040 49       		.uleb128 0x49
 2199 0041 13       		.uleb128 0x13
 2200 0042 00       		.byte	0
 2201 0043 00       		.byte	0
 2202 0044 07       		.uleb128 0x7
 2203 0045 13       		.uleb128 0x13
 2204 0046 01       		.byte	0x1
 2205 0047 03       		.uleb128 0x3
 2206 0048 0E       		.uleb128 0xe
 2207 0049 0B       		.uleb128 0xb
 2208 004a 0B       		.uleb128 0xb
 2209 004b 3A       		.uleb128 0x3a
 2210 004c 0B       		.uleb128 0xb
 2211 004d 3B       		.uleb128 0x3b
 2212 004e 0B       		.uleb128 0xb
 2213 004f 01       		.uleb128 0x1
 2214 0050 13       		.uleb128 0x13
 2215 0051 00       		.byte	0
 2216 0052 00       		.byte	0
 2217 0053 08       		.uleb128 0x8
 2218 0054 0D       		.uleb128 0xd
 2219 0055 00       		.byte	0
 2220 0056 03       		.uleb128 0x3
 2221 0057 0E       		.uleb128 0xe
 2222 0058 3A       		.uleb128 0x3a
 2223 0059 0B       		.uleb128 0xb
ARM GAS  /tmp/ccsCUGZH.s 			page 40


 2224 005a 3B       		.uleb128 0x3b
 2225 005b 0B       		.uleb128 0xb
 2226 005c 49       		.uleb128 0x49
 2227 005d 13       		.uleb128 0x13
 2228 005e 38       		.uleb128 0x38
 2229 005f 0B       		.uleb128 0xb
 2230 0060 00       		.byte	0
 2231 0061 00       		.byte	0
 2232 0062 09       		.uleb128 0x9
 2233 0063 0D       		.uleb128 0xd
 2234 0064 00       		.byte	0
 2235 0065 03       		.uleb128 0x3
 2236 0066 08       		.uleb128 0x8
 2237 0067 3A       		.uleb128 0x3a
 2238 0068 0B       		.uleb128 0xb
 2239 0069 3B       		.uleb128 0x3b
 2240 006a 0B       		.uleb128 0xb
 2241 006b 49       		.uleb128 0x49
 2242 006c 13       		.uleb128 0x13
 2243 006d 38       		.uleb128 0x38
 2244 006e 0B       		.uleb128 0xb
 2245 006f 00       		.byte	0
 2246 0070 00       		.byte	0
 2247 0071 0A       		.uleb128 0xa
 2248 0072 0D       		.uleb128 0xd
 2249 0073 00       		.byte	0
 2250 0074 03       		.uleb128 0x3
 2251 0075 08       		.uleb128 0x8
 2252 0076 3A       		.uleb128 0x3a
 2253 0077 0B       		.uleb128 0xb
 2254 0078 3B       		.uleb128 0x3b
 2255 0079 05       		.uleb128 0x5
 2256 007a 49       		.uleb128 0x49
 2257 007b 13       		.uleb128 0x13
 2258 007c 38       		.uleb128 0x38
 2259 007d 0B       		.uleb128 0xb
 2260 007e 00       		.byte	0
 2261 007f 00       		.byte	0
 2262 0080 0B       		.uleb128 0xb
 2263 0081 0D       		.uleb128 0xd
 2264 0082 00       		.byte	0
 2265 0083 03       		.uleb128 0x3
 2266 0084 0E       		.uleb128 0xe
 2267 0085 3A       		.uleb128 0x3a
 2268 0086 0B       		.uleb128 0xb
 2269 0087 3B       		.uleb128 0x3b
 2270 0088 05       		.uleb128 0x5
 2271 0089 49       		.uleb128 0x49
 2272 008a 13       		.uleb128 0x13
 2273 008b 38       		.uleb128 0x38
 2274 008c 0B       		.uleb128 0xb
 2275 008d 00       		.byte	0
 2276 008e 00       		.byte	0
 2277 008f 0C       		.uleb128 0xc
 2278 0090 0F       		.uleb128 0xf
 2279 0091 00       		.byte	0
 2280 0092 0B       		.uleb128 0xb
ARM GAS  /tmp/ccsCUGZH.s 			page 41


 2281 0093 0B       		.uleb128 0xb
 2282 0094 49       		.uleb128 0x49
 2283 0095 13       		.uleb128 0x13
 2284 0096 00       		.byte	0
 2285 0097 00       		.byte	0
 2286 0098 0D       		.uleb128 0xd
 2287 0099 13       		.uleb128 0x13
 2288 009a 01       		.byte	0x1
 2289 009b 03       		.uleb128 0x3
 2290 009c 0E       		.uleb128 0xe
 2291 009d 0B       		.uleb128 0xb
 2292 009e 0B       		.uleb128 0xb
 2293 009f 3A       		.uleb128 0x3a
 2294 00a0 0B       		.uleb128 0xb
 2295 00a1 3B       		.uleb128 0x3b
 2296 00a2 05       		.uleb128 0x5
 2297 00a3 01       		.uleb128 0x1
 2298 00a4 13       		.uleb128 0x13
 2299 00a5 00       		.byte	0
 2300 00a6 00       		.byte	0
 2301 00a7 0E       		.uleb128 0xe
 2302 00a8 15       		.uleb128 0x15
 2303 00a9 01       		.byte	0x1
 2304 00aa 27       		.uleb128 0x27
 2305 00ab 19       		.uleb128 0x19
 2306 00ac 01       		.uleb128 0x1
 2307 00ad 13       		.uleb128 0x13
 2308 00ae 00       		.byte	0
 2309 00af 00       		.byte	0
 2310 00b0 0F       		.uleb128 0xf
 2311 00b1 05       		.uleb128 0x5
 2312 00b2 00       		.byte	0
 2313 00b3 49       		.uleb128 0x49
 2314 00b4 13       		.uleb128 0x13
 2315 00b5 00       		.byte	0
 2316 00b6 00       		.byte	0
 2317 00b7 10       		.uleb128 0x10
 2318 00b8 0F       		.uleb128 0xf
 2319 00b9 00       		.byte	0
 2320 00ba 0B       		.uleb128 0xb
 2321 00bb 0B       		.uleb128 0xb
 2322 00bc 00       		.byte	0
 2323 00bd 00       		.byte	0
 2324 00be 11       		.uleb128 0x11
 2325 00bf 34       		.uleb128 0x34
 2326 00c0 00       		.byte	0
 2327 00c1 03       		.uleb128 0x3
 2328 00c2 0E       		.uleb128 0xe
 2329 00c3 3A       		.uleb128 0x3a
 2330 00c4 0B       		.uleb128 0xb
 2331 00c5 3B       		.uleb128 0x3b
 2332 00c6 05       		.uleb128 0x5
 2333 00c7 49       		.uleb128 0x49
 2334 00c8 13       		.uleb128 0x13
 2335 00c9 3F       		.uleb128 0x3f
 2336 00ca 19       		.uleb128 0x19
 2337 00cb 3C       		.uleb128 0x3c
ARM GAS  /tmp/ccsCUGZH.s 			page 42


 2338 00cc 19       		.uleb128 0x19
 2339 00cd 00       		.byte	0
 2340 00ce 00       		.byte	0
 2341 00cf 12       		.uleb128 0x12
 2342 00d0 34       		.uleb128 0x34
 2343 00d1 00       		.byte	0
 2344 00d2 03       		.uleb128 0x3
 2345 00d3 0E       		.uleb128 0xe
 2346 00d4 3A       		.uleb128 0x3a
 2347 00d5 0B       		.uleb128 0xb
 2348 00d6 3B       		.uleb128 0x3b
 2349 00d7 0B       		.uleb128 0xb
 2350 00d8 49       		.uleb128 0x49
 2351 00d9 13       		.uleb128 0x13
 2352 00da 3F       		.uleb128 0x3f
 2353 00db 19       		.uleb128 0x19
 2354 00dc 3C       		.uleb128 0x3c
 2355 00dd 19       		.uleb128 0x19
 2356 00de 00       		.byte	0
 2357 00df 00       		.byte	0
 2358 00e0 13       		.uleb128 0x13
 2359 00e1 01       		.uleb128 0x1
 2360 00e2 01       		.byte	0x1
 2361 00e3 49       		.uleb128 0x49
 2362 00e4 13       		.uleb128 0x13
 2363 00e5 01       		.uleb128 0x1
 2364 00e6 13       		.uleb128 0x13
 2365 00e7 00       		.byte	0
 2366 00e8 00       		.byte	0
 2367 00e9 14       		.uleb128 0x14
 2368 00ea 21       		.uleb128 0x21
 2369 00eb 00       		.byte	0
 2370 00ec 49       		.uleb128 0x49
 2371 00ed 13       		.uleb128 0x13
 2372 00ee 2F       		.uleb128 0x2f
 2373 00ef 0B       		.uleb128 0xb
 2374 00f0 00       		.byte	0
 2375 00f1 00       		.byte	0
 2376 00f2 15       		.uleb128 0x15
 2377 00f3 13       		.uleb128 0x13
 2378 00f4 01       		.byte	0x1
 2379 00f5 0B       		.uleb128 0xb
 2380 00f6 0B       		.uleb128 0xb
 2381 00f7 3A       		.uleb128 0x3a
 2382 00f8 0B       		.uleb128 0xb
 2383 00f9 3B       		.uleb128 0x3b
 2384 00fa 0B       		.uleb128 0xb
 2385 00fb 01       		.uleb128 0x1
 2386 00fc 13       		.uleb128 0x13
 2387 00fd 00       		.byte	0
 2388 00fe 00       		.byte	0
 2389 00ff 16       		.uleb128 0x16
 2390 0100 17       		.uleb128 0x17
 2391 0101 01       		.byte	0x1
 2392 0102 0B       		.uleb128 0xb
 2393 0103 0B       		.uleb128 0xb
 2394 0104 3A       		.uleb128 0x3a
ARM GAS  /tmp/ccsCUGZH.s 			page 43


 2395 0105 0B       		.uleb128 0xb
 2396 0106 3B       		.uleb128 0x3b
 2397 0107 0B       		.uleb128 0xb
 2398 0108 01       		.uleb128 0x1
 2399 0109 13       		.uleb128 0x13
 2400 010a 00       		.byte	0
 2401 010b 00       		.byte	0
 2402 010c 17       		.uleb128 0x17
 2403 010d 0D       		.uleb128 0xd
 2404 010e 00       		.byte	0
 2405 010f 03       		.uleb128 0x3
 2406 0110 0E       		.uleb128 0xe
 2407 0111 3A       		.uleb128 0x3a
 2408 0112 0B       		.uleb128 0xb
 2409 0113 3B       		.uleb128 0x3b
 2410 0114 0B       		.uleb128 0xb
 2411 0115 49       		.uleb128 0x49
 2412 0116 13       		.uleb128 0x13
 2413 0117 00       		.byte	0
 2414 0118 00       		.byte	0
 2415 0119 18       		.uleb128 0x18
 2416 011a 0D       		.uleb128 0xd
 2417 011b 00       		.byte	0
 2418 011c 03       		.uleb128 0x3
 2419 011d 0E       		.uleb128 0xe
 2420 011e 3A       		.uleb128 0x3a
 2421 011f 0B       		.uleb128 0xb
 2422 0120 3B       		.uleb128 0x3b
 2423 0121 05       		.uleb128 0x5
 2424 0122 49       		.uleb128 0x49
 2425 0123 13       		.uleb128 0x13
 2426 0124 00       		.byte	0
 2427 0125 00       		.byte	0
 2428 0126 19       		.uleb128 0x19
 2429 0127 34       		.uleb128 0x34
 2430 0128 00       		.byte	0
 2431 0129 03       		.uleb128 0x3
 2432 012a 08       		.uleb128 0x8
 2433 012b 3A       		.uleb128 0x3a
 2434 012c 0B       		.uleb128 0xb
 2435 012d 3B       		.uleb128 0x3b
 2436 012e 05       		.uleb128 0x5
 2437 012f 49       		.uleb128 0x49
 2438 0130 13       		.uleb128 0x13
 2439 0131 3F       		.uleb128 0x3f
 2440 0132 19       		.uleb128 0x19
 2441 0133 3C       		.uleb128 0x3c
 2442 0134 19       		.uleb128 0x19
 2443 0135 00       		.byte	0
 2444 0136 00       		.byte	0
 2445 0137 1A       		.uleb128 0x1a
 2446 0138 21       		.uleb128 0x21
 2447 0139 00       		.byte	0
 2448 013a 00       		.byte	0
 2449 013b 00       		.byte	0
 2450 013c 1B       		.uleb128 0x1b
 2451 013d 15       		.uleb128 0x15
ARM GAS  /tmp/ccsCUGZH.s 			page 44


 2452 013e 01       		.byte	0x1
 2453 013f 27       		.uleb128 0x27
 2454 0140 19       		.uleb128 0x19
 2455 0141 49       		.uleb128 0x49
 2456 0142 13       		.uleb128 0x13
 2457 0143 01       		.uleb128 0x1
 2458 0144 13       		.uleb128 0x13
 2459 0145 00       		.byte	0
 2460 0146 00       		.byte	0
 2461 0147 1C       		.uleb128 0x1c
 2462 0148 17       		.uleb128 0x17
 2463 0149 01       		.byte	0x1
 2464 014a 03       		.uleb128 0x3
 2465 014b 0E       		.uleb128 0xe
 2466 014c 0B       		.uleb128 0xb
 2467 014d 0B       		.uleb128 0xb
 2468 014e 3A       		.uleb128 0x3a
 2469 014f 0B       		.uleb128 0xb
 2470 0150 3B       		.uleb128 0x3b
 2471 0151 0B       		.uleb128 0xb
 2472 0152 01       		.uleb128 0x1
 2473 0153 13       		.uleb128 0x13
 2474 0154 00       		.byte	0
 2475 0155 00       		.byte	0
 2476 0156 1D       		.uleb128 0x1d
 2477 0157 16       		.uleb128 0x16
 2478 0158 00       		.byte	0
 2479 0159 03       		.uleb128 0x3
 2480 015a 0E       		.uleb128 0xe
 2481 015b 3A       		.uleb128 0x3a
 2482 015c 0B       		.uleb128 0xb
 2483 015d 3B       		.uleb128 0x3b
 2484 015e 05       		.uleb128 0x5
 2485 015f 49       		.uleb128 0x49
 2486 0160 13       		.uleb128 0x13
 2487 0161 00       		.byte	0
 2488 0162 00       		.byte	0
 2489 0163 1E       		.uleb128 0x1e
 2490 0164 2E       		.uleb128 0x2e
 2491 0165 01       		.byte	0x1
 2492 0166 3F       		.uleb128 0x3f
 2493 0167 19       		.uleb128 0x19
 2494 0168 03       		.uleb128 0x3
 2495 0169 0E       		.uleb128 0xe
 2496 016a 3A       		.uleb128 0x3a
 2497 016b 0B       		.uleb128 0xb
 2498 016c 3B       		.uleb128 0x3b
 2499 016d 0B       		.uleb128 0xb
 2500 016e 27       		.uleb128 0x27
 2501 016f 19       		.uleb128 0x19
 2502 0170 49       		.uleb128 0x49
 2503 0171 13       		.uleb128 0x13
 2504 0172 11       		.uleb128 0x11
 2505 0173 01       		.uleb128 0x1
 2506 0174 12       		.uleb128 0x12
 2507 0175 06       		.uleb128 0x6
 2508 0176 40       		.uleb128 0x40
ARM GAS  /tmp/ccsCUGZH.s 			page 45


 2509 0177 18       		.uleb128 0x18
 2510 0178 9742     		.uleb128 0x2117
 2511 017a 19       		.uleb128 0x19
 2512 017b 01       		.uleb128 0x1
 2513 017c 13       		.uleb128 0x13
 2514 017d 00       		.byte	0
 2515 017e 00       		.byte	0
 2516 017f 1F       		.uleb128 0x1f
 2517 0180 05       		.uleb128 0x5
 2518 0181 00       		.byte	0
 2519 0182 03       		.uleb128 0x3
 2520 0183 08       		.uleb128 0x8
 2521 0184 3A       		.uleb128 0x3a
 2522 0185 0B       		.uleb128 0xb
 2523 0186 3B       		.uleb128 0x3b
 2524 0187 0B       		.uleb128 0xb
 2525 0188 49       		.uleb128 0x49
 2526 0189 13       		.uleb128 0x13
 2527 018a 02       		.uleb128 0x2
 2528 018b 17       		.uleb128 0x17
 2529 018c 00       		.byte	0
 2530 018d 00       		.byte	0
 2531 018e 20       		.uleb128 0x20
 2532 018f 05       		.uleb128 0x5
 2533 0190 00       		.byte	0
 2534 0191 03       		.uleb128 0x3
 2535 0192 0E       		.uleb128 0xe
 2536 0193 3A       		.uleb128 0x3a
 2537 0194 0B       		.uleb128 0xb
 2538 0195 3B       		.uleb128 0x3b
 2539 0196 0B       		.uleb128 0xb
 2540 0197 49       		.uleb128 0x49
 2541 0198 13       		.uleb128 0x13
 2542 0199 02       		.uleb128 0x2
 2543 019a 17       		.uleb128 0x17
 2544 019b 00       		.byte	0
 2545 019c 00       		.byte	0
 2546 019d 21       		.uleb128 0x21
 2547 019e 34       		.uleb128 0x34
 2548 019f 00       		.byte	0
 2549 01a0 03       		.uleb128 0x3
 2550 01a1 08       		.uleb128 0x8
 2551 01a2 3A       		.uleb128 0x3a
 2552 01a3 0B       		.uleb128 0xb
 2553 01a4 3B       		.uleb128 0x3b
 2554 01a5 0B       		.uleb128 0xb
 2555 01a6 49       		.uleb128 0x49
 2556 01a7 13       		.uleb128 0x13
 2557 01a8 02       		.uleb128 0x2
 2558 01a9 17       		.uleb128 0x17
 2559 01aa 00       		.byte	0
 2560 01ab 00       		.byte	0
 2561 01ac 22       		.uleb128 0x22
 2562 01ad 34       		.uleb128 0x34
 2563 01ae 00       		.byte	0
 2564 01af 03       		.uleb128 0x3
 2565 01b0 0E       		.uleb128 0xe
ARM GAS  /tmp/ccsCUGZH.s 			page 46


 2566 01b1 49       		.uleb128 0x49
 2567 01b2 13       		.uleb128 0x13
 2568 01b3 34       		.uleb128 0x34
 2569 01b4 19       		.uleb128 0x19
 2570 01b5 00       		.byte	0
 2571 01b6 00       		.byte	0
 2572 01b7 23       		.uleb128 0x23
 2573 01b8 34       		.uleb128 0x34
 2574 01b9 00       		.byte	0
 2575 01ba 03       		.uleb128 0x3
 2576 01bb 08       		.uleb128 0x8
 2577 01bc 3A       		.uleb128 0x3a
 2578 01bd 0B       		.uleb128 0xb
 2579 01be 3B       		.uleb128 0x3b
 2580 01bf 0B       		.uleb128 0xb
 2581 01c0 49       		.uleb128 0x49
 2582 01c1 13       		.uleb128 0x13
 2583 01c2 02       		.uleb128 0x2
 2584 01c3 18       		.uleb128 0x18
 2585 01c4 00       		.byte	0
 2586 01c5 00       		.byte	0
 2587 01c6 24       		.uleb128 0x24
 2588 01c7 1D       		.uleb128 0x1d
 2589 01c8 01       		.byte	0x1
 2590 01c9 31       		.uleb128 0x31
 2591 01ca 13       		.uleb128 0x13
 2592 01cb 11       		.uleb128 0x11
 2593 01cc 01       		.uleb128 0x1
 2594 01cd 12       		.uleb128 0x12
 2595 01ce 06       		.uleb128 0x6
 2596 01cf 58       		.uleb128 0x58
 2597 01d0 0B       		.uleb128 0xb
 2598 01d1 59       		.uleb128 0x59
 2599 01d2 0B       		.uleb128 0xb
 2600 01d3 01       		.uleb128 0x1
 2601 01d4 13       		.uleb128 0x13
 2602 01d5 00       		.byte	0
 2603 01d6 00       		.byte	0
 2604 01d7 25       		.uleb128 0x25
 2605 01d8 1D       		.uleb128 0x1d
 2606 01d9 01       		.byte	0x1
 2607 01da 31       		.uleb128 0x31
 2608 01db 13       		.uleb128 0x13
 2609 01dc 11       		.uleb128 0x11
 2610 01dd 01       		.uleb128 0x1
 2611 01de 12       		.uleb128 0x12
 2612 01df 06       		.uleb128 0x6
 2613 01e0 58       		.uleb128 0x58
 2614 01e1 0B       		.uleb128 0xb
 2615 01e2 59       		.uleb128 0x59
 2616 01e3 05       		.uleb128 0x5
 2617 01e4 00       		.byte	0
 2618 01e5 00       		.byte	0
 2619 01e6 26       		.uleb128 0x26
 2620 01e7 05       		.uleb128 0x5
 2621 01e8 00       		.byte	0
 2622 01e9 31       		.uleb128 0x31
ARM GAS  /tmp/ccsCUGZH.s 			page 47


 2623 01ea 13       		.uleb128 0x13
 2624 01eb 02       		.uleb128 0x2
 2625 01ec 17       		.uleb128 0x17
 2626 01ed 00       		.byte	0
 2627 01ee 00       		.byte	0
 2628 01ef 27       		.uleb128 0x27
 2629 01f0 0B       		.uleb128 0xb
 2630 01f1 01       		.byte	0x1
 2631 01f2 11       		.uleb128 0x11
 2632 01f3 01       		.uleb128 0x1
 2633 01f4 12       		.uleb128 0x12
 2634 01f5 06       		.uleb128 0x6
 2635 01f6 00       		.byte	0
 2636 01f7 00       		.byte	0
 2637 01f8 28       		.uleb128 0x28
 2638 01f9 898201   		.uleb128 0x4109
 2639 01fc 01       		.byte	0x1
 2640 01fd 11       		.uleb128 0x11
 2641 01fe 01       		.uleb128 0x1
 2642 01ff 31       		.uleb128 0x31
 2643 0200 13       		.uleb128 0x13
 2644 0201 01       		.uleb128 0x1
 2645 0202 13       		.uleb128 0x13
 2646 0203 00       		.byte	0
 2647 0204 00       		.byte	0
 2648 0205 29       		.uleb128 0x29
 2649 0206 8A8201   		.uleb128 0x410a
 2650 0209 00       		.byte	0
 2651 020a 02       		.uleb128 0x2
 2652 020b 18       		.uleb128 0x18
 2653 020c 9142     		.uleb128 0x2111
 2654 020e 18       		.uleb128 0x18
 2655 020f 00       		.byte	0
 2656 0210 00       		.byte	0
 2657 0211 2A       		.uleb128 0x2a
 2658 0212 898201   		.uleb128 0x4109
 2659 0215 01       		.byte	0x1
 2660 0216 11       		.uleb128 0x11
 2661 0217 01       		.uleb128 0x1
 2662 0218 31       		.uleb128 0x31
 2663 0219 13       		.uleb128 0x13
 2664 021a 00       		.byte	0
 2665 021b 00       		.byte	0
 2666 021c 2B       		.uleb128 0x2b
 2667 021d 2E       		.uleb128 0x2e
 2668 021e 01       		.byte	0x1
 2669 021f 03       		.uleb128 0x3
 2670 0220 0E       		.uleb128 0xe
 2671 0221 3A       		.uleb128 0x3a
 2672 0222 0B       		.uleb128 0xb
 2673 0223 3B       		.uleb128 0x3b
 2674 0224 05       		.uleb128 0x5
 2675 0225 27       		.uleb128 0x27
 2676 0226 19       		.uleb128 0x19
 2677 0227 20       		.uleb128 0x20
 2678 0228 0B       		.uleb128 0xb
 2679 0229 01       		.uleb128 0x1
ARM GAS  /tmp/ccsCUGZH.s 			page 48


 2680 022a 13       		.uleb128 0x13
 2681 022b 00       		.byte	0
 2682 022c 00       		.byte	0
 2683 022d 2C       		.uleb128 0x2c
 2684 022e 34       		.uleb128 0x34
 2685 022f 00       		.byte	0
 2686 0230 03       		.uleb128 0x3
 2687 0231 0E       		.uleb128 0xe
 2688 0232 49       		.uleb128 0x49
 2689 0233 13       		.uleb128 0x13
 2690 0234 34       		.uleb128 0x34
 2691 0235 19       		.uleb128 0x19
 2692 0236 1C       		.uleb128 0x1c
 2693 0237 0E       		.uleb128 0xe
 2694 0238 00       		.byte	0
 2695 0239 00       		.byte	0
 2696 023a 2D       		.uleb128 0x2d
 2697 023b 2E       		.uleb128 0x2e
 2698 023c 00       		.byte	0
 2699 023d 03       		.uleb128 0x3
 2700 023e 0E       		.uleb128 0xe
 2701 023f 3A       		.uleb128 0x3a
 2702 0240 0B       		.uleb128 0xb
 2703 0241 3B       		.uleb128 0x3b
 2704 0242 05       		.uleb128 0x5
 2705 0243 27       		.uleb128 0x27
 2706 0244 19       		.uleb128 0x19
 2707 0245 20       		.uleb128 0x20
 2708 0246 0B       		.uleb128 0xb
 2709 0247 00       		.byte	0
 2710 0248 00       		.byte	0
 2711 0249 2E       		.uleb128 0x2e
 2712 024a 05       		.uleb128 0x5
 2713 024b 00       		.byte	0
 2714 024c 03       		.uleb128 0x3
 2715 024d 0E       		.uleb128 0xe
 2716 024e 3A       		.uleb128 0x3a
 2717 024f 0B       		.uleb128 0xb
 2718 0250 3B       		.uleb128 0x3b
 2719 0251 05       		.uleb128 0x5
 2720 0252 49       		.uleb128 0x49
 2721 0253 13       		.uleb128 0x13
 2722 0254 00       		.byte	0
 2723 0255 00       		.byte	0
 2724 0256 2F       		.uleb128 0x2f
 2725 0257 2E       		.uleb128 0x2e
 2726 0258 00       		.byte	0
 2727 0259 3F       		.uleb128 0x3f
 2728 025a 19       		.uleb128 0x19
 2729 025b 3C       		.uleb128 0x3c
 2730 025c 19       		.uleb128 0x19
 2731 025d 6E       		.uleb128 0x6e
 2732 025e 0E       		.uleb128 0xe
 2733 025f 03       		.uleb128 0x3
 2734 0260 0E       		.uleb128 0xe
 2735 0261 3A       		.uleb128 0x3a
 2736 0262 0B       		.uleb128 0xb
ARM GAS  /tmp/ccsCUGZH.s 			page 49


 2737 0263 3B       		.uleb128 0x3b
 2738 0264 0B       		.uleb128 0xb
 2739 0265 00       		.byte	0
 2740 0266 00       		.byte	0
 2741 0267 30       		.uleb128 0x30
 2742 0268 2E       		.uleb128 0x2e
 2743 0269 00       		.byte	0
 2744 026a 3F       		.uleb128 0x3f
 2745 026b 19       		.uleb128 0x19
 2746 026c 3C       		.uleb128 0x3c
 2747 026d 19       		.uleb128 0x19
 2748 026e 6E       		.uleb128 0x6e
 2749 026f 0E       		.uleb128 0xe
 2750 0270 03       		.uleb128 0x3
 2751 0271 0E       		.uleb128 0xe
 2752 0272 3A       		.uleb128 0x3a
 2753 0273 0B       		.uleb128 0xb
 2754 0274 3B       		.uleb128 0x3b
 2755 0275 05       		.uleb128 0x5
 2756 0276 00       		.byte	0
 2757 0277 00       		.byte	0
 2758 0278 00       		.byte	0
 2759              		.section	.debug_loc,"",%progbits
 2760              	.Ldebug_loc0:
 2761              	.LLST10:
 2762 0000 00000000 		.4byte	.LVL13
 2763 0004 0F000000 		.4byte	.LVL14-1
 2764 0008 0100     		.2byte	0x1
 2765 000a 50       		.byte	0x50
 2766 000b 0F000000 		.4byte	.LVL14-1
 2767 000f 50000000 		.4byte	.LFE295
 2768 0013 0100     		.2byte	0x1
 2769 0015 55       		.byte	0x55
 2770 0016 00000000 		.4byte	0
 2771 001a 00000000 		.4byte	0
 2772              	.LLST11:
 2773 001e 00000000 		.4byte	.LVL13
 2774 0022 0F000000 		.4byte	.LVL14-1
 2775 0026 0100     		.2byte	0x1
 2776 0028 51       		.byte	0x51
 2777 0029 0F000000 		.4byte	.LVL14-1
 2778 002d 18000000 		.4byte	.LVL15
 2779 0031 0100     		.2byte	0x1
 2780 0033 54       		.byte	0x54
 2781 0034 18000000 		.4byte	.LVL15
 2782 0038 2F000000 		.4byte	.LVL19-1
 2783 003c 0200     		.2byte	0x2
 2784 003e 7D       		.byte	0x7d
 2785 003f 00       		.sleb128 0
 2786 0040 2F000000 		.4byte	.LVL19-1
 2787 0044 4C000000 		.4byte	.LVL23
 2788 0048 0400     		.2byte	0x4
 2789 004a F3       		.byte	0xf3
 2790 004b 01       		.uleb128 0x1
 2791 004c 51       		.byte	0x51
 2792 004d 9F       		.byte	0x9f
 2793 004e 4C000000 		.4byte	.LVL23
ARM GAS  /tmp/ccsCUGZH.s 			page 50


 2794 0052 4E000000 		.4byte	.LVL24
 2795 0056 0100     		.2byte	0x1
 2796 0058 54       		.byte	0x54
 2797 0059 4E000000 		.4byte	.LVL24
 2798 005d 50000000 		.4byte	.LFE295
 2799 0061 0400     		.2byte	0x4
 2800 0063 F3       		.byte	0xf3
 2801 0064 01       		.uleb128 0x1
 2802 0065 51       		.byte	0x51
 2803 0066 9F       		.byte	0x9f
 2804 0067 00000000 		.4byte	0
 2805 006b 00000000 		.4byte	0
 2806              	.LLST12:
 2807 006f 00000000 		.4byte	.LVL13
 2808 0073 0F000000 		.4byte	.LVL14-1
 2809 0077 0100     		.2byte	0x1
 2810 0079 52       		.byte	0x52
 2811 007a 0F000000 		.4byte	.LVL14-1
 2812 007e 50000000 		.4byte	.LFE295
 2813 0082 0100     		.2byte	0x1
 2814 0084 57       		.byte	0x57
 2815 0085 00000000 		.4byte	0
 2816 0089 00000000 		.4byte	0
 2817              	.LLST13:
 2818 008d 00000000 		.4byte	.LVL13
 2819 0091 0F000000 		.4byte	.LVL14-1
 2820 0095 0100     		.2byte	0x1
 2821 0097 53       		.byte	0x53
 2822 0098 0F000000 		.4byte	.LVL14-1
 2823 009c 50000000 		.4byte	.LFE295
 2824 00a0 0100     		.2byte	0x1
 2825 00a2 56       		.byte	0x56
 2826 00a3 00000000 		.4byte	0
 2827 00a7 00000000 		.4byte	0
 2828              	.LLST14:
 2829 00ab 00000000 		.4byte	.LVL13
 2830 00af 4C000000 		.4byte	.LVL23
 2831 00b3 0200     		.2byte	0x2
 2832 00b5 91       		.byte	0x91
 2833 00b6 00       		.sleb128 0
 2834 00b7 4C000000 		.4byte	.LVL23
 2835 00bb 50000000 		.4byte	.LFE295
 2836 00bf 0200     		.2byte	0x2
 2837 00c1 91       		.byte	0x91
 2838 00c2 00       		.sleb128 0
 2839 00c3 00000000 		.4byte	0
 2840 00c7 00000000 		.4byte	0
 2841              	.LLST15:
 2842 00cb 3C000000 		.4byte	.LVL20
 2843 00cf 3F000000 		.4byte	.LVL21-1
 2844 00d3 0100     		.2byte	0x1
 2845 00d5 50       		.byte	0x50
 2846 00d6 3F000000 		.4byte	.LVL21-1
 2847 00da 46000000 		.4byte	.LVL22
 2848 00de 0100     		.2byte	0x1
 2849 00e0 54       		.byte	0x54
 2850 00e1 00000000 		.4byte	0
ARM GAS  /tmp/ccsCUGZH.s 			page 51


 2851 00e5 00000000 		.4byte	0
 2852              	.LLST16:
 2853 00e9 10000000 		.4byte	.LVL14
 2854 00ed 2C000000 		.4byte	.LVL18
 2855 00f1 0100     		.2byte	0x1
 2856 00f3 50       		.byte	0x50
 2857 00f4 2C000000 		.4byte	.LVL18
 2858 00f8 2F000000 		.4byte	.LVL19-1
 2859 00fc 0200     		.2byte	0x2
 2860 00fe 91       		.byte	0x91
 2861 00ff 54       		.sleb128 -44
 2862 0100 4C000000 		.4byte	.LVL23
 2863 0104 50000000 		.4byte	.LFE295
 2864 0108 0100     		.2byte	0x1
 2865 010a 50       		.byte	0x50
 2866 010b 00000000 		.4byte	0
 2867 010f 00000000 		.4byte	0
 2868              	.LLST17:
 2869 0113 1C000000 		.4byte	.LVL16
 2870 0117 2A000000 		.4byte	.LVL17
 2871 011b 0300     		.2byte	0x3
 2872 011d 08       		.byte	0x8
 2873 011e 20       		.byte	0x20
 2874 011f 9F       		.byte	0x9f
 2875 0120 00000000 		.4byte	0
 2876 0124 00000000 		.4byte	0
 2877              	.LLST18:
 2878 0128 40000000 		.4byte	.LVL21
 2879 012c 46000000 		.4byte	.LVL22
 2880 0130 0200     		.2byte	0x2
 2881 0132 30       		.byte	0x30
 2882 0133 9F       		.byte	0x9f
 2883 0134 00000000 		.4byte	0
 2884 0138 00000000 		.4byte	0
 2885              	.LLST0:
 2886 013c 00000000 		.4byte	.LVL0
 2887 0140 0F000000 		.4byte	.LVL2-1
 2888 0144 0100     		.2byte	0x1
 2889 0146 50       		.byte	0x50
 2890 0147 0F000000 		.4byte	.LVL2-1
 2891 014b 4E000000 		.4byte	.LFE294
 2892 014f 0400     		.2byte	0x4
 2893 0151 F3       		.byte	0xf3
 2894 0152 01       		.uleb128 0x1
 2895 0153 50       		.byte	0x50
 2896 0154 9F       		.byte	0x9f
 2897 0155 00000000 		.4byte	0
 2898 0159 00000000 		.4byte	0
 2899              	.LLST1:
 2900 015d 00000000 		.4byte	.LVL0
 2901 0161 0F000000 		.4byte	.LVL2-1
 2902 0165 0100     		.2byte	0x1
 2903 0167 51       		.byte	0x51
 2904 0168 0F000000 		.4byte	.LVL2-1
 2905 016c 18000000 		.4byte	.LVL3
 2906 0170 0100     		.2byte	0x1
 2907 0172 54       		.byte	0x54
ARM GAS  /tmp/ccsCUGZH.s 			page 52


 2908 0173 18000000 		.4byte	.LVL3
 2909 0177 4A000000 		.4byte	.LVL11
 2910 017b 0400     		.2byte	0x4
 2911 017d F3       		.byte	0xf3
 2912 017e 01       		.uleb128 0x1
 2913 017f 51       		.byte	0x51
 2914 0180 9F       		.byte	0x9f
 2915 0181 4A000000 		.4byte	.LVL11
 2916 0185 4C000000 		.4byte	.LVL12
 2917 0189 0100     		.2byte	0x1
 2918 018b 54       		.byte	0x54
 2919 018c 4C000000 		.4byte	.LVL12
 2920 0190 4E000000 		.4byte	.LFE294
 2921 0194 0400     		.2byte	0x4
 2922 0196 F3       		.byte	0xf3
 2923 0197 01       		.uleb128 0x1
 2924 0198 51       		.byte	0x51
 2925 0199 9F       		.byte	0x9f
 2926 019a 00000000 		.4byte	0
 2927 019e 00000000 		.4byte	0
 2928              	.LLST2:
 2929 01a2 00000000 		.4byte	.LVL0
 2930 01a6 08000000 		.4byte	.LVL1
 2931 01aa 0100     		.2byte	0x1
 2932 01ac 52       		.byte	0x52
 2933 01ad 08000000 		.4byte	.LVL1
 2934 01b1 4E000000 		.4byte	.LFE294
 2935 01b5 0100     		.2byte	0x1
 2936 01b7 56       		.byte	0x56
 2937 01b8 00000000 		.4byte	0
 2938 01bc 00000000 		.4byte	0
 2939              	.LLST3:
 2940 01c0 00000000 		.4byte	.LVL0
 2941 01c4 0F000000 		.4byte	.LVL2-1
 2942 01c8 0100     		.2byte	0x1
 2943 01ca 53       		.byte	0x53
 2944 01cb 0F000000 		.4byte	.LVL2-1
 2945 01cf 4E000000 		.4byte	.LFE294
 2946 01d3 0100     		.2byte	0x1
 2947 01d5 55       		.byte	0x55
 2948 01d6 00000000 		.4byte	0
 2949 01da 00000000 		.4byte	0
 2950              	.LLST4:
 2951 01de 00000000 		.4byte	.LVL0
 2952 01e2 4A000000 		.4byte	.LVL11
 2953 01e6 0200     		.2byte	0x2
 2954 01e8 91       		.byte	0x91
 2955 01e9 00       		.sleb128 0
 2956 01ea 4A000000 		.4byte	.LVL11
 2957 01ee 4E000000 		.4byte	.LFE294
 2958 01f2 0200     		.2byte	0x2
 2959 01f4 91       		.byte	0x91
 2960 01f5 00       		.sleb128 0
 2961 01f6 00000000 		.4byte	0
 2962 01fa 00000000 		.4byte	0
 2963              	.LLST5:
 2964 01fe 00000000 		.4byte	.LVL0
ARM GAS  /tmp/ccsCUGZH.s 			page 53


 2965 0202 4A000000 		.4byte	.LVL11
 2966 0206 0200     		.2byte	0x2
 2967 0208 91       		.byte	0x91
 2968 0209 04       		.sleb128 4
 2969 020a 4A000000 		.4byte	.LVL11
 2970 020e 4E000000 		.4byte	.LFE294
 2971 0212 0200     		.2byte	0x2
 2972 0214 91       		.byte	0x91
 2973 0215 04       		.sleb128 4
 2974 0216 00000000 		.4byte	0
 2975 021a 00000000 		.4byte	0
 2976              	.LLST6:
 2977 021e 3A000000 		.4byte	.LVL8
 2978 0222 3D000000 		.4byte	.LVL9-1
 2979 0226 0100     		.2byte	0x1
 2980 0228 50       		.byte	0x50
 2981 0229 3D000000 		.4byte	.LVL9-1
 2982 022d 44000000 		.4byte	.LVL10
 2983 0231 0100     		.2byte	0x1
 2984 0233 54       		.byte	0x54
 2985 0234 00000000 		.4byte	0
 2986 0238 00000000 		.4byte	0
 2987              	.LLST7:
 2988 023c 10000000 		.4byte	.LVL2
 2989 0240 2C000000 		.4byte	.LVL6
 2990 0244 0100     		.2byte	0x1
 2991 0246 50       		.byte	0x50
 2992 0247 2C000000 		.4byte	.LVL6
 2993 024b 2F000000 		.4byte	.LVL7-1
 2994 024f 0200     		.2byte	0x2
 2995 0251 91       		.byte	0x91
 2996 0252 5C       		.sleb128 -36
 2997 0253 4A000000 		.4byte	.LVL11
 2998 0257 4E000000 		.4byte	.LFE294
 2999 025b 0100     		.2byte	0x1
 3000 025d 50       		.byte	0x50
 3001 025e 00000000 		.4byte	0
 3002 0262 00000000 		.4byte	0
 3003              	.LLST8:
 3004 0266 1C000000 		.4byte	.LVL4
 3005 026a 2A000000 		.4byte	.LVL5
 3006 026e 0300     		.2byte	0x3
 3007 0270 08       		.byte	0x8
 3008 0271 20       		.byte	0x20
 3009 0272 9F       		.byte	0x9f
 3010 0273 00000000 		.4byte	0
 3011 0277 00000000 		.4byte	0
 3012              	.LLST9:
 3013 027b 3E000000 		.4byte	.LVL9
 3014 027f 44000000 		.4byte	.LVL10
 3015 0283 0200     		.2byte	0x2
 3016 0285 30       		.byte	0x30
 3017 0286 9F       		.byte	0x9f
 3018 0287 00000000 		.4byte	0
 3019 028b 00000000 		.4byte	0
 3020              		.section	.debug_aranges,"",%progbits
 3021 0000 24000000 		.4byte	0x24
ARM GAS  /tmp/ccsCUGZH.s 			page 54


 3022 0004 0200     		.2byte	0x2
 3023 0006 00000000 		.4byte	.Ldebug_info0
 3024 000a 04       		.byte	0x4
 3025 000b 00       		.byte	0
 3026 000c 0000     		.2byte	0
 3027 000e 0000     		.2byte	0
 3028 0010 00000000 		.4byte	.LFB294
 3029 0014 4E000000 		.4byte	.LFE294-.LFB294
 3030 0018 00000000 		.4byte	.LFB295
 3031 001c 50000000 		.4byte	.LFE295-.LFB295
 3032 0020 00000000 		.4byte	0
 3033 0024 00000000 		.4byte	0
 3034              		.section	.debug_ranges,"",%progbits
 3035              	.Ldebug_ranges0:
 3036 0000 00000000 		.4byte	.LFB294
 3037 0004 4E000000 		.4byte	.LFE294
 3038 0008 00000000 		.4byte	.LFB295
 3039 000c 50000000 		.4byte	.LFE295
 3040 0010 00000000 		.4byte	0
 3041 0014 00000000 		.4byte	0
 3042              		.section	.debug_line,"",%progbits
 3043              	.Ldebug_line0:
 3044 0000 B7030000 		.section	.debug_str,"MS",%progbits,1
 3044      02004403 
 3044      00000201 
 3044      FB0E0D00 
 3044      01010101 
 3045              	.LASF98:
 3046 0000 7466756E 		.ascii	"tfunc_t\000"
 3046      635F7400 
 3047              	.LASF54:
 3048 0008 72656164 		.ascii	"ready_list_t\000"
 3048      795F6C69 
 3048      73745F74 
 3048      00
 3049              	.LASF4:
 3050 0015 73697A65 		.ascii	"size_t\000"
 3050      5F7400
 3051              	.LASF50:
 3052 001c 6E657874 		.ascii	"next\000"
 3052      00
 3053              	.LASF60:
 3054 0021 64656C74 		.ascii	"delta\000"
 3054      6100
 3055              	.LASF85:
 3056 0027 7264796D 		.ascii	"rdymsg\000"
 3056      736700
 3057              	.LASF101:
 3058 002e 66756E63 		.ascii	"funcp\000"
 3058      7000
 3059              	.LASF20:
 3060 0034 75696E74 		.ascii	"uint64_t\000"
 3060      36345F74 
 3060      00
 3061              	.LASF5:
 3062 003d 5F5F7569 		.ascii	"__uint8_t\000"
 3062      6E74385F 
ARM GAS  /tmp/ccsCUGZH.s 			page 55


 3062      7400
 3063              	.LASF53:
 3064 0047 70726576 		.ascii	"prev\000"
 3064      00
 3065              	.LASF82:
 3066 004c 706F7274 		.ascii	"port_intctx\000"
 3066      5F696E74 
 3066      63747800 
 3067              	.LASF138:
 3068 0058 70616765 		.ascii	"pages\000"
 3068      7300
 3069              	.LASF65:
 3070 005e 73797374 		.ascii	"system_debug_t\000"
 3070      656D5F64 
 3070      65627567 
 3070      5F7400
 3071              	.LASF133:
 3072 006d 70726F76 		.ascii	"provider\000"
 3072      69646572 
 3072      00
 3073              	.LASF102:
 3074 0076 74687265 		.ascii	"thread_descriptor_t\000"
 3074      61645F64 
 3074      65736372 
 3074      6970746F 
 3074      725F7400 
 3075              	.LASF152:
 3076 008a 73656D5F 		.ascii	"sem_list\000"
 3076      6C697374 
 3076      00
 3077              	.LASF164:
 3078 0093 706F7274 		.ascii	"port_lock\000"
 3078      5F6C6F63 
 3078      6B00
 3079              	.LASF81:
 3080 009d 706F7274 		.ascii	"port_context\000"
 3080      5F636F6E 
 3080      74657874 
 3080      00
 3081              	.LASF125:
 3082 00aa 6D656D67 		.ascii	"memgetfunc_t\000"
 3082      65746675 
 3082      6E635F74 
 3082      00
 3083              	.LASF100:
 3084 00b7 77656E64 		.ascii	"wend\000"
 3084      00
 3085              	.LASF15:
 3086 00bc 6C6F6E67 		.ascii	"long long unsigned int\000"
 3086      206C6F6E 
 3086      6720756E 
 3086      7369676E 
 3086      65642069 
 3087              	.LASF86:
 3088 00d3 65786974 		.ascii	"exitcode\000"
 3088      636F6465 
 3088      00
ARM GAS  /tmp/ccsCUGZH.s 			page 56


 3089              	.LASF72:
 3090 00dc 6D61696E 		.ascii	"mainthread\000"
 3090      74687265 
 3090      616400
 3091              	.LASF89:
 3092 00e7 73656E74 		.ascii	"sentmsg\000"
 3092      6D736700 
 3093              	.LASF62:
 3094 00ef 76697274 		.ascii	"virtual_timers_list_t\000"
 3094      75616C5F 
 3094      74696D65 
 3094      72735F6C 
 3094      6973745F 
 3095              	.LASF75:
 3096 0105 49544D5F 		.ascii	"ITM_RxBuffer\000"
 3096      52784275 
 3096      66666572 
 3096      00
 3097              	.LASF161:
 3098 0112 68656170 		.ascii	"heapp\000"
 3098      7000
 3099              	.LASF145:
 3100 0118 64796E5F 		.ascii	"dyn_element_t\000"
 3100      656C656D 
 3100      656E745F 
 3100      7400
 3101              	.LASF136:
 3102 0126 66726565 		.ascii	"free\000"
 3102      00
 3103              	.LASF52:
 3104 012b 63685F74 		.ascii	"ch_threads_queue\000"
 3104      68726561 
 3104      64735F71 
 3104      75657565 
 3104      00
 3105              	.LASF1:
 3106 013c 6C6F6E67 		.ascii	"long long int\000"
 3106      206C6F6E 
 3106      6720696E 
 3106      7400
 3107              	.LASF3:
 3108 014a 7369676E 		.ascii	"signed char\000"
 3108      65642063 
 3108      68617200 
 3109              	.LASF105:
 3110 0156 73697A65 		.ascii	"size\000"
 3110      00
 3111              	.LASF168:
 3112 015b 63685468 		.ascii	"chThdCreateSuspendedI\000"
 3112      64437265 
 3112      61746553 
 3112      75737065 
 3112      6E646564 
 3113              	.LASF176:
 3114 0171 62617365 		.ascii	"basePri\000"
 3114      50726900 
 3115              	.LASF71:
ARM GAS  /tmp/ccsCUGZH.s 			page 57


 3116 0179 76746C69 		.ascii	"vtlist\000"
 3116      737400
 3117              	.LASF163:
 3118 0180 706F7274 		.ascii	"port_unlock\000"
 3118      5F756E6C 
 3118      6F636B00 
 3119              	.LASF41:
 3120 018c 6D736771 		.ascii	"msgqueue\000"
 3120      75657565 
 3120      00
 3121              	.LASF37:
 3122 0195 73746174 		.ascii	"state\000"
 3122      6500
 3123              	.LASF11:
 3124 019b 6C6F6E67 		.ascii	"long int\000"
 3124      20696E74 
 3124      00
 3125              	.LASF160:
 3126 01a4 63685468 		.ascii	"chThdCreateFromHeap\000"
 3126      64437265 
 3126      61746546 
 3126      726F6D48 
 3126      65617000 
 3127              	.LASF23:
 3128 01b8 74737461 		.ascii	"tstate_t\000"
 3128      74655F74 
 3128      00
 3129              	.LASF61:
 3130 01c1 66756E63 		.ascii	"func\000"
 3130      00
 3131              	.LASF131:
 3132 01c6 6D656D6F 		.ascii	"memory_heap_t\000"
 3132      72795F68 
 3132      6561705F 
 3132      7400
 3133              	.LASF121:
 3134 01d4 63686465 		.ascii	"chdebug_t\000"
 3134      6275675F 
 3134      7400
 3135              	.LASF119:
 3136 01de 6F66665F 		.ascii	"off_preempt\000"
 3136      70726565 
 3136      6D707400 
 3137              	.LASF135:
 3138 01ea 68656170 		.ascii	"heap_header_t\000"
 3138      5F686561 
 3138      6465725F 
 3138      7400
 3139              	.LASF12:
 3140 01f8 5F5F7569 		.ascii	"__uint32_t\000"
 3140      6E743332 
 3140      5F7400
 3141              	.LASF79:
 3142 0203 72656761 		.ascii	"regarm_t\000"
 3142      726D5F74 
 3142      00
 3143              	.LASF154:
ARM GAS  /tmp/ccsCUGZH.s 			page 58


 3144 020c 6D62785F 		.ascii	"mbx_list\000"
 3144      6C697374 
 3144      00
 3145              	.LASF66:
 3146 0215 63685F73 		.ascii	"ch_system_debug\000"
 3146      79737465 
 3146      6D5F6465 
 3146      62756700 
 3147              	.LASF40:
 3148 0225 77616974 		.ascii	"waiting\000"
 3148      696E6700 
 3149              	.LASF70:
 3150 022d 726C6973 		.ascii	"rlist\000"
 3150      7400
 3151              	.LASF104:
 3152 0233 7A65726F 		.ascii	"zero\000"
 3152      00
 3153              	.LASF123:
 3154 0238 6D757465 		.ascii	"mutex_t\000"
 3154      785F7400 
 3155              	.LASF142:
 3156 0240 616C6967 		.ascii	"align\000"
 3156      6E00
 3157              	.LASF74:
 3158 0246 73797369 		.ascii	"sysinterval_t\000"
 3158      6E746572 
 3158      76616C5F 
 3158      7400
 3159              	.LASF28:
 3160 0254 636E745F 		.ascii	"cnt_t\000"
 3160      7400
 3161              	.LASF0:
 3162 025a 756E7369 		.ascii	"unsigned int\000"
 3162      676E6564 
 3162      20696E74 
 3162      00
 3163              	.LASF17:
 3164 0267 75696E74 		.ascii	"uint16_t\000"
 3164      31365F74 
 3164      00
 3165              	.LASF76:
 3166 0270 53797374 		.ascii	"SystemCoreClock\000"
 3166      656D436F 
 3166      7265436C 
 3166      6F636B00 
 3167              	.LASF90:
 3168 0280 77747365 		.ascii	"wtsemp\000"
 3168      6D7000
 3169              	.LASF88:
 3170 0287 77747472 		.ascii	"wttrp\000"
 3170      7000
 3171              	.LASF122:
 3172 028d 63685F64 		.ascii	"ch_debug\000"
 3172      65627567 
 3172      00
 3173              	.LASF143:
 3174 0296 6D656D6F 		.ascii	"memory_pool_t\000"
ARM GAS  /tmp/ccsCUGZH.s 			page 59


 3174      72795F70 
 3174      6F6F6C5F 
 3174      7400
 3175              	.LASF31:
 3176 02a4 71756575 		.ascii	"queue\000"
 3176      6500
 3177              	.LASF45:
 3178 02aa 6D706F6F 		.ascii	"mpool\000"
 3178      6C00
 3179              	.LASF118:
 3180 02b0 6F66665F 		.ascii	"off_refs\000"
 3180      72656673 
 3180      00
 3181              	.LASF151:
 3182 02b9 6275665F 		.ascii	"buf_list\000"
 3182      6C697374 
 3182      00
 3183              	.LASF48:
 3184 02c2 63685F74 		.ascii	"ch_thread\000"
 3184      68726561 
 3184      6400
 3185              	.LASF26:
 3186 02cc 6D73675F 		.ascii	"msg_t\000"
 3186      7400
 3187              	.LASF29:
 3188 02d2 75636E74 		.ascii	"ucnt_t\000"
 3188      5F7400
 3189              	.LASF42:
 3190 02d9 6570656E 		.ascii	"epending\000"
 3190      64696E67 
 3190      00
 3191              	.LASF35:
 3192 02e2 6E616D65 		.ascii	"name\000"
 3192      00
 3193              	.LASF68:
 3194 02e7 63685F73 		.ascii	"ch_system_t\000"
 3194      79737465 
 3194      6D5F7400 
 3195              	.LASF111:
 3196 02f3 6F66665F 		.ascii	"off_ctx\000"
 3196      63747800 
 3197              	.LASF22:
 3198 02fb 746D6F64 		.ascii	"tmode_t\000"
 3198      655F7400 
 3199              	.LASF55:
 3200 0303 63685F72 		.ascii	"ch_ready_list\000"
 3200      65616479 
 3200      5F6C6973 
 3200      7400
 3201              	.LASF27:
 3202 0311 6576656E 		.ascii	"eventmask_t\000"
 3202      746D6173 
 3202      6B5F7400 
 3203              	.LASF77:
 3204 031d 41484250 		.ascii	"AHBPrescTable\000"
 3204      72657363 
 3204      5461626C 
ARM GAS  /tmp/ccsCUGZH.s 			page 60


 3204      6500
 3205              	.LASF128:
 3206 032b 656E646D 		.ascii	"endmem\000"
 3206      656D00
 3207              	.LASF10:
 3208 0332 5F5F696E 		.ascii	"__int32_t\000"
 3208      7433325F 
 3208      7400
 3209              	.LASF80:
 3210 033c 73746B61 		.ascii	"stkalign_t\000"
 3210      6C69676E 
 3210      5F7400
 3211              	.LASF33:
 3212 0347 6E657765 		.ascii	"newer\000"
 3212      7200
 3213              	.LASF44:
 3214 034d 7265616C 		.ascii	"realprio\000"
 3214      7072696F 
 3214      00
 3215              	.LASF106:
 3216 0356 76657273 		.ascii	"version\000"
 3216      696F6E00 
 3217              	.LASF21:
 3218 035e 7274636E 		.ascii	"rtcnt_t\000"
 3218      745F7400 
 3219              	.LASF46:
 3220 0366 74687265 		.ascii	"thread_reference_t\000"
 3220      61645F72 
 3220      65666572 
 3220      656E6365 
 3220      5F7400
 3221              	.LASF63:
 3222 0379 63685F76 		.ascii	"ch_virtual_timers_list\000"
 3222      69727475 
 3222      616C5F74 
 3222      696D6572 
 3222      735F6C69 
 3223              	.LASF2:
 3224 0390 6C6F6E67 		.ascii	"long double\000"
 3224      20646F75 
 3224      626C6500 
 3225              	.LASF146:
 3226 039c 63685F64 		.ascii	"ch_dyn_list\000"
 3226      796E5F6C 
 3226      69737400 
 3227              	.LASF112:
 3228 03a8 6F66665F 		.ascii	"off_newer\000"
 3228      6E657765 
 3228      7200
 3229              	.LASF78:
 3230 03b2 41504250 		.ascii	"APBPrescTable\000"
 3230      72657363 
 3230      5461626C 
 3230      6500
 3231              	.LASF159:
 3232 03c0 63685468 		.ascii	"chThdCreateFromMemoryPool\000"
 3232      64437265 
ARM GAS  /tmp/ccsCUGZH.s 			page 61


 3232      61746546 
 3232      726F6D4D 
 3232      656D6F72 
 3233              	.LASF173:
 3234 03da 2F686F6D 		.ascii	"/home/tongcheng/Downloads/RM2019_Power_Runes-master"
 3234      652F746F 
 3234      6E676368 
 3234      656E672F 
 3234      446F776E 
 3235 040d 2F524D32 		.ascii	"/RM2019_Power_Runes\000"
 3235      3031395F 
 3235      506F7765 
 3235      725F5275 
 3235      6E657300 
 3236              	.LASF99:
 3237 0421 77626173 		.ascii	"wbase\000"
 3237      6500
 3238              	.LASF84:
 3239 0427 746D5F63 		.ascii	"tm_calibration_t\000"
 3239      616C6962 
 3239      72617469 
 3239      6F6E5F74 
 3239      00
 3240              	.LASF126:
 3241 0438 6D656D67 		.ascii	"memgetfunc2_t\000"
 3241      65746675 
 3241      6E63325F 
 3241      7400
 3242              	.LASF32:
 3243 0446 7072696F 		.ascii	"prio\000"
 3243      00
 3244              	.LASF153:
 3245 044b 73656D5F 		.ascii	"sem_pool\000"
 3245      706F6F6C 
 3245      00
 3246              	.LASF56:
 3247 0454 63757272 		.ascii	"current\000"
 3247      656E7400 
 3248              	.LASF14:
 3249 045c 5F5F7569 		.ascii	"__uint64_t\000"
 3249      6E743634 
 3249      5F7400
 3250              	.LASF129:
 3251 0467 6D656D63 		.ascii	"memcore_t\000"
 3251      6F72655F 
 3251      7400
 3252              	.LASF137:
 3253 0471 75736564 		.ascii	"used\000"
 3253      00
 3254              	.LASF24:
 3255 0476 74726566 		.ascii	"trefs_t\000"
 3255      735F7400 
 3256              	.LASF39:
 3257 047e 72656673 		.ascii	"refs\000"
 3257      00
 3258              	.LASF58:
 3259 0483 76697274 		.ascii	"virtual_timer_t\000"
ARM GAS  /tmp/ccsCUGZH.s 			page 62


 3259      75616C5F 
 3259      74696D65 
 3259      725F7400 
 3260              	.LASF144:
 3261 0493 63685F64 		.ascii	"ch_dyn_element\000"
 3261      796E5F65 
 3261      6C656D65 
 3261      6E7400
 3262              	.LASF147:
 3263 04a2 64796E5F 		.ascii	"dyn_list_t\000"
 3263      6C697374 
 3263      5F7400
 3264              	.LASF172:
 3265 04ad 2E2F524D 		.ascii	"./RM18A-ChibiOS18-Core/chibios/os/rt/src/chdynamic."
 3265      3138412D 
 3265      43686962 
 3265      694F5331 
 3265      382D436F 
 3266 04e0 6300     		.ascii	"c\000"
 3267              	.LASF25:
 3268 04e2 74707269 		.ascii	"tprio_t\000"
 3268      6F5F7400 
 3269              	.LASF109:
 3270 04ea 74687265 		.ascii	"threadsize\000"
 3270      61647369 
 3270      7A6500
 3271              	.LASF124:
 3272 04f5 5F426F6F 		.ascii	"_Bool\000"
 3272      6C00
 3273              	.LASF18:
 3274 04fb 696E7433 		.ascii	"int32_t\000"
 3274      325F7400 
 3275              	.LASF6:
 3276 0503 756E7369 		.ascii	"unsigned char\000"
 3276      676E6564 
 3276      20636861 
 3276      7200
 3277              	.LASF110:
 3278 0511 6F66665F 		.ascii	"off_prio\000"
 3278      7072696F 
 3278      00
 3279              	.LASF115:
 3280 051a 6F66665F 		.ascii	"off_stklimit\000"
 3280      73746B6C 
 3280      696D6974 
 3280      00
 3281              	.LASF7:
 3282 0527 73686F72 		.ascii	"short int\000"
 3282      7420696E 
 3282      7400
 3283              	.LASF64:
 3284 0531 6C617374 		.ascii	"lasttime\000"
 3284      74696D65 
 3284      00
 3285              	.LASF174:
 3286 053a 68656170 		.ascii	"heap_header\000"
 3286      5F686561 
ARM GAS  /tmp/ccsCUGZH.s 			page 63


 3286      64657200 
 3287              	.LASF92:
 3288 0546 65776D61 		.ascii	"ewmask\000"
 3288      736B00
 3289              	.LASF69:
 3290 054d 63685F73 		.ascii	"ch_system\000"
 3290      79737465 
 3290      6D00
 3291              	.LASF175:
 3292 0557 5F5F6675 		.ascii	"__func__\000"
 3292      6E635F5F 
 3292      00
 3293              	.LASF158:
 3294 0560 63685F66 		.ascii	"ch_factory\000"
 3294      6163746F 
 3294      727900
 3295              	.LASF162:
 3296 056b 63685379 		.ascii	"chSysLock\000"
 3296      734C6F63 
 3296      6B00
 3297              	.LASF150:
 3298 0575 6F626A5F 		.ascii	"obj_pool\000"
 3298      706F6F6C 
 3298      00
 3299              	.LASF59:
 3300 057e 63685F76 		.ascii	"ch_virtual_timer\000"
 3300      69727475 
 3300      616C5F74 
 3300      696D6572 
 3300      00
 3301              	.LASF93:
 3302 058f 63685F73 		.ascii	"ch_semaphore\000"
 3302      656D6170 
 3302      686F7265 
 3302      00
 3303              	.LASF120:
 3304 059c 6F66665F 		.ascii	"off_time\000"
 3304      74696D65 
 3304      00
 3305              	.LASF97:
 3306 05a5 63685F69 		.ascii	"ch_idle_thread_wa\000"
 3306      646C655F 
 3306      74687265 
 3306      61645F77 
 3306      6100
 3307              	.LASF108:
 3308 05b7 74696D65 		.ascii	"timesize\000"
 3308      73697A65 
 3308      00
 3309              	.LASF156:
 3310 05c0 70697065 		.ascii	"pipe_list\000"
 3310      5F6C6973 
 3310      7400
 3311              	.LASF19:
 3312 05ca 75696E74 		.ascii	"uint32_t\000"
 3312      33325F74 
 3312      00
ARM GAS  /tmp/ccsCUGZH.s 			page 64


 3313              	.LASF91:
 3314 05d3 77746D74 		.ascii	"wtmtxp\000"
 3314      787000
 3315              	.LASF49:
 3316 05da 63685F74 		.ascii	"ch_threads_list\000"
 3316      68726561 
 3316      64735F6C 
 3316      69737400 
 3317              	.LASF95:
 3318 05ea 6F776E65 		.ascii	"owner\000"
 3318      7200
 3319              	.LASF171:
 3320 05f0 474E5520 		.ascii	"GNU C11 7.3.1 20180622 (release) [ARM/embedded-7-br"
 3320      43313120 
 3320      372E332E 
 3320      31203230 
 3320      31383036 
 3321 0623 616E6368 		.ascii	"anch revision 261907] -mcpu=cortex-m4 -mthumb -mflo"
 3321      20726576 
 3321      6973696F 
 3321      6E203236 
 3321      31393037 
 3322 0656 61742D61 		.ascii	"at-abi=hard -mfpu=fpv4-sp-d16 -ggdb -O3 -std=c11 -f"
 3322      62693D68 
 3322      61726420 
 3322      2D6D6670 
 3322      753D6670 
 3323 0689 6F6D6974 		.ascii	"omit-frame-pointer -ffunction-sections -fdata-secti"
 3323      2D667261 
 3323      6D652D70 
 3323      6F696E74 
 3323      6572202D 
 3324 06bc 6F6E7320 		.ascii	"ons -fno-common\000"
 3324      2D666E6F 
 3324      2D636F6D 
 3324      6D6F6E00 
 3325              	.LASF139:
 3326 06cc 68656170 		.ascii	"heap\000"
 3326      00
 3327              	.LASF13:
 3328 06d1 6C6F6E67 		.ascii	"long unsigned int\000"
 3328      20756E73 
 3328      69676E65 
 3328      6420696E 
 3328      7400
 3329              	.LASF36:
 3330 06e3 77616261 		.ascii	"wabase\000"
 3330      736500
 3331              	.LASF96:
 3332 06ea 63686172 		.ascii	"char\000"
 3332      00
 3333              	.LASF34:
 3334 06ef 6F6C6465 		.ascii	"older\000"
 3334      7200
 3335              	.LASF149:
 3336 06f5 6F626A5F 		.ascii	"obj_list\000"
 3336      6C697374 
ARM GAS  /tmp/ccsCUGZH.s 			page 65


 3336      00
 3337              	.LASF8:
 3338 06fe 5F5F7569 		.ascii	"__uint16_t\000"
 3338      6E743136 
 3338      5F7400
 3339              	.LASF30:
 3340 0709 74687265 		.ascii	"thread_t\000"
 3340      61645F74 
 3340      00
 3341              	.LASF130:
 3342 0712 63685F6D 		.ascii	"ch_memcore\000"
 3342      656D636F 
 3342      726500
 3343              	.LASF73:
 3344 071d 73797374 		.ascii	"systime_t\000"
 3344      696D655F 
 3344      7400
 3345              	.LASF57:
 3346 0727 76746675 		.ascii	"vtfunc_t\000"
 3346      6E635F74 
 3346      00
 3347              	.LASF166:
 3348 0730 5F5F7365 		.ascii	"__set_BASEPRI\000"
 3348      745F4241 
 3348      53455052 
 3348      4900
 3349              	.LASF67:
 3350 073e 70616E69 		.ascii	"panic_msg\000"
 3350      635F6D73 
 3350      6700
 3351              	.LASF83:
 3352 0748 6F666673 		.ascii	"offset\000"
 3352      657400
 3353              	.LASF170:
 3354 074f 63684865 		.ascii	"chHeapAllocAligned\000"
 3354      6170416C 
 3354      6C6F6341 
 3354      6C69676E 
 3354      656400
 3355              	.LASF94:
 3356 0762 63685F6D 		.ascii	"ch_mutex\000"
 3356      75746578 
 3356      00
 3357              	.LASF113:
 3358 076b 6F66665F 		.ascii	"off_older\000"
 3358      6F6C6465 
 3358      7200
 3359              	.LASF9:
 3360 0775 73686F72 		.ascii	"short unsigned int\000"
 3360      7420756E 
 3360      7369676E 
 3360      65642069 
 3360      6E7400
 3361              	.LASF103:
 3362 0788 6964656E 		.ascii	"identifier\000"
 3362      74696669 
 3362      657200
ARM GAS  /tmp/ccsCUGZH.s 			page 66


 3363              	.LASF169:
 3364 0793 63685363 		.ascii	"chSchWakeupS\000"
 3364      6857616B 
 3364      65757053 
 3364      00
 3365              	.LASF141:
 3366 07a0 6F626A65 		.ascii	"object_size\000"
 3366      63745F73 
 3366      697A6500 
 3367              	.LASF107:
 3368 07ac 70747273 		.ascii	"ptrsize\000"
 3368      697A6500 
 3369              	.LASF148:
 3370 07b4 63685F6F 		.ascii	"ch_objects_factory\000"
 3370      626A6563 
 3370      74735F66 
 3370      6163746F 
 3370      727900
 3371              	.LASF51:
 3372 07c7 74687265 		.ascii	"threads_queue_t\000"
 3372      6164735F 
 3372      71756575 
 3372      655F7400 
 3373              	.LASF140:
 3374 07d7 706F6F6C 		.ascii	"pool_header\000"
 3374      5F686561 
 3374      64657200 
 3375              	.LASF114:
 3376 07e3 6F66665F 		.ascii	"off_name\000"
 3376      6E616D65 
 3376      00
 3377              	.LASF16:
 3378 07ec 75696E74 		.ascii	"uint8_t\000"
 3378      385F7400 
 3379              	.LASF167:
 3380 07f4 6368506F 		.ascii	"chPoolAlloc\000"
 3380      6F6C416C 
 3380      6C6F6300 
 3381              	.LASF38:
 3382 0800 666C6167 		.ascii	"flags\000"
 3382      7300
 3383              	.LASF155:
 3384 0806 6669666F 		.ascii	"fifo_list\000"
 3384      5F6C6973 
 3384      7400
 3385              	.LASF87:
 3386 0810 77746F62 		.ascii	"wtobjp\000"
 3386      6A7000
 3387              	.LASF47:
 3388 0817 74687265 		.ascii	"threads_list_t\000"
 3388      6164735F 
 3388      6C697374 
 3388      5F7400
 3389              	.LASF116:
 3390 0826 6F66665F 		.ascii	"off_state\000"
 3390      73746174 
 3390      6500
ARM GAS  /tmp/ccsCUGZH.s 			page 67


 3391              	.LASF165:
 3392 0830 63685379 		.ascii	"chSysUnlock\000"
 3392      73556E6C 
 3392      6F636B00 
 3393              	.LASF157:
 3394 083c 6F626A65 		.ascii	"objects_factory_t\000"
 3394      6374735F 
 3394      66616374 
 3394      6F72795F 
 3394      7400
 3395              	.LASF117:
 3396 084e 6F66665F 		.ascii	"off_flags\000"
 3396      666C6167 
 3396      7300
 3397              	.LASF43:
 3398 0858 6D74786C 		.ascii	"mtxlist\000"
 3398      69737400 
 3399              	.LASF134:
 3400 0860 68656164 		.ascii	"header\000"
 3400      657200
 3401              	.LASF127:
 3402 0867 6E657874 		.ascii	"nextmem\000"
 3402      6D656D00 
 3403              	.LASF132:
 3404 086f 6D656D6F 		.ascii	"memory_heap\000"
 3404      72795F68 
 3404      65617000 
 3405              		.ident	"GCC: (GNU Tools for Arm Embedded Processors 7-2018-q3-update) 7.3.1 20180622 (release) [AR
ARM GAS  /tmp/ccsCUGZH.s 			page 68


DEFINED SYMBOLS
                            *ABS*:0000000000000000 chdynamic.c
     /tmp/ccsCUGZH.s:18     .text.chThdCreateFromHeap:0000000000000000 $t
     /tmp/ccsCUGZH.s:26     .text.chThdCreateFromHeap:0000000000000000 chThdCreateFromHeap
     /tmp/ccsCUGZH.s:139    .text.chThdCreateFromMemoryPool:0000000000000000 $t
     /tmp/ccsCUGZH.s:147    .text.chThdCreateFromMemoryPool:0000000000000000 chThdCreateFromMemoryPool

UNDEFINED SYMBOLS
chHeapAllocAligned
chThdCreateSuspendedI
chSchWakeupS
chPoolAlloc
