ARM GAS  /tmp/ccsCUGZH.s 			page 1


   1              		.cpu cortex-m4
   2              		.eabi_attribute 27, 1
   3              		.eabi_attribute 28, 1
   4              		.eabi_attribute 20, 1
   5              		.eabi_attribute 21, 1
   6              		.eabi_attribute 23, 3
   7              		.eabi_attribute 24, 1
   8              		.eabi_attribute 25, 1
   9              		.eabi_attribute 26, 1
  10              		.eabi_attribute 30, 2
  11              		.eabi_attribute 34, 1
  12              		.eabi_attribute 18, 4
  13              		.file	"chdynamic.c"
  14              		.text
  15              	.Ltext0:
  16              		.cfi_sections	.debug_frame
  17              		.section	.text.chThdCreateFromHeap,"ax",%progbits
  18              		.align	1
  19              		.p2align 2,,3
  20              		.global	chThdCreateFromHeap
  21              		.syntax unified
  22              		.thumb
  23              		.thumb_func
  24              		.fpu fpv4-sp-d16
  25              		.type	chThdCreateFromHeap, %function
  26              	chThdCreateFromHeap:
  27              	.LFB294:
  28              		.file 1 "./RM18A-ChibiOS18-Core/chibios/os/rt/src/chdynamic.c"
  29              		.loc 1 84 0
  30              		.cfi_startproc
  31              		@ args = 8, pretend = 0, frame = 24
  32              		@ frame_needed = 0, uses_anonymous_args = 0
  33              	.LVL0:
  34 0000 70B5     		push	{r4, r5, r6, lr}
  35              		.cfi_def_cfa_offset 16
  36              		.cfi_offset 4, -16
  37              		.cfi_offset 5, -12
  38              		.cfi_offset 6, -8
  39              		.cfi_offset 14, -4
  40 0002 1646     		mov	r6, r2
  41 0004 86B0     		sub	sp, sp, #24
  42              		.cfi_def_cfa_offset 40
  43              		.loc 1 88 0
  44 0006 0822     		movs	r2, #8
  45              	.LVL1:
  46              		.loc 1 84 0
  47 0008 1D46     		mov	r5, r3
  48 000a 0C46     		mov	r4, r1
  49              		.loc 1 88 0
  50 000c FFF7FEFF 		bl	chHeapAllocAligned
  51              	.LVL2:
  52              		.loc 1 89 0
  53 0010 D8B1     		cbz	r0, .L3
  54              		.loc 1 93 0
  55 0012 0A9B     		ldr	r3, [sp, #40]
  56 0014 0493     		str	r3, [sp, #16]
  57              		.loc 1 96 0
ARM GAS  /tmp/ccsCUGZH.s 			page 2


  58 0016 0444     		add	r4, r4, r0
  59              	.LVL3:
  60              		.loc 1 93 0
  61 0018 0B9B     		ldr	r3, [sp, #44]
  62 001a 0593     		str	r3, [sp, #20]
  63              	.LVL4:
  64 001c 0294     		str	r4, [sp, #8]
  65 001e CDE90060 		strd	r6, r0, [sp]
  66 0022 0395     		str	r5, [sp, #12]
  67              	.LBB34:
  68              	.LBB35:
  69              	.LBB36:
  70              	.LBB37:
  71              		.file 2 "./RM18A-ChibiOS18-Core/chibios/os/common/ext/ARM/CMSIS/Core/Include/cmsis_gcc.h"
  72              		.loc 2 493 0
  73 0024 2023     		movs	r3, #32
  74              		.syntax unified
  75              	@ 493 "./RM18A-ChibiOS18-Core/chibios/os/common/ext/ARM/CMSIS/Core/Include/cmsis_gcc.h" 1
  76 0026 83F31188 		MSR basepri, r3
  77              	@ 0 "" 2
  78              	.LVL5:
  79              		.thumb
  80              		.syntax unified
  81              	.LBE37:
  82              	.LBE36:
  83              	.LBE35:
  84              	.LBE34:
  85              		.loc 1 109 0
  86 002a 6846     		mov	r0, sp
  87              	.LVL6:
  88 002c FFF7FEFF 		bl	chThdCreateSuspendedI
  89              	.LVL7:
  90              		.loc 1 110 0
  91 0030 0123     		movs	r3, #1
  92 0032 80F82130 		strb	r3, [r0, #33]
  93              		.loc 1 111 0
  94 0036 0021     		movs	r1, #0
  95              		.loc 1 109 0
  96 0038 0446     		mov	r4, r0
  97              	.LVL8:
  98              		.loc 1 111 0
  99 003a FFF7FEFF 		bl	chSchWakeupS
 100              	.LVL9:
 101              	.LBB38:
 102              	.LBB39:
 103              	.LBB40:
 104              	.LBB41:
 105              	.LBB42:
 106              		.loc 2 493 0
 107 003e 0023     		movs	r3, #0
 108              		.syntax unified
 109              	@ 493 "./RM18A-ChibiOS18-Core/chibios/os/common/ext/ARM/CMSIS/Core/Include/cmsis_gcc.h" 1
 110 0040 83F31188 		MSR basepri, r3
 111              	@ 0 "" 2
 112              	.LVL10:
 113              		.thumb
 114              		.syntax unified
ARM GAS  /tmp/ccsCUGZH.s 			page 3


 115              	.L1:
 116              	.LBE42:
 117              	.LBE41:
 118              	.LBE40:
 119              	.LBE39:
 120              	.LBE38:
 121              		.loc 1 115 0
 122 0044 2046     		mov	r0, r4
 123 0046 06B0     		add	sp, sp, #24
 124              		.cfi_remember_state
 125              		.cfi_def_cfa_offset 16
 126              		@ sp needed
 127 0048 70BD     		pop	{r4, r5, r6, pc}
 128              	.LVL11:
 129              	.L3:
 130              		.cfi_restore_state
 131              		.loc 1 90 0
 132 004a 0446     		mov	r4, r0
 133              	.LVL12:
 134 004c FAE7     		b	.L1
 135              		.cfi_endproc
 136              	.LFE294:
 137              		.size	chThdCreateFromHeap, .-chThdCreateFromHeap
 138 004e 00BF     		.section	.text.chThdCreateFromMemoryPool,"ax",%progbits
 139              		.align	1
 140              		.p2align 2,,3
 141              		.global	chThdCreateFromMemoryPool
 142              		.syntax unified
 143              		.thumb
 144              		.thumb_func
 145              		.fpu fpv4-sp-d16
 146              		.type	chThdCreateFromMemoryPool, %function
 147              	chThdCreateFromMemoryPool:
 148              	.LFB295:
 149              		.loc 1 146 0
 150              		.cfi_startproc
 151              		@ args = 4, pretend = 0, frame = 24
 152              		@ frame_needed = 0, uses_anonymous_args = 0
 153              	.LVL13:
 154 0000 F0B5     		push	{r4, r5, r6, r7, lr}
 155              		.cfi_def_cfa_offset 20
 156              		.cfi_offset 4, -20
 157              		.cfi_offset 5, -16
 158              		.cfi_offset 6, -12
 159              		.cfi_offset 7, -8
 160              		.cfi_offset 14, -4
 161 0002 87B0     		sub	sp, sp, #28
 162              		.cfi_def_cfa_offset 48
 163              		.loc 1 146 0
 164 0004 0C46     		mov	r4, r1
 165 0006 1746     		mov	r7, r2
 166 0008 1E46     		mov	r6, r3
 167 000a 0546     		mov	r5, r0
 168              		.loc 1 152 0
 169 000c FFF7FEFF 		bl	chPoolAlloc
 170              	.LVL14:
 171              		.loc 1 153 0
ARM GAS  /tmp/ccsCUGZH.s 			page 4


 172 0010 E0B1     		cbz	r0, .L8
 173              		.loc 1 160 0
 174 0012 6B68     		ldr	r3, [r5, #4]
 175              		.loc 1 157 0
 176 0014 0094     		str	r4, [sp]
 177              		.loc 1 160 0
 178 0016 C418     		adds	r4, r0, r3
 179              	.LVL15:
 180              		.loc 1 157 0
 181 0018 0C9B     		ldr	r3, [sp, #48]
 182 001a 0593     		str	r3, [sp, #20]
 183              	.LVL16:
 184 001c 0190     		str	r0, [sp, #4]
 185 001e CDE90376 		strd	r7, r6, [sp, #12]
 186 0022 0294     		str	r4, [sp, #8]
 187              	.LBB43:
 188              	.LBB44:
 189              	.LBB45:
 190              	.LBB46:
 191              		.loc 2 493 0
 192 0024 2023     		movs	r3, #32
 193              		.syntax unified
 194              	@ 493 "./RM18A-ChibiOS18-Core/chibios/os/common/ext/ARM/CMSIS/Core/Include/cmsis_gcc.h" 1
 195 0026 83F31188 		MSR basepri, r3
 196              	@ 0 "" 2
 197              	.LVL17:
 198              		.thumb
 199              		.syntax unified
 200              	.LBE46:
 201              	.LBE45:
 202              	.LBE44:
 203              	.LBE43:
 204              		.loc 1 173 0
 205 002a 6846     		mov	r0, sp
 206              	.LVL18:
 207 002c FFF7FEFF 		bl	chThdCreateSuspendedI
 208              	.LVL19:
 209              		.loc 1 174 0
 210 0030 0223     		movs	r3, #2
 211 0032 80F82130 		strb	r3, [r0, #33]
 212              		.loc 1 175 0
 213 0036 0564     		str	r5, [r0, #64]
 214              		.loc 1 176 0
 215 0038 0021     		movs	r1, #0
 216              		.loc 1 173 0
 217 003a 0446     		mov	r4, r0
 218              	.LVL20:
 219              		.loc 1 176 0
 220 003c FFF7FEFF 		bl	chSchWakeupS
 221              	.LVL21:
 222              	.LBB47:
 223              	.LBB48:
 224              	.LBB49:
 225              	.LBB50:
 226              	.LBB51:
 227              		.loc 2 493 0
 228 0040 0023     		movs	r3, #0
ARM GAS  /tmp/ccsCUGZH.s 			page 5


 229              		.syntax unified
 230              	@ 493 "./RM18A-ChibiOS18-Core/chibios/os/common/ext/ARM/CMSIS/Core/Include/cmsis_gcc.h" 1
 231 0042 83F31188 		MSR basepri, r3
 232              	@ 0 "" 2
 233              	.LVL22:
 234              		.thumb
 235              		.syntax unified
 236              	.L6:
 237              	.LBE51:
 238              	.LBE50:
 239              	.LBE49:
 240              	.LBE48:
 241              	.LBE47:
 242              		.loc 1 180 0
 243 0046 2046     		mov	r0, r4
 244 0048 07B0     		add	sp, sp, #28
 245              		.cfi_remember_state
 246              		.cfi_def_cfa_offset 20
 247              		@ sp needed
 248 004a F0BD     		pop	{r4, r5, r6, r7, pc}
 249              	.LVL23:
 250              	.L8:
 251              		.cfi_restore_state
 252              		.loc 1 154 0
 253 004c 0446     		mov	r4, r0
 254              	.LVL24:
 255 004e FAE7     		b	.L6
 256              		.cfi_endproc
 257              	.LFE295:
 258              		.size	chThdCreateFromMemoryPool, .-chThdCreateFromMemoryPool
 259              		.text
 260              	.Letext0:
 261              		.file 3 "/usr/lib/gcc/arm-none-eabi/7.3.1/include/stddef.h"
 262              		.file 4 "/usr/arm-none-eabi/include/machine/_default_types.h"
 263              		.file 5 "/usr/arm-none-eabi/include/sys/_stdint.h"
 264              		.file 6 "./RM18A-ChibiOS18-Core/chibios/os/common/ports/ARMCMx/compilers/GCC/chtypes.h"
 265              		.file 7 "./RM18A-ChibiOS18-Core/chibios/os/rt/include/chsystypes.h"
 266              		.file 8 "./RM18A-ChibiOS18-Core/chibios/os/rt/include/chschd.h"
 267              		.file 9 "./RM18A-ChibiOS18-Core/chibios/os/rt/include/chtime.h"
 268              		.file 10 "./RM18A-ChibiOS18-Core/chibios/os/common/ext/ARM/CMSIS/Core/Include/core_cm4.h"
 269              		.file 11 "./RM18A-ChibiOS18-Core/chibios/os/common/ext/ST/STM32F4xx/system_stm32f4xx.h"
 270              		.file 12 "./RM18A-ChibiOS18-Core/chibios/os/common/ports/ARMCMx/chcore.h"
 271              		.file 13 "./RM18A-ChibiOS18-Core/chibios/os/common/ports/ARMCMx/chcore_v7m.h"
 272              		.file 14 "./RM18A-ChibiOS18-Core/chibios/os/rt/include/chtm.h"
 273              		.file 15 "./RM18A-ChibiOS18-Core/chibios/os/rt/include/chsem.h"
 274              		.file 16 "./RM18A-ChibiOS18-Core/chibios/os/rt/include/chmtx.h"
 275              		.file 17 "./RM18A-ChibiOS18-Core/chibios/os/rt/include/chsys.h"
 276              		.file 18 "./RM18A-ChibiOS18-Core/chibios/os/rt/include/chthreads.h"
 277              		.file 19 "./RM18A-ChibiOS18-Core/chibios/os/rt/include/chregistry.h"
 278              		.file 20 "./RM18A-ChibiOS18-Core/chibios/os/oslib/include/chmemcore.h"
 279              		.file 21 "./RM18A-ChibiOS18-Core/chibios/os/oslib/include/chmemheaps.h"
 280              		.file 22 "./RM18A-ChibiOS18-Core/chibios/os/oslib/include/chmempools.h"
 281              		.file 23 "./RM18A-ChibiOS18-Core/chibios/os/oslib/include/chfactory.h"