ARM GAS  /tmp/cc3blT9L.s 			page 1


   1              		.cpu cortex-m4
   2              		.eabi_attribute 27, 1
   3              		.eabi_attribute 28, 1
   4              		.eabi_attribute 20, 1
   5              		.eabi_attribute 21, 1
   6              		.eabi_attribute 23, 3
   7              		.eabi_attribute 24, 1
   8              		.eabi_attribute 25, 1
   9              		.eabi_attribute 26, 1
  10              		.eabi_attribute 30, 2
  11              		.eabi_attribute 34, 1
  12              		.eabi_attribute 18, 4
  13              		.file	"chevents.c"
  14              		.text
  15              	.Ltext0:
  16              		.cfi_sections	.debug_frame
  17              		.section	.text.chEvtRegisterMaskWithFlags,"ax",%progbits
  18              		.align	1
  19              		.p2align 2,,3
  20              		.global	chEvtRegisterMaskWithFlags
  21              		.syntax unified
  22              		.thumb
  23              		.thumb_func
  24              		.fpu fpv4-sp-d16
  25              		.type	chEvtRegisterMaskWithFlags, %function
  26              	chEvtRegisterMaskWithFlags:
  27              	.LFB294:
  28              		.file 1 "./RM18A-ChibiOS18-Core/chibios/os/rt/src/chevents.c"
  29              		.loc 1 106 0
  30              		.cfi_startproc
  31              		@ args = 0, pretend = 0, frame = 0
  32              		@ frame_needed = 0, uses_anonymous_args = 0
  33              		@ link register save eliminated.
  34              	.LVL0:
  35 0000 30B4     		push	{r4, r5}
  36              		.cfi_def_cfa_offset 8
  37              		.cfi_offset 4, -8
  38              		.cfi_offset 5, -4
  39              	.LBB178:
  40              	.LBB179:
  41              	.LBB180:
  42              	.LBB181:
  43              		.file 2 "./RM18A-ChibiOS18-Core/chibios/os/common/ext/ARM/CMSIS/Core/Include/cmsis_gcc.h"
  44              		.loc 2 493 0
  45 0002 2024     		movs	r4, #32
  46              		.syntax unified
  47              	@ 493 "./RM18A-ChibiOS18-Core/chibios/os/common/ext/ARM/CMSIS/Core/Include/cmsis_gcc.h" 1
  48 0004 84F31188 		MSR basepri, r4
  49              	@ 0 "" 2
  50              	.LVL1:
  51              		.thumb
  52              		.syntax unified
  53              	.LBE181:
  54              	.LBE180:
  55              	.LBE179:
  56              	.LBE178:
  57              		.loc 1 113 0
ARM GAS  /tmp/cc3blT9L.s 			page 2


  58 0008 064D     		ldr	r5, .L4
  59              		.loc 1 111 0
  60 000a 0468     		ldr	r4, [r0]
  61              		.loc 1 113 0
  62 000c AD69     		ldr	r5, [r5, #24]
  63              		.loc 1 111 0
  64 000e 0C60     		str	r4, [r1]
  65              		.loc 1 115 0
  66 0010 0024     		movs	r4, #0
  67              		.loc 1 112 0
  68 0012 0160     		str	r1, [r0]
  69              		.loc 1 114 0
  70 0014 C1E90152 		strd	r5, r2, [r1, #4]
  71              		.loc 1 115 0
  72 0018 C1E90343 		strd	r4, r3, [r1, #12]
  73              	.LBB182:
  74              	.LBB183:
  75              	.LBB184:
  76              	.LBB185:
  77              	.LBB186:
  78              		.loc 2 493 0
  79              		.syntax unified
  80              	@ 493 "./RM18A-ChibiOS18-Core/chibios/os/common/ext/ARM/CMSIS/Core/Include/cmsis_gcc.h" 1
  81 001c 84F31188 		MSR basepri, r4
  82              	@ 0 "" 2
  83              		.thumb
  84              		.syntax unified
  85              	.LBE186:
  86              	.LBE185:
  87              	.LBE184:
  88              	.LBE183:
  89              	.LBE182:
  90              		.loc 1 118 0
  91 0020 30BC     		pop	{r4, r5}
  92              		.cfi_restore 5
  93              		.cfi_restore 4
  94              		.cfi_def_cfa_offset 0
  95 0022 7047     		bx	lr
  96              	.L5:
  97              		.align	2
  98              	.L4:
  99 0024 00000000 		.word	ch
 100              		.cfi_endproc
 101              	.LFE294:
 102              		.size	chEvtRegisterMaskWithFlags, .-chEvtRegisterMaskWithFlags
 103              		.section	.text.chEvtUnregister,"ax",%progbits
 104              		.align	1
 105              		.p2align 2,,3
 106              		.global	chEvtUnregister
 107              		.syntax unified
 108              		.thumb
 109              		.thumb_func
 110              		.fpu fpv4-sp-d16
 111              		.type	chEvtUnregister, %function
 112              	chEvtUnregister:
 113              	.LFB295:
 114              		.loc 1 133 0
ARM GAS  /tmp/cc3blT9L.s 			page 3


 115              		.cfi_startproc
 116              		@ args = 0, pretend = 0, frame = 0
 117              		@ frame_needed = 0, uses_anonymous_args = 0
 118              		@ link register save eliminated.
 119              	.LVL2:
 120              	.LBB187:
 121              	.LBB188:
 122              	.LBB189:
 123              	.LBB190:
 124              		.loc 2 493 0
 125 0000 2023     		movs	r3, #32
 126              		.syntax unified
 127              	@ 493 "./RM18A-ChibiOS18-Core/chibios/os/common/ext/ARM/CMSIS/Core/Include/cmsis_gcc.h" 1
 128 0002 83F31188 		MSR basepri, r3
 129              	@ 0 "" 2
 130              	.LVL3:
 131              		.thumb
 132              		.syntax unified
 133              	.LBE190:
 134              	.LBE189:
 135              	.LBE188:
 136              	.LBE187:
 137              		.loc 1 139 0
 138 0006 0246     		mov	r2, r0
 139 0008 02E0     		b	.L7
 140              	.LVL4:
 141              	.L9:
 142              		.loc 1 145 0
 143 000a 8B42     		cmp	r3, r1
 144 000c 07D0     		beq	.L11
 145 000e 1A46     		mov	r2, r3
 146              	.LVL5:
 147              	.L7:
 148              		.loc 1 143 0
 149 0010 1368     		ldr	r3, [r2]
 150 0012 8342     		cmp	r3, r0
 151 0014 F9D1     		bne	.L9
 152              	.LVL6:
 153              	.LBB191:
 154              	.LBB192:
 155              	.LBB193:
 156              	.LBB194:
 157              	.LBB195:
 158              		.loc 2 493 0
 159 0016 0023     		movs	r3, #0
 160              		.syntax unified
 161              	@ 493 "./RM18A-ChibiOS18-Core/chibios/os/common/ext/ARM/CMSIS/Core/Include/cmsis_gcc.h" 1
 162 0018 83F31188 		MSR basepri, r3
 163              	@ 0 "" 2
 164              	.LVL7:
 165              		.thumb
 166              		.syntax unified
 167              	.LBE195:
 168              	.LBE194:
 169              	.LBE193:
 170              	.LBE192:
 171              	.LBE191:
ARM GAS  /tmp/cc3blT9L.s 			page 4


 172              		.loc 1 152 0
 173 001c 7047     		bx	lr
 174              	.L11:
 175              		.loc 1 146 0
 176 001e 0B68     		ldr	r3, [r1]
 177 0020 1360     		str	r3, [r2]
 178              	.LVL8:
 179              	.LBB200:
 180              	.LBB199:
 181              	.LBB198:
 182              	.LBB197:
 183              	.LBB196:
 184              		.loc 2 493 0
 185 0022 0023     		movs	r3, #0
 186              		.syntax unified
 187              	@ 493 "./RM18A-ChibiOS18-Core/chibios/os/common/ext/ARM/CMSIS/Core/Include/cmsis_gcc.h" 1
 188 0024 83F31188 		MSR basepri, r3
 189              	@ 0 "" 2
 190              	.LVL9:
 191              		.thumb
 192              		.syntax unified
 193              	.LBE196:
 194              	.LBE197:
 195              	.LBE198:
 196              	.LBE199:
 197              	.LBE200:
 198              		.loc 1 152 0
 199 0028 7047     		bx	lr
 200              		.cfi_endproc
 201              	.LFE295:
 202              		.size	chEvtUnregister, .-chEvtUnregister
 203 002a 00BF     		.section	.text.chEvtGetAndClearEventsI,"ax",%progbits
 204              		.align	1
 205              		.p2align 2,,3
 206              		.global	chEvtGetAndClearEventsI
 207              		.syntax unified
 208              		.thumb
 209              		.thumb_func
 210              		.fpu fpv4-sp-d16
 211              		.type	chEvtGetAndClearEventsI, %function
 212              	chEvtGetAndClearEventsI:
 213              	.LFB296:
 214              		.loc 1 162 0
 215              		.cfi_startproc
 216              		@ args = 0, pretend = 0, frame = 0
 217              		@ frame_needed = 0, uses_anonymous_args = 0
 218              		@ link register save eliminated.
 219              	.LVL10:
 220              		.loc 1 165 0
 221 0000 034B     		ldr	r3, .L13
 222 0002 9A69     		ldr	r2, [r3, #24]
 223 0004 536B     		ldr	r3, [r2, #52]
 224              	.LVL11:
 225              		.loc 1 166 0
 226 0006 23EA0001 		bic	r1, r3, r0
 227 000a 5163     		str	r1, [r2, #52]
 228              		.loc 1 169 0
ARM GAS  /tmp/cc3blT9L.s 			page 5


 229 000c 1840     		ands	r0, r0, r3
 230              	.LVL12:
 231 000e 7047     		bx	lr
 232              	.L14:
 233              		.align	2
 234              	.L13:
 235 0010 00000000 		.word	ch
 236              		.cfi_endproc
 237              	.LFE296:
 238              		.size	chEvtGetAndClearEventsI, .-chEvtGetAndClearEventsI
 239              		.section	.text.chEvtGetAndClearEvents,"ax",%progbits
 240              		.align	1
 241              		.p2align 2,,3
 242              		.global	chEvtGetAndClearEvents
 243              		.syntax unified
 244              		.thumb
 245              		.thumb_func
 246              		.fpu fpv4-sp-d16
 247              		.type	chEvtGetAndClearEvents, %function
 248              	chEvtGetAndClearEvents:
 249              	.LFB297:
 250              		.loc 1 179 0
 251              		.cfi_startproc
 252              		@ args = 0, pretend = 0, frame = 0
 253              		@ frame_needed = 0, uses_anonymous_args = 0
 254              		@ link register save eliminated.
 255              	.LVL13:
 256              	.LBB201:
 257              	.LBB202:
 258              	.LBB203:
 259              	.LBB204:
 260              		.loc 2 493 0
 261 0000 2023     		movs	r3, #32
 262              		.syntax unified
 263              	@ 493 "./RM18A-ChibiOS18-Core/chibios/os/common/ext/ARM/CMSIS/Core/Include/cmsis_gcc.h" 1
 264 0002 83F31188 		MSR basepri, r3
 265              	@ 0 "" 2
 266              	.LVL14:
 267              		.thumb
 268              		.syntax unified
 269              	.LBE204:
 270              	.LBE203:
 271              	.LBE202:
 272              	.LBE201:
 273              	.LBB205:
 274              	.LBB206:
 275              		.loc 1 165 0
 276 0006 054B     		ldr	r3, .L16
 277 0008 9A69     		ldr	r2, [r3, #24]
 278 000a 536B     		ldr	r3, [r2, #52]
 279              	.LVL15:
 280              		.loc 1 166 0
 281 000c 23EA0001 		bic	r1, r3, r0
 282 0010 5163     		str	r1, [r2, #52]
 283              	.LVL16:
 284              	.LBE206:
 285              	.LBE205:
ARM GAS  /tmp/cc3blT9L.s 			page 6


 286              	.LBB207:
 287              	.LBB208:
 288              	.LBB209:
 289              	.LBB210:
 290              	.LBB211:
 291              		.loc 2 493 0
 292 0012 0022     		movs	r2, #0
 293              		.syntax unified
 294              	@ 493 "./RM18A-ChibiOS18-Core/chibios/os/common/ext/ARM/CMSIS/Core/Include/cmsis_gcc.h" 1
 295 0014 82F31188 		MSR basepri, r2
 296              	@ 0 "" 2
 297              	.LVL17:
 298              		.thumb
 299              		.syntax unified
 300              	.LBE211:
 301              	.LBE210:
 302              	.LBE209:
 303              	.LBE208:
 304              	.LBE207:
 305              		.loc 1 187 0
 306 0018 1840     		ands	r0, r0, r3
 307              	.LVL18:
 308 001a 7047     		bx	lr
 309              	.L17:
 310              		.align	2
 311              	.L16:
 312 001c 00000000 		.word	ch
 313              		.cfi_endproc
 314              	.LFE297:
 315              		.size	chEvtGetAndClearEvents, .-chEvtGetAndClearEvents
 316              		.section	.text.chEvtAddEvents,"ax",%progbits
 317              		.align	1
 318              		.p2align 2,,3
 319              		.global	chEvtAddEvents
 320              		.syntax unified
 321              		.thumb
 322              		.thumb_func
 323              		.fpu fpv4-sp-d16
 324              		.type	chEvtAddEvents, %function
 325              	chEvtAddEvents:
 326              	.LFB298:
 327              		.loc 1 198 0
 328              		.cfi_startproc
 329              		@ args = 0, pretend = 0, frame = 0
 330              		@ frame_needed = 0, uses_anonymous_args = 0
 331              		@ link register save eliminated.
 332              	.LVL19:
 333              	.LBB212:
 334              	.LBB213:
 335              	.LBB214:
 336              	.LBB215:
 337              		.loc 2 493 0
 338 0000 2023     		movs	r3, #32
 339              		.syntax unified
 340              	@ 493 "./RM18A-ChibiOS18-Core/chibios/os/common/ext/ARM/CMSIS/Core/Include/cmsis_gcc.h" 1
 341 0002 83F31188 		MSR basepri, r3
 342              	@ 0 "" 2
ARM GAS  /tmp/cc3blT9L.s 			page 7


 343              	.LVL20:
 344              		.thumb
 345              		.syntax unified
 346              	.LBE215:
 347              	.LBE214:
 348              	.LBE213:
 349              	.LBE212:
 350              	.LBB216:
 351              	.LBB217:
 352              		.file 3 "./RM18A-ChibiOS18-Core/chibios/os/rt/include/chevents.h"
 353              		.loc 3 271 0
 354 0006 044B     		ldr	r3, .L19
 355 0008 9B69     		ldr	r3, [r3, #24]
 356 000a 5A6B     		ldr	r2, [r3, #52]
 357 000c 1043     		orrs	r0, r0, r2
 358              	.LVL21:
 359 000e 5863     		str	r0, [r3, #52]
 360              	.LVL22:
 361              	.LBE217:
 362              	.LBE216:
 363              	.LBB218:
 364              	.LBB219:
 365              	.LBB220:
 366              	.LBB221:
 367              	.LBB222:
 368              		.loc 2 493 0
 369 0010 0023     		movs	r3, #0
 370              		.syntax unified
 371              	@ 493 "./RM18A-ChibiOS18-Core/chibios/os/common/ext/ARM/CMSIS/Core/Include/cmsis_gcc.h" 1
 372 0012 83F31188 		MSR basepri, r3
 373              	@ 0 "" 2
 374              	.LVL23:
 375              		.thumb
 376              		.syntax unified
 377              	.LBE222:
 378              	.LBE221:
 379              	.LBE220:
 380              	.LBE219:
 381              	.LBE218:
 382              		.loc 1 206 0
 383 0016 7047     		bx	lr
 384              	.L20:
 385              		.align	2
 386              	.L19:
 387 0018 00000000 		.word	ch
 388              		.cfi_endproc
 389              	.LFE298:
 390              		.size	chEvtAddEvents, .-chEvtAddEvents
 391              		.section	.text.chEvtBroadcastFlagsI,"ax",%progbits
 392              		.align	1
 393              		.p2align 2,,3
 394              		.global	chEvtBroadcastFlagsI
 395              		.syntax unified
 396              		.thumb
 397              		.thumb_func
 398              		.fpu fpv4-sp-d16
 399              		.type	chEvtBroadcastFlagsI, %function
ARM GAS  /tmp/cc3blT9L.s 			page 8


 400              	chEvtBroadcastFlagsI:
 401              	.LFB299:
 402              		.loc 1 225 0
 403              		.cfi_startproc
 404              		@ args = 0, pretend = 0, frame = 0
 405              		@ frame_needed = 0, uses_anonymous_args = 0
 406              	.LVL24:
 407 0000 F8B5     		push	{r3, r4, r5, r6, r7, lr}
 408              		.cfi_def_cfa_offset 24
 409              		.cfi_offset 3, -24
 410              		.cfi_offset 4, -20
 411              		.cfi_offset 5, -16
 412              		.cfi_offset 6, -12
 413              		.cfi_offset 7, -8
 414              		.cfi_offset 14, -4
 415              		.loc 1 231 0
 416 0002 0468     		ldr	r4, [r0]
 417              	.LVL25:
 418              		.loc 1 233 0
 419 0004 A042     		cmp	r0, r4
 420 0006 21D0     		beq	.L21
 421 0008 0D46     		mov	r5, r1
 422 000a 0746     		mov	r7, r0
 423 000c 41B3     		cbz	r1, .L23
 424              	.LBB225:
 425              	.LBB226:
 426              		.loc 1 309 0
 427 000e 0026     		movs	r6, #0
 428 0010 04E0     		b	.L29
 429              	.LVL26:
 430              	.L39:
 431              		.loc 1 306 0
 432 0012 0B2A     		cmp	r2, #11
 433 0014 37D0     		beq	.L42
 434              	.L27:
 435              	.LBE226:
 436              	.LBE225:
 437              		.loc 1 242 0
 438 0016 2468     		ldr	r4, [r4]
 439              	.LVL27:
 440              		.loc 1 233 0
 441 0018 A742     		cmp	r7, r4
 442 001a 17D0     		beq	.L21
 443              	.L29:
 444              		.loc 1 239 0
 445 001c D4E90332 		ldrd	r3, r2, [r4, #12]
 446              		.loc 1 235 0
 447 0020 2B43     		orrs	r3, r3, r5
 448              		.loc 1 238 0
 449 0022 1542     		tst	r5, r2
 450              		.loc 1 235 0
 451 0024 E360     		str	r3, [r4, #12]
 452              		.loc 1 238 0
 453 0026 F6D0     		beq	.L27
 454              	.LBB231:
 455              	.LBB227:
 456              		.loc 1 303 0
ARM GAS  /tmp/cc3blT9L.s 			page 9


 457 0028 D4E90101 		ldrd	r0, r1, [r4, #4]
 458 002c 436B     		ldr	r3, [r0, #52]
 459              		.loc 1 305 0
 460 002e 90F82020 		ldrb	r2, [r0, #32]	@ zero_extendqisi2
 461              		.loc 1 303 0
 462 0032 0B43     		orrs	r3, r3, r1
 463              		.loc 1 305 0
 464 0034 0A2A     		cmp	r2, #10
 465              		.loc 1 303 0
 466 0036 4363     		str	r3, [r0, #52]
 467              		.loc 1 305 0
 468 0038 EBD1     		bne	.L39
 469              		.loc 1 306 0
 470 003a 426A     		ldr	r2, [r0, #36]
 471              		.loc 1 305 0
 472 003c 1342     		tst	r3, r2
 473 003e EAD0     		beq	.L27
 474              		.loc 1 309 0
 475 0040 4662     		str	r6, [r0, #36]
 476              		.loc 1 310 0
 477 0042 FFF7FEFF 		bl	chSchReadyI
 478              	.LVL28:
 479              	.L44:
 480              	.LBE227:
 481              	.LBE231:
 482              		.loc 1 242 0
 483 0046 2468     		ldr	r4, [r4]
 484              	.LVL29:
 485              		.loc 1 233 0
 486 0048 A742     		cmp	r7, r4
 487 004a E7D1     		bne	.L29
 488              	.LVL30:
 489              	.L21:
 490              		.loc 1 244 0
 491 004c F8BD     		pop	{r3, r4, r5, r6, r7, pc}
 492              	.LVL31:
 493              	.L43:
 494              	.LBB232:
 495              	.LBB228:
 496              		.loc 1 306 0
 497 004e 426A     		ldr	r2, [r0, #36]
 498              		.loc 1 305 0
 499 0050 1342     		tst	r3, r2
 500 0052 02D0     		beq	.L32
 501              	.L31:
 502              		.loc 1 309 0
 503 0054 4562     		str	r5, [r0, #36]
 504              		.loc 1 310 0
 505 0056 FFF7FEFF 		bl	chSchReadyI
 506              	.LVL32:
 507              	.L32:
 508              	.LBE228:
 509              	.LBE232:
 510              		.loc 1 242 0
 511 005a 2468     		ldr	r4, [r4]
 512              	.LVL33:
 513              		.loc 1 233 0
ARM GAS  /tmp/cc3blT9L.s 			page 10


 514 005c A742     		cmp	r7, r4
 515 005e F5D0     		beq	.L21
 516              	.L23:
 517              	.LBB233:
 518              	.LBB229:
 519              		.loc 1 303 0
 520 0060 D4E90103 		ldrd	r0, r3, [r4, #4]
 521 0064 416B     		ldr	r1, [r0, #52]
 522              		.loc 1 305 0
 523 0066 90F82020 		ldrb	r2, [r0, #32]	@ zero_extendqisi2
 524              		.loc 1 303 0
 525 006a 0B43     		orrs	r3, r3, r1
 526              		.loc 1 305 0
 527 006c 0A2A     		cmp	r2, #10
 528              		.loc 1 303 0
 529 006e 4363     		str	r3, [r0, #52]
 530              		.loc 1 305 0
 531 0070 EDD0     		beq	.L43
 532              		.loc 1 306 0
 533 0072 0B2A     		cmp	r2, #11
 534 0074 F1D1     		bne	.L32
 535              		.loc 1 308 0
 536 0076 426A     		ldr	r2, [r0, #36]
 537              		.loc 1 307 0
 538 0078 32EA0303 		bics	r3, r2, r3
 539 007c EAD0     		beq	.L31
 540              	.LBE229:
 541              	.LBE233:
 542              		.loc 1 242 0
 543 007e 2468     		ldr	r4, [r4]
 544              	.LVL34:
 545              		.loc 1 233 0
 546 0080 A742     		cmp	r7, r4
 547 0082 EDD1     		bne	.L23
 548 0084 E2E7     		b	.L21
 549              	.L42:
 550              	.LBB234:
 551              	.LBB230:
 552              		.loc 1 308 0
 553 0086 426A     		ldr	r2, [r0, #36]
 554              		.loc 1 307 0
 555 0088 32EA0303 		bics	r3, r2, r3
 556 008c C3D1     		bne	.L27
 557              		.loc 1 309 0
 558 008e 4662     		str	r6, [r0, #36]
 559              		.loc 1 310 0
 560 0090 FFF7FEFF 		bl	chSchReadyI
 561              	.LVL35:
 562 0094 D7E7     		b	.L44
 563              	.LBE230:
 564              	.LBE234:
 565              		.cfi_endproc
 566              	.LFE299:
 567              		.size	chEvtBroadcastFlagsI, .-chEvtBroadcastFlagsI
 568 0096 00BF     		.section	.text.chEvtGetAndClearFlags,"ax",%progbits
 569              		.align	1
 570              		.p2align 2,,3
ARM GAS  /tmp/cc3blT9L.s 			page 11


 571              		.global	chEvtGetAndClearFlags
 572              		.syntax unified
 573              		.thumb
 574              		.thumb_func
 575              		.fpu fpv4-sp-d16
 576              		.type	chEvtGetAndClearFlags, %function
 577              	chEvtGetAndClearFlags:
 578              	.LFB300:
 579              		.loc 1 257 0
 580              		.cfi_startproc
 581              		@ args = 0, pretend = 0, frame = 0
 582              		@ frame_needed = 0, uses_anonymous_args = 0
 583              		@ link register save eliminated.
 584              	.LVL36:
 585              	.LBB235:
 586              	.LBB236:
 587              	.LBB237:
 588              	.LBB238:
 589              		.loc 2 493 0
 590 0000 2023     		movs	r3, #32
 591              		.syntax unified
 592              	@ 493 "./RM18A-ChibiOS18-Core/chibios/os/common/ext/ARM/CMSIS/Core/Include/cmsis_gcc.h" 1
 593 0002 83F31188 		MSR basepri, r3
 594              	@ 0 "" 2
 595              	.LVL37:
 596              		.thumb
 597              		.syntax unified
 598              	.LBE238:
 599              	.LBE237:
 600              	.LBE236:
 601              	.LBE235:
 602              		.loc 1 262 0
 603 0006 0023     		movs	r3, #0
 604              		.loc 1 261 0
 605 0008 C268     		ldr	r2, [r0, #12]
 606              	.LVL38:
 607              		.loc 1 262 0
 608 000a C360     		str	r3, [r0, #12]
 609              	.LVL39:
 610              	.LBB239:
 611              	.LBB240:
 612              	.LBB241:
 613              	.LBB242:
 614              	.LBB243:
 615              		.loc 2 493 0
 616              		.syntax unified
 617              	@ 493 "./RM18A-ChibiOS18-Core/chibios/os/common/ext/ARM/CMSIS/Core/Include/cmsis_gcc.h" 1
 618 000c 83F31188 		MSR basepri, r3
 619              	@ 0 "" 2
 620              	.LVL40:
 621              		.thumb
 622              		.syntax unified
 623              	.LBE243:
 624              	.LBE242:
 625              	.LBE241:
 626              	.LBE240:
 627              	.LBE239:
ARM GAS  /tmp/cc3blT9L.s 			page 12


 628              		.loc 1 265 0
 629 0010 0069     		ldr	r0, [r0, #16]
 630              	.LVL41:
 631              		.loc 1 266 0
 632 0012 1040     		ands	r0, r0, r2
 633 0014 7047     		bx	lr
 634              		.cfi_endproc
 635              	.LFE300:
 636              		.size	chEvtGetAndClearFlags, .-chEvtGetAndClearFlags
 637 0016 00BF     		.section	.text.chEvtSignal,"ax",%progbits
 638              		.align	1
 639              		.p2align 2,,3
 640              		.global	chEvtSignal
 641              		.syntax unified
 642              		.thumb
 643              		.thumb_func
 644              		.fpu fpv4-sp-d16
 645              		.type	chEvtSignal, %function
 646              	chEvtSignal:
 647              	.LFB301:
 648              		.loc 1 276 0
 649              		.cfi_startproc
 650              		@ args = 0, pretend = 0, frame = 0
 651              		@ frame_needed = 0, uses_anonymous_args = 0
 652              	.LVL42:
 653 0000 08B5     		push	{r3, lr}
 654              		.cfi_def_cfa_offset 8
 655              		.cfi_offset 3, -8
 656              		.cfi_offset 14, -4
 657              	.LBB255:
 658              	.LBB256:
 659              	.LBB257:
 660              	.LBB258:
 661              		.loc 2 493 0
 662 0002 2023     		movs	r3, #32
 663              		.syntax unified
 664              	@ 493 "./RM18A-ChibiOS18-Core/chibios/os/common/ext/ARM/CMSIS/Core/Include/cmsis_gcc.h" 1
 665 0004 83F31188 		MSR basepri, r3
 666              	@ 0 "" 2
 667              	.LVL43:
 668              		.thumb
 669              		.syntax unified
 670              	.LBE258:
 671              	.LBE257:
 672              	.LBE256:
 673              	.LBE255:
 674              	.LBB259:
 675              	.LBB260:
 676              		.loc 1 303 0
 677 0008 426B     		ldr	r2, [r0, #52]
 678              		.loc 1 305 0
 679 000a 90F82030 		ldrb	r3, [r0, #32]	@ zero_extendqisi2
 680              		.loc 1 303 0
 681 000e 1143     		orrs	r1, r1, r2
 682              	.LVL44:
 683              		.loc 1 305 0
 684 0010 0A2B     		cmp	r3, #10
ARM GAS  /tmp/cc3blT9L.s 			page 13


 685              		.loc 1 303 0
 686 0012 4163     		str	r1, [r0, #52]
 687              		.loc 1 305 0
 688 0014 14D0     		beq	.L52
 689              		.loc 1 306 0
 690 0016 0B2B     		cmp	r3, #11
 691 0018 05D0     		beq	.L53
 692              	.L49:
 693              	.LVL45:
 694              	.LBE260:
 695              	.LBE259:
 696              		.loc 1 282 0
 697 001a FFF7FEFF 		bl	chSchRescheduleS
 698              	.LVL46:
 699              	.LBB263:
 700              	.LBB264:
 701              	.LBB265:
 702              	.LBB266:
 703              	.LBB267:
 704              		.loc 2 493 0
 705 001e 0023     		movs	r3, #0
 706              		.syntax unified
 707              	@ 493 "./RM18A-ChibiOS18-Core/chibios/os/common/ext/ARM/CMSIS/Core/Include/cmsis_gcc.h" 1
 708 0020 83F31188 		MSR basepri, r3
 709              	@ 0 "" 2
 710              	.LVL47:
 711              		.thumb
 712              		.syntax unified
 713              	.LBE267:
 714              	.LBE266:
 715              	.LBE265:
 716              	.LBE264:
 717              	.LBE263:
 718              		.loc 1 284 0
 719 0024 08BD     		pop	{r3, pc}
 720              	.LVL48:
 721              	.L53:
 722              	.LBB272:
 723              	.LBB261:
 724              		.loc 1 308 0
 725 0026 436A     		ldr	r3, [r0, #36]
 726              		.loc 1 307 0
 727 0028 8B43     		bics	r3, r3, r1
 728 002a F6D1     		bne	.L49
 729              		.loc 1 309 0
 730 002c 0023     		movs	r3, #0
 731 002e 4362     		str	r3, [r0, #36]
 732              		.loc 1 310 0
 733 0030 FFF7FEFF 		bl	chSchReadyI
 734              	.LVL49:
 735              	.L54:
 736              	.LBE261:
 737              	.LBE272:
 738              		.loc 1 282 0
 739 0034 FFF7FEFF 		bl	chSchRescheduleS
 740              	.LVL50:
 741              	.LBB273:
ARM GAS  /tmp/cc3blT9L.s 			page 14


 742              	.LBB271:
 743              	.LBB270:
 744              	.LBB269:
 745              	.LBB268:
 746              		.loc 2 493 0
 747 0038 0023     		movs	r3, #0
 748              		.syntax unified
 749              	@ 493 "./RM18A-ChibiOS18-Core/chibios/os/common/ext/ARM/CMSIS/Core/Include/cmsis_gcc.h" 1
 750 003a 83F31188 		MSR basepri, r3
 751              	@ 0 "" 2
 752              	.LVL51:
 753              		.thumb
 754              		.syntax unified
 755              	.LBE268:
 756              	.LBE269:
 757              	.LBE270:
 758              	.LBE271:
 759              	.LBE273:
 760              		.loc 1 284 0
 761 003e 08BD     		pop	{r3, pc}
 762              	.LVL52:
 763              	.L52:
 764              	.LBB274:
 765              	.LBB262:
 766              		.loc 1 306 0
 767 0040 436A     		ldr	r3, [r0, #36]
 768              		.loc 1 305 0
 769 0042 1942     		tst	r1, r3
 770 0044 E9D0     		beq	.L49
 771              		.loc 1 309 0
 772 0046 0023     		movs	r3, #0
 773 0048 4362     		str	r3, [r0, #36]
 774              		.loc 1 310 0
 775 004a FFF7FEFF 		bl	chSchReadyI
 776              	.LVL53:
 777 004e F1E7     		b	.L54
 778              	.LBE262:
 779              	.LBE274:
 780              		.cfi_endproc
 781              	.LFE301:
 782              		.size	chEvtSignal, .-chEvtSignal
 783              		.section	.text.chEvtSignalI,"ax",%progbits
 784              		.align	1
 785              		.p2align 2,,3
 786              		.global	chEvtSignalI
 787              		.syntax unified
 788              		.thumb
 789              		.thumb_func
 790              		.fpu fpv4-sp-d16
 791              		.type	chEvtSignalI, %function
 792              	chEvtSignalI:
 793              	.LFB302:
 794              		.loc 1 298 0
 795              		.cfi_startproc
 796              		@ args = 0, pretend = 0, frame = 0
 797              		@ frame_needed = 0, uses_anonymous_args = 0
 798              		@ link register save eliminated.
ARM GAS  /tmp/cc3blT9L.s 			page 15


 799              	.LVL54:
 800              		.loc 1 303 0
 801 0000 436B     		ldr	r3, [r0, #52]
 802              		.loc 1 305 0
 803 0002 90F82020 		ldrb	r2, [r0, #32]	@ zero_extendqisi2
 804              		.loc 1 303 0
 805 0006 1943     		orrs	r1, r1, r3
 806              	.LVL55:
 807              		.loc 1 305 0
 808 0008 0A2A     		cmp	r2, #10
 809              		.loc 1 303 0
 810 000a 4163     		str	r1, [r0, #52]
 811              		.loc 1 305 0
 812 000c 09D0     		beq	.L59
 813              		.loc 1 306 0
 814 000e 0B2A     		cmp	r2, #11
 815 0010 00D0     		beq	.L60
 816              	.L55:
 817              		.loc 1 312 0
 818 0012 7047     		bx	lr
 819              	.L60:
 820              		.loc 1 308 0
 821 0014 436A     		ldr	r3, [r0, #36]
 822              		.loc 1 307 0
 823 0016 8B43     		bics	r3, r3, r1
 824 0018 FBD1     		bne	.L55
 825              	.L57:
 826              		.loc 1 309 0
 827 001a 0023     		movs	r3, #0
 828 001c 4362     		str	r3, [r0, #36]
 829              		.loc 1 310 0
 830 001e FFF7FEBF 		b	chSchReadyI
 831              	.LVL56:
 832              	.L59:
 833              		.loc 1 306 0 discriminator 1
 834 0022 436A     		ldr	r3, [r0, #36]
 835              		.loc 1 305 0 discriminator 1
 836 0024 1942     		tst	r1, r3
 837 0026 F8D1     		bne	.L57
 838 0028 7047     		bx	lr
 839              		.cfi_endproc
 840              	.LFE302:
 841              		.size	chEvtSignalI, .-chEvtSignalI
 842 002a 00BF     		.section	.text.chEvtBroadcastFlags,"ax",%progbits
 843              		.align	1
 844              		.p2align 2,,3
 845              		.global	chEvtBroadcastFlags
 846              		.syntax unified
 847              		.thumb
 848              		.thumb_func
 849              		.fpu fpv4-sp-d16
 850              		.type	chEvtBroadcastFlags, %function
 851              	chEvtBroadcastFlags:
 852              	.LFB303:
 853              		.loc 1 327 0
 854              		.cfi_startproc
 855              		@ args = 0, pretend = 0, frame = 0
ARM GAS  /tmp/cc3blT9L.s 			page 16


 856              		@ frame_needed = 0, uses_anonymous_args = 0
 857              	.LVL57:
 858 0000 F8B5     		push	{r3, r4, r5, r6, r7, lr}
 859              		.cfi_def_cfa_offset 24
 860              		.cfi_offset 3, -24
 861              		.cfi_offset 4, -20
 862              		.cfi_offset 5, -16
 863              		.cfi_offset 6, -12
 864              		.cfi_offset 7, -8
 865              		.cfi_offset 14, -4
 866              	.LBB288:
 867              	.LBB289:
 868              	.LBB290:
 869              	.LBB291:
 870              		.loc 2 493 0
 871 0002 2023     		movs	r3, #32
 872              		.syntax unified
 873              	@ 493 "./RM18A-ChibiOS18-Core/chibios/os/common/ext/ARM/CMSIS/Core/Include/cmsis_gcc.h" 1
 874 0004 83F31188 		MSR basepri, r3
 875              	@ 0 "" 2
 876              	.LVL58:
 877              		.thumb
 878              		.syntax unified
 879              	.LBE291:
 880              	.LBE290:
 881              	.LBE289:
 882              	.LBE288:
 883              	.LBB292:
 884              	.LBB293:
 885              		.loc 1 231 0
 886 0008 0468     		ldr	r4, [r0]
 887              	.LVL59:
 888              		.loc 1 233 0
 889 000a A042     		cmp	r0, r4
 890 000c 21D0     		beq	.L62
 891 000e 0746     		mov	r7, r0
 892 0010 0D46     		mov	r5, r1
 893 0012 69B3     		cbz	r1, .L63
 894              	.LBB294:
 895              	.LBB295:
 896              		.loc 1 309 0
 897 0014 0026     		movs	r6, #0
 898 0016 04E0     		b	.L69
 899              	.LVL60:
 900              	.L79:
 901              		.loc 1 306 0
 902 0018 0B2A     		cmp	r2, #11
 903 001a 3CD0     		beq	.L82
 904              	.L67:
 905              	.LBE295:
 906              	.LBE294:
 907              		.loc 1 242 0
 908 001c 2468     		ldr	r4, [r4]
 909              	.LVL61:
 910              		.loc 1 233 0
 911 001e A742     		cmp	r7, r4
 912 0020 17D0     		beq	.L62
ARM GAS  /tmp/cc3blT9L.s 			page 17


 913              	.L69:
 914              		.loc 1 239 0
 915 0022 D4E90332 		ldrd	r3, r2, [r4, #12]
 916              		.loc 1 235 0
 917 0026 2B43     		orrs	r3, r3, r5
 918              		.loc 1 238 0
 919 0028 1542     		tst	r5, r2
 920              		.loc 1 235 0
 921 002a E360     		str	r3, [r4, #12]
 922              		.loc 1 238 0
 923 002c F6D0     		beq	.L67
 924              	.LBB300:
 925              	.LBB296:
 926              		.loc 1 303 0
 927 002e D4E90101 		ldrd	r0, r1, [r4, #4]
 928 0032 436B     		ldr	r3, [r0, #52]
 929              		.loc 1 305 0
 930 0034 90F82020 		ldrb	r2, [r0, #32]	@ zero_extendqisi2
 931              		.loc 1 303 0
 932 0038 0B43     		orrs	r3, r3, r1
 933              		.loc 1 305 0
 934 003a 0A2A     		cmp	r2, #10
 935              		.loc 1 303 0
 936 003c 4363     		str	r3, [r0, #52]
 937              		.loc 1 305 0
 938 003e EBD1     		bne	.L79
 939              		.loc 1 306 0
 940 0040 426A     		ldr	r2, [r0, #36]
 941              		.loc 1 305 0
 942 0042 1342     		tst	r3, r2
 943 0044 EAD0     		beq	.L67
 944              		.loc 1 309 0
 945 0046 4662     		str	r6, [r0, #36]
 946              		.loc 1 310 0
 947 0048 FFF7FEFF 		bl	chSchReadyI
 948              	.LVL62:
 949              	.L84:
 950              	.LBE296:
 951              	.LBE300:
 952              		.loc 1 242 0
 953 004c 2468     		ldr	r4, [r4]
 954              	.LVL63:
 955              		.loc 1 233 0
 956 004e A742     		cmp	r7, r4
 957 0050 E7D1     		bne	.L69
 958              	.LVL64:
 959              	.L62:
 960              	.LBE293:
 961              	.LBE292:
 962              		.loc 1 331 0
 963 0052 FFF7FEFF 		bl	chSchRescheduleS
 964              	.LVL65:
 965              	.LBB305:
 966              	.LBB306:
 967              	.LBB307:
 968              	.LBB308:
 969              	.LBB309:
ARM GAS  /tmp/cc3blT9L.s 			page 18


 970              		.loc 2 493 0
 971 0056 0023     		movs	r3, #0
 972              		.syntax unified
 973              	@ 493 "./RM18A-ChibiOS18-Core/chibios/os/common/ext/ARM/CMSIS/Core/Include/cmsis_gcc.h" 1
 974 0058 83F31188 		MSR basepri, r3
 975              	@ 0 "" 2
 976              	.LVL66:
 977              		.thumb
 978              		.syntax unified
 979              	.LBE309:
 980              	.LBE308:
 981              	.LBE307:
 982              	.LBE306:
 983              	.LBE305:
 984              		.loc 1 333 0
 985 005c F8BD     		pop	{r3, r4, r5, r6, r7, pc}
 986              	.LVL67:
 987              	.L83:
 988              	.LBB310:
 989              	.LBB304:
 990              	.LBB301:
 991              	.LBB297:
 992              		.loc 1 306 0
 993 005e 426A     		ldr	r2, [r0, #36]
 994              		.loc 1 305 0
 995 0060 1342     		tst	r3, r2
 996 0062 02D0     		beq	.L72
 997              	.L71:
 998              		.loc 1 309 0
 999 0064 4562     		str	r5, [r0, #36]
 1000              		.loc 1 310 0
 1001 0066 FFF7FEFF 		bl	chSchReadyI
 1002              	.LVL68:
 1003              	.L72:
 1004              	.LBE297:
 1005              	.LBE301:
 1006              		.loc 1 242 0
 1007 006a 2468     		ldr	r4, [r4]
 1008              	.LVL69:
 1009              		.loc 1 233 0
 1010 006c A742     		cmp	r7, r4
 1011 006e F0D0     		beq	.L62
 1012              	.L63:
 1013              	.LBB302:
 1014              	.LBB298:
 1015              		.loc 1 303 0
 1016 0070 D4E90103 		ldrd	r0, r3, [r4, #4]
 1017 0074 416B     		ldr	r1, [r0, #52]
 1018              		.loc 1 305 0
 1019 0076 90F82020 		ldrb	r2, [r0, #32]	@ zero_extendqisi2
 1020              		.loc 1 303 0
 1021 007a 0B43     		orrs	r3, r3, r1
 1022              		.loc 1 305 0
 1023 007c 0A2A     		cmp	r2, #10
 1024              		.loc 1 303 0
 1025 007e 4363     		str	r3, [r0, #52]
 1026              		.loc 1 305 0
ARM GAS  /tmp/cc3blT9L.s 			page 19


 1027 0080 EDD0     		beq	.L83
 1028              		.loc 1 306 0
 1029 0082 0B2A     		cmp	r2, #11
 1030 0084 F1D1     		bne	.L72
 1031              		.loc 1 308 0
 1032 0086 426A     		ldr	r2, [r0, #36]
 1033              		.loc 1 307 0
 1034 0088 32EA0303 		bics	r3, r2, r3
 1035 008c EAD0     		beq	.L71
 1036              	.LBE298:
 1037              	.LBE302:
 1038              		.loc 1 242 0
 1039 008e 2468     		ldr	r4, [r4]
 1040              	.LVL70:
 1041              		.loc 1 233 0
 1042 0090 A742     		cmp	r7, r4
 1043 0092 EDD1     		bne	.L63
 1044 0094 DDE7     		b	.L62
 1045              	.L82:
 1046              	.LBB303:
 1047              	.LBB299:
 1048              		.loc 1 308 0
 1049 0096 426A     		ldr	r2, [r0, #36]
 1050              		.loc 1 307 0
 1051 0098 32EA0303 		bics	r3, r2, r3
 1052 009c BED1     		bne	.L67
 1053              		.loc 1 309 0
 1054 009e 4662     		str	r6, [r0, #36]
 1055              		.loc 1 310 0
 1056 00a0 FFF7FEFF 		bl	chSchReadyI
 1057              	.LVL71:
 1058 00a4 D2E7     		b	.L84
 1059              	.LBE299:
 1060              	.LBE303:
 1061              	.LBE304:
 1062              	.LBE310:
 1063              		.cfi_endproc
 1064              	.LFE303:
 1065              		.size	chEvtBroadcastFlags, .-chEvtBroadcastFlags
 1066 00a6 00BF     		.section	.text.chEvtGetAndClearFlagsI,"ax",%progbits
 1067              		.align	1
 1068              		.p2align 2,,3
 1069              		.global	chEvtGetAndClearFlagsI
 1070              		.syntax unified
 1071              		.thumb
 1072              		.thumb_func
 1073              		.fpu fpv4-sp-d16
 1074              		.type	chEvtGetAndClearFlagsI, %function
 1075              	chEvtGetAndClearFlagsI:
 1076              	.LFB304:
 1077              		.loc 1 346 0
 1078              		.cfi_startproc
 1079              		@ args = 0, pretend = 0, frame = 0
 1080              		@ frame_needed = 0, uses_anonymous_args = 0
 1081              		@ link register save eliminated.
 1082              	.LVL72:
 1083              		.loc 1 352 0
ARM GAS  /tmp/cc3blT9L.s 			page 20


 1084 0000 D0E90323 		ldrd	r2, r3, [r0, #12]
 1085              		.loc 1 350 0
 1086 0004 0021     		movs	r1, #0
 1087 0006 C160     		str	r1, [r0, #12]
 1088              		.loc 1 353 0
 1089 0008 02EA0300 		and	r0, r2, r3
 1090              	.LVL73:
 1091 000c 7047     		bx	lr
 1092              		.cfi_endproc
 1093              	.LFE304:
 1094              		.size	chEvtGetAndClearFlagsI, .-chEvtGetAndClearFlagsI
 1095 000e 00BF     		.section	.text.chEvtDispatch,"ax",%progbits
 1096              		.align	1
 1097              		.p2align 2,,3
 1098              		.global	chEvtDispatch
 1099              		.syntax unified
 1100              		.thumb
 1101              		.thumb_func
 1102              		.fpu fpv4-sp-d16
 1103              		.type	chEvtDispatch, %function
 1104              	chEvtDispatch:
 1105              	.LFB305:
 1106              		.loc 1 364 0
 1107              		.cfi_startproc
 1108              		@ args = 0, pretend = 0, frame = 0
 1109              		@ frame_needed = 0, uses_anonymous_args = 0
 1110              	.LVL74:
 1111              		.loc 1 370 0
 1112 0000 B9B1     		cbz	r1, .L93
 1113              		.loc 1 364 0
 1114 0002 F8B5     		push	{r3, r4, r5, r6, r7, lr}
 1115              		.cfi_def_cfa_offset 24
 1116              		.cfi_offset 3, -24
 1117              		.cfi_offset 4, -20
 1118              		.cfi_offset 5, -16
 1119              		.cfi_offset 6, -12
 1120              		.cfi_offset 7, -8
 1121              		.cfi_offset 14, -4
 1122 0004 0746     		mov	r7, r0
 1123 0006 0D46     		mov	r5, r1
 1124              		.loc 1 369 0
 1125 0008 0024     		movs	r4, #0
 1126              		.loc 1 373 0
 1127 000a 0126     		movs	r6, #1
 1128              	.LVL75:
 1129              	.L87:
 1130              		.loc 1 371 0
 1131 000c 25FA04F3 		lsr	r3, r5, r4
 1132 0010 13F0010F 		tst	r3, #1
 1133              		.loc 1 373 0
 1134 0014 06FA04F2 		lsl	r2, r6, r4
 1135              		.loc 1 374 0
 1136 0018 2046     		mov	r0, r4
 1137              		.loc 1 371 0
 1138 001a 08D0     		beq	.L89
 1139              		.loc 1 374 0
 1140 001c 57F82430 		ldr	r3, [r7, r4, lsl #2]
ARM GAS  /tmp/cc3blT9L.s 			page 21


 1141              		.loc 1 373 0
 1142 0020 25EA0205 		bic	r5, r5, r2
 1143              	.LVL76:
 1144              		.loc 1 376 0
 1145 0024 0134     		adds	r4, r4, #1
 1146              	.LVL77:
 1147              		.loc 1 374 0
 1148 0026 9847     		blx	r3
 1149              	.LVL78:
 1150              		.loc 1 370 0
 1151 0028 002D     		cmp	r5, #0
 1152 002a EFD1     		bne	.L87
 1153              		.loc 1 378 0
 1154 002c F8BD     		pop	{r3, r4, r5, r6, r7, pc}
 1155              	.LVL79:
 1156              	.L89:
 1157              		.loc 1 376 0
 1158 002e 0134     		adds	r4, r4, #1
 1159              	.LVL80:
 1160 0030 ECE7     		b	.L87
 1161              	.LVL81:
 1162              	.L93:
 1163              		.cfi_def_cfa_offset 0
 1164              		.cfi_restore 3
 1165              		.cfi_restore 4
 1166              		.cfi_restore 5
 1167              		.cfi_restore 6
 1168              		.cfi_restore 7
 1169              		.cfi_restore 14
 1170 0032 7047     		bx	lr
 1171              		.cfi_endproc
 1172              	.LFE305:
 1173              		.size	chEvtDispatch, .-chEvtDispatch
 1174              		.section	.text.chEvtWaitOne,"ax",%progbits
 1175              		.align	1
 1176              		.p2align 2,,3
 1177              		.global	chEvtWaitOne
 1178              		.syntax unified
 1179              		.thumb
 1180              		.thumb_func
 1181              		.fpu fpv4-sp-d16
 1182              		.type	chEvtWaitOne, %function
 1183              	chEvtWaitOne:
 1184              	.LFB306:
 1185              		.loc 1 399 0
 1186              		.cfi_startproc
 1187              		@ args = 0, pretend = 0, frame = 0
 1188              		@ frame_needed = 0, uses_anonymous_args = 0
 1189              	.LVL82:
 1190 0000 38B5     		push	{r3, r4, r5, lr}
 1191              		.cfi_def_cfa_offset 16
 1192              		.cfi_offset 3, -16
 1193              		.cfi_offset 4, -12
 1194              		.cfi_offset 5, -8
 1195              		.cfi_offset 14, -4
 1196              		.loc 1 400 0
 1197 0002 0C4B     		ldr	r3, .L99
ARM GAS  /tmp/cc3blT9L.s 			page 22


 1198 0004 9D69     		ldr	r5, [r3, #24]
 1199              	.LVL83:
 1200              	.LBB311:
 1201              	.LBB312:
 1202              	.LBB313:
 1203              	.LBB314:
 1204              		.loc 2 493 0
 1205 0006 2023     		movs	r3, #32
 1206              		.syntax unified
 1207              	@ 493 "./RM18A-ChibiOS18-Core/chibios/os/common/ext/ARM/CMSIS/Core/Include/cmsis_gcc.h" 1
 1208 0008 83F31188 		MSR basepri, r3
 1209              	@ 0 "" 2
 1210              	.LVL84:
 1211              		.thumb
 1212              		.syntax unified
 1213              	.LBE314:
 1214              	.LBE313:
 1215              	.LBE312:
 1216              	.LBE311:
 1217              		.loc 1 404 0
 1218 000c 6B6B     		ldr	r3, [r5, #52]
 1219              	.LVL85:
 1220              		.loc 1 405 0
 1221 000e 13EA0004 		ands	r4, r3, r0
 1222              	.LVL86:
 1223 0012 06D1     		bne	.L97
 1224 0014 0446     		mov	r4, r0
 1225              	.LVL87:
 1226              		.loc 1 406 0
 1227 0016 6862     		str	r0, [r5, #36]
 1228              		.loc 1 407 0
 1229 0018 0A20     		movs	r0, #10
 1230              	.LVL88:
 1231 001a FFF7FEFF 		bl	chSchGoSleepS
 1232              	.LVL89:
 1233              		.loc 1 408 0
 1234 001e 6B6B     		ldr	r3, [r5, #52]
 1235 0020 1C40     		ands	r4, r4, r3
 1236              	.LVL90:
 1237              	.L97:
 1238              		.loc 1 410 0
 1239 0022 6042     		negs	r0, r4
 1240 0024 2040     		ands	r0, r0, r4
 1241              	.LVL91:
 1242              		.loc 1 411 0
 1243 0026 23EA0003 		bic	r3, r3, r0
 1244 002a 6B63     		str	r3, [r5, #52]
 1245              	.LVL92:
 1246              	.LBB315:
 1247              	.LBB316:
 1248              	.LBB317:
 1249              	.LBB318:
 1250              	.LBB319:
 1251              		.loc 2 493 0
 1252 002c 0023     		movs	r3, #0
 1253              		.syntax unified
 1254              	@ 493 "./RM18A-ChibiOS18-Core/chibios/os/common/ext/ARM/CMSIS/Core/Include/cmsis_gcc.h" 1
ARM GAS  /tmp/cc3blT9L.s 			page 23


 1255 002e 83F31188 		MSR basepri, r3
 1256              	@ 0 "" 2
 1257              	.LVL93:
 1258              		.thumb
 1259              		.syntax unified
 1260              	.LBE319:
 1261              	.LBE318:
 1262              	.LBE317:
 1263              	.LBE316:
 1264              	.LBE315:
 1265              		.loc 1 415 0
 1266 0032 38BD     		pop	{r3, r4, r5, pc}
 1267              	.LVL94:
 1268              	.L100:
 1269              		.align	2
 1270              	.L99:
 1271 0034 00000000 		.word	ch
 1272              		.cfi_endproc
 1273              	.LFE306:
 1274              		.size	chEvtWaitOne, .-chEvtWaitOne
 1275              		.section	.text.chEvtWaitAny,"ax",%progbits
 1276              		.align	1
 1277              		.p2align 2,,3
 1278              		.global	chEvtWaitAny
 1279              		.syntax unified
 1280              		.thumb
 1281              		.thumb_func
 1282              		.fpu fpv4-sp-d16
 1283              		.type	chEvtWaitAny, %function
 1284              	chEvtWaitAny:
 1285              	.LFB307:
 1286              		.loc 1 429 0
 1287              		.cfi_startproc
 1288              		@ args = 0, pretend = 0, frame = 0
 1289              		@ frame_needed = 0, uses_anonymous_args = 0
 1290              	.LVL95:
 1291 0000 38B5     		push	{r3, r4, r5, lr}
 1292              		.cfi_def_cfa_offset 16
 1293              		.cfi_offset 3, -16
 1294              		.cfi_offset 4, -12
 1295              		.cfi_offset 5, -8
 1296              		.cfi_offset 14, -4
 1297              		.loc 1 430 0
 1298 0002 0C4B     		ldr	r3, .L104
 1299 0004 9D69     		ldr	r5, [r3, #24]
 1300              	.LVL96:
 1301              	.LBB320:
 1302              	.LBB321:
 1303              	.LBB322:
 1304              	.LBB323:
 1305              		.loc 2 493 0
 1306 0006 2023     		movs	r3, #32
 1307              		.syntax unified
 1308              	@ 493 "./RM18A-ChibiOS18-Core/chibios/os/common/ext/ARM/CMSIS/Core/Include/cmsis_gcc.h" 1
 1309 0008 83F31188 		MSR basepri, r3
 1310              	@ 0 "" 2
 1311              	.LVL97:
ARM GAS  /tmp/cc3blT9L.s 			page 24


 1312              		.thumb
 1313              		.syntax unified
 1314              	.LBE323:
 1315              	.LBE322:
 1316              	.LBE321:
 1317              	.LBE320:
 1318              		.loc 1 434 0
 1319 000c 6B6B     		ldr	r3, [r5, #52]
 1320              	.LVL98:
 1321              		.loc 1 435 0
 1322 000e 13EA0004 		ands	r4, r3, r0
 1323              	.LVL99:
 1324 0012 06D1     		bne	.L102
 1325 0014 0446     		mov	r4, r0
 1326              	.LVL100:
 1327              		.loc 1 436 0
 1328 0016 6862     		str	r0, [r5, #36]
 1329              		.loc 1 437 0
 1330 0018 0A20     		movs	r0, #10
 1331              	.LVL101:
 1332 001a FFF7FEFF 		bl	chSchGoSleepS
 1333              	.LVL102:
 1334              		.loc 1 438 0
 1335 001e 6B6B     		ldr	r3, [r5, #52]
 1336 0020 1C40     		ands	r4, r4, r3
 1337              	.LVL103:
 1338              	.L102:
 1339              		.loc 1 440 0
 1340 0022 23EA0403 		bic	r3, r3, r4
 1341 0026 6B63     		str	r3, [r5, #52]
 1342              	.LVL104:
 1343              	.LBB324:
 1344              	.LBB325:
 1345              	.LBB326:
 1346              	.LBB327:
 1347              	.LBB328:
 1348              		.loc 2 493 0
 1349 0028 0023     		movs	r3, #0
 1350              		.syntax unified
 1351              	@ 493 "./RM18A-ChibiOS18-Core/chibios/os/common/ext/ARM/CMSIS/Core/Include/cmsis_gcc.h" 1
 1352 002a 83F31188 		MSR basepri, r3
 1353              	@ 0 "" 2
 1354              	.LVL105:
 1355              		.thumb
 1356              		.syntax unified
 1357              	.LBE328:
 1358              	.LBE327:
 1359              	.LBE326:
 1360              	.LBE325:
 1361              	.LBE324:
 1362              		.loc 1 444 0
 1363 002e 2046     		mov	r0, r4
 1364 0030 38BD     		pop	{r3, r4, r5, pc}
 1365              	.LVL106:
 1366              	.L105:
 1367 0032 00BF     		.align	2
 1368              	.L104:
ARM GAS  /tmp/cc3blT9L.s 			page 25


 1369 0034 00000000 		.word	ch
 1370              		.cfi_endproc
 1371              	.LFE307:
 1372              		.size	chEvtWaitAny, .-chEvtWaitAny
 1373              		.section	.text.chEvtWaitAll,"ax",%progbits
 1374              		.align	1
 1375              		.p2align 2,,3
 1376              		.global	chEvtWaitAll
 1377              		.syntax unified
 1378              		.thumb
 1379              		.thumb_func
 1380              		.fpu fpv4-sp-d16
 1381              		.type	chEvtWaitAll, %function
 1382              	chEvtWaitAll:
 1383              	.LFB308:
 1384              		.loc 1 457 0
 1385              		.cfi_startproc
 1386              		@ args = 0, pretend = 0, frame = 0
 1387              		@ frame_needed = 0, uses_anonymous_args = 0
 1388              	.LVL107:
 1389 0000 38B5     		push	{r3, r4, r5, lr}
 1390              		.cfi_def_cfa_offset 16
 1391              		.cfi_offset 3, -16
 1392              		.cfi_offset 4, -12
 1393              		.cfi_offset 5, -8
 1394              		.cfi_offset 14, -4
 1395              		.loc 1 458 0
 1396 0002 0B4B     		ldr	r3, .L109
 1397              		.loc 1 457 0
 1398 0004 0446     		mov	r4, r0
 1399              		.loc 1 458 0
 1400 0006 9D69     		ldr	r5, [r3, #24]
 1401              	.LVL108:
 1402              	.LBB329:
 1403              	.LBB330:
 1404              	.LBB331:
 1405              	.LBB332:
 1406              		.loc 2 493 0
 1407 0008 2023     		movs	r3, #32
 1408              		.syntax unified
 1409              	@ 493 "./RM18A-ChibiOS18-Core/chibios/os/common/ext/ARM/CMSIS/Core/Include/cmsis_gcc.h" 1
 1410 000a 83F31188 		MSR basepri, r3
 1411              	@ 0 "" 2
 1412              	.LVL109:
 1413              		.thumb
 1414              		.syntax unified
 1415              	.LBE332:
 1416              	.LBE331:
 1417              	.LBE330:
 1418              	.LBE329:
 1419              		.loc 1 461 0
 1420 000e 6B6B     		ldr	r3, [r5, #52]
 1421 0010 30EA0302 		bics	r2, r0, r3
 1422 0014 04D0     		beq	.L107
 1423              		.loc 1 462 0
 1424 0016 6862     		str	r0, [r5, #36]
 1425              		.loc 1 463 0
ARM GAS  /tmp/cc3blT9L.s 			page 26


 1426 0018 0B20     		movs	r0, #11
 1427              	.LVL110:
 1428 001a FFF7FEFF 		bl	chSchGoSleepS
 1429              	.LVL111:
 1430 001e 6B6B     		ldr	r3, [r5, #52]
 1431              	.L107:
 1432              		.loc 1 465 0
 1433 0020 23EA0403 		bic	r3, r3, r4
 1434 0024 6B63     		str	r3, [r5, #52]
 1435              	.LVL112:
 1436              	.LBB333:
 1437              	.LBB334:
 1438              	.LBB335:
 1439              	.LBB336:
 1440              	.LBB337:
 1441              		.loc 2 493 0
 1442 0026 0023     		movs	r3, #0
 1443              		.syntax unified
 1444              	@ 493 "./RM18A-ChibiOS18-Core/chibios/os/common/ext/ARM/CMSIS/Core/Include/cmsis_gcc.h" 1
 1445 0028 83F31188 		MSR basepri, r3
 1446              	@ 0 "" 2
 1447              	.LVL113:
 1448              		.thumb
 1449              		.syntax unified
 1450              	.LBE337:
 1451              	.LBE336:
 1452              	.LBE335:
 1453              	.LBE334:
 1454              	.LBE333:
 1455              		.loc 1 469 0
 1456 002c 2046     		mov	r0, r4
 1457 002e 38BD     		pop	{r3, r4, r5, pc}
 1458              	.LVL114:
 1459              	.L110:
 1460              		.align	2
 1461              	.L109:
 1462 0030 00000000 		.word	ch
 1463              		.cfi_endproc
 1464              	.LFE308:
 1465              		.size	chEvtWaitAll, .-chEvtWaitAll
 1466              		.section	.text.chEvtWaitOneTimeout,"ax",%progbits
 1467              		.align	1
 1468              		.p2align 2,,3
 1469              		.global	chEvtWaitOneTimeout
 1470              		.syntax unified
 1471              		.thumb
 1472              		.thumb_func
 1473              		.fpu fpv4-sp-d16
 1474              		.type	chEvtWaitOneTimeout, %function
 1475              	chEvtWaitOneTimeout:
 1476              	.LFB309:
 1477              		.loc 1 495 0
 1478              		.cfi_startproc
 1479              		@ args = 0, pretend = 0, frame = 0
 1480              		@ frame_needed = 0, uses_anonymous_args = 0
 1481              	.LVL115:
 1482              		.loc 1 496 0
ARM GAS  /tmp/cc3blT9L.s 			page 27


 1483 0000 114B     		ldr	r3, .L118
 1484              		.loc 1 495 0
 1485 0002 70B5     		push	{r4, r5, r6, lr}
 1486              		.cfi_def_cfa_offset 16
 1487              		.cfi_offset 4, -16
 1488              		.cfi_offset 5, -12
 1489              		.cfi_offset 6, -8
 1490              		.cfi_offset 14, -4
 1491              		.loc 1 496 0
 1492 0004 9E69     		ldr	r6, [r3, #24]
 1493              	.LVL116:
 1494              	.LBB338:
 1495              	.LBB339:
 1496              	.LBB340:
 1497              	.LBB341:
 1498              		.loc 2 493 0
 1499 0006 2023     		movs	r3, #32
 1500              		.syntax unified
 1501              	@ 493 "./RM18A-ChibiOS18-Core/chibios/os/common/ext/ARM/CMSIS/Core/Include/cmsis_gcc.h" 1
 1502 0008 83F31188 		MSR basepri, r3
 1503              	@ 0 "" 2
 1504              	.LVL117:
 1505              		.thumb
 1506              		.syntax unified
 1507              	.LBE341:
 1508              	.LBE340:
 1509              	.LBE339:
 1510              	.LBE338:
 1511              		.loc 1 500 0
 1512 000c 736B     		ldr	r3, [r6, #52]
 1513              	.LVL118:
 1514              		.loc 1 501 0
 1515 000e 13EA0004 		ands	r4, r3, r0
 1516              	.LVL119:
 1517 0012 0ED1     		bne	.L112
 1518              		.loc 1 502 0
 1519 0014 19B9     		cbnz	r1, .L113
 1520              	.LVL120:
 1521              	.L117:
 1522              	.LBB342:
 1523              	.LBB343:
 1524              	.LBB344:
 1525              	.LBB345:
 1526              	.LBB346:
 1527              		.loc 2 493 0
 1528              		.syntax unified
 1529              	@ 493 "./RM18A-ChibiOS18-Core/chibios/os/common/ext/ARM/CMSIS/Core/Include/cmsis_gcc.h" 1
 1530 0016 84F31188 		MSR basepri, r4
 1531              	@ 0 "" 2
 1532              	.LVL121:
 1533              		.thumb
 1534              		.syntax unified
 1535              	.LBE346:
 1536              	.LBE345:
 1537              	.LBE344:
 1538              	.LBE343:
 1539              	.LBE342:
ARM GAS  /tmp/cc3blT9L.s 			page 28


 1540              		.loc 1 518 0
 1541 001a 2046     		mov	r0, r4
 1542 001c 70BD     		pop	{r4, r5, r6, pc}
 1543              	.LVL122:
 1544              	.L113:
 1545              		.loc 1 506 0
 1546 001e 7062     		str	r0, [r6, #36]
 1547 0020 0546     		mov	r5, r0
 1548              		.loc 1 507 0
 1549 0022 0A20     		movs	r0, #10
 1550              	.LVL123:
 1551 0024 FFF7FEFF 		bl	chSchGoSleepTimeoutS
 1552              	.LVL124:
 1553 0028 0028     		cmp	r0, #0
 1554 002a F4DB     		blt	.L117
 1555              		.loc 1 511 0
 1556 002c 736B     		ldr	r3, [r6, #52]
 1557 002e 03EA0504 		and	r4, r3, r5
 1558              	.LVL125:
 1559              	.L112:
 1560              		.loc 1 513 0
 1561 0032 6242     		negs	r2, r4
 1562 0034 1440     		ands	r4, r4, r2
 1563              	.LVL126:
 1564              		.loc 1 514 0
 1565 0036 23EA0403 		bic	r3, r3, r4
 1566 003a 7363     		str	r3, [r6, #52]
 1567              	.LVL127:
 1568              	.LBB347:
 1569              	.LBB348:
 1570              	.LBB349:
 1571              	.LBB350:
 1572              	.LBB351:
 1573              		.loc 2 493 0
 1574 003c 0023     		movs	r3, #0
 1575              		.syntax unified
 1576              	@ 493 "./RM18A-ChibiOS18-Core/chibios/os/common/ext/ARM/CMSIS/Core/Include/cmsis_gcc.h" 1
 1577 003e 83F31188 		MSR basepri, r3
 1578              	@ 0 "" 2
 1579              	.LVL128:
 1580              		.thumb
 1581              		.syntax unified
 1582              	.LBE351:
 1583              	.LBE350:
 1584              	.LBE349:
 1585              	.LBE348:
 1586              	.LBE347:
 1587              		.loc 1 518 0
 1588 0042 2046     		mov	r0, r4
 1589 0044 70BD     		pop	{r4, r5, r6, pc}
 1590              	.LVL129:
 1591              	.L119:
 1592 0046 00BF     		.align	2
 1593              	.L118:
 1594 0048 00000000 		.word	ch
 1595              		.cfi_endproc
 1596              	.LFE309:
ARM GAS  /tmp/cc3blT9L.s 			page 29


 1597              		.size	chEvtWaitOneTimeout, .-chEvtWaitOneTimeout
 1598              		.section	.text.chEvtWaitAnyTimeout,"ax",%progbits
 1599              		.align	1
 1600              		.p2align 2,,3
 1601              		.global	chEvtWaitAnyTimeout
 1602              		.syntax unified
 1603              		.thumb
 1604              		.thumb_func
 1605              		.fpu fpv4-sp-d16
 1606              		.type	chEvtWaitAnyTimeout, %function
 1607              	chEvtWaitAnyTimeout:
 1608              	.LFB310:
 1609              		.loc 1 538 0
 1610              		.cfi_startproc
 1611              		@ args = 0, pretend = 0, frame = 0
 1612              		@ frame_needed = 0, uses_anonymous_args = 0
 1613              	.LVL130:
 1614              		.loc 1 539 0
 1615 0000 104B     		ldr	r3, .L127
 1616              		.loc 1 538 0
 1617 0002 70B5     		push	{r4, r5, r6, lr}
 1618              		.cfi_def_cfa_offset 16
 1619              		.cfi_offset 4, -16
 1620              		.cfi_offset 5, -12
 1621              		.cfi_offset 6, -8
 1622              		.cfi_offset 14, -4
 1623              		.loc 1 539 0
 1624 0004 9E69     		ldr	r6, [r3, #24]
 1625              	.LVL131:
 1626              	.LBB352:
 1627              	.LBB353:
 1628              	.LBB354:
 1629              	.LBB355:
 1630              		.loc 2 493 0
 1631 0006 2023     		movs	r3, #32
 1632              		.syntax unified
 1633              	@ 493 "./RM18A-ChibiOS18-Core/chibios/os/common/ext/ARM/CMSIS/Core/Include/cmsis_gcc.h" 1
 1634 0008 83F31188 		MSR basepri, r3
 1635              	@ 0 "" 2
 1636              	.LVL132:
 1637              		.thumb
 1638              		.syntax unified
 1639              	.LBE355:
 1640              	.LBE354:
 1641              	.LBE353:
 1642              	.LBE352:
 1643              		.loc 1 543 0
 1644 000c 736B     		ldr	r3, [r6, #52]
 1645              	.LVL133:
 1646              		.loc 1 544 0
 1647 000e 13EA0005 		ands	r5, r3, r0
 1648              	.LVL134:
 1649 0012 0ED1     		bne	.L121
 1650              		.loc 1 545 0
 1651 0014 19B9     		cbnz	r1, .L122
 1652              	.LVL135:
 1653              	.L126:
ARM GAS  /tmp/cc3blT9L.s 			page 30


 1654              	.LBB356:
 1655              	.LBB357:
 1656              	.LBB358:
 1657              	.LBB359:
 1658              	.LBB360:
 1659              		.loc 2 493 0
 1660              		.syntax unified
 1661              	@ 493 "./RM18A-ChibiOS18-Core/chibios/os/common/ext/ARM/CMSIS/Core/Include/cmsis_gcc.h" 1
 1662 0016 85F31188 		MSR basepri, r5
 1663              	@ 0 "" 2
 1664              	.LVL136:
 1665              		.thumb
 1666              		.syntax unified
 1667              	.LBE360:
 1668              	.LBE359:
 1669              	.LBE358:
 1670              	.LBE357:
 1671              	.LBE356:
 1672              		.loc 1 560 0
 1673 001a 2846     		mov	r0, r5
 1674 001c 70BD     		pop	{r4, r5, r6, pc}
 1675              	.LVL137:
 1676              	.L122:
 1677              		.loc 1 549 0
 1678 001e 7062     		str	r0, [r6, #36]
 1679 0020 0446     		mov	r4, r0
 1680              		.loc 1 550 0
 1681 0022 0A20     		movs	r0, #10
 1682              	.LVL138:
 1683 0024 FFF7FEFF 		bl	chSchGoSleepTimeoutS
 1684              	.LVL139:
 1685 0028 0028     		cmp	r0, #0
 1686 002a F4DB     		blt	.L126
 1687              		.loc 1 554 0
 1688 002c 736B     		ldr	r3, [r6, #52]
 1689 002e 03EA0405 		and	r5, r3, r4
 1690              	.LVL140:
 1691              	.L121:
 1692              		.loc 1 556 0
 1693 0032 23EA0503 		bic	r3, r3, r5
 1694 0036 7363     		str	r3, [r6, #52]
 1695              	.LVL141:
 1696              	.LBB361:
 1697              	.LBB362:
 1698              	.LBB363:
 1699              	.LBB364:
 1700              	.LBB365:
 1701              		.loc 2 493 0
 1702 0038 0023     		movs	r3, #0
 1703              		.syntax unified
 1704              	@ 493 "./RM18A-ChibiOS18-Core/chibios/os/common/ext/ARM/CMSIS/Core/Include/cmsis_gcc.h" 1
 1705 003a 83F31188 		MSR basepri, r3
 1706              	@ 0 "" 2
 1707              	.LVL142:
 1708              		.thumb
 1709              		.syntax unified
 1710              	.LBE365:
ARM GAS  /tmp/cc3blT9L.s 			page 31


 1711              	.LBE364:
 1712              	.LBE363:
 1713              	.LBE362:
 1714              	.LBE361:
 1715              		.loc 1 560 0
 1716 003e 2846     		mov	r0, r5
 1717 0040 70BD     		pop	{r4, r5, r6, pc}
 1718              	.LVL143:
 1719              	.L128:
 1720 0042 00BF     		.align	2
 1721              	.L127:
 1722 0044 00000000 		.word	ch
 1723              		.cfi_endproc
 1724              	.LFE310:
 1725              		.size	chEvtWaitAnyTimeout, .-chEvtWaitAnyTimeout
 1726              		.section	.text.chEvtWaitAllTimeout,"ax",%progbits
 1727              		.align	1
 1728              		.p2align 2,,3
 1729              		.global	chEvtWaitAllTimeout
 1730              		.syntax unified
 1731              		.thumb
 1732              		.thumb_func
 1733              		.fpu fpv4-sp-d16
 1734              		.type	chEvtWaitAllTimeout, %function
 1735              	chEvtWaitAllTimeout:
 1736              	.LFB311:
 1737              		.loc 1 579 0
 1738              		.cfi_startproc
 1739              		@ args = 0, pretend = 0, frame = 0
 1740              		@ frame_needed = 0, uses_anonymous_args = 0
 1741              	.LVL144:
 1742 0000 38B5     		push	{r3, r4, r5, lr}
 1743              		.cfi_def_cfa_offset 16
 1744              		.cfi_offset 3, -16
 1745              		.cfi_offset 4, -12
 1746              		.cfi_offset 5, -8
 1747              		.cfi_offset 14, -4
 1748              		.loc 1 580 0
 1749 0002 104B     		ldr	r3, .L136
 1750              		.loc 1 579 0
 1751 0004 0446     		mov	r4, r0
 1752              		.loc 1 580 0
 1753 0006 9D69     		ldr	r5, [r3, #24]
 1754              	.LVL145:
 1755              	.LBB366:
 1756              	.LBB367:
 1757              	.LBB368:
 1758              	.LBB369:
 1759              		.loc 2 493 0
 1760 0008 2023     		movs	r3, #32
 1761              		.syntax unified
 1762              	@ 493 "./RM18A-ChibiOS18-Core/chibios/os/common/ext/ARM/CMSIS/Core/Include/cmsis_gcc.h" 1
 1763 000a 83F31188 		MSR basepri, r3
 1764              	@ 0 "" 2
 1765              	.LVL146:
 1766              		.thumb
 1767              		.syntax unified
ARM GAS  /tmp/cc3blT9L.s 			page 32


 1768              	.LBE369:
 1769              	.LBE368:
 1770              	.LBE367:
 1771              	.LBE366:
 1772              		.loc 1 583 0
 1773 000e 6B6B     		ldr	r3, [r5, #52]
 1774 0010 30EA0302 		bics	r2, r0, r3
 1775 0014 0BD0     		beq	.L130
 1776 0016 0846     		mov	r0, r1
 1777              	.LVL147:
 1778              		.loc 1 584 0
 1779 0018 11B9     		cbnz	r1, .L131
 1780              	.LVL148:
 1781              	.L135:
 1782              	.LBB370:
 1783              	.LBB371:
 1784              	.LBB372:
 1785              	.LBB373:
 1786              	.LBB374:
 1787              		.loc 2 493 0
 1788              		.syntax unified
 1789              	@ 493 "./RM18A-ChibiOS18-Core/chibios/os/common/ext/ARM/CMSIS/Core/Include/cmsis_gcc.h" 1
 1790 001a 80F31188 		MSR basepri, r0
 1791              	@ 0 "" 2
 1792              		.thumb
 1793              		.syntax unified
 1794              	.LBE374:
 1795              	.LBE373:
 1796              	.LBE372:
 1797              	.LBE371:
 1798              	.LBE370:
 1799              		.loc 1 598 0
 1800 001e 38BD     		pop	{r3, r4, r5, pc}
 1801              	.LVL149:
 1802              	.L131:
 1803              		.loc 1 588 0
 1804 0020 6C62     		str	r4, [r5, #36]
 1805              		.loc 1 589 0
 1806 0022 0B20     		movs	r0, #11
 1807              	.LVL150:
 1808 0024 FFF7FEFF 		bl	chSchGoSleepTimeoutS
 1809              	.LVL151:
 1810 0028 0028     		cmp	r0, #0
 1811 002a 08DB     		blt	.L133
 1812 002c 6B6B     		ldr	r3, [r5, #52]
 1813              	.L130:
 1814              		.loc 1 594 0
 1815 002e 23EA0403 		bic	r3, r3, r4
 1816 0032 6B63     		str	r3, [r5, #52]
 1817              	.LVL152:
 1818              	.LBB379:
 1819              	.LBB380:
 1820              	.LBB381:
 1821              	.LBB382:
 1822              	.LBB383:
 1823              		.loc 2 493 0
 1824 0034 0023     		movs	r3, #0
ARM GAS  /tmp/cc3blT9L.s 			page 33


 1825              		.syntax unified
 1826              	@ 493 "./RM18A-ChibiOS18-Core/chibios/os/common/ext/ARM/CMSIS/Core/Include/cmsis_gcc.h" 1
 1827 0036 83F31188 		MSR basepri, r3
 1828              	@ 0 "" 2
 1829              	.LVL153:
 1830              		.thumb
 1831              		.syntax unified
 1832              	.LBE383:
 1833              	.LBE382:
 1834              	.LBE381:
 1835              	.LBE380:
 1836              	.LBE379:
 1837              		.loc 1 597 0
 1838 003a 2046     		mov	r0, r4
 1839              		.loc 1 598 0
 1840 003c 38BD     		pop	{r3, r4, r5, pc}
 1841              	.LVL154:
 1842              	.L133:
 1843              	.LBB384:
 1844              	.LBB378:
 1845              	.LBB377:
 1846              	.LBB376:
 1847              	.LBB375:
 1848              		.loc 2 493 0
 1849 003e 0020     		movs	r0, #0
 1850 0040 EBE7     		b	.L135
 1851              	.L137:
 1852 0042 00BF     		.align	2
 1853              	.L136:
 1854 0044 00000000 		.word	ch
 1855              	.LBE375:
 1856              	.LBE376:
 1857              	.LBE377:
 1858              	.LBE378:
 1859              	.LBE384:
 1860              		.cfi_endproc
 1861              	.LFE311:
 1862              		.size	chEvtWaitAllTimeout, .-chEvtWaitAllTimeout
 1863              		.text
 1864              	.Letext0:
 1865              		.file 4 "/usr/lib/gcc/arm-none-eabi/7.3.1/include/stddef.h"
 1866              		.file 5 "/usr/arm-none-eabi/include/machine/_default_types.h"
 1867              		.file 6 "/usr/arm-none-eabi/include/sys/_stdint.h"
 1868              		.file 7 "./RM18A-ChibiOS18-Core/chibios/os/common/ports/ARMCMx/compilers/GCC/chtypes.h"
 1869              		.file 8 "./RM18A-ChibiOS18-Core/chibios/os/rt/include/chsystypes.h"
 1870              		.file 9 "./RM18A-ChibiOS18-Core/chibios/os/rt/include/chschd.h"
 1871              		.file 10 "./RM18A-ChibiOS18-Core/chibios/os/rt/include/chtime.h"
 1872              		.file 11 "./RM18A-ChibiOS18-Core/chibios/os/common/ext/ARM/CMSIS/Core/Include/core_cm4.h"
 1873              		.file 12 "./RM18A-ChibiOS18-Core/chibios/os/common/ext/ST/STM32F4xx/system_stm32f4xx.h"
 1874              		.file 13 "./RM18A-ChibiOS18-Core/chibios/os/common/ports/ARMCMx/chcore.h"
 1875              		.file 14 "./RM18A-ChibiOS18-Core/chibios/os/common/ports/ARMCMx/chcore_v7m.h"
 1876              		.file 15 "./RM18A-ChibiOS18-Core/chibios/os/rt/include/chtm.h"
 1877              		.file 16 "./RM18A-ChibiOS18-Core/chibios/os/rt/include/chsem.h"
 1878              		.file 17 "./RM18A-ChibiOS18-Core/chibios/os/rt/include/chmtx.h"
 1879              		.file 18 "./RM18A-ChibiOS18-Core/chibios/os/rt/include/chsys.h"
 1880              		.file 19 "./RM18A-ChibiOS18-Core/chibios/os/rt/include/chregistry.h"
 1881              		.file 20 "./RM18A-ChibiOS18-Core/chibios/os/oslib/include/chmemcore.h"
ARM GAS  /tmp/cc3blT9L.s 			page 34


 1882              		.file 21 "./RM18A-ChibiOS18-Core/chibios/os/oslib/include/chmempools.h"
 1883              		.file 22 "./RM18A-ChibiOS18-Core/chibios/os/oslib/include/chfactory.h"