ARM GAS  /tmp/ccDpNQQg.s 			page 1


   1              		.cpu cortex-m4
   2              		.eabi_attribute 27, 1
   3              		.eabi_attribute 28, 1
   4              		.eabi_attribute 20, 1
   5              		.eabi_attribute 21, 1
   6              		.eabi_attribute 23, 3
   7              		.eabi_attribute 24, 1
   8              		.eabi_attribute 25, 1
   9              		.eabi_attribute 26, 1
  10              		.eabi_attribute 30, 2
  11              		.eabi_attribute 34, 1
  12              		.eabi_attribute 18, 4
  13              		.file	"chfactory.c"
  14              		.text
  15              	.Ltext0:
  16              		.cfi_sections	.debug_frame
  17              		.section	.text.chCoreAllocAlignedI,"ax",%progbits
  18              		.align	1
  19              		.p2align 2,,3
  20              		.syntax unified
  21              		.thumb
  22              		.thumb_func
  23              		.fpu fpv4-sp-d16
  24              		.type	chCoreAllocAlignedI, %function
  25              	chCoreAllocAlignedI:
  26              	.LFB249:
  27              		.file 1 "./RM18A-ChibiOS18-Core/chibios/os/oslib/include/chmemcore.h"
  28              		.loc 1 135 0
  29              		.cfi_startproc
  30              		@ args = 0, pretend = 0, frame = 0
  31              		@ frame_needed = 0, uses_anonymous_args = 0
  32              		@ link register save eliminated.
  33              	.LVL0:
  34              		.loc 1 137 0
  35 0000 0022     		movs	r2, #0
  36 0002 FFF7FEBF 		b	chCoreAllocAlignedWithOffsetI
  37              	.LVL1:
  38              		.cfi_endproc
  39              	.LFE249:
  40              		.size	chCoreAllocAlignedI, .-chCoreAllocAlignedI
  41 0006 00BF     		.section	.text._factory_init,"ax",%progbits
  42              		.align	1
  43              		.p2align 2,,3
  44              		.global	_factory_init
  45              		.syntax unified
  46              		.thumb
  47              		.thumb_func
  48              		.fpu fpv4-sp-d16
  49              		.type	_factory_init, %function
  50              	_factory_init:
  51              	.LFB302:
  52              		.file 2 "./RM18A-ChibiOS18-Core/chibios/os/oslib/src/chfactory.c"
  53              		.loc 2 245 0
  54              		.cfi_startproc
  55              		@ args = 0, pretend = 0, frame = 0
  56              		@ frame_needed = 0, uses_anonymous_args = 0
  57 0000 70B5     		push	{r4, r5, r6, lr}
ARM GAS  /tmp/ccDpNQQg.s 			page 2


  58              		.cfi_def_cfa_offset 16
  59              		.cfi_offset 4, -16
  60              		.cfi_offset 5, -12
  61              		.cfi_offset 6, -8
  62              		.cfi_offset 14, -4
  63              		.loc 2 248 0
  64 0002 134C     		ldr	r4, .L5
  65              	.LBB52:
  66              	.LBB53:
  67              		.file 3 "./RM18A-ChibiOS18-Core/chibios/os/oslib/include/chmempools.h"
  68              		.loc 3 193 0
  69 0004 134D     		ldr	r5, .L5+4
  70              	.LBE53:
  71              	.LBE52:
  72              		.loc 2 248 0
  73 0006 2046     		mov	r0, r4
  74 0008 FFF7FEFF 		bl	chMtxObjectInit
  75              	.LVL2:
  76              	.LBB56:
  77              	.LBB57:
  78              		.loc 2 88 0
  79 000c 04F11006 		add	r6, r4, #16
  80              	.LBE57:
  81              	.LBE56:
  82              	.LBB59:
  83              	.LBB54:
  84              		.loc 3 193 0
  85 0010 2B46     		mov	r3, r5
  86 0012 04F11400 		add	r0, r4, #20
  87 0016 0422     		movs	r2, #4
  88 0018 1421     		movs	r1, #20
  89              	.LBE54:
  90              	.LBE59:
  91              	.LBB60:
  92              	.LBB58:
  93              		.loc 2 88 0
  94 001a 2661     		str	r6, [r4, #16]
  95              	.LVL3:
  96              	.LBE58:
  97              	.LBE60:
  98              	.LBB61:
  99              	.LBB55:
 100              		.loc 3 193 0
 101 001c FFF7FEFF 		bl	chPoolObjectInitAligned
 102              	.LVL4:
 103              	.LBE55:
 104              	.LBE61:
 105              	.LBB62:
 106              	.LBB63:
 107              		.loc 2 88 0
 108 0020 04F12406 		add	r6, r4, #36
 109              	.LBE63:
 110              	.LBE62:
 111              	.LBB64:
 112              	.LBB65:
 113              		.loc 3 193 0
 114 0024 2B46     		mov	r3, r5
ARM GAS  /tmp/ccDpNQQg.s 			page 3


 115 0026 0422     		movs	r2, #4
 116 0028 1C21     		movs	r1, #28
 117              	.LBE65:
 118              	.LBE64:
 119              	.LBB68:
 120              	.LBB69:
 121              		.loc 2 88 0
 122 002a 04F12805 		add	r5, r4, #40
 123              	.LBE69:
 124              	.LBE68:
 125              	.LBB71:
 126              	.LBB66:
 127              		.loc 3 193 0
 128 002e 04F12C00 		add	r0, r4, #44
 129              	.LBE66:
 130              	.LBE71:
 131              	.LBB72:
 132              	.LBB70:
 133              		.loc 2 88 0
 134 0032 C4E90965 		strd	r6, r5, [r4, #36]
 135              	.LVL5:
 136              	.LBE70:
 137              	.LBE72:
 138              	.LBB73:
 139              	.LBB67:
 140              		.loc 3 193 0
 141 0036 FFF7FEFF 		bl	chPoolObjectInitAligned
 142              	.LVL6:
 143              	.LBE67:
 144              	.LBE73:
 145              	.LBB74:
 146              	.LBB75:
 147              		.loc 2 88 0
 148 003a 04F13C01 		add	r1, r4, #60
 149              	.LBE75:
 150              	.LBE74:
 151              	.LBB76:
 152              	.LBB77:
 153 003e 04F14002 		add	r2, r4, #64
 154              	.LBE77:
 155              	.LBE76:
 156              	.LBB79:
 157              	.LBB80:
 158 0042 04F14403 		add	r3, r4, #68
 159              	.LBE80:
 160              	.LBE79:
 161              	.LBB82:
 162              	.LBB78:
 163 0046 C4E90F12 		strd	r1, r2, [r4, #60]
 164              	.LVL7:
 165              	.LBE78:
 166              	.LBE82:
 167              	.LBB83:
 168              	.LBB81:
 169 004a 6364     		str	r3, [r4, #68]
 170              	.LVL8:
 171              	.LBE81:
ARM GAS  /tmp/ccDpNQQg.s 			page 4


 172              	.LBE83:
 173              		.loc 2 277 0
 174 004c 70BD     		pop	{r4, r5, r6, pc}
 175              	.L6:
 176 004e 00BF     		.align	2
 177              	.L5:
 178 0050 00000000 		.word	.LANCHOR0
 179 0054 00000000 		.word	chCoreAllocAlignedI
 180              		.cfi_endproc
 181              	.LFE302:
 182              		.size	_factory_init, .-_factory_init
 183              		.section	.text.chFactoryRegisterObject,"ax",%progbits
 184              		.align	1
 185              		.p2align 2,,3
 186              		.global	chFactoryRegisterObject
 187              		.syntax unified
 188              		.thumb
 189              		.thumb_func
 190              		.fpu fpv4-sp-d16
 191              		.type	chFactoryRegisterObject, %function
 192              	chFactoryRegisterObject:
 193              	.LFB303:
 194              		.loc 2 295 0
 195              		.cfi_startproc
 196              		@ args = 0, pretend = 0, frame = 0
 197              		@ frame_needed = 0, uses_anonymous_args = 0
 198              	.LVL9:
 199 0000 2DE9F041 		push	{r4, r5, r6, r7, r8, lr}
 200              		.cfi_def_cfa_offset 24
 201              		.cfi_offset 4, -24
 202              		.cfi_offset 5, -20
 203              		.cfi_offset 6, -16
 204              		.cfi_offset 7, -12
 205              		.cfi_offset 8, -8
 206              		.cfi_offset 14, -4
 207              		.loc 2 298 0
 208 0004 1A4F     		ldr	r7, .L19
 209              	.LBB92:
 210              	.LBB93:
 211              	.LBB94:
 212              	.LBB95:
 213              		.loc 2 92 0
 214 0006 3D46     		mov	r5, r7
 215              	.LBE95:
 216              	.LBE94:
 217              	.LBE93:
 218              	.LBE92:
 219              		.loc 2 295 0
 220 0008 0646     		mov	r6, r0
 221              		.loc 2 298 0
 222 000a 3846     		mov	r0, r7
 223              	.LVL10:
 224              		.loc 2 295 0
 225 000c 8846     		mov	r8, r1
 226              		.loc 2 298 0
 227 000e FFF7FEFF 		bl	chMtxLock
 228              	.LVL11:
ARM GAS  /tmp/ccDpNQQg.s 			page 5


 229              	.LBB102:
 230              	.LBB100:
 231              	.LBB97:
 232              	.LBB96:
 233              		.loc 2 92 0
 234 0012 55F8104F 		ldr	r4, [r5, #16]!
 235              	.LVL12:
 236              		.loc 2 94 0
 237 0016 AC42     		cmp	r4, r5
 238 0018 03D1     		bne	.L10
 239 001a 11E0     		b	.L8
 240              	.L18:
 241              		.loc 2 98 0
 242 001c 2468     		ldr	r4, [r4]
 243              	.LVL13:
 244              		.loc 2 94 0
 245 001e AC42     		cmp	r4, r5
 246 0020 0ED0     		beq	.L8
 247              	.L10:
 248              		.loc 2 95 0
 249 0022 0822     		movs	r2, #8
 250 0024 3146     		mov	r1, r6
 251 0026 A018     		adds	r0, r4, r2
 252 0028 FFF7FEFF 		bl	strncmp
 253              	.LVL14:
 254 002c 0028     		cmp	r0, #0
 255 002e F5D1     		bne	.L18
 256              	.LVL15:
 257              	.LBE96:
 258              	.LBE97:
 259              		.loc 2 182 0
 260 0030 34B1     		cbz	r4, .L8
 261              		.loc 2 183 0
 262 0032 0446     		mov	r4, r0
 263              	.LBE100:
 264              	.LBE102:
 265              		.loc 2 308 0
 266 0034 0E48     		ldr	r0, .L19
 267 0036 FFF7FEFF 		bl	chMtxUnlock
 268              	.LVL16:
 269              		.loc 2 311 0
 270 003a 2046     		mov	r0, r4
 271 003c BDE8F081 		pop	{r4, r5, r6, r7, r8, pc}
 272              	.LVL17:
 273              	.L8:
 274              	.LBB103:
 275              	.LBB101:
 276              	.LBB98:
 277              	.LBB99:
 278              		.loc 2 187 0
 279 0040 0C48     		ldr	r0, .L19+4
 280 0042 FFF7FEFF 		bl	chPoolAlloc
 281              	.LVL18:
 282              		.loc 2 188 0
 283 0046 0446     		mov	r4, r0
 284 0048 58B1     		cbz	r0, .L11
 285              		.loc 2 195 0
ARM GAS  /tmp/ccDpNQQg.s 			page 6


 286 004a 0822     		movs	r2, #8
 287 004c 1044     		add	r0, r0, r2
 288              	.LVL19:
 289 004e 3146     		mov	r1, r6
 290 0050 FFF7FEFF 		bl	strncpy
 291              	.LVL20:
 292              		.loc 2 198 0
 293 0054 3B69     		ldr	r3, [r7, #16]
 294              		.loc 2 197 0
 295 0056 0122     		movs	r2, #1
 296              		.loc 2 198 0
 297 0058 C4E90032 		strd	r3, r2, [r4]
 298              		.loc 2 201 0
 299 005c 3C61     		str	r4, [r7, #16]
 300              	.LVL21:
 301              	.LBE99:
 302              	.LBE98:
 303              	.LBE101:
 304              	.LBE103:
 305              		.loc 2 305 0
 306 005e C4F81080 		str	r8, [r4, #16]
 307              	.L11:
 308              		.loc 2 308 0
 309 0062 0348     		ldr	r0, .L19
 310 0064 FFF7FEFF 		bl	chMtxUnlock
 311              	.LVL22:
 312              		.loc 2 311 0
 313 0068 2046     		mov	r0, r4
 314 006a BDE8F081 		pop	{r4, r5, r6, r7, r8, pc}
 315              	.LVL23:
 316              	.L20:
 317 006e 00BF     		.align	2
 318              	.L19:
 319 0070 00000000 		.word	.LANCHOR0
 320 0074 14000000 		.word	.LANCHOR0+20
 321              		.cfi_endproc
 322              	.LFE303:
 323              		.size	chFactoryRegisterObject, .-chFactoryRegisterObject
 324              		.section	.text.chFactoryFindObject,"ax",%progbits
 325              		.align	1
 326              		.p2align 2,,3
 327              		.global	chFactoryFindObject
 328              		.syntax unified
 329              		.thumb
 330              		.thumb_func
 331              		.fpu fpv4-sp-d16
 332              		.type	chFactoryFindObject, %function
 333              	chFactoryFindObject:
 334              	.LFB304:
 335              		.loc 2 326 0
 336              		.cfi_startproc
 337              		@ args = 0, pretend = 0, frame = 0
 338              		@ frame_needed = 0, uses_anonymous_args = 0
 339              	.LVL24:
 340              		.loc 2 329 0
 341 0000 124B     		ldr	r3, .L32
 342              		.loc 2 326 0
ARM GAS  /tmp/ccDpNQQg.s 			page 7


 343 0002 70B5     		push	{r4, r5, r6, lr}
 344              		.cfi_def_cfa_offset 16
 345              		.cfi_offset 4, -16
 346              		.cfi_offset 5, -12
 347              		.cfi_offset 6, -8
 348              		.cfi_offset 14, -4
 349              	.LBB108:
 350              	.LBB109:
 351              	.LBB110:
 352              	.LBB111:
 353              		.loc 2 92 0
 354 0004 1D46     		mov	r5, r3
 355              	.LBE111:
 356              	.LBE110:
 357              	.LBE109:
 358              	.LBE108:
 359              		.loc 2 326 0
 360 0006 0646     		mov	r6, r0
 361              		.loc 2 329 0
 362 0008 1846     		mov	r0, r3
 363              	.LVL25:
 364 000a FFF7FEFF 		bl	chMtxLock
 365              	.LVL26:
 366              	.LBB119:
 367              	.LBB116:
 368              	.LBB114:
 369              	.LBB112:
 370              		.loc 2 92 0
 371 000e 55F8104F 		ldr	r4, [r5, #16]!
 372              	.LVL27:
 373              		.loc 2 94 0
 374 0012 AC42     		cmp	r4, r5
 375 0014 03D1     		bne	.L24
 376 0016 12E0     		b	.L25
 377              	.L31:
 378              		.loc 2 98 0
 379 0018 2468     		ldr	r4, [r4]
 380              	.LVL28:
 381              		.loc 2 94 0
 382 001a AC42     		cmp	r4, r5
 383 001c 0FD0     		beq	.L25
 384              	.L24:
 385              		.loc 2 95 0
 386 001e 0822     		movs	r2, #8
 387 0020 3146     		mov	r1, r6
 388 0022 A018     		adds	r0, r4, r2
 389 0024 FFF7FEFF 		bl	strncmp
 390              	.LVL29:
 391 0028 0028     		cmp	r0, #0
 392 002a F5D1     		bne	.L31
 393              	.LVL30:
 394              	.LBE112:
 395              	.LBE114:
 396              		.loc 2 228 0
 397 002c 44B1     		cbz	r4, .L22
 398              		.loc 2 230 0
 399 002e 6368     		ldr	r3, [r4, #4]
ARM GAS  /tmp/ccDpNQQg.s 			page 8


 400              	.LBE116:
 401              	.LBE119:
 402              		.loc 2 333 0
 403 0030 0648     		ldr	r0, .L32
 404              	.LBB120:
 405              	.LBB117:
 406              		.loc 2 230 0
 407 0032 0133     		adds	r3, r3, #1
 408 0034 6360     		str	r3, [r4, #4]
 409              	.LVL31:
 410              	.LBE117:
 411              	.LBE120:
 412              		.loc 2 333 0
 413 0036 FFF7FEFF 		bl	chMtxUnlock
 414              	.LVL32:
 415              		.loc 2 336 0
 416 003a 2046     		mov	r0, r4
 417 003c 70BD     		pop	{r4, r5, r6, pc}
 418              	.LVL33:
 419              	.L25:
 420              	.LBB121:
 421              	.LBB118:
 422              	.LBB115:
 423              	.LBB113:
 424              		.loc 2 101 0
 425 003e 0024     		movs	r4, #0
 426              	.LVL34:
 427              	.L22:
 428              	.LBE113:
 429              	.LBE115:
 430              	.LBE118:
 431              	.LBE121:
 432              		.loc 2 333 0
 433 0040 0248     		ldr	r0, .L32
 434 0042 FFF7FEFF 		bl	chMtxUnlock
 435              	.LVL35:
 436              		.loc 2 336 0
 437 0046 2046     		mov	r0, r4
 438 0048 70BD     		pop	{r4, r5, r6, pc}
 439              	.LVL36:
 440              	.L33:
 441 004a 00BF     		.align	2
 442              	.L32:
 443 004c 00000000 		.word	.LANCHOR0
 444              		.cfi_endproc
 445              	.LFE304:
 446              		.size	chFactoryFindObject, .-chFactoryFindObject
 447              		.section	.text.chFactoryFindObjectByPointer,"ax",%progbits
 448              		.align	1
 449              		.p2align 2,,3
 450              		.global	chFactoryFindObjectByPointer
 451              		.syntax unified
 452              		.thumb
 453              		.thumb_func
 454              		.fpu fpv4-sp-d16
 455              		.type	chFactoryFindObjectByPointer, %function
 456              	chFactoryFindObjectByPointer:
ARM GAS  /tmp/ccDpNQQg.s 			page 9


 457              	.LFB305:
 458              		.loc 2 351 0
 459              		.cfi_startproc
 460              		@ args = 0, pretend = 0, frame = 0
 461              		@ frame_needed = 0, uses_anonymous_args = 0
 462              	.LVL37:
 463 0000 70B5     		push	{r4, r5, r6, lr}
 464              		.cfi_def_cfa_offset 16
 465              		.cfi_offset 4, -16
 466              		.cfi_offset 5, -12
 467              		.cfi_offset 6, -8
 468              		.cfi_offset 14, -4
 469              		.loc 2 352 0
 470 0002 114D     		ldr	r5, .L42
 471              		.loc 2 351 0
 472 0004 0646     		mov	r6, r0
 473              		.loc 2 352 0
 474 0006 2C69     		ldr	r4, [r5, #16]
 475              	.LVL38:
 476              		.loc 2 354 0
 477 0008 2846     		mov	r0, r5
 478              	.LVL39:
 479 000a FFF7FEFF 		bl	chMtxLock
 480              	.LVL40:
 481              		.loc 2 356 0
 482 000e 05F11000 		add	r0, r5, #16
 483 0012 8442     		cmp	r4, r0
 484 0014 09D0     		beq	.L35
 485              		.loc 2 357 0
 486 0016 2369     		ldr	r3, [r4, #16]
 487 0018 9E42     		cmp	r6, r3
 488 001a 03D1     		bne	.L37
 489 001c 0BE0     		b	.L36
 490              	.L39:
 491 001e 2369     		ldr	r3, [r4, #16]
 492 0020 B342     		cmp	r3, r6
 493 0022 08D0     		beq	.L36
 494              	.L37:
 495              		.loc 2 364 0
 496 0024 2468     		ldr	r4, [r4]
 497              	.LVL41:
 498              		.loc 2 356 0
 499 0026 8442     		cmp	r4, r0
 500 0028 F9D1     		bne	.L39
 501              	.L35:
 502              		.loc 2 367 0
 503 002a 0748     		ldr	r0, .L42
 504              		.loc 2 369 0
 505 002c 0024     		movs	r4, #0
 506              	.LVL42:
 507              		.loc 2 367 0
 508 002e FFF7FEFF 		bl	chMtxUnlock
 509              	.LVL43:
 510              		.loc 2 370 0
 511 0032 2046     		mov	r0, r4
 512 0034 70BD     		pop	{r4, r5, r6, pc}
 513              	.LVL44:
ARM GAS  /tmp/ccDpNQQg.s 			page 10


 514              	.L36:
 515              		.loc 2 358 0
 516 0036 6368     		ldr	r3, [r4, #4]
 517              		.loc 2 360 0
 518 0038 0348     		ldr	r0, .L42
 519              		.loc 2 358 0
 520 003a 0133     		adds	r3, r3, #1
 521 003c 6360     		str	r3, [r4, #4]
 522              		.loc 2 360 0
 523 003e FFF7FEFF 		bl	chMtxUnlock
 524              	.LVL45:
 525              		.loc 2 370 0
 526 0042 2046     		mov	r0, r4
 527 0044 70BD     		pop	{r4, r5, r6, pc}
 528              	.LVL46:
 529              	.L43:
 530 0046 00BF     		.align	2
 531              	.L42:
 532 0048 00000000 		.word	.LANCHOR0
 533              		.cfi_endproc
 534              	.LFE305:
 535              		.size	chFactoryFindObjectByPointer, .-chFactoryFindObjectByPointer
 536              		.section	.text.chFactoryReleaseObject,"ax",%progbits
 537              		.align	1
 538              		.p2align 2,,3
 539              		.global	chFactoryReleaseObject
 540              		.syntax unified
 541              		.thumb
 542              		.thumb_func
 543              		.fpu fpv4-sp-d16
 544              		.type	chFactoryReleaseObject, %function
 545              	chFactoryReleaseObject:
 546              	.LFB306:
 547              		.loc 2 384 0
 548              		.cfi_startproc
 549              		@ args = 0, pretend = 0, frame = 0
 550              		@ frame_needed = 0, uses_anonymous_args = 0
 551              	.LVL47:
 552 0000 10B5     		push	{r4, lr}
 553              		.cfi_def_cfa_offset 8
 554              		.cfi_offset 4, -8
 555              		.cfi_offset 14, -4
 556              		.loc 2 384 0
 557 0002 0446     		mov	r4, r0
 558              		.loc 2 386 0
 559 0004 1048     		ldr	r0, .L54
 560              	.LVL48:
 561 0006 FFF7FEFF 		bl	chMtxLock
 562              	.LVL49:
 563              	.LBB128:
 564              	.LBB129:
 565              		.loc 2 213 0
 566 000a 6368     		ldr	r3, [r4, #4]
 567 000c 013B     		subs	r3, r3, #1
 568 000e 6360     		str	r3, [r4, #4]
 569              		.loc 2 214 0
 570 0010 23B1     		cbz	r3, .L52
ARM GAS  /tmp/ccDpNQQg.s 			page 11


 571              	.LVL50:
 572              	.LBE129:
 573              	.LBE128:
 574              		.loc 2 392 0
 575 0012 0D48     		ldr	r0, .L54
 576              		.loc 2 393 0
 577 0014 BDE81040 		pop	{r4, lr}
 578              		.cfi_remember_state
 579              		.cfi_restore 14
 580              		.cfi_restore 4
 581              		.cfi_def_cfa_offset 0
 582              	.LVL51:
 583              		.loc 2 392 0
 584 0018 FFF7FEBF 		b	chMtxUnlock
 585              	.LVL52:
 586              	.L52:
 587              		.cfi_restore_state
 588              	.LBB145:
 589              	.LBB142:
 590              	.LBB130:
 591              	.LBB131:
 592              	.LBB132:
 593              	.LBB133:
 594              		.loc 2 106 0
 595 001c 0B48     		ldr	r0, .L54+4
 596 001e 0246     		mov	r2, r0
 597 0020 02E0     		b	.L45
 598              	.LVL53:
 599              	.L48:
 600              		.loc 2 110 0
 601 0022 9942     		cmp	r1, r3
 602 0024 0DD0     		beq	.L53
 603 0026 1A46     		mov	r2, r3
 604              	.LVL54:
 605              	.L45:
 606              		.loc 2 109 0
 607 0028 1368     		ldr	r3, [r2]
 608 002a 8342     		cmp	r3, r0
 609              	.LBE133:
 610              	.LBE132:
 611              	.LBE131:
 612              	.LBE130:
 613              	.LBE142:
 614              	.LBE145:
 615              		.loc 2 388 0
 616 002c 2146     		mov	r1, r4
 617              	.LBB146:
 618              	.LBB143:
 619              	.LBB140:
 620              	.LBB138:
 621              	.LBB136:
 622              	.LBB134:
 623              		.loc 2 109 0
 624 002e F8D1     		bne	.L48
 625              	.LVL55:
 626              		.loc 2 120 0
 627 0030 0021     		movs	r1, #0
ARM GAS  /tmp/ccDpNQQg.s 			page 12


 628              	.LVL56:
 629              	.L47:
 630              	.LBE134:
 631              	.LBE136:
 632              		.loc 2 216 0
 633 0032 0748     		ldr	r0, .L54+8
 634 0034 FFF7FEFF 		bl	chPoolFree
 635              	.LVL57:
 636              	.LBE138:
 637              	.LBE140:
 638              	.LBE143:
 639              	.LBE146:
 640              		.loc 2 392 0
 641 0038 0348     		ldr	r0, .L54
 642              		.loc 2 393 0
 643 003a BDE81040 		pop	{r4, lr}
 644              		.cfi_remember_state
 645              		.cfi_restore 14
 646              		.cfi_restore 4
 647              		.cfi_def_cfa_offset 0
 648              	.LVL58:
 649              		.loc 2 392 0
 650 003e FFF7FEBF 		b	chMtxUnlock
 651              	.LVL59:
 652              	.L53:
 653              		.cfi_restore_state
 654              	.LBB147:
 655              	.LBB144:
 656              	.LBB141:
 657              	.LBB139:
 658              	.LBB137:
 659              	.LBB135:
 660              		.loc 2 112 0
 661 0042 0B68     		ldr	r3, [r1]
 662 0044 1360     		str	r3, [r2]
 663 0046 F4E7     		b	.L47
 664              	.L55:
 665              		.align	2
 666              	.L54:
 667 0048 00000000 		.word	.LANCHOR0
 668 004c 10000000 		.word	.LANCHOR0+16
 669 0050 14000000 		.word	.LANCHOR0+20
 670              	.LBE135:
 671              	.LBE137:
 672              	.LBE139:
 673              	.LBE141:
 674              	.LBE144:
 675              	.LBE147:
 676              		.cfi_endproc
 677              	.LFE306:
 678              		.size	chFactoryReleaseObject, .-chFactoryReleaseObject
 679              		.section	.text.chFactoryCreateBuffer,"ax",%progbits
 680              		.align	1
 681              		.p2align 2,,3
 682              		.global	chFactoryCreateBuffer
 683              		.syntax unified
 684              		.thumb
ARM GAS  /tmp/ccDpNQQg.s 			page 13


 685              		.thumb_func
 686              		.fpu fpv4-sp-d16
 687              		.type	chFactoryCreateBuffer, %function
 688              	chFactoryCreateBuffer:
 689              	.LFB307:
 690              		.loc 2 412 0
 691              		.cfi_startproc
 692              		@ args = 0, pretend = 0, frame = 0
 693              		@ frame_needed = 0, uses_anonymous_args = 0
 694              	.LVL60:
 695 0000 2DE9F041 		push	{r4, r5, r6, r7, r8, lr}
 696              		.cfi_def_cfa_offset 24
 697              		.cfi_offset 4, -24
 698              		.cfi_offset 5, -20
 699              		.cfi_offset 6, -16
 700              		.cfi_offset 7, -12
 701              		.cfi_offset 8, -8
 702              		.cfi_offset 14, -4
 703              		.loc 2 415 0
 704 0004 1D4F     		ldr	r7, .L68
 705              	.LBB158:
 706              	.LBB159:
 707              	.LBB160:
 708              	.LBB161:
 709              		.loc 2 92 0
 710 0006 3D46     		mov	r5, r7
 711              	.LBE161:
 712              	.LBE160:
 713              	.LBE159:
 714              	.LBE158:
 715              		.loc 2 412 0
 716 0008 0646     		mov	r6, r0
 717              		.loc 2 415 0
 718 000a 3846     		mov	r0, r7
 719              	.LVL61:
 720              		.loc 2 412 0
 721 000c 8846     		mov	r8, r1
 722              		.loc 2 415 0
 723 000e FFF7FEFF 		bl	chMtxLock
 724              	.LVL62:
 725              	.LBB173:
 726              	.LBB170:
 727              	.LBB163:
 728              	.LBB162:
 729              		.loc 2 92 0
 730 0012 55F8244F 		ldr	r4, [r5, #36]!
 731              	.LVL63:
 732              		.loc 2 94 0
 733 0016 AC42     		cmp	r4, r5
 734 0018 03D1     		bne	.L59
 735 001a 11E0     		b	.L57
 736              	.L67:
 737              		.loc 2 98 0
 738 001c 2468     		ldr	r4, [r4]
 739              	.LVL64:
 740              		.loc 2 94 0
 741 001e AC42     		cmp	r4, r5
ARM GAS  /tmp/ccDpNQQg.s 			page 14


 742 0020 0ED0     		beq	.L57
 743              	.L59:
 744              		.loc 2 95 0
 745 0022 0822     		movs	r2, #8
 746 0024 3146     		mov	r1, r6
 747 0026 A018     		adds	r0, r4, r2
 748 0028 FFF7FEFF 		bl	strncmp
 749              	.LVL65:
 750 002c 0028     		cmp	r0, #0
 751 002e F5D1     		bne	.L67
 752              	.LVL66:
 753              	.LBE162:
 754              	.LBE163:
 755              		.loc 2 133 0
 756 0030 34B1     		cbz	r4, .L57
 757              		.loc 2 134 0
 758 0032 0446     		mov	r4, r0
 759              	.LBE170:
 760              	.LBE173:
 761              		.loc 2 425 0
 762 0034 1148     		ldr	r0, .L68
 763 0036 FFF7FEFF 		bl	chMtxUnlock
 764              	.LVL67:
 765              		.loc 2 428 0
 766 003a 2046     		mov	r0, r4
 767 003c BDE8F081 		pop	{r4, r5, r6, r7, r8, pc}
 768              	.LVL68:
 769              	.L57:
 770              	.LBB174:
 771              	.LBB171:
 772              	.LBB164:
 773              	.LBB165:
 774              	.LBB166:
 775              	.LBB167:
 776              		.file 4 "./RM18A-ChibiOS18-Core/chibios/os/oslib/include/chmemheaps.h"
 777              		.loc 4 156 0
 778 0040 0822     		movs	r2, #8
 779 0042 4146     		mov	r1, r8
 780 0044 0020     		movs	r0, #0
 781 0046 FFF7FEFF 		bl	chHeapAllocAligned
 782              	.LVL69:
 783              	.LBE167:
 784              	.LBE166:
 785              		.loc 2 141 0
 786 004a 0446     		mov	r4, r0
 787 004c 78B1     		cbz	r0, .L60
 788              		.loc 2 146 0
 789 004e 0822     		movs	r2, #8
 790 0050 3146     		mov	r1, r6
 791 0052 1044     		add	r0, r0, r2
 792 0054 FFF7FEFF 		bl	strncpy
 793              	.LVL70:
 794              		.loc 2 149 0
 795 0058 7B6A     		ldr	r3, [r7, #36]
 796 005a 2360     		str	r3, [r4]
 797              		.loc 2 148 0
 798 005c 0122     		movs	r2, #1
ARM GAS  /tmp/ccDpNQQg.s 			page 15


 799 005e 6260     		str	r2, [r4, #4]
 800              	.LBE165:
 801              	.LBE164:
 802              	.LBE171:
 803              	.LBE174:
 804              		.loc 2 422 0
 805 0060 0021     		movs	r1, #0
 806 0062 4246     		mov	r2, r8
 807 0064 04F11000 		add	r0, r4, #16
 808              	.LBB175:
 809              	.LBB172:
 810              	.LBB169:
 811              	.LBB168:
 812              		.loc 2 152 0
 813 0068 7C62     		str	r4, [r7, #36]
 814              	.LVL71:
 815              	.LBE168:
 816              	.LBE169:
 817              	.LBE172:
 818              	.LBE175:
 819              		.loc 2 422 0
 820 006a FFF7FEFF 		bl	memset
 821              	.LVL72:
 822              	.L60:
 823              		.loc 2 425 0
 824 006e 0348     		ldr	r0, .L68
 825 0070 FFF7FEFF 		bl	chMtxUnlock
 826              	.LVL73:
 827              		.loc 2 428 0
 828 0074 2046     		mov	r0, r4
 829 0076 BDE8F081 		pop	{r4, r5, r6, r7, r8, pc}
 830              	.LVL74:
 831              	.L69:
 832 007a 00BF     		.align	2
 833              	.L68:
 834 007c 00000000 		.word	.LANCHOR0
 835              		.cfi_endproc
 836              	.LFE307:
 837              		.size	chFactoryCreateBuffer, .-chFactoryCreateBuffer
 838              		.section	.text.chFactoryFindBuffer,"ax",%progbits
 839              		.align	1
 840              		.p2align 2,,3
 841              		.global	chFactoryFindBuffer
 842              		.syntax unified
 843              		.thumb
 844              		.thumb_func
 845              		.fpu fpv4-sp-d16
 846              		.type	chFactoryFindBuffer, %function
 847              	chFactoryFindBuffer:
 848              	.LFB308:
 849              		.loc 2 443 0
 850              		.cfi_startproc
 851              		@ args = 0, pretend = 0, frame = 0
 852              		@ frame_needed = 0, uses_anonymous_args = 0
 853              	.LVL75:
 854              		.loc 2 446 0
 855 0000 124B     		ldr	r3, .L81
ARM GAS  /tmp/ccDpNQQg.s 			page 16


 856              		.loc 2 443 0
 857 0002 70B5     		push	{r4, r5, r6, lr}
 858              		.cfi_def_cfa_offset 16
 859              		.cfi_offset 4, -16
 860              		.cfi_offset 5, -12
 861              		.cfi_offset 6, -8
 862              		.cfi_offset 14, -4
 863              	.LBB180:
 864              	.LBB181:
 865              	.LBB182:
 866              	.LBB183:
 867              		.loc 2 92 0
 868 0004 1D46     		mov	r5, r3
 869              	.LBE183:
 870              	.LBE182:
 871              	.LBE181:
 872              	.LBE180:
 873              		.loc 2 443 0
 874 0006 0646     		mov	r6, r0
 875              		.loc 2 446 0
 876 0008 1846     		mov	r0, r3
 877              	.LVL76:
 878 000a FFF7FEFF 		bl	chMtxLock
 879              	.LVL77:
 880              	.LBB191:
 881              	.LBB188:
 882              	.LBB186:
 883              	.LBB184:
 884              		.loc 2 92 0
 885 000e 55F8244F 		ldr	r4, [r5, #36]!
 886              	.LVL78:
 887              		.loc 2 94 0
 888 0012 AC42     		cmp	r4, r5
 889 0014 03D1     		bne	.L73
 890 0016 12E0     		b	.L74
 891              	.L80:
 892              		.loc 2 98 0
 893 0018 2468     		ldr	r4, [r4]
 894              	.LVL79:
 895              		.loc 2 94 0
 896 001a AC42     		cmp	r4, r5
 897 001c 0FD0     		beq	.L74
 898              	.L73:
 899              		.loc 2 95 0
 900 001e 0822     		movs	r2, #8
 901 0020 3146     		mov	r1, r6
 902 0022 A018     		adds	r0, r4, r2
 903 0024 FFF7FEFF 		bl	strncmp
 904              	.LVL80:
 905 0028 0028     		cmp	r0, #0
 906 002a F5D1     		bne	.L80
 907              	.LVL81:
 908              	.LBE184:
 909              	.LBE186:
 910              		.loc 2 228 0
 911 002c 44B1     		cbz	r4, .L71
 912              		.loc 2 230 0
ARM GAS  /tmp/ccDpNQQg.s 			page 17


 913 002e 6368     		ldr	r3, [r4, #4]
 914              	.LBE188:
 915              	.LBE191:
 916              		.loc 2 450 0
 917 0030 0648     		ldr	r0, .L81
 918              	.LBB192:
 919              	.LBB189:
 920              		.loc 2 230 0
 921 0032 0133     		adds	r3, r3, #1
 922 0034 6360     		str	r3, [r4, #4]
 923              	.LVL82:
 924              	.LBE189:
 925              	.LBE192:
 926              		.loc 2 450 0
 927 0036 FFF7FEFF 		bl	chMtxUnlock
 928              	.LVL83:
 929              		.loc 2 453 0
 930 003a 2046     		mov	r0, r4
 931 003c 70BD     		pop	{r4, r5, r6, pc}
 932              	.LVL84:
 933              	.L74:
 934              	.LBB193:
 935              	.LBB190:
 936              	.LBB187:
 937              	.LBB185:
 938              		.loc 2 101 0
 939 003e 0024     		movs	r4, #0
 940              	.LVL85:
 941              	.L71:
 942              	.LBE185:
 943              	.LBE187:
 944              	.LBE190:
 945              	.LBE193:
 946              		.loc 2 450 0
 947 0040 0248     		ldr	r0, .L81
 948 0042 FFF7FEFF 		bl	chMtxUnlock
 949              	.LVL86:
 950              		.loc 2 453 0
 951 0046 2046     		mov	r0, r4
 952 0048 70BD     		pop	{r4, r5, r6, pc}
 953              	.LVL87:
 954              	.L82:
 955 004a 00BF     		.align	2
 956              	.L81:
 957 004c 00000000 		.word	.LANCHOR0
 958              		.cfi_endproc
 959              	.LFE308:
 960              		.size	chFactoryFindBuffer, .-chFactoryFindBuffer
 961              		.section	.text.chFactoryReleaseBuffer,"ax",%progbits
 962              		.align	1
 963              		.p2align 2,,3
 964              		.global	chFactoryReleaseBuffer
 965              		.syntax unified
 966              		.thumb
 967              		.thumb_func
 968              		.fpu fpv4-sp-d16
 969              		.type	chFactoryReleaseBuffer, %function
ARM GAS  /tmp/ccDpNQQg.s 			page 18


 970              	chFactoryReleaseBuffer:
 971              	.LFB309:
 972              		.loc 2 465 0
 973              		.cfi_startproc
 974              		@ args = 0, pretend = 0, frame = 0
 975              		@ frame_needed = 0, uses_anonymous_args = 0
 976              	.LVL88:
 977 0000 10B5     		push	{r4, lr}
 978              		.cfi_def_cfa_offset 8
 979              		.cfi_offset 4, -8
 980              		.cfi_offset 14, -4
 981              		.loc 2 465 0
 982 0002 0446     		mov	r4, r0
 983              		.loc 2 467 0
 984 0004 1048     		ldr	r0, .L93
 985              	.LVL89:
 986 0006 FFF7FEFF 		bl	chMtxLock
 987              	.LVL90:
 988              	.LBB200:
 989              	.LBB201:
 990              		.loc 2 164 0
 991 000a 6368     		ldr	r3, [r4, #4]
 992 000c 013B     		subs	r3, r3, #1
 993 000e 6360     		str	r3, [r4, #4]
 994              		.loc 2 165 0
 995 0010 23B1     		cbz	r3, .L91
 996              	.LVL91:
 997              	.LBE201:
 998              	.LBE200:
 999              		.loc 2 471 0
 1000 0012 0D48     		ldr	r0, .L93
 1001              		.loc 2 472 0
 1002 0014 BDE81040 		pop	{r4, lr}
 1003              		.cfi_remember_state
 1004              		.cfi_restore 14
 1005              		.cfi_restore 4
 1006              		.cfi_def_cfa_offset 0
 1007              	.LVL92:
 1008              		.loc 2 471 0
 1009 0018 FFF7FEBF 		b	chMtxUnlock
 1010              	.LVL93:
 1011              	.L91:
 1012              		.cfi_restore_state
 1013              	.LBB217:
 1014              	.LBB214:
 1015              	.LBB202:
 1016              	.LBB203:
 1017              	.LBB204:
 1018              	.LBB205:
 1019              		.loc 2 106 0
 1020 001c 0B49     		ldr	r1, .L93+4
 1021 001e 0A46     		mov	r2, r1
 1022 0020 02E0     		b	.L84
 1023              	.LVL94:
 1024              	.L87:
 1025              		.loc 2 110 0
 1026 0022 9842     		cmp	r0, r3
ARM GAS  /tmp/ccDpNQQg.s 			page 19


 1027 0024 0CD0     		beq	.L92
 1028 0026 1A46     		mov	r2, r3
 1029              	.LVL95:
 1030              	.L84:
 1031              		.loc 2 109 0
 1032 0028 1368     		ldr	r3, [r2]
 1033 002a 8B42     		cmp	r3, r1
 1034              	.LBE205:
 1035              	.LBE204:
 1036              	.LBE203:
 1037              	.LBE202:
 1038              	.LBE214:
 1039              	.LBE217:
 1040              		.loc 2 469 0
 1041 002c 2046     		mov	r0, r4
 1042              	.LBB218:
 1043              	.LBB215:
 1044              	.LBB212:
 1045              	.LBB210:
 1046              	.LBB208:
 1047              	.LBB206:
 1048              		.loc 2 109 0
 1049 002e F8D1     		bne	.L87
 1050              	.LVL96:
 1051              		.loc 2 120 0
 1052 0030 0020     		movs	r0, #0
 1053              	.LVL97:
 1054              	.L86:
 1055              	.LBE206:
 1056              	.LBE208:
 1057              		.loc 2 167 0
 1058 0032 FFF7FEFF 		bl	chHeapFree
 1059              	.LVL98:
 1060              	.LBE210:
 1061              	.LBE212:
 1062              	.LBE215:
 1063              	.LBE218:
 1064              		.loc 2 471 0
 1065 0036 0448     		ldr	r0, .L93
 1066              		.loc 2 472 0
 1067 0038 BDE81040 		pop	{r4, lr}
 1068              		.cfi_remember_state
 1069              		.cfi_restore 14
 1070              		.cfi_restore 4
 1071              		.cfi_def_cfa_offset 0
 1072              	.LVL99:
 1073              		.loc 2 471 0
 1074 003c FFF7FEBF 		b	chMtxUnlock
 1075              	.LVL100:
 1076              	.L92:
 1077              		.cfi_restore_state
 1078              	.LBB219:
 1079              	.LBB216:
 1080              	.LBB213:
 1081              	.LBB211:
 1082              	.LBB209:
 1083              	.LBB207:
ARM GAS  /tmp/ccDpNQQg.s 			page 20


 1084              		.loc 2 112 0
 1085 0040 0368     		ldr	r3, [r0]
 1086 0042 1360     		str	r3, [r2]
 1087 0044 F5E7     		b	.L86
 1088              	.L94:
 1089 0046 00BF     		.align	2
 1090              	.L93:
 1091 0048 00000000 		.word	.LANCHOR0
 1092 004c 24000000 		.word	.LANCHOR0+36
 1093              	.LBE207:
 1094              	.LBE209:
 1095              	.LBE211:
 1096              	.LBE213:
 1097              	.LBE216:
 1098              	.LBE219:
 1099              		.cfi_endproc
 1100              	.LFE309:
 1101              		.size	chFactoryReleaseBuffer, .-chFactoryReleaseBuffer
 1102              		.section	.text.chFactoryCreateSemaphore,"ax",%progbits
 1103              		.align	1
 1104              		.p2align 2,,3
 1105              		.global	chFactoryCreateSemaphore
 1106              		.syntax unified
 1107              		.thumb
 1108              		.thumb_func
 1109              		.fpu fpv4-sp-d16
 1110              		.type	chFactoryCreateSemaphore, %function
 1111              	chFactoryCreateSemaphore:
 1112              	.LFB310:
 1113              		.loc 2 491 0
 1114              		.cfi_startproc
 1115              		@ args = 0, pretend = 0, frame = 0
 1116              		@ frame_needed = 0, uses_anonymous_args = 0
 1117              	.LVL101:
 1118 0000 2DE9F041 		push	{r4, r5, r6, r7, r8, lr}
 1119              		.cfi_def_cfa_offset 24
 1120              		.cfi_offset 4, -24
 1121              		.cfi_offset 5, -20
 1122              		.cfi_offset 6, -16
 1123              		.cfi_offset 7, -12
 1124              		.cfi_offset 8, -8
 1125              		.cfi_offset 14, -4
 1126              		.loc 2 494 0
 1127 0004 1B4F     		ldr	r7, .L107
 1128              	.LBB228:
 1129              	.LBB229:
 1130              	.LBB230:
 1131              	.LBB231:
 1132              		.loc 2 92 0
 1133 0006 3D46     		mov	r5, r7
 1134              	.LBE231:
 1135              	.LBE230:
 1136              	.LBE229:
 1137              	.LBE228:
 1138              		.loc 2 491 0
 1139 0008 0646     		mov	r6, r0
 1140              		.loc 2 494 0
ARM GAS  /tmp/ccDpNQQg.s 			page 21


 1141 000a 3846     		mov	r0, r7
 1142              	.LVL102:
 1143              		.loc 2 491 0
 1144 000c 8846     		mov	r8, r1
 1145              		.loc 2 494 0
 1146 000e FFF7FEFF 		bl	chMtxLock
 1147              	.LVL103:
 1148              	.LBB241:
 1149              	.LBB238:
 1150              	.LBB233:
 1151              	.LBB232:
 1152              		.loc 2 92 0
 1153 0012 55F8284F 		ldr	r4, [r5, #40]!
 1154              	.LVL104:
 1155              		.loc 2 94 0
 1156 0016 AC42     		cmp	r4, r5
 1157 0018 03D1     		bne	.L98
 1158 001a 11E0     		b	.L96
 1159              	.L106:
 1160              		.loc 2 98 0
 1161 001c 2468     		ldr	r4, [r4]
 1162              	.LVL105:
 1163              		.loc 2 94 0
 1164 001e AC42     		cmp	r4, r5
 1165 0020 0ED0     		beq	.L96
 1166              	.L98:
 1167              		.loc 2 95 0
 1168 0022 0822     		movs	r2, #8
 1169 0024 3146     		mov	r1, r6
 1170 0026 A018     		adds	r0, r4, r2
 1171 0028 FFF7FEFF 		bl	strncmp
 1172              	.LVL106:
 1173 002c 0028     		cmp	r0, #0
 1174 002e F5D1     		bne	.L106
 1175              	.LVL107:
 1176              	.LBE232:
 1177              	.LBE233:
 1178              		.loc 2 182 0
 1179 0030 34B1     		cbz	r4, .L96
 1180              		.loc 2 183 0
 1181 0032 0446     		mov	r4, r0
 1182              	.LBE238:
 1183              	.LBE241:
 1184              		.loc 2 504 0
 1185 0034 0F48     		ldr	r0, .L107
 1186 0036 FFF7FEFF 		bl	chMtxUnlock
 1187              	.LVL108:
 1188              		.loc 2 507 0
 1189 003a 2046     		mov	r0, r4
 1190 003c BDE8F081 		pop	{r4, r5, r6, r7, r8, pc}
 1191              	.LVL109:
 1192              	.L96:
 1193              	.LBB242:
 1194              	.LBB239:
 1195              	.LBB234:
 1196              	.LBB235:
 1197              		.loc 2 187 0
ARM GAS  /tmp/ccDpNQQg.s 			page 22


 1198 0040 0D48     		ldr	r0, .L107+4
 1199 0042 FFF7FEFF 		bl	chPoolAlloc
 1200              	.LVL110:
 1201              		.loc 2 188 0
 1202 0046 0446     		mov	r4, r0
 1203 0048 70B1     		cbz	r0, .L99
 1204              		.loc 2 195 0
 1205 004a 0822     		movs	r2, #8
 1206 004c 3146     		mov	r1, r6
 1207 004e 1044     		add	r0, r0, r2
 1208              	.LVL111:
 1209 0050 FFF7FEFF 		bl	strncpy
 1210              	.LVL112:
 1211              		.loc 2 198 0
 1212 0054 BB6A     		ldr	r3, [r7, #40]
 1213 0056 2360     		str	r3, [r4]
 1214              		.loc 2 197 0
 1215 0058 0122     		movs	r2, #1
 1216 005a 6260     		str	r2, [r4, #4]
 1217              	.LBE235:
 1218              	.LBE234:
 1219              	.LBE239:
 1220              	.LBE242:
 1221              		.loc 2 501 0
 1222 005c 4146     		mov	r1, r8
 1223 005e 04F11000 		add	r0, r4, #16
 1224              	.LBB243:
 1225              	.LBB240:
 1226              	.LBB237:
 1227              	.LBB236:
 1228              		.loc 2 201 0
 1229 0062 BC62     		str	r4, [r7, #40]
 1230              	.LVL113:
 1231              	.LBE236:
 1232              	.LBE237:
 1233              	.LBE240:
 1234              	.LBE243:
 1235              		.loc 2 501 0
 1236 0064 FFF7FEFF 		bl	chSemObjectInit
 1237              	.LVL114:
 1238              	.L99:
 1239              		.loc 2 504 0
 1240 0068 0248     		ldr	r0, .L107
 1241 006a FFF7FEFF 		bl	chMtxUnlock
 1242              	.LVL115:
 1243              		.loc 2 507 0
 1244 006e 2046     		mov	r0, r4
 1245 0070 BDE8F081 		pop	{r4, r5, r6, r7, r8, pc}
 1246              	.LVL116:
 1247              	.L108:
 1248              		.align	2
 1249              	.L107:
 1250 0074 00000000 		.word	.LANCHOR0
 1251 0078 2C000000 		.word	.LANCHOR0+44
 1252              		.cfi_endproc
 1253              	.LFE310:
 1254              		.size	chFactoryCreateSemaphore, .-chFactoryCreateSemaphore
ARM GAS  /tmp/ccDpNQQg.s 			page 23


 1255              		.section	.text.chFactoryFindSemaphore,"ax",%progbits
 1256              		.align	1
 1257              		.p2align 2,,3
 1258              		.global	chFactoryFindSemaphore
 1259              		.syntax unified
 1260              		.thumb
 1261              		.thumb_func
 1262              		.fpu fpv4-sp-d16
 1263              		.type	chFactoryFindSemaphore, %function
 1264              	chFactoryFindSemaphore:
 1265              	.LFB311:
 1266              		.loc 2 522 0
 1267              		.cfi_startproc
 1268              		@ args = 0, pretend = 0, frame = 0
 1269              		@ frame_needed = 0, uses_anonymous_args = 0
 1270              	.LVL117:
 1271              		.loc 2 525 0
 1272 0000 124B     		ldr	r3, .L120
 1273              		.loc 2 522 0
 1274 0002 70B5     		push	{r4, r5, r6, lr}
 1275              		.cfi_def_cfa_offset 16
 1276              		.cfi_offset 4, -16
 1277              		.cfi_offset 5, -12
 1278              		.cfi_offset 6, -8
 1279              		.cfi_offset 14, -4
 1280              	.LBB248:
 1281              	.LBB249:
 1282              	.LBB250:
 1283              	.LBB251:
 1284              		.loc 2 92 0
 1285 0004 1D46     		mov	r5, r3
 1286              	.LBE251:
 1287              	.LBE250:
 1288              	.LBE249:
 1289              	.LBE248:
 1290              		.loc 2 522 0
 1291 0006 0646     		mov	r6, r0
 1292              		.loc 2 525 0
 1293 0008 1846     		mov	r0, r3
 1294              	.LVL118:
 1295 000a FFF7FEFF 		bl	chMtxLock
 1296              	.LVL119:
 1297              	.LBB259:
 1298              	.LBB256:
 1299              	.LBB254:
 1300              	.LBB252:
 1301              		.loc 2 92 0
 1302 000e 55F8284F 		ldr	r4, [r5, #40]!
 1303              	.LVL120:
 1304              		.loc 2 94 0
 1305 0012 AC42     		cmp	r4, r5
 1306 0014 03D1     		bne	.L112
 1307 0016 12E0     		b	.L113
 1308              	.L119:
 1309              		.loc 2 98 0
 1310 0018 2468     		ldr	r4, [r4]
 1311              	.LVL121:
ARM GAS  /tmp/ccDpNQQg.s 			page 24


 1312              		.loc 2 94 0
 1313 001a AC42     		cmp	r4, r5
 1314 001c 0FD0     		beq	.L113
 1315              	.L112:
 1316              		.loc 2 95 0
 1317 001e 0822     		movs	r2, #8
 1318 0020 3146     		mov	r1, r6
 1319 0022 A018     		adds	r0, r4, r2
 1320 0024 FFF7FEFF 		bl	strncmp
 1321              	.LVL122:
 1322 0028 0028     		cmp	r0, #0
 1323 002a F5D1     		bne	.L119
 1324              	.LVL123:
 1325              	.LBE252:
 1326              	.LBE254:
 1327              		.loc 2 228 0
 1328 002c 44B1     		cbz	r4, .L110
 1329              		.loc 2 230 0
 1330 002e 6368     		ldr	r3, [r4, #4]
 1331              	.LBE256:
 1332              	.LBE259:
 1333              		.loc 2 529 0
 1334 0030 0648     		ldr	r0, .L120
 1335              	.LBB260:
 1336              	.LBB257:
 1337              		.loc 2 230 0
 1338 0032 0133     		adds	r3, r3, #1
 1339 0034 6360     		str	r3, [r4, #4]
 1340              	.LVL124:
 1341              	.LBE257:
 1342              	.LBE260:
 1343              		.loc 2 529 0
 1344 0036 FFF7FEFF 		bl	chMtxUnlock
 1345              	.LVL125:
 1346              		.loc 2 532 0
 1347 003a 2046     		mov	r0, r4
 1348 003c 70BD     		pop	{r4, r5, r6, pc}
 1349              	.LVL126:
 1350              	.L113:
 1351              	.LBB261:
 1352              	.LBB258:
 1353              	.LBB255:
 1354              	.LBB253:
 1355              		.loc 2 101 0
 1356 003e 0024     		movs	r4, #0
 1357              	.LVL127:
 1358              	.L110:
 1359              	.LBE253:
 1360              	.LBE255:
 1361              	.LBE258:
 1362              	.LBE261:
 1363              		.loc 2 529 0
 1364 0040 0248     		ldr	r0, .L120
 1365 0042 FFF7FEFF 		bl	chMtxUnlock
 1366              	.LVL128:
 1367              		.loc 2 532 0
 1368 0046 2046     		mov	r0, r4
ARM GAS  /tmp/ccDpNQQg.s 			page 25


 1369 0048 70BD     		pop	{r4, r5, r6, pc}
 1370              	.LVL129:
 1371              	.L121:
 1372 004a 00BF     		.align	2
 1373              	.L120:
 1374 004c 00000000 		.word	.LANCHOR0
 1375              		.cfi_endproc
 1376              	.LFE311:
 1377              		.size	chFactoryFindSemaphore, .-chFactoryFindSemaphore
 1378              		.section	.text.chFactoryReleaseSemaphore,"ax",%progbits
 1379              		.align	1
 1380              		.p2align 2,,3
 1381              		.global	chFactoryReleaseSemaphore
 1382              		.syntax unified
 1383              		.thumb
 1384              		.thumb_func
 1385              		.fpu fpv4-sp-d16
 1386              		.type	chFactoryReleaseSemaphore, %function
 1387              	chFactoryReleaseSemaphore:
 1388              	.LFB312:
 1389              		.loc 2 544 0
 1390              		.cfi_startproc
 1391              		@ args = 0, pretend = 0, frame = 0
 1392              		@ frame_needed = 0, uses_anonymous_args = 0
 1393              	.LVL130:
 1394 0000 10B5     		push	{r4, lr}
 1395              		.cfi_def_cfa_offset 8
 1396              		.cfi_offset 4, -8
 1397              		.cfi_offset 14, -4
 1398              		.loc 2 544 0
 1399 0002 0446     		mov	r4, r0
 1400              		.loc 2 546 0
 1401 0004 1048     		ldr	r0, .L132
 1402              	.LVL131:
 1403 0006 FFF7FEFF 		bl	chMtxLock
 1404              	.LVL132:
 1405              	.LBB268:
 1406              	.LBB269:
 1407              		.loc 2 213 0
 1408 000a 6368     		ldr	r3, [r4, #4]
 1409 000c 013B     		subs	r3, r3, #1
 1410 000e 6360     		str	r3, [r4, #4]
 1411              		.loc 2 214 0
 1412 0010 23B1     		cbz	r3, .L130
 1413              	.LVL133:
 1414              	.LBE269:
 1415              	.LBE268:
 1416              		.loc 2 552 0
 1417 0012 0D48     		ldr	r0, .L132
 1418              		.loc 2 553 0
 1419 0014 BDE81040 		pop	{r4, lr}
 1420              		.cfi_remember_state
 1421              		.cfi_restore 14
 1422              		.cfi_restore 4
 1423              		.cfi_def_cfa_offset 0
 1424              	.LVL134:
 1425              		.loc 2 552 0
ARM GAS  /tmp/ccDpNQQg.s 			page 26


 1426 0018 FFF7FEBF 		b	chMtxUnlock
 1427              	.LVL135:
 1428              	.L130:
 1429              		.cfi_restore_state
 1430              	.LBB285:
 1431              	.LBB282:
 1432              	.LBB270:
 1433              	.LBB271:
 1434              	.LBB272:
 1435              	.LBB273:
 1436              		.loc 2 106 0
 1437 001c 0B48     		ldr	r0, .L132+4
 1438 001e 0246     		mov	r2, r0
 1439 0020 02E0     		b	.L123
 1440              	.LVL136:
 1441              	.L126:
 1442              		.loc 2 110 0
 1443 0022 9942     		cmp	r1, r3
 1444 0024 0DD0     		beq	.L131
 1445 0026 1A46     		mov	r2, r3
 1446              	.LVL137:
 1447              	.L123:
 1448              		.loc 2 109 0
 1449 0028 1368     		ldr	r3, [r2]
 1450 002a 8342     		cmp	r3, r0
 1451              	.LBE273:
 1452              	.LBE272:
 1453              	.LBE271:
 1454              	.LBE270:
 1455              	.LBE282:
 1456              	.LBE285:
 1457              		.loc 2 548 0
 1458 002c 2146     		mov	r1, r4
 1459              	.LBB286:
 1460              	.LBB283:
 1461              	.LBB280:
 1462              	.LBB278:
 1463              	.LBB276:
 1464              	.LBB274:
 1465              		.loc 2 109 0
 1466 002e F8D1     		bne	.L126
 1467              	.LVL138:
 1468              		.loc 2 120 0
 1469 0030 0021     		movs	r1, #0
 1470              	.LVL139:
 1471              	.L125:
 1472              	.LBE274:
 1473              	.LBE276:
 1474              		.loc 2 216 0
 1475 0032 0748     		ldr	r0, .L132+8
 1476 0034 FFF7FEFF 		bl	chPoolFree
 1477              	.LVL140:
 1478              	.LBE278:
 1479              	.LBE280:
 1480              	.LBE283:
 1481              	.LBE286:
 1482              		.loc 2 552 0
ARM GAS  /tmp/ccDpNQQg.s 			page 27


 1483 0038 0348     		ldr	r0, .L132
 1484              		.loc 2 553 0
 1485 003a BDE81040 		pop	{r4, lr}
 1486              		.cfi_remember_state
 1487              		.cfi_restore 14
 1488              		.cfi_restore 4
 1489              		.cfi_def_cfa_offset 0
 1490              	.LVL141:
 1491              		.loc 2 552 0
 1492 003e FFF7FEBF 		b	chMtxUnlock
 1493              	.LVL142:
 1494              	.L131:
 1495              		.cfi_restore_state
 1496              	.LBB287:
 1497              	.LBB284:
 1498              	.LBB281:
 1499              	.LBB279:
 1500              	.LBB277:
 1501              	.LBB275:
 1502              		.loc 2 112 0
 1503 0042 0B68     		ldr	r3, [r1]
 1504 0044 1360     		str	r3, [r2]
 1505 0046 F4E7     		b	.L125
 1506              	.L133:
 1507              		.align	2
 1508              	.L132:
 1509 0048 00000000 		.word	.LANCHOR0
 1510 004c 28000000 		.word	.LANCHOR0+40
 1511 0050 2C000000 		.word	.LANCHOR0+44
 1512              	.LBE275:
 1513              	.LBE277:
 1514              	.LBE279:
 1515              	.LBE281:
 1516              	.LBE284:
 1517              	.LBE287:
 1518              		.cfi_endproc
 1519              	.LFE312:
 1520              		.size	chFactoryReleaseSemaphore, .-chFactoryReleaseSemaphore
 1521              		.section	.text.chFactoryCreateMailbox,"ax",%progbits
 1522              		.align	1
 1523              		.p2align 2,,3
 1524              		.global	chFactoryCreateMailbox
 1525              		.syntax unified
 1526              		.thumb
 1527              		.thumb_func
 1528              		.fpu fpv4-sp-d16
 1529              		.type	chFactoryCreateMailbox, %function
 1530              	chFactoryCreateMailbox:
 1531              	.LFB313:
 1532              		.loc 2 572 0
 1533              		.cfi_startproc
 1534              		@ args = 0, pretend = 0, frame = 0
 1535              		@ frame_needed = 0, uses_anonymous_args = 0
 1536              	.LVL143:
 1537 0000 2DE9F041 		push	{r4, r5, r6, r7, r8, lr}
 1538              		.cfi_def_cfa_offset 24
 1539              		.cfi_offset 4, -24
ARM GAS  /tmp/ccDpNQQg.s 			page 28


 1540              		.cfi_offset 5, -20
 1541              		.cfi_offset 6, -16
 1542              		.cfi_offset 7, -12
 1543              		.cfi_offset 8, -8
 1544              		.cfi_offset 14, -4
 1545              		.loc 2 575 0
 1546 0004 1E4F     		ldr	r7, .L146
 1547              	.LBB298:
 1548              	.LBB299:
 1549              	.LBB300:
 1550              	.LBB301:
 1551              		.loc 2 92 0
 1552 0006 3D46     		mov	r5, r7
 1553              	.LBE301:
 1554              	.LBE300:
 1555              	.LBE299:
 1556              	.LBE298:
 1557              		.loc 2 572 0
 1558 0008 0646     		mov	r6, r0
 1559              		.loc 2 575 0
 1560 000a 3846     		mov	r0, r7
 1561              	.LVL144:
 1562              		.loc 2 572 0
 1563 000c 8846     		mov	r8, r1
 1564              		.loc 2 575 0
 1565 000e FFF7FEFF 		bl	chMtxLock
 1566              	.LVL145:
 1567              	.LBB313:
 1568              	.LBB310:
 1569              	.LBB303:
 1570              	.LBB302:
 1571              		.loc 2 92 0
 1572 0012 55F83C4F 		ldr	r4, [r5, #60]!
 1573              	.LVL146:
 1574              		.loc 2 94 0
 1575 0016 AC42     		cmp	r4, r5
 1576 0018 03D1     		bne	.L137
 1577 001a 11E0     		b	.L135
 1578              	.L145:
 1579              		.loc 2 98 0
 1580 001c 2468     		ldr	r4, [r4]
 1581              	.LVL147:
 1582              		.loc 2 94 0
 1583 001e AC42     		cmp	r4, r5
 1584 0020 0ED0     		beq	.L135
 1585              	.L137:
 1586              		.loc 2 95 0
 1587 0022 0822     		movs	r2, #8
 1588 0024 3146     		mov	r1, r6
 1589 0026 A018     		adds	r0, r4, r2
 1590 0028 FFF7FEFF 		bl	strncmp
 1591              	.LVL148:
 1592 002c 0028     		cmp	r0, #0
 1593 002e F5D1     		bne	.L145
 1594              	.LVL149:
 1595              	.LBE302:
 1596              	.LBE303:
ARM GAS  /tmp/ccDpNQQg.s 			page 29


 1597              		.loc 2 133 0
 1598 0030 34B1     		cbz	r4, .L135
 1599              		.loc 2 134 0
 1600 0032 0446     		mov	r4, r0
 1601              	.LBE310:
 1602              	.LBE313:
 1603              		.loc 2 586 0
 1604 0034 1248     		ldr	r0, .L146
 1605 0036 FFF7FEFF 		bl	chMtxUnlock
 1606              	.LVL150:
 1607              		.loc 2 589 0
 1608 003a 2046     		mov	r0, r4
 1609 003c BDE8F081 		pop	{r4, r5, r6, r7, r8, pc}
 1610              	.LVL151:
 1611              	.L135:
 1612              		.loc 2 577 0
 1613 0040 08F10E01 		add	r1, r8, #14
 1614              	.LBB314:
 1615              	.LBB311:
 1616              	.LBB304:
 1617              	.LBB305:
 1618              	.LBB306:
 1619              	.LBB307:
 1620              		.loc 4 156 0
 1621 0044 8900     		lsls	r1, r1, #2
 1622 0046 0822     		movs	r2, #8
 1623 0048 0020     		movs	r0, #0
 1624 004a FFF7FEFF 		bl	chHeapAllocAligned
 1625              	.LVL152:
 1626              	.LBE307:
 1627              	.LBE306:
 1628              		.loc 2 141 0
 1629 004e 0446     		mov	r4, r0
 1630 0050 80B1     		cbz	r0, .L138
 1631              		.loc 2 146 0
 1632 0052 0822     		movs	r2, #8
 1633 0054 3146     		mov	r1, r6
 1634 0056 1044     		add	r0, r0, r2
 1635 0058 FFF7FEFF 		bl	strncpy
 1636              	.LVL153:
 1637              		.loc 2 149 0
 1638 005c FB6B     		ldr	r3, [r7, #60]
 1639 005e 2360     		str	r3, [r4]
 1640              		.loc 2 148 0
 1641 0060 0122     		movs	r2, #1
 1642 0062 6260     		str	r2, [r4, #4]
 1643              	.LBE305:
 1644              	.LBE304:
 1645              	.LBE311:
 1646              	.LBE314:
 1647              		.loc 2 583 0
 1648 0064 04F13801 		add	r1, r4, #56
 1649 0068 4246     		mov	r2, r8
 1650 006a 04F11000 		add	r0, r4, #16
 1651              	.LBB315:
 1652              	.LBB312:
 1653              	.LBB309:
ARM GAS  /tmp/ccDpNQQg.s 			page 30


 1654              	.LBB308:
 1655              		.loc 2 152 0
 1656 006e FC63     		str	r4, [r7, #60]
 1657              	.LVL154:
 1658              	.LBE308:
 1659              	.LBE309:
 1660              	.LBE312:
 1661              	.LBE315:
 1662              		.loc 2 583 0
 1663 0070 FFF7FEFF 		bl	chMBObjectInit
 1664              	.LVL155:
 1665              	.L138:
 1666              		.loc 2 586 0
 1667 0074 0248     		ldr	r0, .L146
 1668 0076 FFF7FEFF 		bl	chMtxUnlock
 1669              	.LVL156:
 1670              		.loc 2 589 0
 1671 007a 2046     		mov	r0, r4
 1672 007c BDE8F081 		pop	{r4, r5, r6, r7, r8, pc}
 1673              	.LVL157:
 1674              	.L147:
 1675              		.align	2
 1676              	.L146:
 1677 0080 00000000 		.word	.LANCHOR0
 1678              		.cfi_endproc
 1679              	.LFE313:
 1680              		.size	chFactoryCreateMailbox, .-chFactoryCreateMailbox
 1681              		.section	.text.chFactoryFindMailbox,"ax",%progbits
 1682              		.align	1
 1683              		.p2align 2,,3
 1684              		.global	chFactoryFindMailbox
 1685              		.syntax unified
 1686              		.thumb
 1687              		.thumb_func
 1688              		.fpu fpv4-sp-d16
 1689              		.type	chFactoryFindMailbox, %function
 1690              	chFactoryFindMailbox:
 1691              	.LFB314:
 1692              		.loc 2 604 0
 1693              		.cfi_startproc
 1694              		@ args = 0, pretend = 0, frame = 0
 1695              		@ frame_needed = 0, uses_anonymous_args = 0
 1696              	.LVL158:
 1697              		.loc 2 607 0
 1698 0000 124B     		ldr	r3, .L159
 1699              		.loc 2 604 0
 1700 0002 70B5     		push	{r4, r5, r6, lr}
 1701              		.cfi_def_cfa_offset 16
 1702              		.cfi_offset 4, -16
 1703              		.cfi_offset 5, -12
 1704              		.cfi_offset 6, -8
 1705              		.cfi_offset 14, -4
 1706              	.LBB320:
 1707              	.LBB321:
 1708              	.LBB322:
 1709              	.LBB323:
 1710              		.loc 2 92 0
ARM GAS  /tmp/ccDpNQQg.s 			page 31


 1711 0004 1D46     		mov	r5, r3
 1712              	.LBE323:
 1713              	.LBE322:
 1714              	.LBE321:
 1715              	.LBE320:
 1716              		.loc 2 604 0
 1717 0006 0646     		mov	r6, r0
 1718              		.loc 2 607 0
 1719 0008 1846     		mov	r0, r3
 1720              	.LVL159:
 1721 000a FFF7FEFF 		bl	chMtxLock
 1722              	.LVL160:
 1723              	.LBB331:
 1724              	.LBB328:
 1725              	.LBB326:
 1726              	.LBB324:
 1727              		.loc 2 92 0
 1728 000e 55F83C4F 		ldr	r4, [r5, #60]!
 1729              	.LVL161:
 1730              		.loc 2 94 0
 1731 0012 AC42     		cmp	r4, r5
 1732 0014 03D1     		bne	.L151
 1733 0016 12E0     		b	.L152
 1734              	.L158:
 1735              		.loc 2 98 0
 1736 0018 2468     		ldr	r4, [r4]
 1737              	.LVL162:
 1738              		.loc 2 94 0
 1739 001a AC42     		cmp	r4, r5
 1740 001c 0FD0     		beq	.L152
 1741              	.L151:
 1742              		.loc 2 95 0
 1743 001e 0822     		movs	r2, #8
 1744 0020 3146     		mov	r1, r6
 1745 0022 A018     		adds	r0, r4, r2
 1746 0024 FFF7FEFF 		bl	strncmp
 1747              	.LVL163:
 1748 0028 0028     		cmp	r0, #0
 1749 002a F5D1     		bne	.L158
 1750              	.LVL164:
 1751              	.LBE324:
 1752              	.LBE326:
 1753              		.loc 2 228 0
 1754 002c 44B1     		cbz	r4, .L149
 1755              		.loc 2 230 0
 1756 002e 6368     		ldr	r3, [r4, #4]
 1757              	.LBE328:
 1758              	.LBE331:
 1759              		.loc 2 611 0
 1760 0030 0648     		ldr	r0, .L159
 1761              	.LBB332:
 1762              	.LBB329:
 1763              		.loc 2 230 0
 1764 0032 0133     		adds	r3, r3, #1
 1765 0034 6360     		str	r3, [r4, #4]
 1766              	.LVL165:
 1767              	.LBE329:
ARM GAS  /tmp/ccDpNQQg.s 			page 32


 1768              	.LBE332:
 1769              		.loc 2 611 0
 1770 0036 FFF7FEFF 		bl	chMtxUnlock
 1771              	.LVL166:
 1772              		.loc 2 614 0
 1773 003a 2046     		mov	r0, r4
 1774 003c 70BD     		pop	{r4, r5, r6, pc}
 1775              	.LVL167:
 1776              	.L152:
 1777              	.LBB333:
 1778              	.LBB330:
 1779              	.LBB327:
 1780              	.LBB325:
 1781              		.loc 2 101 0
 1782 003e 0024     		movs	r4, #0
 1783              	.LVL168:
 1784              	.L149:
 1785              	.LBE325:
 1786              	.LBE327:
 1787              	.LBE330:
 1788              	.LBE333:
 1789              		.loc 2 611 0
 1790 0040 0248     		ldr	r0, .L159
 1791 0042 FFF7FEFF 		bl	chMtxUnlock
 1792              	.LVL169:
 1793              		.loc 2 614 0
 1794 0046 2046     		mov	r0, r4
 1795 0048 70BD     		pop	{r4, r5, r6, pc}
 1796              	.LVL170:
 1797              	.L160:
 1798 004a 00BF     		.align	2
 1799              	.L159:
 1800 004c 00000000 		.word	.LANCHOR0
 1801              		.cfi_endproc
 1802              	.LFE314:
 1803              		.size	chFactoryFindMailbox, .-chFactoryFindMailbox
 1804              		.section	.text.chFactoryReleaseMailbox,"ax",%progbits
 1805              		.align	1
 1806              		.p2align 2,,3
 1807              		.global	chFactoryReleaseMailbox
 1808              		.syntax unified
 1809              		.thumb
 1810              		.thumb_func
 1811              		.fpu fpv4-sp-d16
 1812              		.type	chFactoryReleaseMailbox, %function
 1813              	chFactoryReleaseMailbox:
 1814              	.LFB315:
 1815              		.loc 2 626 0
 1816              		.cfi_startproc
 1817              		@ args = 0, pretend = 0, frame = 0
 1818              		@ frame_needed = 0, uses_anonymous_args = 0
 1819              	.LVL171:
 1820 0000 10B5     		push	{r4, lr}
 1821              		.cfi_def_cfa_offset 8
 1822              		.cfi_offset 4, -8
 1823              		.cfi_offset 14, -4
 1824              		.loc 2 626 0
ARM GAS  /tmp/ccDpNQQg.s 			page 33


 1825 0002 0446     		mov	r4, r0
 1826              		.loc 2 628 0
 1827 0004 1048     		ldr	r0, .L171
 1828              	.LVL172:
 1829 0006 FFF7FEFF 		bl	chMtxLock
 1830              	.LVL173:
 1831              	.LBB340:
 1832              	.LBB341:
 1833              		.loc 2 164 0
 1834 000a 6368     		ldr	r3, [r4, #4]
 1835 000c 013B     		subs	r3, r3, #1
 1836 000e 6360     		str	r3, [r4, #4]
 1837              		.loc 2 165 0
 1838 0010 23B1     		cbz	r3, .L169
 1839              	.LVL174:
 1840              	.LBE341:
 1841              	.LBE340:
 1842              		.loc 2 632 0
 1843 0012 0D48     		ldr	r0, .L171
 1844              		.loc 2 633 0
 1845 0014 BDE81040 		pop	{r4, lr}
 1846              		.cfi_remember_state
 1847              		.cfi_restore 14
 1848              		.cfi_restore 4
 1849              		.cfi_def_cfa_offset 0
 1850              	.LVL175:
 1851              		.loc 2 632 0
 1852 0018 FFF7FEBF 		b	chMtxUnlock
 1853              	.LVL176:
 1854              	.L169:
 1855              		.cfi_restore_state
 1856              	.LBB357:
 1857              	.LBB354:
 1858              	.LBB342:
 1859              	.LBB343:
 1860              	.LBB344:
 1861              	.LBB345:
 1862              		.loc 2 106 0
 1863 001c 0B49     		ldr	r1, .L171+4
 1864 001e 0A46     		mov	r2, r1
 1865 0020 02E0     		b	.L162
 1866              	.LVL177:
 1867              	.L165:
 1868              		.loc 2 110 0
 1869 0022 9842     		cmp	r0, r3
 1870 0024 0CD0     		beq	.L170
 1871 0026 1A46     		mov	r2, r3
 1872              	.LVL178:
 1873              	.L162:
 1874              		.loc 2 109 0
 1875 0028 1368     		ldr	r3, [r2]
 1876 002a 8B42     		cmp	r3, r1
 1877              	.LBE345:
 1878              	.LBE344:
 1879              	.LBE343:
 1880              	.LBE342:
 1881              	.LBE354:
ARM GAS  /tmp/ccDpNQQg.s 			page 34


 1882              	.LBE357:
 1883              		.loc 2 630 0
 1884 002c 2046     		mov	r0, r4
 1885              	.LBB358:
 1886              	.LBB355:
 1887              	.LBB352:
 1888              	.LBB350:
 1889              	.LBB348:
 1890              	.LBB346:
 1891              		.loc 2 109 0
 1892 002e F8D1     		bne	.L165
 1893              	.LVL179:
 1894              		.loc 2 120 0
 1895 0030 0020     		movs	r0, #0
 1896              	.LVL180:
 1897              	.L164:
 1898              	.LBE346:
 1899              	.LBE348:
 1900              		.loc 2 167 0
 1901 0032 FFF7FEFF 		bl	chHeapFree
 1902              	.LVL181:
 1903              	.LBE350:
 1904              	.LBE352:
 1905              	.LBE355:
 1906              	.LBE358:
 1907              		.loc 2 632 0
 1908 0036 0448     		ldr	r0, .L171
 1909              		.loc 2 633 0
 1910 0038 BDE81040 		pop	{r4, lr}
 1911              		.cfi_remember_state
 1912              		.cfi_restore 14
 1913              		.cfi_restore 4
 1914              		.cfi_def_cfa_offset 0
 1915              	.LVL182:
 1916              		.loc 2 632 0
 1917 003c FFF7FEBF 		b	chMtxUnlock
 1918              	.LVL183:
 1919              	.L170:
 1920              		.cfi_restore_state
 1921              	.LBB359:
 1922              	.LBB356:
 1923              	.LBB353:
 1924              	.LBB351:
 1925              	.LBB349:
 1926              	.LBB347:
 1927              		.loc 2 112 0
 1928 0040 0368     		ldr	r3, [r0]
 1929 0042 1360     		str	r3, [r2]
 1930 0044 F5E7     		b	.L164
 1931              	.L172:
 1932 0046 00BF     		.align	2
 1933              	.L171:
 1934 0048 00000000 		.word	.LANCHOR0
 1935 004c 3C000000 		.word	.LANCHOR0+60
 1936              	.LBE347:
 1937              	.LBE349:
 1938              	.LBE351:
ARM GAS  /tmp/ccDpNQQg.s 			page 35


 1939              	.LBE353:
 1940              	.LBE356:
 1941              	.LBE359:
 1942              		.cfi_endproc
 1943              	.LFE315:
 1944              		.size	chFactoryReleaseMailbox, .-chFactoryReleaseMailbox
 1945              		.section	.text.chFactoryCreateObjectsFIFO,"ax",%progbits
 1946              		.align	1
 1947              		.p2align 2,,3
 1948              		.global	chFactoryCreateObjectsFIFO
 1949              		.syntax unified
 1950              		.thumb
 1951              		.thumb_func
 1952              		.fpu fpv4-sp-d16
 1953              		.type	chFactoryCreateObjectsFIFO, %function
 1954              	chFactoryCreateObjectsFIFO:
 1955              	.LFB316:
 1956              		.loc 2 659 0
 1957              		.cfi_startproc
 1958              		@ args = 0, pretend = 0, frame = 0
 1959              		@ frame_needed = 0, uses_anonymous_args = 0
 1960              	.LVL184:
 1961 0000 2DE9F047 		push	{r4, r5, r6, r7, r8, r9, r10, lr}
 1962              		.cfi_def_cfa_offset 32
 1963              		.cfi_offset 4, -32
 1964              		.cfi_offset 5, -28
 1965              		.cfi_offset 6, -24
 1966              		.cfi_offset 7, -20
 1967              		.cfi_offset 8, -16
 1968              		.cfi_offset 9, -12
 1969              		.cfi_offset 10, -8
 1970              		.cfi_offset 14, -4
 1971              		.loc 2 662 0
 1972 0004 274E     		ldr	r6, .L185
 1973              	.LBB372:
 1974              	.LBB373:
 1975              	.LBB374:
 1976              	.LBB375:
 1977              		.loc 2 92 0
 1978 0006 B246     		mov	r10, r6
 1979              	.LBE375:
 1980              	.LBE374:
 1981              	.LBE373:
 1982              	.LBE372:
 1983              		.loc 2 659 0
 1984 0008 0546     		mov	r5, r0
 1985              		.loc 2 662 0
 1986 000a 3046     		mov	r0, r6
 1987              	.LVL185:
 1988              		.loc 2 659 0
 1989 000c 8846     		mov	r8, r1
 1990 000e 1746     		mov	r7, r2
 1991 0010 9946     		mov	r9, r3
 1992              		.loc 2 662 0
 1993 0012 FFF7FEFF 		bl	chMtxLock
 1994              	.LVL186:
 1995              	.LBB390:
ARM GAS  /tmp/ccDpNQQg.s 			page 36


 1996              	.LBB386:
 1997              	.LBB377:
 1998              	.LBB376:
 1999              		.loc 2 92 0
 2000 0016 5AF8404F 		ldr	r4, [r10, #64]!
 2001              	.LVL187:
 2002              		.loc 2 94 0
 2003 001a 5445     		cmp	r4, r10
 2004 001c 03D1     		bne	.L176
 2005 001e 11E0     		b	.L174
 2006              	.L184:
 2007              		.loc 2 98 0
 2008 0020 2468     		ldr	r4, [r4]
 2009              	.LVL188:
 2010              		.loc 2 94 0
 2011 0022 5445     		cmp	r4, r10
 2012 0024 0ED0     		beq	.L174
 2013              	.L176:
 2014              		.loc 2 95 0
 2015 0026 0822     		movs	r2, #8
 2016 0028 2946     		mov	r1, r5
 2017 002a A018     		adds	r0, r4, r2
 2018 002c FFF7FEFF 		bl	strncmp
 2019              	.LVL189:
 2020 0030 0028     		cmp	r0, #0
 2021 0032 F5D1     		bne	.L184
 2022              	.LVL190:
 2023              	.LBE376:
 2024              	.LBE377:
 2025              		.loc 2 133 0
 2026 0034 34B1     		cbz	r4, .L174
 2027              		.loc 2 134 0
 2028 0036 0446     		mov	r4, r0
 2029              	.LBE386:
 2030              	.LBE390:
 2031              		.loc 2 675 0
 2032 0038 1A48     		ldr	r0, .L185
 2033 003a FFF7FEFF 		bl	chMtxUnlock
 2034              	.LVL191:
 2035              		.loc 2 678 0
 2036 003e 2046     		mov	r0, r4
 2037 0040 BDE8F087 		pop	{r4, r5, r6, r7, r8, r9, r10, pc}
 2038              	.LVL192:
 2039              	.L174:
 2040              		.loc 2 666 0
 2041 0044 07F1150A 		add	r10, r7, #21
 2042 0048 4FEA8A0A 		lsl	r10, r10, #2
 2043              	.LVL193:
 2044              	.LBB391:
 2045              	.LBB387:
 2046              	.LBB378:
 2047              	.LBB379:
 2048              	.LBB380:
 2049              	.LBB381:
 2050              		.loc 4 156 0
 2051 004c 08FB07A1 		mla	r1, r8, r7, r10
 2052 0050 0822     		movs	r2, #8
ARM GAS  /tmp/ccDpNQQg.s 			page 37


 2053 0052 0020     		movs	r0, #0
 2054 0054 FFF7FEFF 		bl	chHeapAllocAligned
 2055              	.LVL194:
 2056              	.LBE381:
 2057              	.LBE380:
 2058              		.loc 2 141 0
 2059 0058 0446     		mov	r4, r0
 2060 005a E8B1     		cbz	r0, .L177
 2061              		.loc 2 146 0
 2062 005c 0822     		movs	r2, #8
 2063 005e 2946     		mov	r1, r5
 2064 0060 1044     		add	r0, r0, r2
 2065 0062 FFF7FEFF 		bl	strncpy
 2066              	.LVL195:
 2067              	.LBE379:
 2068              	.LBE378:
 2069              	.LBE387:
 2070              	.LBE391:
 2071              	.LBB392:
 2072              	.LBB393:
 2073              		.file 5 "./RM18A-ChibiOS18-Core/chibios/os/oslib/include/chobjfifos.h"
 2074              		.loc 5 134 0
 2075 0066 04F11005 		add	r5, r4, #16
 2076              	.LVL196:
 2077              	.LBE393:
 2078              	.LBE392:
 2079              	.LBB396:
 2080              	.LBB388:
 2081              	.LBB384:
 2082              	.LBB382:
 2083              		.loc 2 149 0
 2084 006a 336C     		ldr	r3, [r6, #64]
 2085 006c 2360     		str	r3, [r4]
 2086              		.loc 2 148 0
 2087 006e 0122     		movs	r2, #1
 2088 0070 6260     		str	r2, [r4, #4]
 2089              	.LBE382:
 2090              	.LBE384:
 2091              	.LBE388:
 2092              	.LBE396:
 2093              	.LBB397:
 2094              	.LBB394:
 2095              		.loc 5 134 0
 2096 0072 4146     		mov	r1, r8
 2097 0074 4A46     		mov	r2, r9
 2098 0076 2846     		mov	r0, r5
 2099              	.LBE394:
 2100              	.LBE397:
 2101              		.loc 2 672 0
 2102 0078 A244     		add	r10, r10, r4
 2103              	.LBB398:
 2104              	.LBB389:
 2105              	.LBB385:
 2106              	.LBB383:
 2107              		.loc 2 152 0
 2108 007a 3464     		str	r4, [r6, #64]
 2109              	.LVL197:
ARM GAS  /tmp/ccDpNQQg.s 			page 38


 2110              	.LBE383:
 2111              	.LBE385:
 2112              	.LBE389:
 2113              	.LBE398:
 2114              	.LBB399:
 2115              	.LBB395:
 2116              		.loc 5 134 0
 2117 007c FFF7FEFF 		bl	chGuardedPoolObjectInitAligned
 2118              	.LVL198:
 2119              		.loc 5 135 0
 2120 0080 3A46     		mov	r2, r7
 2121 0082 5146     		mov	r1, r10
 2122 0084 2846     		mov	r0, r5
 2123 0086 FFF7FEFF 		bl	chGuardedPoolLoadArray
 2124              	.LVL199:
 2125              		.loc 5 136 0
 2126 008a 3A46     		mov	r2, r7
 2127 008c 04F15401 		add	r1, r4, #84
 2128              	.LVL200:
 2129 0090 04F12C00 		add	r0, r4, #44
 2130 0094 FFF7FEFF 		bl	chMBObjectInit
 2131              	.LVL201:
 2132              	.L177:
 2133              	.LBE395:
 2134              	.LBE399:
 2135              		.loc 2 675 0
 2136 0098 0248     		ldr	r0, .L185
 2137 009a FFF7FEFF 		bl	chMtxUnlock
 2138              	.LVL202:
 2139              		.loc 2 678 0
 2140 009e 2046     		mov	r0, r4
 2141 00a0 BDE8F087 		pop	{r4, r5, r6, r7, r8, r9, r10, pc}
 2142              	.LVL203:
 2143              	.L186:
 2144              		.align	2
 2145              	.L185:
 2146 00a4 00000000 		.word	.LANCHOR0
 2147              		.cfi_endproc
 2148              	.LFE316:
 2149              		.size	chFactoryCreateObjectsFIFO, .-chFactoryCreateObjectsFIFO
 2150              		.section	.text.chFactoryFindObjectsFIFO,"ax",%progbits
 2151              		.align	1
 2152              		.p2align 2,,3
 2153              		.global	chFactoryFindObjectsFIFO
 2154              		.syntax unified
 2155              		.thumb
 2156              		.thumb_func
 2157              		.fpu fpv4-sp-d16
 2158              		.type	chFactoryFindObjectsFIFO, %function
 2159              	chFactoryFindObjectsFIFO:
 2160              	.LFB317:
 2161              		.loc 2 694 0
 2162              		.cfi_startproc
 2163              		@ args = 0, pretend = 0, frame = 0
 2164              		@ frame_needed = 0, uses_anonymous_args = 0
 2165              	.LVL204:
 2166              		.loc 2 697 0
ARM GAS  /tmp/ccDpNQQg.s 			page 39


 2167 0000 124B     		ldr	r3, .L198
 2168              		.loc 2 694 0
 2169 0002 70B5     		push	{r4, r5, r6, lr}
 2170              		.cfi_def_cfa_offset 16
 2171              		.cfi_offset 4, -16
 2172              		.cfi_offset 5, -12
 2173              		.cfi_offset 6, -8
 2174              		.cfi_offset 14, -4
 2175              	.LBB404:
 2176              	.LBB405:
 2177              	.LBB406:
 2178              	.LBB407:
 2179              		.loc 2 92 0
 2180 0004 1D46     		mov	r5, r3
 2181              	.LBE407:
 2182              	.LBE406:
 2183              	.LBE405:
 2184              	.LBE404:
 2185              		.loc 2 694 0
 2186 0006 0646     		mov	r6, r0
 2187              		.loc 2 697 0
 2188 0008 1846     		mov	r0, r3
 2189              	.LVL205:
 2190 000a FFF7FEFF 		bl	chMtxLock
 2191              	.LVL206:
 2192              	.LBB415:
 2193              	.LBB412:
 2194              	.LBB410:
 2195              	.LBB408:
 2196              		.loc 2 92 0
 2197 000e 55F8404F 		ldr	r4, [r5, #64]!
 2198              	.LVL207:
 2199              		.loc 2 94 0
 2200 0012 AC42     		cmp	r4, r5
 2201 0014 03D1     		bne	.L190
 2202 0016 12E0     		b	.L191
 2203              	.L197:
 2204              		.loc 2 98 0
 2205 0018 2468     		ldr	r4, [r4]
 2206              	.LVL208:
 2207              		.loc 2 94 0
 2208 001a AC42     		cmp	r4, r5
 2209 001c 0FD0     		beq	.L191
 2210              	.L190:
 2211              		.loc 2 95 0
 2212 001e 0822     		movs	r2, #8
 2213 0020 3146     		mov	r1, r6
 2214 0022 A018     		adds	r0, r4, r2
 2215 0024 FFF7FEFF 		bl	strncmp
 2216              	.LVL209:
 2217 0028 0028     		cmp	r0, #0
 2218 002a F5D1     		bne	.L197
 2219              	.LVL210:
 2220              	.LBE408:
 2221              	.LBE410:
 2222              		.loc 2 228 0
 2223 002c 44B1     		cbz	r4, .L188
ARM GAS  /tmp/ccDpNQQg.s 			page 40


 2224              		.loc 2 230 0
 2225 002e 6368     		ldr	r3, [r4, #4]
 2226              	.LBE412:
 2227              	.LBE415:
 2228              		.loc 2 701 0
 2229 0030 0648     		ldr	r0, .L198
 2230              	.LBB416:
 2231              	.LBB413:
 2232              		.loc 2 230 0
 2233 0032 0133     		adds	r3, r3, #1
 2234 0034 6360     		str	r3, [r4, #4]
 2235              	.LVL211:
 2236              	.LBE413:
 2237              	.LBE416:
 2238              		.loc 2 701 0
 2239 0036 FFF7FEFF 		bl	chMtxUnlock
 2240              	.LVL212:
 2241              		.loc 2 704 0
 2242 003a 2046     		mov	r0, r4
 2243 003c 70BD     		pop	{r4, r5, r6, pc}
 2244              	.LVL213:
 2245              	.L191:
 2246              	.LBB417:
 2247              	.LBB414:
 2248              	.LBB411:
 2249              	.LBB409:
 2250              		.loc 2 101 0
 2251 003e 0024     		movs	r4, #0
 2252              	.LVL214:
 2253              	.L188:
 2254              	.LBE409:
 2255              	.LBE411:
 2256              	.LBE414:
 2257              	.LBE417:
 2258              		.loc 2 701 0
 2259 0040 0248     		ldr	r0, .L198
 2260 0042 FFF7FEFF 		bl	chMtxUnlock
 2261              	.LVL215:
 2262              		.loc 2 704 0
 2263 0046 2046     		mov	r0, r4
 2264 0048 70BD     		pop	{r4, r5, r6, pc}
 2265              	.LVL216:
 2266              	.L199:
 2267 004a 00BF     		.align	2
 2268              	.L198:
 2269 004c 00000000 		.word	.LANCHOR0
 2270              		.cfi_endproc
 2271              	.LFE317:
 2272              		.size	chFactoryFindObjectsFIFO, .-chFactoryFindObjectsFIFO
 2273              		.section	.text.chFactoryReleaseObjectsFIFO,"ax",%progbits
 2274              		.align	1
 2275              		.p2align 2,,3
 2276              		.global	chFactoryReleaseObjectsFIFO
 2277              		.syntax unified
 2278              		.thumb
 2279              		.thumb_func
 2280              		.fpu fpv4-sp-d16
ARM GAS  /tmp/ccDpNQQg.s 			page 41


 2281              		.type	chFactoryReleaseObjectsFIFO, %function
 2282              	chFactoryReleaseObjectsFIFO:
 2283              	.LFB318:
 2284              		.loc 2 716 0
 2285              		.cfi_startproc
 2286              		@ args = 0, pretend = 0, frame = 0
 2287              		@ frame_needed = 0, uses_anonymous_args = 0
 2288              	.LVL217:
 2289 0000 10B5     		push	{r4, lr}
 2290              		.cfi_def_cfa_offset 8
 2291              		.cfi_offset 4, -8
 2292              		.cfi_offset 14, -4
 2293              		.loc 2 716 0
 2294 0002 0446     		mov	r4, r0
 2295              		.loc 2 718 0
 2296 0004 1048     		ldr	r0, .L210
 2297              	.LVL218:
 2298 0006 FFF7FEFF 		bl	chMtxLock
 2299              	.LVL219:
 2300              	.LBB424:
 2301              	.LBB425:
 2302              		.loc 2 164 0
 2303 000a 6368     		ldr	r3, [r4, #4]
 2304 000c 013B     		subs	r3, r3, #1
 2305 000e 6360     		str	r3, [r4, #4]
 2306              		.loc 2 165 0
 2307 0010 23B1     		cbz	r3, .L208
 2308              	.LVL220:
 2309              	.LBE425:
 2310              	.LBE424:
 2311              		.loc 2 722 0
 2312 0012 0D48     		ldr	r0, .L210
 2313              		.loc 2 723 0
 2314 0014 BDE81040 		pop	{r4, lr}
 2315              		.cfi_remember_state
 2316              		.cfi_restore 14
 2317              		.cfi_restore 4
 2318              		.cfi_def_cfa_offset 0
 2319              	.LVL221:
 2320              		.loc 2 722 0
 2321 0018 FFF7FEBF 		b	chMtxUnlock
 2322              	.LVL222:
 2323              	.L208:
 2324              		.cfi_restore_state
 2325              	.LBB441:
 2326              	.LBB438:
 2327              	.LBB426:
 2328              	.LBB427:
 2329              	.LBB428:
 2330              	.LBB429:
 2331              		.loc 2 106 0
 2332 001c 0B49     		ldr	r1, .L210+4
 2333 001e 0A46     		mov	r2, r1
 2334 0020 02E0     		b	.L201
 2335              	.LVL223:
 2336              	.L204:
 2337              		.loc 2 110 0
ARM GAS  /tmp/ccDpNQQg.s 			page 42


 2338 0022 9842     		cmp	r0, r3
 2339 0024 0CD0     		beq	.L209
 2340 0026 1A46     		mov	r2, r3
 2341              	.LVL224:
 2342              	.L201:
 2343              		.loc 2 109 0
 2344 0028 1368     		ldr	r3, [r2]
 2345 002a 8B42     		cmp	r3, r1
 2346              	.LBE429:
 2347              	.LBE428:
 2348              	.LBE427:
 2349              	.LBE426:
 2350              	.LBE438:
 2351              	.LBE441:
 2352              		.loc 2 720 0
 2353 002c 2046     		mov	r0, r4
 2354              	.LBB442:
 2355              	.LBB439:
 2356              	.LBB436:
 2357              	.LBB434:
 2358              	.LBB432:
 2359              	.LBB430:
 2360              		.loc 2 109 0
 2361 002e F8D1     		bne	.L204
 2362              	.LVL225:
 2363              		.loc 2 120 0
 2364 0030 0020     		movs	r0, #0
 2365              	.LVL226:
 2366              	.L203:
 2367              	.LBE430:
 2368              	.LBE432:
 2369              		.loc 2 167 0
 2370 0032 FFF7FEFF 		bl	chHeapFree
 2371              	.LVL227:
 2372              	.LBE434:
 2373              	.LBE436:
 2374              	.LBE439:
 2375              	.LBE442:
 2376              		.loc 2 722 0
 2377 0036 0448     		ldr	r0, .L210
 2378              		.loc 2 723 0
 2379 0038 BDE81040 		pop	{r4, lr}
 2380              		.cfi_remember_state
 2381              		.cfi_restore 14
 2382              		.cfi_restore 4
 2383              		.cfi_def_cfa_offset 0
 2384              	.LVL228:
 2385              		.loc 2 722 0
 2386 003c FFF7FEBF 		b	chMtxUnlock
 2387              	.LVL229:
 2388              	.L209:
 2389              		.cfi_restore_state
 2390              	.LBB443:
 2391              	.LBB440:
 2392              	.LBB437:
 2393              	.LBB435:
 2394              	.LBB433:
ARM GAS  /tmp/ccDpNQQg.s 			page 43


 2395              	.LBB431:
 2396              		.loc 2 112 0
 2397 0040 0368     		ldr	r3, [r0]
 2398 0042 1360     		str	r3, [r2]
 2399 0044 F5E7     		b	.L203
 2400              	.L211:
 2401 0046 00BF     		.align	2
 2402              	.L210:
 2403 0048 00000000 		.word	.LANCHOR0
 2404 004c 40000000 		.word	.LANCHOR0+64
 2405              	.LBE431:
 2406              	.LBE433:
 2407              	.LBE435:
 2408              	.LBE437:
 2409              	.LBE440:
 2410              	.LBE443:
 2411              		.cfi_endproc
 2412              	.LFE318:
 2413              		.size	chFactoryReleaseObjectsFIFO, .-chFactoryReleaseObjectsFIFO
 2414              		.section	.text.chFactoryCreatePipe,"ax",%progbits
 2415              		.align	1
 2416              		.p2align 2,,3
 2417              		.global	chFactoryCreatePipe
 2418              		.syntax unified
 2419              		.thumb
 2420              		.thumb_func
 2421              		.fpu fpv4-sp-d16
 2422              		.type	chFactoryCreatePipe, %function
 2423              	chFactoryCreatePipe:
 2424              	.LFB319:
 2425              		.loc 2 744 0
 2426              		.cfi_startproc
 2427              		@ args = 0, pretend = 0, frame = 0
 2428              		@ frame_needed = 0, uses_anonymous_args = 0
 2429              	.LVL230:
 2430 0000 2DE9F041 		push	{r4, r5, r6, r7, r8, lr}
 2431              		.cfi_def_cfa_offset 24
 2432              		.cfi_offset 4, -24
 2433              		.cfi_offset 5, -20
 2434              		.cfi_offset 6, -16
 2435              		.cfi_offset 7, -12
 2436              		.cfi_offset 8, -8
 2437              		.cfi_offset 14, -4
 2438              		.loc 2 747 0
 2439 0004 1E4F     		ldr	r7, .L224
 2440              	.LBB454:
 2441              	.LBB455:
 2442              	.LBB456:
 2443              	.LBB457:
 2444              		.loc 2 92 0
 2445 0006 3D46     		mov	r5, r7
 2446              	.LBE457:
 2447              	.LBE456:
 2448              	.LBE455:
 2449              	.LBE454:
 2450              		.loc 2 744 0
 2451 0008 0646     		mov	r6, r0
ARM GAS  /tmp/ccDpNQQg.s 			page 44


 2452              		.loc 2 747 0
 2453 000a 3846     		mov	r0, r7
 2454              	.LVL231:
 2455              		.loc 2 744 0
 2456 000c 8846     		mov	r8, r1
 2457              		.loc 2 747 0
 2458 000e FFF7FEFF 		bl	chMtxLock
 2459              	.LVL232:
 2460              	.LBB469:
 2461              	.LBB466:
 2462              	.LBB459:
 2463              	.LBB458:
 2464              		.loc 2 92 0
 2465 0012 55F8444F 		ldr	r4, [r5, #68]!
 2466              	.LVL233:
 2467              		.loc 2 94 0
 2468 0016 AC42     		cmp	r4, r5
 2469 0018 03D1     		bne	.L215
 2470 001a 11E0     		b	.L213
 2471              	.L223:
 2472              		.loc 2 98 0
 2473 001c 2468     		ldr	r4, [r4]
 2474              	.LVL234:
 2475              		.loc 2 94 0
 2476 001e AC42     		cmp	r4, r5
 2477 0020 0ED0     		beq	.L213
 2478              	.L215:
 2479              		.loc 2 95 0
 2480 0022 0822     		movs	r2, #8
 2481 0024 3146     		mov	r1, r6
 2482 0026 A018     		adds	r0, r4, r2
 2483 0028 FFF7FEFF 		bl	strncmp
 2484              	.LVL235:
 2485 002c 0028     		cmp	r0, #0
 2486 002e F5D1     		bne	.L223
 2487              	.LVL236:
 2488              	.LBE458:
 2489              	.LBE459:
 2490              		.loc 2 133 0
 2491 0030 34B1     		cbz	r4, .L213
 2492              		.loc 2 134 0
 2493 0032 0446     		mov	r4, r0
 2494              	.LBE466:
 2495              	.LBE469:
 2496              		.loc 2 757 0
 2497 0034 1248     		ldr	r0, .L224
 2498 0036 FFF7FEFF 		bl	chMtxUnlock
 2499              	.LVL237:
 2500              		.loc 2 760 0
 2501 003a 2046     		mov	r0, r4
 2502 003c BDE8F081 		pop	{r4, r5, r6, r7, r8, pc}
 2503              	.LVL238:
 2504              	.L213:
 2505              	.LBB470:
 2506              	.LBB467:
 2507              	.LBB460:
 2508              	.LBB461:
ARM GAS  /tmp/ccDpNQQg.s 			page 45


 2509              	.LBB462:
 2510              	.LBB463:
 2511              		.loc 4 156 0
 2512 0040 0822     		movs	r2, #8
 2513 0042 08F16001 		add	r1, r8, #96
 2514 0046 0020     		movs	r0, #0
 2515 0048 FFF7FEFF 		bl	chHeapAllocAligned
 2516              	.LVL239:
 2517              	.LBE463:
 2518              	.LBE462:
 2519              		.loc 2 141 0
 2520 004c 0446     		mov	r4, r0
 2521 004e 80B1     		cbz	r0, .L216
 2522              		.loc 2 146 0
 2523 0050 0822     		movs	r2, #8
 2524 0052 3146     		mov	r1, r6
 2525 0054 1044     		add	r0, r0, r2
 2526 0056 FFF7FEFF 		bl	strncpy
 2527              	.LVL240:
 2528              		.loc 2 149 0
 2529 005a 7B6C     		ldr	r3, [r7, #68]
 2530 005c 2360     		str	r3, [r4]
 2531              		.loc 2 148 0
 2532 005e 0122     		movs	r2, #1
 2533 0060 6260     		str	r2, [r4, #4]
 2534              	.LBE461:
 2535              	.LBE460:
 2536              	.LBE467:
 2537              	.LBE470:
 2538              		.loc 2 754 0
 2539 0062 04F16001 		add	r1, r4, #96
 2540 0066 4246     		mov	r2, r8
 2541 0068 04F11000 		add	r0, r4, #16
 2542              	.LBB471:
 2543              	.LBB468:
 2544              	.LBB465:
 2545              	.LBB464:
 2546              		.loc 2 152 0
 2547 006c 7C64     		str	r4, [r7, #68]
 2548              	.LVL241:
 2549              	.LBE464:
 2550              	.LBE465:
 2551              	.LBE468:
 2552              	.LBE471:
 2553              		.loc 2 754 0
 2554 006e FFF7FEFF 		bl	chPipeObjectInit
 2555              	.LVL242:
 2556              	.L216:
 2557              		.loc 2 757 0
 2558 0072 0348     		ldr	r0, .L224
 2559 0074 FFF7FEFF 		bl	chMtxUnlock
 2560              	.LVL243:
 2561              		.loc 2 760 0
 2562 0078 2046     		mov	r0, r4
 2563 007a BDE8F081 		pop	{r4, r5, r6, r7, r8, pc}
 2564              	.LVL244:
 2565              	.L225:
ARM GAS  /tmp/ccDpNQQg.s 			page 46


 2566 007e 00BF     		.align	2
 2567              	.L224:
 2568 0080 00000000 		.word	.LANCHOR0
 2569              		.cfi_endproc
 2570              	.LFE319:
 2571              		.size	chFactoryCreatePipe, .-chFactoryCreatePipe
 2572              		.section	.text.chFactoryFindPipe,"ax",%progbits
 2573              		.align	1
 2574              		.p2align 2,,3
 2575              		.global	chFactoryFindPipe
 2576              		.syntax unified
 2577              		.thumb
 2578              		.thumb_func
 2579              		.fpu fpv4-sp-d16
 2580              		.type	chFactoryFindPipe, %function
 2581              	chFactoryFindPipe:
 2582              	.LFB320:
 2583              		.loc 2 776 0
 2584              		.cfi_startproc
 2585              		@ args = 0, pretend = 0, frame = 0
 2586              		@ frame_needed = 0, uses_anonymous_args = 0
 2587              	.LVL245:
 2588              		.loc 2 779 0
 2589 0000 124B     		ldr	r3, .L237
 2590              		.loc 2 776 0
 2591 0002 70B5     		push	{r4, r5, r6, lr}
 2592              		.cfi_def_cfa_offset 16
 2593              		.cfi_offset 4, -16
 2594              		.cfi_offset 5, -12
 2595              		.cfi_offset 6, -8
 2596              		.cfi_offset 14, -4
 2597              	.LBB476:
 2598              	.LBB477:
 2599              	.LBB478:
 2600              	.LBB479:
 2601              		.loc 2 92 0
 2602 0004 1D46     		mov	r5, r3
 2603              	.LBE479:
 2604              	.LBE478:
 2605              	.LBE477:
 2606              	.LBE476:
 2607              		.loc 2 776 0
 2608 0006 0646     		mov	r6, r0
 2609              		.loc 2 779 0
 2610 0008 1846     		mov	r0, r3
 2611              	.LVL246:
 2612 000a FFF7FEFF 		bl	chMtxLock
 2613              	.LVL247:
 2614              	.LBB487:
 2615              	.LBB484:
 2616              	.LBB482:
 2617              	.LBB480:
 2618              		.loc 2 92 0
 2619 000e 55F8444F 		ldr	r4, [r5, #68]!
 2620              	.LVL248:
 2621              		.loc 2 94 0
 2622 0012 AC42     		cmp	r4, r5
ARM GAS  /tmp/ccDpNQQg.s 			page 47


 2623 0014 03D1     		bne	.L229
 2624 0016 12E0     		b	.L230
 2625              	.L236:
 2626              		.loc 2 98 0
 2627 0018 2468     		ldr	r4, [r4]
 2628              	.LVL249:
 2629              		.loc 2 94 0
 2630 001a AC42     		cmp	r4, r5
 2631 001c 0FD0     		beq	.L230
 2632              	.L229:
 2633              		.loc 2 95 0
 2634 001e 0822     		movs	r2, #8
 2635 0020 3146     		mov	r1, r6
 2636 0022 A018     		adds	r0, r4, r2
 2637 0024 FFF7FEFF 		bl	strncmp
 2638              	.LVL250:
 2639 0028 0028     		cmp	r0, #0
 2640 002a F5D1     		bne	.L236
 2641              	.LVL251:
 2642              	.LBE480:
 2643              	.LBE482:
 2644              		.loc 2 228 0
 2645 002c 44B1     		cbz	r4, .L227
 2646              		.loc 2 230 0
 2647 002e 6368     		ldr	r3, [r4, #4]
 2648              	.LBE484:
 2649              	.LBE487:
 2650              		.loc 2 783 0
 2651 0030 0648     		ldr	r0, .L237
 2652              	.LBB488:
 2653              	.LBB485:
 2654              		.loc 2 230 0
 2655 0032 0133     		adds	r3, r3, #1
 2656 0034 6360     		str	r3, [r4, #4]
 2657              	.LVL252:
 2658              	.LBE485:
 2659              	.LBE488:
 2660              		.loc 2 783 0
 2661 0036 FFF7FEFF 		bl	chMtxUnlock
 2662              	.LVL253:
 2663              		.loc 2 786 0
 2664 003a 2046     		mov	r0, r4
 2665 003c 70BD     		pop	{r4, r5, r6, pc}
 2666              	.LVL254:
 2667              	.L230:
 2668              	.LBB489:
 2669              	.LBB486:
 2670              	.LBB483:
 2671              	.LBB481:
 2672              		.loc 2 101 0
 2673 003e 0024     		movs	r4, #0
 2674              	.LVL255:
 2675              	.L227:
 2676              	.LBE481:
 2677              	.LBE483:
 2678              	.LBE486:
 2679              	.LBE489:
ARM GAS  /tmp/ccDpNQQg.s 			page 48


 2680              		.loc 2 783 0
 2681 0040 0248     		ldr	r0, .L237
 2682 0042 FFF7FEFF 		bl	chMtxUnlock
 2683              	.LVL256:
 2684              		.loc 2 786 0
 2685 0046 2046     		mov	r0, r4
 2686 0048 70BD     		pop	{r4, r5, r6, pc}
 2687              	.LVL257:
 2688              	.L238:
 2689 004a 00BF     		.align	2
 2690              	.L237:
 2691 004c 00000000 		.word	.LANCHOR0
 2692              		.cfi_endproc
 2693              	.LFE320:
 2694              		.size	chFactoryFindPipe, .-chFactoryFindPipe
 2695              		.section	.text.chFactoryReleasePipe,"ax",%progbits
 2696              		.align	1
 2697              		.p2align 2,,3
 2698              		.global	chFactoryReleasePipe
 2699              		.syntax unified
 2700              		.thumb
 2701              		.thumb_func
 2702              		.fpu fpv4-sp-d16
 2703              		.type	chFactoryReleasePipe, %function
 2704              	chFactoryReleasePipe:
 2705              	.LFB321:
 2706              		.loc 2 798 0
 2707              		.cfi_startproc
 2708              		@ args = 0, pretend = 0, frame = 0
 2709              		@ frame_needed = 0, uses_anonymous_args = 0
 2710              	.LVL258:
 2711 0000 10B5     		push	{r4, lr}
 2712              		.cfi_def_cfa_offset 8
 2713              		.cfi_offset 4, -8
 2714              		.cfi_offset 14, -4
 2715              		.loc 2 798 0
 2716 0002 0446     		mov	r4, r0
 2717              		.loc 2 800 0
 2718 0004 1048     		ldr	r0, .L249
 2719              	.LVL259:
 2720 0006 FFF7FEFF 		bl	chMtxLock
 2721              	.LVL260:
 2722              	.LBB496:
 2723              	.LBB497:
 2724              		.loc 2 164 0
 2725 000a 6368     		ldr	r3, [r4, #4]
 2726 000c 013B     		subs	r3, r3, #1
 2727 000e 6360     		str	r3, [r4, #4]
 2728              		.loc 2 165 0
 2729 0010 23B1     		cbz	r3, .L247
 2730              	.LVL261:
 2731              	.LBE497:
 2732              	.LBE496:
 2733              		.loc 2 804 0
 2734 0012 0D48     		ldr	r0, .L249
 2735              		.loc 2 805 0
 2736 0014 BDE81040 		pop	{r4, lr}
ARM GAS  /tmp/ccDpNQQg.s 			page 49


 2737              		.cfi_remember_state
 2738              		.cfi_restore 14
 2739              		.cfi_restore 4
 2740              		.cfi_def_cfa_offset 0
 2741              	.LVL262:
 2742              		.loc 2 804 0
 2743 0018 FFF7FEBF 		b	chMtxUnlock
 2744              	.LVL263:
 2745              	.L247:
 2746              		.cfi_restore_state
 2747              	.LBB513:
 2748              	.LBB510:
 2749              	.LBB498:
 2750              	.LBB499:
 2751              	.LBB500:
 2752              	.LBB501:
 2753              		.loc 2 106 0
 2754 001c 0B49     		ldr	r1, .L249+4
 2755 001e 0A46     		mov	r2, r1
 2756 0020 02E0     		b	.L240
 2757              	.LVL264:
 2758              	.L243:
 2759              		.loc 2 110 0
 2760 0022 9842     		cmp	r0, r3
 2761 0024 0CD0     		beq	.L248
 2762 0026 1A46     		mov	r2, r3
 2763              	.LVL265:
 2764              	.L240:
 2765              		.loc 2 109 0
 2766 0028 1368     		ldr	r3, [r2]
 2767 002a 8B42     		cmp	r3, r1
 2768              	.LBE501:
 2769              	.LBE500:
 2770              	.LBE499:
 2771              	.LBE498:
 2772              	.LBE510:
 2773              	.LBE513:
 2774              		.loc 2 802 0
 2775 002c 2046     		mov	r0, r4
 2776              	.LBB514:
 2777              	.LBB511:
 2778              	.LBB508:
 2779              	.LBB506:
 2780              	.LBB504:
 2781              	.LBB502:
 2782              		.loc 2 109 0
 2783 002e F8D1     		bne	.L243
 2784              	.LVL266:
 2785              		.loc 2 120 0
 2786 0030 0020     		movs	r0, #0
 2787              	.LVL267:
 2788              	.L242:
 2789              	.LBE502:
 2790              	.LBE504:
 2791              		.loc 2 167 0
 2792 0032 FFF7FEFF 		bl	chHeapFree
 2793              	.LVL268:
ARM GAS  /tmp/ccDpNQQg.s 			page 50


 2794              	.LBE506:
 2795              	.LBE508:
 2796              	.LBE511:
 2797              	.LBE514:
 2798              		.loc 2 804 0
 2799 0036 0448     		ldr	r0, .L249
 2800              		.loc 2 805 0
 2801 0038 BDE81040 		pop	{r4, lr}
 2802              		.cfi_remember_state
 2803              		.cfi_restore 14
 2804              		.cfi_restore 4
 2805              		.cfi_def_cfa_offset 0
 2806              	.LVL269:
 2807              		.loc 2 804 0
 2808 003c FFF7FEBF 		b	chMtxUnlock
 2809              	.LVL270:
 2810              	.L248:
 2811              		.cfi_restore_state
 2812              	.LBB515:
 2813              	.LBB512:
 2814              	.LBB509:
 2815              	.LBB507:
 2816              	.LBB505:
 2817              	.LBB503:
 2818              		.loc 2 112 0
 2819 0040 0368     		ldr	r3, [r0]
 2820 0042 1360     		str	r3, [r2]
 2821 0044 F5E7     		b	.L242
 2822              	.L250:
 2823 0046 00BF     		.align	2
 2824              	.L249:
 2825 0048 00000000 		.word	.LANCHOR0
 2826 004c 44000000 		.word	.LANCHOR0+68
 2827              	.LBE503:
 2828              	.LBE505:
 2829              	.LBE507:
 2830              	.LBE509:
 2831              	.LBE512:
 2832              	.LBE515:
 2833              		.cfi_endproc
 2834              	.LFE321:
 2835              		.size	chFactoryReleasePipe, .-chFactoryReleasePipe
 2836              		.global	ch_factory
 2837              		.section	.bss.ch_factory,"aw",%nobits
 2838              		.align	2
 2839              		.set	.LANCHOR0,. + 0
 2840              		.type	ch_factory, %object
 2841              		.size	ch_factory, 72
 2842              	ch_factory:
 2843 0000 00000000 		.space	72
 2843      00000000 
 2843      00000000 
 2843      00000000 
 2843      00000000 
 2844              		.text
 2845              	.Letext0:
 2846              		.file 6 "/usr/lib/gcc/arm-none-eabi/7.3.1/include/stddef.h"
ARM GAS  /tmp/ccDpNQQg.s 			page 51


 2847              		.file 7 "/usr/arm-none-eabi/include/machine/_default_types.h"
 2848              		.file 8 "/usr/arm-none-eabi/include/sys/lock.h"
 2849              		.file 9 "/usr/arm-none-eabi/include/sys/_types.h"
 2850              		.file 10 "/usr/arm-none-eabi/include/sys/reent.h"
 2851              		.file 11 "/usr/arm-none-eabi/include/sys/_stdint.h"
 2852              		.file 12 "./RM18A-ChibiOS18-Core/chibios/os/common/ports/ARMCMx/compilers/GCC/chtypes.h"
 2853              		.file 13 "./RM18A-ChibiOS18-Core/chibios/os/rt/include/chsystypes.h"
 2854              		.file 14 "./RM18A-ChibiOS18-Core/chibios/os/rt/include/chschd.h"
 2855              		.file 15 "./RM18A-ChibiOS18-Core/chibios/os/rt/include/chtime.h"
 2856              		.file 16 "./RM18A-ChibiOS18-Core/chibios/os/common/ext/ARM/CMSIS/Core/Include/core_cm4.h"
 2857              		.file 17 "./RM18A-ChibiOS18-Core/chibios/os/common/ext/ST/STM32F4xx/system_stm32f4xx.h"
 2858              		.file 18 "./RM18A-ChibiOS18-Core/chibios/os/common/ports/ARMCMx/chcore.h"
 2859              		.file 19 "./RM18A-ChibiOS18-Core/chibios/os/common/ports/ARMCMx/chcore_v7m.h"
 2860              		.file 20 "./RM18A-ChibiOS18-Core/chibios/os/rt/include/chtm.h"
 2861              		.file 21 "./RM18A-ChibiOS18-Core/chibios/os/rt/include/chsem.h"
 2862              		.file 22 "./RM18A-ChibiOS18-Core/chibios/os/rt/include/chmtx.h"
 2863              		.file 23 "./RM18A-ChibiOS18-Core/chibios/os/rt/include/chsys.h"
 2864              		.file 24 "./RM18A-ChibiOS18-Core/chibios/os/rt/include/chregistry.h"
 2865              		.file 25 "./RM18A-ChibiOS18-Core/chibios/os/oslib/include/chmboxes.h"
 2866              		.file 26 "./RM18A-ChibiOS18-Core/chibios/os/oslib/include/chpipes.h"
 2867              		.file 27 "./RM18A-ChibiOS18-Core/chibios/os/oslib/include/chfactory.h"
 2868              		.file 28 "/usr/arm-none-eabi/include/string.h"
 2869              		.file 29 "<built-in>"