ARM GAS  /tmp/ccfkNEyW.s 			page 1


   1              		.cpu cortex-m4
   2              		.eabi_attribute 27, 1
   3              		.eabi_attribute 28, 1
   4              		.eabi_attribute 20, 1
   5              		.eabi_attribute 21, 1
   6              		.eabi_attribute 23, 3
   7              		.eabi_attribute 24, 1
   8              		.eabi_attribute 25, 1
   9              		.eabi_attribute 26, 1
  10              		.eabi_attribute 30, 2
  11              		.eabi_attribute 34, 1
  12              		.eabi_attribute 18, 4
  13              		.file	"chmemheaps.c"
  14              		.text
  15              	.Ltext0:
  16              		.cfi_sections	.debug_frame
  17              		.section	.text._heap_init,"ax",%progbits
  18              		.align	1
  19              		.p2align 2,,3
  20              		.global	_heap_init
  21              		.syntax unified
  22              		.thumb
  23              		.thumb_func
  24              		.fpu fpv4-sp-d16
  25              		.type	_heap_init, %function
  26              	_heap_init:
  27              	.LFB294:
  28              		.file 1 "./RM18A-ChibiOS18-Core/chibios/os/oslib/src/chmemheaps.c"
  29              		.loc 1 107 0
  30              		.cfi_startproc
  31              		@ args = 0, pretend = 0, frame = 0
  32              		@ frame_needed = 0, uses_anonymous_args = 0
  33              		@ link register save eliminated.
  34              		.loc 1 109 0
  35 0000 044B     		ldr	r3, .L3
  36 0002 054A     		ldr	r2, .L3+4
  37 0004 1A60     		str	r2, [r3]
  38              		.loc 1 113 0
  39 0006 03F10C00 		add	r0, r3, #12
  40              		.loc 1 110 0
  41 000a 0022     		movs	r2, #0
  42              		.loc 1 111 0
  43 000c C3E90122 		strd	r2, r2, [r3, #4]
  44              		.loc 1 113 0
  45 0010 FFF7FEBF 		b	chMtxObjectInit
  46              	.LVL0:
  47              	.L4:
  48              		.align	2
  49              	.L3:
  50 0014 00000000 		.word	.LANCHOR0
  51 0018 00000000 		.word	chCoreAllocAlignedWithOffset
  52              		.cfi_endproc
  53              	.LFE294:
  54              		.size	_heap_init, .-_heap_init
  55              		.section	.text.chHeapObjectInit,"ax",%progbits
  56              		.align	1
  57              		.p2align 2,,3
ARM GAS  /tmp/ccfkNEyW.s 			page 2


  58              		.global	chHeapObjectInit
  59              		.syntax unified
  60              		.thumb
  61              		.thumb_func
  62              		.fpu fpv4-sp-d16
  63              		.type	chHeapObjectInit, %function
  64              	chHeapObjectInit:
  65              	.LFB295:
  66              		.loc 1 131 0
  67              		.cfi_startproc
  68              		@ args = 0, pretend = 0, frame = 0
  69              		@ frame_needed = 0, uses_anonymous_args = 0
  70              		@ link register save eliminated.
  71              	.LVL1:
  72              		.loc 1 132 0
  73 0000 CB1D     		adds	r3, r1, #7
  74 0002 23F00703 		bic	r3, r3, #7
  75              	.LVL2:
  76              		.loc 1 139 0
  77 0006 591A     		subs	r1, r3, r1
  78              	.LVL3:
  79              		.loc 1 147 0
  80 0008 083A     		subs	r2, r2, #8
  81              	.LVL4:
  82 000a 521A     		subs	r2, r2, r1
  83              	.LVL5:
  84 000c D208     		lsrs	r2, r2, #3
  85              		.loc 1 143 0
  86 000e 0021     		movs	r1, #0
  87 0010 C0E90013 		strd	r1, r3, [r0]
  88              		.loc 1 145 0
  89 0014 8160     		str	r1, [r0, #8]
  90              		.loc 1 149 0
  91 0016 0C30     		adds	r0, r0, #12
  92              	.LVL6:
  93              		.loc 1 146 0
  94 0018 C3E90012 		strd	r1, r2, [r3]
  95              		.loc 1 149 0
  96 001c FFF7FEBF 		b	chMtxObjectInit
  97              	.LVL7:
  98              		.cfi_endproc
  99              	.LFE295:
 100              		.size	chHeapObjectInit, .-chHeapObjectInit
 101              		.section	.text.chHeapAllocAligned,"ax",%progbits
 102              		.align	1
 103              		.p2align 2,,3
 104              		.global	chHeapAllocAligned
 105              		.syntax unified
 106              		.thumb
 107              		.thumb_func
 108              		.fpu fpv4-sp-d16
 109              		.type	chHeapAllocAligned, %function
 110              	chHeapAllocAligned:
 111              	.LFB296:
 112              		.loc 1 172 0
 113              		.cfi_startproc
 114              		@ args = 0, pretend = 0, frame = 8
ARM GAS  /tmp/ccfkNEyW.s 			page 3


 115              		@ frame_needed = 0, uses_anonymous_args = 0
 116              	.LVL8:
 117 0000 2DE9F04F 		push	{r4, r5, r6, r7, r8, r9, r10, fp, lr}
 118              		.cfi_def_cfa_offset 36
 119              		.cfi_offset 4, -36
 120              		.cfi_offset 5, -32
 121              		.cfi_offset 6, -28
 122              		.cfi_offset 7, -24
 123              		.cfi_offset 8, -20
 124              		.cfi_offset 9, -16
 125              		.cfi_offset 10, -12
 126              		.cfi_offset 11, -8
 127              		.cfi_offset 14, -4
 128              		.loc 1 180 0
 129 0004 3D4B     		ldr	r3, .L25
 130 0006 0028     		cmp	r0, #0
 131 0008 14BF     		ite	ne
 132 000a 8046     		movne	r8, r0
 133 000c 9846     		moveq	r8, r3
 134              	.LVL9:
 135 000e 082A     		cmp	r2, #8
 136              		.loc 1 172 0
 137 0010 83B0     		sub	sp, sp, #12
 138              		.cfi_def_cfa_offset 48
 139 0012 38BF     		it	cc
 140 0014 0822     		movcc	r2, #8
 141              	.LVL10:
 142              		.loc 1 192 0
 143 0016 08F10C0A 		add	r10, r8, #12
 144 001a 9346     		mov	fp, r2
 145              	.LVL11:
 146              		.loc 1 189 0
 147 001c 01F10709 		add	r9, r1, #7
 148              		.loc 1 192 0
 149 0020 5046     		mov	r0, r10
 150              		.loc 1 172 0
 151 0022 0191     		str	r1, [sp, #4]
 152              		.loc 1 189 0
 153 0024 4FEAD909 		lsr	r9, r9, #3
 154              	.LVL12:
 155              		.loc 1 192 0
 156 0028 FFF7FEFF 		bl	chMtxLock
 157              	.LVL13:
 158              		.loc 1 195 0
 159 002c 08F1040C 		add	ip, r8, #4
 160              	.LVL14:
 161              		.loc 1 202 0
 162 0030 0BF1FF3E 		add	lr, fp, #-1
 163 0034 CBF10001 		rsb	r1, fp, #0
 164              	.LVL15:
 165              	.L8:
 166              		.loc 1 196 0
 167 0038 DCF80000 		ldr	r0, [ip]
 168              	.LVL16:
 169              		.loc 1 202 0
 170 003c 00F10807 		add	r7, r0, #8
 171 0040 07EB0E03 		add	r3, r7, lr
ARM GAS  /tmp/ccfkNEyW.s 			page 4


 172 0044 0B40     		ands	r3, r3, r1
 173              		.loc 1 204 0
 174 0046 1E46     		mov	r6, r3
 175              		.loc 1 202 0
 176 0048 083B     		subs	r3, r3, #8
 177              	.LVL17:
 178              		.loc 1 196 0
 179 004a 60B1     		cbz	r0, .L21
 180              		.loc 1 204 0
 181 004c 4268     		ldr	r2, [r0, #4]
 182 004e 541C     		adds	r4, r2, #1
 183 0050 00EBC404 		add	r4, r0, r4, lsl #3
 184 0054 A51B     		subs	r5, r4, r6
 185 0056 9C42     		cmp	r4, r3
 186 0058 4FEAE505 		asr	r5, r5, #3
 187 005c 01D9     		bls	.L9
 188              		.loc 1 204 0 is_stmt 0 discriminator 1
 189 005e 4D45     		cmp	r5, r9
 190 0060 17D2     		bcs	.L22
 191              	.L9:
 192              	.LBB2:
 193              		.loc 1 243 0 is_stmt 1
 194 0062 8446     		mov	ip, r0
 195              	.LVL18:
 196 0064 E8E7     		b	.L8
 197              	.LVL19:
 198              	.L21:
 199              	.LBE2:
 200              		.loc 1 264 0
 201 0066 5046     		mov	r0, r10
 202              	.LVL20:
 203 0068 FFF7FEFF 		bl	chMtxUnlock
 204              	.LVL21:
 205              		.loc 1 268 0
 206 006c D8F80060 		ldr	r6, [r8]
 207              	.LVL22:
 208 0070 5EB1     		cbz	r6, .L6
 209              		.loc 1 269 0
 210 0072 5946     		mov	r1, fp
 211 0074 4FEAC900 		lsl	r0, r9, #3
 212 0078 0822     		movs	r2, #8
 213 007a B047     		blx	r6
 214              	.LVL23:
 215              		.loc 1 272 0
 216 007c 0646     		mov	r6, r0
 217 007e 20B1     		cbz	r0, .L6
 218              	.LVL24:
 219              		.loc 1 275 0
 220 0080 019B     		ldr	r3, [sp, #4]
 221              		.loc 1 274 0
 222 0082 40F8088C 		str	r8, [r0, #-8]
 223              		.loc 1 275 0
 224 0086 40F8043C 		str	r3, [r0, #-4]
 225              	.LVL25:
 226              	.L6:
 227              		.loc 1 284 0
 228 008a 3046     		mov	r0, r6
ARM GAS  /tmp/ccfkNEyW.s 			page 5


 229 008c 03B0     		add	sp, sp, #12
 230              		.cfi_remember_state
 231              		.cfi_def_cfa_offset 36
 232              		@ sp needed
 233 008e BDE8F08F 		pop	{r4, r5, r6, r7, r8, r9, r10, fp, pc}
 234              	.LVL26:
 235              	.L22:
 236              		.cfi_restore_state
 237              		.loc 1 208 0
 238 0092 9842     		cmp	r0, r3
 239 0094 1BD3     		bcc	.L23
 240              		.loc 1 232 0
 241 0096 4A45     		cmp	r2, r9
 242 0098 0368     		ldr	r3, [r0]
 243              	.LVL27:
 244 009a 2AD0     		beq	.L24
 245              	.LBB3:
 246              		.loc 1 240 0
 247 009c 09F10109 		add	r9, r9, #1
 248              	.LVL28:
 249 00a0 00EBC901 		add	r1, r0, r9, lsl #3
 250              	.LVL29:
 251              		.loc 1 242 0
 252 00a4 01F10802 		add	r2, r1, #8
 253 00a8 A21A     		subs	r2, r4, r2
 254 00aa D210     		asrs	r2, r2, #3
 255              		.loc 1 241 0
 256 00ac 40F83930 		str	r3, [r0, r9, lsl #3]
 257              	.LBE3:
 258              		.loc 1 202 0
 259 00b0 3E46     		mov	r6, r7
 260              	.LVL30:
 261              	.LBB4:
 262              		.loc 1 242 0
 263 00b2 4A60     		str	r2, [r1, #4]
 264              		.loc 1 243 0
 265 00b4 0346     		mov	r3, r0
 266 00b6 CCF80010 		str	r1, [ip]
 267              	.LVL31:
 268              	.L11:
 269              	.LBE4:
 270              		.loc 1 248 0
 271 00ba 019A     		ldr	r2, [sp, #4]
 272              		.loc 1 252 0
 273 00bc 5046     		mov	r0, r10
 274              	.LVL32:
 275              		.loc 1 249 0
 276 00be C3E90082 		strd	r8, r2, [r3]
 277              		.loc 1 252 0
 278 00c2 FFF7FEFF 		bl	chMtxUnlock
 279              	.LVL33:
 280              		.loc 1 284 0
 281 00c6 3046     		mov	r0, r6
 282 00c8 03B0     		add	sp, sp, #12
 283              		.cfi_remember_state
 284              		.cfi_def_cfa_offset 36
 285              		@ sp needed
ARM GAS  /tmp/ccfkNEyW.s 			page 6


 286 00ca BDE8F08F 		pop	{r4, r5, r6, r7, r8, r9, r10, fp, pc}
 287              	.LVL34:
 288              	.L23:
 289              		.cfi_restore_state
 290              	.LBB5:
 291              		.loc 1 213 0
 292 00ce DF1B     		subs	r7, r3, r7
 293 00d0 FF10     		asrs	r7, r7, #3
 294              		.loc 1 214 0
 295 00d2 4D45     		cmp	r5, r9
 296              		.loc 1 213 0
 297 00d4 4760     		str	r7, [r0, #4]
 298              		.loc 1 214 0
 299 00d6 F0D9     		bls	.L11
 300              	.LBB6:
 301              		.loc 1 219 0
 302 00d8 09F10101 		add	r1, r9, #1
 303 00dc 03EBC102 		add	r2, r3, r1, lsl #3
 304              	.LVL35:
 305              		.loc 1 220 0
 306 00e0 6FEA0909 		mvn	r9, r9
 307              	.LVL36:
 308              		.loc 1 223 0
 309 00e4 0468     		ldr	r4, [r0]
 310              		.loc 1 220 0
 311 00e6 4D44     		add	r5, r5, r9
 312              	.LVL37:
 313 00e8 5560     		str	r5, [r2, #4]
 314              		.loc 1 223 0
 315 00ea 43F83140 		str	r4, [r3, r1, lsl #3]
 316              		.loc 1 224 0
 317 00ee 0260     		str	r2, [r0]
 318 00f0 E3E7     		b	.L11
 319              	.LVL38:
 320              	.L24:
 321              	.LBE6:
 322              	.LBE5:
 323              		.loc 1 234 0
 324 00f2 CCF80030 		str	r3, [ip]
 325              		.loc 1 202 0
 326 00f6 3E46     		mov	r6, r7
 327              	.LVL39:
 328 00f8 0346     		mov	r3, r0
 329 00fa DEE7     		b	.L11
 330              	.L26:
 331              		.align	2
 332              	.L25:
 333 00fc 00000000 		.word	.LANCHOR0
 334              		.cfi_endproc
 335              	.LFE296:
 336              		.size	chHeapAllocAligned, .-chHeapAllocAligned
 337              		.section	.text.chHeapFree,"ax",%progbits
 338              		.align	1
 339              		.p2align 2,,3
 340              		.global	chHeapFree
 341              		.syntax unified
 342              		.thumb
ARM GAS  /tmp/ccfkNEyW.s 			page 7


 343              		.thumb_func
 344              		.fpu fpv4-sp-d16
 345              		.type	chHeapFree, %function
 346              	chHeapFree:
 347              	.LFB297:
 348              		.loc 1 293 0
 349              		.cfi_startproc
 350              		@ args = 0, pretend = 0, frame = 0
 351              		@ frame_needed = 0, uses_anonymous_args = 0
 352              	.LVL40:
 353 0000 F8B5     		push	{r3, r4, r5, r6, r7, lr}
 354              		.cfi_def_cfa_offset 24
 355              		.cfi_offset 3, -24
 356              		.cfi_offset 4, -20
 357              		.cfi_offset 5, -16
 358              		.cfi_offset 6, -12
 359              		.cfi_offset 7, -8
 360              		.cfi_offset 14, -4
 361              		.loc 1 302 0
 362 0002 50E90253 		ldrd	r5, r3, [r0, #-8]
 363              		.loc 1 306 0
 364 0006 0733     		adds	r3, r3, #7
 365              		.loc 1 307 0
 366 0008 DB08     		lsrs	r3, r3, #3
 367              		.loc 1 310 0
 368 000a 05F10C07 		add	r7, r5, #12
 369              		.loc 1 306 0
 370 000e 40F8043C 		str	r3, [r0, #-4]
 371              		.loc 1 293 0
 372 0012 0646     		mov	r6, r0
 373              		.loc 1 300 0
 374 0014 A0F10804 		sub	r4, r0, #8
 375              	.LVL41:
 376              		.loc 1 303 0
 377 0018 0435     		adds	r5, r5, #4
 378              	.LVL42:
 379              		.loc 1 310 0
 380 001a 3846     		mov	r0, r7
 381              	.LVL43:
 382 001c FFF7FEFF 		bl	chMtxLock
 383              	.LVL44:
 384              		.loc 1 303 0
 385 0020 2B46     		mov	r3, r5
 386              	.LVL45:
 387              	.L28:
 388              		.loc 1 315 0
 389 0022 AB42     		cmp	r3, r5
 390 0024 1A68     		ldr	r2, [r3]
 391 0026 01D0     		beq	.L29
 392              		.loc 1 315 0 is_stmt 0 discriminator 2
 393 0028 9C42     		cmp	r4, r3
 394 002a 02D9     		bls	.L30
 395              	.L29:
 396              		.loc 1 315 0 discriminator 3
 397 002c 1AB1     		cbz	r2, .L31
 398              		.loc 1 316 0 is_stmt 1
 399 002e 9442     		cmp	r4, r2
ARM GAS  /tmp/ccfkNEyW.s 			page 8


 400 0030 01D3     		bcc	.L31
 401              	.L30:
 402              		.loc 1 293 0
 403 0032 1346     		mov	r3, r2
 404              	.LVL46:
 405 0034 F5E7     		b	.L28
 406              	.LVL47:
 407              	.L31:
 408              		.loc 1 321 0
 409 0036 56F8040C 		ldr	r0, [r6, #-4]
 410              		.loc 1 318 0
 411 003a 46F8082C 		str	r2, [r6, #-8]
 412              		.loc 1 319 0
 413 003e 1C60     		str	r4, [r3]
 414              		.loc 1 321 0
 415 0040 451C     		adds	r5, r0, #1
 416              	.LVL48:
 417 0042 56F8081C 		ldr	r1, [r6, #-8]
 418 0046 04EBC502 		add	r2, r4, r5, lsl #3
 419 004a 9142     		cmp	r1, r2
 420 004c 0DD0     		beq	.L38
 421              	.L32:
 422              		.loc 1 326 0
 423 004e 5A68     		ldr	r2, [r3, #4]
 424 0050 0132     		adds	r2, r2, #1
 425 0052 03EBC205 		add	r5, r3, r2, lsl #3
 426 0056 AC42     		cmp	r4, r5
 427              		.loc 1 328 0
 428 0058 04BF     		itt	eq
 429 005a 1218     		addeq	r2, r2, r0
 430              		.loc 1 329 0
 431 005c C3E90012 		strdeq	r1, r2, [r3]
 432              		.loc 1 337 0
 433 0060 3846     		mov	r0, r7
 434              		.loc 1 340 0
 435 0062 BDE8F840 		pop	{r3, r4, r5, r6, r7, lr}
 436              		.cfi_remember_state
 437              		.cfi_restore 14
 438              		.cfi_restore 7
 439              		.cfi_restore 6
 440              		.cfi_restore 5
 441              		.cfi_restore 4
 442              		.cfi_restore 3
 443              		.cfi_def_cfa_offset 0
 444              	.LVL49:
 445              		.loc 1 337 0
 446 0066 FFF7FEBF 		b	chMtxUnlock
 447              	.LVL50:
 448              	.L38:
 449              		.cfi_restore_state
 450              		.loc 1 324 0
 451 006a D1E90010 		ldrd	r1, r0, [r1]
 452              		.loc 1 323 0
 453 006e 2844     		add	r0, r0, r5
 454              		.loc 1 324 0
 455 0070 46F8081C 		str	r1, [r6, #-8]
 456              		.loc 1 323 0
ARM GAS  /tmp/ccfkNEyW.s 			page 9


 457 0074 46F8040C 		str	r0, [r6, #-4]
 458 0078 E9E7     		b	.L32
 459              		.cfi_endproc
 460              	.LFE297:
 461              		.size	chHeapFree, .-chHeapFree
 462 007a 00BF     		.section	.text.chHeapStatus,"ax",%progbits
 463              		.align	1
 464              		.p2align 2,,3
 465              		.global	chHeapStatus
 466              		.syntax unified
 467              		.thumb
 468              		.thumb_func
 469              		.fpu fpv4-sp-d16
 470              		.type	chHeapStatus, %function
 471              	chHeapStatus:
 472              	.LFB298:
 473              		.loc 1 357 0
 474              		.cfi_startproc
 475              		@ args = 0, pretend = 0, frame = 0
 476              		@ frame_needed = 0, uses_anonymous_args = 0
 477              	.LVL51:
 478 0000 2DE9F843 		push	{r3, r4, r5, r6, r7, r8, r9, lr}
 479              		.cfi_def_cfa_offset 32
 480              		.cfi_offset 3, -32
 481              		.cfi_offset 4, -28
 482              		.cfi_offset 5, -24
 483              		.cfi_offset 6, -20
 484              		.cfi_offset 7, -16
 485              		.cfi_offset 8, -12
 486              		.cfi_offset 9, -8
 487              		.cfi_offset 14, -4
 488              		.loc 1 362 0
 489 0004 174C     		ldr	r4, .L54
 490 0006 0028     		cmp	r0, #0
 491 0008 18BF     		it	ne
 492 000a 0446     		movne	r4, r0
 493              	.LVL52:
 494              		.loc 1 365 0
 495 000c 04F10C07 		add	r7, r4, #12
 496 0010 3846     		mov	r0, r7
 497              		.loc 1 357 0
 498 0012 8946     		mov	r9, r1
 499 0014 9046     		mov	r8, r2
 500              		.loc 1 365 0
 501 0016 FFF7FEFF 		bl	chMtxLock
 502              	.LVL53:
 503              		.loc 1 370 0
 504 001a 6368     		ldr	r3, [r4, #4]
 505 001c F3B1     		cbz	r3, .L45
 506              		.loc 1 367 0
 507 001e 0024     		movs	r4, #0
 508              	.LVL54:
 509              		.loc 1 366 0
 510 0020 2546     		mov	r5, r4
 511              		.loc 1 368 0
 512 0022 2646     		mov	r6, r4
 513              	.LVL55:
ARM GAS  /tmp/ccfkNEyW.s 			page 10


 514              	.L42:
 515              		.loc 1 370 0
 516 0024 D3E90030 		ldrd	r3, r0, [r3]
 517 0028 8442     		cmp	r4, r0
 518              	.LBB7:
 519              		.loc 1 374 0
 520 002a 06F10106 		add	r6, r6, #1
 521              	.LVL56:
 522              		.loc 1 375 0
 523 002e 0544     		add	r5, r5, r0
 524              	.LVL57:
 525 0030 38BF     		it	cc
 526 0032 0446     		movcc	r4, r0
 527              	.LVL58:
 528              	.LBE7:
 529              		.loc 1 370 0
 530 0034 002B     		cmp	r3, #0
 531 0036 F5D1     		bne	.L42
 532              	.LVL59:
 533              	.L41:
 534              		.loc 1 384 0
 535 0038 B9F1000F 		cmp	r9, #0
 536 003c 02D0     		beq	.L43
 537              		.loc 1 385 0
 538 003e ED00     		lsls	r5, r5, #3
 539 0040 C9F80050 		str	r5, [r9]
 540              	.L43:
 541              		.loc 1 389 0
 542 0044 B8F1000F 		cmp	r8, #0
 543 0048 02D0     		beq	.L44
 544              		.loc 1 390 0
 545 004a E400     		lsls	r4, r4, #3
 546 004c C8F80040 		str	r4, [r8]
 547              	.L44:
 548              		.loc 1 392 0
 549 0050 3846     		mov	r0, r7
 550 0052 FFF7FEFF 		bl	chMtxUnlock
 551              	.LVL60:
 552              		.loc 1 395 0
 553 0056 3046     		mov	r0, r6
 554 0058 BDE8F883 		pop	{r3, r4, r5, r6, r7, r8, r9, pc}
 555              	.LVL61:
 556              	.L45:
 557              		.loc 1 367 0
 558 005c 1C46     		mov	r4, r3
 559              	.LVL62:
 560              		.loc 1 366 0
 561 005e 1D46     		mov	r5, r3
 562              		.loc 1 368 0
 563 0060 1E46     		mov	r6, r3
 564 0062 E9E7     		b	.L41
 565              	.L55:
 566              		.align	2
 567              	.L54:
 568 0064 00000000 		.word	.LANCHOR0
 569              		.cfi_endproc
 570              	.LFE298:
ARM GAS  /tmp/ccfkNEyW.s 			page 11


 571              		.size	chHeapStatus, .-chHeapStatus
 572              		.section	.bss.default_heap,"aw",%nobits
 573              		.align	2
 574              		.set	.LANCHOR0,. + 0
 575              		.type	default_heap, %object
 576              		.size	default_heap, 28
 577              	default_heap:
 578 0000 00000000 		.space	28
 578      00000000 
 578      00000000 
 578      00000000 
 578      00000000 
 579              		.text
 580              	.Letext0:
 581              		.file 2 "/usr/lib/gcc/arm-none-eabi/7.3.1/include/stddef.h"
 582              		.file 3 "/usr/arm-none-eabi/include/machine/_default_types.h"
 583              		.file 4 "/usr/arm-none-eabi/include/sys/_stdint.h"
 584              		.file 5 "./RM18A-ChibiOS18-Core/chibios/os/common/ports/ARMCMx/compilers/GCC/chtypes.h"
 585              		.file 6 "./RM18A-ChibiOS18-Core/chibios/os/rt/include/chsystypes.h"
 586              		.file 7 "./RM18A-ChibiOS18-Core/chibios/os/rt/include/chschd.h"
 587              		.file 8 "./RM18A-ChibiOS18-Core/chibios/os/rt/include/chtime.h"
 588              		.file 9 "./RM18A-ChibiOS18-Core/chibios/os/common/ext/ARM/CMSIS/Core/Include/core_cm4.h"
 589              		.file 10 "./RM18A-ChibiOS18-Core/chibios/os/common/ext/ST/STM32F4xx/system_stm32f4xx.h"
 590              		.file 11 "./RM18A-ChibiOS18-Core/chibios/os/common/ports/ARMCMx/chcore.h"
 591              		.file 12 "./RM18A-ChibiOS18-Core/chibios/os/common/ports/ARMCMx/chcore_v7m.h"
 592              		.file 13 "./RM18A-ChibiOS18-Core/chibios/os/rt/include/chtm.h"
 593              		.file 14 "./RM18A-ChibiOS18-Core/chibios/os/rt/include/chsem.h"
 594              		.file 15 "./RM18A-ChibiOS18-Core/chibios/os/rt/include/chmtx.h"
 595              		.file 16 "./RM18A-ChibiOS18-Core/chibios/os/rt/include/chsys.h"
 596              		.file 17 "./RM18A-ChibiOS18-Core/chibios/os/rt/include/chregistry.h"
 597              		.file 18 "./RM18A-ChibiOS18-Core/chibios/os/oslib/include/chmemcore.h"
 598              		.file 19 "./RM18A-ChibiOS18-Core/chibios/os/oslib/include/chmemheaps.h"
 599              		.file 20 "./RM18A-ChibiOS18-Core/chibios/os/oslib/include/chmempools.h"
 600              		.file 21 "./RM18A-ChibiOS18-Core/chibios/os/oslib/include/chfactory.h"
 601              		.section	.debug_info,"",%progbits
 602              	.Ldebug_info0:
 603 0000 C90E0000 		.4byte	0xec9
 604 0004 0400     		.2byte	0x4
 605 0006 00000000 		.4byte	.Ldebug_abbrev0
 606 000a 04       		.byte	0x4
 607 000b 01       		.uleb128 0x1
 608 000c 76050000 		.4byte	.LASF170
 609 0010 0C       		.byte	0xc
 610 0011 8F070000 		.4byte	.LASF171
 611 0015 A1030000 		.4byte	.LASF172
 612 0019 20000000 		.4byte	.Ldebug_ranges0+0x20
 613 001d 00000000 		.4byte	0
 614 0021 00000000 		.4byte	.Ldebug_line0
 615 0025 02       		.uleb128 0x2
 616 0026 04       		.byte	0x4
 617 0027 05       		.byte	0x5
 618 0028 696E7400 		.ascii	"int\000"
 619 002c 03       		.uleb128 0x3
 620 002d 14000000 		.4byte	.LASF4
 621 0031 02       		.byte	0x2
 622 0032 D8       		.byte	0xd8
 623 0033 37000000 		.4byte	0x37
ARM GAS  /tmp/ccfkNEyW.s 			page 12


 624 0037 04       		.uleb128 0x4
 625 0038 04       		.byte	0x4
 626 0039 07       		.byte	0x7
 627 003a 23020000 		.4byte	.LASF0
 628 003e 04       		.uleb128 0x4
 629 003f 08       		.byte	0x8
 630 0040 05       		.byte	0x5
 631 0041 F6010000 		.4byte	.LASF1
 632 0045 04       		.uleb128 0x4
 633 0046 08       		.byte	0x8
 634 0047 04       		.byte	0x4
 635 0048 75030000 		.4byte	.LASF2
 636 004c 04       		.uleb128 0x4
 637 004d 01       		.byte	0x1
 638 004e 06       		.byte	0x6
 639 004f 26010000 		.4byte	.LASF3
 640 0053 03       		.uleb128 0x3
 641 0054 36000000 		.4byte	.LASF5
 642 0058 03       		.byte	0x3
 643 0059 2B       		.byte	0x2b
 644 005a 5E000000 		.4byte	0x5e
 645 005e 04       		.uleb128 0x4
 646 005f 01       		.byte	0x1
 647 0060 08       		.byte	0x8
 648 0061 97040000 		.4byte	.LASF6
 649 0065 04       		.uleb128 0x4
 650 0066 02       		.byte	0x2
 651 0067 05       		.byte	0x5
 652 0068 BB040000 		.4byte	.LASF7
 653 006c 03       		.uleb128 0x3
 654 006d 91060000 		.4byte	.LASF8
 655 0071 03       		.byte	0x3
 656 0072 39       		.byte	0x39
 657 0073 77000000 		.4byte	0x77
 658 0077 04       		.uleb128 0x4
 659 0078 02       		.byte	0x2
 660 0079 07       		.byte	0x7
 661 007a 17070000 		.4byte	.LASF9
 662 007e 03       		.uleb128 0x3
 663 007f 0C030000 		.4byte	.LASF10
 664 0083 03       		.byte	0x3
 665 0084 4D       		.byte	0x4d
 666 0085 89000000 		.4byte	0x89
 667 0089 04       		.uleb128 0x4
 668 008a 04       		.byte	0x4
 669 008b 05       		.byte	0x5
 670 008c 65010000 		.4byte	.LASF11
 671 0090 03       		.uleb128 0x3
 672 0091 AE010000 		.4byte	.LASF12
 673 0095 03       		.byte	0x3
 674 0096 4F       		.byte	0x4f
 675 0097 9B000000 		.4byte	0x9b
 676 009b 04       		.uleb128 0x4
 677 009c 04       		.byte	0x4
 678 009d 07       		.byte	0x7
 679 009e 57060000 		.4byte	.LASF13
 680 00a2 03       		.uleb128 0x3
ARM GAS  /tmp/ccfkNEyW.s 			page 13


 681 00a3 30040000 		.4byte	.LASF14
 682 00a7 03       		.byte	0x3
 683 00a8 69       		.byte	0x69
 684 00a9 AD000000 		.4byte	0xad
 685 00ad 04       		.uleb128 0x4
 686 00ae 08       		.byte	0x8
 687 00af 07       		.byte	0x7
 688 00b0 8E000000 		.4byte	.LASF15
 689 00b4 03       		.uleb128 0x3
 690 00b5 C8070000 		.4byte	.LASF16
 691 00b9 04       		.byte	0x4
 692 00ba 18       		.byte	0x18
 693 00bb 53000000 		.4byte	0x53
 694 00bf 05       		.uleb128 0x5
 695 00c0 B4000000 		.4byte	0xb4
 696 00c4 03       		.uleb128 0x3
 697 00c5 30020000 		.4byte	.LASF17
 698 00c9 04       		.byte	0x4
 699 00ca 24       		.byte	0x24
 700 00cb 6C000000 		.4byte	0x6c
 701 00cf 03       		.uleb128 0x3
 702 00d0 8F040000 		.4byte	.LASF18
 703 00d4 04       		.byte	0x4
 704 00d5 2C       		.byte	0x2c
 705 00d6 7E000000 		.4byte	0x7e
 706 00da 06       		.uleb128 0x6
 707 00db CF000000 		.4byte	0xcf
 708 00df 03       		.uleb128 0x3
 709 00e0 50050000 		.4byte	.LASF19
 710 00e4 04       		.byte	0x4
 711 00e5 30       		.byte	0x30
 712 00e6 90000000 		.4byte	0x90
 713 00ea 03       		.uleb128 0x3
 714 00eb 2D000000 		.4byte	.LASF20
 715 00ef 04       		.byte	0x4
 716 00f0 3C       		.byte	0x3c
 717 00f1 A2000000 		.4byte	0xa2
 718 00f5 03       		.uleb128 0x3
 719 00f6 43030000 		.4byte	.LASF21
 720 00fa 05       		.byte	0x5
 721 00fb 27       		.byte	0x27
 722 00fc DF000000 		.4byte	0xdf
 723 0100 03       		.uleb128 0x3
 724 0101 D5020000 		.4byte	.LASF22
 725 0105 05       		.byte	0x5
 726 0106 2A       		.byte	0x2a
 727 0107 B4000000 		.4byte	0xb4
 728 010b 03       		.uleb128 0x3
 729 010c 6E010000 		.4byte	.LASF23
 730 0110 05       		.byte	0x5
 731 0111 2B       		.byte	0x2b
 732 0112 B4000000 		.4byte	0xb4
 733 0116 03       		.uleb128 0x3
 734 0117 4A040000 		.4byte	.LASF24
 735 011b 05       		.byte	0x5
 736 011c 2C       		.byte	0x2c
 737 011d B4000000 		.4byte	0xb4
ARM GAS  /tmp/ccfkNEyW.s 			page 14


 738 0121 03       		.uleb128 0x3
 739 0122 76040000 		.4byte	.LASF25
 740 0126 05       		.byte	0x5
 741 0127 2E       		.byte	0x2e
 742 0128 DF000000 		.4byte	0xdf
 743 012c 03       		.uleb128 0x3
 744 012d A5020000 		.4byte	.LASF26
 745 0131 05       		.byte	0x5
 746 0132 2F       		.byte	0x2f
 747 0133 CF000000 		.4byte	0xcf
 748 0137 03       		.uleb128 0x3
 749 0138 EB020000 		.4byte	.LASF27
 750 013c 05       		.byte	0x5
 751 013d 31       		.byte	0x31
 752 013e DF000000 		.4byte	0xdf
 753 0142 03       		.uleb128 0x3
 754 0143 1D020000 		.4byte	.LASF28
 755 0147 05       		.byte	0x5
 756 0148 33       		.byte	0x33
 757 0149 CF000000 		.4byte	0xcf
 758 014d 03       		.uleb128 0x3
 759 014e AB020000 		.4byte	.LASF29
 760 0152 05       		.byte	0x5
 761 0153 34       		.byte	0x34
 762 0154 DF000000 		.4byte	0xdf
 763 0158 03       		.uleb128 0x3
 764 0159 9C060000 		.4byte	.LASF30
 765 015d 06       		.byte	0x6
 766 015e 34       		.byte	0x34
 767 015f 63010000 		.4byte	0x163
 768 0163 07       		.uleb128 0x7
 769 0164 9B020000 		.4byte	.LASF48
 770 0168 44       		.byte	0x44
 771 0169 07       		.byte	0x7
 772 016a 8E       		.byte	0x8e
 773 016b 41020000 		.4byte	0x241
 774 016f 08       		.uleb128 0x8
 775 0170 7D020000 		.4byte	.LASF31
 776 0174 07       		.byte	0x7
 777 0175 8F       		.byte	0x8f
 778 0176 76020000 		.4byte	0x276
 779 017a 00       		.byte	0
 780 017b 08       		.uleb128 0x8
 781 017c 14040000 		.4byte	.LASF32
 782 0180 07       		.byte	0x7
 783 0181 90       		.byte	0x90
 784 0182 21010000 		.4byte	0x121
 785 0186 08       		.byte	0x8
 786 0187 09       		.uleb128 0x9
 787 0188 63747800 		.ascii	"ctx\000"
 788 018c 07       		.byte	0x7
 789 018d 91       		.byte	0x91
 790 018e D4040000 		.4byte	0x4d4
 791 0192 0C       		.byte	0xc
 792 0193 08       		.uleb128 0x8
 793 0194 46070000 		.4byte	.LASF33
 794 0198 07       		.byte	0x7
ARM GAS  /tmp/ccfkNEyW.s 			page 15


 795 0199 93       		.byte	0x93
 796 019a 4C020000 		.4byte	0x24c
 797 019e 10       		.byte	0x10
 798 019f 08       		.uleb128 0x8
 799 01a0 82060000 		.4byte	.LASF34
 800 01a4 07       		.byte	0x7
 801 01a5 94       		.byte	0x94
 802 01a6 4C020000 		.4byte	0x24c
 803 01aa 14       		.byte	0x14
 804 01ab 08       		.uleb128 0x8
 805 01ac 78020000 		.4byte	.LASF35
 806 01b0 07       		.byte	0x7
 807 01b1 9B       		.byte	0x9b
 808 01b2 28070000 		.4byte	0x728
 809 01b6 18       		.byte	0x18
 810 01b7 08       		.uleb128 0x8
 811 01b8 69060000 		.4byte	.LASF36
 812 01bc 07       		.byte	0x7
 813 01bd A4       		.byte	0xa4
 814 01be 3F070000 		.4byte	0x73f
 815 01c2 1C       		.byte	0x1c
 816 01c3 08       		.uleb128 0x8
 817 01c4 5F010000 		.4byte	.LASF37
 818 01c8 07       		.byte	0x7
 819 01c9 A9       		.byte	0xa9
 820 01ca 0B010000 		.4byte	0x10b
 821 01ce 20       		.byte	0x20
 822 01cf 08       		.uleb128 0x8
 823 01d0 D0070000 		.4byte	.LASF38
 824 01d4 07       		.byte	0x7
 825 01d5 AD       		.byte	0xad
 826 01d6 00010000 		.4byte	0x100
 827 01da 21       		.byte	0x21
 828 01db 08       		.uleb128 0x8
 829 01dc 52040000 		.4byte	.LASF39
 830 01e0 07       		.byte	0x7
 831 01e1 B2       		.byte	0xb2
 832 01e2 16010000 		.4byte	0x116
 833 01e6 22       		.byte	0x22
 834 01e7 0A       		.uleb128 0xa
 835 01e8 7500     		.ascii	"u\000"
 836 01ea 07       		.byte	0x7
 837 01eb 0301     		.2byte	0x103
 838 01ed 5E060000 		.4byte	0x65e
 839 01f1 24       		.byte	0x24
 840 01f2 0B       		.uleb128 0xb
 841 01f3 DB010000 		.4byte	.LASF40
 842 01f7 07       		.byte	0x7
 843 01f8 0801     		.2byte	0x108
 844 01fa 52020000 		.4byte	0x252
 845 01fe 28       		.byte	0x28
 846 01ff 0B       		.uleb128 0xb
 847 0200 56010000 		.4byte	.LASF41
 848 0204 07       		.byte	0x7
 849 0205 0E01     		.2byte	0x10e
 850 0207 76020000 		.4byte	0x276
 851 020b 2C       		.byte	0x2c
ARM GAS  /tmp/ccfkNEyW.s 			page 16


 852 020c 0B       		.uleb128 0xb
 853 020d B2020000 		.4byte	.LASF42
 854 0211 07       		.byte	0x7
 855 0212 1401     		.2byte	0x114
 856 0214 37010000 		.4byte	0x137
 857 0218 34       		.byte	0x34
 858 0219 0B       		.uleb128 0xb
 859 021a 1C080000 		.4byte	.LASF43
 860 021e 07       		.byte	0x7
 861 021f 1B01     		.2byte	0x11b
 862 0221 22070000 		.4byte	0x722
 863 0225 38       		.byte	0x38
 864 0226 0B       		.uleb128 0xb
 865 0227 32030000 		.4byte	.LASF44
 866 022b 07       		.byte	0x7
 867 022c 1F01     		.2byte	0x11f
 868 022e 21010000 		.4byte	0x121
 869 0232 3C       		.byte	0x3c
 870 0233 0B       		.uleb128 0xb
 871 0234 83020000 		.4byte	.LASF45
 872 0238 07       		.byte	0x7
 873 0239 2601     		.2byte	0x126
 874 023b 29030000 		.4byte	0x329
 875 023f 40       		.byte	0x40
 876 0240 00       		.byte	0
 877 0241 03       		.uleb128 0x3
 878 0242 4B030000 		.4byte	.LASF46
 879 0246 06       		.byte	0x6
 880 0247 39       		.byte	0x39
 881 0248 4C020000 		.4byte	0x24c
 882 024c 0C       		.uleb128 0xc
 883 024d 04       		.byte	0x4
 884 024e 58010000 		.4byte	0x158
 885 0252 03       		.uleb128 0x3
 886 0253 E7070000 		.4byte	.LASF47
 887 0257 06       		.byte	0x6
 888 0258 3E       		.byte	0x3e
 889 0259 5D020000 		.4byte	0x25d
 890 025d 07       		.uleb128 0x7
 891 025e 60050000 		.4byte	.LASF49
 892 0262 04       		.byte	0x4
 893 0263 07       		.byte	0x7
 894 0264 7C       		.byte	0x7c
 895 0265 76020000 		.4byte	0x276
 896 0269 08       		.uleb128 0x8
 897 026a 1B000000 		.4byte	.LASF50
 898 026e 07       		.byte	0x7
 899 026f 7D       		.byte	0x7d
 900 0270 4C020000 		.4byte	0x24c
 901 0274 00       		.byte	0
 902 0275 00       		.byte	0
 903 0276 03       		.uleb128 0x3
 904 0277 73070000 		.4byte	.LASF51
 905 027b 06       		.byte	0x6
 906 027c 45       		.byte	0x45
 907 027d 81020000 		.4byte	0x281
 908 0281 07       		.uleb128 0x7
ARM GAS  /tmp/ccfkNEyW.s 			page 17


 909 0282 01010000 		.4byte	.LASF52
 910 0286 08       		.byte	0x8
 911 0287 07       		.byte	0x7
 912 0288 83       		.byte	0x83
 913 0289 A6020000 		.4byte	0x2a6
 914 028d 08       		.uleb128 0x8
 915 028e 1B000000 		.4byte	.LASF50
 916 0292 07       		.byte	0x7
 917 0293 84       		.byte	0x84
 918 0294 4C020000 		.4byte	0x24c
 919 0298 00       		.byte	0
 920 0299 08       		.uleb128 0x8
 921 029a 40000000 		.4byte	.LASF53
 922 029e 07       		.byte	0x7
 923 029f 85       		.byte	0x85
 924 02a0 4C020000 		.4byte	0x24c
 925 02a4 04       		.byte	0x4
 926 02a5 00       		.byte	0
 927 02a6 03       		.uleb128 0x3
 928 02a7 07000000 		.4byte	.LASF54
 929 02ab 06       		.byte	0x6
 930 02ac 4C       		.byte	0x4c
 931 02ad B1020000 		.4byte	0x2b1
 932 02b1 0D       		.uleb128 0xd
 933 02b2 DD020000 		.4byte	.LASF55
 934 02b6 1C       		.byte	0x1c
 935 02b7 07       		.byte	0x7
 936 02b8 5E01     		.2byte	0x15e
 937 02ba 0D030000 		.4byte	0x30d
 938 02be 0B       		.uleb128 0xb
 939 02bf 7D020000 		.4byte	.LASF31
 940 02c3 07       		.byte	0x7
 941 02c4 5F01     		.2byte	0x15f
 942 02c6 76020000 		.4byte	0x276
 943 02ca 00       		.byte	0
 944 02cb 0B       		.uleb128 0xb
 945 02cc 14040000 		.4byte	.LASF32
 946 02d0 07       		.byte	0x7
 947 02d1 6001     		.2byte	0x160
 948 02d3 21010000 		.4byte	0x121
 949 02d7 08       		.byte	0x8
 950 02d8 0A       		.uleb128 0xa
 951 02d9 63747800 		.ascii	"ctx\000"
 952 02dd 07       		.byte	0x7
 953 02de 6201     		.2byte	0x162
 954 02e0 D4040000 		.4byte	0x4d4
 955 02e4 0C       		.byte	0xc
 956 02e5 0B       		.uleb128 0xb
 957 02e6 46070000 		.4byte	.LASF33
 958 02ea 07       		.byte	0x7
 959 02eb 6501     		.2byte	0x165
 960 02ed 4C020000 		.4byte	0x24c
 961 02f1 10       		.byte	0x10
 962 02f2 0B       		.uleb128 0xb
 963 02f3 82060000 		.4byte	.LASF34
 964 02f7 07       		.byte	0x7
 965 02f8 6601     		.2byte	0x166
ARM GAS  /tmp/ccfkNEyW.s 			page 18


 966 02fa 4C020000 		.4byte	0x24c
 967 02fe 14       		.byte	0x14
 968 02ff 0B       		.uleb128 0xb
 969 0300 22040000 		.4byte	.LASF56
 970 0304 07       		.byte	0x7
 971 0305 6901     		.2byte	0x169
 972 0307 4C020000 		.4byte	0x24c
 973 030b 18       		.byte	0x18
 974 030c 00       		.byte	0
 975 030d 03       		.uleb128 0x3
 976 030e C7060000 		.4byte	.LASF57
 977 0312 06       		.byte	0x6
 978 0313 51       		.byte	0x51
 979 0314 18030000 		.4byte	0x318
 980 0318 0C       		.uleb128 0xc
 981 0319 04       		.byte	0x4
 982 031a 1E030000 		.4byte	0x31e
 983 031e 0E       		.uleb128 0xe
 984 031f 29030000 		.4byte	0x329
 985 0323 0F       		.uleb128 0xf
 986 0324 29030000 		.4byte	0x329
 987 0328 00       		.byte	0
 988 0329 10       		.uleb128 0x10
 989 032a 04       		.byte	0x4
 990 032b 03       		.uleb128 0x3
 991 032c 57040000 		.4byte	.LASF58
 992 0330 06       		.byte	0x6
 993 0331 56       		.byte	0x56
 994 0332 36030000 		.4byte	0x336
 995 0336 0D       		.uleb128 0xd
 996 0337 FD040000 		.4byte	.LASF59
 997 033b 14       		.byte	0x14
 998 033c 07       		.byte	0x7
 999 033d 3901     		.2byte	0x139
 1000 033f 85030000 		.4byte	0x385
 1001 0343 0B       		.uleb128 0xb
 1002 0344 1B000000 		.4byte	.LASF50
 1003 0348 07       		.byte	0x7
 1004 0349 3A01     		.2byte	0x13a
 1005 034b 45070000 		.4byte	0x745
 1006 034f 00       		.byte	0
 1007 0350 0B       		.uleb128 0xb
 1008 0351 40000000 		.4byte	.LASF53
 1009 0355 07       		.byte	0x7
 1010 0356 3B01     		.2byte	0x13b
 1011 0358 45070000 		.4byte	0x745
 1012 035c 04       		.byte	0x4
 1013 035d 0B       		.uleb128 0xb
 1014 035e 20000000 		.4byte	.LASF60
 1015 0362 07       		.byte	0x7
 1016 0363 3C01     		.2byte	0x13c
 1017 0365 5C040000 		.4byte	0x45c
 1018 0369 08       		.byte	0x8
 1019 036a 0B       		.uleb128 0xb
 1020 036b 77010000 		.4byte	.LASF61
 1021 036f 07       		.byte	0x7
 1022 0370 3D01     		.2byte	0x13d
ARM GAS  /tmp/ccfkNEyW.s 			page 19


 1023 0372 0D030000 		.4byte	0x30d
 1024 0376 0C       		.byte	0xc
 1025 0377 0A       		.uleb128 0xa
 1026 0378 70617200 		.ascii	"par\000"
 1027 037c 07       		.byte	0x7
 1028 037d 3F01     		.2byte	0x13f
 1029 037f 29030000 		.4byte	0x329
 1030 0383 10       		.byte	0x10
 1031 0384 00       		.byte	0
 1032 0385 03       		.uleb128 0x3
 1033 0386 C1000000 		.4byte	.LASF62
 1034 038a 06       		.byte	0x6
 1035 038b 5B       		.byte	0x5b
 1036 038c 90030000 		.4byte	0x390
 1037 0390 0D       		.uleb128 0xd
 1038 0391 5E030000 		.4byte	.LASF63
 1039 0395 10       		.byte	0x10
 1040 0396 07       		.byte	0x7
 1041 0397 4901     		.2byte	0x149
 1042 0399 D2030000 		.4byte	0x3d2
 1043 039d 0B       		.uleb128 0xb
 1044 039e 1B000000 		.4byte	.LASF50
 1045 03a2 07       		.byte	0x7
 1046 03a3 4A01     		.2byte	0x14a
 1047 03a5 45070000 		.4byte	0x745
 1048 03a9 00       		.byte	0
 1049 03aa 0B       		.uleb128 0xb
 1050 03ab 40000000 		.4byte	.LASF53
 1051 03af 07       		.byte	0x7
 1052 03b0 4C01     		.2byte	0x14c
 1053 03b2 45070000 		.4byte	0x745
 1054 03b6 04       		.byte	0x4
 1055 03b7 0B       		.uleb128 0xb
 1056 03b8 20000000 		.4byte	.LASF60
 1057 03bc 07       		.byte	0x7
 1058 03bd 4E01     		.2byte	0x14e
 1059 03bf 5C040000 		.4byte	0x45c
 1060 03c3 08       		.byte	0x8
 1061 03c4 0B       		.uleb128 0xb
 1062 03c5 C5040000 		.4byte	.LASF64
 1063 03c9 07       		.byte	0x7
 1064 03ca 5601     		.2byte	0x156
 1065 03cc 51040000 		.4byte	0x451
 1066 03d0 0C       		.byte	0xc
 1067 03d1 00       		.byte	0
 1068 03d2 03       		.uleb128 0x3
 1069 03d3 57000000 		.4byte	.LASF65
 1070 03d7 06       		.byte	0x6
 1071 03d8 60       		.byte	0x60
 1072 03d9 DD030000 		.4byte	0x3dd
 1073 03dd 0D       		.uleb128 0xd
 1074 03de CB010000 		.4byte	.LASF66
 1075 03e2 04       		.byte	0x4
 1076 03e3 07       		.byte	0x7
 1077 03e4 7001     		.2byte	0x170
 1078 03e6 F8030000 		.4byte	0x3f8
 1079 03ea 0B       		.uleb128 0xb
ARM GAS  /tmp/ccfkNEyW.s 			page 20


 1080 03eb E0060000 		.4byte	.LASF67
 1081 03ef 07       		.byte	0x7
 1082 03f0 7801     		.2byte	0x178
 1083 03f2 2E070000 		.4byte	0x72e
 1084 03f6 00       		.byte	0
 1085 03f7 00       		.byte	0
 1086 03f8 03       		.uleb128 0x3
 1087 03f9 2F070000 		.4byte	.LASF68
 1088 03fd 06       		.byte	0x6
 1089 03fe 65       		.byte	0x65
 1090 03ff 03040000 		.4byte	0x403
 1091 0403 0D       		.uleb128 0xd
 1092 0404 E1040000 		.4byte	.LASF69
 1093 0408 78       		.byte	0x78
 1094 0409 07       		.byte	0x7
 1095 040a 9001     		.2byte	0x190
 1096 040c 51040000 		.4byte	0x451
 1097 0410 0B       		.uleb128 0xb
 1098 0411 3E010000 		.4byte	.LASF70
 1099 0415 07       		.byte	0x7
 1100 0416 9401     		.2byte	0x194
 1101 0418 A6020000 		.4byte	0x2a6
 1102 041c 00       		.byte	0
 1103 041d 0B       		.uleb128 0xb
 1104 041e 4F010000 		.4byte	.LASF71
 1105 0422 07       		.byte	0x7
 1106 0423 9801     		.2byte	0x198
 1107 0425 85030000 		.4byte	0x385
 1108 0429 1C       		.byte	0x1c
 1109 042a 0A       		.uleb128 0xa
 1110 042b 64626700 		.ascii	"dbg\000"
 1111 042f 07       		.byte	0x7
 1112 0430 9C01     		.2byte	0x19c
 1113 0432 D2030000 		.4byte	0x3d2
 1114 0436 2C       		.byte	0x2c
 1115 0437 0B       		.uleb128 0xb
 1116 0438 AE000000 		.4byte	.LASF72
 1117 043c 07       		.byte	0x7
 1118 043d A001     		.2byte	0x1a0
 1119 043f 58010000 		.4byte	0x158
 1120 0443 30       		.byte	0x30
 1121 0444 0A       		.uleb128 0xa
 1122 0445 746D00   		.ascii	"tm\000"
 1123 0448 07       		.byte	0x7
 1124 0449 A501     		.2byte	0x1a5
 1125 044b 53060000 		.4byte	0x653
 1126 044f 74       		.byte	0x74
 1127 0450 00       		.byte	0
 1128 0451 03       		.uleb128 0x3
 1129 0452 BD060000 		.4byte	.LASF73
 1130 0456 08       		.byte	0x8
 1131 0457 6D       		.byte	0x6d
 1132 0458 DF000000 		.4byte	0xdf
 1133 045c 03       		.uleb128 0x3
 1134 045d 0F020000 		.4byte	.LASF74
 1135 0461 08       		.byte	0x8
 1136 0462 79       		.byte	0x79
ARM GAS  /tmp/ccfkNEyW.s 			page 21


 1137 0463 DF000000 		.4byte	0xdf
 1138 0467 11       		.uleb128 0x11
 1139 0468 D7000000 		.4byte	.LASF75
 1140 046c 09       		.byte	0x9
 1141 046d 0408     		.2byte	0x804
 1142 046f DA000000 		.4byte	0xda
 1143 0473 12       		.uleb128 0x12
 1144 0474 39020000 		.4byte	.LASF76
 1145 0478 0A       		.byte	0xa
 1146 0479 4C       		.byte	0x4c
 1147 047a DF000000 		.4byte	0xdf
 1148 047e 13       		.uleb128 0x13
 1149 047f BF000000 		.4byte	0xbf
 1150 0483 8E040000 		.4byte	0x48e
 1151 0487 14       		.uleb128 0x14
 1152 0488 37000000 		.4byte	0x37
 1153 048c 0F       		.byte	0xf
 1154 048d 00       		.byte	0
 1155 048e 05       		.uleb128 0x5
 1156 048f 7E040000 		.4byte	0x47e
 1157 0493 12       		.uleb128 0x12
 1158 0494 F7020000 		.4byte	.LASF77
 1159 0498 0A       		.byte	0xa
 1160 0499 4E       		.byte	0x4e
 1161 049a 8E040000 		.4byte	0x48e
 1162 049e 13       		.uleb128 0x13
 1163 049f BF000000 		.4byte	0xbf
 1164 04a3 AE040000 		.4byte	0x4ae
 1165 04a7 14       		.uleb128 0x14
 1166 04a8 37000000 		.4byte	0x37
 1167 04ac 07       		.byte	0x7
 1168 04ad 00       		.byte	0
 1169 04ae 05       		.uleb128 0x5
 1170 04af 9E040000 		.4byte	0x49e
 1171 04b3 12       		.uleb128 0x12
 1172 04b4 E3010000 		.4byte	.LASF78
 1173 04b8 0A       		.byte	0xa
 1174 04b9 4F       		.byte	0x4f
 1175 04ba AE040000 		.4byte	0x4ae
 1176 04be 03       		.uleb128 0x3
 1177 04bf B9010000 		.4byte	.LASF79
 1178 04c3 0B       		.byte	0xb
 1179 04c4 65       		.byte	0x65
 1180 04c5 29030000 		.4byte	0x329
 1181 04c9 03       		.uleb128 0x3
 1182 04ca 16030000 		.4byte	.LASF80
 1183 04ce 0B       		.byte	0xb
 1184 04cf 6D       		.byte	0x6d
 1185 04d0 EA000000 		.4byte	0xea
 1186 04d4 07       		.uleb128 0x7
 1187 04d5 E8030000 		.4byte	.LASF81
 1188 04d9 04       		.byte	0x4
 1189 04da 0B       		.byte	0xb
 1190 04db 89       		.byte	0x89
 1191 04dc EC040000 		.4byte	0x4ec
 1192 04e0 09       		.uleb128 0x9
 1193 04e1 737000   		.ascii	"sp\000"
ARM GAS  /tmp/ccfkNEyW.s 			page 22


 1194 04e4 0B       		.byte	0xb
 1195 04e5 8A       		.byte	0x8a
 1196 04e6 38060000 		.4byte	0x638
 1197 04ea 00       		.byte	0
 1198 04eb 00       		.byte	0
 1199 04ec 0D       		.uleb128 0xd
 1200 04ed 45000000 		.4byte	.LASF82
 1201 04f1 64       		.byte	0x64
 1202 04f2 0C       		.byte	0xc
 1203 04f3 5901     		.2byte	0x159
 1204 04f5 38060000 		.4byte	0x638
 1205 04f9 0A       		.uleb128 0xa
 1206 04fa 73313600 		.ascii	"s16\000"
 1207 04fe 0C       		.byte	0xc
 1208 04ff 5B01     		.2byte	0x15b
 1209 0501 BE040000 		.4byte	0x4be
 1210 0505 00       		.byte	0
 1211 0506 0A       		.uleb128 0xa
 1212 0507 73313700 		.ascii	"s17\000"
 1213 050b 0C       		.byte	0xc
 1214 050c 5C01     		.2byte	0x15c
 1215 050e BE040000 		.4byte	0x4be
 1216 0512 04       		.byte	0x4
 1217 0513 0A       		.uleb128 0xa
 1218 0514 73313800 		.ascii	"s18\000"
 1219 0518 0C       		.byte	0xc
 1220 0519 5D01     		.2byte	0x15d
 1221 051b BE040000 		.4byte	0x4be
 1222 051f 08       		.byte	0x8
 1223 0520 0A       		.uleb128 0xa
 1224 0521 73313900 		.ascii	"s19\000"
 1225 0525 0C       		.byte	0xc
 1226 0526 5E01     		.2byte	0x15e
 1227 0528 BE040000 		.4byte	0x4be
 1228 052c 0C       		.byte	0xc
 1229 052d 0A       		.uleb128 0xa
 1230 052e 73323000 		.ascii	"s20\000"
 1231 0532 0C       		.byte	0xc
 1232 0533 5F01     		.2byte	0x15f
 1233 0535 BE040000 		.4byte	0x4be
 1234 0539 10       		.byte	0x10
 1235 053a 0A       		.uleb128 0xa
 1236 053b 73323100 		.ascii	"s21\000"
 1237 053f 0C       		.byte	0xc
 1238 0540 6001     		.2byte	0x160
 1239 0542 BE040000 		.4byte	0x4be
 1240 0546 14       		.byte	0x14
 1241 0547 0A       		.uleb128 0xa
 1242 0548 73323200 		.ascii	"s22\000"
 1243 054c 0C       		.byte	0xc
 1244 054d 6101     		.2byte	0x161
 1245 054f BE040000 		.4byte	0x4be
 1246 0553 18       		.byte	0x18
 1247 0554 0A       		.uleb128 0xa
 1248 0555 73323300 		.ascii	"s23\000"
 1249 0559 0C       		.byte	0xc
 1250 055a 6201     		.2byte	0x162
ARM GAS  /tmp/ccfkNEyW.s 			page 23


 1251 055c BE040000 		.4byte	0x4be
 1252 0560 1C       		.byte	0x1c
 1253 0561 0A       		.uleb128 0xa
 1254 0562 73323400 		.ascii	"s24\000"
 1255 0566 0C       		.byte	0xc
 1256 0567 6301     		.2byte	0x163
 1257 0569 BE040000 		.4byte	0x4be
 1258 056d 20       		.byte	0x20
 1259 056e 0A       		.uleb128 0xa
 1260 056f 73323500 		.ascii	"s25\000"
 1261 0573 0C       		.byte	0xc
 1262 0574 6401     		.2byte	0x164
 1263 0576 BE040000 		.4byte	0x4be
 1264 057a 24       		.byte	0x24
 1265 057b 0A       		.uleb128 0xa
 1266 057c 73323600 		.ascii	"s26\000"
 1267 0580 0C       		.byte	0xc
 1268 0581 6501     		.2byte	0x165
 1269 0583 BE040000 		.4byte	0x4be
 1270 0587 28       		.byte	0x28
 1271 0588 0A       		.uleb128 0xa
 1272 0589 73323700 		.ascii	"s27\000"
 1273 058d 0C       		.byte	0xc
 1274 058e 6601     		.2byte	0x166
 1275 0590 BE040000 		.4byte	0x4be
 1276 0594 2C       		.byte	0x2c
 1277 0595 0A       		.uleb128 0xa
 1278 0596 73323800 		.ascii	"s28\000"
 1279 059a 0C       		.byte	0xc
 1280 059b 6701     		.2byte	0x167
 1281 059d BE040000 		.4byte	0x4be
 1282 05a1 30       		.byte	0x30
 1283 05a2 0A       		.uleb128 0xa
 1284 05a3 73323900 		.ascii	"s29\000"
 1285 05a7 0C       		.byte	0xc
 1286 05a8 6801     		.2byte	0x168
 1287 05aa BE040000 		.4byte	0x4be
 1288 05ae 34       		.byte	0x34
 1289 05af 0A       		.uleb128 0xa
 1290 05b0 73333000 		.ascii	"s30\000"
 1291 05b4 0C       		.byte	0xc
 1292 05b5 6901     		.2byte	0x169
 1293 05b7 BE040000 		.4byte	0x4be
 1294 05bb 38       		.byte	0x38
 1295 05bc 0A       		.uleb128 0xa
 1296 05bd 73333100 		.ascii	"s31\000"
 1297 05c1 0C       		.byte	0xc
 1298 05c2 6A01     		.2byte	0x16a
 1299 05c4 BE040000 		.4byte	0x4be
 1300 05c8 3C       		.byte	0x3c
 1301 05c9 0A       		.uleb128 0xa
 1302 05ca 723400   		.ascii	"r4\000"
 1303 05cd 0C       		.byte	0xc
 1304 05ce 6C01     		.2byte	0x16c
 1305 05d0 BE040000 		.4byte	0x4be
 1306 05d4 40       		.byte	0x40
 1307 05d5 0A       		.uleb128 0xa
ARM GAS  /tmp/ccfkNEyW.s 			page 24


 1308 05d6 723500   		.ascii	"r5\000"
 1309 05d9 0C       		.byte	0xc
 1310 05da 6D01     		.2byte	0x16d
 1311 05dc BE040000 		.4byte	0x4be
 1312 05e0 44       		.byte	0x44
 1313 05e1 0A       		.uleb128 0xa
 1314 05e2 723600   		.ascii	"r6\000"
 1315 05e5 0C       		.byte	0xc
 1316 05e6 6E01     		.2byte	0x16e
 1317 05e8 BE040000 		.4byte	0x4be
 1318 05ec 48       		.byte	0x48
 1319 05ed 0A       		.uleb128 0xa
 1320 05ee 723700   		.ascii	"r7\000"
 1321 05f1 0C       		.byte	0xc
 1322 05f2 6F01     		.2byte	0x16f
 1323 05f4 BE040000 		.4byte	0x4be
 1324 05f8 4C       		.byte	0x4c
 1325 05f9 0A       		.uleb128 0xa
 1326 05fa 723800   		.ascii	"r8\000"
 1327 05fd 0C       		.byte	0xc
 1328 05fe 7001     		.2byte	0x170
 1329 0600 BE040000 		.4byte	0x4be
 1330 0604 50       		.byte	0x50
 1331 0605 0A       		.uleb128 0xa
 1332 0606 723900   		.ascii	"r9\000"
 1333 0609 0C       		.byte	0xc
 1334 060a 7101     		.2byte	0x171
 1335 060c BE040000 		.4byte	0x4be
 1336 0610 54       		.byte	0x54
 1337 0611 0A       		.uleb128 0xa
 1338 0612 72313000 		.ascii	"r10\000"
 1339 0616 0C       		.byte	0xc
 1340 0617 7201     		.2byte	0x172
 1341 0619 BE040000 		.4byte	0x4be
 1342 061d 58       		.byte	0x58
 1343 061e 0A       		.uleb128 0xa
 1344 061f 72313100 		.ascii	"r11\000"
 1345 0623 0C       		.byte	0xc
 1346 0624 7301     		.2byte	0x173
 1347 0626 BE040000 		.4byte	0x4be
 1348 062a 5C       		.byte	0x5c
 1349 062b 0A       		.uleb128 0xa
 1350 062c 6C7200   		.ascii	"lr\000"
 1351 062f 0C       		.byte	0xc
 1352 0630 7401     		.2byte	0x174
 1353 0632 BE040000 		.4byte	0x4be
 1354 0636 60       		.byte	0x60
 1355 0637 00       		.byte	0
 1356 0638 0C       		.uleb128 0xc
 1357 0639 04       		.byte	0x4
 1358 063a EC040000 		.4byte	0x4ec
 1359 063e 15       		.uleb128 0x15
 1360 063f 04       		.byte	0x4
 1361 0640 0D       		.byte	0xd
 1362 0641 38       		.byte	0x38
 1363 0642 53060000 		.4byte	0x653
 1364 0646 08       		.uleb128 0x8
ARM GAS  /tmp/ccfkNEyW.s 			page 25


 1365 0647 EA060000 		.4byte	.LASF83
 1366 064b 0D       		.byte	0xd
 1367 064c 3C       		.byte	0x3c
 1368 064d F5000000 		.4byte	0xf5
 1369 0651 00       		.byte	0
 1370 0652 00       		.byte	0
 1371 0653 03       		.uleb128 0x3
 1372 0654 F5030000 		.4byte	.LASF84
 1373 0658 0D       		.byte	0xd
 1374 0659 3D       		.byte	0x3d
 1375 065a 3E060000 		.4byte	0x63e
 1376 065e 16       		.uleb128 0x16
 1377 065f 04       		.byte	0x4
 1378 0660 07       		.byte	0x7
 1379 0661 C6       		.byte	0xc6
 1380 0662 C0060000 		.4byte	0x6c0
 1381 0666 17       		.uleb128 0x17
 1382 0667 26000000 		.4byte	.LASF85
 1383 066b 07       		.byte	0x7
 1384 066c CD       		.byte	0xcd
 1385 066d 2C010000 		.4byte	0x12c
 1386 0671 17       		.uleb128 0x17
 1387 0672 A5000000 		.4byte	.LASF86
 1388 0676 07       		.byte	0x7
 1389 0677 D4       		.byte	0xd4
 1390 0678 2C010000 		.4byte	0x12c
 1391 067c 17       		.uleb128 0x17
 1392 067d E0070000 		.4byte	.LASF87
 1393 0681 07       		.byte	0x7
 1394 0682 DB       		.byte	0xdb
 1395 0683 29030000 		.4byte	0x329
 1396 0687 17       		.uleb128 0x17
 1397 0688 50020000 		.4byte	.LASF88
 1398 068c 07       		.byte	0x7
 1399 068d E2       		.byte	0xe2
 1400 068e C0060000 		.4byte	0x6c0
 1401 0692 17       		.uleb128 0x17
 1402 0693 B9000000 		.4byte	.LASF89
 1403 0697 07       		.byte	0x7
 1404 0698 E7       		.byte	0xe7
 1405 0699 2C010000 		.4byte	0x12c
 1406 069d 17       		.uleb128 0x17
 1407 069e 49020000 		.4byte	.LASF90
 1408 06a2 07       		.byte	0x7
 1409 06a3 F0       		.byte	0xf0
 1410 06a4 EB060000 		.4byte	0x6eb
 1411 06a8 17       		.uleb128 0x17
 1412 06a9 59050000 		.4byte	.LASF91
 1413 06ad 07       		.byte	0x7
 1414 06ae F9       		.byte	0xf9
 1415 06af 22070000 		.4byte	0x722
 1416 06b3 18       		.uleb128 0x18
 1417 06b4 DA040000 		.4byte	.LASF92
 1418 06b8 07       		.byte	0x7
 1419 06b9 0101     		.2byte	0x101
 1420 06bb 37010000 		.4byte	0x137
 1421 06bf 00       		.byte	0
ARM GAS  /tmp/ccfkNEyW.s 			page 26


 1422 06c0 0C       		.uleb128 0xc
 1423 06c1 04       		.byte	0x4
 1424 06c2 41020000 		.4byte	0x241
 1425 06c6 07       		.uleb128 0x7
 1426 06c7 0E050000 		.4byte	.LASF93
 1427 06cb 0C       		.byte	0xc
 1428 06cc 0E       		.byte	0xe
 1429 06cd 34       		.byte	0x34
 1430 06ce EB060000 		.4byte	0x6eb
 1431 06d2 08       		.uleb128 0x8
 1432 06d3 7D020000 		.4byte	.LASF31
 1433 06d7 0E       		.byte	0xe
 1434 06d8 35       		.byte	0x35
 1435 06d9 76020000 		.4byte	0x276
 1436 06dd 00       		.byte	0
 1437 06de 09       		.uleb128 0x9
 1438 06df 636E7400 		.ascii	"cnt\000"
 1439 06e3 0E       		.byte	0xe
 1440 06e4 37       		.byte	0x37
 1441 06e5 42010000 		.4byte	0x142
 1442 06e9 08       		.byte	0x8
 1443 06ea 00       		.byte	0
 1444 06eb 0C       		.uleb128 0xc
 1445 06ec 04       		.byte	0x4
 1446 06ed C6060000 		.4byte	0x6c6
 1447 06f1 07       		.uleb128 0x7
 1448 06f2 04070000 		.4byte	.LASF94
 1449 06f6 10       		.byte	0x10
 1450 06f7 0F       		.byte	0xf
 1451 06f8 39       		.byte	0x39
 1452 06f9 22070000 		.4byte	0x722
 1453 06fd 08       		.uleb128 0x8
 1454 06fe 7D020000 		.4byte	.LASF31
 1455 0702 0F       		.byte	0xf
 1456 0703 3A       		.byte	0x3a
 1457 0704 76020000 		.4byte	0x276
 1458 0708 00       		.byte	0
 1459 0709 08       		.uleb128 0x8
 1460 070a 70050000 		.4byte	.LASF95
 1461 070e 0F       		.byte	0xf
 1462 070f 3C       		.byte	0x3c
 1463 0710 4C020000 		.4byte	0x24c
 1464 0714 08       		.byte	0x8
 1465 0715 08       		.uleb128 0x8
 1466 0716 1B000000 		.4byte	.LASF50
 1467 071a 0F       		.byte	0xf
 1468 071b 3E       		.byte	0x3e
 1469 071c 84080000 		.4byte	0x884
 1470 0720 0C       		.byte	0xc
 1471 0721 00       		.byte	0
 1472 0722 0C       		.uleb128 0xc
 1473 0723 04       		.byte	0x4
 1474 0724 F1060000 		.4byte	0x6f1
 1475 0728 0C       		.uleb128 0xc
 1476 0729 04       		.byte	0x4
 1477 072a 3A070000 		.4byte	0x73a
 1478 072e 06       		.uleb128 0x6
ARM GAS  /tmp/ccfkNEyW.s 			page 27


 1479 072f 28070000 		.4byte	0x728
 1480 0733 04       		.uleb128 0x4
 1481 0734 01       		.byte	0x1
 1482 0735 08       		.byte	0x8
 1483 0736 7D060000 		.4byte	.LASF96
 1484 073a 05       		.uleb128 0x5
 1485 073b 33070000 		.4byte	0x733
 1486 073f 0C       		.uleb128 0xc
 1487 0740 04       		.byte	0x4
 1488 0741 C9040000 		.4byte	0x4c9
 1489 0745 0C       		.uleb128 0xc
 1490 0746 04       		.byte	0x4
 1491 0747 2B030000 		.4byte	0x32b
 1492 074b 19       		.uleb128 0x19
 1493 074c 636800   		.ascii	"ch\000"
 1494 074f 07       		.byte	0x7
 1495 0750 C701     		.2byte	0x1c7
 1496 0752 F8030000 		.4byte	0x3f8
 1497 0756 13       		.uleb128 0x13
 1498 0757 C9040000 		.4byte	0x4c9
 1499 075b 61070000 		.4byte	0x761
 1500 075f 1A       		.uleb128 0x1a
 1501 0760 00       		.byte	0
 1502 0761 11       		.uleb128 0x11
 1503 0762 24050000 		.4byte	.LASF97
 1504 0766 10       		.byte	0x10
 1505 0767 1701     		.2byte	0x117
 1506 0769 56070000 		.4byte	0x756
 1507 076d 15       		.uleb128 0x15
 1508 076e 16       		.byte	0x16
 1509 076f 11       		.byte	0x11
 1510 0770 34       		.byte	0x34
 1511 0771 4E080000 		.4byte	0x84e
 1512 0775 08       		.uleb128 0x8
 1513 0776 3B070000 		.4byte	.LASF98
 1514 077a 11       		.byte	0x11
 1515 077b 35       		.byte	0x35
 1516 077c 4E080000 		.4byte	0x84e
 1517 0780 00       		.byte	0
 1518 0781 08       		.uleb128 0x8
 1519 0782 F1010000 		.4byte	.LASF99
 1520 0786 11       		.byte	0x11
 1521 0787 36       		.byte	0x36
 1522 0788 B4000000 		.4byte	0xb4
 1523 078c 04       		.byte	0x4
 1524 078d 08       		.uleb128 0x8
 1525 078e 39010000 		.4byte	.LASF100
 1526 0792 11       		.byte	0x11
 1527 0793 37       		.byte	0x37
 1528 0794 B4000000 		.4byte	0xb4
 1529 0798 05       		.byte	0x5
 1530 0799 08       		.uleb128 0x8
 1531 079a 3B030000 		.4byte	.LASF101
 1532 079e 11       		.byte	0x11
 1533 079f 38       		.byte	0x38
 1534 07a0 C4000000 		.4byte	0xc4
 1535 07a4 06       		.byte	0x6
ARM GAS  /tmp/ccfkNEyW.s 			page 28


 1536 07a5 08       		.uleb128 0x8
 1537 07a6 58070000 		.4byte	.LASF102
 1538 07aa 11       		.byte	0x11
 1539 07ab 39       		.byte	0x39
 1540 07ac B4000000 		.4byte	0xb4
 1541 07b0 08       		.byte	0x8
 1542 07b1 08       		.uleb128 0x8
 1543 07b2 36050000 		.4byte	.LASF103
 1544 07b6 11       		.byte	0x11
 1545 07b7 3A       		.byte	0x3a
 1546 07b8 B4000000 		.4byte	0xb4
 1547 07bc 09       		.byte	0x9
 1548 07bd 08       		.uleb128 0x8
 1549 07be 7E040000 		.4byte	.LASF104
 1550 07c2 11       		.byte	0x11
 1551 07c3 3B       		.byte	0x3b
 1552 07c4 B4000000 		.4byte	0xb4
 1553 07c8 0A       		.byte	0xa
 1554 07c9 08       		.uleb128 0x8
 1555 07ca A5040000 		.4byte	.LASF105
 1556 07ce 11       		.byte	0x11
 1557 07cf 3C       		.byte	0x3c
 1558 07d0 B4000000 		.4byte	0xb4
 1559 07d4 0B       		.byte	0xb
 1560 07d5 08       		.uleb128 0x8
 1561 07d6 CD020000 		.4byte	.LASF106
 1562 07da 11       		.byte	0x11
 1563 07db 3D       		.byte	0x3d
 1564 07dc B4000000 		.4byte	0xb4
 1565 07e0 0C       		.byte	0xc
 1566 07e1 08       		.uleb128 0x8
 1567 07e2 8D030000 		.4byte	.LASF107
 1568 07e6 11       		.byte	0x11
 1569 07e7 3E       		.byte	0x3e
 1570 07e8 B4000000 		.4byte	0xb4
 1571 07ec 0D       		.byte	0xd
 1572 07ed 08       		.uleb128 0x8
 1573 07ee 0D070000 		.4byte	.LASF108
 1574 07f2 11       		.byte	0x11
 1575 07f3 3F       		.byte	0x3f
 1576 07f4 B4000000 		.4byte	0xb4
 1577 07f8 0E       		.byte	0xe
 1578 07f9 08       		.uleb128 0x8
 1579 07fa E4000000 		.4byte	.LASF109
 1580 07fe 11       		.byte	0x11
 1581 07ff 40       		.byte	0x40
 1582 0800 B4000000 		.4byte	0xb4
 1583 0804 0F       		.byte	0xf
 1584 0805 08       		.uleb128 0x8
 1585 0806 AE040000 		.4byte	.LASF110
 1586 080a 11       		.byte	0x11
 1587 080b 41       		.byte	0x41
 1588 080c B4000000 		.4byte	0xb4
 1589 0810 10       		.byte	0x10
 1590 0811 08       		.uleb128 0x8
 1591 0812 F6070000 		.4byte	.LASF111
 1592 0816 11       		.byte	0x11
ARM GAS  /tmp/ccfkNEyW.s 			page 29


 1593 0817 42       		.byte	0x42
 1594 0818 B4000000 		.4byte	0xb4
 1595 081c 11       		.byte	0x11
 1596 081d 08       		.uleb128 0x8
 1597 081e 12080000 		.4byte	.LASF112
 1598 0822 11       		.byte	0x11
 1599 0823 43       		.byte	0x43
 1600 0824 B4000000 		.4byte	0xb4
 1601 0828 12       		.byte	0x12
 1602 0829 08       		.uleb128 0x8
 1603 082a 89020000 		.4byte	.LASF113
 1604 082e 11       		.byte	0x11
 1605 082f 44       		.byte	0x44
 1606 0830 B4000000 		.4byte	0xb4
 1607 0834 13       		.byte	0x13
 1608 0835 08       		.uleb128 0x8
 1609 0836 94010000 		.4byte	.LASF114
 1610 083a 11       		.byte	0x11
 1611 083b 45       		.byte	0x45
 1612 083c B4000000 		.4byte	0xb4
 1613 0840 14       		.byte	0x14
 1614 0841 08       		.uleb128 0x8
 1615 0842 1B050000 		.4byte	.LASF115
 1616 0846 11       		.byte	0x11
 1617 0847 46       		.byte	0x46
 1618 0848 B4000000 		.4byte	0xb4
 1619 084c 15       		.byte	0x15
 1620 084d 00       		.byte	0
 1621 084e 13       		.uleb128 0x13
 1622 084f 33070000 		.4byte	0x733
 1623 0853 5E080000 		.4byte	0x85e
 1624 0857 14       		.uleb128 0x14
 1625 0858 37000000 		.4byte	0x37
 1626 085c 03       		.byte	0x3
 1627 085d 00       		.byte	0
 1628 085e 03       		.uleb128 0x3
 1629 085f 8A010000 		.4byte	.LASF116
 1630 0863 11       		.byte	0x11
 1631 0864 47       		.byte	0x47
 1632 0865 6D070000 		.4byte	0x76d
 1633 0869 05       		.uleb128 0x5
 1634 086a 5E080000 		.4byte	0x85e
 1635 086e 12       		.uleb128 0x12
 1636 086f 56020000 		.4byte	.LASF117
 1637 0873 11       		.byte	0x11
 1638 0874 6C       		.byte	0x6c
 1639 0875 69080000 		.4byte	0x869
 1640 0879 03       		.uleb128 0x3
 1641 087a 12010000 		.4byte	.LASF118
 1642 087e 0F       		.byte	0xf
 1643 087f 34       		.byte	0x34
 1644 0880 F1060000 		.4byte	0x6f1
 1645 0884 0C       		.uleb128 0xc
 1646 0885 04       		.byte	0x4
 1647 0886 79080000 		.4byte	0x879
 1648 088a 04       		.uleb128 0x4
 1649 088b 01       		.byte	0x1
ARM GAS  /tmp/ccfkNEyW.s 			page 30


 1650 088c 02       		.byte	0x2
 1651 088d 89040000 		.4byte	.LASF119
 1652 0891 03       		.uleb128 0x3
 1653 0892 81000000 		.4byte	.LASF120
 1654 0896 12       		.byte	0x12
 1655 0897 47       		.byte	0x47
 1656 0898 9C080000 		.4byte	0x89c
 1657 089c 0C       		.uleb128 0xc
 1658 089d 04       		.byte	0x4
 1659 089e A2080000 		.4byte	0x8a2
 1660 08a2 1B       		.uleb128 0x1b
 1661 08a3 29030000 		.4byte	0x329
 1662 08a7 B6080000 		.4byte	0x8b6
 1663 08ab 0F       		.uleb128 0xf
 1664 08ac 2C000000 		.4byte	0x2c
 1665 08b0 0F       		.uleb128 0xf
 1666 08b1 37000000 		.4byte	0x37
 1667 08b5 00       		.byte	0
 1668 08b6 03       		.uleb128 0x3
 1669 08b7 06040000 		.4byte	.LASF121
 1670 08bb 12       		.byte	0x12
 1671 08bc 4C       		.byte	0x4c
 1672 08bd C1080000 		.4byte	0x8c1
 1673 08c1 0C       		.uleb128 0xc
 1674 08c2 04       		.byte	0x4
 1675 08c3 C7080000 		.4byte	0x8c7
 1676 08c7 1B       		.uleb128 0x1b
 1677 08c8 29030000 		.4byte	0x329
 1678 08cc E0080000 		.4byte	0x8e0
 1679 08d0 0F       		.uleb128 0xf
 1680 08d1 2C000000 		.4byte	0x2c
 1681 08d5 0F       		.uleb128 0xf
 1682 08d6 37000000 		.4byte	0x37
 1683 08da 0F       		.uleb128 0xf
 1684 08db 2C000000 		.4byte	0x2c
 1685 08df 00       		.byte	0
 1686 08e0 15       		.uleb128 0x15
 1687 08e1 08       		.byte	0x8
 1688 08e2 12       		.byte	0x12
 1689 08e3 51       		.byte	0x51
 1690 08e4 01090000 		.4byte	0x901
 1691 08e8 08       		.uleb128 0x8
 1692 08e9 2B080000 		.4byte	.LASF122
 1693 08ed 12       		.byte	0x12
 1694 08ee 55       		.byte	0x55
 1695 08ef 01090000 		.4byte	0x901
 1696 08f3 00       		.byte	0
 1697 08f4 08       		.uleb128 0x8
 1698 08f5 05030000 		.4byte	.LASF123
 1699 08f9 12       		.byte	0x12
 1700 08fa 59       		.byte	0x59
 1701 08fb 01090000 		.4byte	0x901
 1702 08ff 04       		.byte	0x4
 1703 0900 00       		.byte	0
 1704 0901 0C       		.uleb128 0xc
 1705 0902 04       		.byte	0x4
 1706 0903 B4000000 		.4byte	0xb4
ARM GAS  /tmp/ccfkNEyW.s 			page 31


 1707 0907 03       		.uleb128 0x3
 1708 0908 3B040000 		.4byte	.LASF124
 1709 090c 12       		.byte	0x12
 1710 090d 5A       		.byte	0x5a
 1711 090e E0080000 		.4byte	0x8e0
 1712 0912 12       		.uleb128 0x12
 1713 0913 B2060000 		.4byte	.LASF125
 1714 0917 12       		.byte	0x12
 1715 0918 65       		.byte	0x65
 1716 0919 07090000 		.4byte	0x907
 1717 091d 03       		.uleb128 0x3
 1718 091e 7C010000 		.4byte	.LASF126
 1719 0922 13       		.byte	0x13
 1720 0923 48       		.byte	0x48
 1721 0924 28090000 		.4byte	0x928
 1722 0928 07       		.uleb128 0x7
 1723 0929 33080000 		.4byte	.LASF127
 1724 092d 1C       		.byte	0x1c
 1725 092e 13       		.byte	0x13
 1726 092f 60       		.byte	0x60
 1727 0930 59090000 		.4byte	0x959
 1728 0934 08       		.uleb128 0x8
 1729 0935 6F000000 		.4byte	.LASF128
 1730 0939 13       		.byte	0x13
 1731 093a 61       		.byte	0x61
 1732 093b B6080000 		.4byte	0x8b6
 1733 093f 00       		.byte	0
 1734 0940 08       		.uleb128 0x8
 1735 0941 24080000 		.4byte	.LASF129
 1736 0945 13       		.byte	0x13
 1737 0946 63       		.byte	0x63
 1738 0947 59090000 		.4byte	0x959
 1739 094b 04       		.byte	0x4
 1740 094c 09       		.uleb128 0x9
 1741 094d 6D747800 		.ascii	"mtx\000"
 1742 0951 13       		.byte	0x13
 1743 0952 65       		.byte	0x65
 1744 0953 79080000 		.4byte	0x879
 1745 0957 0C       		.byte	0xc
 1746 0958 00       		.byte	0
 1747 0959 03       		.uleb128 0x3
 1748 095a A0010000 		.4byte	.LASF130
 1749 095e 13       		.byte	0x13
 1750 095f 4D       		.byte	0x4d
 1751 0960 64090000 		.4byte	0x964
 1752 0964 1C       		.uleb128 0x1c
 1753 0965 CE040000 		.4byte	.LASF173
 1754 0969 08       		.byte	0x8
 1755 096a 13       		.byte	0x13
 1756 096b 52       		.byte	0x52
 1757 096c 87090000 		.4byte	0x987
 1758 0970 17       		.uleb128 0x17
 1759 0971 2A070000 		.4byte	.LASF131
 1760 0975 13       		.byte	0x13
 1761 0976 56       		.byte	0x56
 1762 0977 87090000 		.4byte	0x987
 1763 097b 17       		.uleb128 0x17
ARM GAS  /tmp/ccfkNEyW.s 			page 32


 1764 097c 45040000 		.4byte	.LASF132
 1765 0980 13       		.byte	0x13
 1766 0981 5A       		.byte	0x5a
 1767 0982 AE090000 		.4byte	0x9ae
 1768 0986 00       		.byte	0
 1769 0987 15       		.uleb128 0x15
 1770 0988 08       		.byte	0x8
 1771 0989 13       		.byte	0x13
 1772 098a 53       		.byte	0x53
 1773 098b A8090000 		.4byte	0x9a8
 1774 098f 08       		.uleb128 0x8
 1775 0990 1B000000 		.4byte	.LASF50
 1776 0994 13       		.byte	0x13
 1777 0995 54       		.byte	0x54
 1778 0996 A8090000 		.4byte	0x9a8
 1779 099a 00       		.byte	0
 1780 099b 08       		.uleb128 0x8
 1781 099c 51000000 		.4byte	.LASF133
 1782 09a0 13       		.byte	0x13
 1783 09a1 55       		.byte	0x55
 1784 09a2 2C000000 		.4byte	0x2c
 1785 09a6 04       		.byte	0x4
 1786 09a7 00       		.byte	0
 1787 09a8 0C       		.uleb128 0xc
 1788 09a9 04       		.byte	0x4
 1789 09aa 59090000 		.4byte	0x959
 1790 09ae 15       		.uleb128 0x15
 1791 09af 08       		.byte	0x8
 1792 09b0 13       		.byte	0x13
 1793 09b1 57       		.byte	0x57
 1794 09b2 CF090000 		.4byte	0x9cf
 1795 09b6 08       		.uleb128 0x8
 1796 09b7 52060000 		.4byte	.LASF134
 1797 09bb 13       		.byte	0x13
 1798 09bc 58       		.byte	0x58
 1799 09bd CF090000 		.4byte	0x9cf
 1800 09c1 00       		.byte	0
 1801 09c2 08       		.uleb128 0x8
 1802 09c3 39010000 		.4byte	.LASF100
 1803 09c7 13       		.byte	0x13
 1804 09c8 59       		.byte	0x59
 1805 09c9 2C000000 		.4byte	0x2c
 1806 09cd 04       		.byte	0x4
 1807 09ce 00       		.byte	0
 1808 09cf 0C       		.uleb128 0xc
 1809 09d0 04       		.byte	0x4
 1810 09d1 1D090000 		.4byte	0x91d
 1811 09d5 07       		.uleb128 0x7
 1812 09d6 83070000 		.4byte	.LASF135
 1813 09da 04       		.byte	0x4
 1814 09db 14       		.byte	0x14
 1815 09dc 38       		.byte	0x38
 1816 09dd EE090000 		.4byte	0x9ee
 1817 09e1 08       		.uleb128 0x8
 1818 09e2 1B000000 		.4byte	.LASF50
 1819 09e6 14       		.byte	0x14
 1820 09e7 39       		.byte	0x39
ARM GAS  /tmp/ccfkNEyW.s 			page 33


 1821 09e8 EE090000 		.4byte	0x9ee
 1822 09ec 00       		.byte	0
 1823 09ed 00       		.byte	0
 1824 09ee 0C       		.uleb128 0xc
 1825 09ef 04       		.byte	0x4
 1826 09f0 D5090000 		.4byte	0x9d5
 1827 09f4 15       		.uleb128 0x15
 1828 09f5 10       		.byte	0x10
 1829 09f6 14       		.byte	0x14
 1830 09f7 40       		.byte	0x40
 1831 09f8 2D0A0000 		.4byte	0xa2d
 1832 09fc 08       		.uleb128 0x8
 1833 09fd 1B000000 		.4byte	.LASF50
 1834 0a01 14       		.byte	0x14
 1835 0a02 41       		.byte	0x41
 1836 0a03 EE090000 		.4byte	0x9ee
 1837 0a07 00       		.byte	0
 1838 0a08 08       		.uleb128 0x8
 1839 0a09 4C070000 		.4byte	.LASF136
 1840 0a0d 14       		.byte	0x14
 1841 0a0e 42       		.byte	0x42
 1842 0a0f 2C000000 		.4byte	0x2c
 1843 0a13 04       		.byte	0x4
 1844 0a14 08       		.uleb128 0x8
 1845 0a15 FB000000 		.4byte	.LASF137
 1846 0a19 14       		.byte	0x14
 1847 0a1a 44       		.byte	0x44
 1848 0a1b 37000000 		.4byte	0x37
 1849 0a1f 08       		.byte	0x8
 1850 0a20 08       		.uleb128 0x8
 1851 0a21 6F000000 		.4byte	.LASF128
 1852 0a25 14       		.byte	0x14
 1853 0a26 45       		.byte	0x45
 1854 0a27 91080000 		.4byte	0x891
 1855 0a2b 0C       		.byte	0xc
 1856 0a2c 00       		.byte	0
 1857 0a2d 03       		.uleb128 0x3
 1858 0a2e 6A020000 		.4byte	.LASF138
 1859 0a32 14       		.byte	0x14
 1860 0a33 47       		.byte	0x47
 1861 0a34 F4090000 		.4byte	0x9f4
 1862 0a38 07       		.uleb128 0x7
 1863 0a39 67040000 		.4byte	.LASF139
 1864 0a3d 10       		.byte	0x10
 1865 0a3e 15       		.byte	0x15
 1866 0a3f A9       		.byte	0xa9
 1867 0a40 690A0000 		.4byte	0xa69
 1868 0a44 08       		.uleb128 0x8
 1869 0a45 1B000000 		.4byte	.LASF50
 1870 0a49 15       		.byte	0x15
 1871 0a4a AD       		.byte	0xad
 1872 0a4b 690A0000 		.4byte	0xa69
 1873 0a4f 00       		.byte	0
 1874 0a50 08       		.uleb128 0x8
 1875 0a51 52040000 		.4byte	.LASF39
 1876 0a55 15       		.byte	0x15
 1877 0a56 B1       		.byte	0xb1
ARM GAS  /tmp/ccfkNEyW.s 			page 34


 1878 0a57 4D010000 		.4byte	0x14d
 1879 0a5b 04       		.byte	0x4
 1880 0a5c 08       		.uleb128 0x8
 1881 0a5d 78020000 		.4byte	.LASF35
 1882 0a61 15       		.byte	0x15
 1883 0a62 B3       		.byte	0xb3
 1884 0a63 6F0A0000 		.4byte	0xa6f
 1885 0a67 08       		.byte	0x8
 1886 0a68 00       		.byte	0
 1887 0a69 0C       		.uleb128 0xc
 1888 0a6a 04       		.byte	0x4
 1889 0a6b 380A0000 		.4byte	0xa38
 1890 0a6f 13       		.uleb128 0x13
 1891 0a70 33070000 		.4byte	0x733
 1892 0a74 7F0A0000 		.4byte	0xa7f
 1893 0a78 14       		.uleb128 0x14
 1894 0a79 37000000 		.4byte	0x37
 1895 0a7d 07       		.byte	0x7
 1896 0a7e 00       		.byte	0
 1897 0a7f 03       		.uleb128 0x3
 1898 0a80 ED000000 		.4byte	.LASF140
 1899 0a84 15       		.byte	0x15
 1900 0a85 B7       		.byte	0xb7
 1901 0a86 380A0000 		.4byte	0xa38
 1902 0a8a 07       		.uleb128 0x7
 1903 0a8b 81030000 		.4byte	.LASF141
 1904 0a8f 04       		.byte	0x4
 1905 0a90 15       		.byte	0x15
 1906 0a91 BC       		.byte	0xbc
 1907 0a92 A30A0000 		.4byte	0xaa3
 1908 0a96 08       		.uleb128 0x8
 1909 0a97 1B000000 		.4byte	.LASF50
 1910 0a9b 15       		.byte	0x15
 1911 0a9c BD       		.byte	0xbd
 1912 0a9d A30A0000 		.4byte	0xaa3
 1913 0aa1 00       		.byte	0
 1914 0aa2 00       		.byte	0
 1915 0aa3 0C       		.uleb128 0xc
 1916 0aa4 04       		.byte	0x4
 1917 0aa5 7F0A0000 		.4byte	0xa7f
 1918 0aa9 03       		.uleb128 0x3
 1919 0aaa BB020000 		.4byte	.LASF142
 1920 0aae 15       		.byte	0x15
 1921 0aaf BE       		.byte	0xbe
 1922 0ab0 8A0A0000 		.4byte	0xa8a
 1923 0ab4 0D       		.uleb128 0xd
 1924 0ab5 60070000 		.4byte	.LASF143
 1925 0ab9 48       		.byte	0x48
 1926 0aba 15       		.byte	0x15
 1927 0abb 3E01     		.2byte	0x13e
 1928 0abd 370B0000 		.4byte	0xb37
 1929 0ac1 0A       		.uleb128 0xa
 1930 0ac2 6D747800 		.ascii	"mtx\000"
 1931 0ac6 15       		.byte	0x15
 1932 0ac7 4301     		.2byte	0x143
 1933 0ac9 79080000 		.4byte	0x879
 1934 0acd 00       		.byte	0
ARM GAS  /tmp/ccfkNEyW.s 			page 35


 1935 0ace 0B       		.uleb128 0xb
 1936 0acf 88060000 		.4byte	.LASF144
 1937 0ad3 15       		.byte	0x15
 1938 0ad4 4A01     		.2byte	0x14a
 1939 0ad6 A90A0000 		.4byte	0xaa9
 1940 0ada 10       		.byte	0x10
 1941 0adb 0B       		.uleb128 0xb
 1942 0adc F4040000 		.4byte	.LASF145
 1943 0ae0 15       		.byte	0x15
 1944 0ae1 4E01     		.2byte	0x14e
 1945 0ae3 2D0A0000 		.4byte	0xa2d
 1946 0ae7 14       		.byte	0x14
 1947 0ae8 0B       		.uleb128 0xb
 1948 0ae9 92020000 		.4byte	.LASF146
 1949 0aed 15       		.byte	0x15
 1950 0aee 5301     		.2byte	0x153
 1951 0af0 A90A0000 		.4byte	0xaa9
 1952 0af4 24       		.byte	0x24
 1953 0af5 0B       		.uleb128 0xb
 1954 0af6 78000000 		.4byte	.LASF147
 1955 0afa 15       		.byte	0x15
 1956 0afb 5901     		.2byte	0x159
 1957 0afd A90A0000 		.4byte	0xaa9
 1958 0b01 28       		.byte	0x28
 1959 0b02 0B       		.uleb128 0xb
 1960 0b03 19040000 		.4byte	.LASF148
 1961 0b07 15       		.byte	0x15
 1962 0b08 5D01     		.2byte	0x15d
 1963 0b0a 2D0A0000 		.4byte	0xa2d
 1964 0b0e 2C       		.byte	0x2c
 1965 0b0f 0B       		.uleb128 0xb
 1966 0b10 C2010000 		.4byte	.LASF149
 1967 0b14 15       		.byte	0x15
 1968 0b15 6301     		.2byte	0x163
 1969 0b17 A90A0000 		.4byte	0xaa9
 1970 0b1b 3C       		.byte	0x3c
 1971 0b1c 0B       		.uleb128 0xb
 1972 0b1d D6070000 		.4byte	.LASF150
 1973 0b21 15       		.byte	0x15
 1974 0b22 6901     		.2byte	0x169
 1975 0b24 A90A0000 		.4byte	0xaa9
 1976 0b28 40       		.byte	0x40
 1977 0b29 0B       		.uleb128 0xb
 1978 0b2a 46050000 		.4byte	.LASF151
 1979 0b2e 15       		.byte	0x15
 1980 0b2f 6F01     		.2byte	0x16f
 1981 0b31 A90A0000 		.4byte	0xaa9
 1982 0b35 44       		.byte	0x44
 1983 0b36 00       		.byte	0
 1984 0b37 1D       		.uleb128 0x1d
 1985 0b38 00080000 		.4byte	.LASF152
 1986 0b3c 15       		.byte	0x15
 1987 0b3d 7101     		.2byte	0x171
 1988 0b3f B40A0000 		.4byte	0xab4
 1989 0b43 11       		.uleb128 0x11
 1990 0b44 5F020000 		.4byte	.LASF153
 1991 0b48 15       		.byte	0x15
ARM GAS  /tmp/ccfkNEyW.s 			page 36


 1992 0b49 7C01     		.2byte	0x17c
 1993 0b4b 370B0000 		.4byte	0xb37
 1994 0b4f 1E       		.uleb128 0x1e
 1995 0b50 70060000 		.4byte	.LASF157
 1996 0b54 01       		.byte	0x1
 1997 0b55 5C       		.byte	0x5c
 1998 0b56 1D090000 		.4byte	0x91d
 1999 0b5a 05       		.uleb128 0x5
 2000 0b5b 03       		.byte	0x3
 2001 0b5c 00000000 		.4byte	default_heap
 2002 0b60 1F       		.uleb128 0x1f
 2003 0b61 A5060000 		.4byte	.LASF160
 2004 0b65 01       		.byte	0x1
 2005 0b66 6501     		.2byte	0x165
 2006 0b68 2C000000 		.4byte	0x2c
 2007 0b6c 00000000 		.4byte	.LFB298
 2008 0b70 68000000 		.4byte	.LFE298-.LFB298
 2009 0b74 01       		.uleb128 0x1
 2010 0b75 9C       		.byte	0x9c
 2011 0b76 280C0000 		.4byte	0xc28
 2012 0b7a 20       		.uleb128 0x20
 2013 0b7b 2A040000 		.4byte	.LASF154
 2014 0b7f 01       		.byte	0x1
 2015 0b80 6501     		.2byte	0x165
 2016 0b82 CF090000 		.4byte	0x9cf
 2017 0b86 00000000 		.4byte	.LLST18
 2018 0b8a 20       		.uleb128 0x20
 2019 0b8b 00000000 		.4byte	.LASF155
 2020 0b8f 01       		.byte	0x1
 2021 0b90 6501     		.2byte	0x165
 2022 0b92 280C0000 		.4byte	0xc28
 2023 0b96 43000000 		.4byte	.LLST19
 2024 0b9a 20       		.uleb128 0x20
 2025 0b9b 66000000 		.4byte	.LASF156
 2026 0b9f 01       		.byte	0x1
 2027 0ba0 6501     		.2byte	0x165
 2028 0ba2 280C0000 		.4byte	0xc28
 2029 0ba6 61000000 		.4byte	.LLST20
 2030 0baa 21       		.uleb128 0x21
 2031 0bab 717000   		.ascii	"qp\000"
 2032 0bae 01       		.byte	0x1
 2033 0baf 6601     		.2byte	0x166
 2034 0bb1 A8090000 		.4byte	0x9a8
 2035 0bb5 7F000000 		.4byte	.LLST21
 2036 0bb9 21       		.uleb128 0x21
 2037 0bba 6E00     		.ascii	"n\000"
 2038 0bbc 01       		.byte	0x1
 2039 0bbd 6701     		.2byte	0x167
 2040 0bbf 2C000000 		.4byte	0x2c
 2041 0bc3 BB000000 		.4byte	.LLST22
 2042 0bc7 22       		.uleb128 0x22
 2043 0bc8 3F050000 		.4byte	.LASF158
 2044 0bcc 01       		.byte	0x1
 2045 0bcd 6701     		.2byte	0x167
 2046 0bcf 2C000000 		.4byte	0x2c
 2047 0bd3 E6000000 		.4byte	.LLST23
 2048 0bd7 22       		.uleb128 0x22
ARM GAS  /tmp/ccfkNEyW.s 			page 37


 2049 0bd8 32010000 		.4byte	.LASF159
 2050 0bdc 01       		.byte	0x1
 2051 0bdd 6701     		.2byte	0x167
 2052 0bdf 2C000000 		.4byte	0x2c
 2053 0be3 11010000 		.4byte	.LLST24
 2054 0be7 23       		.uleb128 0x23
 2055 0be8 2A000000 		.4byte	.LBB7
 2056 0bec 0A000000 		.4byte	.LBE7-.LBB7
 2057 0bf0 030C0000 		.4byte	0xc03
 2058 0bf4 24       		.uleb128 0x24
 2059 0bf5 51000000 		.4byte	.LASF133
 2060 0bf9 01       		.byte	0x1
 2061 0bfa 7301     		.2byte	0x173
 2062 0bfc 2C000000 		.4byte	0x2c
 2063 0c00 01       		.uleb128 0x1
 2064 0c01 50       		.byte	0x50
 2065 0c02 00       		.byte	0
 2066 0c03 25       		.uleb128 0x25
 2067 0c04 1A000000 		.4byte	.LVL53
 2068 0c08 AB0E0000 		.4byte	0xeab
 2069 0c0c 170C0000 		.4byte	0xc17
 2070 0c10 26       		.uleb128 0x26
 2071 0c11 01       		.uleb128 0x1
 2072 0c12 50       		.byte	0x50
 2073 0c13 02       		.uleb128 0x2
 2074 0c14 77       		.byte	0x77
 2075 0c15 00       		.sleb128 0
 2076 0c16 00       		.byte	0
 2077 0c17 27       		.uleb128 0x27
 2078 0c18 56000000 		.4byte	.LVL60
 2079 0c1c B60E0000 		.4byte	0xeb6
 2080 0c20 26       		.uleb128 0x26
 2081 0c21 01       		.uleb128 0x1
 2082 0c22 50       		.byte	0x50
 2083 0c23 02       		.uleb128 0x2
 2084 0c24 77       		.byte	0x77
 2085 0c25 00       		.sleb128 0
 2086 0c26 00       		.byte	0
 2087 0c27 00       		.byte	0
 2088 0c28 0C       		.uleb128 0xc
 2089 0c29 04       		.byte	0x4
 2090 0c2a 2C000000 		.4byte	0x2c
 2091 0c2e 28       		.uleb128 0x28
 2092 0c2f 44010000 		.4byte	.LASF164
 2093 0c33 01       		.byte	0x1
 2094 0c34 2501     		.2byte	0x125
 2095 0c36 00000000 		.4byte	.LFB297
 2096 0c3a 7A000000 		.4byte	.LFE297-.LFB297
 2097 0c3e 01       		.uleb128 0x1
 2098 0c3f 9C       		.byte	0x9c
 2099 0c40 A70C0000 		.4byte	0xca7
 2100 0c44 29       		.uleb128 0x29
 2101 0c45 7000     		.ascii	"p\000"
 2102 0c47 01       		.byte	0x1
 2103 0c48 2501     		.2byte	0x125
 2104 0c4a 29030000 		.4byte	0x329
 2105 0c4e 3C010000 		.4byte	.LLST14
ARM GAS  /tmp/ccfkNEyW.s 			page 38


 2106 0c52 21       		.uleb128 0x21
 2107 0c53 717000   		.ascii	"qp\000"
 2108 0c56 01       		.byte	0x1
 2109 0c57 2601     		.2byte	0x126
 2110 0c59 A8090000 		.4byte	0x9a8
 2111 0c5d 73010000 		.4byte	.LLST15
 2112 0c61 21       		.uleb128 0x21
 2113 0c62 687000   		.ascii	"hp\000"
 2114 0c65 01       		.byte	0x1
 2115 0c66 2601     		.2byte	0x126
 2116 0c68 A8090000 		.4byte	0x9a8
 2117 0c6c A7010000 		.4byte	.LLST16
 2118 0c70 22       		.uleb128 0x22
 2119 0c71 2A040000 		.4byte	.LASF154
 2120 0c75 01       		.byte	0x1
 2121 0c76 2701     		.2byte	0x127
 2122 0c78 CF090000 		.4byte	0x9cf
 2123 0c7c D5010000 		.4byte	.LLST17
 2124 0c80 2A       		.uleb128 0x2a
 2125 0c81 EB040000 		.4byte	.LASF162
 2126 0c85 B70C0000 		.4byte	0xcb7
 2127 0c89 25       		.uleb128 0x25
 2128 0c8a 20000000 		.4byte	.LVL44
 2129 0c8e AB0E0000 		.4byte	0xeab
 2130 0c92 9D0C0000 		.4byte	0xc9d
 2131 0c96 26       		.uleb128 0x26
 2132 0c97 01       		.uleb128 0x1
 2133 0c98 50       		.byte	0x50
 2134 0c99 02       		.uleb128 0x2
 2135 0c9a 77       		.byte	0x77
 2136 0c9b 00       		.sleb128 0
 2137 0c9c 00       		.byte	0
 2138 0c9d 2B       		.uleb128 0x2b
 2139 0c9e 6A000000 		.4byte	.LVL50
 2140 0ca2 B60E0000 		.4byte	0xeb6
 2141 0ca6 00       		.byte	0
 2142 0ca7 13       		.uleb128 0x13
 2143 0ca8 3A070000 		.4byte	0x73a
 2144 0cac B70C0000 		.4byte	0xcb7
 2145 0cb0 14       		.uleb128 0x14
 2146 0cb1 37000000 		.4byte	0x37
 2147 0cb5 0A       		.byte	0xa
 2148 0cb6 00       		.byte	0
 2149 0cb7 05       		.uleb128 0x5
 2150 0cb8 A70C0000 		.4byte	0xca7
 2151 0cbc 2C       		.uleb128 0x2c
 2152 0cbd F1060000 		.4byte	.LASF161
 2153 0cc1 01       		.byte	0x1
 2154 0cc2 AC       		.byte	0xac
 2155 0cc3 29030000 		.4byte	0x329
 2156 0cc7 00000000 		.4byte	.LFB296
 2157 0ccb 00010000 		.4byte	.LFE296-.LFB296
 2158 0ccf 01       		.uleb128 0x1
 2159 0cd0 9C       		.byte	0x9c
 2160 0cd1 EB0D0000 		.4byte	0xdeb
 2161 0cd5 2D       		.uleb128 0x2d
 2162 0cd6 2A040000 		.4byte	.LASF154
ARM GAS  /tmp/ccfkNEyW.s 			page 39


 2163 0cda 01       		.byte	0x1
 2164 0cdb AC       		.byte	0xac
 2165 0cdc CF090000 		.4byte	0x9cf
 2166 0ce0 28020000 		.4byte	.LLST4
 2167 0ce4 2D       		.uleb128 0x2d
 2168 0ce5 39010000 		.4byte	.LASF100
 2169 0ce9 01       		.byte	0x1
 2170 0cea AC       		.byte	0xac
 2171 0ceb 2C000000 		.4byte	0x2c
 2172 0cef 46020000 		.4byte	.LLST5
 2173 0cf3 2D       		.uleb128 0x2d
 2174 0cf4 FB000000 		.4byte	.LASF137
 2175 0cf8 01       		.byte	0x1
 2176 0cf9 AC       		.byte	0xac
 2177 0cfa 37000000 		.4byte	0x37
 2178 0cfe 65020000 		.4byte	.LLST6
 2179 0d02 2E       		.uleb128 0x2e
 2180 0d03 717000   		.ascii	"qp\000"
 2181 0d06 01       		.byte	0x1
 2182 0d07 AD       		.byte	0xad
 2183 0d08 A8090000 		.4byte	0x9a8
 2184 0d0c 9C020000 		.4byte	.LLST7
 2185 0d10 2E       		.uleb128 0x2e
 2186 0d11 687000   		.ascii	"hp\000"
 2187 0d14 01       		.byte	0x1
 2188 0d15 AD       		.byte	0xad
 2189 0d16 A8090000 		.4byte	0x9a8
 2190 0d1a D0020000 		.4byte	.LLST8
 2191 0d1e 2E       		.uleb128 0x2e
 2192 0d1f 61687000 		.ascii	"ahp\000"
 2193 0d23 01       		.byte	0x1
 2194 0d24 AD       		.byte	0xad
 2195 0d25 A8090000 		.4byte	0x9a8
 2196 0d29 2A030000 		.4byte	.LLST9
 2197 0d2d 2F       		.uleb128 0x2f
 2198 0d2e 51000000 		.4byte	.LASF133
 2199 0d32 01       		.byte	0x1
 2200 0d33 AE       		.byte	0xae
 2201 0d34 2C000000 		.4byte	0x2c
 2202 0d38 E0030000 		.4byte	.LLST10
 2203 0d3c 2A       		.uleb128 0x2a
 2204 0d3d EB040000 		.4byte	.LASF162
 2205 0d41 FB0D0000 		.4byte	0xdfb
 2206 0d45 23       		.uleb128 0x23
 2207 0d46 CE000000 		.4byte	.LBB5
 2208 0d4a 24000000 		.4byte	.LBE5-.LBB5
 2209 0d4e 7A0D0000 		.4byte	0xd7a
 2210 0d52 2F       		.uleb128 0x2f
 2211 0d53 C6020000 		.4byte	.LASF163
 2212 0d57 01       		.byte	0x1
 2213 0d58 D2       		.byte	0xd2
 2214 0d59 2C000000 		.4byte	0x2c
 2215 0d5d 36040000 		.4byte	.LLST12
 2216 0d61 30       		.uleb128 0x30
 2217 0d62 D8000000 		.4byte	.LBB6
 2218 0d66 1A000000 		.4byte	.LBE6-.LBB6
 2219 0d6a 2E       		.uleb128 0x2e
ARM GAS  /tmp/ccfkNEyW.s 			page 40


 2220 0d6b 667000   		.ascii	"fp\000"
 2221 0d6e 01       		.byte	0x1
 2222 0d6f D8       		.byte	0xd8
 2223 0d70 A8090000 		.4byte	0x9a8
 2224 0d74 49040000 		.4byte	.LLST13
 2225 0d78 00       		.byte	0
 2226 0d79 00       		.byte	0
 2227 0d7a 31       		.uleb128 0x31
 2228 0d7b 00000000 		.4byte	.Ldebug_ranges0+0
 2229 0d7f 920D0000 		.4byte	0xd92
 2230 0d83 2E       		.uleb128 0x2e
 2231 0d84 667000   		.ascii	"fp\000"
 2232 0d87 01       		.byte	0x1
 2233 0d88 EE       		.byte	0xee
 2234 0d89 A8090000 		.4byte	0x9a8
 2235 0d8d 5C040000 		.4byte	.LLST11
 2236 0d91 00       		.byte	0
 2237 0d92 25       		.uleb128 0x25
 2238 0d93 2C000000 		.4byte	.LVL13
 2239 0d97 AB0E0000 		.4byte	0xeab
 2240 0d9b A60D0000 		.4byte	0xda6
 2241 0d9f 26       		.uleb128 0x26
 2242 0da0 01       		.uleb128 0x1
 2243 0da1 50       		.byte	0x50
 2244 0da2 02       		.uleb128 0x2
 2245 0da3 7A       		.byte	0x7a
 2246 0da4 00       		.sleb128 0
 2247 0da5 00       		.byte	0
 2248 0da6 25       		.uleb128 0x25
 2249 0da7 6C000000 		.4byte	.LVL21
 2250 0dab B60E0000 		.4byte	0xeb6
 2251 0daf BA0D0000 		.4byte	0xdba
 2252 0db3 26       		.uleb128 0x26
 2253 0db4 01       		.uleb128 0x1
 2254 0db5 50       		.byte	0x50
 2255 0db6 02       		.uleb128 0x2
 2256 0db7 7A       		.byte	0x7a
 2257 0db8 00       		.sleb128 0
 2258 0db9 00       		.byte	0
 2259 0dba 32       		.uleb128 0x32
 2260 0dbb 7C000000 		.4byte	.LVL23
 2261 0dbf 02       		.uleb128 0x2
 2262 0dc0 76       		.byte	0x76
 2263 0dc1 00       		.sleb128 0
 2264 0dc2 DA0D0000 		.4byte	0xdda
 2265 0dc6 26       		.uleb128 0x26
 2266 0dc7 01       		.uleb128 0x1
 2267 0dc8 50       		.byte	0x50
 2268 0dc9 04       		.uleb128 0x4
 2269 0dca 79       		.byte	0x79
 2270 0dcb 00       		.sleb128 0
 2271 0dcc 33       		.byte	0x33
 2272 0dcd 24       		.byte	0x24
 2273 0dce 26       		.uleb128 0x26
 2274 0dcf 01       		.uleb128 0x1
 2275 0dd0 51       		.byte	0x51
 2276 0dd1 02       		.uleb128 0x2
ARM GAS  /tmp/ccfkNEyW.s 			page 41


 2277 0dd2 7B       		.byte	0x7b
 2278 0dd3 00       		.sleb128 0
 2279 0dd4 26       		.uleb128 0x26
 2280 0dd5 01       		.uleb128 0x1
 2281 0dd6 52       		.byte	0x52
 2282 0dd7 01       		.uleb128 0x1
 2283 0dd8 38       		.byte	0x38
 2284 0dd9 00       		.byte	0
 2285 0dda 27       		.uleb128 0x27
 2286 0ddb C6000000 		.4byte	.LVL33
 2287 0ddf B60E0000 		.4byte	0xeb6
 2288 0de3 26       		.uleb128 0x26
 2289 0de4 01       		.uleb128 0x1
 2290 0de5 50       		.byte	0x50
 2291 0de6 02       		.uleb128 0x2
 2292 0de7 7A       		.byte	0x7a
 2293 0de8 00       		.sleb128 0
 2294 0de9 00       		.byte	0
 2295 0dea 00       		.byte	0
 2296 0deb 13       		.uleb128 0x13
 2297 0dec 3A070000 		.4byte	0x73a
 2298 0df0 FB0D0000 		.4byte	0xdfb
 2299 0df4 14       		.uleb128 0x14
 2300 0df5 37000000 		.4byte	0x37
 2301 0df9 12       		.byte	0x12
 2302 0dfa 00       		.byte	0
 2303 0dfb 05       		.uleb128 0x5
 2304 0dfc EB0D0000 		.4byte	0xdeb
 2305 0e00 33       		.uleb128 0x33
 2306 0e01 21030000 		.4byte	.LASF165
 2307 0e05 01       		.byte	0x1
 2308 0e06 83       		.byte	0x83
 2309 0e07 00000000 		.4byte	.LFB295
 2310 0e0b 20000000 		.4byte	.LFE295-.LFB295
 2311 0e0f 01       		.uleb128 0x1
 2312 0e10 9C       		.byte	0x9c
 2313 0e11 6D0E0000 		.4byte	0xe6d
 2314 0e15 2D       		.uleb128 0x2d
 2315 0e16 2A040000 		.4byte	.LASF154
 2316 0e1a 01       		.byte	0x1
 2317 0e1b 83       		.byte	0x83
 2318 0e1c CF090000 		.4byte	0x9cf
 2319 0e20 6F040000 		.4byte	.LLST0
 2320 0e24 34       		.uleb128 0x34
 2321 0e25 62756600 		.ascii	"buf\000"
 2322 0e29 01       		.byte	0x1
 2323 0e2a 83       		.byte	0x83
 2324 0e2b 29030000 		.4byte	0x329
 2325 0e2f 9D040000 		.4byte	.LLST1
 2326 0e33 2D       		.uleb128 0x2d
 2327 0e34 39010000 		.4byte	.LASF100
 2328 0e38 01       		.byte	0x1
 2329 0e39 83       		.byte	0x83
 2330 0e3a 2C000000 		.4byte	0x2c
 2331 0e3e BE040000 		.4byte	.LLST2
 2332 0e42 2E       		.uleb128 0x2e
 2333 0e43 687000   		.ascii	"hp\000"
ARM GAS  /tmp/ccfkNEyW.s 			page 42


 2334 0e46 01       		.byte	0x1
 2335 0e47 84       		.byte	0x84
 2336 0e48 A8090000 		.4byte	0x9a8
 2337 0e4c 3E050000 		.4byte	.LLST3
 2338 0e50 2A       		.uleb128 0x2a
 2339 0e51 EB040000 		.4byte	.LASF162
 2340 0e55 7D0E0000 		.4byte	0xe7d
 2341 0e59 35       		.uleb128 0x35
 2342 0e5a 20000000 		.4byte	.LVL7
 2343 0e5e C10E0000 		.4byte	0xec1
 2344 0e62 26       		.uleb128 0x26
 2345 0e63 01       		.uleb128 0x1
 2346 0e64 50       		.byte	0x50
 2347 0e65 05       		.uleb128 0x5
 2348 0e66 F3       		.byte	0xf3
 2349 0e67 01       		.uleb128 0x1
 2350 0e68 50       		.byte	0x50
 2351 0e69 23       		.byte	0x23
 2352 0e6a 0C       		.uleb128 0xc
 2353 0e6b 00       		.byte	0
 2354 0e6c 00       		.byte	0
 2355 0e6d 13       		.uleb128 0x13
 2356 0e6e 3A070000 		.4byte	0x73a
 2357 0e72 7D0E0000 		.4byte	0xe7d
 2358 0e76 14       		.uleb128 0x14
 2359 0e77 37000000 		.4byte	0x37
 2360 0e7b 10       		.byte	0x10
 2361 0e7c 00       		.byte	0
 2362 0e7d 05       		.uleb128 0x5
 2363 0e7e 6D0E0000 		.4byte	0xe6d
 2364 0e82 33       		.uleb128 0x33
 2365 0e83 04020000 		.4byte	.LASF166
 2366 0e87 01       		.byte	0x1
 2367 0e88 6B       		.byte	0x6b
 2368 0e89 00000000 		.4byte	.LFB294
 2369 0e8d 1C000000 		.4byte	.LFE294-.LFB294
 2370 0e91 01       		.uleb128 0x1
 2371 0e92 9C       		.byte	0x9c
 2372 0e93 AB0E0000 		.4byte	0xeab
 2373 0e97 35       		.uleb128 0x35
 2374 0e98 14000000 		.4byte	.LVL0
 2375 0e9c C10E0000 		.4byte	0xec1
 2376 0ea0 26       		.uleb128 0x26
 2377 0ea1 01       		.uleb128 0x1
 2378 0ea2 50       		.byte	0x50
 2379 0ea3 05       		.uleb128 0x5
 2380 0ea4 03       		.byte	0x3
 2381 0ea5 0C000000 		.4byte	.LANCHOR0+12
 2382 0ea9 00       		.byte	0
 2383 0eaa 00       		.byte	0
 2384 0eab 36       		.uleb128 0x36
 2385 0eac 97030000 		.4byte	.LASF167
 2386 0eb0 97030000 		.4byte	.LASF167
 2387 0eb4 0F       		.byte	0xf
 2388 0eb5 67       		.byte	0x67
 2389 0eb6 36       		.uleb128 0x36
 2390 0eb7 1A010000 		.4byte	.LASF168
ARM GAS  /tmp/ccfkNEyW.s 			page 43


 2391 0ebb 1A010000 		.4byte	.LASF168
 2392 0ebf 0F       		.byte	0xf
 2393 0ec0 6B       		.byte	0x6b
 2394 0ec1 36       		.uleb128 0x36
 2395 0ec2 D0060000 		.4byte	.LASF169
 2396 0ec6 D0060000 		.4byte	.LASF169
 2397 0eca 0F       		.byte	0xf
 2398 0ecb 66       		.byte	0x66
 2399 0ecc 00       		.byte	0
 2400              		.section	.debug_abbrev,"",%progbits
 2401              	.Ldebug_abbrev0:
 2402 0000 01       		.uleb128 0x1
 2403 0001 11       		.uleb128 0x11
 2404 0002 01       		.byte	0x1
 2405 0003 25       		.uleb128 0x25
 2406 0004 0E       		.uleb128 0xe
 2407 0005 13       		.uleb128 0x13
 2408 0006 0B       		.uleb128 0xb
 2409 0007 03       		.uleb128 0x3
 2410 0008 0E       		.uleb128 0xe
 2411 0009 1B       		.uleb128 0x1b
 2412 000a 0E       		.uleb128 0xe
 2413 000b 55       		.uleb128 0x55
 2414 000c 17       		.uleb128 0x17
 2415 000d 11       		.uleb128 0x11
 2416 000e 01       		.uleb128 0x1
 2417 000f 10       		.uleb128 0x10
 2418 0010 17       		.uleb128 0x17
 2419 0011 00       		.byte	0
 2420 0012 00       		.byte	0
 2421 0013 02       		.uleb128 0x2
 2422 0014 24       		.uleb128 0x24
 2423 0015 00       		.byte	0
 2424 0016 0B       		.uleb128 0xb
 2425 0017 0B       		.uleb128 0xb
 2426 0018 3E       		.uleb128 0x3e
 2427 0019 0B       		.uleb128 0xb
 2428 001a 03       		.uleb128 0x3
 2429 001b 08       		.uleb128 0x8
 2430 001c 00       		.byte	0
 2431 001d 00       		.byte	0
 2432 001e 03       		.uleb128 0x3
 2433 001f 16       		.uleb128 0x16
 2434 0020 00       		.byte	0
 2435 0021 03       		.uleb128 0x3
 2436 0022 0E       		.uleb128 0xe
 2437 0023 3A       		.uleb128 0x3a
 2438 0024 0B       		.uleb128 0xb
 2439 0025 3B       		.uleb128 0x3b
 2440 0026 0B       		.uleb128 0xb
 2441 0027 49       		.uleb128 0x49
 2442 0028 13       		.uleb128 0x13
 2443 0029 00       		.byte	0
 2444 002a 00       		.byte	0
 2445 002b 04       		.uleb128 0x4
 2446 002c 24       		.uleb128 0x24
 2447 002d 00       		.byte	0
ARM GAS  /tmp/ccfkNEyW.s 			page 44


 2448 002e 0B       		.uleb128 0xb
 2449 002f 0B       		.uleb128 0xb
 2450 0030 3E       		.uleb128 0x3e
 2451 0031 0B       		.uleb128 0xb
 2452 0032 03       		.uleb128 0x3
 2453 0033 0E       		.uleb128 0xe
 2454 0034 00       		.byte	0
 2455 0035 00       		.byte	0
 2456 0036 05       		.uleb128 0x5
 2457 0037 26       		.uleb128 0x26
 2458 0038 00       		.byte	0
 2459 0039 49       		.uleb128 0x49
 2460 003a 13       		.uleb128 0x13
 2461 003b 00       		.byte	0
 2462 003c 00       		.byte	0
 2463 003d 06       		.uleb128 0x6
 2464 003e 35       		.uleb128 0x35
 2465 003f 00       		.byte	0
 2466 0040 49       		.uleb128 0x49
 2467 0041 13       		.uleb128 0x13
 2468 0042 00       		.byte	0
 2469 0043 00       		.byte	0
 2470 0044 07       		.uleb128 0x7
 2471 0045 13       		.uleb128 0x13
 2472 0046 01       		.byte	0x1
 2473 0047 03       		.uleb128 0x3
 2474 0048 0E       		.uleb128 0xe
 2475 0049 0B       		.uleb128 0xb
 2476 004a 0B       		.uleb128 0xb
 2477 004b 3A       		.uleb128 0x3a
 2478 004c 0B       		.uleb128 0xb
 2479 004d 3B       		.uleb128 0x3b
 2480 004e 0B       		.uleb128 0xb
 2481 004f 01       		.uleb128 0x1
 2482 0050 13       		.uleb128 0x13
 2483 0051 00       		.byte	0
 2484 0052 00       		.byte	0
 2485 0053 08       		.uleb128 0x8
 2486 0054 0D       		.uleb128 0xd
 2487 0055 00       		.byte	0
 2488 0056 03       		.uleb128 0x3
 2489 0057 0E       		.uleb128 0xe
 2490 0058 3A       		.uleb128 0x3a
 2491 0059 0B       		.uleb128 0xb
 2492 005a 3B       		.uleb128 0x3b
 2493 005b 0B       		.uleb128 0xb
 2494 005c 49       		.uleb128 0x49
 2495 005d 13       		.uleb128 0x13
 2496 005e 38       		.uleb128 0x38
 2497 005f 0B       		.uleb128 0xb
 2498 0060 00       		.byte	0
 2499 0061 00       		.byte	0
 2500 0062 09       		.uleb128 0x9
 2501 0063 0D       		.uleb128 0xd
 2502 0064 00       		.byte	0
 2503 0065 03       		.uleb128 0x3
 2504 0066 08       		.uleb128 0x8
ARM GAS  /tmp/ccfkNEyW.s 			page 45


 2505 0067 3A       		.uleb128 0x3a
 2506 0068 0B       		.uleb128 0xb
 2507 0069 3B       		.uleb128 0x3b
 2508 006a 0B       		.uleb128 0xb
 2509 006b 49       		.uleb128 0x49
 2510 006c 13       		.uleb128 0x13
 2511 006d 38       		.uleb128 0x38
 2512 006e 0B       		.uleb128 0xb
 2513 006f 00       		.byte	0
 2514 0070 00       		.byte	0
 2515 0071 0A       		.uleb128 0xa
 2516 0072 0D       		.uleb128 0xd
 2517 0073 00       		.byte	0
 2518 0074 03       		.uleb128 0x3
 2519 0075 08       		.uleb128 0x8
 2520 0076 3A       		.uleb128 0x3a
 2521 0077 0B       		.uleb128 0xb
 2522 0078 3B       		.uleb128 0x3b
 2523 0079 05       		.uleb128 0x5
 2524 007a 49       		.uleb128 0x49
 2525 007b 13       		.uleb128 0x13
 2526 007c 38       		.uleb128 0x38
 2527 007d 0B       		.uleb128 0xb
 2528 007e 00       		.byte	0
 2529 007f 00       		.byte	0
 2530 0080 0B       		.uleb128 0xb
 2531 0081 0D       		.uleb128 0xd
 2532 0082 00       		.byte	0
 2533 0083 03       		.uleb128 0x3
 2534 0084 0E       		.uleb128 0xe
 2535 0085 3A       		.uleb128 0x3a
 2536 0086 0B       		.uleb128 0xb
 2537 0087 3B       		.uleb128 0x3b
 2538 0088 05       		.uleb128 0x5
 2539 0089 49       		.uleb128 0x49
 2540 008a 13       		.uleb128 0x13
 2541 008b 38       		.uleb128 0x38
 2542 008c 0B       		.uleb128 0xb
 2543 008d 00       		.byte	0
 2544 008e 00       		.byte	0
 2545 008f 0C       		.uleb128 0xc
 2546 0090 0F       		.uleb128 0xf
 2547 0091 00       		.byte	0
 2548 0092 0B       		.uleb128 0xb
 2549 0093 0B       		.uleb128 0xb
 2550 0094 49       		.uleb128 0x49
 2551 0095 13       		.uleb128 0x13
 2552 0096 00       		.byte	0
 2553 0097 00       		.byte	0
 2554 0098 0D       		.uleb128 0xd
 2555 0099 13       		.uleb128 0x13
 2556 009a 01       		.byte	0x1
 2557 009b 03       		.uleb128 0x3
 2558 009c 0E       		.uleb128 0xe
 2559 009d 0B       		.uleb128 0xb
 2560 009e 0B       		.uleb128 0xb
 2561 009f 3A       		.uleb128 0x3a
ARM GAS  /tmp/ccfkNEyW.s 			page 46


 2562 00a0 0B       		.uleb128 0xb
 2563 00a1 3B       		.uleb128 0x3b
 2564 00a2 05       		.uleb128 0x5
 2565 00a3 01       		.uleb128 0x1
 2566 00a4 13       		.uleb128 0x13
 2567 00a5 00       		.byte	0
 2568 00a6 00       		.byte	0
 2569 00a7 0E       		.uleb128 0xe
 2570 00a8 15       		.uleb128 0x15
 2571 00a9 01       		.byte	0x1
 2572 00aa 27       		.uleb128 0x27
 2573 00ab 19       		.uleb128 0x19
 2574 00ac 01       		.uleb128 0x1
 2575 00ad 13       		.uleb128 0x13
 2576 00ae 00       		.byte	0
 2577 00af 00       		.byte	0
 2578 00b0 0F       		.uleb128 0xf
 2579 00b1 05       		.uleb128 0x5
 2580 00b2 00       		.byte	0
 2581 00b3 49       		.uleb128 0x49
 2582 00b4 13       		.uleb128 0x13
 2583 00b5 00       		.byte	0
 2584 00b6 00       		.byte	0
 2585 00b7 10       		.uleb128 0x10
 2586 00b8 0F       		.uleb128 0xf
 2587 00b9 00       		.byte	0
 2588 00ba 0B       		.uleb128 0xb
 2589 00bb 0B       		.uleb128 0xb
 2590 00bc 00       		.byte	0
 2591 00bd 00       		.byte	0
 2592 00be 11       		.uleb128 0x11
 2593 00bf 34       		.uleb128 0x34
 2594 00c0 00       		.byte	0
 2595 00c1 03       		.uleb128 0x3
 2596 00c2 0E       		.uleb128 0xe
 2597 00c3 3A       		.uleb128 0x3a
 2598 00c4 0B       		.uleb128 0xb
 2599 00c5 3B       		.uleb128 0x3b
 2600 00c6 05       		.uleb128 0x5
 2601 00c7 49       		.uleb128 0x49
 2602 00c8 13       		.uleb128 0x13
 2603 00c9 3F       		.uleb128 0x3f
 2604 00ca 19       		.uleb128 0x19
 2605 00cb 3C       		.uleb128 0x3c
 2606 00cc 19       		.uleb128 0x19
 2607 00cd 00       		.byte	0
 2608 00ce 00       		.byte	0
 2609 00cf 12       		.uleb128 0x12
 2610 00d0 34       		.uleb128 0x34
 2611 00d1 00       		.byte	0
 2612 00d2 03       		.uleb128 0x3
 2613 00d3 0E       		.uleb128 0xe
 2614 00d4 3A       		.uleb128 0x3a
 2615 00d5 0B       		.uleb128 0xb
 2616 00d6 3B       		.uleb128 0x3b
 2617 00d7 0B       		.uleb128 0xb
 2618 00d8 49       		.uleb128 0x49
ARM GAS  /tmp/ccfkNEyW.s 			page 47


 2619 00d9 13       		.uleb128 0x13
 2620 00da 3F       		.uleb128 0x3f
 2621 00db 19       		.uleb128 0x19
 2622 00dc 3C       		.uleb128 0x3c
 2623 00dd 19       		.uleb128 0x19
 2624 00de 00       		.byte	0
 2625 00df 00       		.byte	0
 2626 00e0 13       		.uleb128 0x13
 2627 00e1 01       		.uleb128 0x1
 2628 00e2 01       		.byte	0x1
 2629 00e3 49       		.uleb128 0x49
 2630 00e4 13       		.uleb128 0x13
 2631 00e5 01       		.uleb128 0x1
 2632 00e6 13       		.uleb128 0x13
 2633 00e7 00       		.byte	0
 2634 00e8 00       		.byte	0
 2635 00e9 14       		.uleb128 0x14
 2636 00ea 21       		.uleb128 0x21
 2637 00eb 00       		.byte	0
 2638 00ec 49       		.uleb128 0x49
 2639 00ed 13       		.uleb128 0x13
 2640 00ee 2F       		.uleb128 0x2f
 2641 00ef 0B       		.uleb128 0xb
 2642 00f0 00       		.byte	0
 2643 00f1 00       		.byte	0
 2644 00f2 15       		.uleb128 0x15
 2645 00f3 13       		.uleb128 0x13
 2646 00f4 01       		.byte	0x1
 2647 00f5 0B       		.uleb128 0xb
 2648 00f6 0B       		.uleb128 0xb
 2649 00f7 3A       		.uleb128 0x3a
 2650 00f8 0B       		.uleb128 0xb
 2651 00f9 3B       		.uleb128 0x3b
 2652 00fa 0B       		.uleb128 0xb
 2653 00fb 01       		.uleb128 0x1
 2654 00fc 13       		.uleb128 0x13
 2655 00fd 00       		.byte	0
 2656 00fe 00       		.byte	0
 2657 00ff 16       		.uleb128 0x16
 2658 0100 17       		.uleb128 0x17
 2659 0101 01       		.byte	0x1
 2660 0102 0B       		.uleb128 0xb
 2661 0103 0B       		.uleb128 0xb
 2662 0104 3A       		.uleb128 0x3a
 2663 0105 0B       		.uleb128 0xb
 2664 0106 3B       		.uleb128 0x3b
 2665 0107 0B       		.uleb128 0xb
 2666 0108 01       		.uleb128 0x1
 2667 0109 13       		.uleb128 0x13
 2668 010a 00       		.byte	0
 2669 010b 00       		.byte	0
 2670 010c 17       		.uleb128 0x17
 2671 010d 0D       		.uleb128 0xd
 2672 010e 00       		.byte	0
 2673 010f 03       		.uleb128 0x3
 2674 0110 0E       		.uleb128 0xe
 2675 0111 3A       		.uleb128 0x3a
ARM GAS  /tmp/ccfkNEyW.s 			page 48


 2676 0112 0B       		.uleb128 0xb
 2677 0113 3B       		.uleb128 0x3b
 2678 0114 0B       		.uleb128 0xb
 2679 0115 49       		.uleb128 0x49
 2680 0116 13       		.uleb128 0x13
 2681 0117 00       		.byte	0
 2682 0118 00       		.byte	0
 2683 0119 18       		.uleb128 0x18
 2684 011a 0D       		.uleb128 0xd
 2685 011b 00       		.byte	0
 2686 011c 03       		.uleb128 0x3
 2687 011d 0E       		.uleb128 0xe
 2688 011e 3A       		.uleb128 0x3a
 2689 011f 0B       		.uleb128 0xb
 2690 0120 3B       		.uleb128 0x3b
 2691 0121 05       		.uleb128 0x5
 2692 0122 49       		.uleb128 0x49
 2693 0123 13       		.uleb128 0x13
 2694 0124 00       		.byte	0
 2695 0125 00       		.byte	0
 2696 0126 19       		.uleb128 0x19
 2697 0127 34       		.uleb128 0x34
 2698 0128 00       		.byte	0
 2699 0129 03       		.uleb128 0x3
 2700 012a 08       		.uleb128 0x8
 2701 012b 3A       		.uleb128 0x3a
 2702 012c 0B       		.uleb128 0xb
 2703 012d 3B       		.uleb128 0x3b
 2704 012e 05       		.uleb128 0x5
 2705 012f 49       		.uleb128 0x49
 2706 0130 13       		.uleb128 0x13
 2707 0131 3F       		.uleb128 0x3f
 2708 0132 19       		.uleb128 0x19
 2709 0133 3C       		.uleb128 0x3c
 2710 0134 19       		.uleb128 0x19
 2711 0135 00       		.byte	0
 2712 0136 00       		.byte	0
 2713 0137 1A       		.uleb128 0x1a
 2714 0138 21       		.uleb128 0x21
 2715 0139 00       		.byte	0
 2716 013a 00       		.byte	0
 2717 013b 00       		.byte	0
 2718 013c 1B       		.uleb128 0x1b
 2719 013d 15       		.uleb128 0x15
 2720 013e 01       		.byte	0x1
 2721 013f 27       		.uleb128 0x27
 2722 0140 19       		.uleb128 0x19
 2723 0141 49       		.uleb128 0x49
 2724 0142 13       		.uleb128 0x13
 2725 0143 01       		.uleb128 0x1
 2726 0144 13       		.uleb128 0x13
 2727 0145 00       		.byte	0
 2728 0146 00       		.byte	0
 2729 0147 1C       		.uleb128 0x1c
 2730 0148 17       		.uleb128 0x17
 2731 0149 01       		.byte	0x1
 2732 014a 03       		.uleb128 0x3
ARM GAS  /tmp/ccfkNEyW.s 			page 49


 2733 014b 0E       		.uleb128 0xe
 2734 014c 0B       		.uleb128 0xb
 2735 014d 0B       		.uleb128 0xb
 2736 014e 3A       		.uleb128 0x3a
 2737 014f 0B       		.uleb128 0xb
 2738 0150 3B       		.uleb128 0x3b
 2739 0151 0B       		.uleb128 0xb
 2740 0152 01       		.uleb128 0x1
 2741 0153 13       		.uleb128 0x13
 2742 0154 00       		.byte	0
 2743 0155 00       		.byte	0
 2744 0156 1D       		.uleb128 0x1d
 2745 0157 16       		.uleb128 0x16
 2746 0158 00       		.byte	0
 2747 0159 03       		.uleb128 0x3
 2748 015a 0E       		.uleb128 0xe
 2749 015b 3A       		.uleb128 0x3a
 2750 015c 0B       		.uleb128 0xb
 2751 015d 3B       		.uleb128 0x3b
 2752 015e 05       		.uleb128 0x5
 2753 015f 49       		.uleb128 0x49
 2754 0160 13       		.uleb128 0x13
 2755 0161 00       		.byte	0
 2756 0162 00       		.byte	0
 2757 0163 1E       		.uleb128 0x1e
 2758 0164 34       		.uleb128 0x34
 2759 0165 00       		.byte	0
 2760 0166 03       		.uleb128 0x3
 2761 0167 0E       		.uleb128 0xe
 2762 0168 3A       		.uleb128 0x3a
 2763 0169 0B       		.uleb128 0xb
 2764 016a 3B       		.uleb128 0x3b
 2765 016b 0B       		.uleb128 0xb
 2766 016c 49       		.uleb128 0x49
 2767 016d 13       		.uleb128 0x13
 2768 016e 02       		.uleb128 0x2
 2769 016f 18       		.uleb128 0x18
 2770 0170 00       		.byte	0
 2771 0171 00       		.byte	0
 2772 0172 1F       		.uleb128 0x1f
 2773 0173 2E       		.uleb128 0x2e
 2774 0174 01       		.byte	0x1
 2775 0175 3F       		.uleb128 0x3f
 2776 0176 19       		.uleb128 0x19
 2777 0177 03       		.uleb128 0x3
 2778 0178 0E       		.uleb128 0xe
 2779 0179 3A       		.uleb128 0x3a
 2780 017a 0B       		.uleb128 0xb
 2781 017b 3B       		.uleb128 0x3b
 2782 017c 05       		.uleb128 0x5
 2783 017d 27       		.uleb128 0x27
 2784 017e 19       		.uleb128 0x19
 2785 017f 49       		.uleb128 0x49
 2786 0180 13       		.uleb128 0x13
 2787 0181 11       		.uleb128 0x11
 2788 0182 01       		.uleb128 0x1
 2789 0183 12       		.uleb128 0x12
ARM GAS  /tmp/ccfkNEyW.s 			page 50


 2790 0184 06       		.uleb128 0x6
 2791 0185 40       		.uleb128 0x40
 2792 0186 18       		.uleb128 0x18
 2793 0187 9742     		.uleb128 0x2117
 2794 0189 19       		.uleb128 0x19
 2795 018a 01       		.uleb128 0x1
 2796 018b 13       		.uleb128 0x13
 2797 018c 00       		.byte	0
 2798 018d 00       		.byte	0
 2799 018e 20       		.uleb128 0x20
 2800 018f 05       		.uleb128 0x5
 2801 0190 00       		.byte	0
 2802 0191 03       		.uleb128 0x3
 2803 0192 0E       		.uleb128 0xe
 2804 0193 3A       		.uleb128 0x3a
 2805 0194 0B       		.uleb128 0xb
 2806 0195 3B       		.uleb128 0x3b
 2807 0196 05       		.uleb128 0x5
 2808 0197 49       		.uleb128 0x49
 2809 0198 13       		.uleb128 0x13
 2810 0199 02       		.uleb128 0x2
 2811 019a 17       		.uleb128 0x17
 2812 019b 00       		.byte	0
 2813 019c 00       		.byte	0
 2814 019d 21       		.uleb128 0x21
 2815 019e 34       		.uleb128 0x34
 2816 019f 00       		.byte	0
 2817 01a0 03       		.uleb128 0x3
 2818 01a1 08       		.uleb128 0x8
 2819 01a2 3A       		.uleb128 0x3a
 2820 01a3 0B       		.uleb128 0xb
 2821 01a4 3B       		.uleb128 0x3b
 2822 01a5 05       		.uleb128 0x5
 2823 01a6 49       		.uleb128 0x49
 2824 01a7 13       		.uleb128 0x13
 2825 01a8 02       		.uleb128 0x2
 2826 01a9 17       		.uleb128 0x17
 2827 01aa 00       		.byte	0
 2828 01ab 00       		.byte	0
 2829 01ac 22       		.uleb128 0x22
 2830 01ad 34       		.uleb128 0x34
 2831 01ae 00       		.byte	0
 2832 01af 03       		.uleb128 0x3
 2833 01b0 0E       		.uleb128 0xe
 2834 01b1 3A       		.uleb128 0x3a
 2835 01b2 0B       		.uleb128 0xb
 2836 01b3 3B       		.uleb128 0x3b
 2837 01b4 05       		.uleb128 0x5
 2838 01b5 49       		.uleb128 0x49
 2839 01b6 13       		.uleb128 0x13
 2840 01b7 02       		.uleb128 0x2
 2841 01b8 17       		.uleb128 0x17
 2842 01b9 00       		.byte	0
 2843 01ba 00       		.byte	0
 2844 01bb 23       		.uleb128 0x23
 2845 01bc 0B       		.uleb128 0xb
 2846 01bd 01       		.byte	0x1
ARM GAS  /tmp/ccfkNEyW.s 			page 51


 2847 01be 11       		.uleb128 0x11
 2848 01bf 01       		.uleb128 0x1
 2849 01c0 12       		.uleb128 0x12
 2850 01c1 06       		.uleb128 0x6
 2851 01c2 01       		.uleb128 0x1
 2852 01c3 13       		.uleb128 0x13
 2853 01c4 00       		.byte	0
 2854 01c5 00       		.byte	0
 2855 01c6 24       		.uleb128 0x24
 2856 01c7 34       		.uleb128 0x34
 2857 01c8 00       		.byte	0
 2858 01c9 03       		.uleb128 0x3
 2859 01ca 0E       		.uleb128 0xe
 2860 01cb 3A       		.uleb128 0x3a
 2861 01cc 0B       		.uleb128 0xb
 2862 01cd 3B       		.uleb128 0x3b
 2863 01ce 05       		.uleb128 0x5
 2864 01cf 49       		.uleb128 0x49
 2865 01d0 13       		.uleb128 0x13
 2866 01d1 02       		.uleb128 0x2
 2867 01d2 18       		.uleb128 0x18
 2868 01d3 00       		.byte	0
 2869 01d4 00       		.byte	0
 2870 01d5 25       		.uleb128 0x25
 2871 01d6 898201   		.uleb128 0x4109
 2872 01d9 01       		.byte	0x1
 2873 01da 11       		.uleb128 0x11
 2874 01db 01       		.uleb128 0x1
 2875 01dc 31       		.uleb128 0x31
 2876 01dd 13       		.uleb128 0x13
 2877 01de 01       		.uleb128 0x1
 2878 01df 13       		.uleb128 0x13
 2879 01e0 00       		.byte	0
 2880 01e1 00       		.byte	0
 2881 01e2 26       		.uleb128 0x26
 2882 01e3 8A8201   		.uleb128 0x410a
 2883 01e6 00       		.byte	0
 2884 01e7 02       		.uleb128 0x2
 2885 01e8 18       		.uleb128 0x18
 2886 01e9 9142     		.uleb128 0x2111
 2887 01eb 18       		.uleb128 0x18
 2888 01ec 00       		.byte	0
 2889 01ed 00       		.byte	0
 2890 01ee 27       		.uleb128 0x27
 2891 01ef 898201   		.uleb128 0x4109
 2892 01f2 01       		.byte	0x1
 2893 01f3 11       		.uleb128 0x11
 2894 01f4 01       		.uleb128 0x1
 2895 01f5 31       		.uleb128 0x31
 2896 01f6 13       		.uleb128 0x13
 2897 01f7 00       		.byte	0
 2898 01f8 00       		.byte	0
 2899 01f9 28       		.uleb128 0x28
 2900 01fa 2E       		.uleb128 0x2e
 2901 01fb 01       		.byte	0x1
 2902 01fc 3F       		.uleb128 0x3f
 2903 01fd 19       		.uleb128 0x19
ARM GAS  /tmp/ccfkNEyW.s 			page 52


 2904 01fe 03       		.uleb128 0x3
 2905 01ff 0E       		.uleb128 0xe
 2906 0200 3A       		.uleb128 0x3a
 2907 0201 0B       		.uleb128 0xb
 2908 0202 3B       		.uleb128 0x3b
 2909 0203 05       		.uleb128 0x5
 2910 0204 27       		.uleb128 0x27
 2911 0205 19       		.uleb128 0x19
 2912 0206 11       		.uleb128 0x11
 2913 0207 01       		.uleb128 0x1
 2914 0208 12       		.uleb128 0x12
 2915 0209 06       		.uleb128 0x6
 2916 020a 40       		.uleb128 0x40
 2917 020b 18       		.uleb128 0x18
 2918 020c 9742     		.uleb128 0x2117
 2919 020e 19       		.uleb128 0x19
 2920 020f 01       		.uleb128 0x1
 2921 0210 13       		.uleb128 0x13
 2922 0211 00       		.byte	0
 2923 0212 00       		.byte	0
 2924 0213 29       		.uleb128 0x29
 2925 0214 05       		.uleb128 0x5
 2926 0215 00       		.byte	0
 2927 0216 03       		.uleb128 0x3
 2928 0217 08       		.uleb128 0x8
 2929 0218 3A       		.uleb128 0x3a
 2930 0219 0B       		.uleb128 0xb
 2931 021a 3B       		.uleb128 0x3b
 2932 021b 05       		.uleb128 0x5
 2933 021c 49       		.uleb128 0x49
 2934 021d 13       		.uleb128 0x13
 2935 021e 02       		.uleb128 0x2
 2936 021f 17       		.uleb128 0x17
 2937 0220 00       		.byte	0
 2938 0221 00       		.byte	0
 2939 0222 2A       		.uleb128 0x2a
 2940 0223 34       		.uleb128 0x34
 2941 0224 00       		.byte	0
 2942 0225 03       		.uleb128 0x3
 2943 0226 0E       		.uleb128 0xe
 2944 0227 49       		.uleb128 0x49
 2945 0228 13       		.uleb128 0x13
 2946 0229 34       		.uleb128 0x34
 2947 022a 19       		.uleb128 0x19
 2948 022b 00       		.byte	0
 2949 022c 00       		.byte	0
 2950 022d 2B       		.uleb128 0x2b
 2951 022e 898201   		.uleb128 0x4109
 2952 0231 00       		.byte	0
 2953 0232 11       		.uleb128 0x11
 2954 0233 01       		.uleb128 0x1
 2955 0234 9542     		.uleb128 0x2115
 2956 0236 19       		.uleb128 0x19
 2957 0237 31       		.uleb128 0x31
 2958 0238 13       		.uleb128 0x13
 2959 0239 00       		.byte	0
 2960 023a 00       		.byte	0
ARM GAS  /tmp/ccfkNEyW.s 			page 53


 2961 023b 2C       		.uleb128 0x2c
 2962 023c 2E       		.uleb128 0x2e
 2963 023d 01       		.byte	0x1
 2964 023e 3F       		.uleb128 0x3f
 2965 023f 19       		.uleb128 0x19
 2966 0240 03       		.uleb128 0x3
 2967 0241 0E       		.uleb128 0xe
 2968 0242 3A       		.uleb128 0x3a
 2969 0243 0B       		.uleb128 0xb
 2970 0244 3B       		.uleb128 0x3b
 2971 0245 0B       		.uleb128 0xb
 2972 0246 27       		.uleb128 0x27
 2973 0247 19       		.uleb128 0x19
 2974 0248 49       		.uleb128 0x49
 2975 0249 13       		.uleb128 0x13
 2976 024a 11       		.uleb128 0x11
 2977 024b 01       		.uleb128 0x1
 2978 024c 12       		.uleb128 0x12
 2979 024d 06       		.uleb128 0x6
 2980 024e 40       		.uleb128 0x40
 2981 024f 18       		.uleb128 0x18
 2982 0250 9742     		.uleb128 0x2117
 2983 0252 19       		.uleb128 0x19
 2984 0253 01       		.uleb128 0x1
 2985 0254 13       		.uleb128 0x13
 2986 0255 00       		.byte	0
 2987 0256 00       		.byte	0
 2988 0257 2D       		.uleb128 0x2d
 2989 0258 05       		.uleb128 0x5
 2990 0259 00       		.byte	0
 2991 025a 03       		.uleb128 0x3
 2992 025b 0E       		.uleb128 0xe
 2993 025c 3A       		.uleb128 0x3a
 2994 025d 0B       		.uleb128 0xb
 2995 025e 3B       		.uleb128 0x3b
 2996 025f 0B       		.uleb128 0xb
 2997 0260 49       		.uleb128 0x49
 2998 0261 13       		.uleb128 0x13
 2999 0262 02       		.uleb128 0x2
 3000 0263 17       		.uleb128 0x17
 3001 0264 00       		.byte	0
 3002 0265 00       		.byte	0
 3003 0266 2E       		.uleb128 0x2e
 3004 0267 34       		.uleb128 0x34
 3005 0268 00       		.byte	0
 3006 0269 03       		.uleb128 0x3
 3007 026a 08       		.uleb128 0x8
 3008 026b 3A       		.uleb128 0x3a
 3009 026c 0B       		.uleb128 0xb
 3010 026d 3B       		.uleb128 0x3b
 3011 026e 0B       		.uleb128 0xb
 3012 026f 49       		.uleb128 0x49
 3013 0270 13       		.uleb128 0x13
 3014 0271 02       		.uleb128 0x2
 3015 0272 17       		.uleb128 0x17
 3016 0273 00       		.byte	0
 3017 0274 00       		.byte	0
ARM GAS  /tmp/ccfkNEyW.s 			page 54


 3018 0275 2F       		.uleb128 0x2f
 3019 0276 34       		.uleb128 0x34
 3020 0277 00       		.byte	0
 3021 0278 03       		.uleb128 0x3
 3022 0279 0E       		.uleb128 0xe
 3023 027a 3A       		.uleb128 0x3a
 3024 027b 0B       		.uleb128 0xb
 3025 027c 3B       		.uleb128 0x3b
 3026 027d 0B       		.uleb128 0xb
 3027 027e 49       		.uleb128 0x49
 3028 027f 13       		.uleb128 0x13
 3029 0280 02       		.uleb128 0x2
 3030 0281 17       		.uleb128 0x17
 3031 0282 00       		.byte	0
 3032 0283 00       		.byte	0
 3033 0284 30       		.uleb128 0x30
 3034 0285 0B       		.uleb128 0xb
 3035 0286 01       		.byte	0x1
 3036 0287 11       		.uleb128 0x11
 3037 0288 01       		.uleb128 0x1
 3038 0289 12       		.uleb128 0x12
 3039 028a 06       		.uleb128 0x6
 3040 028b 00       		.byte	0
 3041 028c 00       		.byte	0
 3042 028d 31       		.uleb128 0x31
 3043 028e 0B       		.uleb128 0xb
 3044 028f 01       		.byte	0x1
 3045 0290 55       		.uleb128 0x55
 3046 0291 17       		.uleb128 0x17
 3047 0292 01       		.uleb128 0x1
 3048 0293 13       		.uleb128 0x13
 3049 0294 00       		.byte	0
 3050 0295 00       		.byte	0
 3051 0296 32       		.uleb128 0x32
 3052 0297 898201   		.uleb128 0x4109
 3053 029a 01       		.byte	0x1
 3054 029b 11       		.uleb128 0x11
 3055 029c 01       		.uleb128 0x1
 3056 029d 9342     		.uleb128 0x2113
 3057 029f 18       		.uleb128 0x18
 3058 02a0 01       		.uleb128 0x1
 3059 02a1 13       		.uleb128 0x13
 3060 02a2 00       		.byte	0
 3061 02a3 00       		.byte	0
 3062 02a4 33       		.uleb128 0x33
 3063 02a5 2E       		.uleb128 0x2e
 3064 02a6 01       		.byte	0x1
 3065 02a7 3F       		.uleb128 0x3f
 3066 02a8 19       		.uleb128 0x19
 3067 02a9 03       		.uleb128 0x3
 3068 02aa 0E       		.uleb128 0xe
 3069 02ab 3A       		.uleb128 0x3a
 3070 02ac 0B       		.uleb128 0xb
 3071 02ad 3B       		.uleb128 0x3b
 3072 02ae 0B       		.uleb128 0xb
 3073 02af 27       		.uleb128 0x27
 3074 02b0 19       		.uleb128 0x19
ARM GAS  /tmp/ccfkNEyW.s 			page 55


 3075 02b1 11       		.uleb128 0x11
 3076 02b2 01       		.uleb128 0x1
 3077 02b3 12       		.uleb128 0x12
 3078 02b4 06       		.uleb128 0x6
 3079 02b5 40       		.uleb128 0x40
 3080 02b6 18       		.uleb128 0x18
 3081 02b7 9742     		.uleb128 0x2117
 3082 02b9 19       		.uleb128 0x19
 3083 02ba 01       		.uleb128 0x1
 3084 02bb 13       		.uleb128 0x13
 3085 02bc 00       		.byte	0
 3086 02bd 00       		.byte	0
 3087 02be 34       		.uleb128 0x34
 3088 02bf 05       		.uleb128 0x5
 3089 02c0 00       		.byte	0
 3090 02c1 03       		.uleb128 0x3
 3091 02c2 08       		.uleb128 0x8
 3092 02c3 3A       		.uleb128 0x3a
 3093 02c4 0B       		.uleb128 0xb
 3094 02c5 3B       		.uleb128 0x3b
 3095 02c6 0B       		.uleb128 0xb
 3096 02c7 49       		.uleb128 0x49
 3097 02c8 13       		.uleb128 0x13
 3098 02c9 02       		.uleb128 0x2
 3099 02ca 17       		.uleb128 0x17
 3100 02cb 00       		.byte	0
 3101 02cc 00       		.byte	0
 3102 02cd 35       		.uleb128 0x35
 3103 02ce 898201   		.uleb128 0x4109
 3104 02d1 01       		.byte	0x1
 3105 02d2 11       		.uleb128 0x11
 3106 02d3 01       		.uleb128 0x1
 3107 02d4 9542     		.uleb128 0x2115
 3108 02d6 19       		.uleb128 0x19
 3109 02d7 31       		.uleb128 0x31
 3110 02d8 13       		.uleb128 0x13
 3111 02d9 00       		.byte	0
 3112 02da 00       		.byte	0
 3113 02db 36       		.uleb128 0x36
 3114 02dc 2E       		.uleb128 0x2e
 3115 02dd 00       		.byte	0
 3116 02de 3F       		.uleb128 0x3f
 3117 02df 19       		.uleb128 0x19
 3118 02e0 3C       		.uleb128 0x3c
 3119 02e1 19       		.uleb128 0x19
 3120 02e2 6E       		.uleb128 0x6e
 3121 02e3 0E       		.uleb128 0xe
 3122 02e4 03       		.uleb128 0x3
 3123 02e5 0E       		.uleb128 0xe
 3124 02e6 3A       		.uleb128 0x3a
 3125 02e7 0B       		.uleb128 0xb
 3126 02e8 3B       		.uleb128 0x3b
 3127 02e9 0B       		.uleb128 0xb
 3128 02ea 00       		.byte	0
 3129 02eb 00       		.byte	0
 3130 02ec 00       		.byte	0
 3131              		.section	.debug_loc,"",%progbits
ARM GAS  /tmp/ccfkNEyW.s 			page 56


 3132              	.Ldebug_loc0:
 3133              	.LLST18:
 3134 0000 00000000 		.4byte	.LVL51
 3135 0004 0C000000 		.4byte	.LVL52
 3136 0008 0100     		.2byte	0x1
 3137 000a 50       		.byte	0x50
 3138 000b 0C000000 		.4byte	.LVL52
 3139 000f 20000000 		.4byte	.LVL54
 3140 0013 0100     		.2byte	0x1
 3141 0015 54       		.byte	0x54
 3142 0016 20000000 		.4byte	.LVL54
 3143 001a 5C000000 		.4byte	.LVL61
 3144 001e 0300     		.2byte	0x3
 3145 0020 77       		.byte	0x77
 3146 0021 74       		.sleb128 -12
 3147 0022 9F       		.byte	0x9f
 3148 0023 5C000000 		.4byte	.LVL61
 3149 0027 5E000000 		.4byte	.LVL62
 3150 002b 0100     		.2byte	0x1
 3151 002d 54       		.byte	0x54
 3152 002e 5E000000 		.4byte	.LVL62
 3153 0032 68000000 		.4byte	.LFE298
 3154 0036 0300     		.2byte	0x3
 3155 0038 77       		.byte	0x77
 3156 0039 74       		.sleb128 -12
 3157 003a 9F       		.byte	0x9f
 3158 003b 00000000 		.4byte	0
 3159 003f 00000000 		.4byte	0
 3160              	.LLST19:
 3161 0043 00000000 		.4byte	.LVL51
 3162 0047 19000000 		.4byte	.LVL53-1
 3163 004b 0100     		.2byte	0x1
 3164 004d 51       		.byte	0x51
 3165 004e 19000000 		.4byte	.LVL53-1
 3166 0052 68000000 		.4byte	.LFE298
 3167 0056 0100     		.2byte	0x1
 3168 0058 59       		.byte	0x59
 3169 0059 00000000 		.4byte	0
 3170 005d 00000000 		.4byte	0
 3171              	.LLST20:
 3172 0061 00000000 		.4byte	.LVL51
 3173 0065 19000000 		.4byte	.LVL53-1
 3174 0069 0100     		.2byte	0x1
 3175 006b 52       		.byte	0x52
 3176 006c 19000000 		.4byte	.LVL53-1
 3177 0070 68000000 		.4byte	.LFE298
 3178 0074 0100     		.2byte	0x1
 3179 0076 58       		.byte	0x58
 3180 0077 00000000 		.4byte	0
 3181 007b 00000000 		.4byte	0
 3182              	.LLST21:
 3183 007f 1A000000 		.4byte	.LVL53
 3184 0083 20000000 		.4byte	.LVL54
 3185 0087 0300     		.2byte	0x3
 3186 0089 74       		.byte	0x74
 3187 008a 04       		.sleb128 4
 3188 008b 9F       		.byte	0x9f
ARM GAS  /tmp/ccfkNEyW.s 			page 57


 3189 008c 20000000 		.4byte	.LVL54
 3190 0090 34000000 		.4byte	.LVL58
 3191 0094 0300     		.2byte	0x3
 3192 0096 77       		.byte	0x77
 3193 0097 78       		.sleb128 -8
 3194 0098 9F       		.byte	0x9f
 3195 0099 5C000000 		.4byte	.LVL61
 3196 009d 5E000000 		.4byte	.LVL62
 3197 00a1 0300     		.2byte	0x3
 3198 00a3 74       		.byte	0x74
 3199 00a4 04       		.sleb128 4
 3200 00a5 9F       		.byte	0x9f
 3201 00a6 5E000000 		.4byte	.LVL62
 3202 00aa 68000000 		.4byte	.LFE298
 3203 00ae 0300     		.2byte	0x3
 3204 00b0 77       		.byte	0x77
 3205 00b1 78       		.sleb128 -8
 3206 00b2 9F       		.byte	0x9f
 3207 00b3 00000000 		.4byte	0
 3208 00b7 00000000 		.4byte	0
 3209              	.LLST22:
 3210 00bb 1A000000 		.4byte	.LVL53
 3211 00bf 24000000 		.4byte	.LVL55
 3212 00c3 0200     		.2byte	0x2
 3213 00c5 30       		.byte	0x30
 3214 00c6 9F       		.byte	0x9f
 3215 00c7 24000000 		.4byte	.LVL55
 3216 00cb 38000000 		.4byte	.LVL59
 3217 00cf 0100     		.2byte	0x1
 3218 00d1 56       		.byte	0x56
 3219 00d2 5C000000 		.4byte	.LVL61
 3220 00d6 68000000 		.4byte	.LFE298
 3221 00da 0200     		.2byte	0x2
 3222 00dc 30       		.byte	0x30
 3223 00dd 9F       		.byte	0x9f
 3224 00de 00000000 		.4byte	0
 3225 00e2 00000000 		.4byte	0
 3226              	.LLST23:
 3227 00e6 1A000000 		.4byte	.LVL53
 3228 00ea 24000000 		.4byte	.LVL55
 3229 00ee 0200     		.2byte	0x2
 3230 00f0 30       		.byte	0x30
 3231 00f1 9F       		.byte	0x9f
 3232 00f2 24000000 		.4byte	.LVL55
 3233 00f6 38000000 		.4byte	.LVL59
 3234 00fa 0100     		.2byte	0x1
 3235 00fc 55       		.byte	0x55
 3236 00fd 5C000000 		.4byte	.LVL61
 3237 0101 68000000 		.4byte	.LFE298
 3238 0105 0200     		.2byte	0x2
 3239 0107 30       		.byte	0x30
 3240 0108 9F       		.byte	0x9f
 3241 0109 00000000 		.4byte	0
 3242 010d 00000000 		.4byte	0
 3243              	.LLST24:
 3244 0111 1A000000 		.4byte	.LVL53
 3245 0115 24000000 		.4byte	.LVL55
ARM GAS  /tmp/ccfkNEyW.s 			page 58


 3246 0119 0200     		.2byte	0x2
 3247 011b 30       		.byte	0x30
 3248 011c 9F       		.byte	0x9f
 3249 011d 24000000 		.4byte	.LVL55
 3250 0121 38000000 		.4byte	.LVL59
 3251 0125 0100     		.2byte	0x1
 3252 0127 54       		.byte	0x54
 3253 0128 5C000000 		.4byte	.LVL61
 3254 012c 68000000 		.4byte	.LFE298
 3255 0130 0200     		.2byte	0x2
 3256 0132 30       		.byte	0x30
 3257 0133 9F       		.byte	0x9f
 3258 0134 00000000 		.4byte	0
 3259 0138 00000000 		.4byte	0
 3260              	.LLST14:
 3261 013c 00000000 		.4byte	.LVL40
 3262 0140 1C000000 		.4byte	.LVL43
 3263 0144 0100     		.2byte	0x1
 3264 0146 50       		.byte	0x50
 3265 0147 1C000000 		.4byte	.LVL43
 3266 014b 66000000 		.4byte	.LVL49
 3267 014f 0100     		.2byte	0x1
 3268 0151 56       		.byte	0x56
 3269 0152 66000000 		.4byte	.LVL49
 3270 0156 6A000000 		.4byte	.LVL50
 3271 015a 0400     		.2byte	0x4
 3272 015c F3       		.byte	0xf3
 3273 015d 01       		.uleb128 0x1
 3274 015e 50       		.byte	0x50
 3275 015f 9F       		.byte	0x9f
 3276 0160 6A000000 		.4byte	.LVL50
 3277 0164 7A000000 		.4byte	.LFE297
 3278 0168 0100     		.2byte	0x1
 3279 016a 56       		.byte	0x56
 3280 016b 00000000 		.4byte	0
 3281 016f 00000000 		.4byte	0
 3282              	.LLST15:
 3283 0173 1A000000 		.4byte	.LVL42
 3284 0177 22000000 		.4byte	.LVL45
 3285 017b 0100     		.2byte	0x1
 3286 017d 55       		.byte	0x55
 3287 017e 22000000 		.4byte	.LVL45
 3288 0182 34000000 		.4byte	.LVL46
 3289 0186 0100     		.2byte	0x1
 3290 0188 53       		.byte	0x53
 3291 0189 36000000 		.4byte	.LVL47
 3292 018d 66000000 		.4byte	.LVL49
 3293 0191 0100     		.2byte	0x1
 3294 0193 53       		.byte	0x53
 3295 0194 6A000000 		.4byte	.LVL50
 3296 0198 7A000000 		.4byte	.LFE297
 3297 019c 0100     		.2byte	0x1
 3298 019e 53       		.byte	0x53
 3299 019f 00000000 		.4byte	0
 3300 01a3 00000000 		.4byte	0
 3301              	.LLST16:
 3302 01a7 18000000 		.4byte	.LVL41
ARM GAS  /tmp/ccfkNEyW.s 			page 59


 3303 01ab 66000000 		.4byte	.LVL49
 3304 01af 0100     		.2byte	0x1
 3305 01b1 54       		.byte	0x54
 3306 01b2 66000000 		.4byte	.LVL49
 3307 01b6 6A000000 		.4byte	.LVL50
 3308 01ba 0600     		.2byte	0x6
 3309 01bc F3       		.byte	0xf3
 3310 01bd 01       		.uleb128 0x1
 3311 01be 50       		.byte	0x50
 3312 01bf 38       		.byte	0x38
 3313 01c0 1C       		.byte	0x1c
 3314 01c1 9F       		.byte	0x9f
 3315 01c2 6A000000 		.4byte	.LVL50
 3316 01c6 7A000000 		.4byte	.LFE297
 3317 01ca 0100     		.2byte	0x1
 3318 01cc 54       		.byte	0x54
 3319 01cd 00000000 		.4byte	0
 3320 01d1 00000000 		.4byte	0
 3321              	.LLST17:
 3322 01d5 18000000 		.4byte	.LVL41
 3323 01d9 1A000000 		.4byte	.LVL42
 3324 01dd 0100     		.2byte	0x1
 3325 01df 55       		.byte	0x55
 3326 01e0 1A000000 		.4byte	.LVL42
 3327 01e4 1F000000 		.4byte	.LVL44-1
 3328 01e8 0200     		.2byte	0x2
 3329 01ea 74       		.byte	0x74
 3330 01eb 00       		.sleb128 0
 3331 01ec 1F000000 		.4byte	.LVL44-1
 3332 01f0 42000000 		.4byte	.LVL48
 3333 01f4 0300     		.2byte	0x3
 3334 01f6 75       		.byte	0x75
 3335 01f7 7C       		.sleb128 -4
 3336 01f8 9F       		.byte	0x9f
 3337 01f9 42000000 		.4byte	.LVL48
 3338 01fd 66000000 		.4byte	.LVL49
 3339 0201 0300     		.2byte	0x3
 3340 0203 77       		.byte	0x77
 3341 0204 74       		.sleb128 -12
 3342 0205 9F       		.byte	0x9f
 3343 0206 66000000 		.4byte	.LVL49
 3344 020a 69000000 		.4byte	.LVL50-1
 3345 020e 0300     		.2byte	0x3
 3346 0210 70       		.byte	0x70
 3347 0211 74       		.sleb128 -12
 3348 0212 9F       		.byte	0x9f
 3349 0213 6A000000 		.4byte	.LVL50
 3350 0217 7A000000 		.4byte	.LFE297
 3351 021b 0300     		.2byte	0x3
 3352 021d 77       		.byte	0x77
 3353 021e 74       		.sleb128 -12
 3354 021f 9F       		.byte	0x9f
 3355 0220 00000000 		.4byte	0
 3356 0224 00000000 		.4byte	0
 3357              	.LLST4:
 3358 0228 00000000 		.4byte	.LVL8
 3359 022c 0E000000 		.4byte	.LVL9
ARM GAS  /tmp/ccfkNEyW.s 			page 60


 3360 0230 0100     		.2byte	0x1
 3361 0232 50       		.byte	0x50
 3362 0233 0E000000 		.4byte	.LVL9
 3363 0237 00010000 		.4byte	.LFE296
 3364 023b 0100     		.2byte	0x1
 3365 023d 58       		.byte	0x58
 3366 023e 00000000 		.4byte	0
 3367 0242 00000000 		.4byte	0
 3368              	.LLST5:
 3369 0246 00000000 		.4byte	.LVL8
 3370 024a 2B000000 		.4byte	.LVL13-1
 3371 024e 0100     		.2byte	0x1
 3372 0250 51       		.byte	0x51
 3373 0251 2B000000 		.4byte	.LVL13-1
 3374 0255 00010000 		.4byte	.LFE296
 3375 0259 0200     		.2byte	0x2
 3376 025b 91       		.byte	0x91
 3377 025c 54       		.sleb128 -44
 3378 025d 00000000 		.4byte	0
 3379 0261 00000000 		.4byte	0
 3380              	.LLST6:
 3381 0265 00000000 		.4byte	.LVL8
 3382 0269 16000000 		.4byte	.LVL10
 3383 026d 0100     		.2byte	0x1
 3384 026f 52       		.byte	0x52
 3385 0270 16000000 		.4byte	.LVL10
 3386 0274 1C000000 		.4byte	.LVL11
 3387 0278 0400     		.2byte	0x4
 3388 027a F3       		.byte	0xf3
 3389 027b 01       		.uleb128 0x1
 3390 027c 52       		.byte	0x52
 3391 027d 9F       		.byte	0x9f
 3392 027e 1C000000 		.4byte	.LVL11
 3393 0282 2B000000 		.4byte	.LVL13-1
 3394 0286 0100     		.2byte	0x1
 3395 0288 52       		.byte	0x52
 3396 0289 2B000000 		.4byte	.LVL13-1
 3397 028d 00010000 		.4byte	.LFE296
 3398 0291 0100     		.2byte	0x1
 3399 0293 5B       		.byte	0x5b
 3400 0294 00000000 		.4byte	0
 3401 0298 00000000 		.4byte	0
 3402              	.LLST7:
 3403 029c 30000000 		.4byte	.LVL14
 3404 02a0 64000000 		.4byte	.LVL18
 3405 02a4 0100     		.2byte	0x1
 3406 02a6 5C       		.byte	0x5c
 3407 02a7 66000000 		.4byte	.LVL19
 3408 02ab 6B000000 		.4byte	.LVL21-1
 3409 02af 0100     		.2byte	0x1
 3410 02b1 5C       		.byte	0x5c
 3411 02b2 92000000 		.4byte	.LVL26
 3412 02b6 C5000000 		.4byte	.LVL33-1
 3413 02ba 0100     		.2byte	0x1
 3414 02bc 5C       		.byte	0x5c
 3415 02bd CE000000 		.4byte	.LVL34
 3416 02c1 00010000 		.4byte	.LFE296
ARM GAS  /tmp/ccfkNEyW.s 			page 61


 3417 02c5 0100     		.2byte	0x1
 3418 02c7 5C       		.byte	0x5c
 3419 02c8 00000000 		.4byte	0
 3420 02cc 00000000 		.4byte	0
 3421              	.LLST8:
 3422 02d0 3C000000 		.4byte	.LVL16
 3423 02d4 68000000 		.4byte	.LVL20
 3424 02d8 0100     		.2byte	0x1
 3425 02da 50       		.byte	0x50
 3426 02db 68000000 		.4byte	.LVL20
 3427 02df 6B000000 		.4byte	.LVL21-1
 3428 02e3 0200     		.2byte	0x2
 3429 02e5 7C       		.byte	0x7c
 3430 02e6 00       		.sleb128 0
 3431 02e7 6B000000 		.4byte	.LVL21-1
 3432 02eb 80000000 		.4byte	.LVL24
 3433 02ef 0300     		.2byte	0x3
 3434 02f1 77       		.byte	0x77
 3435 02f2 78       		.sleb128 -8
 3436 02f3 9F       		.byte	0x9f
 3437 02f4 80000000 		.4byte	.LVL24
 3438 02f8 8A000000 		.4byte	.LVL25
 3439 02fc 0300     		.2byte	0x3
 3440 02fe 70       		.byte	0x70
 3441 02ff 78       		.sleb128 -8
 3442 0300 9F       		.byte	0x9f
 3443 0301 92000000 		.4byte	.LVL26
 3444 0305 BA000000 		.4byte	.LVL31
 3445 0309 0100     		.2byte	0x1
 3446 030b 50       		.byte	0x50
 3447 030c BA000000 		.4byte	.LVL31
 3448 0310 C5000000 		.4byte	.LVL33-1
 3449 0314 0100     		.2byte	0x1
 3450 0316 53       		.byte	0x53
 3451 0317 CE000000 		.4byte	.LVL34
 3452 031b 00010000 		.4byte	.LFE296
 3453 031f 0100     		.2byte	0x1
 3454 0321 50       		.byte	0x50
 3455 0322 00000000 		.4byte	0
 3456 0326 00000000 		.4byte	0
 3457              	.LLST9:
 3458 032a 4A000000 		.4byte	.LVL17
 3459 032e 6B000000 		.4byte	.LVL21-1
 3460 0332 0100     		.2byte	0x1
 3461 0334 53       		.byte	0x53
 3462 0335 6B000000 		.4byte	.LVL21-1
 3463 0339 70000000 		.4byte	.LVL22
 3464 033d 0300     		.2byte	0x3
 3465 033f 76       		.byte	0x76
 3466 0340 78       		.sleb128 -8
 3467 0341 9F       		.byte	0x9f
 3468 0342 70000000 		.4byte	.LVL22
 3469 0346 7C000000 		.4byte	.LVL23
 3470 034a 0E00     		.2byte	0xe
 3471 034c 77       		.byte	0x77
 3472 034d 00       		.sleb128 0
 3473 034e 7B       		.byte	0x7b
ARM GAS  /tmp/ccfkNEyW.s 			page 62


 3474 034f 00       		.sleb128 0
 3475 0350 22       		.byte	0x22
 3476 0351 31       		.byte	0x31
 3477 0352 1C       		.byte	0x1c
 3478 0353 7B       		.byte	0x7b
 3479 0354 00       		.sleb128 0
 3480 0355 1F       		.byte	0x1f
 3481 0356 1A       		.byte	0x1a
 3482 0357 38       		.byte	0x38
 3483 0358 1C       		.byte	0x1c
 3484 0359 9F       		.byte	0x9f
 3485 035a 7C000000 		.4byte	.LVL23
 3486 035e 8A000000 		.4byte	.LVL25
 3487 0362 0100     		.2byte	0x1
 3488 0364 50       		.byte	0x50
 3489 0365 92000000 		.4byte	.LVL26
 3490 0369 9A000000 		.4byte	.LVL27
 3491 036d 0100     		.2byte	0x1
 3492 036f 53       		.byte	0x53
 3493 0370 9A000000 		.4byte	.LVL27
 3494 0374 B2000000 		.4byte	.LVL30
 3495 0378 0300     		.2byte	0x3
 3496 037a 76       		.byte	0x76
 3497 037b 78       		.sleb128 -8
 3498 037c 9F       		.byte	0x9f
 3499 037d B2000000 		.4byte	.LVL30
 3500 0381 BA000000 		.4byte	.LVL31
 3501 0385 0C00     		.2byte	0xc
 3502 0387 77       		.byte	0x77
 3503 0388 00       		.sleb128 0
 3504 0389 7E       		.byte	0x7e
 3505 038a 00       		.sleb128 0
 3506 038b 22       		.byte	0x22
 3507 038c 7B       		.byte	0x7b
 3508 038d 00       		.sleb128 0
 3509 038e 1F       		.byte	0x1f
 3510 038f 1A       		.byte	0x1a
 3511 0390 38       		.byte	0x38
 3512 0391 1C       		.byte	0x1c
 3513 0392 9F       		.byte	0x9f
 3514 0393 BA000000 		.4byte	.LVL31
 3515 0397 BE000000 		.4byte	.LVL32
 3516 039b 0E00     		.2byte	0xe
 3517 039d 70       		.byte	0x70
 3518 039e 00       		.sleb128 0
 3519 039f 7E       		.byte	0x7e
 3520 03a0 00       		.sleb128 0
 3521 03a1 22       		.byte	0x22
 3522 03a2 23       		.byte	0x23
 3523 03a3 08       		.uleb128 0x8
 3524 03a4 7B       		.byte	0x7b
 3525 03a5 00       		.sleb128 0
 3526 03a6 1F       		.byte	0x1f
 3527 03a7 1A       		.byte	0x1a
 3528 03a8 38       		.byte	0x38
 3529 03a9 1C       		.byte	0x1c
 3530 03aa 9F       		.byte	0x9f
ARM GAS  /tmp/ccfkNEyW.s 			page 63


 3531 03ab CE000000 		.4byte	.LVL34
 3532 03af F2000000 		.4byte	.LVL38
 3533 03b3 0100     		.2byte	0x1
 3534 03b5 53       		.byte	0x53
 3535 03b6 F2000000 		.4byte	.LVL38
 3536 03ba F8000000 		.4byte	.LVL39
 3537 03be 0300     		.2byte	0x3
 3538 03c0 76       		.byte	0x76
 3539 03c1 78       		.sleb128 -8
 3540 03c2 9F       		.byte	0x9f
 3541 03c3 F8000000 		.4byte	.LVL39
 3542 03c7 00010000 		.4byte	.LFE296
 3543 03cb 0B00     		.2byte	0xb
 3544 03cd 77       		.byte	0x77
 3545 03ce 00       		.sleb128 0
 3546 03cf 7E       		.byte	0x7e
 3547 03d0 00       		.sleb128 0
 3548 03d1 22       		.byte	0x22
 3549 03d2 71       		.byte	0x71
 3550 03d3 00       		.sleb128 0
 3551 03d4 1A       		.byte	0x1a
 3552 03d5 38       		.byte	0x38
 3553 03d6 1C       		.byte	0x1c
 3554 03d7 9F       		.byte	0x9f
 3555 03d8 00000000 		.4byte	0
 3556 03dc 00000000 		.4byte	0
 3557              	.LLST10:
 3558 03e0 28000000 		.4byte	.LVL12
 3559 03e4 A0000000 		.4byte	.LVL28
 3560 03e8 0100     		.2byte	0x1
 3561 03ea 59       		.byte	0x59
 3562 03eb A0000000 		.4byte	.LVL28
 3563 03ef BA000000 		.4byte	.LVL31
 3564 03f3 0300     		.2byte	0x3
 3565 03f5 79       		.byte	0x79
 3566 03f6 7F       		.sleb128 -1
 3567 03f7 9F       		.byte	0x9f
 3568 03f8 BA000000 		.4byte	.LVL31
 3569 03fc CE000000 		.4byte	.LVL34
 3570 0400 0800     		.2byte	0x8
 3571 0402 91       		.byte	0x91
 3572 0403 54       		.sleb128 -44
 3573 0404 06       		.byte	0x6
 3574 0405 23       		.byte	0x23
 3575 0406 07       		.uleb128 0x7
 3576 0407 33       		.byte	0x33
 3577 0408 25       		.byte	0x25
 3578 0409 9F       		.byte	0x9f
 3579 040a CE000000 		.4byte	.LVL34
 3580 040e E4000000 		.4byte	.LVL36
 3581 0412 0100     		.2byte	0x1
 3582 0414 59       		.byte	0x59
 3583 0415 E4000000 		.4byte	.LVL36
 3584 0419 F2000000 		.4byte	.LVL38
 3585 041d 0400     		.2byte	0x4
 3586 041f 79       		.byte	0x79
 3587 0420 00       		.sleb128 0
ARM GAS  /tmp/ccfkNEyW.s 			page 64


 3588 0421 20       		.byte	0x20
 3589 0422 9F       		.byte	0x9f
 3590 0423 F2000000 		.4byte	.LVL38
 3591 0427 00010000 		.4byte	.LFE296
 3592 042b 0100     		.2byte	0x1
 3593 042d 59       		.byte	0x59
 3594 042e 00000000 		.4byte	0
 3595 0432 00000000 		.4byte	0
 3596              	.LLST12:
 3597 0436 CE000000 		.4byte	.LVL34
 3598 043a E8000000 		.4byte	.LVL37
 3599 043e 0100     		.2byte	0x1
 3600 0440 55       		.byte	0x55
 3601 0441 00000000 		.4byte	0
 3602 0445 00000000 		.4byte	0
 3603              	.LLST13:
 3604 0449 E0000000 		.4byte	.LVL35
 3605 044d F2000000 		.4byte	.LVL38
 3606 0451 0100     		.2byte	0x1
 3607 0453 52       		.byte	0x52
 3608 0454 00000000 		.4byte	0
 3609 0458 00000000 		.4byte	0
 3610              	.LLST11:
 3611 045c A4000000 		.4byte	.LVL29
 3612 0460 BA000000 		.4byte	.LVL31
 3613 0464 0100     		.2byte	0x1
 3614 0466 51       		.byte	0x51
 3615 0467 00000000 		.4byte	0
 3616 046b 00000000 		.4byte	0
 3617              	.LLST0:
 3618 046f 00000000 		.4byte	.LVL1
 3619 0473 18000000 		.4byte	.LVL6
 3620 0477 0100     		.2byte	0x1
 3621 0479 50       		.byte	0x50
 3622 047a 18000000 		.4byte	.LVL6
 3623 047e 1F000000 		.4byte	.LVL7-1
 3624 0482 0300     		.2byte	0x3
 3625 0484 70       		.byte	0x70
 3626 0485 74       		.sleb128 -12
 3627 0486 9F       		.byte	0x9f
 3628 0487 1F000000 		.4byte	.LVL7-1
 3629 048b 20000000 		.4byte	.LFE295
 3630 048f 0400     		.2byte	0x4
 3631 0491 F3       		.byte	0xf3
 3632 0492 01       		.uleb128 0x1
 3633 0493 50       		.byte	0x50
 3634 0494 9F       		.byte	0x9f
 3635 0495 00000000 		.4byte	0
 3636 0499 00000000 		.4byte	0
 3637              	.LLST1:
 3638 049d 00000000 		.4byte	.LVL1
 3639 04a1 08000000 		.4byte	.LVL3
 3640 04a5 0100     		.2byte	0x1
 3641 04a7 51       		.byte	0x51
 3642 04a8 08000000 		.4byte	.LVL3
 3643 04ac 20000000 		.4byte	.LFE295
 3644 04b0 0400     		.2byte	0x4
ARM GAS  /tmp/ccfkNEyW.s 			page 65


 3645 04b2 F3       		.byte	0xf3
 3646 04b3 01       		.uleb128 0x1
 3647 04b4 51       		.byte	0x51
 3648 04b5 9F       		.byte	0x9f
 3649 04b6 00000000 		.4byte	0
 3650 04ba 00000000 		.4byte	0
 3651              	.LLST2:
 3652 04be 00000000 		.4byte	.LVL1
 3653 04c2 06000000 		.4byte	.LVL2
 3654 04c6 0100     		.2byte	0x1
 3655 04c8 52       		.byte	0x52
 3656 04c9 06000000 		.4byte	.LVL2
 3657 04cd 08000000 		.4byte	.LVL3
 3658 04d1 0900     		.2byte	0x9
 3659 04d3 71       		.byte	0x71
 3660 04d4 00       		.sleb128 0
 3661 04d5 73       		.byte	0x73
 3662 04d6 00       		.sleb128 0
 3663 04d7 1C       		.byte	0x1c
 3664 04d8 72       		.byte	0x72
 3665 04d9 00       		.sleb128 0
 3666 04da 22       		.byte	0x22
 3667 04db 9F       		.byte	0x9f
 3668 04dc 08000000 		.4byte	.LVL3
 3669 04e0 0A000000 		.4byte	.LVL4
 3670 04e4 0A00     		.2byte	0xa
 3671 04e6 F3       		.byte	0xf3
 3672 04e7 01       		.uleb128 0x1
 3673 04e8 51       		.byte	0x51
 3674 04e9 72       		.byte	0x72
 3675 04ea 00       		.sleb128 0
 3676 04eb 22       		.byte	0x22
 3677 04ec 73       		.byte	0x73
 3678 04ed 00       		.sleb128 0
 3679 04ee 1C       		.byte	0x1c
 3680 04ef 9F       		.byte	0x9f
 3681 04f0 0A000000 		.4byte	.LVL4
 3682 04f4 0C000000 		.4byte	.LVL5
 3683 04f8 0C00     		.2byte	0xc
 3684 04fa 72       		.byte	0x72
 3685 04fb 00       		.sleb128 0
 3686 04fc F3       		.byte	0xf3
 3687 04fd 01       		.uleb128 0x1
 3688 04fe 51       		.byte	0x51
 3689 04ff 22       		.byte	0x22
 3690 0500 73       		.byte	0x73
 3691 0501 00       		.sleb128 0
 3692 0502 1C       		.byte	0x1c
 3693 0503 23       		.byte	0x23
 3694 0504 08       		.uleb128 0x8
 3695 0505 9F       		.byte	0x9f
 3696 0506 0C000000 		.4byte	.LVL5
 3697 050a 1F000000 		.4byte	.LVL7-1
 3698 050e 0B00     		.2byte	0xb
 3699 0510 F3       		.byte	0xf3
 3700 0511 01       		.uleb128 0x1
 3701 0512 51       		.byte	0x51
ARM GAS  /tmp/ccfkNEyW.s 			page 66


 3702 0513 F3       		.byte	0xf3
 3703 0514 01       		.uleb128 0x1
 3704 0515 52       		.byte	0x52
 3705 0516 22       		.byte	0x22
 3706 0517 73       		.byte	0x73
 3707 0518 00       		.sleb128 0
 3708 0519 1C       		.byte	0x1c
 3709 051a 9F       		.byte	0x9f
 3710 051b 1F000000 		.4byte	.LVL7-1
 3711 051f 20000000 		.4byte	.LFE295
 3712 0523 1100     		.2byte	0x11
 3713 0525 F3       		.byte	0xf3
 3714 0526 01       		.uleb128 0x1
 3715 0527 51       		.byte	0x51
 3716 0528 F3       		.byte	0xf3
 3717 0529 01       		.uleb128 0x1
 3718 052a 51       		.byte	0x51
 3719 052b 23       		.byte	0x23
 3720 052c 07       		.uleb128 0x7
 3721 052d 09       		.byte	0x9
 3722 052e F8       		.byte	0xf8
 3723 052f 1A       		.byte	0x1a
 3724 0530 1C       		.byte	0x1c
 3725 0531 F3       		.byte	0xf3
 3726 0532 01       		.uleb128 0x1
 3727 0533 52       		.byte	0x52
 3728 0534 22       		.byte	0x22
 3729 0535 9F       		.byte	0x9f
 3730 0536 00000000 		.4byte	0
 3731 053a 00000000 		.4byte	0
 3732              	.LLST3:
 3733 053e 06000000 		.4byte	.LVL2
 3734 0542 1F000000 		.4byte	.LVL7-1
 3735 0546 0100     		.2byte	0x1
 3736 0548 53       		.byte	0x53
 3737 0549 1F000000 		.4byte	.LVL7-1
 3738 054d 20000000 		.4byte	.LFE295
 3739 0551 0900     		.2byte	0x9
 3740 0553 F3       		.byte	0xf3
 3741 0554 01       		.uleb128 0x1
 3742 0555 51       		.byte	0x51
 3743 0556 23       		.byte	0x23
 3744 0557 07       		.uleb128 0x7
 3745 0558 09       		.byte	0x9
 3746 0559 F8       		.byte	0xf8
 3747 055a 1A       		.byte	0x1a
 3748 055b 9F       		.byte	0x9f
 3749 055c 00000000 		.4byte	0
 3750 0560 00000000 		.4byte	0
 3751              		.section	.debug_aranges,"",%progbits
 3752 0000 3C000000 		.4byte	0x3c
 3753 0004 0200     		.2byte	0x2
 3754 0006 00000000 		.4byte	.Ldebug_info0
 3755 000a 04       		.byte	0x4
 3756 000b 00       		.byte	0
 3757 000c 0000     		.2byte	0
 3758 000e 0000     		.2byte	0
ARM GAS  /tmp/ccfkNEyW.s 			page 67


 3759 0010 00000000 		.4byte	.LFB294
 3760 0014 1C000000 		.4byte	.LFE294-.LFB294
 3761 0018 00000000 		.4byte	.LFB295
 3762 001c 20000000 		.4byte	.LFE295-.LFB295
 3763 0020 00000000 		.4byte	.LFB296
 3764 0024 00010000 		.4byte	.LFE296-.LFB296
 3765 0028 00000000 		.4byte	.LFB297
 3766 002c 7A000000 		.4byte	.LFE297-.LFB297
 3767 0030 00000000 		.4byte	.LFB298
 3768 0034 68000000 		.4byte	.LFE298-.LFB298
 3769 0038 00000000 		.4byte	0
 3770 003c 00000000 		.4byte	0
 3771              		.section	.debug_ranges,"",%progbits
 3772              	.Ldebug_ranges0:
 3773 0000 62000000 		.4byte	.LBB2
 3774 0004 66000000 		.4byte	.LBE2
 3775 0008 9C000000 		.4byte	.LBB3
 3776 000c B0000000 		.4byte	.LBE3
 3777 0010 B2000000 		.4byte	.LBB4
 3778 0014 BA000000 		.4byte	.LBE4
 3779 0018 00000000 		.4byte	0
 3780 001c 00000000 		.4byte	0
 3781 0020 00000000 		.4byte	.LFB294
 3782 0024 1C000000 		.4byte	.LFE294
 3783 0028 00000000 		.4byte	.LFB295
 3784 002c 20000000 		.4byte	.LFE295
 3785 0030 00000000 		.4byte	.LFB296
 3786 0034 00010000 		.4byte	.LFE296
 3787 0038 00000000 		.4byte	.LFB297
 3788 003c 7A000000 		.4byte	.LFE297
 3789 0040 00000000 		.4byte	.LFB298
 3790 0044 68000000 		.4byte	.LFE298
 3791 0048 00000000 		.4byte	0
 3792 004c 00000000 		.4byte	0
 3793              		.section	.debug_line,"",%progbits
 3794              	.Ldebug_line0:
 3795 0000 3A040000 		.section	.debug_str,"MS",%progbits,1
 3795      02002A03 
 3795      00000201 
 3795      FB0E0D00 
 3795      01010101 
 3796              	.LASF155:
 3797 0000 746F7461 		.ascii	"totalp\000"
 3797      6C7000
 3798              	.LASF54:
 3799 0007 72656164 		.ascii	"ready_list_t\000"
 3799      795F6C69 
 3799      73745F74 
 3799      00
 3800              	.LASF4:
 3801 0014 73697A65 		.ascii	"size_t\000"
 3801      5F7400
 3802              	.LASF50:
 3803 001b 6E657874 		.ascii	"next\000"
 3803      00
 3804              	.LASF60:
 3805 0020 64656C74 		.ascii	"delta\000"
ARM GAS  /tmp/ccfkNEyW.s 			page 68


 3805      6100
 3806              	.LASF85:
 3807 0026 7264796D 		.ascii	"rdymsg\000"
 3807      736700
 3808              	.LASF20:
 3809 002d 75696E74 		.ascii	"uint64_t\000"
 3809      36345F74 
 3809      00
 3810              	.LASF5:
 3811 0036 5F5F7569 		.ascii	"__uint8_t\000"
 3811      6E74385F 
 3811      7400
 3812              	.LASF53:
 3813 0040 70726576 		.ascii	"prev\000"
 3813      00
 3814              	.LASF82:
 3815 0045 706F7274 		.ascii	"port_intctx\000"
 3815      5F696E74 
 3815      63747800 
 3816              	.LASF133:
 3817 0051 70616765 		.ascii	"pages\000"
 3817      7300
 3818              	.LASF65:
 3819 0057 73797374 		.ascii	"system_debug_t\000"
 3819      656D5F64 
 3819      65627567 
 3819      5F7400
 3820              	.LASF156:
 3821 0066 6C617267 		.ascii	"largestp\000"
 3821      65737470 
 3821      00
 3822              	.LASF128:
 3823 006f 70726F76 		.ascii	"provider\000"
 3823      69646572 
 3823      00
 3824              	.LASF147:
 3825 0078 73656D5F 		.ascii	"sem_list\000"
 3825      6C697374 
 3825      00
 3826              	.LASF120:
 3827 0081 6D656D67 		.ascii	"memgetfunc_t\000"
 3827      65746675 
 3827      6E635F74 
 3827      00
 3828              	.LASF15:
 3829 008e 6C6F6E67 		.ascii	"long long unsigned int\000"
 3829      206C6F6E 
 3829      6720756E 
 3829      7369676E 
 3829      65642069 
 3830              	.LASF86:
 3831 00a5 65786974 		.ascii	"exitcode\000"
 3831      636F6465 
 3831      00
 3832              	.LASF72:
 3833 00ae 6D61696E 		.ascii	"mainthread\000"
 3833      74687265 
ARM GAS  /tmp/ccfkNEyW.s 			page 69


 3833      616400
 3834              	.LASF89:
 3835 00b9 73656E74 		.ascii	"sentmsg\000"
 3835      6D736700 
 3836              	.LASF62:
 3837 00c1 76697274 		.ascii	"virtual_timers_list_t\000"
 3837      75616C5F 
 3837      74696D65 
 3837      72735F6C 
 3837      6973745F 
 3838              	.LASF75:
 3839 00d7 49544D5F 		.ascii	"ITM_RxBuffer\000"
 3839      52784275 
 3839      66666572 
 3839      00
 3840              	.LASF109:
 3841 00e4 6F66665F 		.ascii	"off_name\000"
 3841      6E616D65 
 3841      00
 3842              	.LASF140:
 3843 00ed 64796E5F 		.ascii	"dyn_element_t\000"
 3843      656C656D 
 3843      656E745F 
 3843      7400
 3844              	.LASF137:
 3845 00fb 616C6967 		.ascii	"align\000"
 3845      6E00
 3846              	.LASF52:
 3847 0101 63685F74 		.ascii	"ch_threads_queue\000"
 3847      68726561 
 3847      64735F71 
 3847      75657565 
 3847      00
 3848              	.LASF118:
 3849 0112 6D757465 		.ascii	"mutex_t\000"
 3849      785F7400 
 3850              	.LASF168:
 3851 011a 63684D74 		.ascii	"chMtxUnlock\000"
 3851      78556E6C 
 3851      6F636B00 
 3852              	.LASF3:
 3853 0126 7369676E 		.ascii	"signed char\000"
 3853      65642063 
 3853      68617200 
 3854              	.LASF159:
 3855 0132 6C706167 		.ascii	"lpages\000"
 3855      657300
 3856              	.LASF100:
 3857 0139 73697A65 		.ascii	"size\000"
 3857      00
 3858              	.LASF70:
 3859 013e 726C6973 		.ascii	"rlist\000"
 3859      7400
 3860              	.LASF164:
 3861 0144 63684865 		.ascii	"chHeapFree\000"
 3861      61704672 
 3861      656500
ARM GAS  /tmp/ccfkNEyW.s 			page 70


 3862              	.LASF71:
 3863 014f 76746C69 		.ascii	"vtlist\000"
 3863      737400
 3864              	.LASF41:
 3865 0156 6D736771 		.ascii	"msgqueue\000"
 3865      75657565 
 3865      00
 3866              	.LASF37:
 3867 015f 73746174 		.ascii	"state\000"
 3867      6500
 3868              	.LASF11:
 3869 0165 6C6F6E67 		.ascii	"long int\000"
 3869      20696E74 
 3869      00
 3870              	.LASF23:
 3871 016e 74737461 		.ascii	"tstate_t\000"
 3871      74655F74 
 3871      00
 3872              	.LASF61:
 3873 0177 66756E63 		.ascii	"func\000"
 3873      00
 3874              	.LASF126:
 3875 017c 6D656D6F 		.ascii	"memory_heap_t\000"
 3875      72795F68 
 3875      6561705F 
 3875      7400
 3876              	.LASF116:
 3877 018a 63686465 		.ascii	"chdebug_t\000"
 3877      6275675F 
 3877      7400
 3878              	.LASF114:
 3879 0194 6F66665F 		.ascii	"off_preempt\000"
 3879      70726565 
 3879      6D707400 
 3880              	.LASF130:
 3881 01a0 68656170 		.ascii	"heap_header_t\000"
 3881      5F686561 
 3881      6465725F 
 3881      7400
 3882              	.LASF12:
 3883 01ae 5F5F7569 		.ascii	"__uint32_t\000"
 3883      6E743332 
 3883      5F7400
 3884              	.LASF79:
 3885 01b9 72656761 		.ascii	"regarm_t\000"
 3885      726D5F74 
 3885      00
 3886              	.LASF149:
 3887 01c2 6D62785F 		.ascii	"mbx_list\000"
 3887      6C697374 
 3887      00
 3888              	.LASF66:
 3889 01cb 63685F73 		.ascii	"ch_system_debug\000"
 3889      79737465 
 3889      6D5F6465 
 3889      62756700 
 3890              	.LASF40:
ARM GAS  /tmp/ccfkNEyW.s 			page 71


 3891 01db 77616974 		.ascii	"waiting\000"
 3891      696E6700 
 3892              	.LASF78:
 3893 01e3 41504250 		.ascii	"APBPrescTable\000"
 3893      72657363 
 3893      5461626C 
 3893      6500
 3894              	.LASF99:
 3895 01f1 7A65726F 		.ascii	"zero\000"
 3895      00
 3896              	.LASF1:
 3897 01f6 6C6F6E67 		.ascii	"long long int\000"
 3897      206C6F6E 
 3897      6720696E 
 3897      7400
 3898              	.LASF166:
 3899 0204 5F686561 		.ascii	"_heap_init\000"
 3899      705F696E 
 3899      697400
 3900              	.LASF74:
 3901 020f 73797369 		.ascii	"sysinterval_t\000"
 3901      6E746572 
 3901      76616C5F 
 3901      7400
 3902              	.LASF28:
 3903 021d 636E745F 		.ascii	"cnt_t\000"
 3903      7400
 3904              	.LASF0:
 3905 0223 756E7369 		.ascii	"unsigned int\000"
 3905      676E6564 
 3905      20696E74 
 3905      00
 3906              	.LASF17:
 3907 0230 75696E74 		.ascii	"uint16_t\000"
 3907      31365F74 
 3907      00
 3908              	.LASF76:
 3909 0239 53797374 		.ascii	"SystemCoreClock\000"
 3909      656D436F 
 3909      7265436C 
 3909      6F636B00 
 3910              	.LASF90:
 3911 0249 77747365 		.ascii	"wtsemp\000"
 3911      6D7000
 3912              	.LASF88:
 3913 0250 77747472 		.ascii	"wttrp\000"
 3913      7000
 3914              	.LASF117:
 3915 0256 63685F64 		.ascii	"ch_debug\000"
 3915      65627567 
 3915      00
 3916              	.LASF153:
 3917 025f 63685F66 		.ascii	"ch_factory\000"
 3917      6163746F 
 3917      727900
 3918              	.LASF138:
 3919 026a 6D656D6F 		.ascii	"memory_pool_t\000"
ARM GAS  /tmp/ccfkNEyW.s 			page 72


 3919      72795F70 
 3919      6F6F6C5F 
 3919      7400
 3920              	.LASF35:
 3921 0278 6E616D65 		.ascii	"name\000"
 3921      00
 3922              	.LASF31:
 3923 027d 71756575 		.ascii	"queue\000"
 3923      6500
 3924              	.LASF45:
 3925 0283 6D706F6F 		.ascii	"mpool\000"
 3925      6C00
 3926              	.LASF113:
 3927 0289 6F66665F 		.ascii	"off_refs\000"
 3927      72656673 
 3927      00
 3928              	.LASF146:
 3929 0292 6275665F 		.ascii	"buf_list\000"
 3929      6C697374 
 3929      00
 3930              	.LASF48:
 3931 029b 63685F74 		.ascii	"ch_thread\000"
 3931      68726561 
 3931      6400
 3932              	.LASF26:
 3933 02a5 6D73675F 		.ascii	"msg_t\000"
 3933      7400
 3934              	.LASF29:
 3935 02ab 75636E74 		.ascii	"ucnt_t\000"
 3935      5F7400
 3936              	.LASF42:
 3937 02b2 6570656E 		.ascii	"epending\000"
 3937      64696E67 
 3937      00
 3938              	.LASF142:
 3939 02bb 64796E5F 		.ascii	"dyn_list_t\000"
 3939      6C697374 
 3939      5F7400
 3940              	.LASF163:
 3941 02c6 62706167 		.ascii	"bpages\000"
 3941      657300
 3942              	.LASF106:
 3943 02cd 6F66665F 		.ascii	"off_ctx\000"
 3943      63747800 
 3944              	.LASF22:
 3945 02d5 746D6F64 		.ascii	"tmode_t\000"
 3945      655F7400 
 3946              	.LASF55:
 3947 02dd 63685F72 		.ascii	"ch_ready_list\000"
 3947      65616479 
 3947      5F6C6973 
 3947      7400
 3948              	.LASF27:
 3949 02eb 6576656E 		.ascii	"eventmask_t\000"
 3949      746D6173 
 3949      6B5F7400 
 3950              	.LASF77:
ARM GAS  /tmp/ccfkNEyW.s 			page 73


 3951 02f7 41484250 		.ascii	"AHBPrescTable\000"
 3951      72657363 
 3951      5461626C 
 3951      6500
 3952              	.LASF123:
 3953 0305 656E646D 		.ascii	"endmem\000"
 3953      656D00
 3954              	.LASF10:
 3955 030c 5F5F696E 		.ascii	"__int32_t\000"
 3955      7433325F 
 3955      7400
 3956              	.LASF80:
 3957 0316 73746B61 		.ascii	"stkalign_t\000"
 3957      6C69676E 
 3957      5F7400
 3958              	.LASF165:
 3959 0321 63684865 		.ascii	"chHeapObjectInit\000"
 3959      61704F62 
 3959      6A656374 
 3959      496E6974 
 3959      00
 3960              	.LASF44:
 3961 0332 7265616C 		.ascii	"realprio\000"
 3961      7072696F 
 3961      00
 3962              	.LASF101:
 3963 033b 76657273 		.ascii	"version\000"
 3963      696F6E00 
 3964              	.LASF21:
 3965 0343 7274636E 		.ascii	"rtcnt_t\000"
 3965      745F7400 
 3966              	.LASF46:
 3967 034b 74687265 		.ascii	"thread_reference_t\000"
 3967      61645F72 
 3967      65666572 
 3967      656E6365 
 3967      5F7400
 3968              	.LASF63:
 3969 035e 63685F76 		.ascii	"ch_virtual_timers_list\000"
 3969      69727475 
 3969      616C5F74 
 3969      696D6572 
 3969      735F6C69 
 3970              	.LASF2:
 3971 0375 6C6F6E67 		.ascii	"long double\000"
 3971      20646F75 
 3971      626C6500 
 3972              	.LASF141:
 3973 0381 63685F64 		.ascii	"ch_dyn_list\000"
 3973      796E5F6C 
 3973      69737400 
 3974              	.LASF107:
 3975 038d 6F66665F 		.ascii	"off_newer\000"
 3975      6E657765 
 3975      7200
 3976              	.LASF167:
 3977 0397 63684D74 		.ascii	"chMtxLock\000"
ARM GAS  /tmp/ccfkNEyW.s 			page 74


 3977      784C6F63 
 3977      6B00
 3978              	.LASF172:
 3979 03a1 2F686F6D 		.ascii	"/home/tongcheng/Downloads/RM2019_Power_Runes-master"
 3979      652F746F 
 3979      6E676368 
 3979      656E672F 
 3979      446F776E 
 3980 03d4 2F524D32 		.ascii	"/RM2019_Power_Runes\000"
 3980      3031395F 
 3980      506F7765 
 3980      725F5275 
 3980      6E657300 
 3981              	.LASF81:
 3982 03e8 706F7274 		.ascii	"port_context\000"
 3982      5F636F6E 
 3982      74657874 
 3982      00
 3983              	.LASF84:
 3984 03f5 746D5F63 		.ascii	"tm_calibration_t\000"
 3984      616C6962 
 3984      72617469 
 3984      6F6E5F74 
 3984      00
 3985              	.LASF121:
 3986 0406 6D656D67 		.ascii	"memgetfunc2_t\000"
 3986      65746675 
 3986      6E63325F 
 3986      7400
 3987              	.LASF32:
 3988 0414 7072696F 		.ascii	"prio\000"
 3988      00
 3989              	.LASF148:
 3990 0419 73656D5F 		.ascii	"sem_pool\000"
 3990      706F6F6C 
 3990      00
 3991              	.LASF56:
 3992 0422 63757272 		.ascii	"current\000"
 3992      656E7400 
 3993              	.LASF154:
 3994 042a 68656170 		.ascii	"heapp\000"
 3994      7000
 3995              	.LASF14:
 3996 0430 5F5F7569 		.ascii	"__uint64_t\000"
 3996      6E743634 
 3996      5F7400
 3997              	.LASF124:
 3998 043b 6D656D63 		.ascii	"memcore_t\000"
 3998      6F72655F 
 3998      7400
 3999              	.LASF132:
 4000 0445 75736564 		.ascii	"used\000"
 4000      00
 4001              	.LASF24:
 4002 044a 74726566 		.ascii	"trefs_t\000"
 4002      735F7400 
 4003              	.LASF39:
ARM GAS  /tmp/ccfkNEyW.s 			page 75


 4004 0452 72656673 		.ascii	"refs\000"
 4004      00
 4005              	.LASF58:
 4006 0457 76697274 		.ascii	"virtual_timer_t\000"
 4006      75616C5F 
 4006      74696D65 
 4006      725F7400 
 4007              	.LASF139:
 4008 0467 63685F64 		.ascii	"ch_dyn_element\000"
 4008      796E5F65 
 4008      6C656D65 
 4008      6E7400
 4009              	.LASF25:
 4010 0476 74707269 		.ascii	"tprio_t\000"
 4010      6F5F7400 
 4011              	.LASF104:
 4012 047e 74687265 		.ascii	"threadsize\000"
 4012      61647369 
 4012      7A6500
 4013              	.LASF119:
 4014 0489 5F426F6F 		.ascii	"_Bool\000"
 4014      6C00
 4015              	.LASF18:
 4016 048f 696E7433 		.ascii	"int32_t\000"
 4016      325F7400 
 4017              	.LASF6:
 4018 0497 756E7369 		.ascii	"unsigned char\000"
 4018      676E6564 
 4018      20636861 
 4018      7200
 4019              	.LASF105:
 4020 04a5 6F66665F 		.ascii	"off_prio\000"
 4020      7072696F 
 4020      00
 4021              	.LASF110:
 4022 04ae 6F66665F 		.ascii	"off_stklimit\000"
 4022      73746B6C 
 4022      696D6974 
 4022      00
 4023              	.LASF7:
 4024 04bb 73686F72 		.ascii	"short int\000"
 4024      7420696E 
 4024      7400
 4025              	.LASF64:
 4026 04c5 6C617374 		.ascii	"lasttime\000"
 4026      74696D65 
 4026      00
 4027              	.LASF173:
 4028 04ce 68656170 		.ascii	"heap_header\000"
 4028      5F686561 
 4028      64657200 
 4029              	.LASF92:
 4030 04da 65776D61 		.ascii	"ewmask\000"
 4030      736B00
 4031              	.LASF69:
 4032 04e1 63685F73 		.ascii	"ch_system\000"
 4032      79737465 
ARM GAS  /tmp/ccfkNEyW.s 			page 76


 4032      6D00
 4033              	.LASF162:
 4034 04eb 5F5F6675 		.ascii	"__func__\000"
 4034      6E635F5F 
 4034      00
 4035              	.LASF145:
 4036 04f4 6F626A5F 		.ascii	"obj_pool\000"
 4036      706F6F6C 
 4036      00
 4037              	.LASF59:
 4038 04fd 63685F76 		.ascii	"ch_virtual_timer\000"
 4038      69727475 
 4038      616C5F74 
 4038      696D6572 
 4038      00
 4039              	.LASF93:
 4040 050e 63685F73 		.ascii	"ch_semaphore\000"
 4040      656D6170 
 4040      686F7265 
 4040      00
 4041              	.LASF115:
 4042 051b 6F66665F 		.ascii	"off_time\000"
 4042      74696D65 
 4042      00
 4043              	.LASF97:
 4044 0524 63685F69 		.ascii	"ch_idle_thread_wa\000"
 4044      646C655F 
 4044      74687265 
 4044      61645F77 
 4044      6100
 4045              	.LASF103:
 4046 0536 74696D65 		.ascii	"timesize\000"
 4046      73697A65 
 4046      00
 4047              	.LASF158:
 4048 053f 74706167 		.ascii	"tpages\000"
 4048      657300
 4049              	.LASF151:
 4050 0546 70697065 		.ascii	"pipe_list\000"
 4050      5F6C6973 
 4050      7400
 4051              	.LASF19:
 4052 0550 75696E74 		.ascii	"uint32_t\000"
 4052      33325F74 
 4052      00
 4053              	.LASF91:
 4054 0559 77746D74 		.ascii	"wtmtxp\000"
 4054      787000
 4055              	.LASF49:
 4056 0560 63685F74 		.ascii	"ch_threads_list\000"
 4056      68726561 
 4056      64735F6C 
 4056      69737400 
 4057              	.LASF95:
 4058 0570 6F776E65 		.ascii	"owner\000"
 4058      7200
 4059              	.LASF170:
ARM GAS  /tmp/ccfkNEyW.s 			page 77


 4060 0576 474E5520 		.ascii	"GNU C11 7.3.1 20180622 (release) [ARM/embedded-7-br"
 4060      43313120 
 4060      372E332E 
 4060      31203230 
 4060      31383036 
 4061 05a9 616E6368 		.ascii	"anch revision 261907] -mcpu=cortex-m4 -mthumb -mflo"
 4061      20726576 
 4061      6973696F 
 4061      6E203236 
 4061      31393037 
 4062 05dc 61742D61 		.ascii	"at-abi=hard -mfpu=fpv4-sp-d16 -ggdb -O3 -std=c11 -f"
 4062      62693D68 
 4062      61726420 
 4062      2D6D6670 
 4062      753D6670 
 4063 060f 6F6D6974 		.ascii	"omit-frame-pointer -ffunction-sections -fdata-secti"
 4063      2D667261 
 4063      6D652D70 
 4063      6F696E74 
 4063      6572202D 
 4064 0642 6F6E7320 		.ascii	"ons -fno-common\000"
 4064      2D666E6F 
 4064      2D636F6D 
 4064      6D6F6E00 
 4065              	.LASF134:
 4066 0652 68656170 		.ascii	"heap\000"
 4066      00
 4067              	.LASF13:
 4068 0657 6C6F6E67 		.ascii	"long unsigned int\000"
 4068      20756E73 
 4068      69676E65 
 4068      6420696E 
 4068      7400
 4069              	.LASF36:
 4070 0669 77616261 		.ascii	"wabase\000"
 4070      736500
 4071              	.LASF157:
 4072 0670 64656661 		.ascii	"default_heap\000"
 4072      756C745F 
 4072      68656170 
 4072      00
 4073              	.LASF96:
 4074 067d 63686172 		.ascii	"char\000"
 4074      00
 4075              	.LASF34:
 4076 0682 6F6C6465 		.ascii	"older\000"
 4076      7200
 4077              	.LASF144:
 4078 0688 6F626A5F 		.ascii	"obj_list\000"
 4078      6C697374 
 4078      00
 4079              	.LASF8:
 4080 0691 5F5F7569 		.ascii	"__uint16_t\000"
 4080      6E743136 
 4080      5F7400
 4081              	.LASF30:
 4082 069c 74687265 		.ascii	"thread_t\000"
ARM GAS  /tmp/ccfkNEyW.s 			page 78


 4082      61645F74 
 4082      00
 4083              	.LASF160:
 4084 06a5 63684865 		.ascii	"chHeapStatus\000"
 4084      61705374 
 4084      61747573 
 4084      00
 4085              	.LASF125:
 4086 06b2 63685F6D 		.ascii	"ch_memcore\000"
 4086      656D636F 
 4086      726500
 4087              	.LASF73:
 4088 06bd 73797374 		.ascii	"systime_t\000"
 4088      696D655F 
 4088      7400
 4089              	.LASF57:
 4090 06c7 76746675 		.ascii	"vtfunc_t\000"
 4090      6E635F74 
 4090      00
 4091              	.LASF169:
 4092 06d0 63684D74 		.ascii	"chMtxObjectInit\000"
 4092      784F626A 
 4092      65637449 
 4092      6E697400 
 4093              	.LASF67:
 4094 06e0 70616E69 		.ascii	"panic_msg\000"
 4094      635F6D73 
 4094      6700
 4095              	.LASF83:
 4096 06ea 6F666673 		.ascii	"offset\000"
 4096      657400
 4097              	.LASF161:
 4098 06f1 63684865 		.ascii	"chHeapAllocAligned\000"
 4098      6170416C 
 4098      6C6F6341 
 4098      6C69676E 
 4098      656400
 4099              	.LASF94:
 4100 0704 63685F6D 		.ascii	"ch_mutex\000"
 4100      75746578 
 4100      00
 4101              	.LASF108:
 4102 070d 6F66665F 		.ascii	"off_older\000"
 4102      6F6C6465 
 4102      7200
 4103              	.LASF9:
 4104 0717 73686F72 		.ascii	"short unsigned int\000"
 4104      7420756E 
 4104      7369676E 
 4104      65642069 
 4104      6E7400
 4105              	.LASF131:
 4106 072a 66726565 		.ascii	"free\000"
 4106      00
 4107              	.LASF68:
 4108 072f 63685F73 		.ascii	"ch_system_t\000"
 4108      79737465 
ARM GAS  /tmp/ccfkNEyW.s 			page 79


 4108      6D5F7400 
 4109              	.LASF98:
 4110 073b 6964656E 		.ascii	"identifier\000"
 4110      74696669 
 4110      657200
 4111              	.LASF33:
 4112 0746 6E657765 		.ascii	"newer\000"
 4112      7200
 4113              	.LASF136:
 4114 074c 6F626A65 		.ascii	"object_size\000"
 4114      63745F73 
 4114      697A6500 
 4115              	.LASF102:
 4116 0758 70747273 		.ascii	"ptrsize\000"
 4116      697A6500 
 4117              	.LASF143:
 4118 0760 63685F6F 		.ascii	"ch_objects_factory\000"
 4118      626A6563 
 4118      74735F66 
 4118      6163746F 
 4118      727900
 4119              	.LASF51:
 4120 0773 74687265 		.ascii	"threads_queue_t\000"
 4120      6164735F 
 4120      71756575 
 4120      655F7400 
 4121              	.LASF135:
 4122 0783 706F6F6C 		.ascii	"pool_header\000"
 4122      5F686561 
 4122      64657200 
 4123              	.LASF171:
 4124 078f 2E2F524D 		.ascii	"./RM18A-ChibiOS18-Core/chibios/os/oslib/src/chmemhe"
 4124      3138412D 
 4124      43686962 
 4124      694F5331 
 4124      382D436F 
 4125 07c2 6170732E 		.ascii	"aps.c\000"
 4125      6300
 4126              	.LASF16:
 4127 07c8 75696E74 		.ascii	"uint8_t\000"
 4127      385F7400 
 4128              	.LASF38:
 4129 07d0 666C6167 		.ascii	"flags\000"
 4129      7300
 4130              	.LASF150:
 4131 07d6 6669666F 		.ascii	"fifo_list\000"
 4131      5F6C6973 
 4131      7400
 4132              	.LASF87:
 4133 07e0 77746F62 		.ascii	"wtobjp\000"
 4133      6A7000
 4134              	.LASF47:
 4135 07e7 74687265 		.ascii	"threads_list_t\000"
 4135      6164735F 
 4135      6C697374 
 4135      5F7400
 4136              	.LASF111:
ARM GAS  /tmp/ccfkNEyW.s 			page 80


 4137 07f6 6F66665F 		.ascii	"off_state\000"
 4137      73746174 
 4137      6500
 4138              	.LASF152:
 4139 0800 6F626A65 		.ascii	"objects_factory_t\000"
 4139      6374735F 
 4139      66616374 
 4139      6F72795F 
 4139      7400
 4140              	.LASF112:
 4141 0812 6F66665F 		.ascii	"off_flags\000"
 4141      666C6167 
 4141      7300
 4142              	.LASF43:
 4143 081c 6D74786C 		.ascii	"mtxlist\000"
 4143      69737400 
 4144              	.LASF129:
 4145 0824 68656164 		.ascii	"header\000"
 4145      657200
 4146              	.LASF122:
 4147 082b 6E657874 		.ascii	"nextmem\000"
 4147      6D656D00 
 4148              	.LASF127:
 4149 0833 6D656D6F 		.ascii	"memory_heap\000"
 4149      72795F68 
 4149      65617000 
 4150              		.ident	"GCC: (GNU Tools for Arm Embedded Processors 7-2018-q3-update) 7.3.1 20180622 (release) [AR
ARM GAS  /tmp/ccfkNEyW.s 			page 81


DEFINED SYMBOLS
                            *ABS*:0000000000000000 chmemheaps.c
     /tmp/ccfkNEyW.s:18     .text._heap_init:0000000000000000 $t
     /tmp/ccfkNEyW.s:26     .text._heap_init:0000000000000000 _heap_init
     /tmp/ccfkNEyW.s:50     .text._heap_init:0000000000000014 $d
     /tmp/ccfkNEyW.s:56     .text.chHeapObjectInit:0000000000000000 $t
     /tmp/ccfkNEyW.s:64     .text.chHeapObjectInit:0000000000000000 chHeapObjectInit
     /tmp/ccfkNEyW.s:102    .text.chHeapAllocAligned:0000000000000000 $t
     /tmp/ccfkNEyW.s:110    .text.chHeapAllocAligned:0000000000000000 chHeapAllocAligned
     /tmp/ccfkNEyW.s:333    .text.chHeapAllocAligned:00000000000000fc $d
     /tmp/ccfkNEyW.s:338    .text.chHeapFree:0000000000000000 $t
     /tmp/ccfkNEyW.s:346    .text.chHeapFree:0000000000000000 chHeapFree
     /tmp/ccfkNEyW.s:463    .text.chHeapStatus:0000000000000000 $t
     /tmp/ccfkNEyW.s:471    .text.chHeapStatus:0000000000000000 chHeapStatus
     /tmp/ccfkNEyW.s:568    .text.chHeapStatus:0000000000000064 $d
     /tmp/ccfkNEyW.s:573    .bss.default_heap:0000000000000000 $d
     /tmp/ccfkNEyW.s:577    .bss.default_heap:0000000000000000 default_heap

UNDEFINED SYMBOLS
chMtxObjectInit
chCoreAllocAlignedWithOffset
chMtxLock
chMtxUnlock
