ARM GAS  /tmp/cc7ompF3.s 			page 1


   1              		.cpu cortex-m4
   2              		.eabi_attribute 27, 1
   3              		.eabi_attribute 28, 1
   4              		.eabi_attribute 20, 1
   5              		.eabi_attribute 21, 1
   6              		.eabi_attribute 23, 3
   7              		.eabi_attribute 24, 1
   8              		.eabi_attribute 25, 1
   9              		.eabi_attribute 26, 1
  10              		.eabi_attribute 30, 2
  11              		.eabi_attribute 34, 1
  12              		.eabi_attribute 18, 4
  13              		.file	"chmempools.c"
  14              		.text
  15              	.Ltext0:
  16              		.cfi_sections	.debug_frame
  17              		.section	.text.chPoolObjectInitAligned,"ax",%progbits
  18              		.align	1
  19              		.p2align 2,,3
  20              		.global	chPoolObjectInitAligned
  21              		.syntax unified
  22              		.thumb
  23              		.thumb_func
  24              		.fpu fpv4-sp-d16
  25              		.type	chPoolObjectInitAligned, %function
  26              	chPoolObjectInitAligned:
  27              	.LFB294:
  28              		.file 1 "./RM18A-ChibiOS18-Core/chibios/os/oslib/src/chmempools.c"
  29              		.loc 1 78 0
  30              		.cfi_startproc
  31              		@ args = 0, pretend = 0, frame = 0
  32              		@ frame_needed = 0, uses_anonymous_args = 0
  33              		@ link register save eliminated.
  34              	.LVL0:
  35 0000 10B4     		push	{r4}
  36              		.cfi_def_cfa_offset 4
  37              		.cfi_offset 4, -4
  38              		.loc 1 85 0
  39 0002 0024     		movs	r4, #0
  40 0004 0460     		str	r4, [r0]
  41              		.loc 1 87 0
  42 0006 C0E90112 		strd	r1, r2, [r0, #4]
  43              		.loc 1 88 0
  44 000a C360     		str	r3, [r0, #12]
  45              		.loc 1 89 0
  46 000c 5DF8044B 		ldr	r4, [sp], #4
  47              		.cfi_restore 4
  48              		.cfi_def_cfa_offset 0
  49 0010 7047     		bx	lr
  50              		.cfi_endproc
  51              	.LFE294:
  52              		.size	chPoolObjectInitAligned, .-chPoolObjectInitAligned
  53 0012 00BF     		.section	.text.chPoolLoadArray,"ax",%progbits
  54              		.align	1
  55              		.p2align 2,,3
  56              		.global	chPoolLoadArray
  57              		.syntax unified
ARM GAS  /tmp/cc7ompF3.s 			page 2


  58              		.thumb
  59              		.thumb_func
  60              		.fpu fpv4-sp-d16
  61              		.type	chPoolLoadArray, %function
  62              	chPoolLoadArray:
  63              	.LFB295:
  64              		.loc 1 106 0
  65              		.cfi_startproc
  66              		@ args = 0, pretend = 0, frame = 0
  67              		@ frame_needed = 0, uses_anonymous_args = 0
  68              		@ link register save eliminated.
  69              	.LVL1:
  70              		.loc 1 110 0
  71 0000 7AB1     		cbz	r2, .L12
  72              		.loc 1 106 0
  73 0002 30B4     		push	{r4, r5}
  74              		.cfi_def_cfa_offset 8
  75              		.cfi_offset 4, -8
  76              		.cfi_offset 5, -4
  77              	.LBB139:
  78              	.LBB140:
  79              	.LBB141:
  80              	.LBB142:
  81              	.LBB143:
  82              	.LBB144:
  83              		.file 2 "./RM18A-ChibiOS18-Core/chibios/os/common/ext/ARM/CMSIS/Core/Include/cmsis_gcc.h"
  84              		.loc 2 493 0
  85 0004 2025     		movs	r5, #32
  86              	.LBE144:
  87              	.LBE143:
  88              	.LBE142:
  89              	.LBE141:
  90              	.LBB148:
  91              	.LBB149:
  92              	.LBB150:
  93              	.LBB151:
  94              	.LBB152:
  95 0006 0024     		movs	r4, #0
  96              	.LVL2:
  97              	.L6:
  98              	.LBE152:
  99              	.LBE151:
 100              	.LBE150:
 101              	.LBE149:
 102              	.LBE148:
 103              	.LBB157:
 104              	.LBB147:
 105              	.LBB146:
 106              	.LBB145:
 107              		.syntax unified
 108              	@ 493 "./RM18A-ChibiOS18-Core/chibios/os/common/ext/ARM/CMSIS/Core/Include/cmsis_gcc.h" 1
 109 0008 85F31188 		MSR basepri, r5
 110              	@ 0 "" 2
 111              	.LVL3:
 112              		.thumb
 113              		.syntax unified
 114              	.LBE145:
ARM GAS  /tmp/cc7ompF3.s 			page 3


 115              	.LBE146:
 116              	.LBE147:
 117              	.LBE157:
 118              	.LBB158:
 119              	.LBB159:
 120              		.loc 1 191 0
 121 000c 0368     		ldr	r3, [r0]
 122 000e 0B60     		str	r3, [r1]
 123              		.loc 1 192 0
 124 0010 0160     		str	r1, [r0]
 125              	.LVL4:
 126              	.LBE159:
 127              	.LBE158:
 128              	.LBB160:
 129              	.LBB156:
 130              	.LBB155:
 131              	.LBB154:
 132              	.LBB153:
 133              		.loc 2 493 0
 134              		.syntax unified
 135              	@ 493 "./RM18A-ChibiOS18-Core/chibios/os/common/ext/ARM/CMSIS/Core/Include/cmsis_gcc.h" 1
 136 0012 84F31188 		MSR basepri, r4
 137              	@ 0 "" 2
 138              	.LVL5:
 139              		.thumb
 140              		.syntax unified
 141              	.LBE153:
 142              	.LBE154:
 143              	.LBE155:
 144              	.LBE156:
 145              	.LBE160:
 146              	.LBE140:
 147              	.LBE139:
 148              		.loc 1 113 0
 149 0016 4368     		ldr	r3, [r0, #4]
 150              		.loc 1 110 0
 151 0018 013A     		subs	r2, r2, #1
 152              	.LVL6:
 153              		.loc 1 113 0
 154 001a 1944     		add	r1, r1, r3
 155              	.LVL7:
 156              		.loc 1 110 0
 157 001c F4D1     		bne	.L6
 158              		.loc 1 117 0
 159 001e 30BC     		pop	{r4, r5}
 160              		.cfi_restore 5
 161              		.cfi_restore 4
 162              		.cfi_def_cfa_offset 0
 163 0020 7047     		bx	lr
 164              	.LVL8:
 165              	.L12:
 166 0022 7047     		bx	lr
 167              		.cfi_endproc
 168              	.LFE295:
 169              		.size	chPoolLoadArray, .-chPoolLoadArray
 170              		.section	.text.chPoolAllocI,"ax",%progbits
 171              		.align	1
ARM GAS  /tmp/cc7ompF3.s 			page 4


 172              		.p2align 2,,3
 173              		.global	chPoolAllocI
 174              		.syntax unified
 175              		.thumb
 176              		.thumb_func
 177              		.fpu fpv4-sp-d16
 178              		.type	chPoolAllocI, %function
 179              	chPoolAllocI:
 180              	.LFB296:
 181              		.loc 1 129 0
 182              		.cfi_startproc
 183              		@ args = 0, pretend = 0, frame = 0
 184              		@ frame_needed = 0, uses_anonymous_args = 0
 185              		@ link register save eliminated.
 186              	.LVL9:
 187              		.loc 1 135 0
 188 0000 0368     		ldr	r3, [r0]
 189              	.LVL10:
 190              		.loc 1 137 0
 191 0002 1BB1     		cbz	r3, .L16
 192              		.loc 1 138 0
 193 0004 1A68     		ldr	r2, [r3]
 194 0006 0260     		str	r2, [r0]
 195              	.L15:
 196              		.loc 1 149 0
 197 0008 1846     		mov	r0, r3
 198              	.LVL11:
 199 000a 7047     		bx	lr
 200              	.LVL12:
 201              	.L16:
 202              	.LBB163:
 203              	.LBB164:
 204              		.loc 1 140 0
 205 000c C268     		ldr	r2, [r0, #12]
 206 000e 002A     		cmp	r2, #0
 207 0010 FAD0     		beq	.L15
 208              		.loc 1 141 0
 209 0012 D0E90101 		ldrd	r0, r1, [r0, #4]
 210              	.LVL13:
 211 0016 1047     		bx	r2
 212              	.LVL14:
 213              	.LBE164:
 214              	.LBE163:
 215              		.cfi_endproc
 216              	.LFE296:
 217              		.size	chPoolAllocI, .-chPoolAllocI
 218              		.section	.text.chPoolAlloc,"ax",%progbits
 219              		.align	1
 220              		.p2align 2,,3
 221              		.global	chPoolAlloc
 222              		.syntax unified
 223              		.thumb
 224              		.thumb_func
 225              		.fpu fpv4-sp-d16
 226              		.type	chPoolAlloc, %function
 227              	chPoolAlloc:
 228              	.LFB297:
ARM GAS  /tmp/cc7ompF3.s 			page 5


 229              		.loc 1 161 0
 230              		.cfi_startproc
 231              		@ args = 0, pretend = 0, frame = 0
 232              		@ frame_needed = 0, uses_anonymous_args = 0
 233              	.LVL15:
 234 0000 08B5     		push	{r3, lr}
 235              		.cfi_def_cfa_offset 8
 236              		.cfi_offset 3, -8
 237              		.cfi_offset 14, -4
 238              	.LBB178:
 239              	.LBB179:
 240              	.LBB180:
 241              	.LBB181:
 242              		.loc 2 493 0
 243 0002 2022     		movs	r2, #32
 244              	.LBE181:
 245              	.LBE180:
 246              	.LBE179:
 247              	.LBE178:
 248              		.loc 1 161 0
 249 0004 0346     		mov	r3, r0
 250              	.LBB185:
 251              	.LBB184:
 252              	.LBB183:
 253              	.LBB182:
 254              		.loc 2 493 0
 255              		.syntax unified
 256              	@ 493 "./RM18A-ChibiOS18-Core/chibios/os/common/ext/ARM/CMSIS/Core/Include/cmsis_gcc.h" 1
 257 0006 82F31188 		MSR basepri, r2
 258              	@ 0 "" 2
 259              	.LVL16:
 260              		.thumb
 261              		.syntax unified
 262              	.LBE182:
 263              	.LBE183:
 264              	.LBE184:
 265              	.LBE185:
 266              	.LBB186:
 267              	.LBB187:
 268              		.loc 1 135 0
 269 000a 0068     		ldr	r0, [r0]
 270              	.LVL17:
 271              		.loc 1 137 0
 272 000c 28B1     		cbz	r0, .L22
 273              		.loc 1 138 0
 274 000e 0268     		ldr	r2, [r0]
 275 0010 1A60     		str	r2, [r3]
 276              	.L23:
 277              	.LVL18:
 278              	.LBE187:
 279              	.LBE186:
 280              	.LBB191:
 281              	.LBB192:
 282              	.LBB193:
 283              	.LBB194:
 284              	.LBB195:
 285              		.loc 2 493 0
ARM GAS  /tmp/cc7ompF3.s 			page 6


 286 0012 0023     		movs	r3, #0
 287              	.LVL19:
 288              		.syntax unified
 289              	@ 493 "./RM18A-ChibiOS18-Core/chibios/os/common/ext/ARM/CMSIS/Core/Include/cmsis_gcc.h" 1
 290 0014 83F31188 		MSR basepri, r3
 291              	@ 0 "" 2
 292              	.LVL20:
 293              		.thumb
 294              		.syntax unified
 295              	.LBE195:
 296              	.LBE194:
 297              	.LBE193:
 298              	.LBE192:
 299              	.LBE191:
 300              		.loc 1 169 0
 301 0018 08BD     		pop	{r3, pc}
 302              	.LVL21:
 303              	.L22:
 304              	.LBB200:
 305              	.LBB190:
 306              	.LBB188:
 307              	.LBB189:
 308              		.loc 1 140 0
 309 001a DA68     		ldr	r2, [r3, #12]
 310 001c 002A     		cmp	r2, #0
 311 001e F8D0     		beq	.L23
 312              		.loc 1 141 0
 313 0020 D3E90101 		ldrd	r0, r1, [r3, #4]
 314              	.LVL22:
 315 0024 9047     		blx	r2
 316              	.LVL23:
 317              	.LBE189:
 318              	.LBE188:
 319              	.LBE190:
 320              	.LBE200:
 321              	.LBB201:
 322              	.LBB199:
 323              	.LBB198:
 324              	.LBB197:
 325              	.LBB196:
 326              		.loc 2 493 0
 327 0026 0023     		movs	r3, #0
 328              		.syntax unified
 329              	@ 493 "./RM18A-ChibiOS18-Core/chibios/os/common/ext/ARM/CMSIS/Core/Include/cmsis_gcc.h" 1
 330 0028 83F31188 		MSR basepri, r3
 331              	@ 0 "" 2
 332              	.LVL24:
 333              		.thumb
 334              		.syntax unified
 335              	.LBE196:
 336              	.LBE197:
 337              	.LBE198:
 338              	.LBE199:
 339              	.LBE201:
 340              		.loc 1 169 0
 341 002c 08BD     		pop	{r3, pc}
 342              		.cfi_endproc
ARM GAS  /tmp/cc7ompF3.s 			page 7


 343              	.LFE297:
 344              		.size	chPoolAlloc, .-chPoolAlloc
 345 002e 00BF     		.section	.text.chPoolFreeI,"ax",%progbits
 346              		.align	1
 347              		.p2align 2,,3
 348              		.global	chPoolFreeI
 349              		.syntax unified
 350              		.thumb
 351              		.thumb_func
 352              		.fpu fpv4-sp-d16
 353              		.type	chPoolFreeI, %function
 354              	chPoolFreeI:
 355              	.LFB298:
 356              		.loc 1 183 0
 357              		.cfi_startproc
 358              		@ args = 0, pretend = 0, frame = 0
 359              		@ frame_needed = 0, uses_anonymous_args = 0
 360              		@ link register save eliminated.
 361              	.LVL25:
 362              		.loc 1 191 0
 363 0000 0368     		ldr	r3, [r0]
 364 0002 0B60     		str	r3, [r1]
 365              		.loc 1 192 0
 366 0004 0160     		str	r1, [r0]
 367              		.loc 1 193 0
 368 0006 7047     		bx	lr
 369              		.cfi_endproc
 370              	.LFE298:
 371              		.size	chPoolFreeI, .-chPoolFreeI
 372              		.section	.text.chPoolFree,"ax",%progbits
 373              		.align	1
 374              		.p2align 2,,3
 375              		.global	chPoolFree
 376              		.syntax unified
 377              		.thumb
 378              		.thumb_func
 379              		.fpu fpv4-sp-d16
 380              		.type	chPoolFree, %function
 381              	chPoolFree:
 382              	.LFB299:
 383              		.loc 1 207 0
 384              		.cfi_startproc
 385              		@ args = 0, pretend = 0, frame = 0
 386              		@ frame_needed = 0, uses_anonymous_args = 0
 387              		@ link register save eliminated.
 388              	.LVL26:
 389              	.LBB202:
 390              	.LBB203:
 391              	.LBB204:
 392              	.LBB205:
 393              		.loc 2 493 0
 394 0000 2023     		movs	r3, #32
 395              		.syntax unified
 396              	@ 493 "./RM18A-ChibiOS18-Core/chibios/os/common/ext/ARM/CMSIS/Core/Include/cmsis_gcc.h" 1
 397 0002 83F31188 		MSR basepri, r3
 398              	@ 0 "" 2
 399              	.LVL27:
ARM GAS  /tmp/cc7ompF3.s 			page 8


 400              		.thumb
 401              		.syntax unified
 402              	.LBE205:
 403              	.LBE204:
 404              	.LBE203:
 405              	.LBE202:
 406              	.LBB206:
 407              	.LBB207:
 408              		.loc 1 191 0
 409 0006 0368     		ldr	r3, [r0]
 410 0008 0B60     		str	r3, [r1]
 411              	.LBE207:
 412              	.LBE206:
 413              	.LBB209:
 414              	.LBB210:
 415              	.LBB211:
 416              	.LBB212:
 417              	.LBB213:
 418              		.loc 2 493 0
 419 000a 0023     		movs	r3, #0
 420              	.LBE213:
 421              	.LBE212:
 422              	.LBE211:
 423              	.LBE210:
 424              	.LBE209:
 425              	.LBB218:
 426              	.LBB208:
 427              		.loc 1 192 0
 428 000c 0160     		str	r1, [r0]
 429              	.LVL28:
 430              	.LBE208:
 431              	.LBE218:
 432              	.LBB219:
 433              	.LBB217:
 434              	.LBB216:
 435              	.LBB215:
 436              	.LBB214:
 437              		.loc 2 493 0
 438              		.syntax unified
 439              	@ 493 "./RM18A-ChibiOS18-Core/chibios/os/common/ext/ARM/CMSIS/Core/Include/cmsis_gcc.h" 1
 440 000e 83F31188 		MSR basepri, r3
 441              	@ 0 "" 2
 442              	.LVL29:
 443              		.thumb
 444              		.syntax unified
 445              	.LBE214:
 446              	.LBE215:
 447              	.LBE216:
 448              	.LBE217:
 449              	.LBE219:
 450              		.loc 1 212 0
 451 0012 7047     		bx	lr
 452              		.cfi_endproc
 453              	.LFE299:
 454              		.size	chPoolFree, .-chPoolFree
 455              		.section	.text.chGuardedPoolObjectInitAligned,"ax",%progbits
 456              		.align	1
ARM GAS  /tmp/cc7ompF3.s 			page 9


 457              		.p2align 2,,3
 458              		.global	chGuardedPoolObjectInitAligned
 459              		.syntax unified
 460              		.thumb
 461              		.thumb_func
 462              		.fpu fpv4-sp-d16
 463              		.type	chGuardedPoolObjectInitAligned, %function
 464              	chGuardedPoolObjectInitAligned:
 465              	.LFB300:
 466              		.loc 1 228 0
 467              		.cfi_startproc
 468              		@ args = 0, pretend = 0, frame = 0
 469              		@ frame_needed = 0, uses_anonymous_args = 0
 470              		@ link register save eliminated.
 471              	.LVL30:
 472 0000 10B4     		push	{r4}
 473              		.cfi_def_cfa_offset 4
 474              		.cfi_offset 4, -4
 475              	.LBB220:
 476              	.LBB221:
 477              		.loc 1 85 0
 478 0002 0024     		movs	r4, #0
 479              		.loc 1 87 0
 480 0004 C0E90412 		strd	r1, r2, [r0, #16]
 481              		.loc 1 85 0
 482 0008 C460     		str	r4, [r0, #12]
 483              		.loc 1 88 0
 484 000a 8461     		str	r4, [r0, #24]
 485              	.LVL31:
 486              	.LBE221:
 487              	.LBE220:
 488              		.loc 1 231 0
 489 000c 2146     		mov	r1, r4
 490              	.LVL32:
 491              		.loc 1 232 0
 492 000e 5DF8044B 		ldr	r4, [sp], #4
 493              		.cfi_restore 4
 494              		.cfi_def_cfa_offset 0
 495              		.loc 1 231 0
 496 0012 FFF7FEBF 		b	chSemObjectInit
 497              	.LVL33:
 498              		.cfi_endproc
 499              	.LFE300:
 500              		.size	chGuardedPoolObjectInitAligned, .-chGuardedPoolObjectInitAligned
 501 0016 00BF     		.section	.text.chGuardedPoolLoadArray,"ax",%progbits
 502              		.align	1
 503              		.p2align 2,,3
 504              		.global	chGuardedPoolLoadArray
 505              		.syntax unified
 506              		.thumb
 507              		.thumb_func
 508              		.fpu fpv4-sp-d16
 509              		.type	chGuardedPoolLoadArray, %function
 510              	chGuardedPoolLoadArray:
 511              	.LFB301:
 512              		.loc 1 247 0
 513              		.cfi_startproc
ARM GAS  /tmp/cc7ompF3.s 			page 10


 514              		@ args = 0, pretend = 0, frame = 0
 515              		@ frame_needed = 0, uses_anonymous_args = 0
 516              	.LVL34:
 517              		.loc 1 251 0
 518 0000 CAB1     		cbz	r2, .L40
 519              		.loc 1 247 0
 520 0002 2DE9F041 		push	{r4, r5, r6, r7, r8, lr}
 521              		.cfi_def_cfa_offset 24
 522              		.cfi_offset 4, -24
 523              		.cfi_offset 5, -20
 524              		.cfi_offset 6, -16
 525              		.cfi_offset 7, -12
 526              		.cfi_offset 8, -8
 527              		.cfi_offset 14, -4
 528 0006 0446     		mov	r4, r0
 529 0008 0D46     		mov	r5, r1
 530 000a 1646     		mov	r6, r2
 531              	.LBB222:
 532              	.LBB223:
 533              	.LBB224:
 534              	.LBB225:
 535              	.LBB226:
 536              	.LBB227:
 537              	.LBB228:
 538              		.loc 2 493 0
 539 000c 4FF02008 		mov	r8, #32
 540              	.LBE228:
 541              	.LBE227:
 542              	.LBE226:
 543              	.LBE225:
 544              	.LBB232:
 545              	.LBB233:
 546              	.LBB234:
 547              	.LBB235:
 548              	.LBB236:
 549 0010 0027     		movs	r7, #0
 550              	.LVL35:
 551              	.L34:
 552              	.LBE236:
 553              	.LBE235:
 554              	.LBE234:
 555              	.LBE233:
 556              	.LBE232:
 557              	.LBB241:
 558              	.LBB231:
 559              	.LBB230:
 560              	.LBB229:
 561              		.syntax unified
 562              	@ 493 "./RM18A-ChibiOS18-Core/chibios/os/common/ext/ARM/CMSIS/Core/Include/cmsis_gcc.h" 1
 563 0012 88F31188 		MSR basepri, r8
 564              	@ 0 "" 2
 565              	.LVL36:
 566              		.thumb
 567              		.syntax unified
 568              	.LBE229:
 569              	.LBE230:
 570              	.LBE231:
ARM GAS  /tmp/cc7ompF3.s 			page 11


 571              	.LBE241:
 572              	.LBB242:
 573              	.LBB243:
 574              	.LBB244:
 575              	.LBB245:
 576              		.loc 1 191 0
 577 0016 E368     		ldr	r3, [r4, #12]
 578 0018 2B60     		str	r3, [r5]
 579              	.LBE245:
 580              	.LBE244:
 581              		.file 3 "./RM18A-ChibiOS18-Core/chibios/os/oslib/include/chmempools.h"
 582              		.loc 3 288 0
 583 001a 2046     		mov	r0, r4
 584              	.LBB247:
 585              	.LBB246:
 586              		.loc 1 192 0
 587 001c E560     		str	r5, [r4, #12]
 588              	.LVL37:
 589              	.LBE246:
 590              	.LBE247:
 591              		.loc 3 288 0
 592 001e FFF7FEFF 		bl	chSemSignalI
 593              	.LVL38:
 594              	.LBE243:
 595              	.LBE242:
 596              		.loc 1 329 0
 597 0022 FFF7FEFF 		bl	chSchRescheduleS
 598              	.LVL39:
 599              	.LBB248:
 600              	.LBB240:
 601              	.LBB239:
 602              	.LBB238:
 603              	.LBB237:
 604              		.loc 2 493 0
 605              		.syntax unified
 606              	@ 493 "./RM18A-ChibiOS18-Core/chibios/os/common/ext/ARM/CMSIS/Core/Include/cmsis_gcc.h" 1
 607 0026 87F31188 		MSR basepri, r7
 608              	@ 0 "" 2
 609              	.LVL40:
 610              		.thumb
 611              		.syntax unified
 612              	.LBE237:
 613              	.LBE238:
 614              	.LBE239:
 615              	.LBE240:
 616              	.LBE248:
 617              	.LBE224:
 618              	.LBE223:
 619              	.LBE222:
 620              		.loc 1 254 0
 621 002a 2369     		ldr	r3, [r4, #16]
 622              		.loc 1 251 0
 623 002c 013E     		subs	r6, r6, #1
 624              	.LVL41:
 625              		.loc 1 254 0
 626 002e 1D44     		add	r5, r5, r3
 627              	.LVL42:
ARM GAS  /tmp/cc7ompF3.s 			page 12


 628              		.loc 1 251 0
 629 0030 EFD1     		bne	.L34
 630              		.loc 1 258 0
 631 0032 BDE8F081 		pop	{r4, r5, r6, r7, r8, pc}
 632              	.LVL43:
 633              	.L40:
 634              		.cfi_def_cfa_offset 0
 635              		.cfi_restore 4
 636              		.cfi_restore 5
 637              		.cfi_restore 6
 638              		.cfi_restore 7
 639              		.cfi_restore 8
 640              		.cfi_restore 14
 641 0036 7047     		bx	lr
 642              		.cfi_endproc
 643              	.LFE301:
 644              		.size	chGuardedPoolLoadArray, .-chGuardedPoolLoadArray
 645              		.section	.text.chGuardedPoolAllocTimeoutS,"ax",%progbits
 646              		.align	1
 647              		.p2align 2,,3
 648              		.global	chGuardedPoolAllocTimeoutS
 649              		.syntax unified
 650              		.thumb
 651              		.thumb_func
 652              		.fpu fpv4-sp-d16
 653              		.type	chGuardedPoolAllocTimeoutS, %function
 654              	chGuardedPoolAllocTimeoutS:
 655              	.LFB302:
 656              		.loc 1 276 0
 657              		.cfi_startproc
 658              		@ args = 0, pretend = 0, frame = 0
 659              		@ frame_needed = 0, uses_anonymous_args = 0
 660              	.LVL44:
 661 0000 10B5     		push	{r4, lr}
 662              		.cfi_def_cfa_offset 8
 663              		.cfi_offset 4, -8
 664              		.cfi_offset 14, -4
 665              		.loc 1 276 0
 666 0002 0446     		mov	r4, r0
 667              		.loc 1 279 0
 668 0004 FFF7FEFF 		bl	chSemWaitTimeoutS
 669              	.LVL45:
 670              		.loc 1 280 0
 671 0008 60B9     		cbnz	r0, .L46
 672              	.LVL46:
 673              	.LBB255:
 674              	.LBB256:
 675              		.loc 1 135 0
 676 000a E068     		ldr	r0, [r4, #12]
 677              	.LVL47:
 678              		.loc 1 137 0
 679 000c 10B1     		cbz	r0, .L45
 680              		.loc 1 138 0
 681 000e 0368     		ldr	r3, [r0]
 682 0010 E360     		str	r3, [r4, #12]
 683              	.L43:
 684              	.LBE256:
ARM GAS  /tmp/cc7ompF3.s 			page 13


 685              	.LBE255:
 686              		.loc 1 285 0
 687 0012 10BD     		pop	{r4, pc}
 688              	.LVL48:
 689              	.L45:
 690              	.LBB263:
 691              	.LBB261:
 692              	.LBB257:
 693              	.LBB258:
 694              		.loc 1 140 0
 695 0014 A369     		ldr	r3, [r4, #24]
 696 0016 002B     		cmp	r3, #0
 697 0018 FBD0     		beq	.L43
 698              		.loc 1 141 0
 699 001a D4E90401 		ldrd	r0, r1, [r4, #16]
 700              	.LVL49:
 701              	.LBE258:
 702              	.LBE257:
 703              	.LBE261:
 704              	.LBE263:
 705              		.loc 1 285 0
 706 001e BDE81040 		pop	{r4, lr}
 707              		.cfi_remember_state
 708              		.cfi_restore 14
 709              		.cfi_restore 4
 710              		.cfi_def_cfa_offset 0
 711              	.LVL50:
 712              	.LBB264:
 713              	.LBB262:
 714              	.LBB260:
 715              	.LBB259:
 716              		.loc 1 141 0
 717 0022 1847     		bx	r3
 718              	.LVL51:
 719              	.L46:
 720              		.cfi_restore_state
 721              	.LBE259:
 722              	.LBE260:
 723              	.LBE262:
 724              	.LBE264:
 725              		.loc 1 281 0
 726 0024 0020     		movs	r0, #0
 727              	.LVL52:
 728              		.loc 1 285 0
 729 0026 10BD     		pop	{r4, pc}
 730              		.cfi_endproc
 731              	.LFE302:
 732              		.size	chGuardedPoolAllocTimeoutS, .-chGuardedPoolAllocTimeoutS
 733              		.section	.text.chGuardedPoolAllocTimeout,"ax",%progbits
 734              		.align	1
 735              		.p2align 2,,3
 736              		.global	chGuardedPoolAllocTimeout
 737              		.syntax unified
 738              		.thumb
 739              		.thumb_func
 740              		.fpu fpv4-sp-d16
 741              		.type	chGuardedPoolAllocTimeout, %function
ARM GAS  /tmp/cc7ompF3.s 			page 14


 742              	chGuardedPoolAllocTimeout:
 743              	.LFB303:
 744              		.loc 1 303 0
 745              		.cfi_startproc
 746              		@ args = 0, pretend = 0, frame = 0
 747              		@ frame_needed = 0, uses_anonymous_args = 0
 748              	.LVL53:
 749 0000 10B5     		push	{r4, lr}
 750              		.cfi_def_cfa_offset 8
 751              		.cfi_offset 4, -8
 752              		.cfi_offset 14, -4
 753              	.LBB280:
 754              	.LBB281:
 755              	.LBB282:
 756              	.LBB283:
 757              		.loc 2 493 0
 758 0002 2023     		movs	r3, #32
 759              	.LBE283:
 760              	.LBE282:
 761              	.LBE281:
 762              	.LBE280:
 763              		.loc 1 303 0
 764 0004 0446     		mov	r4, r0
 765              	.LVL54:
 766              	.LBB287:
 767              	.LBB286:
 768              	.LBB285:
 769              	.LBB284:
 770              		.loc 2 493 0
 771              		.syntax unified
 772              	@ 493 "./RM18A-ChibiOS18-Core/chibios/os/common/ext/ARM/CMSIS/Core/Include/cmsis_gcc.h" 1
 773 0006 83F31188 		MSR basepri, r3
 774              	@ 0 "" 2
 775              	.LVL55:
 776              		.thumb
 777              		.syntax unified
 778              	.LBE284:
 779              	.LBE285:
 780              	.LBE286:
 781              	.LBE287:
 782              	.LBB288:
 783              	.LBB289:
 784              		.loc 1 279 0
 785 000a FFF7FEFF 		bl	chSemWaitTimeoutS
 786              	.LVL56:
 787              		.loc 1 280 0
 788 000e 88B9     		cbnz	r0, .L54
 789              	.LVL57:
 790              	.LBB290:
 791              	.LBB291:
 792              		.loc 1 135 0
 793 0010 E068     		ldr	r0, [r4, #12]
 794              	.LVL58:
 795              		.loc 1 137 0
 796 0012 28B1     		cbz	r0, .L53
 797              		.loc 1 138 0
 798 0014 0368     		ldr	r3, [r0]
ARM GAS  /tmp/cc7ompF3.s 			page 15


 799 0016 E360     		str	r3, [r4, #12]
 800              	.LVL59:
 801              	.L52:
 802              	.LBE291:
 803              	.LBE290:
 804              	.LBE289:
 805              	.LBE288:
 806              	.LBB298:
 807              	.LBB299:
 808              	.LBB300:
 809              	.LBB301:
 810              	.LBB302:
 811              		.loc 2 493 0
 812 0018 0023     		movs	r3, #0
 813              		.syntax unified
 814              	@ 493 "./RM18A-ChibiOS18-Core/chibios/os/common/ext/ARM/CMSIS/Core/Include/cmsis_gcc.h" 1
 815 001a 83F31188 		MSR basepri, r3
 816              	@ 0 "" 2
 817              	.LVL60:
 818              		.thumb
 819              		.syntax unified
 820              	.LBE302:
 821              	.LBE301:
 822              	.LBE300:
 823              	.LBE299:
 824              	.LBE298:
 825              		.loc 1 311 0
 826 001e 10BD     		pop	{r4, pc}
 827              	.LVL61:
 828              	.L53:
 829              	.LBB307:
 830              	.LBB296:
 831              	.LBB295:
 832              	.LBB294:
 833              	.LBB292:
 834              	.LBB293:
 835              		.loc 1 140 0
 836 0020 A369     		ldr	r3, [r4, #24]
 837 0022 002B     		cmp	r3, #0
 838 0024 F8D0     		beq	.L52
 839              		.loc 1 141 0
 840 0026 D4E90401 		ldrd	r0, r1, [r4, #16]
 841              	.LVL62:
 842 002a 9847     		blx	r3
 843              	.LVL63:
 844              	.LBE293:
 845              	.LBE292:
 846              	.LBE294:
 847              	.LBE295:
 848              	.LBE296:
 849              	.LBE307:
 850              	.LBB308:
 851              	.LBB306:
 852              	.LBB305:
 853              	.LBB304:
 854              	.LBB303:
 855              		.loc 2 493 0
ARM GAS  /tmp/cc7ompF3.s 			page 16


 856 002c 0023     		movs	r3, #0
 857              		.syntax unified
 858              	@ 493 "./RM18A-ChibiOS18-Core/chibios/os/common/ext/ARM/CMSIS/Core/Include/cmsis_gcc.h" 1
 859 002e 83F31188 		MSR basepri, r3
 860              	@ 0 "" 2
 861              	.LVL64:
 862              		.thumb
 863              		.syntax unified
 864              	.LBE303:
 865              	.LBE304:
 866              	.LBE305:
 867              	.LBE306:
 868              	.LBE308:
 869              		.loc 1 311 0
 870 0032 10BD     		pop	{r4, pc}
 871              	.LVL65:
 872              	.L54:
 873              	.LBB309:
 874              	.LBB297:
 875              		.loc 1 281 0
 876 0034 0020     		movs	r0, #0
 877              	.LVL66:
 878 0036 EFE7     		b	.L52
 879              	.LBE297:
 880              	.LBE309:
 881              		.cfi_endproc
 882              	.LFE303:
 883              		.size	chGuardedPoolAllocTimeout, .-chGuardedPoolAllocTimeout
 884              		.section	.text.chGuardedPoolFree,"ax",%progbits
 885              		.align	1
 886              		.p2align 2,,3
 887              		.global	chGuardedPoolFree
 888              		.syntax unified
 889              		.thumb
 890              		.thumb_func
 891              		.fpu fpv4-sp-d16
 892              		.type	chGuardedPoolFree, %function
 893              	chGuardedPoolFree:
 894              	.LFB304:
 895              		.loc 1 325 0
 896              		.cfi_startproc
 897              		@ args = 0, pretend = 0, frame = 0
 898              		@ frame_needed = 0, uses_anonymous_args = 0
 899              	.LVL67:
 900 0000 08B5     		push	{r3, lr}
 901              		.cfi_def_cfa_offset 8
 902              		.cfi_offset 3, -8
 903              		.cfi_offset 14, -4
 904              	.LBB310:
 905              	.LBB311:
 906              	.LBB312:
 907              	.LBB313:
 908              		.loc 2 493 0
 909 0002 2022     		movs	r2, #32
 910              		.syntax unified
 911              	@ 493 "./RM18A-ChibiOS18-Core/chibios/os/common/ext/ARM/CMSIS/Core/Include/cmsis_gcc.h" 1
 912 0004 82F31188 		MSR basepri, r2
ARM GAS  /tmp/cc7ompF3.s 			page 17


 913              	@ 0 "" 2
 914              	.LVL68:
 915              		.thumb
 916              		.syntax unified
 917              	.LBE313:
 918              	.LBE312:
 919              	.LBE311:
 920              	.LBE310:
 921              	.LBB314:
 922              	.LBB315:
 923              	.LBB316:
 924              	.LBB317:
 925              		.loc 1 191 0
 926 0008 C268     		ldr	r2, [r0, #12]
 927 000a 0A60     		str	r2, [r1]
 928              		.loc 1 192 0
 929 000c C160     		str	r1, [r0, #12]
 930              	.LVL69:
 931              	.LBE317:
 932              	.LBE316:
 933              		.loc 3 288 0
 934 000e FFF7FEFF 		bl	chSemSignalI
 935              	.LVL70:
 936              	.LBE315:
 937              	.LBE314:
 938              		.loc 1 329 0
 939 0012 FFF7FEFF 		bl	chSchRescheduleS
 940              	.LVL71:
 941              	.LBB318:
 942              	.LBB319:
 943              	.LBB320:
 944              	.LBB321:
 945              	.LBB322:
 946              		.loc 2 493 0
 947 0016 0023     		movs	r3, #0
 948              		.syntax unified
 949              	@ 493 "./RM18A-ChibiOS18-Core/chibios/os/common/ext/ARM/CMSIS/Core/Include/cmsis_gcc.h" 1
 950 0018 83F31188 		MSR basepri, r3
 951              	@ 0 "" 2
 952              	.LVL72:
 953              		.thumb
 954              		.syntax unified
 955              	.LBE322:
 956              	.LBE321:
 957              	.LBE320:
 958              	.LBE319:
 959              	.LBE318:
 960              		.loc 1 331 0
 961 001c 08BD     		pop	{r3, pc}
 962              		.cfi_endproc
 963              	.LFE304:
 964              		.size	chGuardedPoolFree, .-chGuardedPoolFree
 965 001e 00BF     		.text
 966              	.Letext0:
 967              		.file 4 "/usr/lib/gcc/arm-none-eabi/7.3.1/include/stddef.h"
 968              		.file 5 "/usr/arm-none-eabi/include/machine/_default_types.h"
 969              		.file 6 "/usr/arm-none-eabi/include/sys/_stdint.h"
ARM GAS  /tmp/cc7ompF3.s 			page 18


 970              		.file 7 "./RM18A-ChibiOS18-Core/chibios/os/common/ports/ARMCMx/compilers/GCC/chtypes.h"
 971              		.file 8 "./RM18A-ChibiOS18-Core/chibios/os/rt/include/chsystypes.h"
 972              		.file 9 "./RM18A-ChibiOS18-Core/chibios/os/rt/include/chschd.h"
 973              		.file 10 "./RM18A-ChibiOS18-Core/chibios/os/rt/include/chtime.h"
 974              		.file 11 "./RM18A-ChibiOS18-Core/chibios/os/common/ext/ARM/CMSIS/Core/Include/core_cm4.h"
 975              		.file 12 "./RM18A-ChibiOS18-Core/chibios/os/common/ext/ST/STM32F4xx/system_stm32f4xx.h"
 976              		.file 13 "./RM18A-ChibiOS18-Core/chibios/os/common/ports/ARMCMx/chcore.h"
 977              		.file 14 "./RM18A-ChibiOS18-Core/chibios/os/common/ports/ARMCMx/chcore_v7m.h"
 978              		.file 15 "./RM18A-ChibiOS18-Core/chibios/os/rt/include/chtm.h"
 979              		.file 16 "./RM18A-ChibiOS18-Core/chibios/os/rt/include/chsem.h"
 980              		.file 17 "./RM18A-ChibiOS18-Core/chibios/os/rt/include/chmtx.h"
 981              		.file 18 "./RM18A-ChibiOS18-Core/chibios/os/rt/include/chsys.h"
 982              		.file 19 "./RM18A-ChibiOS18-Core/chibios/os/rt/include/chregistry.h"
 983              		.file 20 "./RM18A-ChibiOS18-Core/chibios/os/oslib/include/chmemcore.h"
 984              		.file 21 "./RM18A-ChibiOS18-Core/chibios/os/oslib/include/chfactory.h"