ARM GAS  /tmp/ccfkNEyW.s 			page 1


   1              		.cpu cortex-m4
   2              		.eabi_attribute 27, 1
   3              		.eabi_attribute 28, 1
   4              		.eabi_attribute 20, 1
   5              		.eabi_attribute 21, 1
   6              		.eabi_attribute 23, 3
   7              		.eabi_attribute 24, 1
   8              		.eabi_attribute 25, 1
   9              		.eabi_attribute 26, 1
  10              		.eabi_attribute 30, 2
  11              		.eabi_attribute 34, 1
  12              		.eabi_attribute 18, 4
  13              		.file	"chmemheaps.c"
  14              		.text
  15              	.Ltext0:
  16              		.cfi_sections	.debug_frame
  17              		.section	.text._heap_init,"ax",%progbits
  18              		.align	1
  19              		.p2align 2,,3
  20              		.global	_heap_init
  21              		.syntax unified
  22              		.thumb
  23              		.thumb_func
  24              		.fpu fpv4-sp-d16
  25              		.type	_heap_init, %function
  26              	_heap_init:
  27              	.LFB294:
  28              		.file 1 "./RM18A-ChibiOS18-Core/chibios/os/oslib/src/chmemheaps.c"
  29              		.loc 1 107 0
  30              		.cfi_startproc
  31              		@ args = 0, pretend = 0, frame = 0
  32              		@ frame_needed = 0, uses_anonymous_args = 0
  33              		@ link register save eliminated.
  34              		.loc 1 109 0
  35 0000 044B     		ldr	r3, .L3
  36 0002 054A     		ldr	r2, .L3+4
  37 0004 1A60     		str	r2, [r3]
  38              		.loc 1 113 0
  39 0006 03F10C00 		add	r0, r3, #12
  40              		.loc 1 110 0
  41 000a 0022     		movs	r2, #0
  42              		.loc 1 111 0
  43 000c C3E90122 		strd	r2, r2, [r3, #4]
  44              		.loc 1 113 0
  45 0010 FFF7FEBF 		b	chMtxObjectInit
  46              	.LVL0:
  47              	.L4:
  48              		.align	2
  49              	.L3:
  50 0014 00000000 		.word	.LANCHOR0
  51 0018 00000000 		.word	chCoreAllocAlignedWithOffset
  52              		.cfi_endproc
  53              	.LFE294:
  54              		.size	_heap_init, .-_heap_init
  55              		.section	.text.chHeapObjectInit,"ax",%progbits
  56              		.align	1
  57              		.p2align 2,,3
ARM GAS  /tmp/ccfkNEyW.s 			page 2


  58              		.global	chHeapObjectInit
  59              		.syntax unified
  60              		.thumb
  61              		.thumb_func
  62              		.fpu fpv4-sp-d16
  63              		.type	chHeapObjectInit, %function
  64              	chHeapObjectInit:
  65              	.LFB295:
  66              		.loc 1 131 0
  67              		.cfi_startproc
  68              		@ args = 0, pretend = 0, frame = 0
  69              		@ frame_needed = 0, uses_anonymous_args = 0
  70              		@ link register save eliminated.
  71              	.LVL1:
  72              		.loc 1 132 0
  73 0000 CB1D     		adds	r3, r1, #7
  74 0002 23F00703 		bic	r3, r3, #7
  75              	.LVL2:
  76              		.loc 1 139 0
  77 0006 591A     		subs	r1, r3, r1
  78              	.LVL3:
  79              		.loc 1 147 0
  80 0008 083A     		subs	r2, r2, #8
  81              	.LVL4:
  82 000a 521A     		subs	r2, r2, r1
  83              	.LVL5:
  84 000c D208     		lsrs	r2, r2, #3
  85              		.loc 1 143 0
  86 000e 0021     		movs	r1, #0
  87 0010 C0E90013 		strd	r1, r3, [r0]
  88              		.loc 1 145 0
  89 0014 8160     		str	r1, [r0, #8]
  90              		.loc 1 149 0
  91 0016 0C30     		adds	r0, r0, #12
  92              	.LVL6:
  93              		.loc 1 146 0
  94 0018 C3E90012 		strd	r1, r2, [r3]
  95              		.loc 1 149 0
  96 001c FFF7FEBF 		b	chMtxObjectInit
  97              	.LVL7:
  98              		.cfi_endproc
  99              	.LFE295:
 100              		.size	chHeapObjectInit, .-chHeapObjectInit
 101              		.section	.text.chHeapAllocAligned,"ax",%progbits
 102              		.align	1
 103              		.p2align 2,,3
 104              		.global	chHeapAllocAligned
 105              		.syntax unified
 106              		.thumb
 107              		.thumb_func
 108              		.fpu fpv4-sp-d16
 109              		.type	chHeapAllocAligned, %function
 110              	chHeapAllocAligned:
 111              	.LFB296:
 112              		.loc 1 172 0
 113              		.cfi_startproc
 114              		@ args = 0, pretend = 0, frame = 8
ARM GAS  /tmp/ccfkNEyW.s 			page 3


 115              		@ frame_needed = 0, uses_anonymous_args = 0
 116              	.LVL8:
 117 0000 2DE9F04F 		push	{r4, r5, r6, r7, r8, r9, r10, fp, lr}
 118              		.cfi_def_cfa_offset 36
 119              		.cfi_offset 4, -36
 120              		.cfi_offset 5, -32
 121              		.cfi_offset 6, -28
 122              		.cfi_offset 7, -24
 123              		.cfi_offset 8, -20
 124              		.cfi_offset 9, -16
 125              		.cfi_offset 10, -12
 126              		.cfi_offset 11, -8
 127              		.cfi_offset 14, -4
 128              		.loc 1 180 0
 129 0004 3D4B     		ldr	r3, .L25
 130 0006 0028     		cmp	r0, #0
 131 0008 14BF     		ite	ne
 132 000a 8046     		movne	r8, r0
 133 000c 9846     		moveq	r8, r3
 134              	.LVL9:
 135 000e 082A     		cmp	r2, #8
 136              		.loc 1 172 0
 137 0010 83B0     		sub	sp, sp, #12
 138              		.cfi_def_cfa_offset 48
 139 0012 38BF     		it	cc
 140 0014 0822     		movcc	r2, #8
 141              	.LVL10:
 142              		.loc 1 192 0
 143 0016 08F10C0A 		add	r10, r8, #12
 144 001a 9346     		mov	fp, r2
 145              	.LVL11:
 146              		.loc 1 189 0
 147 001c 01F10709 		add	r9, r1, #7
 148              		.loc 1 192 0
 149 0020 5046     		mov	r0, r10
 150              		.loc 1 172 0
 151 0022 0191     		str	r1, [sp, #4]
 152              		.loc 1 189 0
 153 0024 4FEAD909 		lsr	r9, r9, #3
 154              	.LVL12:
 155              		.loc 1 192 0
 156 0028 FFF7FEFF 		bl	chMtxLock
 157              	.LVL13:
 158              		.loc 1 195 0
 159 002c 08F1040C 		add	ip, r8, #4
 160              	.LVL14:
 161              		.loc 1 202 0
 162 0030 0BF1FF3E 		add	lr, fp, #-1
 163 0034 CBF10001 		rsb	r1, fp, #0
 164              	.LVL15:
 165              	.L8:
 166              		.loc 1 196 0
 167 0038 DCF80000 		ldr	r0, [ip]
 168              	.LVL16:
 169              		.loc 1 202 0
 170 003c 00F10807 		add	r7, r0, #8
 171 0040 07EB0E03 		add	r3, r7, lr
ARM GAS  /tmp/ccfkNEyW.s 			page 4


 172 0044 0B40     		ands	r3, r3, r1
 173              		.loc 1 204 0
 174 0046 1E46     		mov	r6, r3
 175              		.loc 1 202 0
 176 0048 083B     		subs	r3, r3, #8
 177              	.LVL17:
 178              		.loc 1 196 0
 179 004a 60B1     		cbz	r0, .L21
 180              		.loc 1 204 0
 181 004c 4268     		ldr	r2, [r0, #4]
 182 004e 541C     		adds	r4, r2, #1
 183 0050 00EBC404 		add	r4, r0, r4, lsl #3
 184 0054 A51B     		subs	r5, r4, r6
 185 0056 9C42     		cmp	r4, r3
 186 0058 4FEAE505 		asr	r5, r5, #3
 187 005c 01D9     		bls	.L9
 188              		.loc 1 204 0 is_stmt 0 discriminator 1
 189 005e 4D45     		cmp	r5, r9
 190 0060 17D2     		bcs	.L22
 191              	.L9:
 192              	.LBB2:
 193              		.loc 1 243 0 is_stmt 1
 194 0062 8446     		mov	ip, r0
 195              	.LVL18:
 196 0064 E8E7     		b	.L8
 197              	.LVL19:
 198              	.L21:
 199              	.LBE2:
 200              		.loc 1 264 0
 201 0066 5046     		mov	r0, r10
 202              	.LVL20:
 203 0068 FFF7FEFF 		bl	chMtxUnlock
 204              	.LVL21:
 205              		.loc 1 268 0
 206 006c D8F80060 		ldr	r6, [r8]
 207              	.LVL22:
 208 0070 5EB1     		cbz	r6, .L6
 209              		.loc 1 269 0
 210 0072 5946     		mov	r1, fp
 211 0074 4FEAC900 		lsl	r0, r9, #3
 212 0078 0822     		movs	r2, #8
 213 007a B047     		blx	r6
 214              	.LVL23:
 215              		.loc 1 272 0
 216 007c 0646     		mov	r6, r0
 217 007e 20B1     		cbz	r0, .L6
 218              	.LVL24:
 219              		.loc 1 275 0
 220 0080 019B     		ldr	r3, [sp, #4]
 221              		.loc 1 274 0
 222 0082 40F8088C 		str	r8, [r0, #-8]
 223              		.loc 1 275 0
 224 0086 40F8043C 		str	r3, [r0, #-4]
 225              	.LVL25:
 226              	.L6:
 227              		.loc 1 284 0
 228 008a 3046     		mov	r0, r6
ARM GAS  /tmp/ccfkNEyW.s 			page 5


 229 008c 03B0     		add	sp, sp, #12
 230              		.cfi_remember_state
 231              		.cfi_def_cfa_offset 36
 232              		@ sp needed
 233 008e BDE8F08F 		pop	{r4, r5, r6, r7, r8, r9, r10, fp, pc}
 234              	.LVL26:
 235              	.L22:
 236              		.cfi_restore_state
 237              		.loc 1 208 0
 238 0092 9842     		cmp	r0, r3
 239 0094 1BD3     		bcc	.L23
 240              		.loc 1 232 0
 241 0096 4A45     		cmp	r2, r9
 242 0098 0368     		ldr	r3, [r0]
 243              	.LVL27:
 244 009a 2AD0     		beq	.L24
 245              	.LBB3:
 246              		.loc 1 240 0
 247 009c 09F10109 		add	r9, r9, #1
 248              	.LVL28:
 249 00a0 00EBC901 		add	r1, r0, r9, lsl #3
 250              	.LVL29:
 251              		.loc 1 242 0
 252 00a4 01F10802 		add	r2, r1, #8
 253 00a8 A21A     		subs	r2, r4, r2
 254 00aa D210     		asrs	r2, r2, #3
 255              		.loc 1 241 0
 256 00ac 40F83930 		str	r3, [r0, r9, lsl #3]
 257              	.LBE3:
 258              		.loc 1 202 0
 259 00b0 3E46     		mov	r6, r7
 260              	.LVL30:
 261              	.LBB4:
 262              		.loc 1 242 0
 263 00b2 4A60     		str	r2, [r1, #4]
 264              		.loc 1 243 0
 265 00b4 0346     		mov	r3, r0
 266 00b6 CCF80010 		str	r1, [ip]
 267              	.LVL31:
 268              	.L11:
 269              	.LBE4:
 270              		.loc 1 248 0
 271 00ba 019A     		ldr	r2, [sp, #4]
 272              		.loc 1 252 0
 273 00bc 5046     		mov	r0, r10
 274              	.LVL32:
 275              		.loc 1 249 0
 276 00be C3E90082 		strd	r8, r2, [r3]
 277              		.loc 1 252 0
 278 00c2 FFF7FEFF 		bl	chMtxUnlock
 279              	.LVL33:
 280              		.loc 1 284 0
 281 00c6 3046     		mov	r0, r6
 282 00c8 03B0     		add	sp, sp, #12
 283              		.cfi_remember_state
 284              		.cfi_def_cfa_offset 36
 285              		@ sp needed
ARM GAS  /tmp/ccfkNEyW.s 			page 6


 286 00ca BDE8F08F 		pop	{r4, r5, r6, r7, r8, r9, r10, fp, pc}
 287              	.LVL34:
 288              	.L23:
 289              		.cfi_restore_state
 290              	.LBB5:
 291              		.loc 1 213 0
 292 00ce DF1B     		subs	r7, r3, r7
 293 00d0 FF10     		asrs	r7, r7, #3
 294              		.loc 1 214 0
 295 00d2 4D45     		cmp	r5, r9
 296              		.loc 1 213 0
 297 00d4 4760     		str	r7, [r0, #4]
 298              		.loc 1 214 0
 299 00d6 F0D9     		bls	.L11
 300              	.LBB6:
 301              		.loc 1 219 0
 302 00d8 09F10101 		add	r1, r9, #1
 303 00dc 03EBC102 		add	r2, r3, r1, lsl #3
 304              	.LVL35:
 305              		.loc 1 220 0
 306 00e0 6FEA0909 		mvn	r9, r9
 307              	.LVL36:
 308              		.loc 1 223 0
 309 00e4 0468     		ldr	r4, [r0]
 310              		.loc 1 220 0
 311 00e6 4D44     		add	r5, r5, r9
 312              	.LVL37:
 313 00e8 5560     		str	r5, [r2, #4]
 314              		.loc 1 223 0
 315 00ea 43F83140 		str	r4, [r3, r1, lsl #3]
 316              		.loc 1 224 0
 317 00ee 0260     		str	r2, [r0]
 318 00f0 E3E7     		b	.L11
 319              	.LVL38:
 320              	.L24:
 321              	.LBE6:
 322              	.LBE5:
 323              		.loc 1 234 0
 324 00f2 CCF80030 		str	r3, [ip]
 325              		.loc 1 202 0
 326 00f6 3E46     		mov	r6, r7
 327              	.LVL39:
 328 00f8 0346     		mov	r3, r0
 329 00fa DEE7     		b	.L11
 330              	.L26:
 331              		.align	2
 332              	.L25:
 333 00fc 00000000 		.word	.LANCHOR0
 334              		.cfi_endproc
 335              	.LFE296:
 336              		.size	chHeapAllocAligned, .-chHeapAllocAligned
 337              		.section	.text.chHeapFree,"ax",%progbits
 338              		.align	1
 339              		.p2align 2,,3
 340              		.global	chHeapFree
 341              		.syntax unified
 342              		.thumb
ARM GAS  /tmp/ccfkNEyW.s 			page 7


 343              		.thumb_func
 344              		.fpu fpv4-sp-d16
 345              		.type	chHeapFree, %function
 346              	chHeapFree:
 347              	.LFB297:
 348              		.loc 1 293 0
 349              		.cfi_startproc
 350              		@ args = 0, pretend = 0, frame = 0
 351              		@ frame_needed = 0, uses_anonymous_args = 0
 352              	.LVL40:
 353 0000 F8B5     		push	{r3, r4, r5, r6, r7, lr}
 354              		.cfi_def_cfa_offset 24
 355              		.cfi_offset 3, -24
 356              		.cfi_offset 4, -20
 357              		.cfi_offset 5, -16
 358              		.cfi_offset 6, -12
 359              		.cfi_offset 7, -8
 360              		.cfi_offset 14, -4
 361              		.loc 1 302 0
 362 0002 50E90253 		ldrd	r5, r3, [r0, #-8]
 363              		.loc 1 306 0
 364 0006 0733     		adds	r3, r3, #7
 365              		.loc 1 307 0
 366 0008 DB08     		lsrs	r3, r3, #3
 367              		.loc 1 310 0
 368 000a 05F10C07 		add	r7, r5, #12
 369              		.loc 1 306 0
 370 000e 40F8043C 		str	r3, [r0, #-4]
 371              		.loc 1 293 0
 372 0012 0646     		mov	r6, r0
 373              		.loc 1 300 0
 374 0014 A0F10804 		sub	r4, r0, #8
 375              	.LVL41:
 376              		.loc 1 303 0
 377 0018 0435     		adds	r5, r5, #4
 378              	.LVL42:
 379              		.loc 1 310 0
 380 001a 3846     		mov	r0, r7
 381              	.LVL43:
 382 001c FFF7FEFF 		bl	chMtxLock
 383              	.LVL44:
 384              		.loc 1 303 0
 385 0020 2B46     		mov	r3, r5
 386              	.LVL45:
 387              	.L28:
 388              		.loc 1 315 0
 389 0022 AB42     		cmp	r3, r5
 390 0024 1A68     		ldr	r2, [r3]
 391 0026 01D0     		beq	.L29
 392              		.loc 1 315 0 is_stmt 0 discriminator 2
 393 0028 9C42     		cmp	r4, r3
 394 002a 02D9     		bls	.L30
 395              	.L29:
 396              		.loc 1 315 0 discriminator 3
 397 002c 1AB1     		cbz	r2, .L31
 398              		.loc 1 316 0 is_stmt 1
 399 002e 9442     		cmp	r4, r2
ARM GAS  /tmp/ccfkNEyW.s 			page 8


 400 0030 01D3     		bcc	.L31
 401              	.L30:
 402              		.loc 1 293 0
 403 0032 1346     		mov	r3, r2
 404              	.LVL46:
 405 0034 F5E7     		b	.L28
 406              	.LVL47:
 407              	.L31:
 408              		.loc 1 321 0
 409 0036 56F8040C 		ldr	r0, [r6, #-4]
 410              		.loc 1 318 0
 411 003a 46F8082C 		str	r2, [r6, #-8]
 412              		.loc 1 319 0
 413 003e 1C60     		str	r4, [r3]
 414              		.loc 1 321 0
 415 0040 451C     		adds	r5, r0, #1
 416              	.LVL48:
 417 0042 56F8081C 		ldr	r1, [r6, #-8]
 418 0046 04EBC502 		add	r2, r4, r5, lsl #3
 419 004a 9142     		cmp	r1, r2
 420 004c 0DD0     		beq	.L38
 421              	.L32:
 422              		.loc 1 326 0
 423 004e 5A68     		ldr	r2, [r3, #4]
 424 0050 0132     		adds	r2, r2, #1
 425 0052 03EBC205 		add	r5, r3, r2, lsl #3
 426 0056 AC42     		cmp	r4, r5
 427              		.loc 1 328 0
 428 0058 04BF     		itt	eq
 429 005a 1218     		addeq	r2, r2, r0
 430              		.loc 1 329 0
 431 005c C3E90012 		strdeq	r1, r2, [r3]
 432              		.loc 1 337 0
 433 0060 3846     		mov	r0, r7
 434              		.loc 1 340 0
 435 0062 BDE8F840 		pop	{r3, r4, r5, r6, r7, lr}
 436              		.cfi_remember_state
 437              		.cfi_restore 14
 438              		.cfi_restore 7
 439              		.cfi_restore 6
 440              		.cfi_restore 5
 441              		.cfi_restore 4
 442              		.cfi_restore 3
 443              		.cfi_def_cfa_offset 0
 444              	.LVL49:
 445              		.loc 1 337 0
 446 0066 FFF7FEBF 		b	chMtxUnlock
 447              	.LVL50:
 448              	.L38:
 449              		.cfi_restore_state
 450              		.loc 1 324 0
 451 006a D1E90010 		ldrd	r1, r0, [r1]
 452              		.loc 1 323 0
 453 006e 2844     		add	r0, r0, r5
 454              		.loc 1 324 0
 455 0070 46F8081C 		str	r1, [r6, #-8]
 456              		.loc 1 323 0
ARM GAS  /tmp/ccfkNEyW.s 			page 9


 457 0074 46F8040C 		str	r0, [r6, #-4]
 458 0078 E9E7     		b	.L32
 459              		.cfi_endproc
 460              	.LFE297:
 461              		.size	chHeapFree, .-chHeapFree
 462 007a 00BF     		.section	.text.chHeapStatus,"ax",%progbits
 463              		.align	1
 464              		.p2align 2,,3
 465              		.global	chHeapStatus
 466              		.syntax unified
 467              		.thumb
 468              		.thumb_func
 469              		.fpu fpv4-sp-d16
 470              		.type	chHeapStatus, %function
 471              	chHeapStatus:
 472              	.LFB298:
 473              		.loc 1 357 0
 474              		.cfi_startproc
 475              		@ args = 0, pretend = 0, frame = 0
 476              		@ frame_needed = 0, uses_anonymous_args = 0
 477              	.LVL51:
 478 0000 2DE9F843 		push	{r3, r4, r5, r6, r7, r8, r9, lr}
 479              		.cfi_def_cfa_offset 32
 480              		.cfi_offset 3, -32
 481              		.cfi_offset 4, -28
 482              		.cfi_offset 5, -24
 483              		.cfi_offset 6, -20
 484              		.cfi_offset 7, -16
 485              		.cfi_offset 8, -12
 486              		.cfi_offset 9, -8
 487              		.cfi_offset 14, -4
 488              		.loc 1 362 0
 489 0004 174C     		ldr	r4, .L54
 490 0006 0028     		cmp	r0, #0
 491 0008 18BF     		it	ne
 492 000a 0446     		movne	r4, r0
 493              	.LVL52:
 494              		.loc 1 365 0
 495 000c 04F10C07 		add	r7, r4, #12
 496 0010 3846     		mov	r0, r7
 497              		.loc 1 357 0
 498 0012 8946     		mov	r9, r1
 499 0014 9046     		mov	r8, r2
 500              		.loc 1 365 0
 501 0016 FFF7FEFF 		bl	chMtxLock
 502              	.LVL53:
 503              		.loc 1 370 0
 504 001a 6368     		ldr	r3, [r4, #4]
 505 001c F3B1     		cbz	r3, .L45
 506              		.loc 1 367 0
 507 001e 0024     		movs	r4, #0
 508              	.LVL54:
 509              		.loc 1 366 0
 510 0020 2546     		mov	r5, r4
 511              		.loc 1 368 0
 512 0022 2646     		mov	r6, r4
 513              	.LVL55:
ARM GAS  /tmp/ccfkNEyW.s 			page 10


 514              	.L42:
 515              		.loc 1 370 0
 516 0024 D3E90030 		ldrd	r3, r0, [r3]
 517 0028 8442     		cmp	r4, r0
 518              	.LBB7:
 519              		.loc 1 374 0
 520 002a 06F10106 		add	r6, r6, #1
 521              	.LVL56:
 522              		.loc 1 375 0
 523 002e 0544     		add	r5, r5, r0
 524              	.LVL57:
 525 0030 38BF     		it	cc
 526 0032 0446     		movcc	r4, r0
 527              	.LVL58:
 528              	.LBE7:
 529              		.loc 1 370 0
 530 0034 002B     		cmp	r3, #0
 531 0036 F5D1     		bne	.L42
 532              	.LVL59:
 533              	.L41:
 534              		.loc 1 384 0
 535 0038 B9F1000F 		cmp	r9, #0
 536 003c 02D0     		beq	.L43
 537              		.loc 1 385 0
 538 003e ED00     		lsls	r5, r5, #3
 539 0040 C9F80050 		str	r5, [r9]
 540              	.L43:
 541              		.loc 1 389 0
 542 0044 B8F1000F 		cmp	r8, #0
 543 0048 02D0     		beq	.L44
 544              		.loc 1 390 0
 545 004a E400     		lsls	r4, r4, #3
 546 004c C8F80040 		str	r4, [r8]
 547              	.L44:
 548              		.loc 1 392 0
 549 0050 3846     		mov	r0, r7
 550 0052 FFF7FEFF 		bl	chMtxUnlock
 551              	.LVL60:
 552              		.loc 1 395 0
 553 0056 3046     		mov	r0, r6
 554 0058 BDE8F883 		pop	{r3, r4, r5, r6, r7, r8, r9, pc}
 555              	.LVL61:
 556              	.L45:
 557              		.loc 1 367 0
 558 005c 1C46     		mov	r4, r3
 559              	.LVL62:
 560              		.loc 1 366 0
 561 005e 1D46     		mov	r5, r3
 562              		.loc 1 368 0
 563 0060 1E46     		mov	r6, r3
 564 0062 E9E7     		b	.L41
 565              	.L55:
 566              		.align	2
 567              	.L54:
 568 0064 00000000 		.word	.LANCHOR0
 569              		.cfi_endproc
 570              	.LFE298:
ARM GAS  /tmp/ccfkNEyW.s 			page 11


 571              		.size	chHeapStatus, .-chHeapStatus
 572              		.section	.bss.default_heap,"aw",%nobits
 573              		.align	2
 574              		.set	.LANCHOR0,. + 0
 575              		.type	default_heap, %object
 576              		.size	default_heap, 28
 577              	default_heap:
 578 0000 00000000 		.space	28
 578      00000000 
 578      00000000 
 578      00000000 
 578      00000000 
 579              		.text
 580              	.Letext0:
 581              		.file 2 "/usr/lib/gcc/arm-none-eabi/7.3.1/include/stddef.h"
 582              		.file 3 "/usr/arm-none-eabi/include/machine/_default_types.h"
 583              		.file 4 "/usr/arm-none-eabi/include/sys/_stdint.h"
 584              		.file 5 "./RM18A-ChibiOS18-Core/chibios/os/common/ports/ARMCMx/compilers/GCC/chtypes.h"
 585              		.file 6 "./RM18A-ChibiOS18-Core/chibios/os/rt/include/chsystypes.h"
 586              		.file 7 "./RM18A-ChibiOS18-Core/chibios/os/rt/include/chschd.h"
 587              		.file 8 "./RM18A-ChibiOS18-Core/chibios/os/rt/include/chtime.h"
 588              		.file 9 "./RM18A-ChibiOS18-Core/chibios/os/common/ext/ARM/CMSIS/Core/Include/core_cm4.h"
 589              		.file 10 "./RM18A-ChibiOS18-Core/chibios/os/common/ext/ST/STM32F4xx/system_stm32f4xx.h"
 590              		.file 11 "./RM18A-ChibiOS18-Core/chibios/os/common/ports/ARMCMx/chcore.h"
 591              		.file 12 "./RM18A-ChibiOS18-Core/chibios/os/common/ports/ARMCMx/chcore_v7m.h"
 592              		.file 13 "./RM18A-ChibiOS18-Core/chibios/os/rt/include/chtm.h"
 593              		.file 14 "./RM18A-ChibiOS18-Core/chibios/os/rt/include/chsem.h"
 594              		.file 15 "./RM18A-ChibiOS18-Core/chibios/os/rt/include/chmtx.h"
 595              		.file 16 "./RM18A-ChibiOS18-Core/chibios/os/rt/include/chsys.h"
 596              		.file 17 "./RM18A-ChibiOS18-Core/chibios/os/rt/include/chregistry.h"
 597              		.file 18 "./RM18A-ChibiOS18-Core/chibios/os/oslib/include/chmemcore.h"
 598              		.file 19 "./RM18A-ChibiOS18-Core/chibios/os/oslib/include/chmemheaps.h"
 599              		.file 20 "./RM18A-ChibiOS18-Core/chibios/os/oslib/include/chmempools.h"
 600              		.file 21 "./RM18A-ChibiOS18-Core/chibios/os/oslib/include/chfactory.h"