ARM GAS  /tmp/ccjrW65c.s 			page 1


   1              		.cpu cortex-m4
   2              		.eabi_attribute 27, 1
   3              		.eabi_attribute 28, 1
   4              		.eabi_attribute 20, 1
   5              		.eabi_attribute 21, 1
   6              		.eabi_attribute 23, 3
   7              		.eabi_attribute 24, 1
   8              		.eabi_attribute 25, 1
   9              		.eabi_attribute 26, 1
  10              		.eabi_attribute 30, 2
  11              		.eabi_attribute 34, 1
  12              		.eabi_attribute 18, 4
  13              		.file	"chmemcore.c"
  14              		.text
  15              	.Ltext0:
  16              		.cfi_sections	.debug_frame
  17              		.section	.text._core_init,"ax",%progbits
  18              		.align	1
  19              		.p2align 2,,3
  20              		.global	_core_init
  21              		.syntax unified
  22              		.thumb
  23              		.thumb_func
  24              		.fpu fpv4-sp-d16
  25              		.type	_core_init, %function
  26              	_core_init:
  27              	.LFB294:
  28              		.file 1 "./RM18A-ChibiOS18-Core/chibios/os/oslib/src/chmemcore.c"
  29              		.loc 1 81 0
  30              		.cfi_startproc
  31              		@ args = 0, pretend = 0, frame = 0
  32              		@ frame_needed = 0, uses_anonymous_args = 0
  33              		@ link register save eliminated.
  34              		.loc 1 87 0
  35 0000 024B     		ldr	r3, .L3
  36 0002 0349     		ldr	r1, .L3+4
  37              		.loc 1 88 0
  38 0004 034A     		ldr	r2, .L3+8
  39 0006 C3E90012 		strd	r1, r2, [r3]
  40              		.loc 1 96 0
  41 000a 7047     		bx	lr
  42              	.L4:
  43              		.align	2
  44              	.L3:
  45 000c 00000000 		.word	.LANCHOR0
  46 0010 00000000 		.word	__heap_base__
  47 0014 00000000 		.word	__heap_end__
  48              		.cfi_endproc
  49              	.LFE294:
  50              		.size	_core_init, .-_core_init
  51              		.section	.text.chCoreAllocAlignedWithOffsetI,"ax",%progbits
  52              		.align	1
  53              		.p2align 2,,3
  54              		.global	chCoreAllocAlignedWithOffsetI
  55              		.syntax unified
  56              		.thumb
  57              		.thumb_func
ARM GAS  /tmp/ccjrW65c.s 			page 2


  58              		.fpu fpv4-sp-d16
  59              		.type	chCoreAllocAlignedWithOffsetI, %function
  60              	chCoreAllocAlignedWithOffsetI:
  61              	.LFB295:
  62              		.loc 1 114 0
  63              		.cfi_startproc
  64              		@ args = 0, pretend = 0, frame = 0
  65              		@ frame_needed = 0, uses_anonymous_args = 0
  66              		@ link register save eliminated.
  67              	.LVL0:
  68 0000 70B4     		push	{r4, r5, r6}
  69              		.cfi_def_cfa_offset 12
  70              		.cfi_offset 4, -12
  71              		.cfi_offset 5, -8
  72              		.cfi_offset 6, -4
  73              		.loc 1 121 0
  74 0002 0B4D     		ldr	r5, .L10
  75              		.loc 1 125 0
  76 0004 D5E90064 		ldrd	r6, r4, [r5]
  77              		.loc 1 121 0
  78 0008 3244     		add	r2, r2, r6
  79              	.LVL1:
  80              		.loc 1 120 0
  81 000a 0138     		subs	r0, r0, #1
  82              	.LVL2:
  83              		.loc 1 121 0
  84 000c 013A     		subs	r2, r2, #1
  85              		.loc 1 120 0
  86 000e 4318     		adds	r3, r0, r1
  87              		.loc 1 121 0
  88 0010 5018     		adds	r0, r2, r1
  89              	.LVL3:
  90              		.loc 1 120 0
  91 0012 4942     		negs	r1, r1
  92              	.LVL4:
  93              		.loc 1 121 0
  94 0014 0840     		ands	r0, r0, r1
  95              	.LVL5:
  96              		.loc 1 120 0
  97 0016 1940     		ands	r1, r1, r3
  98              	.LVL6:
  99              		.loc 1 122 0
 100 0018 0144     		add	r1, r1, r0
 101              	.LVL7:
 102              		.loc 1 125 0
 103 001a 8C42     		cmp	r4, r1
 104 001c 04D3     		bcc	.L8
 105              		.loc 1 125 0 is_stmt 0 discriminator 1
 106 001e 8E42     		cmp	r6, r1
 107 0020 02D8     		bhi	.L8
 108              		.loc 1 129 0 is_stmt 1
 109 0022 2960     		str	r1, [r5]
 110              		.loc 1 132 0
 111 0024 70BC     		pop	{r4, r5, r6}
 112              		.cfi_remember_state
 113              		.cfi_restore 6
 114              		.cfi_restore 5
ARM GAS  /tmp/ccjrW65c.s 			page 3


 115              		.cfi_restore 4
 116              		.cfi_def_cfa_offset 0
 117 0026 7047     		bx	lr
 118              	.L8:
 119              		.cfi_restore_state
 120              		.loc 1 126 0
 121 0028 0020     		movs	r0, #0
 122              	.LVL8:
 123              		.loc 1 132 0
 124 002a 70BC     		pop	{r4, r5, r6}
 125              		.cfi_restore 6
 126              		.cfi_restore 5
 127              		.cfi_restore 4
 128              		.cfi_def_cfa_offset 0
 129 002c 7047     		bx	lr
 130              	.L11:
 131 002e 00BF     		.align	2
 132              	.L10:
 133 0030 00000000 		.word	.LANCHOR0
 134              		.cfi_endproc
 135              	.LFE295:
 136              		.size	chCoreAllocAlignedWithOffsetI, .-chCoreAllocAlignedWithOffsetI
 137              		.section	.text.chCoreAllocAlignedWithOffset,"ax",%progbits
 138              		.align	1
 139              		.p2align 2,,3
 140              		.global	chCoreAllocAlignedWithOffset
 141              		.syntax unified
 142              		.thumb
 143              		.thumb_func
 144              		.fpu fpv4-sp-d16
 145              		.type	chCoreAllocAlignedWithOffset, %function
 146              	chCoreAllocAlignedWithOffset:
 147              	.LFB296:
 148              		.loc 1 150 0
 149              		.cfi_startproc
 150              		@ args = 0, pretend = 0, frame = 0
 151              		@ frame_needed = 0, uses_anonymous_args = 0
 152              		@ link register save eliminated.
 153              	.LVL9:
 154 0000 F0B4     		push	{r4, r5, r6, r7}
 155              		.cfi_def_cfa_offset 16
 156              		.cfi_offset 4, -16
 157              		.cfi_offset 5, -12
 158              		.cfi_offset 6, -8
 159              		.cfi_offset 7, -4
 160              	.LBB26:
 161              	.LBB27:
 162              	.LBB28:
 163              	.LBB29:
 164              		.file 2 "./RM18A-ChibiOS18-Core/chibios/os/common/ext/ARM/CMSIS/Core/Include/cmsis_gcc.h"
 165              		.loc 2 493 0
 166 0002 2023     		movs	r3, #32
 167              		.syntax unified
 168              	@ 493 "./RM18A-ChibiOS18-Core/chibios/os/common/ext/ARM/CMSIS/Core/Include/cmsis_gcc.h" 1
 169 0004 83F31188 		MSR basepri, r3
 170              	@ 0 "" 2
 171              	.LVL10:
ARM GAS  /tmp/ccjrW65c.s 			page 4


 172              		.thumb
 173              		.syntax unified
 174              	.LBE29:
 175              	.LBE28:
 176              	.LBE27:
 177              	.LBE26:
 178              	.LBB30:
 179              	.LBB31:
 180              		.loc 1 121 0
 181 0008 0D4D     		ldr	r5, .L17
 182              		.loc 1 125 0
 183 000a D5E90074 		ldrd	r7, r4, [r5]
 184 000e 4E1E     		subs	r6, r1, #1
 185              		.loc 1 121 0
 186 0010 3A44     		add	r2, r2, r7
 187              	.LVL11:
 188              		.loc 1 120 0
 189 0012 8319     		adds	r3, r0, r6
 190 0014 4942     		negs	r1, r1
 191              	.LVL12:
 192              		.loc 1 121 0
 193 0016 9019     		adds	r0, r2, r6
 194              	.LVL13:
 195              		.loc 1 120 0
 196 0018 0B40     		ands	r3, r3, r1
 197              		.loc 1 121 0
 198 001a 0840     		ands	r0, r0, r1
 199              	.LVL14:
 200              		.loc 1 122 0
 201 001c 0344     		add	r3, r3, r0
 202              	.LVL15:
 203              		.loc 1 125 0
 204 001e A342     		cmp	r3, r4
 205 0020 07D8     		bhi	.L15
 206 0022 9F42     		cmp	r7, r3
 207 0024 05D8     		bhi	.L15
 208              		.loc 1 129 0
 209 0026 2B60     		str	r3, [r5]
 210              	.LVL16:
 211              	.LBE31:
 212              	.LBE30:
 213              	.LBB33:
 214              	.LBB34:
 215              	.LBB35:
 216              	.LBB36:
 217              	.LBB37:
 218              		.loc 2 493 0
 219 0028 0023     		movs	r3, #0
 220              		.syntax unified
 221              	@ 493 "./RM18A-ChibiOS18-Core/chibios/os/common/ext/ARM/CMSIS/Core/Include/cmsis_gcc.h" 1
 222 002a 83F31188 		MSR basepri, r3
 223              	@ 0 "" 2
 224              	.LVL17:
 225              		.thumb
 226              		.syntax unified
 227              	.LBE37:
 228              	.LBE36:
ARM GAS  /tmp/ccjrW65c.s 			page 5


 229              	.LBE35:
 230              	.LBE34:
 231              	.LBE33:
 232              		.loc 1 158 0
 233 002e F0BC     		pop	{r4, r5, r6, r7}
 234              		.cfi_remember_state
 235              		.cfi_restore 7
 236              		.cfi_restore 6
 237              		.cfi_restore 5
 238              		.cfi_restore 4
 239              		.cfi_def_cfa_offset 0
 240 0030 7047     		bx	lr
 241              	.LVL18:
 242              	.L15:
 243              		.cfi_restore_state
 244              	.LBB42:
 245              	.LBB32:
 246              		.loc 1 126 0
 247 0032 0020     		movs	r0, #0
 248              	.LVL19:
 249              	.LBE32:
 250              	.LBE42:
 251              	.LBB43:
 252              	.LBB41:
 253              	.LBB40:
 254              	.LBB39:
 255              	.LBB38:
 256              		.loc 2 493 0
 257 0034 0023     		movs	r3, #0
 258              		.syntax unified
 259              	@ 493 "./RM18A-ChibiOS18-Core/chibios/os/common/ext/ARM/CMSIS/Core/Include/cmsis_gcc.h" 1
 260 0036 83F31188 		MSR basepri, r3
 261              	@ 0 "" 2
 262              	.LVL20:
 263              		.thumb
 264              		.syntax unified
 265              	.LBE38:
 266              	.LBE39:
 267              	.LBE40:
 268              	.LBE41:
 269              	.LBE43:
 270              		.loc 1 158 0
 271 003a F0BC     		pop	{r4, r5, r6, r7}
 272              		.cfi_restore 7
 273              		.cfi_restore 6
 274              		.cfi_restore 5
 275              		.cfi_restore 4
 276              		.cfi_def_cfa_offset 0
 277 003c 7047     		bx	lr
 278              	.L18:
 279 003e 00BF     		.align	2
 280              	.L17:
 281 0040 00000000 		.word	.LANCHOR0
 282              		.cfi_endproc
 283              	.LFE296:
 284              		.size	chCoreAllocAlignedWithOffset, .-chCoreAllocAlignedWithOffset
 285              		.section	.text.chCoreGetStatusX,"ax",%progbits
ARM GAS  /tmp/ccjrW65c.s 			page 6


 286              		.align	1
 287              		.p2align 2,,3
 288              		.global	chCoreGetStatusX
 289              		.syntax unified
 290              		.thumb
 291              		.thumb_func
 292              		.fpu fpv4-sp-d16
 293              		.type	chCoreGetStatusX, %function
 294              	chCoreGetStatusX:
 295              	.LFB297:
 296              		.loc 1 167 0
 297              		.cfi_startproc
 298              		@ args = 0, pretend = 0, frame = 0
 299              		@ frame_needed = 0, uses_anonymous_args = 0
 300              		@ link register save eliminated.
 301              		.loc 1 170 0
 302 0000 024B     		ldr	r3, .L20
 303 0002 D3E90030 		ldrd	r3, r0, [r3]
 304              		.loc 1 172 0
 305 0006 C01A     		subs	r0, r0, r3
 306 0008 7047     		bx	lr
 307              	.L21:
 308 000a 00BF     		.align	2
 309              	.L20:
 310 000c 00000000 		.word	.LANCHOR0
 311              		.cfi_endproc
 312              	.LFE297:
 313              		.size	chCoreGetStatusX, .-chCoreGetStatusX
 314              		.global	ch_memcore
 315              		.section	.bss.ch_memcore,"aw",%nobits
 316              		.align	2
 317              		.set	.LANCHOR0,. + 0
 318              		.type	ch_memcore, %object
 319              		.size	ch_memcore, 8
 320              	ch_memcore:
 321 0000 00000000 		.space	8
 321      00000000 
 322              		.text
 323              	.Letext0:
 324              		.file 3 "/usr/lib/gcc/arm-none-eabi/7.3.1/include/stddef.h"
 325              		.file 4 "/usr/arm-none-eabi/include/machine/_default_types.h"
 326              		.file 5 "/usr/arm-none-eabi/include/sys/_stdint.h"
 327              		.file 6 "./RM18A-ChibiOS18-Core/chibios/os/common/ports/ARMCMx/compilers/GCC/chtypes.h"
 328              		.file 7 "./RM18A-ChibiOS18-Core/chibios/os/rt/include/chsystypes.h"
 329              		.file 8 "./RM18A-ChibiOS18-Core/chibios/os/rt/include/chschd.h"
 330              		.file 9 "./RM18A-ChibiOS18-Core/chibios/os/rt/include/chtime.h"
 331              		.file 10 "./RM18A-ChibiOS18-Core/chibios/os/common/ext/ARM/CMSIS/Core/Include/core_cm4.h"
 332              		.file 11 "./RM18A-ChibiOS18-Core/chibios/os/common/ext/ST/STM32F4xx/system_stm32f4xx.h"
 333              		.file 12 "./RM18A-ChibiOS18-Core/chibios/os/common/ports/ARMCMx/chcore.h"
 334              		.file 13 "./RM18A-ChibiOS18-Core/chibios/os/common/ports/ARMCMx/chcore_v7m.h"
 335              		.file 14 "./RM18A-ChibiOS18-Core/chibios/os/rt/include/chtm.h"
 336              		.file 15 "./RM18A-ChibiOS18-Core/chibios/os/rt/include/chsem.h"
 337              		.file 16 "./RM18A-ChibiOS18-Core/chibios/os/rt/include/chmtx.h"
 338              		.file 17 "./RM18A-ChibiOS18-Core/chibios/os/rt/include/chsys.h"
 339              		.file 18 "./RM18A-ChibiOS18-Core/chibios/os/rt/include/chregistry.h"
 340              		.file 19 "./RM18A-ChibiOS18-Core/chibios/os/oslib/include/chmemcore.h"
 341              		.file 20 "./RM18A-ChibiOS18-Core/chibios/os/oslib/include/chmempools.h"
ARM GAS  /tmp/ccjrW65c.s 			page 7


 342              		.file 21 "./RM18A-ChibiOS18-Core/chibios/os/oslib/include/chfactory.h"