ARM GAS  /tmp/ccrvAUSO.s 			page 1


   1              		.cpu cortex-m4
   2              		.eabi_attribute 27, 1
   3              		.eabi_attribute 28, 1
   4              		.eabi_attribute 20, 1
   5              		.eabi_attribute 21, 1
   6              		.eabi_attribute 23, 3
   7              		.eabi_attribute 24, 1
   8              		.eabi_attribute 25, 1
   9              		.eabi_attribute 26, 1
  10              		.eabi_attribute 30, 2
  11              		.eabi_attribute 34, 1
  12              		.eabi_attribute 18, 4
  13              		.file	"chmtx.c"
  14              		.text
  15              	.Ltext0:
  16              		.cfi_sections	.debug_frame
  17              		.section	.text.chMtxObjectInit,"ax",%progbits
  18              		.align	1
  19              		.p2align 2,,3
  20              		.global	chMtxObjectInit
  21              		.syntax unified
  22              		.thumb
  23              		.thumb_func
  24              		.fpu fpv4-sp-d16
  25              		.type	chMtxObjectInit, %function
  26              	chMtxObjectInit:
  27              	.LFB294:
  28              		.file 1 "./RM18A-ChibiOS18-Core/chibios/os/rt/src/chmtx.c"
  29              		.loc 1 103 0
  30              		.cfi_startproc
  31              		@ args = 0, pretend = 0, frame = 0
  32              		@ frame_needed = 0, uses_anonymous_args = 0
  33              		@ link register save eliminated.
  34              	.LVL0:
  35              		.loc 1 108 0
  36 0000 0023     		movs	r3, #0
  37              	.LBB111:
  38              	.LBB112:
  39              		.file 2 "./RM18A-ChibiOS18-Core/chibios/os/rt/include/chschd.h"
  40              		.loc 2 540 0
  41 0002 C0E90000 		strd	r0, r0, [r0]
  42              	.LVL1:
  43              	.LBE112:
  44              	.LBE111:
  45              		.loc 1 108 0
  46 0006 8360     		str	r3, [r0, #8]
  47              		.loc 1 112 0
  48 0008 7047     		bx	lr
  49              		.cfi_endproc
  50              	.LFE294:
  51              		.size	chMtxObjectInit, .-chMtxObjectInit
  52 000a 00BF     		.section	.text.chMtxLock,"ax",%progbits
  53              		.align	1
  54              		.p2align 2,,3
  55              		.global	chMtxLock
  56              		.syntax unified
  57              		.thumb
ARM GAS  /tmp/ccrvAUSO.s 			page 2


  58              		.thumb_func
  59              		.fpu fpv4-sp-d16
  60              		.type	chMtxLock, %function
  61              	chMtxLock:
  62              	.LFB295:
  63              		.loc 1 123 0
  64              		.cfi_startproc
  65              		@ args = 0, pretend = 0, frame = 0
  66              		@ frame_needed = 0, uses_anonymous_args = 0
  67              	.LVL2:
  68 0000 F8B5     		push	{r3, r4, r5, r6, r7, lr}
  69              		.cfi_def_cfa_offset 24
  70              		.cfi_offset 3, -24
  71              		.cfi_offset 4, -20
  72              		.cfi_offset 5, -16
  73              		.cfi_offset 6, -12
  74              		.cfi_offset 7, -8
  75              		.cfi_offset 14, -4
  76              	.LBB137:
  77              	.LBB138:
  78              	.LBB139:
  79              	.LBB140:
  80              		.file 3 "./RM18A-ChibiOS18-Core/chibios/os/common/ext/ARM/CMSIS/Core/Include/cmsis_gcc.h"
  81              		.loc 3 493 0
  82 0002 2023     		movs	r3, #32
  83              		.syntax unified
  84              	@ 493 "./RM18A-ChibiOS18-Core/chibios/os/common/ext/ARM/CMSIS/Core/Include/cmsis_gcc.h" 1
  85 0004 83F31188 		MSR basepri, r3
  86              	@ 0 "" 2
  87              	.LVL3:
  88              		.thumb
  89              		.syntax unified
  90              	.LBE140:
  91              	.LBE139:
  92              	.LBE138:
  93              	.LBE137:
  94              	.LBB141:
  95              	.LBB142:
  96              		.loc 1 140 0
  97 0008 394A     		ldr	r2, .L34
  98              		.loc 1 146 0
  99 000a 8368     		ldr	r3, [r0, #8]
 100              		.loc 1 140 0
 101 000c 9569     		ldr	r5, [r2, #24]
 102              	.LVL4:
 103              		.loc 1 146 0
 104 000e 002B     		cmp	r3, #0
 105 0010 42D0     		beq	.L26
 106              	.LBB143:
 107              		.loc 1 165 0
 108 0012 A968     		ldr	r1, [r5, #8]
 109 0014 9A68     		ldr	r2, [r3, #8]
 110 0016 9142     		cmp	r1, r2
 111 0018 0446     		mov	r4, r0
 112              	.LVL5:
 113 001a 07D9     		bls	.L6
 114              	.LVL6:
ARM GAS  /tmp/ccrvAUSO.s 			page 3


 115              	.L12:
 116              		.loc 1 170 0
 117 001c 93F82020 		ldrb	r2, [r3, #32]	@ zero_extendqisi2
 118              		.loc 1 167 0
 119 0020 9960     		str	r1, [r3, #8]
 120              		.loc 1 170 0
 121 0022 062A     		cmp	r2, #6
 122 0024 40D0     		beq	.L7
 123 0026 072A     		cmp	r2, #7
 124 0028 17D0     		beq	.L8
 125 002a 52B3     		cbz	r2, .L27
 126              	.LVL7:
 127              	.L6:
 128              		.loc 1 212 0
 129 002c 2646     		mov	r6, r4
 130              	.LVL8:
 131 002e 2346     		mov	r3, r4
 132 0030 03E0     		b	.L17
 133              	.LVL9:
 134              	.L29:
 135              	.LBB144:
 136              	.LBB145:
 137              		.loc 2 591 0
 138 0032 9968     		ldr	r1, [r3, #8]
 139 0034 AA68     		ldr	r2, [r5, #8]
 140 0036 9142     		cmp	r1, r2
 141 0038 2CD3     		bcc	.L28
 142              	.L17:
 143              		.loc 2 590 0
 144 003a 1B68     		ldr	r3, [r3]
 145              	.LVL10:
 146              		.loc 2 591 0
 147 003c 9C42     		cmp	r4, r3
 148 003e F8D1     		bne	.L29
 149              	.L16:
 150              		.loc 2 593 0
 151 0040 7368     		ldr	r3, [r6, #4]
 152              	.LVL11:
 153              	.LBE145:
 154              	.LBE144:
 155              		.loc 1 214 0
 156 0042 0620     		movs	r0, #6
 157              	.LBB148:
 158              	.LBB146:
 159              		.loc 2 593 0
 160 0044 C5E90063 		strd	r6, r3, [r5]
 161              		.loc 2 594 0
 162 0048 1D60     		str	r5, [r3]
 163              		.loc 2 595 0
 164 004a 7560     		str	r5, [r6, #4]
 165              	.LVL12:
 166              	.LBE146:
 167              	.LBE148:
 168              		.loc 1 213 0
 169 004c 6C62     		str	r4, [r5, #36]
 170              		.loc 1 214 0
 171 004e FFF7FEFF 		bl	chSchGoSleepS
ARM GAS  /tmp/ccrvAUSO.s 			page 4


 172              	.LVL13:
 173              	.LBE143:
 174              	.LBE142:
 175              	.LBE141:
 176              	.LBB178:
 177              	.LBB179:
 178              	.LBB180:
 179              	.LBB181:
 180              	.LBB182:
 181              		.loc 3 493 0
 182 0052 0023     		movs	r3, #0
 183              		.syntax unified
 184              	@ 493 "./RM18A-ChibiOS18-Core/chibios/os/common/ext/ARM/CMSIS/Core/Include/cmsis_gcc.h" 1
 185 0054 83F31188 		MSR basepri, r3
 186              	@ 0 "" 2
 187              	.LVL14:
 188              		.thumb
 189              		.syntax unified
 190              	.LBE182:
 191              	.LBE181:
 192              	.LBE180:
 193              	.LBE179:
 194              	.LBE178:
 195              		.loc 1 128 0
 196 0058 F8BD     		pop	{r3, r4, r5, r6, r7, pc}
 197              	.LVL15:
 198              	.L8:
 199              	.LBB187:
 200              	.LBB176:
 201              	.LBB174:
 202              	.LBB149:
 203              	.LBB150:
 204              		.loc 2 626 0
 205 005a D3E90002 		ldrd	r0, r2, [r3]
 206 005e 1060     		str	r0, [r2]
 207              	.LBE150:
 208              	.LBE149:
 209              		.loc 1 193 0
 210 0060 5E6A     		ldr	r6, [r3, #36]
 211              	.LBB152:
 212              	.LBB151:
 213              		.loc 2 627 0
 214 0062 1868     		ldr	r0, [r3]
 215 0064 4260     		str	r2, [r0, #4]
 216              	.LVL16:
 217              	.LBE151:
 218              	.LBE152:
 219              		.loc 1 193 0
 220 0066 3246     		mov	r2, r6
 221 0068 02E0     		b	.L14
 222              	.LVL17:
 223              	.L31:
 224              	.LBB153:
 225              	.LBB154:
 226              		.loc 2 591 0
 227 006a 9068     		ldr	r0, [r2, #8]
 228 006c 8842     		cmp	r0, r1
ARM GAS  /tmp/ccrvAUSO.s 			page 5


 229 006e 35D3     		bcc	.L30
 230              	.LVL18:
 231              	.L14:
 232              		.loc 2 590 0
 233 0070 1268     		ldr	r2, [r2]
 234              	.LVL19:
 235              		.loc 2 591 0
 236 0072 9642     		cmp	r6, r2
 237 0074 F9D1     		bne	.L31
 238              		.loc 2 593 0
 239 0076 7268     		ldr	r2, [r6, #4]
 240              	.LVL20:
 241 0078 C3E90062 		strd	r6, r2, [r3]
 242              		.loc 2 594 0
 243 007c 1360     		str	r3, [r2]
 244              		.loc 2 595 0
 245 007e 7360     		str	r3, [r6, #4]
 246 0080 D4E7     		b	.L6
 247              	.LVL21:
 248              	.L27:
 249              	.LBE154:
 250              	.LBE153:
 251              	.LBB156:
 252              	.LBB157:
 253              		.loc 2 626 0
 254 0082 D3E90012 		ldrd	r1, r2, [r3]
 255 0086 1160     		str	r1, [r2]
 256              		.loc 2 627 0
 257 0088 1968     		ldr	r1, [r3]
 258              	.LBE157:
 259              	.LBE156:
 260              		.loc 1 202 0
 261 008a 1846     		mov	r0, r3
 262              	.LBB159:
 263              	.LBB158:
 264              		.loc 2 627 0
 265 008c 4A60     		str	r2, [r1, #4]
 266              	.LVL22:
 267              	.LBE158:
 268              	.LBE159:
 269              		.loc 1 202 0
 270 008e FFF7FEFF 		bl	chSchReadyI
 271              	.LVL23:
 272 0092 CBE7     		b	.L6
 273              	.LVL24:
 274              	.L28:
 275              	.LBB160:
 276              	.LBB147:
 277              		.loc 2 590 0
 278 0094 1E46     		mov	r6, r3
 279 0096 D3E7     		b	.L16
 280              	.LVL25:
 281              	.L26:
 282              	.LBE147:
 283              	.LBE160:
 284              	.LBE174:
 285              		.loc 1 233 0
ARM GAS  /tmp/ccrvAUSO.s 			page 6


 286 0098 AB6B     		ldr	r3, [r5, #56]
 287 009a C0E90253 		strd	r5, r3, [r0, #8]
 288              		.loc 1 234 0
 289 009e A863     		str	r0, [r5, #56]
 290              	.LVL26:
 291              	.LBE176:
 292              	.LBE187:
 293              	.LBB188:
 294              	.LBB186:
 295              	.LBB185:
 296              	.LBB184:
 297              	.LBB183:
 298              		.loc 3 493 0
 299 00a0 0023     		movs	r3, #0
 300              		.syntax unified
 301              	@ 493 "./RM18A-ChibiOS18-Core/chibios/os/common/ext/ARM/CMSIS/Core/Include/cmsis_gcc.h" 1
 302 00a2 83F31188 		MSR basepri, r3
 303              	@ 0 "" 2
 304              	.LVL27:
 305              		.thumb
 306              		.syntax unified
 307              	.LBE183:
 308              	.LBE184:
 309              	.LBE185:
 310              	.LBE186:
 311              	.LBE188:
 312              		.loc 1 128 0
 313 00a6 F8BD     		pop	{r3, r4, r5, r6, r7, pc}
 314              	.LVL28:
 315              	.L7:
 316              	.LBB189:
 317              	.LBB177:
 318              	.LBB175:
 319              	.LBB161:
 320              	.LBB162:
 321              		.loc 2 626 0
 322 00a8 D3E90002 		ldrd	r0, r2, [r3]
 323 00ac 1060     		str	r0, [r2]
 324              	.LBE162:
 325              	.LBE161:
 326              		.loc 1 173 0
 327 00ae 5E6A     		ldr	r6, [r3, #36]
 328              	.LBB165:
 329              	.LBB163:
 330              		.loc 2 627 0
 331 00b0 1868     		ldr	r0, [r3]
 332              	.LBE163:
 333              	.LBE165:
 334              		.loc 1 173 0
 335 00b2 3746     		mov	r7, r6
 336              	.LBB166:
 337              	.LBB164:
 338              		.loc 2 627 0
 339 00b4 4260     		str	r2, [r0, #4]
 340              	.LVL29:
 341              	.LBE164:
 342              	.LBE166:
ARM GAS  /tmp/ccrvAUSO.s 			page 7


 343              		.loc 1 173 0
 344 00b6 3246     		mov	r2, r6
 345 00b8 02E0     		b	.L11
 346              	.LVL30:
 347              	.L33:
 348              	.LBB167:
 349              	.LBB168:
 350              		.loc 2 591 0
 351 00ba 9068     		ldr	r0, [r2, #8]
 352 00bc 8842     		cmp	r0, r1
 353 00be 14D3     		bcc	.L32
 354              	.LVL31:
 355              	.L11:
 356              		.loc 2 590 0
 357 00c0 1268     		ldr	r2, [r2]
 358              	.LVL32:
 359              		.loc 2 591 0
 360 00c2 9642     		cmp	r6, r2
 361 00c4 F9D1     		bne	.L33
 362              	.L10:
 363              		.loc 2 593 0
 364 00c6 7A68     		ldr	r2, [r7, #4]
 365              	.LVL33:
 366              	.LBE168:
 367              	.LBE167:
 368              		.loc 1 165 0
 369 00c8 A968     		ldr	r1, [r5, #8]
 370              	.LBB171:
 371              	.LBB169:
 372              		.loc 2 593 0
 373 00ca C3E90072 		strd	r7, r2, [r3]
 374              		.loc 2 594 0
 375 00ce 1360     		str	r3, [r2]
 376              		.loc 2 595 0
 377 00d0 7B60     		str	r3, [r7, #4]
 378              	.LVL34:
 379              	.LBE169:
 380              	.LBE171:
 381              		.loc 1 174 0
 382 00d2 B368     		ldr	r3, [r6, #8]
 383              	.LVL35:
 384              		.loc 1 165 0
 385 00d4 9A68     		ldr	r2, [r3, #8]
 386 00d6 9142     		cmp	r1, r2
 387 00d8 A0D8     		bhi	.L12
 388 00da A7E7     		b	.L6
 389              	.LVL36:
 390              	.L30:
 391              	.LBB172:
 392              	.LBB155:
 393              		.loc 2 590 0
 394 00dc 1646     		mov	r6, r2
 395              	.LVL37:
 396              		.loc 2 593 0
 397 00de 7268     		ldr	r2, [r6, #4]
 398              	.LVL38:
 399 00e0 C3E90062 		strd	r6, r2, [r3]
ARM GAS  /tmp/ccrvAUSO.s 			page 8


 400              		.loc 2 594 0
 401 00e4 1360     		str	r3, [r2]
 402              		.loc 2 595 0
 403 00e6 7360     		str	r3, [r6, #4]
 404 00e8 A0E7     		b	.L6
 405              	.LVL39:
 406              	.L32:
 407              	.LBE155:
 408              	.LBE172:
 409              	.LBB173:
 410              	.LBB170:
 411              		.loc 2 590 0
 412 00ea 1746     		mov	r7, r2
 413 00ec EBE7     		b	.L10
 414              	.L35:
 415 00ee 00BF     		.align	2
 416              	.L34:
 417 00f0 00000000 		.word	ch
 418              	.LBE170:
 419              	.LBE173:
 420              	.LBE175:
 421              	.LBE177:
 422              	.LBE189:
 423              		.cfi_endproc
 424              	.LFE295:
 425              		.size	chMtxLock, .-chMtxLock
 426              		.section	.text.chMtxLockS,"ax",%progbits
 427              		.align	1
 428              		.p2align 2,,3
 429              		.global	chMtxLockS
 430              		.syntax unified
 431              		.thumb
 432              		.thumb_func
 433              		.fpu fpv4-sp-d16
 434              		.type	chMtxLockS, %function
 435              	chMtxLockS:
 436              	.LFB296:
 437              		.loc 1 139 0
 438              		.cfi_startproc
 439              		@ args = 0, pretend = 0, frame = 0
 440              		@ frame_needed = 0, uses_anonymous_args = 0
 441              	.LVL40:
 442 0000 F8B5     		push	{r3, r4, r5, r6, r7, lr}
 443              		.cfi_def_cfa_offset 24
 444              		.cfi_offset 3, -24
 445              		.cfi_offset 4, -20
 446              		.cfi_offset 5, -16
 447              		.cfi_offset 6, -12
 448              		.cfi_offset 7, -8
 449              		.cfi_offset 14, -4
 450              		.loc 1 140 0
 451 0002 374A     		ldr	r2, .L66
 452              		.loc 1 146 0
 453 0004 8368     		ldr	r3, [r0, #8]
 454              		.loc 1 140 0
 455 0006 9569     		ldr	r5, [r2, #24]
 456              	.LVL41:
ARM GAS  /tmp/ccrvAUSO.s 			page 9


 457              		.loc 1 146 0
 458 0008 002B     		cmp	r3, #0
 459 000a 40D0     		beq	.L58
 460              	.LBB190:
 461              		.loc 1 165 0
 462 000c A968     		ldr	r1, [r5, #8]
 463 000e 9A68     		ldr	r2, [r3, #8]
 464 0010 9142     		cmp	r1, r2
 465 0012 0446     		mov	r4, r0
 466              	.LVL42:
 467 0014 07D9     		bls	.L39
 468              	.LVL43:
 469              	.L45:
 470              		.loc 1 170 0
 471 0016 93F82020 		ldrb	r2, [r3, #32]	@ zero_extendqisi2
 472              		.loc 1 167 0
 473 001a 9960     		str	r1, [r3, #8]
 474              		.loc 1 170 0
 475 001c 062A     		cmp	r2, #6
 476 001e 3BD0     		beq	.L40
 477 0020 072A     		cmp	r2, #7
 478 0022 15D0     		beq	.L41
 479 0024 42B3     		cbz	r2, .L59
 480              	.LVL44:
 481              	.L39:
 482              		.loc 1 212 0
 483 0026 2646     		mov	r6, r4
 484              	.LVL45:
 485 0028 2346     		mov	r3, r4
 486 002a 03E0     		b	.L50
 487              	.LVL46:
 488              	.L61:
 489              	.LBB191:
 490              	.LBB192:
 491              		.loc 2 591 0
 492 002c 9968     		ldr	r1, [r3, #8]
 493 002e AA68     		ldr	r2, [r5, #8]
 494 0030 9142     		cmp	r1, r2
 495 0032 2AD3     		bcc	.L60
 496              	.L50:
 497              		.loc 2 590 0
 498 0034 1B68     		ldr	r3, [r3]
 499              	.LVL47:
 500              		.loc 2 591 0
 501 0036 9C42     		cmp	r4, r3
 502 0038 F8D1     		bne	.L61
 503              	.L49:
 504              		.loc 2 593 0
 505 003a 7368     		ldr	r3, [r6, #4]
 506              	.LVL48:
 507              	.LBE192:
 508              	.LBE191:
 509              		.loc 1 214 0
 510 003c 0620     		movs	r0, #6
 511              	.LBB195:
 512              	.LBB193:
 513              		.loc 2 593 0
ARM GAS  /tmp/ccrvAUSO.s 			page 10


 514 003e C5E90063 		strd	r6, r3, [r5]
 515              		.loc 2 594 0
 516 0042 1D60     		str	r5, [r3]
 517              		.loc 2 595 0
 518 0044 7560     		str	r5, [r6, #4]
 519              	.LVL49:
 520              	.LBE193:
 521              	.LBE195:
 522              		.loc 1 213 0
 523 0046 6C62     		str	r4, [r5, #36]
 524              	.LBE190:
 525              		.loc 1 236 0
 526 0048 BDE8F840 		pop	{r3, r4, r5, r6, r7, lr}
 527              		.cfi_remember_state
 528              		.cfi_restore 14
 529              		.cfi_restore 7
 530              		.cfi_restore 6
 531              		.cfi_restore 5
 532              		.cfi_restore 4
 533              		.cfi_restore 3
 534              		.cfi_def_cfa_offset 0
 535              	.LVL50:
 536              	.LBB221:
 537              		.loc 1 214 0
 538 004c FFF7FEBF 		b	chSchGoSleepS
 539              	.LVL51:
 540              	.L41:
 541              		.cfi_restore_state
 542              	.LBB196:
 543              	.LBB197:
 544              		.loc 2 626 0
 545 0050 D3E90002 		ldrd	r0, r2, [r3]
 546 0054 1060     		str	r0, [r2]
 547              	.LBE197:
 548              	.LBE196:
 549              		.loc 1 193 0
 550 0056 5E6A     		ldr	r6, [r3, #36]
 551              	.LBB199:
 552              	.LBB198:
 553              		.loc 2 627 0
 554 0058 1868     		ldr	r0, [r3]
 555 005a 4260     		str	r2, [r0, #4]
 556              	.LVL52:
 557              	.LBE198:
 558              	.LBE199:
 559              		.loc 1 193 0
 560 005c 3246     		mov	r2, r6
 561 005e 02E0     		b	.L47
 562              	.LVL53:
 563              	.L63:
 564              	.LBB200:
 565              	.LBB201:
 566              		.loc 2 591 0
 567 0060 9068     		ldr	r0, [r2, #8]
 568 0062 8842     		cmp	r0, r1
 569 0064 32D3     		bcc	.L62
 570              	.LVL54:
ARM GAS  /tmp/ccrvAUSO.s 			page 11


 571              	.L47:
 572              		.loc 2 590 0
 573 0066 1268     		ldr	r2, [r2]
 574              	.LVL55:
 575              		.loc 2 591 0
 576 0068 9642     		cmp	r6, r2
 577 006a F9D1     		bne	.L63
 578              		.loc 2 593 0
 579 006c 7268     		ldr	r2, [r6, #4]
 580              	.LVL56:
 581 006e C3E90062 		strd	r6, r2, [r3]
 582              		.loc 2 594 0
 583 0072 1360     		str	r3, [r2]
 584              		.loc 2 595 0
 585 0074 7360     		str	r3, [r6, #4]
 586 0076 D6E7     		b	.L39
 587              	.LVL57:
 588              	.L59:
 589              	.LBE201:
 590              	.LBE200:
 591              	.LBB203:
 592              	.LBB204:
 593              		.loc 2 626 0
 594 0078 D3E90012 		ldrd	r1, r2, [r3]
 595 007c 1160     		str	r1, [r2]
 596              		.loc 2 627 0
 597 007e 1968     		ldr	r1, [r3]
 598              	.LBE204:
 599              	.LBE203:
 600              		.loc 1 202 0
 601 0080 1846     		mov	r0, r3
 602              	.LBB206:
 603              	.LBB205:
 604              		.loc 2 627 0
 605 0082 4A60     		str	r2, [r1, #4]
 606              	.LVL58:
 607              	.LBE205:
 608              	.LBE206:
 609              		.loc 1 202 0
 610 0084 FFF7FEFF 		bl	chSchReadyI
 611              	.LVL59:
 612              		.loc 1 203 0
 613 0088 CDE7     		b	.L39
 614              	.LVL60:
 615              	.L60:
 616              	.LBB207:
 617              	.LBB194:
 618              		.loc 2 590 0
 619 008a 1E46     		mov	r6, r3
 620 008c D5E7     		b	.L49
 621              	.LVL61:
 622              	.L58:
 623              	.LBE194:
 624              	.LBE207:
 625              	.LBE221:
 626              		.loc 1 233 0
 627 008e AB6B     		ldr	r3, [r5, #56]
ARM GAS  /tmp/ccrvAUSO.s 			page 12


 628 0090 C0E90253 		strd	r5, r3, [r0, #8]
 629              		.loc 1 234 0
 630 0094 A863     		str	r0, [r5, #56]
 631              		.loc 1 236 0
 632 0096 F8BD     		pop	{r3, r4, r5, r6, r7, pc}
 633              	.LVL62:
 634              	.L40:
 635              	.LBB222:
 636              	.LBB208:
 637              	.LBB209:
 638              		.loc 2 626 0
 639 0098 D3E90002 		ldrd	r0, r2, [r3]
 640 009c 1060     		str	r0, [r2]
 641              	.LBE209:
 642              	.LBE208:
 643              		.loc 1 173 0
 644 009e 5E6A     		ldr	r6, [r3, #36]
 645              	.LBB212:
 646              	.LBB210:
 647              		.loc 2 627 0
 648 00a0 1868     		ldr	r0, [r3]
 649              	.LBE210:
 650              	.LBE212:
 651              		.loc 1 173 0
 652 00a2 3746     		mov	r7, r6
 653              	.LBB213:
 654              	.LBB211:
 655              		.loc 2 627 0
 656 00a4 4260     		str	r2, [r0, #4]
 657              	.LVL63:
 658              	.LBE211:
 659              	.LBE213:
 660              		.loc 1 173 0
 661 00a6 3246     		mov	r2, r6
 662 00a8 02E0     		b	.L44
 663              	.LVL64:
 664              	.L65:
 665              	.LBB214:
 666              	.LBB215:
 667              		.loc 2 591 0
 668 00aa 9068     		ldr	r0, [r2, #8]
 669 00ac 8842     		cmp	r0, r1
 670 00ae 14D3     		bcc	.L64
 671              	.LVL65:
 672              	.L44:
 673              		.loc 2 590 0
 674 00b0 1268     		ldr	r2, [r2]
 675              	.LVL66:
 676              		.loc 2 591 0
 677 00b2 9642     		cmp	r6, r2
 678 00b4 F9D1     		bne	.L65
 679              	.L43:
 680              		.loc 2 593 0
 681 00b6 7A68     		ldr	r2, [r7, #4]
 682              	.LVL67:
 683              	.LBE215:
 684              	.LBE214:
ARM GAS  /tmp/ccrvAUSO.s 			page 13


 685              		.loc 1 165 0
 686 00b8 A968     		ldr	r1, [r5, #8]
 687              	.LBB218:
 688              	.LBB216:
 689              		.loc 2 593 0
 690 00ba C3E90072 		strd	r7, r2, [r3]
 691              		.loc 2 594 0
 692 00be 1360     		str	r3, [r2]
 693              		.loc 2 595 0
 694 00c0 7B60     		str	r3, [r7, #4]
 695              	.LVL68:
 696              	.LBE216:
 697              	.LBE218:
 698              		.loc 1 174 0
 699 00c2 B368     		ldr	r3, [r6, #8]
 700              	.LVL69:
 701              		.loc 1 165 0
 702 00c4 9A68     		ldr	r2, [r3, #8]
 703 00c6 8A42     		cmp	r2, r1
 704 00c8 A5D3     		bcc	.L45
 705 00ca ACE7     		b	.L39
 706              	.LVL70:
 707              	.L62:
 708              	.LBB219:
 709              	.LBB202:
 710              		.loc 2 590 0
 711 00cc 1646     		mov	r6, r2
 712              	.LVL71:
 713              		.loc 2 593 0
 714 00ce 7268     		ldr	r2, [r6, #4]
 715              	.LVL72:
 716 00d0 C3E90062 		strd	r6, r2, [r3]
 717              		.loc 2 594 0
 718 00d4 1360     		str	r3, [r2]
 719              		.loc 2 595 0
 720 00d6 7360     		str	r3, [r6, #4]
 721 00d8 A5E7     		b	.L39
 722              	.LVL73:
 723              	.L64:
 724              	.LBE202:
 725              	.LBE219:
 726              	.LBB220:
 727              	.LBB217:
 728              		.loc 2 590 0
 729 00da 1746     		mov	r7, r2
 730 00dc EBE7     		b	.L43
 731              	.L67:
 732 00de 00BF     		.align	2
 733              	.L66:
 734 00e0 00000000 		.word	ch
 735              	.LBE217:
 736              	.LBE220:
 737              	.LBE222:
 738              		.cfi_endproc
 739              	.LFE296:
 740              		.size	chMtxLockS, .-chMtxLockS
 741              		.section	.text.chMtxTryLock,"ax",%progbits
ARM GAS  /tmp/ccrvAUSO.s 			page 14


 742              		.align	1
 743              		.p2align 2,,3
 744              		.global	chMtxTryLock
 745              		.syntax unified
 746              		.thumb
 747              		.thumb_func
 748              		.fpu fpv4-sp-d16
 749              		.type	chMtxTryLock, %function
 750              	chMtxTryLock:
 751              	.LFB297:
 752              		.loc 1 255 0
 753              		.cfi_startproc
 754              		@ args = 0, pretend = 0, frame = 0
 755              		@ frame_needed = 0, uses_anonymous_args = 0
 756              		@ link register save eliminated.
 757              	.LVL74:
 758              		.loc 1 255 0
 759 0000 0346     		mov	r3, r0
 760              	.LBB236:
 761              	.LBB237:
 762              	.LBB238:
 763              	.LBB239:
 764              		.loc 3 493 0
 765 0002 2022     		movs	r2, #32
 766              		.syntax unified
 767              	@ 493 "./RM18A-ChibiOS18-Core/chibios/os/common/ext/ARM/CMSIS/Core/Include/cmsis_gcc.h" 1
 768 0004 82F31188 		MSR basepri, r2
 769              	@ 0 "" 2
 770              	.LVL75:
 771              		.thumb
 772              		.syntax unified
 773              	.LBE239:
 774              	.LBE238:
 775              	.LBE237:
 776              	.LBE236:
 777              	.LBB240:
 778              	.LBB241:
 779              		.loc 1 287 0
 780 0008 8268     		ldr	r2, [r0, #8]
 781 000a 22B1     		cbz	r2, .L71
 782              		.loc 1 297 0
 783 000c 0020     		movs	r0, #0
 784              	.LVL76:
 785              	.LBE241:
 786              	.LBE240:
 787              	.LBB245:
 788              	.LBB246:
 789              	.LBB247:
 790              	.LBB248:
 791              	.LBB249:
 792              		.loc 3 493 0
 793 000e 0023     		movs	r3, #0
 794              	.LVL77:
 795              		.syntax unified
 796              	@ 493 "./RM18A-ChibiOS18-Core/chibios/os/common/ext/ARM/CMSIS/Core/Include/cmsis_gcc.h" 1
 797 0010 83F31188 		MSR basepri, r3
 798              	@ 0 "" 2
ARM GAS  /tmp/ccrvAUSO.s 			page 15


 799              	.LVL78:
 800              		.thumb
 801              		.syntax unified
 802              	.LBE249:
 803              	.LBE248:
 804              	.LBE247:
 805              	.LBE246:
 806              	.LBE245:
 807              		.loc 1 263 0
 808 0014 7047     		bx	lr
 809              	.LVL79:
 810              	.L71:
 811              	.LBB254:
 812              	.LBB244:
 813              	.LBB242:
 814              	.LBB243:
 815              		.loc 1 305 0
 816 0016 054A     		ldr	r2, .L72
 817 0018 9269     		ldr	r2, [r2, #24]
 818 001a 8260     		str	r2, [r0, #8]
 819              		.loc 1 306 0
 820 001c 916B     		ldr	r1, [r2, #56]
 821 001e C160     		str	r1, [r0, #12]
 822              		.loc 1 307 0
 823 0020 9363     		str	r3, [r2, #56]
 824              	.LVL80:
 825 0022 0120     		movs	r0, #1
 826              	.LVL81:
 827              	.LBE243:
 828              	.LBE242:
 829              	.LBE244:
 830              	.LBE254:
 831              	.LBB255:
 832              	.LBB253:
 833              	.LBB252:
 834              	.LBB251:
 835              	.LBB250:
 836              		.loc 3 493 0
 837 0024 0023     		movs	r3, #0
 838              	.LVL82:
 839              		.syntax unified
 840              	@ 493 "./RM18A-ChibiOS18-Core/chibios/os/common/ext/ARM/CMSIS/Core/Include/cmsis_gcc.h" 1
 841 0026 83F31188 		MSR basepri, r3
 842              	@ 0 "" 2
 843              	.LVL83:
 844              		.thumb
 845              		.syntax unified
 846              	.LBE250:
 847              	.LBE251:
 848              	.LBE252:
 849              	.LBE253:
 850              	.LBE255:
 851              		.loc 1 263 0
 852 002a 7047     		bx	lr
 853              	.L73:
 854              		.align	2
 855              	.L72:
ARM GAS  /tmp/ccrvAUSO.s 			page 16


 856 002c 00000000 		.word	ch
 857              		.cfi_endproc
 858              	.LFE297:
 859              		.size	chMtxTryLock, .-chMtxTryLock
 860              		.section	.text.chMtxTryLockS,"ax",%progbits
 861              		.align	1
 862              		.p2align 2,,3
 863              		.global	chMtxTryLockS
 864              		.syntax unified
 865              		.thumb
 866              		.thumb_func
 867              		.fpu fpv4-sp-d16
 868              		.type	chMtxTryLockS, %function
 869              	chMtxTryLockS:
 870              	.LFB298:
 871              		.loc 1 282 0
 872              		.cfi_startproc
 873              		@ args = 0, pretend = 0, frame = 0
 874              		@ frame_needed = 0, uses_anonymous_args = 0
 875              		@ link register save eliminated.
 876              	.LVL84:
 877              		.loc 1 287 0
 878 0000 8268     		ldr	r2, [r0, #8]
 879              		.loc 1 282 0
 880 0002 0346     		mov	r3, r0
 881              		.loc 1 287 0
 882 0004 0AB1     		cbz	r2, .L77
 883              		.loc 1 297 0
 884 0006 0020     		movs	r0, #0
 885              	.LVL85:
 886              		.loc 1 309 0
 887 0008 7047     		bx	lr
 888              	.LVL86:
 889              	.L77:
 890              	.LBB258:
 891              	.LBB259:
 892              		.loc 1 305 0
 893 000a 044A     		ldr	r2, .L78
 894 000c 9269     		ldr	r2, [r2, #24]
 895 000e 8260     		str	r2, [r0, #8]
 896              		.loc 1 306 0
 897 0010 916B     		ldr	r1, [r2, #56]
 898 0012 C160     		str	r1, [r0, #12]
 899              		.loc 1 307 0
 900 0014 0120     		movs	r0, #1
 901              	.LVL87:
 902 0016 9363     		str	r3, [r2, #56]
 903              	.LVL88:
 904 0018 7047     		bx	lr
 905              	.L79:
 906 001a 00BF     		.align	2
 907              	.L78:
 908 001c 00000000 		.word	ch
 909              	.LBE259:
 910              	.LBE258:
 911              		.cfi_endproc
 912              	.LFE298:
ARM GAS  /tmp/ccrvAUSO.s 			page 17


 913              		.size	chMtxTryLockS, .-chMtxTryLockS
 914              		.section	.text.chMtxUnlock,"ax",%progbits
 915              		.align	1
 916              		.p2align 2,,3
 917              		.global	chMtxUnlock
 918              		.syntax unified
 919              		.thumb
 920              		.thumb_func
 921              		.fpu fpv4-sp-d16
 922              		.type	chMtxUnlock, %function
 923              	chMtxUnlock:
 924              	.LFB299:
 925              		.loc 1 323 0
 926              		.cfi_startproc
 927              		@ args = 0, pretend = 0, frame = 0
 928              		@ frame_needed = 0, uses_anonymous_args = 0
 929              	.LVL89:
 930              		.loc 1 324 0
 931 0000 174B     		ldr	r3, .L91
 932              		.loc 1 323 0
 933 0002 70B5     		push	{r4, r5, r6, lr}
 934              		.cfi_def_cfa_offset 16
 935              		.cfi_offset 4, -16
 936              		.cfi_offset 5, -12
 937              		.cfi_offset 6, -8
 938              		.cfi_offset 14, -4
 939              		.loc 1 324 0
 940 0004 9D69     		ldr	r5, [r3, #24]
 941              	.LVL90:
 942              	.LBB260:
 943              	.LBB261:
 944              	.LBB262:
 945              	.LBB263:
 946              		.loc 3 493 0
 947 0006 2023     		movs	r3, #32
 948              		.syntax unified
 949              	@ 493 "./RM18A-ChibiOS18-Core/chibios/os/common/ext/ARM/CMSIS/Core/Include/cmsis_gcc.h" 1
 950 0008 83F31188 		MSR basepri, r3
 951              	@ 0 "" 2
 952              	.LVL91:
 953              		.thumb
 954              		.syntax unified
 955              	.LBE263:
 956              	.LBE262:
 957              	.LBE261:
 958              	.LBE260:
 959              	.LBB264:
 960              	.LBB265:
 961              	.LBB266:
 962              	.LBB267:
 963              		.loc 2 566 0
 964 000c 0468     		ldr	r4, [r0]
 965              	.LBE267:
 966              	.LBE266:
 967              	.LBE265:
 968              	.LBE264:
 969              		.loc 1 344 0
ARM GAS  /tmp/ccrvAUSO.s 			page 18


 970 000e C368     		ldr	r3, [r0, #12]
 971 0010 AB63     		str	r3, [r5, #56]
 972              		.loc 1 347 0
 973 0012 8442     		cmp	r4, r0
 974 0014 1DD0     		beq	.L81
 975              	.LBB268:
 976              		.loc 1 352 0
 977 0016 E96B     		ldr	r1, [r5, #60]
 978              	.LVL92:
 979              		.loc 1 354 0
 980 0018 4BB1     		cbz	r3, .L82
 981              	.L84:
 982              	.LVL93:
 983              	.LBB269:
 984              	.LBB270:
 985              	.LBB271:
 986              	.LBB272:
 987              		.loc 2 566 0
 988 001a 1A68     		ldr	r2, [r3]
 989              	.LVL94:
 990              	.LBE272:
 991              	.LBE271:
 992              	.LBE270:
 993              	.LBE269:
 994              		.loc 1 358 0
 995 001c 9342     		cmp	r3, r2
 996 001e 03D0     		beq	.L83
 997 0020 9268     		ldr	r2, [r2, #8]
 998 0022 9142     		cmp	r1, r2
 999 0024 38BF     		it	cc
 1000 0026 1146     		movcc	r1, r2
 1001              	.LVL95:
 1002              	.L83:
 1003              		.loc 1 362 0
 1004 0028 DB68     		ldr	r3, [r3, #12]
 1005              	.LVL96:
 1006              		.loc 1 354 0
 1007 002a 002B     		cmp	r3, #0
 1008 002c F5D1     		bne	.L84
 1009              	.L82:
 1010 002e 0346     		mov	r3, r0
 1011              	.LVL97:
 1012              	.LBB273:
 1013              	.LBB274:
 1014              		.loc 2 609 0
 1015 0030 2268     		ldr	r2, [r4]
 1016              	.LBE274:
 1017              	.LBE273:
 1018              		.loc 1 376 0
 1019 0032 A66B     		ldr	r6, [r4, #56]
 1020              		.loc 1 367 0
 1021 0034 A960     		str	r1, [r5, #8]
 1022              	.LVL98:
 1023              		.loc 1 383 0
 1024 0036 2046     		mov	r0, r4
 1025              	.LVL99:
 1026              	.LBB276:
ARM GAS  /tmp/ccrvAUSO.s 			page 19


 1027              	.LBB275:
 1028              		.loc 2 609 0
 1029 0038 1A60     		str	r2, [r3]
 1030              		.loc 2 610 0
 1031 003a 5360     		str	r3, [r2, #4]
 1032              	.LVL100:
 1033              	.LBE275:
 1034              	.LBE276:
 1035              		.loc 1 376 0
 1036 003c C3E90246 		strd	r4, r6, [r3, #8]
 1037              		.loc 1 377 0
 1038 0040 A363     		str	r3, [r4, #56]
 1039              		.loc 1 383 0
 1040 0042 FFF7FEFF 		bl	chSchReadyI
 1041              	.LVL101:
 1042              		.loc 1 384 0
 1043 0046 FFF7FEFF 		bl	chSchRescheduleS
 1044              	.LVL102:
 1045              	.LBE268:
 1046              	.LBB277:
 1047              	.LBB278:
 1048              	.LBB279:
 1049              	.LBB280:
 1050              	.LBB281:
 1051              		.loc 3 493 0
 1052 004a 0023     		movs	r3, #0
 1053              		.syntax unified
 1054              	@ 493 "./RM18A-ChibiOS18-Core/chibios/os/common/ext/ARM/CMSIS/Core/Include/cmsis_gcc.h" 1
 1055 004c 83F31188 		MSR basepri, r3
 1056              	@ 0 "" 2
 1057              	.LVL103:
 1058              		.thumb
 1059              		.syntax unified
 1060              	.LBE281:
 1061              	.LBE280:
 1062              	.LBE279:
 1063              	.LBE278:
 1064              	.LBE277:
 1065              		.loc 1 394 0
 1066 0050 70BD     		pop	{r4, r5, r6, pc}
 1067              	.LVL104:
 1068              	.L81:
 1069              		.loc 1 387 0
 1070 0052 0023     		movs	r3, #0
 1071 0054 A360     		str	r3, [r4, #8]
 1072              	.LVL105:
 1073              	.LBB286:
 1074              	.LBB285:
 1075              	.LBB284:
 1076              	.LBB283:
 1077              	.LBB282:
 1078              		.loc 3 493 0
 1079 0056 0023     		movs	r3, #0
 1080              		.syntax unified
 1081              	@ 493 "./RM18A-ChibiOS18-Core/chibios/os/common/ext/ARM/CMSIS/Core/Include/cmsis_gcc.h" 1
 1082 0058 83F31188 		MSR basepri, r3
 1083              	@ 0 "" 2
ARM GAS  /tmp/ccrvAUSO.s 			page 20


 1084              	.LVL106:
 1085              		.thumb
 1086              		.syntax unified
 1087              	.LBE282:
 1088              	.LBE283:
 1089              	.LBE284:
 1090              	.LBE285:
 1091              	.LBE286:
 1092              		.loc 1 394 0
 1093 005c 70BD     		pop	{r4, r5, r6, pc}
 1094              	.LVL107:
 1095              	.L92:
 1096 005e 00BF     		.align	2
 1097              	.L91:
 1098 0060 00000000 		.word	ch
 1099              		.cfi_endproc
 1100              	.LFE299:
 1101              		.size	chMtxUnlock, .-chMtxUnlock
 1102              		.section	.text.chMtxUnlockS,"ax",%progbits
 1103              		.align	1
 1104              		.p2align 2,,3
 1105              		.global	chMtxUnlockS
 1106              		.syntax unified
 1107              		.thumb
 1108              		.thumb_func
 1109              		.fpu fpv4-sp-d16
 1110              		.type	chMtxUnlockS, %function
 1111              	chMtxUnlockS:
 1112              	.LFB300:
 1113              		.loc 1 410 0
 1114              		.cfi_startproc
 1115              		@ args = 0, pretend = 0, frame = 0
 1116              		@ frame_needed = 0, uses_anonymous_args = 0
 1117              		@ link register save eliminated.
 1118              	.LVL108:
 1119              		.loc 1 411 0
 1120 0000 124B     		ldr	r3, .L103
 1121              		.loc 1 410 0
 1122 0002 30B4     		push	{r4, r5}
 1123              		.cfi_def_cfa_offset 8
 1124              		.cfi_offset 4, -8
 1125              		.cfi_offset 5, -4
 1126              	.LBB287:
 1127              	.LBB288:
 1128              	.LBB289:
 1129              	.LBB290:
 1130              		.loc 2 566 0
 1131 0004 0468     		ldr	r4, [r0]
 1132              	.LBE290:
 1133              	.LBE289:
 1134              	.LBE288:
 1135              	.LBE287:
 1136              		.loc 1 411 0
 1137 0006 9D69     		ldr	r5, [r3, #24]
 1138              	.LVL109:
 1139              		.loc 1 430 0
 1140 0008 C368     		ldr	r3, [r0, #12]
ARM GAS  /tmp/ccrvAUSO.s 			page 21


 1141 000a AB63     		str	r3, [r5, #56]
 1142              		.loc 1 433 0
 1143 000c 8442     		cmp	r4, r0
 1144 000e 18D0     		beq	.L94
 1145 0010 0146     		mov	r1, r0
 1146              	.LBB291:
 1147              		.loc 1 438 0
 1148 0012 E86B     		ldr	r0, [r5, #60]
 1149              	.LVL110:
 1150              		.loc 1 440 0
 1151 0014 4BB1     		cbz	r3, .L95
 1152              	.L97:
 1153              	.LVL111:
 1154              	.LBB292:
 1155              	.LBB293:
 1156              	.LBB294:
 1157              	.LBB295:
 1158              		.loc 2 566 0
 1159 0016 1A68     		ldr	r2, [r3]
 1160              	.LVL112:
 1161              	.LBE295:
 1162              	.LBE294:
 1163              	.LBE293:
 1164              	.LBE292:
 1165              		.loc 1 444 0
 1166 0018 9342     		cmp	r3, r2
 1167 001a 03D0     		beq	.L96
 1168 001c 9268     		ldr	r2, [r2, #8]
 1169 001e 9042     		cmp	r0, r2
 1170 0020 38BF     		it	cc
 1171 0022 1046     		movcc	r0, r2
 1172              	.LVL113:
 1173              	.L96:
 1174              		.loc 1 448 0
 1175 0024 DB68     		ldr	r3, [r3, #12]
 1176              	.LVL114:
 1177              		.loc 1 440 0
 1178 0026 002B     		cmp	r3, #0
 1179 0028 F5D1     		bne	.L97
 1180              	.L95:
 1181              		.loc 1 462 0
 1182 002a A26B     		ldr	r2, [r4, #56]
 1183              	.LBB296:
 1184              	.LBB297:
 1185              		.loc 2 609 0
 1186 002c 2368     		ldr	r3, [r4]
 1187              	.LVL115:
 1188              	.LBE297:
 1189              	.LBE296:
 1190              		.loc 1 453 0
 1191 002e A860     		str	r0, [r5, #8]
 1192              	.LVL116:
 1193              	.LBB300:
 1194              	.LBB298:
 1195              		.loc 2 609 0
 1196 0030 0B60     		str	r3, [r1]
 1197              	.LBE298:
ARM GAS  /tmp/ccrvAUSO.s 			page 22


 1198              	.LBE300:
 1199              		.loc 1 464 0
 1200 0032 2046     		mov	r0, r4
 1201              	.LVL117:
 1202              	.LBB301:
 1203              	.LBB299:
 1204              		.loc 2 610 0
 1205 0034 5960     		str	r1, [r3, #4]
 1206              	.LVL118:
 1207              	.LBE299:
 1208              	.LBE301:
 1209              		.loc 1 462 0
 1210 0036 C1E90242 		strd	r4, r2, [r1, #8]
 1211              		.loc 1 463 0
 1212 003a A163     		str	r1, [r4, #56]
 1213              	.LBE291:
 1214              		.loc 1 472 0
 1215 003c 30BC     		pop	{r4, r5}
 1216              		.cfi_remember_state
 1217              		.cfi_restore 5
 1218              		.cfi_restore 4
 1219              		.cfi_def_cfa_offset 0
 1220              	.LVL119:
 1221              	.LBB302:
 1222              		.loc 1 464 0
 1223 003e FFF7FEBF 		b	chSchReadyI
 1224              	.LVL120:
 1225              	.L94:
 1226              		.cfi_restore_state
 1227              	.LBE302:
 1228              		.loc 1 467 0
 1229 0042 0023     		movs	r3, #0
 1230 0044 A360     		str	r3, [r4, #8]
 1231              		.loc 1 472 0
 1232 0046 30BC     		pop	{r4, r5}
 1233              		.cfi_restore 5
 1234              		.cfi_restore 4
 1235              		.cfi_def_cfa_offset 0
 1236              	.LVL121:
 1237 0048 7047     		bx	lr
 1238              	.L104:
 1239 004a 00BF     		.align	2
 1240              	.L103:
 1241 004c 00000000 		.word	ch
 1242              		.cfi_endproc
 1243              	.LFE300:
 1244              		.size	chMtxUnlockS, .-chMtxUnlockS
 1245              		.section	.text.chMtxUnlockAllS,"ax",%progbits
 1246              		.align	1
 1247              		.p2align 2,,3
 1248              		.global	chMtxUnlockAllS
 1249              		.syntax unified
 1250              		.thumb
 1251              		.thumb_func
 1252              		.fpu fpv4-sp-d16
 1253              		.type	chMtxUnlockAllS, %function
 1254              	chMtxUnlockAllS:
ARM GAS  /tmp/ccrvAUSO.s 			page 23


 1255              	.LFB301:
 1256              		.loc 1 487 0
 1257              		.cfi_startproc
 1258              		@ args = 0, pretend = 0, frame = 0
 1259              		@ frame_needed = 0, uses_anonymous_args = 0
 1260              		.loc 1 488 0
 1261 0000 0E4B     		ldr	r3, .L112
 1262              		.loc 1 487 0
 1263 0002 70B5     		push	{r4, r5, r6, lr}
 1264              		.cfi_def_cfa_offset 16
 1265              		.cfi_offset 4, -16
 1266              		.cfi_offset 5, -12
 1267              		.cfi_offset 6, -8
 1268              		.cfi_offset 14, -4
 1269              		.loc 1 488 0
 1270 0004 9C69     		ldr	r4, [r3, #24]
 1271              	.LVL122:
 1272 0006 A36B     		ldr	r3, [r4, #56]
 1273              	.LBB303:
 1274              		.loc 1 507 0
 1275 0008 0026     		movs	r6, #0
 1276              	.L106:
 1277              	.LVL123:
 1278              	.LBE303:
 1279              		.loc 1 490 0
 1280 000a 8BB1     		cbz	r3, .L111
 1281              	.L109:
 1282              	.LBB312:
 1283              	.LBB304:
 1284              	.LBB305:
 1285              	.LBB306:
 1286              	.LBB307:
 1287              		.loc 2 566 0
 1288 000c 1A68     		ldr	r2, [r3]
 1289              	.LVL124:
 1290              	.LBE307:
 1291              	.LBE306:
 1292              	.LBE305:
 1293              	.LBE304:
 1294              		.loc 1 492 0
 1295 000e D968     		ldr	r1, [r3, #12]
 1296 0010 A163     		str	r1, [r4, #56]
 1297              		.loc 1 493 0
 1298 0012 9342     		cmp	r3, r2
 1299              	.LBB308:
 1300              		.loc 1 501 0
 1301 0014 1046     		mov	r0, r2
 1302              	.LBE308:
 1303              		.loc 1 493 0
 1304 0016 0ED0     		beq	.L107
 1305              	.LBB311:
 1306              		.loc 1 499 0
 1307 0018 956B     		ldr	r5, [r2, #56]
 1308              	.LBB309:
 1309              	.LBB310:
 1310              		.loc 2 609 0
 1311 001a 1168     		ldr	r1, [r2]
ARM GAS  /tmp/ccrvAUSO.s 			page 24


 1312 001c 1960     		str	r1, [r3]
 1313              		.loc 2 610 0
 1314 001e 4B60     		str	r3, [r1, #4]
 1315              	.LVL125:
 1316              	.LBE310:
 1317              	.LBE309:
 1318              		.loc 1 499 0
 1319 0020 C3E90225 		strd	r2, r5, [r3, #8]
 1320              		.loc 1 500 0
 1321 0024 9363     		str	r3, [r2, #56]
 1322              		.loc 1 501 0
 1323 0026 FFF7FEFF 		bl	chSchReadyI
 1324              	.LVL126:
 1325 002a A36B     		ldr	r3, [r4, #56]
 1326              	.LVL127:
 1327              	.LBE311:
 1328              	.LBE312:
 1329              		.loc 1 490 0
 1330 002c 002B     		cmp	r3, #0
 1331 002e EDD1     		bne	.L109
 1332              	.L111:
 1333              		.loc 1 510 0
 1334 0030 E36B     		ldr	r3, [r4, #60]
 1335              	.LVL128:
 1336 0032 A360     		str	r3, [r4, #8]
 1337              		.loc 1 511 0
 1338 0034 70BD     		pop	{r4, r5, r6, pc}
 1339              	.LVL129:
 1340              	.L107:
 1341              	.LBB313:
 1342              		.loc 1 507 0
 1343 0036 9E60     		str	r6, [r3, #8]
 1344 0038 0B46     		mov	r3, r1
 1345              	.LVL130:
 1346 003a E6E7     		b	.L106
 1347              	.L113:
 1348              		.align	2
 1349              	.L112:
 1350 003c 00000000 		.word	ch
 1351              	.LBE313:
 1352              		.cfi_endproc
 1353              	.LFE301:
 1354              		.size	chMtxUnlockAllS, .-chMtxUnlockAllS
 1355              		.section	.text.chMtxUnlockAll,"ax",%progbits
 1356              		.align	1
 1357              		.p2align 2,,3
 1358              		.global	chMtxUnlockAll
 1359              		.syntax unified
 1360              		.thumb
 1361              		.thumb_func
 1362              		.fpu fpv4-sp-d16
 1363              		.type	chMtxUnlockAll, %function
 1364              	chMtxUnlockAll:
 1365              	.LFB302:
 1366              		.loc 1 524 0
 1367              		.cfi_startproc
 1368              		@ args = 0, pretend = 0, frame = 0
ARM GAS  /tmp/ccrvAUSO.s 			page 25


 1369              		@ frame_needed = 0, uses_anonymous_args = 0
 1370              		.loc 1 525 0
 1371 0000 134A     		ldr	r2, .L123
 1372              		.loc 1 524 0
 1373 0002 70B5     		push	{r4, r5, r6, lr}
 1374              		.cfi_def_cfa_offset 16
 1375              		.cfi_offset 4, -16
 1376              		.cfi_offset 5, -12
 1377              		.cfi_offset 6, -8
 1378              		.cfi_offset 14, -4
 1379              	.LBB314:
 1380              	.LBB315:
 1381              	.LBB316:
 1382              	.LBB317:
 1383              		.loc 3 493 0
 1384 0004 2023     		movs	r3, #32
 1385              	.LBE317:
 1386              	.LBE316:
 1387              	.LBE315:
 1388              	.LBE314:
 1389              		.loc 1 525 0
 1390 0006 9469     		ldr	r4, [r2, #24]
 1391              	.LVL131:
 1392              	.LBB321:
 1393              	.LBB320:
 1394              	.LBB319:
 1395              	.LBB318:
 1396              		.loc 3 493 0
 1397              		.syntax unified
 1398              	@ 493 "./RM18A-ChibiOS18-Core/chibios/os/common/ext/ARM/CMSIS/Core/Include/cmsis_gcc.h" 1
 1399 0008 83F31188 		MSR basepri, r3
 1400              	@ 0 "" 2
 1401              	.LVL132:
 1402              		.thumb
 1403              		.syntax unified
 1404              	.LBE318:
 1405              	.LBE319:
 1406              	.LBE320:
 1407              	.LBE321:
 1408              		.loc 1 528 0
 1409 000c A36B     		ldr	r3, [r4, #56]
 1410 000e B3B1     		cbz	r3, .L116
 1411              	.LBB322:
 1412              		.loc 1 546 0
 1413 0010 0026     		movs	r6, #0
 1414              	.L115:
 1415              	.LVL133:
 1416              	.LBB323:
 1417              	.LBB324:
 1418              	.LBB325:
 1419              	.LBB326:
 1420              		.loc 2 566 0
 1421 0012 1A68     		ldr	r2, [r3]
 1422              	.LVL134:
 1423              	.LBE326:
 1424              	.LBE325:
 1425              	.LBE324:
ARM GAS  /tmp/ccrvAUSO.s 			page 26


 1426              	.LBE323:
 1427              		.loc 1 531 0
 1428 0014 D968     		ldr	r1, [r3, #12]
 1429 0016 A163     		str	r1, [r4, #56]
 1430              	.LVL135:
 1431              		.loc 1 532 0
 1432 0018 9342     		cmp	r3, r2
 1433              	.LBB327:
 1434              		.loc 1 540 0
 1435 001a 1046     		mov	r0, r2
 1436              	.LBE327:
 1437              		.loc 1 532 0
 1438 001c 13D0     		beq	.L117
 1439              	.LBB330:
 1440              		.loc 1 538 0
 1441 001e 956B     		ldr	r5, [r2, #56]
 1442              	.LBB328:
 1443              	.LBB329:
 1444              		.loc 2 609 0
 1445 0020 1168     		ldr	r1, [r2]
 1446 0022 1960     		str	r1, [r3]
 1447              		.loc 2 610 0
 1448 0024 4B60     		str	r3, [r1, #4]
 1449              	.LVL136:
 1450              	.LBE329:
 1451              	.LBE328:
 1452              		.loc 1 538 0
 1453 0026 C3E90225 		strd	r2, r5, [r3, #8]
 1454              		.loc 1 539 0
 1455 002a 9363     		str	r3, [r2, #56]
 1456              		.loc 1 540 0
 1457 002c FFF7FEFF 		bl	chSchReadyI
 1458              	.LVL137:
 1459 0030 A36B     		ldr	r3, [r4, #56]
 1460              	.LBE330:
 1461              	.LBE322:
 1462              		.loc 1 548 0
 1463 0032 002B     		cmp	r3, #0
 1464 0034 EDD1     		bne	.L115
 1465              	.L119:
 1466              		.loc 1 549 0
 1467 0036 E36B     		ldr	r3, [r4, #60]
 1468 0038 A360     		str	r3, [r4, #8]
 1469              		.loc 1 550 0
 1470 003a FFF7FEFF 		bl	chSchRescheduleS
 1471              	.LVL138:
 1472              	.L116:
 1473              	.LBB331:
 1474              	.LBB332:
 1475              	.LBB333:
 1476              	.LBB334:
 1477              	.LBB335:
 1478              		.loc 3 493 0
 1479 003e 0023     		movs	r3, #0
 1480              		.syntax unified
 1481              	@ 493 "./RM18A-ChibiOS18-Core/chibios/os/common/ext/ARM/CMSIS/Core/Include/cmsis_gcc.h" 1
 1482 0040 83F31188 		MSR basepri, r3
ARM GAS  /tmp/ccrvAUSO.s 			page 27


 1483              	@ 0 "" 2
 1484              	.LVL139:
 1485              		.thumb
 1486              		.syntax unified
 1487              	.LBE335:
 1488              	.LBE334:
 1489              	.LBE333:
 1490              	.LBE332:
 1491              	.LBE331:
 1492              		.loc 1 553 0
 1493 0044 70BD     		pop	{r4, r5, r6, pc}
 1494              	.LVL140:
 1495              	.L117:
 1496              	.LBB336:
 1497              		.loc 1 546 0
 1498 0046 9E60     		str	r6, [r3, #8]
 1499              	.LBE336:
 1500              		.loc 1 548 0
 1501 0048 0029     		cmp	r1, #0
 1502 004a F4D0     		beq	.L119
 1503 004c 0B46     		mov	r3, r1
 1504              	.LVL141:
 1505 004e E0E7     		b	.L115
 1506              	.L124:
 1507              		.align	2
 1508              	.L123:
 1509 0050 00000000 		.word	ch
 1510              		.cfi_endproc
 1511              	.LFE302:
 1512              		.size	chMtxUnlockAll, .-chMtxUnlockAll
 1513              		.text
 1514              	.Letext0:
 1515              		.file 4 "/usr/lib/gcc/arm-none-eabi/7.3.1/include/stddef.h"
 1516              		.file 5 "/usr/arm-none-eabi/include/machine/_default_types.h"
 1517              		.file 6 "/usr/arm-none-eabi/include/sys/_stdint.h"
 1518              		.file 7 "./RM18A-ChibiOS18-Core/chibios/os/common/ports/ARMCMx/compilers/GCC/chtypes.h"
 1519              		.file 8 "./RM18A-ChibiOS18-Core/chibios/os/rt/include/chsystypes.h"
 1520              		.file 9 "./RM18A-ChibiOS18-Core/chibios/os/rt/include/chtime.h"
 1521              		.file 10 "./RM18A-ChibiOS18-Core/chibios/os/common/ext/ARM/CMSIS/Core/Include/core_cm4.h"
 1522              		.file 11 "./RM18A-ChibiOS18-Core/chibios/os/common/ext/ST/STM32F4xx/system_stm32f4xx.h"
 1523              		.file 12 "./RM18A-ChibiOS18-Core/chibios/os/common/ports/ARMCMx/chcore.h"
 1524              		.file 13 "./RM18A-ChibiOS18-Core/chibios/os/common/ports/ARMCMx/chcore_v7m.h"
 1525              		.file 14 "./RM18A-ChibiOS18-Core/chibios/os/rt/include/chtm.h"
 1526              		.file 15 "./RM18A-ChibiOS18-Core/chibios/os/rt/include/chsem.h"
 1527              		.file 16 "./RM18A-ChibiOS18-Core/chibios/os/rt/include/chmtx.h"
 1528              		.file 17 "./RM18A-ChibiOS18-Core/chibios/os/rt/include/chsys.h"
 1529              		.file 18 "./RM18A-ChibiOS18-Core/chibios/os/rt/include/chregistry.h"
 1530              		.file 19 "./RM18A-ChibiOS18-Core/chibios/os/oslib/include/chmemcore.h"
 1531              		.file 20 "./RM18A-ChibiOS18-Core/chibios/os/oslib/include/chmempools.h"
 1532              		.file 21 "./RM18A-ChibiOS18-Core/chibios/os/oslib/include/chfactory.h"