ARM GAS  /tmp/ccBcczvz.s 			page 1


   1              		.cpu cortex-m4
   2              		.eabi_attribute 27, 1
   3              		.eabi_attribute 28, 1
   4              		.eabi_attribute 20, 1
   5              		.eabi_attribute 21, 1
   6              		.eabi_attribute 23, 3
   7              		.eabi_attribute 24, 1
   8              		.eabi_attribute 25, 1
   9              		.eabi_attribute 26, 1
  10              		.eabi_attribute 30, 2
  11              		.eabi_attribute 34, 1
  12              		.eabi_attribute 18, 4
  13              		.file	"chpipes.c"
  14              		.text
  15              	.Ltext0:
  16              		.cfi_sections	.debug_frame
  17              		.section	.text.chPipeObjectInit,"ax",%progbits
  18              		.align	1
  19              		.p2align 2,,3
  20              		.global	chPipeObjectInit
  21              		.syntax unified
  22              		.thumb
  23              		.thumb_func
  24              		.fpu fpv4-sp-d16
  25              		.type	chPipeObjectInit, %function
  26              	chPipeObjectInit:
  27              	.LFB296:
  28              		.file 1 "./RM18A-ChibiOS18-Core/chibios/os/oslib/src/chpipes.c"
  29              		.loc 1 207 0
  30              		.cfi_startproc
  31              		@ args = 0, pretend = 0, frame = 0
  32              		@ frame_needed = 0, uses_anonymous_args = 0
  33              	.LVL0:
  34 0000 10B5     		push	{r4, lr}
  35              		.cfi_def_cfa_offset 8
  36              		.cfi_offset 4, -8
  37              		.cfi_offset 14, -4
  38              		.loc 1 215 0
  39 0002 0023     		movs	r3, #0
  40              		.loc 1 214 0
  41 0004 0A44     		add	r2, r2, r1
  42              	.LVL1:
  43              		.loc 1 207 0
  44 0006 0446     		mov	r4, r0
  45              		.loc 1 215 0
  46 0008 0361     		str	r3, [r0, #16]
  47              		.loc 1 216 0
  48 000a 0375     		strb	r3, [r0, #20]
  49              		.loc 1 211 0
  50 000c C0E90012 		strd	r1, r2, [r0]
  51              		.loc 1 213 0
  52 0010 C0E90211 		strd	r1, r1, [r0, #8]
  53              		.loc 1 218 0
  54 0014 C0E90633 		strd	r3, r3, [r0, #24]
  55              		.loc 1 219 0
  56 0018 2030     		adds	r0, r0, #32
  57              	.LVL2:
ARM GAS  /tmp/ccBcczvz.s 			page 2


  58 001a FFF7FEFF 		bl	chMtxObjectInit
  59              	.LVL3:
  60              		.loc 1 220 0
  61 001e 04F13000 		add	r0, r4, #48
  62 0022 FFF7FEFF 		bl	chMtxObjectInit
  63              	.LVL4:
  64              		.loc 1 221 0
  65 0026 04F14000 		add	r0, r4, #64
  66              		.loc 1 222 0
  67 002a BDE81040 		pop	{r4, lr}
  68              		.cfi_restore 14
  69              		.cfi_restore 4
  70              		.cfi_def_cfa_offset 0
  71              	.LVL5:
  72              		.loc 1 221 0
  73 002e FFF7FEBF 		b	chMtxObjectInit
  74              	.LVL6:
  75              		.cfi_endproc
  76              	.LFE296:
  77              		.size	chPipeObjectInit, .-chPipeObjectInit
  78 0032 00BF     		.section	.text.chPipeReset,"ax",%progbits
  79              		.align	1
  80              		.p2align 2,,3
  81              		.global	chPipeReset
  82              		.syntax unified
  83              		.thumb
  84              		.thumb_func
  85              		.fpu fpv4-sp-d16
  86              		.type	chPipeReset, %function
  87              	chPipeReset:
  88              	.LFB297:
  89              		.loc 1 236 0
  90              		.cfi_startproc
  91              		@ args = 0, pretend = 0, frame = 0
  92              		@ frame_needed = 0, uses_anonymous_args = 0
  93              	.LVL7:
  94 0000 70B5     		push	{r4, r5, r6, lr}
  95              		.cfi_def_cfa_offset 16
  96              		.cfi_offset 4, -16
  97              		.cfi_offset 5, -12
  98              		.cfi_offset 6, -8
  99              		.cfi_offset 14, -4
 100              		.loc 1 236 0
 101 0002 0446     		mov	r4, r0
 102              		.loc 1 240 0
 103 0004 00F12005 		add	r5, r0, #32
 104 0008 2846     		mov	r0, r5
 105              	.LVL8:
 106 000a FFF7FEFF 		bl	chMtxLock
 107              	.LVL9:
 108              		.loc 1 242 0
 109 000e 2368     		ldr	r3, [r4]
 110              		.loc 1 244 0
 111 0010 0026     		movs	r6, #0
 112              		.loc 1 245 0
 113 0012 0122     		movs	r2, #1
 114              		.loc 1 243 0
ARM GAS  /tmp/ccBcczvz.s 			page 3


 115 0014 C4E90233 		strd	r3, r3, [r4, #8]
 116              		.loc 1 245 0
 117 0018 2275     		strb	r2, [r4, #20]
 118              	.LVL10:
 119              		.loc 1 244 0
 120 001a 2661     		str	r6, [r4, #16]
 121              	.LBB64:
 122              	.LBB65:
 123              	.LBB66:
 124              	.LBB67:
 125              		.file 2 "./RM18A-ChibiOS18-Core/chibios/os/common/ext/ARM/CMSIS/Core/Include/cmsis_gcc.h"
 126              		.loc 2 493 0
 127 001c 2023     		movs	r3, #32
 128              		.syntax unified
 129              	@ 493 "./RM18A-ChibiOS18-Core/chibios/os/common/ext/ARM/CMSIS/Core/Include/cmsis_gcc.h" 1
 130 001e 83F31188 		MSR basepri, r3
 131              	@ 0 "" 2
 132              	.LVL11:
 133              		.thumb
 134              		.syntax unified
 135              	.LBE67:
 136              	.LBE66:
 137              	.LBE65:
 138              	.LBE64:
 139              		.loc 1 248 0
 140 0022 6FF00101 		mvn	r1, #1
 141 0026 04F11800 		add	r0, r4, #24
 142 002a FFF7FEFF 		bl	chThdResumeI
 143              	.LVL12:
 144              		.loc 1 249 0
 145 002e 04F11C00 		add	r0, r4, #28
 146 0032 6FF00101 		mvn	r1, #1
 147 0036 FFF7FEFF 		bl	chThdResumeI
 148              	.LVL13:
 149              		.loc 1 250 0
 150 003a FFF7FEFF 		bl	chSchRescheduleS
 151              	.LVL14:
 152              	.LBB68:
 153              	.LBB69:
 154              	.LBB70:
 155              	.LBB71:
 156              	.LBB72:
 157              		.loc 2 493 0
 158              		.syntax unified
 159              	@ 493 "./RM18A-ChibiOS18-Core/chibios/os/common/ext/ARM/CMSIS/Core/Include/cmsis_gcc.h" 1
 160 003e 86F31188 		MSR basepri, r6
 161              	@ 0 "" 2
 162              	.LVL15:
 163              		.thumb
 164              		.syntax unified
 165              	.LBE72:
 166              	.LBE71:
 167              	.LBE70:
 168              	.LBE69:
 169              	.LBE68:
 170              		.loc 1 253 0
 171 0042 2846     		mov	r0, r5
ARM GAS  /tmp/ccBcczvz.s 			page 4


 172              		.loc 1 254 0
 173 0044 BDE87040 		pop	{r4, r5, r6, lr}
 174              		.cfi_restore 14
 175              		.cfi_restore 6
 176              		.cfi_restore 5
 177              		.cfi_restore 4
 178              		.cfi_def_cfa_offset 0
 179              	.LVL16:
 180              		.loc 1 253 0
 181 0048 FFF7FEBF 		b	chMtxUnlock
 182              	.LVL17:
 183              		.cfi_endproc
 184              	.LFE297:
 185              		.size	chPipeReset, .-chPipeReset
 186              		.section	.text.chPipeWriteTimeout,"ax",%progbits
 187              		.align	1
 188              		.p2align 2,,3
 189              		.global	chPipeWriteTimeout
 190              		.syntax unified
 191              		.thumb
 192              		.thumb_func
 193              		.fpu fpv4-sp-d16
 194              		.type	chPipeWriteTimeout, %function
 195              	chPipeWriteTimeout:
 196              	.LFB298:
 197              		.loc 1 279 0
 198              		.cfi_startproc
 199              		@ args = 0, pretend = 0, frame = 16
 200              		@ frame_needed = 0, uses_anonymous_args = 0
 201              	.LVL18:
 202 0000 2DE9F04F 		push	{r4, r5, r6, r7, r8, r9, r10, fp, lr}
 203              		.cfi_def_cfa_offset 36
 204              		.cfi_offset 4, -36
 205              		.cfi_offset 5, -32
 206              		.cfi_offset 6, -28
 207              		.cfi_offset 7, -24
 208              		.cfi_offset 8, -20
 209              		.cfi_offset 9, -16
 210              		.cfi_offset 10, -12
 211              		.cfi_offset 11, -8
 212              		.cfi_offset 14, -4
 213 0004 0F46     		mov	r7, r1
 214              		.loc 1 285 0
 215 0006 017D     		ldrb	r1, [r0, #20]	@ zero_extendqisi2
 216              	.LVL19:
 217              		.loc 1 279 0
 218 0008 85B0     		sub	sp, sp, #20
 219              		.cfi_def_cfa_offset 56
 220              		.loc 1 279 0
 221 000a CDE90132 		strd	r3, r2, [sp, #4]
 222              		.loc 1 285 0
 223 000e 29B1     		cbz	r1, .L24
 224              		.loc 1 286 0
 225 0010 4FF00008 		mov	r8, #0
 226              		.loc 1 319 0
 227 0014 4046     		mov	r0, r8
 228              	.LVL20:
ARM GAS  /tmp/ccBcczvz.s 			page 5


 229 0016 05B0     		add	sp, sp, #20
 230              		.cfi_remember_state
 231              		.cfi_def_cfa_offset 36
 232              		@ sp needed
 233 0018 BDE8F08F 		pop	{r4, r5, r6, r7, r8, r9, r10, fp, pc}
 234              	.LVL21:
 235              	.L24:
 236              		.cfi_restore_state
 237              		.loc 1 289 0
 238 001c 00F13003 		add	r3, r0, #48
 239              	.LVL22:
 240 0020 0546     		mov	r5, r0
 241 0022 1846     		mov	r0, r3
 242              	.LVL23:
 243 0024 0393     		str	r3, [sp, #12]
 244 0026 FFF7FEFF 		bl	chMtxLock
 245              	.LVL24:
 246              		.loc 1 291 0
 247 002a 029B     		ldr	r3, [sp, #8]
 248 002c 002B     		cmp	r3, #0
 249 002e 3ED0     		beq	.L8
 250 0030 05F12009 		add	r9, r5, #32
 251 0034 9846     		mov	r8, r3
 252              	.LBB90:
 253              		.loc 1 312 0
 254 0036 05F11C0A 		add	r10, r5, #28
 255              	.LVL25:
 256              	.L9:
 257              	.LBB91:
 258              	.LBB92:
 259              		.loc 1 108 0
 260 003a 4846     		mov	r0, r9
 261 003c FFF7FEFF 		bl	chMtxLock
 262              	.LVL26:
 263              	.LBB93:
 264              	.LBB94:
 265              	.LBB95:
 266              	.LBB96:
 267              		.file 3 "./RM18A-ChibiOS18-Core/chibios/os/oslib/include/chpipes.h"
 268              		.loc 3 162 0
 269 0040 D5E90046 		ldrd	r4, r6, [r5]
 270              	.LBE96:
 271              	.LBE95:
 272              		.loc 3 189 0
 273 0044 2A69     		ldr	r2, [r5, #16]
 274              	.LVL27:
 275              	.LBE94:
 276              	.LBE93:
 277              		.loc 1 118 0
 278 0046 AB68     		ldr	r3, [r5, #8]
 279              	.LBB100:
 280              	.LBB99:
 281              	.LBB98:
 282              	.LBB97:
 283              		.loc 3 162 0
 284 0048 341B     		subs	r4, r6, r4
 285              	.LBE97:
ARM GAS  /tmp/ccBcczvz.s 			page 6


 286              	.LBE98:
 287              		.loc 3 189 0
 288 004a A41A     		subs	r4, r4, r2
 289 004c 4445     		cmp	r4, r8
 290 004e 28BF     		it	cs
 291 0050 4446     		movcs	r4, r8
 292              	.LVL28:
 293              	.LBE99:
 294              	.LBE100:
 295              		.loc 1 118 0
 296 0052 F61A     		subs	r6, r6, r3
 297              	.LVL29:
 298              		.loc 1 114 0
 299 0054 2244     		add	r2, r2, r4
 300              		.loc 1 121 0
 301 0056 B442     		cmp	r4, r6
 302              		.loc 1 114 0
 303 0058 2A61     		str	r2, [r5, #16]
 304              		.loc 1 121 0
 305 005a 3CD3     		bcc	.L25
 306              		.loc 1 126 0
 307 005c 3246     		mov	r2, r6
 308 005e 3946     		mov	r1, r7
 309              		.loc 1 128 0
 310 0060 A4EB060B 		sub	fp, r4, r6
 311              		.loc 1 126 0
 312 0064 1846     		mov	r0, r3
 313              		.loc 1 125 0
 314 0066 2BD8     		bhi	.L26
 315              		.loc 1 133 0
 316 0068 2246     		mov	r2, r4
 317 006a FFF7FEFF 		bl	memcpy
 318              	.LVL30:
 319              		.loc 1 134 0
 320 006e 2B68     		ldr	r3, [r5]
 321 0070 AB60     		str	r3, [r5, #8]
 322              	.LVL31:
 323              	.L11:
 324              		.loc 1 137 0
 325 0072 4846     		mov	r0, r9
 326 0074 FFF7FEFF 		bl	chMtxUnlock
 327              	.LVL32:
 328              	.LBE92:
 329              	.LBE91:
 330              		.loc 1 312 0
 331 0078 0021     		movs	r1, #0
 332 007a 5046     		mov	r0, r10
 333              		.loc 1 295 0
 334 007c 7CB9     		cbnz	r4, .L13
 335              	.LBB102:
 336              	.LBB103:
 337              	.LBB104:
 338              	.LBB105:
 339              	.LBB106:
 340              		.loc 2 493 0
 341 007e 2023     		movs	r3, #32
 342              		.syntax unified
ARM GAS  /tmp/ccBcczvz.s 			page 7


 343              	@ 493 "./RM18A-ChibiOS18-Core/chibios/os/common/ext/ARM/CMSIS/Core/Include/cmsis_gcc.h" 1
 344 0080 83F31188 		MSR basepri, r3
 345              	@ 0 "" 2
 346              	.LVL33:
 347              		.thumb
 348              		.syntax unified
 349              	.LBE106:
 350              	.LBE105:
 351              	.LBE104:
 352              	.LBE103:
 353              		.loc 1 299 0
 354 0084 0199     		ldr	r1, [sp, #4]
 355 0086 05F11800 		add	r0, r5, #24
 356 008a FFF7FEFF 		bl	chThdSuspendTimeoutS
 357              	.LVL34:
 358              	.LBB107:
 359              	.LBB108:
 360              	.LBB109:
 361              	.LBB110:
 362              	.LBB111:
 363              		.loc 2 493 0
 364              		.syntax unified
 365              	@ 493 "./RM18A-ChibiOS18-Core/chibios/os/common/ext/ARM/CMSIS/Core/Include/cmsis_gcc.h" 1
 366 008e 84F31188 		MSR basepri, r4
 367              	@ 0 "" 2
 368              	.LVL35:
 369              		.thumb
 370              		.syntax unified
 371              	.LBE111:
 372              	.LBE110:
 373              	.LBE109:
 374              	.LBE108:
 375              	.LBE107:
 376              		.loc 1 303 0
 377 0092 0028     		cmp	r0, #0
 378 0094 D1D0     		beq	.L9
 379 0096 029B     		ldr	r3, [sp, #8]
 380 0098 A3EB0808 		sub	r8, r3, r8
 381              	.LVL36:
 382 009c 09E0     		b	.L15
 383              	.LVL37:
 384              	.L13:
 385              	.LBE102:
 386              		.loc 1 308 0
 387 009e A8EB0408 		sub	r8, r8, r4
 388              	.LVL38:
 389              		.loc 1 309 0
 390 00a2 2744     		add	r7, r7, r4
 391              	.LVL39:
 392              		.loc 1 312 0
 393 00a4 FFF7FEFF 		bl	chThdResume
 394              	.LVL40:
 395              	.LBE90:
 396              		.loc 1 291 0
 397 00a8 B8F1000F 		cmp	r8, #0
 398 00ac C5D1     		bne	.L9
 399              	.LVL41:
ARM GAS  /tmp/ccBcczvz.s 			page 8


 400              	.L8:
 401 00ae DDF80880 		ldr	r8, [sp, #8]
 402              	.L15:
 403              		.loc 1 316 0
 404 00b2 0398     		ldr	r0, [sp, #12]
 405 00b4 FFF7FEFF 		bl	chMtxUnlock
 406              	.LVL42:
 407              		.loc 1 319 0
 408 00b8 4046     		mov	r0, r8
 409 00ba 05B0     		add	sp, sp, #20
 410              		.cfi_remember_state
 411              		.cfi_def_cfa_offset 36
 412              		@ sp needed
 413 00bc BDE8F08F 		pop	{r4, r5, r6, r7, r8, r9, r10, fp, pc}
 414              	.LVL43:
 415              	.L26:
 416              		.cfi_restore_state
 417              	.LBB113:
 418              	.LBB112:
 419              	.LBB101:
 420              		.loc 1 126 0
 421 00c0 FFF7FEFF 		bl	memcpy
 422              	.LVL44:
 423              		.loc 1 129 0
 424 00c4 B919     		adds	r1, r7, r6
 425              	.LVL45:
 426 00c6 5A46     		mov	r2, fp
 427 00c8 2868     		ldr	r0, [r5]
 428 00ca FFF7FEFF 		bl	memcpy
 429              	.LVL46:
 430              		.loc 1 130 0
 431 00ce 2B68     		ldr	r3, [r5]
 432 00d0 5B44     		add	r3, r3, fp
 433 00d2 AB60     		str	r3, [r5, #8]
 434 00d4 CDE7     		b	.L11
 435              	.LVL47:
 436              	.L25:
 437              		.loc 1 122 0
 438 00d6 1846     		mov	r0, r3
 439 00d8 2246     		mov	r2, r4
 440 00da 3946     		mov	r1, r7
 441 00dc FFF7FEFF 		bl	memcpy
 442              	.LVL48:
 443              		.loc 1 123 0
 444 00e0 AB68     		ldr	r3, [r5, #8]
 445 00e2 2344     		add	r3, r3, r4
 446 00e4 AB60     		str	r3, [r5, #8]
 447 00e6 C4E7     		b	.L11
 448              	.LBE101:
 449              	.LBE112:
 450              	.LBE113:
 451              		.cfi_endproc
 452              	.LFE298:
 453              		.size	chPipeWriteTimeout, .-chPipeWriteTimeout
 454              		.section	.text.chPipeReadTimeout,"ax",%progbits
 455              		.align	1
 456              		.p2align 2,,3
ARM GAS  /tmp/ccBcczvz.s 			page 9


 457              		.global	chPipeReadTimeout
 458              		.syntax unified
 459              		.thumb
 460              		.thumb_func
 461              		.fpu fpv4-sp-d16
 462              		.type	chPipeReadTimeout, %function
 463              	chPipeReadTimeout:
 464              	.LFB299:
 465              		.loc 1 344 0
 466              		.cfi_startproc
 467              		@ args = 0, pretend = 0, frame = 16
 468              		@ frame_needed = 0, uses_anonymous_args = 0
 469              	.LVL49:
 470 0000 2DE9F04F 		push	{r4, r5, r6, r7, r8, r9, r10, fp, lr}
 471              		.cfi_def_cfa_offset 36
 472              		.cfi_offset 4, -36
 473              		.cfi_offset 5, -32
 474              		.cfi_offset 6, -28
 475              		.cfi_offset 7, -24
 476              		.cfi_offset 8, -20
 477              		.cfi_offset 9, -16
 478              		.cfi_offset 10, -12
 479              		.cfi_offset 11, -8
 480              		.cfi_offset 14, -4
 481 0004 0F46     		mov	r7, r1
 482              		.loc 1 350 0
 483 0006 017D     		ldrb	r1, [r0, #20]	@ zero_extendqisi2
 484              	.LVL50:
 485              		.loc 1 344 0
 486 0008 85B0     		sub	sp, sp, #20
 487              		.cfi_def_cfa_offset 56
 488              		.loc 1 344 0
 489 000a CDE90132 		strd	r3, r2, [sp, #4]
 490              		.loc 1 350 0
 491 000e 29B1     		cbz	r1, .L45
 492              		.loc 1 351 0
 493 0010 4FF00008 		mov	r8, #0
 494              		.loc 1 384 0
 495 0014 4046     		mov	r0, r8
 496              	.LVL51:
 497 0016 05B0     		add	sp, sp, #20
 498              		.cfi_remember_state
 499              		.cfi_def_cfa_offset 36
 500              		@ sp needed
 501 0018 BDE8F08F 		pop	{r4, r5, r6, r7, r8, r9, r10, fp, pc}
 502              	.LVL52:
 503              	.L45:
 504              		.cfi_restore_state
 505              		.loc 1 354 0
 506 001c 00F14003 		add	r3, r0, #64
 507              	.LVL53:
 508 0020 0446     		mov	r4, r0
 509 0022 1846     		mov	r0, r3
 510              	.LVL54:
 511 0024 0393     		str	r3, [sp, #12]
 512 0026 FFF7FEFF 		bl	chMtxLock
 513              	.LVL55:
ARM GAS  /tmp/ccBcczvz.s 			page 10


 514              		.loc 1 356 0
 515 002a 029B     		ldr	r3, [sp, #8]
 516 002c 002B     		cmp	r3, #0
 517 002e 3DD0     		beq	.L29
 518 0030 04F12009 		add	r9, r4, #32
 519 0034 9846     		mov	r8, r3
 520              	.LBB127:
 521              		.loc 1 377 0
 522 0036 04F1180A 		add	r10, r4, #24
 523              	.LVL56:
 524              	.L30:
 525              	.LBB128:
 526              	.LBB129:
 527              		.loc 1 159 0
 528 003a 4846     		mov	r0, r9
 529 003c FFF7FEFF 		bl	chMtxLock
 530              	.LVL57:
 531              		.loc 1 169 0
 532 0040 D4E903C3 		ldrd	ip, r3, [r4, #12]
 533 0044 6668     		ldr	r6, [r4, #4]
 534 0046 4345     		cmp	r3, r8
 535 0048 1D46     		mov	r5, r3
 536 004a A6EB0C06 		sub	r6, r6, ip
 537 004e 28BF     		it	cs
 538 0050 4546     		movcs	r5, r8
 539              	.LVL58:
 540              		.loc 1 165 0
 541 0052 5B1B     		subs	r3, r3, r5
 542              		.loc 1 172 0
 543 0054 B542     		cmp	r5, r6
 544              		.loc 1 165 0
 545 0056 2361     		str	r3, [r4, #16]
 546              		.loc 1 172 0
 547 0058 3CD3     		bcc	.L46
 548              		.loc 1 177 0
 549 005a 3246     		mov	r2, r6
 550 005c 6146     		mov	r1, ip
 551              		.loc 1 179 0
 552 005e A5EB060B 		sub	fp, r5, r6
 553              		.loc 1 177 0
 554 0062 3846     		mov	r0, r7
 555              		.loc 1 176 0
 556 0064 2BD8     		bhi	.L47
 557              		.loc 1 184 0
 558 0066 2A46     		mov	r2, r5
 559 0068 FFF7FEFF 		bl	memcpy
 560              	.LVL59:
 561              		.loc 1 185 0
 562 006c 2368     		ldr	r3, [r4]
 563 006e E360     		str	r3, [r4, #12]
 564              	.LVL60:
 565              	.L32:
 566              		.loc 1 188 0
 567 0070 4846     		mov	r0, r9
 568 0072 FFF7FEFF 		bl	chMtxUnlock
 569              	.LVL61:
 570              	.LBE129:
ARM GAS  /tmp/ccBcczvz.s 			page 11


 571              	.LBE128:
 572              		.loc 1 377 0
 573 0076 0021     		movs	r1, #0
 574 0078 5046     		mov	r0, r10
 575              		.loc 1 360 0
 576 007a 7DB9     		cbnz	r5, .L34
 577              	.LBB131:
 578              	.LBB132:
 579              	.LBB133:
 580              	.LBB134:
 581              	.LBB135:
 582              		.loc 2 493 0
 583 007c 2023     		movs	r3, #32
 584              		.syntax unified
 585              	@ 493 "./RM18A-ChibiOS18-Core/chibios/os/common/ext/ARM/CMSIS/Core/Include/cmsis_gcc.h" 1
 586 007e 83F31188 		MSR basepri, r3
 587              	@ 0 "" 2
 588              	.LVL62:
 589              		.thumb
 590              		.syntax unified
 591              	.LBE135:
 592              	.LBE134:
 593              	.LBE133:
 594              	.LBE132:
 595              		.loc 1 364 0
 596 0082 0199     		ldr	r1, [sp, #4]
 597 0084 04F11C00 		add	r0, r4, #28
 598 0088 FFF7FEFF 		bl	chThdSuspendTimeoutS
 599              	.LVL63:
 600              	.LBB136:
 601              	.LBB137:
 602              	.LBB138:
 603              	.LBB139:
 604              	.LBB140:
 605              		.loc 2 493 0
 606              		.syntax unified
 607              	@ 493 "./RM18A-ChibiOS18-Core/chibios/os/common/ext/ARM/CMSIS/Core/Include/cmsis_gcc.h" 1
 608 008c 85F31188 		MSR basepri, r5
 609              	@ 0 "" 2
 610              	.LVL64:
 611              		.thumb
 612              		.syntax unified
 613              	.LBE140:
 614              	.LBE139:
 615              	.LBE138:
 616              	.LBE137:
 617              	.LBE136:
 618              		.loc 1 368 0
 619 0090 0028     		cmp	r0, #0
 620 0092 D2D0     		beq	.L30
 621 0094 029B     		ldr	r3, [sp, #8]
 622 0096 A3EB0808 		sub	r8, r3, r8
 623              	.LVL65:
 624 009a 09E0     		b	.L36
 625              	.LVL66:
 626              	.L34:
 627              	.LBE131:
ARM GAS  /tmp/ccBcczvz.s 			page 12


 628              		.loc 1 373 0
 629 009c A8EB0508 		sub	r8, r8, r5
 630              	.LVL67:
 631              		.loc 1 374 0
 632 00a0 2F44     		add	r7, r7, r5
 633              	.LVL68:
 634              		.loc 1 377 0
 635 00a2 FFF7FEFF 		bl	chThdResume
 636              	.LVL69:
 637              	.LBE127:
 638              		.loc 1 356 0
 639 00a6 B8F1000F 		cmp	r8, #0
 640 00aa C6D1     		bne	.L30
 641              	.LVL70:
 642              	.L29:
 643 00ac DDF80880 		ldr	r8, [sp, #8]
 644              	.L36:
 645              		.loc 1 381 0
 646 00b0 0398     		ldr	r0, [sp, #12]
 647 00b2 FFF7FEFF 		bl	chMtxUnlock
 648              	.LVL71:
 649              		.loc 1 384 0
 650 00b6 4046     		mov	r0, r8
 651 00b8 05B0     		add	sp, sp, #20
 652              		.cfi_remember_state
 653              		.cfi_def_cfa_offset 36
 654              		@ sp needed
 655 00ba BDE8F08F 		pop	{r4, r5, r6, r7, r8, r9, r10, fp, pc}
 656              	.LVL72:
 657              	.L47:
 658              		.cfi_restore_state
 659              	.LBB142:
 660              	.LBB141:
 661              	.LBB130:
 662              		.loc 1 177 0
 663 00be FFF7FEFF 		bl	memcpy
 664              	.LVL73:
 665              		.loc 1 180 0
 666 00c2 B819     		adds	r0, r7, r6
 667              	.LVL74:
 668 00c4 5A46     		mov	r2, fp
 669 00c6 2168     		ldr	r1, [r4]
 670 00c8 FFF7FEFF 		bl	memcpy
 671              	.LVL75:
 672              		.loc 1 181 0
 673 00cc 2368     		ldr	r3, [r4]
 674 00ce 5B44     		add	r3, r3, fp
 675 00d0 E360     		str	r3, [r4, #12]
 676 00d2 CDE7     		b	.L32
 677              	.LVL76:
 678              	.L46:
 679              		.loc 1 173 0
 680 00d4 6146     		mov	r1, ip
 681 00d6 2A46     		mov	r2, r5
 682 00d8 3846     		mov	r0, r7
 683 00da FFF7FEFF 		bl	memcpy
 684              	.LVL77:
ARM GAS  /tmp/ccBcczvz.s 			page 13


 685              		.loc 1 174 0
 686 00de E368     		ldr	r3, [r4, #12]
 687 00e0 2B44     		add	r3, r3, r5
 688 00e2 E360     		str	r3, [r4, #12]
 689 00e4 C4E7     		b	.L32
 690              	.LBE130:
 691              	.LBE141:
 692              	.LBE142:
 693              		.cfi_endproc
 694              	.LFE299:
 695              		.size	chPipeReadTimeout, .-chPipeReadTimeout
 696 00e6 00BF     		.text
 697              	.Letext0:
 698              		.file 4 "/usr/lib/gcc/arm-none-eabi/7.3.1/include/stddef.h"
 699              		.file 5 "/usr/arm-none-eabi/include/machine/_default_types.h"
 700              		.file 6 "/usr/arm-none-eabi/include/sys/lock.h"
 701              		.file 7 "/usr/arm-none-eabi/include/sys/_types.h"
 702              		.file 8 "/usr/arm-none-eabi/include/sys/reent.h"
 703              		.file 9 "/usr/arm-none-eabi/include/sys/_stdint.h"
 704              		.file 10 "./RM18A-ChibiOS18-Core/chibios/os/common/ports/ARMCMx/compilers/GCC/chtypes.h"
 705              		.file 11 "./RM18A-ChibiOS18-Core/chibios/os/rt/include/chsystypes.h"
 706              		.file 12 "./RM18A-ChibiOS18-Core/chibios/os/rt/include/chschd.h"
 707              		.file 13 "./RM18A-ChibiOS18-Core/chibios/os/rt/include/chtime.h"
 708              		.file 14 "./RM18A-ChibiOS18-Core/chibios/os/common/ext/ARM/CMSIS/Core/Include/core_cm4.h"
 709              		.file 15 "./RM18A-ChibiOS18-Core/chibios/os/common/ext/ST/STM32F4xx/system_stm32f4xx.h"
 710              		.file 16 "./RM18A-ChibiOS18-Core/chibios/os/common/ports/ARMCMx/chcore.h"
 711              		.file 17 "./RM18A-ChibiOS18-Core/chibios/os/common/ports/ARMCMx/chcore_v7m.h"
 712              		.file 18 "./RM18A-ChibiOS18-Core/chibios/os/rt/include/chtm.h"
 713              		.file 19 "./RM18A-ChibiOS18-Core/chibios/os/rt/include/chsem.h"
 714              		.file 20 "./RM18A-ChibiOS18-Core/chibios/os/rt/include/chmtx.h"
 715              		.file 21 "./RM18A-ChibiOS18-Core/chibios/os/rt/include/chsys.h"
 716              		.file 22 "./RM18A-ChibiOS18-Core/chibios/os/rt/include/chregistry.h"
 717              		.file 23 "./RM18A-ChibiOS18-Core/chibios/os/oslib/include/chmemcore.h"
 718              		.file 24 "./RM18A-ChibiOS18-Core/chibios/os/oslib/include/chmempools.h"
 719              		.file 25 "./RM18A-ChibiOS18-Core/chibios/os/oslib/include/chfactory.h"
 720              		.file 26 "./RM18A-ChibiOS18-Core/chibios/os/rt/include/chthreads.h"
 721              		.file 27 "<built-in>"