ARM GAS  /tmp/ccQCTkSU.s 			page 1


   1              		.cpu cortex-m4
   2              		.eabi_attribute 27, 1
   3              		.eabi_attribute 28, 1
   4              		.eabi_attribute 20, 1
   5              		.eabi_attribute 21, 1
   6              		.eabi_attribute 23, 3
   7              		.eabi_attribute 24, 1
   8              		.eabi_attribute 25, 1
   9              		.eabi_attribute 26, 1
  10              		.eabi_attribute 30, 2
  11              		.eabi_attribute 34, 1
  12              		.eabi_attribute 18, 4
  13              		.file	"chprintf.c"
  14              		.text
  15              	.Ltext0:
  16              		.cfi_sections	.debug_frame
  17              		.global	__aeabi_dcmpun
  18              		.global	__aeabi_dcmple
  19              		.global	__aeabi_dcmplt
  20              		.global	__aeabi_dcmpeq
  21              		.global	__aeabi_dcmpge
  22              		.global	__aeabi_ddiv
  23              		.global	__aeabi_dmul
  24              		.global	__aeabi_d2iz
  25              		.global	__aeabi_i2d
  26              		.global	__aeabi_dsub
  27              		.global	__aeabi_ui2d
  28              		.section	.text.ftoa,"ax",%progbits
  29              		.align	1
  30              		.p2align 2,,3
  31              		.global	ftoa
  32              		.syntax unified
  33              		.thumb
  34              		.thumb_func
  35              		.fpu fpv4-sp-d16
  36              		.type	ftoa, %function
  37              	ftoa:
  38              	.LFB329:
  39              		.file 1 "./RM18A-ChibiOS18-Core/chibios/os/hal/lib/streams/chprintf.c"
  40              		.loc 1 124 0
  41              		.cfi_startproc
  42              		@ args = 0, pretend = 0, frame = 16
  43              		@ frame_needed = 0, uses_anonymous_args = 0
  44              	.LVL0:
  45 0000 2DE9F04F 		push	{r4, r5, r6, r7, r8, r9, r10, fp, lr}
  46              		.cfi_def_cfa_offset 36
  47              		.cfi_offset 4, -36
  48              		.cfi_offset 5, -32
  49              		.cfi_offset 6, -28
  50              		.cfi_offset 7, -24
  51              		.cfi_offset 8, -20
  52              		.cfi_offset 9, -16
  53              		.cfi_offset 10, -12
  54              		.cfi_offset 11, -8
  55              		.cfi_offset 14, -4
  56 0004 59EC108B 		vmov	r8, r9, d0
  57 0008 85B0     		sub	sp, sp, #20
ARM GAS  /tmp/ccQCTkSU.s 			page 2


  58              		.cfi_def_cfa_offset 56
  59              		.loc 1 124 0
  60 000a 0546     		mov	r5, r0
  61 000c 8B46     		mov	fp, r1
  62              		.loc 1 125 0
  63 000e 10EE102A 		vmov	r2, s0	@ int
  64 0012 4B46     		mov	r3, r9
  65 0014 10EE100A 		vmov	r0, s0	@ int
  66              	.LVL1:
  67 0018 4946     		mov	r1, r9
  68              	.LVL2:
  69 001a FFF7FEFF 		bl	__aeabi_dcmpun
  70              	.LVL3:
  71 001e 0028     		cmp	r0, #0
  72 0020 40F0E182 		bne	.L193
  73              		.loc 1 132 0
  74 0024 29F00047 		bic	r7, r9, #-2147483648
  75 0028 4046     		mov	r0, r8
  76 002a 3946     		mov	r1, r7
  77 002c 4FF0FF32 		mov	r2, #-1
  78 0030 894B     		ldr	r3, .L197
  79 0032 FFF7FEFF 		bl	__aeabi_dcmpun
  80              	.LVL4:
  81 0036 E0B9     		cbnz	r0, .L5
  82 0038 4046     		mov	r0, r8
  83 003a 3946     		mov	r1, r7
  84 003c 4FF0FF32 		mov	r2, #-1
  85 0040 854B     		ldr	r3, .L197
  86 0042 FFF7FEFF 		bl	__aeabi_dcmple
  87              	.LVL5:
  88 0046 A0B9     		cbnz	r0, .L5
  89              		.loc 1 134 0
  90 0048 4046     		mov	r0, r8
  91 004a 4946     		mov	r1, r9
  92 004c 0022     		movs	r2, #0
  93 004e 0023     		movs	r3, #0
  94 0050 FFF7FEFF 		bl	__aeabi_dcmplt
  95              	.LVL6:
  96 0054 10B1     		cbz	r0, .L6
  97              	.LVL7:
  98              		.loc 1 135 0
  99 0056 2D23     		movs	r3, #45
 100 0058 2B70     		strb	r3, [r5]
 101 005a 0135     		adds	r5, r5, #1
 102              	.LVL8:
 103              	.L6:
 104              		.loc 1 136 0
 105 005c 4921     		movs	r1, #73
 106              		.loc 1 137 0
 107 005e 4E22     		movs	r2, #78
 108              		.loc 1 138 0
 109 0060 4623     		movs	r3, #70
 110              		.loc 1 136 0
 111 0062 2970     		strb	r1, [r5]
 112              	.LVL9:
 113              		.loc 1 137 0
 114 0064 6A70     		strb	r2, [r5, #1]
ARM GAS  /tmp/ccQCTkSU.s 			page 3


 115              		.loc 1 138 0
 116 0066 AB70     		strb	r3, [r5, #2]
 117 0068 EE1C     		adds	r6, r5, #3
 118              	.LVL10:
 119              	.L1:
 120              		.loc 1 202 0
 121 006a 3046     		mov	r0, r6
 122 006c 05B0     		add	sp, sp, #20
 123              		.cfi_remember_state
 124              		.cfi_def_cfa_offset 36
 125              		@ sp needed
 126 006e BDE8F08F 		pop	{r4, r5, r6, r7, r8, r9, r10, fp, pc}
 127              	.LVL11:
 128              	.L5:
 129              		.cfi_restore_state
 130              	.LBB38:
 131              	.LBB39:
 132              		.loc 1 143 0
 133 0072 0022     		movs	r2, #0
 134 0074 0023     		movs	r3, #0
 135 0076 4046     		mov	r0, r8
 136 0078 4946     		mov	r1, r9
 137 007a FFF7FEFF 		bl	__aeabi_dcmpeq
 138              	.LVL12:
 139 007e 0BF1FF3A 		add	r10, fp, #-1
 140 0082 0446     		mov	r4, r0
 141 0084 0028     		cmp	r0, #0
 142 0086 40F0F881 		bne	.L188
 143              		.loc 1 145 0
 144 008a 0022     		movs	r2, #0
 145 008c 734B     		ldr	r3, .L197+4
 146 008e 4046     		mov	r0, r8
 147 0090 4946     		mov	r1, r9
 148 0092 FFF7FEFF 		bl	__aeabi_dcmpge
 149              	.LVL13:
 150 0096 0028     		cmp	r0, #0
 151 0098 00F0BD82 		beq	.L194
 152              		.loc 1 147 0
 153 009c 6F4F     		ldr	r7, .L197+4
 154 009e 0026     		movs	r6, #0
 155              	.LVL14:
 156              	.L10:
 157 00a0 4046     		mov	r0, r8
 158 00a2 4946     		mov	r1, r9
 159 00a4 3246     		mov	r2, r6
 160 00a6 3B46     		mov	r3, r7
 161 00a8 FFF7FEFF 		bl	__aeabi_ddiv
 162              	.LVL15:
 163              		.loc 1 145 0
 164 00ac 3246     		mov	r2, r6
 165 00ae 3B46     		mov	r3, r7
 166              		.loc 1 147 0
 167 00b0 8046     		mov	r8, r0
 168              	.LVL16:
 169 00b2 8946     		mov	r9, r1
 170              	.LVL17:
 171              		.loc 1 148 0
ARM GAS  /tmp/ccQCTkSU.s 			page 4


 172 00b4 0134     		adds	r4, r4, #1
 173              	.LVL18:
 174              		.loc 1 145 0
 175 00b6 FFF7FEFF 		bl	__aeabi_dcmpge
 176              	.LVL19:
 177 00ba 0028     		cmp	r0, #0
 178 00bc F0D1     		bne	.L10
 179              	.LVL20:
 180              	.L11:
 181              		.loc 1 150 0
 182 00be 0022     		movs	r2, #0
 183 00c0 674B     		ldr	r3, .L197+8
 184 00c2 4046     		mov	r0, r8
 185 00c4 4946     		mov	r1, r9
 186 00c6 FFF7FEFF 		bl	__aeabi_dcmplt
 187              	.LVL21:
 188 00ca 80B1     		cbz	r0, .L13
 189              		.loc 1 152 0
 190 00cc 634F     		ldr	r7, .L197+4
 191 00ce 0026     		movs	r6, #0
 192              	.L15:
 193 00d0 4046     		mov	r0, r8
 194 00d2 4946     		mov	r1, r9
 195 00d4 3246     		mov	r2, r6
 196 00d6 3B46     		mov	r3, r7
 197 00d8 FFF7FEFF 		bl	__aeabi_dmul
 198              	.LVL22:
 199              		.loc 1 150 0
 200 00dc 0022     		movs	r2, #0
 201 00de 604B     		ldr	r3, .L197+8
 202              		.loc 1 152 0
 203 00e0 8046     		mov	r8, r0
 204              	.LVL23:
 205 00e2 8946     		mov	r9, r1
 206              	.LVL24:
 207              		.loc 1 153 0
 208 00e4 013C     		subs	r4, r4, #1
 209              	.LVL25:
 210              		.loc 1 150 0
 211 00e6 FFF7FEFF 		bl	__aeabi_dcmplt
 212              	.LVL26:
 213 00ea 0028     		cmp	r0, #0
 214 00ec F0D1     		bne	.L15
 215              	.LVL27:
 216              	.L13:
 217              		.loc 1 158 0
 218 00ee BAF1090F 		cmp	r10, #9
 219 00f2 28BF     		it	cs
 220 00f4 4FF0090B 		movcs	fp, #9
 221              	.LVL28:
 222 00f8 4046     		mov	r0, r8
 223 00fa 4946     		mov	r1, r9
 224 00fc FFF7FEFF 		bl	__aeabi_d2iz
 225              	.LVL29:
 226              		.loc 1 160 0
 227 0100 A345     		cmp	fp, r4
 228 0102 00F2C081 		bhi	.L12
ARM GAS  /tmp/ccQCTkSU.s 			page 5


 229              	.LVL30:
 230              	.LBB40:
 231              	.LBB41:
 232              	.LBB42:
 233              		.loc 1 69 0
 234 0106 05F10B0A 		add	r10, r5, #11
 235              	.LVL31:
 236 010a 5246     		mov	r2, r10
 237              		.loc 1 59 0
 238 010c 0146     		mov	r1, r0
 239              		.loc 1 72 0
 240 010e 554E     		ldr	r6, .L197+12
 241 0110 00E0     		b	.L20
 242              	.LVL32:
 243              	.L62:
 244              		.loc 1 78 0
 245 0112 1A46     		mov	r2, r3
 246              	.LVL33:
 247              	.L20:
 248              		.loc 1 72 0
 249 0114 A6FB0173 		umull	r7, r3, r6, r1
 250 0118 DB08     		lsrs	r3, r3, #3
 251 011a 03EB830C 		add	ip, r3, r3, lsl #2
 252 011e 1F46     		mov	r7, r3
 253 0120 A1EB4C03 		sub	r3, r1, ip, lsl #1
 254              	.LVL34:
 255              		.loc 1 73 0
 256 0124 3033     		adds	r3, r3, #48
 257              	.LVL35:
 258              		.loc 1 76 0
 259 0126 02F8013C 		strb	r3, [r2, #-1]
 260              		.loc 1 78 0
 261 012a 3946     		mov	r1, r7
 262              	.LVL36:
 263              		.loc 1 76 0
 264 012c 531E     		subs	r3, r2, #1
 265              	.LVL37:
 266              		.loc 1 78 0
 267 012e 002F     		cmp	r7, #0
 268 0130 EFD1     		bne	.L62
 269 0132 D61C     		adds	r6, r2, #3
 270 0134 291D     		adds	r1, r5, #4
 271              	.LVL38:
 272 0136 8B42     		cmp	r3, r1
 273 0138 38BF     		it	cc
 274 013a B542     		cmpcc	r5, r6
 275              		.loc 1 80 0
 276 013c AAEB030A 		sub	r10, r10, r3
 277              	.LVL39:
 278 0140 0393     		str	r3, [sp, #12]
 279 0142 C0F05782 		bcc	.L21
 280 0146 BAF10B0F 		cmp	r10, #11
 281 014a 40F25382 		bls	.L21
 282 014e 6942     		negs	r1, r5
 283 0150 01F00301 		and	r1, r1, #3
 284 0154 0AF1FF37 		add	r7, r10, #-1
 285              	.LVL40:
ARM GAS  /tmp/ccQCTkSU.s 			page 6


 286 0158 CE1C     		adds	r6, r1, #3
 287 015a B742     		cmp	r7, r6
 288 015c 0297     		str	r7, [sp, #8]
 289 015e 0097     		str	r7, [sp]
 290 0160 C0F06982 		bcc	.L63
 291 0164 0029     		cmp	r1, #0
 292 0166 00F05282 		beq	.L64
 293              		.loc 1 82 0
 294 016a 1E78     		ldrb	r6, [r3]	@ zero_extendqisi2
 295 016c 2E70     		strb	r6, [r5]
 296 016e 0129     		cmp	r1, #1
 297 0170 05F10106 		add	r6, r5, #1
 298 0174 0196     		str	r6, [sp, #4]
 299              	.LVL41:
 300 0176 12D0     		beq	.L23
 301              	.LVL42:
 302 0178 5E78     		ldrb	r6, [r3, #1]	@ zero_extendqisi2
 303              	.LVL43:
 304 017a 6E70     		strb	r6, [r5, #1]
 305 017c AE1C     		adds	r6, r5, #2
 306 017e 0196     		str	r6, [sp, #4]
 307              	.LVL44:
 308 0180 0329     		cmp	r1, #3
 309              		.loc 1 83 0
 310 0182 AAF10206 		sub	r6, r10, #2
 311              		.loc 1 82 0
 312 0186 02F10102 		add	r2, r2, #1
 313              	.LVL45:
 314              		.loc 1 83 0
 315 018a 0096     		str	r6, [sp]
 316 018c 07D1     		bne	.L23
 317              	.LVL46:
 318              		.loc 1 82 0
 319 018e EE1C     		adds	r6, r5, #3
 320              	.LVL47:
 321 0190 9A78     		ldrb	r2, [r3, #2]	@ zero_extendqisi2
 322 0192 0196     		str	r6, [sp, #4]
 323              	.LVL48:
 324              		.loc 1 83 0
 325 0194 AAF10306 		sub	r6, r10, #3
 326              		.loc 1 82 0
 327 0198 AA70     		strb	r2, [r5, #2]
 328              		.loc 1 83 0
 329 019a 0096     		str	r6, [sp]
 330              	.LVL49:
 331              		.loc 1 82 0
 332 019c DA1C     		adds	r2, r3, #3
 333              	.LVL50:
 334              	.L23:
 335 019e AAEB010E 		sub	lr, r10, r1
 336 01a2 0B44     		add	r3, r3, r1
 337 01a4 4FEA9E0C 		lsr	ip, lr, #2
 338 01a8 2944     		add	r1, r1, r5
 339              		.loc 1 80 0
 340 01aa 0026     		movs	r6, #0
 341              	.L25:
 342 01ac 0136     		adds	r6, r6, #1
ARM GAS  /tmp/ccQCTkSU.s 			page 7


 343              		.loc 1 82 0
 344 01ae 53F8047B 		ldr	r7, [r3], #4	@ unaligned
 345 01b2 41F8047B 		str	r7, [r1], #4
 346 01b6 B445     		cmp	ip, r6
 347 01b8 F8D8     		bhi	.L25
 348 01ba 019B     		ldr	r3, [sp, #4]
 349 01bc 2EF00301 		bic	r1, lr, #3
 350 01c0 0B44     		add	r3, r3, r1
 351 01c2 1E46     		mov	r6, r3
 352 01c4 009B     		ldr	r3, [sp]
 353 01c6 8E45     		cmp	lr, r1
 354 01c8 A3EB0107 		sub	r7, r3, r1
 355 01cc 02EB0103 		add	r3, r2, r1
 356 01d0 15D0     		beq	.L28
 357              	.L22:
 358              	.LVL51:
 359 01d2 1A78     		ldrb	r2, [r3]	@ zero_extendqisi2
 360 01d4 3270     		strb	r2, [r6]
 361              	.LVL52:
 362              		.loc 1 83 0
 363 01d6 012F     		cmp	r7, #1
 364 01d8 11D0     		beq	.L28
 365              	.LVL53:
 366              		.loc 1 82 0
 367 01da 5A78     		ldrb	r2, [r3, #1]	@ zero_extendqisi2
 368 01dc 7270     		strb	r2, [r6, #1]
 369              	.LVL54:
 370              		.loc 1 83 0
 371 01de 022F     		cmp	r7, #2
 372 01e0 0DD0     		beq	.L28
 373              	.LVL55:
 374              		.loc 1 82 0
 375 01e2 9A78     		ldrb	r2, [r3, #2]	@ zero_extendqisi2
 376 01e4 B270     		strb	r2, [r6, #2]
 377              	.LVL56:
 378              		.loc 1 83 0
 379 01e6 032F     		cmp	r7, #3
 380 01e8 09D0     		beq	.L28
 381              	.LVL57:
 382              		.loc 1 82 0
 383 01ea DA78     		ldrb	r2, [r3, #3]	@ zero_extendqisi2
 384 01ec F270     		strb	r2, [r6, #3]
 385              	.LVL58:
 386              		.loc 1 83 0
 387 01ee 042F     		cmp	r7, #4
 388 01f0 05D0     		beq	.L28
 389              	.LVL59:
 390              		.loc 1 82 0
 391 01f2 1A79     		ldrb	r2, [r3, #4]	@ zero_extendqisi2
 392 01f4 3271     		strb	r2, [r6, #4]
 393              	.LVL60:
 394              		.loc 1 83 0
 395 01f6 052F     		cmp	r7, #5
 396 01f8 01D0     		beq	.L28
 397              	.LVL61:
 398              		.loc 1 82 0
 399 01fa 5B79     		ldrb	r3, [r3, #5]	@ zero_extendqisi2
ARM GAS  /tmp/ccQCTkSU.s 			page 8


 400              	.LVL62:
 401 01fc 7371     		strb	r3, [r6, #5]
 402              	.LVL63:
 403              	.L28:
 404 01fe 029A     		ldr	r2, [sp, #8]
 405              	.LBE42:
 406              	.LBE41:
 407              		.loc 1 182 0
 408 0200 194B     		ldr	r3, .L197+16
 409 0202 ABF10207 		sub	r7, fp, #2
 410 0206 2A44     		add	r2, r2, r5
 411 0208 53F82760 		ldr	r6, [r3, r7, lsl #2]
 412 020c 9346     		mov	fp, r2
 413              		.loc 1 184 0
 414 020e FFF7FEFF 		bl	__aeabi_i2d
 415              	.LVL64:
 416 0212 0246     		mov	r2, r0
 417 0214 0B46     		mov	r3, r1
 418 0216 4046     		mov	r0, r8
 419 0218 4946     		mov	r1, r9
 420 021a FFF7FEFF 		bl	__aeabi_dsub
 421              	.LVL65:
 422 021e 8046     		mov	r8, r0
 423              	.LVL66:
 424 0220 3046     		mov	r0, r6
 425 0222 8946     		mov	r9, r1
 426 0224 FFF7FEFF 		bl	__aeabi_ui2d
 427              	.LVL67:
 428 0228 0B46     		mov	r3, r1
 429 022a 0246     		mov	r2, r0
 430 022c 4946     		mov	r1, r9
 431 022e 4046     		mov	r0, r8
 432 0230 FFF7FEFF 		bl	__aeabi_dmul
 433              	.LVL68:
 434 0234 FFF7FEFF 		bl	__aeabi_d2iz
 435              	.LVL69:
 436              		.loc 1 185 0
 437 0238 0A49     		ldr	r1, .L197+12
 438 023a AA44     		add	r10, r10, r5
 439              	.LVL70:
 440 023c A1FB0636 		umull	r3, r6, r1, r6
 441              	.LVL71:
 442 0240 F608     		lsrs	r6, r6, #3
 443              	.LVL72:
 444              		.loc 1 183 0
 445 0242 4FF02E03 		mov	r3, #46
 446              	.LBB45:
 447              	.LBB46:
 448              		.loc 1 69 0
 449 0246 0BF10D02 		add	r2, fp, #13
 450              	.LBE46:
 451              	.LBE45:
 452              		.loc 1 183 0
 453 024a 8AF80030 		strb	r3, [r10]
 454              		.loc 1 185 0
 455 024e 08BF     		it	eq
 456 0250 0646     		moveq	r6, r0
ARM GAS  /tmp/ccQCTkSU.s 			page 9


 457              	.LVL73:
 458              	.LBB52:
 459              	.LBB47:
 460              		.loc 1 69 0
 461 0252 1746     		mov	r7, r2
 462              	.LVL74:
 463 0254 0BE0     		b	.L30
 464              	.L198:
 465 0256 00BF     		.align	2
 466              	.L197:
 467 0258 FFFFEF7F 		.word	2146435071
 468 025c 00002440 		.word	1076101120
 469 0260 0000F03F 		.word	1072693248
 470 0264 CDCCCCCC 		.word	-858993459
 471 0268 00000000 		.word	.LANCHOR0
 472              	.LVL75:
 473              	.L66:
 474              		.loc 1 78 0
 475 026c 1F46     		mov	r7, r3
 476              	.LVL76:
 477              	.L30:
 478              		.loc 1 72 0
 479 026e A1FB00C3 		umull	ip, r3, r1, r0
 480 0272 DB08     		lsrs	r3, r3, #3
 481 0274 03EB830E 		add	lr, r3, r3, lsl #2
 482 0278 9C46     		mov	ip, r3
 483 027a A0EB4E03 		sub	r3, r0, lr, lsl #1
 484              	.LVL77:
 485              		.loc 1 78 0
 486 027e A1FB0606 		umull	r0, r6, r1, r6
 487              	.LVL78:
 488              		.loc 1 73 0
 489 0282 3033     		adds	r3, r3, #48
 490              	.LVL79:
 491              		.loc 1 78 0
 492 0284 F608     		lsrs	r6, r6, #3
 493              		.loc 1 76 0
 494 0286 07F8013C 		strb	r3, [r7, #-1]
 495              		.loc 1 77 0
 496 028a 6046     		mov	r0, ip
 497              		.loc 1 76 0
 498 028c 07F1FF33 		add	r3, r7, #-1
 499              	.LVL80:
 500              		.loc 1 78 0
 501 0290 ECD1     		bne	.L66
 502 0292 0399     		ldr	r1, [sp, #12]
 503              	.LVL81:
 504 0294 691A     		subs	r1, r5, r1
 505 0296 01F10C0C 		add	ip, r1, #12
 506 029a 1031     		adds	r1, r1, #16
 507 029c 2944     		add	r1, r1, r5
 508 029e 05EB0C0E 		add	lr, r5, ip
 509 02a2 FE1C     		adds	r6, r7, #3
 510              		.loc 1 80 0
 511 02a4 D21A     		subs	r2, r2, r3
 512 02a6 B645     		cmp	lr, r6
 513 02a8 38BF     		it	cc
ARM GAS  /tmp/ccQCTkSU.s 			page 10


 514 02aa 8B42     		cmpcc	r3, r1
 515 02ac 9146     		mov	r9, r2
 516              	.LBE47:
 517              	.LBE52:
 518              		.loc 1 183 0
 519 02ae 0BF10200 		add	r0, fp, #2
 520              	.LVL82:
 521 02b2 C0F0CD81 		bcc	.L31
 522 02b6 0B2A     		cmp	r2, #11
 523 02b8 40F2CA81 		bls	.L31
 524 02bc 5942     		negs	r1, r3
 525 02be 01F00301 		and	r1, r1, #3
 526 02c2 CE1C     		adds	r6, r1, #3
 527 02c4 02F1FF3E 		add	lr, r2, #-1
 528 02c8 B645     		cmp	lr, r6
 529 02ca C0F0D781 		bcc	.L67
 530 02ce 0029     		cmp	r1, #0
 531 02d0 00F0CC81 		beq	.L68
 532              	.LVL83:
 533              	.LBB53:
 534              	.LBB48:
 535              		.loc 1 82 0
 536 02d4 1E78     		ldrb	r6, [r3]	@ zero_extendqisi2
 537 02d6 8BF80260 		strb	r6, [fp, #2]
 538 02da 0129     		cmp	r1, #1
 539 02dc 0BF10306 		add	r6, fp, #3
 540              	.LVL84:
 541 02e0 12D0     		beq	.L33
 542              	.LVL85:
 543 02e2 5E78     		ldrb	r6, [r3, #1]	@ zero_extendqisi2
 544              	.LVL86:
 545 02e4 8BF80360 		strb	r6, [fp, #3]
 546 02e8 0329     		cmp	r1, #3
 547 02ea 07F10107 		add	r7, r7, #1
 548              	.LVL87:
 549 02ee 0BF10406 		add	r6, fp, #4
 550              	.LVL88:
 551              		.loc 1 83 0
 552 02f2 A2F1020E 		sub	lr, r2, #2
 553              	.LVL89:
 554 02f6 07D1     		bne	.L33
 555              	.LVL90:
 556              		.loc 1 82 0
 557 02f8 9E78     		ldrb	r6, [r3, #2]	@ zero_extendqisi2
 558              	.LVL91:
 559 02fa 8BF80460 		strb	r6, [fp, #4]
 560 02fe DF1C     		adds	r7, r3, #3
 561              	.LVL92:
 562 0300 0BF10506 		add	r6, fp, #5
 563              		.loc 1 83 0
 564 0304 A2F1030E 		sub	lr, r2, #3
 565              	.LVL93:
 566              	.L33:
 567 0308 8C44     		add	ip, ip, r1
 568 030a A2EB0108 		sub	r8, r2, r1
 569 030e 6544     		add	r5, r5, ip
 570              	.LVL94:
ARM GAS  /tmp/ccQCTkSU.s 			page 11


 571 0310 0B44     		add	r3, r3, r1
 572 0312 4FEA9809 		lsr	r9, r8, #2
 573              	.LBE48:
 574              	.LBE53:
 575              		.loc 1 183 0
 576 0316 0021     		movs	r1, #0
 577 0318 9446     		mov	ip, r2
 578              	.L35:
 579 031a 0131     		adds	r1, r1, #1
 580              	.LBB54:
 581              	.LBB49:
 582              		.loc 1 82 0
 583 031c 53F8042B 		ldr	r2, [r3], #4
 584 0320 45F8042B 		str	r2, [r5], #4	@ unaligned
 585 0324 8945     		cmp	r9, r1
 586 0326 F8D8     		bhi	.L35
 587 0328 28F00301 		bic	r1, r8, #3
 588 032c 8845     		cmp	r8, r1
 589 032e 6246     		mov	r2, ip
 590 0330 0E44     		add	r6, r6, r1
 591 0332 AEEB0109 		sub	r9, lr, r1
 592 0336 07EB0103 		add	r3, r7, r1
 593 033a 1AD0     		beq	.L38
 594              	.L32:
 595              	.LVL95:
 596 033c 1978     		ldrb	r1, [r3]	@ zero_extendqisi2
 597 033e 3170     		strb	r1, [r6]
 598              		.loc 1 83 0
 599 0340 B9F1010F 		cmp	r9, #1
 600 0344 15D0     		beq	.L38
 601              	.LVL96:
 602              		.loc 1 82 0
 603 0346 5978     		ldrb	r1, [r3, #1]	@ zero_extendqisi2
 604 0348 7170     		strb	r1, [r6, #1]
 605              		.loc 1 83 0
 606 034a B9F1020F 		cmp	r9, #2
 607 034e 10D0     		beq	.L38
 608              	.LVL97:
 609              		.loc 1 82 0
 610 0350 9978     		ldrb	r1, [r3, #2]	@ zero_extendqisi2
 611 0352 B170     		strb	r1, [r6, #2]
 612              		.loc 1 83 0
 613 0354 B9F1030F 		cmp	r9, #3
 614 0358 0BD0     		beq	.L38
 615              	.LVL98:
 616              		.loc 1 82 0
 617 035a D978     		ldrb	r1, [r3, #3]	@ zero_extendqisi2
 618 035c F170     		strb	r1, [r6, #3]
 619              		.loc 1 83 0
 620 035e B9F1040F 		cmp	r9, #4
 621 0362 06D0     		beq	.L38
 622              	.LVL99:
 623              		.loc 1 82 0
 624 0364 1979     		ldrb	r1, [r3, #4]	@ zero_extendqisi2
 625 0366 3171     		strb	r1, [r6, #4]
 626              		.loc 1 83 0
 627 0368 B9F1050F 		cmp	r9, #5
ARM GAS  /tmp/ccQCTkSU.s 			page 12


 628 036c 01D0     		beq	.L38
 629              	.LVL100:
 630              		.loc 1 82 0
 631 036e 5B79     		ldrb	r3, [r3, #5]	@ zero_extendqisi2
 632              	.LVL101:
 633 0370 7371     		strb	r3, [r6, #5]
 634              	.LVL102:
 635              	.L38:
 636              	.LBE49:
 637              	.LBE54:
 638              		.loc 1 188 0
 639 0372 4523     		movs	r3, #69
 640              		.loc 1 189 0
 641 0374 002C     		cmp	r4, #0
 642              		.loc 1 188 0
 643 0376 8354     		strb	r3, [r0, r2]
 644 0378 1044     		add	r0, r0, r2
 645              	.LVL103:
 646              		.loc 1 189 0
 647 037a C0F2B080 		blt	.L39
 648              		.loc 1 191 0
 649 037e 2B23     		movs	r3, #43
 650              	.LBB55:
 651              	.LBB56:
 652              		.loc 1 69 0
 653 0380 00F10D0C 		add	ip, r0, #13
 654              	.LBE56:
 655              	.LBE55:
 656              		.loc 1 191 0
 657 0384 4370     		strb	r3, [r0, #1]
 658              	.LBB61:
 659              	.LBB57:
 660              		.loc 1 69 0
 661 0386 6546     		mov	r5, ip
 662              	.LBE57:
 663              	.LBE61:
 664              		.loc 1 191 0
 665 0388 861C     		adds	r6, r0, #2
 666              	.LVL104:
 667              	.LBB62:
 668              	.LBB58:
 669              		.loc 1 72 0
 670 038a BD4F     		ldr	r7, .L199
 671 038c 00E0     		b	.L40
 672              	.LVL105:
 673              	.L69:
 674              		.loc 1 78 0
 675 038e 1D46     		mov	r5, r3
 676              	.LVL106:
 677              	.L40:
 678              		.loc 1 72 0
 679 0390 A7FB0423 		umull	r2, r3, r7, r4
 680 0394 DB08     		lsrs	r3, r3, #3
 681 0396 03EB8301 		add	r1, r3, r3, lsl #2
 682 039a 1A46     		mov	r2, r3
 683 039c A4EB4103 		sub	r3, r4, r1, lsl #1
 684              	.LVL107:
ARM GAS  /tmp/ccQCTkSU.s 			page 13


 685              		.loc 1 73 0
 686 03a0 3033     		adds	r3, r3, #48
 687              	.LVL108:
 688              		.loc 1 76 0
 689 03a2 05F8013C 		strb	r3, [r5, #-1]
 690              		.loc 1 78 0
 691 03a6 1446     		mov	r4, r2
 692              		.loc 1 76 0
 693 03a8 6B1E     		subs	r3, r5, #1
 694              	.LVL109:
 695              		.loc 1 78 0
 696 03aa 002A     		cmp	r2, #0
 697 03ac EFD1     		bne	.L69
 698 03ae E91C     		adds	r1, r5, #3
 699 03b0 821D     		adds	r2, r0, #6
 700              	.LVL110:
 701              		.loc 1 80 0
 702 03b2 ACEB0304 		sub	r4, ip, r3
 703              	.LVL111:
 704 03b6 9342     		cmp	r3, r2
 705 03b8 38BF     		it	cc
 706 03ba 8E42     		cmpcc	r6, r1
 707 03bc A446     		mov	ip, r4
 708 03be C0F02C81 		bcc	.L41
 709 03c2 0B2C     		cmp	r4, #11
 710 03c4 40F22981 		bls	.L41
 711 03c8 5A42     		negs	r2, r3
 712 03ca 02F00302 		and	r2, r2, #3
 713 03ce D11C     		adds	r1, r2, #3
 714 03d0 04F1FF3E 		add	lr, r4, #-1
 715 03d4 7145     		cmp	r1, lr
 716 03d6 00F24D81 		bhi	.L70
 717 03da 002A     		cmp	r2, #0
 718 03dc 00F02781 		beq	.L71
 719              		.loc 1 82 0
 720 03e0 1978     		ldrb	r1, [r3]	@ zero_extendqisi2
 721 03e2 8170     		strb	r1, [r0, #2]
 722 03e4 012A     		cmp	r2, #1
 723 03e6 00F10307 		add	r7, r0, #3
 724              	.LVL112:
 725 03ea 0FD0     		beq	.L43
 726              	.LVL113:
 727 03ec 5978     		ldrb	r1, [r3, #1]	@ zero_extendqisi2
 728 03ee C170     		strb	r1, [r0, #3]
 729 03f0 032A     		cmp	r2, #3
 730 03f2 05F10105 		add	r5, r5, #1
 731              	.LVL114:
 732 03f6 00F10407 		add	r7, r0, #4
 733              	.LVL115:
 734              		.loc 1 83 0
 735 03fa A4F1020E 		sub	lr, r4, #2
 736              	.LVL116:
 737 03fe 05D1     		bne	.L43
 738              	.LVL117:
 739              		.loc 1 82 0
 740 0400 9978     		ldrb	r1, [r3, #2]	@ zero_extendqisi2
 741 0402 0171     		strb	r1, [r0, #4]
ARM GAS  /tmp/ccQCTkSU.s 			page 14


 742 0404 471D     		adds	r7, r0, #5
 743              	.LVL118:
 744 0406 DD1C     		adds	r5, r3, #3
 745              	.LVL119:
 746              		.loc 1 83 0
 747 0408 A4F1030E 		sub	lr, r4, #3
 748              	.LVL120:
 749              	.L43:
 750 040c A4EB0208 		sub	r8, r4, r2
 751 0410 1344     		add	r3, r3, r2
 752 0412 4FEA980C 		lsr	ip, r8, #2
 753 0416 3244     		add	r2, r2, r6
 754              	.LBE58:
 755              	.LBE62:
 756              		.loc 1 191 0
 757 0418 0021     		movs	r1, #0
 758              	.L45:
 759 041a 0131     		adds	r1, r1, #1
 760              	.LBB63:
 761              	.LBB59:
 762              		.loc 1 82 0
 763 041c 53F8040B 		ldr	r0, [r3], #4
 764 0420 42F8040B 		str	r0, [r2], #4	@ unaligned
 765 0424 8C45     		cmp	ip, r1
 766 0426 F8D8     		bhi	.L45
 767 0428 28F00302 		bic	r2, r8, #3
 768 042c 4245     		cmp	r2, r8
 769 042e 1744     		add	r7, r7, r2
 770 0430 AEEB020C 		sub	ip, lr, r2
 771 0434 05EB0203 		add	r3, r5, r2
 772 0438 1AD0     		beq	.L48
 773              	.L42:
 774              	.LVL121:
 775 043a 1A78     		ldrb	r2, [r3]	@ zero_extendqisi2
 776 043c 3A70     		strb	r2, [r7]
 777              		.loc 1 83 0
 778 043e BCF1010F 		cmp	ip, #1
 779 0442 15D0     		beq	.L48
 780              	.LVL122:
 781              		.loc 1 82 0
 782 0444 5A78     		ldrb	r2, [r3, #1]	@ zero_extendqisi2
 783 0446 7A70     		strb	r2, [r7, #1]
 784              		.loc 1 83 0
 785 0448 BCF1020F 		cmp	ip, #2
 786 044c 10D0     		beq	.L48
 787              	.LVL123:
 788              		.loc 1 82 0
 789 044e 9A78     		ldrb	r2, [r3, #2]	@ zero_extendqisi2
 790 0450 BA70     		strb	r2, [r7, #2]
 791              		.loc 1 83 0
 792 0452 BCF1030F 		cmp	ip, #3
 793 0456 0BD0     		beq	.L48
 794              	.LVL124:
 795              		.loc 1 82 0
 796 0458 DA78     		ldrb	r2, [r3, #3]	@ zero_extendqisi2
 797 045a FA70     		strb	r2, [r7, #3]
 798              		.loc 1 83 0
ARM GAS  /tmp/ccQCTkSU.s 			page 15


 799 045c BCF1040F 		cmp	ip, #4
 800 0460 06D0     		beq	.L48
 801              	.LVL125:
 802              		.loc 1 82 0
 803 0462 1A79     		ldrb	r2, [r3, #4]	@ zero_extendqisi2
 804 0464 3A71     		strb	r2, [r7, #4]
 805              		.loc 1 83 0
 806 0466 BCF1050F 		cmp	ip, #5
 807 046a 01D0     		beq	.L48
 808              	.LVL126:
 809              		.loc 1 82 0
 810 046c 5B79     		ldrb	r3, [r3, #5]	@ zero_extendqisi2
 811              	.LVL127:
 812 046e 7B71     		strb	r3, [r7, #5]
 813              	.LVL128:
 814              	.L48:
 815 0470 2644     		add	r6, r6, r4
 816              	.LVL129:
 817              	.L196:
 818              	.LBE59:
 819              	.LBE63:
 820              	.LBE40:
 821              	.LBE39:
 822              	.LBE38:
 823              		.loc 1 202 0
 824 0472 3046     		mov	r0, r6
 825 0474 05B0     		add	sp, sp, #20
 826              		.cfi_remember_state
 827              		.cfi_def_cfa_offset 36
 828              		@ sp needed
 829 0476 BDE8F08F 		pop	{r4, r5, r6, r7, r8, r9, r10, fp, pc}
 830              	.LVL130:
 831              	.L188:
 832              		.cfi_restore_state
 833              	.LBB86:
 834              	.LBB84:
 835              		.loc 1 142 0
 836 047a BAF1080F 		cmp	r10, #8
 837 047e 88BF     		it	hi
 838 0480 4FF0090B 		movhi	fp, #9
 839              	.LVL131:
 840 0484 0024     		movs	r4, #0
 841              	.LVL132:
 842              	.L12:
 843 0486 5F46     		mov	r7, fp
 844 0488 E41B     		subs	r4, r4, r7
 845              		.loc 1 169 0
 846 048a 4FF0000A 		mov	r10, #0
 847              	.LVL133:
 848 048e DFF8F4B1 		ldr	fp, .L199+4
 849 0492 18E0     		b	.L19
 850              	.LVL134:
 851              	.L195:
 852              		.loc 1 166 0
 853 0494 012F     		cmp	r7, #1
 854 0496 3FF4E8AD 		beq	.L1
 855              		.loc 1 167 0
ARM GAS  /tmp/ccQCTkSU.s 			page 16


 856 049a 4FF02E03 		mov	r3, #46
 857 049e 6B70     		strb	r3, [r5, #1]
 858 04a0 AE1C     		adds	r6, r5, #2
 859              	.LVL135:
 860              	.L18:
 861              		.loc 1 168 0
 862 04a2 FFF7FEFF 		bl	__aeabi_i2d
 863              	.LVL136:
 864 04a6 0246     		mov	r2, r0
 865 04a8 0B46     		mov	r3, r1
 866 04aa 4046     		mov	r0, r8
 867 04ac 4946     		mov	r1, r9
 868 04ae FFF7FEFF 		bl	__aeabi_dsub
 869              	.LVL137:
 870              		.loc 1 169 0
 871 04b2 5246     		mov	r2, r10
 872 04b4 5B46     		mov	r3, fp
 873 04b6 FFF7FEFF 		bl	__aeabi_dmul
 874              	.LVL138:
 875              		.loc 1 163 0
 876 04ba 013F     		subs	r7, r7, #1
 877              	.LVL139:
 878              		.loc 1 169 0
 879 04bc 8046     		mov	r8, r0
 880 04be 8946     		mov	r9, r1
 881              	.LVL140:
 882              		.loc 1 163 0
 883 04c0 3FF4D3AD 		beq	.L1
 884 04c4 3546     		mov	r5, r6
 885              	.LVL141:
 886              	.L19:
 887              		.loc 1 165 0
 888 04c6 4046     		mov	r0, r8
 889 04c8 4946     		mov	r1, r9
 890 04ca FFF7FEFF 		bl	__aeabi_d2iz
 891              	.LVL142:
 892 04ce 0346     		mov	r3, r0
 893              	.LVL143:
 894 04d0 3033     		adds	r3, r3, #48
 895              		.loc 1 166 0
 896 04d2 FC42     		cmn	r4, r7
 897              		.loc 1 165 0
 898 04d4 2B70     		strb	r3, [r5]
 899 04d6 05F10106 		add	r6, r5, #1
 900              	.LVL144:
 901              		.loc 1 166 0
 902 04da E2D1     		bne	.L18
 903 04dc DAE7     		b	.L195
 904              	.LVL145:
 905              	.L39:
 906              	.LBB81:
 907              		.loc 1 196 0
 908 04de 2D23     		movs	r3, #45
 909              	.LBB64:
 910              	.LBB65:
 911              		.loc 1 69 0
 912 04e0 00F10D0C 		add	ip, r0, #13
ARM GAS  /tmp/ccQCTkSU.s 			page 17


 913              	.LBE65:
 914              	.LBE64:
 915              		.loc 1 197 0
 916 04e4 6442     		negs	r4, r4
 917              		.loc 1 196 0
 918 04e6 4370     		strb	r3, [r0, #1]
 919              	.LBB71:
 920              	.LBB66:
 921              		.loc 1 69 0
 922 04e8 6546     		mov	r5, ip
 923              	.LBE66:
 924              	.LBE71:
 925              		.loc 1 196 0
 926 04ea 861C     		adds	r6, r0, #2
 927              	.LVL146:
 928              	.LBB72:
 929              	.LBB67:
 930              		.loc 1 72 0
 931 04ec 644F     		ldr	r7, .L199
 932 04ee 00E0     		b	.L49
 933              	.LVL147:
 934              	.L72:
 935              		.loc 1 78 0
 936 04f0 1D46     		mov	r5, r3
 937              	.LVL148:
 938              	.L49:
 939              		.loc 1 72 0
 940 04f2 A7FB0423 		umull	r2, r3, r7, r4
 941 04f6 DB08     		lsrs	r3, r3, #3
 942 04f8 03EB8301 		add	r1, r3, r3, lsl #2
 943 04fc 1A46     		mov	r2, r3
 944 04fe A4EB4103 		sub	r3, r4, r1, lsl #1
 945              	.LVL149:
 946              		.loc 1 73 0
 947 0502 3033     		adds	r3, r3, #48
 948              	.LVL150:
 949              		.loc 1 76 0
 950 0504 05F8013C 		strb	r3, [r5, #-1]
 951              		.loc 1 78 0
 952 0508 1446     		mov	r4, r2
 953              	.LVL151:
 954              		.loc 1 76 0
 955 050a 6B1E     		subs	r3, r5, #1
 956              	.LVL152:
 957              		.loc 1 78 0
 958 050c 002A     		cmp	r2, #0
 959 050e EFD1     		bne	.L72
 960 0510 E91C     		adds	r1, r5, #3
 961 0512 821D     		adds	r2, r0, #6
 962              	.LVL153:
 963              		.loc 1 80 0
 964 0514 ACEB0304 		sub	r4, ip, r3
 965              	.LVL154:
 966 0518 9342     		cmp	r3, r2
 967 051a 38BF     		it	cc
 968 051c 8E42     		cmpcc	r6, r1
 969 051e 2746     		mov	r7, r4
ARM GAS  /tmp/ccQCTkSU.s 			page 18


 970              	.LVL155:
 971 0520 C0F08C80 		bcc	.L50
 972 0524 0B2C     		cmp	r4, #11
 973 0526 40F28980 		bls	.L50
 974 052a 5A42     		negs	r2, r3
 975 052c 02F00302 		and	r2, r2, #3
 976 0530 D11C     		adds	r1, r2, #3
 977 0532 04F1FF3E 		add	lr, r4, #-1
 978 0536 7145     		cmp	r1, lr
 979 0538 00F29E80 		bhi	.L73
 980 053c 002A     		cmp	r2, #0
 981 053e 00F09180 		beq	.L74
 982              		.loc 1 82 0
 983 0542 1978     		ldrb	r1, [r3]	@ zero_extendqisi2
 984 0544 8170     		strb	r1, [r0, #2]
 985 0546 012A     		cmp	r2, #1
 986 0548 00F1030C 		add	ip, r0, #3
 987              	.LVL156:
 988 054c 10D0     		beq	.L52
 989              	.LVL157:
 990 054e 5978     		ldrb	r1, [r3, #1]	@ zero_extendqisi2
 991 0550 C170     		strb	r1, [r0, #3]
 992 0552 032A     		cmp	r2, #3
 993 0554 05F10105 		add	r5, r5, #1
 994              	.LVL158:
 995 0558 00F1040C 		add	ip, r0, #4
 996              	.LVL159:
 997              		.loc 1 83 0
 998 055c A4F1020E 		sub	lr, r4, #2
 999              	.LVL160:
 1000 0560 06D1     		bne	.L52
 1001              	.LVL161:
 1002              		.loc 1 82 0
 1003 0562 9978     		ldrb	r1, [r3, #2]	@ zero_extendqisi2
 1004 0564 0171     		strb	r1, [r0, #4]
 1005 0566 00F1050C 		add	ip, r0, #5
 1006              	.LVL162:
 1007 056a DD1C     		adds	r5, r3, #3
 1008              	.LVL163:
 1009              		.loc 1 83 0
 1010 056c A4F1030E 		sub	lr, r4, #3
 1011              	.LVL164:
 1012              	.L52:
 1013 0570 A4EB0208 		sub	r8, r4, r2
 1014 0574 1344     		add	r3, r3, r2
 1015 0576 4FEA9807 		lsr	r7, r8, #2
 1016 057a 3244     		add	r2, r2, r6
 1017              	.LBE67:
 1018              	.LBE72:
 1019              		.loc 1 196 0
 1020 057c 0021     		movs	r1, #0
 1021              	.L54:
 1022 057e 0131     		adds	r1, r1, #1
 1023              	.LBB73:
 1024              	.LBB68:
 1025              		.loc 1 82 0
 1026 0580 53F8040B 		ldr	r0, [r3], #4
ARM GAS  /tmp/ccQCTkSU.s 			page 19


 1027 0584 42F8040B 		str	r0, [r2], #4	@ unaligned
 1028 0588 8F42     		cmp	r7, r1
 1029 058a F8D8     		bhi	.L54
 1030 058c 28F00302 		bic	r2, r8, #3
 1031 0590 4245     		cmp	r2, r8
 1032 0592 9444     		add	ip, ip, r2
 1033 0594 AEEB0207 		sub	r7, lr, r2
 1034 0598 05EB0203 		add	r3, r5, r2
 1035 059c 3FF468AF 		beq	.L48
 1036              	.L51:
 1037              	.LVL165:
 1038 05a0 1A78     		ldrb	r2, [r3]	@ zero_extendqisi2
 1039 05a2 8CF80020 		strb	r2, [ip]
 1040              		.loc 1 83 0
 1041 05a6 012F     		cmp	r7, #1
 1042 05a8 3FF462AF 		beq	.L48
 1043              	.LVL166:
 1044              		.loc 1 82 0
 1045 05ac 5A78     		ldrb	r2, [r3, #1]	@ zero_extendqisi2
 1046 05ae 8CF80120 		strb	r2, [ip, #1]
 1047              		.loc 1 83 0
 1048 05b2 022F     		cmp	r7, #2
 1049 05b4 3FF45CAF 		beq	.L48
 1050              	.LVL167:
 1051              		.loc 1 82 0
 1052 05b8 9A78     		ldrb	r2, [r3, #2]	@ zero_extendqisi2
 1053 05ba 8CF80220 		strb	r2, [ip, #2]
 1054              		.loc 1 83 0
 1055 05be 032F     		cmp	r7, #3
 1056 05c0 3FF456AF 		beq	.L48
 1057              	.LVL168:
 1058              		.loc 1 82 0
 1059 05c4 DA78     		ldrb	r2, [r3, #3]	@ zero_extendqisi2
 1060 05c6 8CF80320 		strb	r2, [ip, #3]
 1061              		.loc 1 83 0
 1062 05ca 042F     		cmp	r7, #4
 1063 05cc 3FF450AF 		beq	.L48
 1064              	.LVL169:
 1065              		.loc 1 82 0
 1066 05d0 1A79     		ldrb	r2, [r3, #4]	@ zero_extendqisi2
 1067 05d2 8CF80420 		strb	r2, [ip, #4]
 1068              		.loc 1 83 0
 1069 05d6 052F     		cmp	r7, #5
 1070 05d8 3FF44AAF 		beq	.L48
 1071              	.LVL170:
 1072              		.loc 1 82 0
 1073 05dc 5B79     		ldrb	r3, [r3, #5]	@ zero_extendqisi2
 1074              	.LVL171:
 1075 05de 8CF80530 		strb	r3, [ip, #5]
 1076 05e2 2644     		add	r6, r6, r4
 1077              	.LVL172:
 1078 05e4 45E7     		b	.L196
 1079              	.LVL173:
 1080              	.L193:
 1081              	.LBE68:
 1082              	.LBE73:
 1083              	.LBE81:
ARM GAS  /tmp/ccQCTkSU.s 			page 20


 1084              	.LBE84:
 1085              	.LBE86:
 1086              		.loc 1 127 0
 1087 05e6 4E23     		movs	r3, #78
 1088              		.loc 1 128 0
 1089 05e8 4122     		movs	r2, #65
 1090              		.loc 1 127 0
 1091 05ea 2B70     		strb	r3, [r5]
 1092              	.LVL174:
 1093              		.loc 1 129 0
 1094 05ec AB70     		strb	r3, [r5, #2]
 1095              		.loc 1 128 0
 1096 05ee 6A70     		strb	r2, [r5, #1]
 1097              		.loc 1 129 0
 1098 05f0 EE1C     		adds	r6, r5, #3
 1099              	.LVL175:
 1100              		.loc 1 130 0
 1101 05f2 3AE5     		b	.L1
 1102              	.LVL176:
 1103              	.L21:
 1104 05f4 6A1E     		subs	r2, r5, #1
 1105 05f6 03EB0A06 		add	r6, r3, r10
 1106              	.LVL177:
 1107              	.L27:
 1108              	.LBB87:
 1109              	.LBB85:
 1110              	.LBB82:
 1111              	.LBB74:
 1112              	.LBB43:
 1113              		.loc 1 82 0
 1114 05fa 13F8011B 		ldrb	r1, [r3], #1	@ zero_extendqisi2
 1115              	.LVL178:
 1116 05fe 02F8011F 		strb	r1, [r2, #1]!
 1117              		.loc 1 83 0
 1118 0602 B342     		cmp	r3, r6
 1119 0604 F9D1     		bne	.L27
 1120 0606 0AF1FF33 		add	r3, r10, #-1
 1121              	.LVL179:
 1122 060a 0293     		str	r3, [sp, #8]
 1123 060c F7E5     		b	.L28
 1124              	.LVL180:
 1125              	.L64:
 1126              		.loc 1 80 0
 1127 060e 1A46     		mov	r2, r3
 1128 0610 CDE900A5 		strd	r10, r5, [sp]
 1129 0614 C3E5     		b	.L23
 1130              	.LVL181:
 1131              	.L194:
 1132              	.LBE43:
 1133              	.LBE74:
 1134              	.LBE82:
 1135              		.loc 1 142 0
 1136 0616 0446     		mov	r4, r0
 1137 0618 51E5     		b	.L11
 1138              	.LVL182:
 1139              	.L41:
 1140 061a 421C     		adds	r2, r0, #1
ARM GAS  /tmp/ccQCTkSU.s 			page 21


 1141 061c 1819     		adds	r0, r3, r4
 1142              	.LVL183:
 1143              	.L47:
 1144              	.LBB83:
 1145              	.LBB75:
 1146              	.LBB60:
 1147              		.loc 1 82 0
 1148 061e 13F8011B 		ldrb	r1, [r3], #1	@ zero_extendqisi2
 1149              	.LVL184:
 1150 0622 02F8011F 		strb	r1, [r2, #1]!
 1151              		.loc 1 83 0
 1152 0626 8342     		cmp	r3, r0
 1153 0628 F9D1     		bne	.L47
 1154 062a 2644     		add	r6, r6, r4
 1155              	.LVL185:
 1156 062c 21E7     		b	.L196
 1157              	.LVL186:
 1158              	.L71:
 1159              		.loc 1 80 0
 1160 062e 1D46     		mov	r5, r3
 1161 0630 A646     		mov	lr, r4
 1162              	.LBE60:
 1163              	.LBE75:
 1164              		.loc 1 191 0
 1165 0632 3746     		mov	r7, r6
 1166              	.LVL187:
 1167 0634 EAE6     		b	.L43
 1168              	.LVL188:
 1169              	.L63:
 1170              	.LBB76:
 1171              	.LBB44:
 1172              		.loc 1 80 0
 1173 0636 5746     		mov	r7, r10
 1174 0638 2E46     		mov	r6, r5
 1175 063a CAE5     		b	.L22
 1176              	.LVL189:
 1177              	.L50:
 1178 063c 421C     		adds	r2, r0, #1
 1179 063e 1819     		adds	r0, r3, r4
 1180              	.LVL190:
 1181              	.L57:
 1182              	.LBE44:
 1183              	.LBE76:
 1184              	.LBB77:
 1185              	.LBB69:
 1186              		.loc 1 82 0
 1187 0640 13F8011B 		ldrb	r1, [r3], #1	@ zero_extendqisi2
 1188              	.LVL191:
 1189 0644 02F8011F 		strb	r1, [r2, #1]!
 1190              		.loc 1 83 0
 1191 0648 8342     		cmp	r3, r0
 1192 064a F9D1     		bne	.L57
 1193 064c 2644     		add	r6, r6, r4
 1194              	.LVL192:
 1195 064e 10E7     		b	.L196
 1196              	.LVL193:
 1197              	.L31:
ARM GAS  /tmp/ccQCTkSU.s 			page 22


 1198 0650 0BF1010B 		add	fp, fp, #1
 1199              	.LVL194:
 1200 0654 9D18     		adds	r5, r3, r2
 1201              	.LVL195:
 1202              	.L37:
 1203              	.LBE69:
 1204              	.LBE77:
 1205              	.LBB78:
 1206              	.LBB50:
 1207              		.loc 1 82 0
 1208 0656 13F8011B 		ldrb	r1, [r3], #1	@ zero_extendqisi2
 1209              	.LVL196:
 1210 065a 0BF8011F 		strb	r1, [fp, #1]!
 1211              		.loc 1 83 0
 1212 065e AB42     		cmp	r3, r5
 1213 0660 F9D1     		bne	.L37
 1214 0662 86E6     		b	.L38
 1215              	.LVL197:
 1216              	.L74:
 1217              	.LBE50:
 1218              	.LBE78:
 1219              	.LBB79:
 1220              	.LBB70:
 1221              		.loc 1 80 0
 1222 0664 1D46     		mov	r5, r3
 1223 0666 A646     		mov	lr, r4
 1224              	.LBE70:
 1225              	.LBE79:
 1226              		.loc 1 196 0
 1227 0668 B446     		mov	ip, r6
 1228 066a 81E7     		b	.L52
 1229              	.LVL198:
 1230              	.L68:
 1231              	.LBB80:
 1232              	.LBB51:
 1233              		.loc 1 80 0
 1234 066c 1F46     		mov	r7, r3
 1235 066e 9646     		mov	lr, r2
 1236              	.LBE51:
 1237              	.LBE80:
 1238              		.loc 1 183 0
 1239 0670 0646     		mov	r6, r0
 1240 0672 49E6     		b	.L33
 1241              	.LVL199:
 1242              	.L70:
 1243              		.loc 1 191 0
 1244 0674 3746     		mov	r7, r6
 1245              	.LVL200:
 1246 0676 E0E6     		b	.L42
 1247              	.LVL201:
 1248              	.L73:
 1249              		.loc 1 196 0
 1250 0678 B446     		mov	ip, r6
 1251 067a 91E7     		b	.L51
 1252              	.LVL202:
 1253              	.L67:
 1254              		.loc 1 183 0
ARM GAS  /tmp/ccQCTkSU.s 			page 23


 1255 067c 0646     		mov	r6, r0
 1256 067e 5DE6     		b	.L32
 1257              	.L200:
 1258              		.align	2
 1259              	.L199:
 1260 0680 CDCCCCCC 		.word	-858993459
 1261 0684 00002440 		.word	1076101120
 1262              	.LBE83:
 1263              	.LBE85:
 1264              	.LBE87:
 1265              		.cfi_endproc
 1266              	.LFE329:
 1267              		.size	ftoa, .-ftoa
 1268              		.section	.text.chvprintf,"ax",%progbits
 1269              		.align	1
 1270              		.p2align 2,,3
 1271              		.global	chvprintf
 1272              		.syntax unified
 1273              		.thumb
 1274              		.thumb_func
 1275              		.fpu fpv4-sp-d16
 1276              		.type	chvprintf, %function
 1277              	chvprintf:
 1278              	.LFB330:
 1279              		.loc 1 233 0
 1280              		.cfi_startproc
 1281              		@ args = 0, pretend = 0, frame = 48
 1282              		@ frame_needed = 0, uses_anonymous_args = 0
 1283              	.LVL203:
 1284 0000 2DE9F04F 		push	{r4, r5, r6, r7, r8, r9, r10, fp, lr}
 1285              		.cfi_def_cfa_offset 36
 1286              		.cfi_offset 4, -36
 1287              		.cfi_offset 5, -32
 1288              		.cfi_offset 6, -28
 1289              		.cfi_offset 7, -24
 1290              		.cfi_offset 8, -20
 1291              		.cfi_offset 9, -16
 1292              		.cfi_offset 10, -12
 1293              		.cfi_offset 11, -8
 1294              		.cfi_offset 14, -4
 1295 0004 0546     		mov	r5, r0
 1296 0006 8DB0     		sub	sp, sp, #52
 1297              		.cfi_def_cfa_offset 88
 1298              		.loc 1 233 0
 1299 0008 8B46     		mov	fp, r1
 1300 000a 9146     		mov	r9, r2
 1301              	.LVL204:
 1302              		.loc 1 236 0
 1303 000c 4FF0000A 		mov	r10, #0
 1304              	.LVL205:
 1305              	.L202:
 1306              		.loc 1 247 0
 1307 0010 9BF80010 		ldrb	r1, [fp]	@ zero_extendqisi2
 1308 0014 0BF10102 		add	r2, fp, #1
 1309              	.LVL206:
 1310              		.loc 1 248 0
 1311 0018 71B1     		cbz	r1, .L343
ARM GAS  /tmp/ccQCTkSU.s 			page 24


 1312              	.LVL207:
 1313              	.L355:
 1314              		.loc 1 250 0
 1315 001a 2529     		cmp	r1, #37
 1316 001c 10D0     		beq	.L204
 1317              		.loc 1 252 0
 1318 001e 2B68     		ldr	r3, [r5]
 1319              		.loc 1 247 0
 1320 0020 9346     		mov	fp, r2
 1321              		.loc 1 252 0
 1322 0022 DB68     		ldr	r3, [r3, #12]
 1323 0024 2846     		mov	r0, r5
 1324 0026 9847     		blx	r3
 1325              	.LVL208:
 1326              		.loc 1 247 0
 1327 0028 9BF80010 		ldrb	r1, [fp]	@ zero_extendqisi2
 1328              		.loc 1 253 0
 1329 002c 0AF1010A 		add	r10, r10, #1
 1330              	.LVL209:
 1331              		.loc 1 247 0
 1332 0030 0BF10102 		add	r2, fp, #1
 1333              	.LVL210:
 1334              		.loc 1 248 0
 1335 0034 0029     		cmp	r1, #0
 1336 0036 F0D1     		bne	.L355
 1337              	.L343:
 1338              		.loc 1 405 0
 1339 0038 5046     		mov	r0, r10
 1340 003a 0DB0     		add	sp, sp, #52
 1341              		.cfi_remember_state
 1342              		.cfi_def_cfa_offset 36
 1343              		@ sp needed
 1344 003c BDE8F08F 		pop	{r4, r5, r6, r7, r8, r9, r10, fp, pc}
 1345              	.LVL211:
 1346              	.L204:
 1347              		.cfi_restore_state
 1348              		.loc 1 259 0
 1349 0040 9BF80170 		ldrb	r7, [fp, #1]	@ zero_extendqisi2
 1350 0044 2D2F     		cmp	r7, #45
 1351 0046 03BF     		ittte	eq
 1352 0048 9BF80270 		ldrbeq	r7, [fp, #2]	@ zero_extendqisi2
 1353              		.loc 1 261 0
 1354 004c 0BF10202 		addeq	r2, fp, #2
 1355              	.LVL212:
 1356              		.loc 1 262 0
 1357 0050 0123     		moveq	r3, #1
 1358              		.loc 1 258 0
 1359 0052 0023     		movne	r3, #0
 1360              		.loc 1 265 0
 1361 0054 302F     		cmp	r7, #48
 1362              		.loc 1 258 0
 1363 0056 0193     		str	r3, [sp, #4]
 1364              	.LVL213:
 1365 0058 0CBF     		ite	eq
 1366 005a 0132     		addeq	r2, r2, #1
 1367              	.LVL214:
 1368              		.loc 1 264 0
ARM GAS  /tmp/ccQCTkSU.s 			page 25


 1369 005c 2027     		movne	r7, #32
 1370              	.LVL215:
 1371              		.loc 1 270 0
 1372 005e 0024     		movs	r4, #0
 1373 0060 05E0     		b	.L210
 1374              	.LVL216:
 1375              	.L356:
 1376              		.loc 1 277 0
 1377 0062 99F80030 		ldrb	r3, [r9]	@ zero_extendqisi2
 1378              	.LVL217:
 1379 0066 09F10409 		add	r9, r9, #4
 1380              	.LVL218:
 1381              	.L208:
 1382              		.loc 1 280 0
 1383 006a 03EB4004 		add	r4, r3, r0, lsl #1
 1384              	.LVL219:
 1385              	.L210:
 1386              		.loc 1 273 0
 1387 006e 12F8011B 		ldrb	r1, [r2], #1	@ zero_extendqisi2
 1388              	.LVL220:
 1389              		.loc 1 274 0
 1390 0072 A1F13003 		sub	r3, r1, #48
 1391 0076 DBB2     		uxtb	r3, r3
 1392 0078 092B     		cmp	r3, #9
 1393              		.loc 1 280 0
 1394 007a 04EB8400 		add	r0, r4, r4, lsl #2
 1395              		.loc 1 274 0
 1396 007e F4D9     		bls	.L208
 1397              		.loc 1 276 0
 1398 0080 2A29     		cmp	r1, #42
 1399 0082 EED0     		beq	.L356
 1400              	.LVL221:
 1401              		.loc 1 283 0
 1402 0084 2E29     		cmp	r1, #46
 1403              		.loc 1 282 0
 1404 0086 4FF00008 		mov	r8, #0
 1405              		.loc 1 283 0
 1406 008a 4AD0     		beq	.L213
 1407              	.LVL222:
 1408              	.L211:
 1409              		.loc 1 299 0
 1410 008c 01F0DF03 		and	r3, r1, #223
 1411 0090 4C2B     		cmp	r3, #76
 1412 0092 02F1010B 		add	fp, r2, #1
 1413 0096 50D0     		beq	.L357
 1414              		.loc 1 306 0
 1415 0098 A1F14103 		sub	r3, r1, #65
 1416              		.loc 1 309 0
 1417 009c A1F14400 		sub	r0, r1, #68
 1418              		.loc 1 306 0
 1419 00a0 DBB2     		uxtb	r3, r3
 1420              	.LVL223:
 1421              		.loc 1 309 0
 1422 00a2 3428     		cmp	r0, #52
 1423 00a4 00F27681 		bhi	.L274
 1424 00a8 DFE810F0 		tbh	[pc, r0, lsl #1]
 1425              	.L219:
ARM GAS  /tmp/ccQCTkSU.s 			page 26


 1426 00ac 3502     		.2byte	(.L218-.L219)/2
 1427 00ae 7401     		.2byte	(.L274-.L219)/2
 1428 00b0 7401     		.2byte	(.L274-.L219)/2
 1429 00b2 7401     		.2byte	(.L274-.L219)/2
 1430 00b4 7401     		.2byte	(.L274-.L219)/2
 1431 00b6 3502     		.2byte	(.L218-.L219)/2
 1432 00b8 7401     		.2byte	(.L274-.L219)/2
 1433 00ba 7401     		.2byte	(.L274-.L219)/2
 1434 00bc 7401     		.2byte	(.L274-.L219)/2
 1435 00be 7401     		.2byte	(.L274-.L219)/2
 1436 00c0 7401     		.2byte	(.L274-.L219)/2
 1437 00c2 7101     		.2byte	(.L275-.L219)/2
 1438 00c4 7401     		.2byte	(.L274-.L219)/2
 1439 00c6 7401     		.2byte	(.L274-.L219)/2
 1440 00c8 7401     		.2byte	(.L274-.L219)/2
 1441 00ca 7401     		.2byte	(.L274-.L219)/2
 1442 00cc 7401     		.2byte	(.L274-.L219)/2
 1443 00ce 1901     		.2byte	(.L276-.L219)/2
 1444 00d0 7401     		.2byte	(.L274-.L219)/2
 1445 00d2 7401     		.2byte	(.L274-.L219)/2
 1446 00d4 4402     		.2byte	(.L277-.L219)/2
 1447 00d6 7401     		.2byte	(.L274-.L219)/2
 1448 00d8 7401     		.2byte	(.L274-.L219)/2
 1449 00da 7401     		.2byte	(.L274-.L219)/2
 1450 00dc 7401     		.2byte	(.L274-.L219)/2
 1451 00de 7401     		.2byte	(.L274-.L219)/2
 1452 00e0 7401     		.2byte	(.L274-.L219)/2
 1453 00e2 7401     		.2byte	(.L274-.L219)/2
 1454 00e4 7401     		.2byte	(.L274-.L219)/2
 1455 00e6 7401     		.2byte	(.L274-.L219)/2
 1456 00e8 7401     		.2byte	(.L274-.L219)/2
 1457 00ea CC00     		.2byte	(.L278-.L219)/2
 1458 00ec 3502     		.2byte	(.L218-.L219)/2
 1459 00ee 7401     		.2byte	(.L274-.L219)/2
 1460 00f0 AA00     		.2byte	(.L279-.L219)/2
 1461 00f2 7401     		.2byte	(.L274-.L219)/2
 1462 00f4 7401     		.2byte	(.L274-.L219)/2
 1463 00f6 3502     		.2byte	(.L218-.L219)/2
 1464 00f8 7401     		.2byte	(.L274-.L219)/2
 1465 00fa 7401     		.2byte	(.L274-.L219)/2
 1466 00fc 7401     		.2byte	(.L274-.L219)/2
 1467 00fe 7401     		.2byte	(.L274-.L219)/2
 1468 0100 7401     		.2byte	(.L274-.L219)/2
 1469 0102 7101     		.2byte	(.L275-.L219)/2
 1470 0104 7401     		.2byte	(.L274-.L219)/2
 1471 0106 7401     		.2byte	(.L274-.L219)/2
 1472 0108 7401     		.2byte	(.L274-.L219)/2
 1473 010a 8800     		.2byte	(.L280-.L219)/2
 1474 010c 7401     		.2byte	(.L274-.L219)/2
 1475 010e 1901     		.2byte	(.L276-.L219)/2
 1476 0110 7401     		.2byte	(.L274-.L219)/2
 1477 0112 7401     		.2byte	(.L274-.L219)/2
 1478 0114 4402     		.2byte	(.L277-.L219)/2
 1479              	.LVL224:
 1480              		.p2align 1
 1481              	.L358:
 1482              		.loc 1 291 0
ARM GAS  /tmp/ccQCTkSU.s 			page 27


 1483 0116 99F80030 		ldrb	r3, [r9]	@ zero_extendqisi2
 1484              	.LVL225:
 1485 011a 09F10409 		add	r9, r9, #4
 1486              	.LVL226:
 1487              	.L212:
 1488              		.loc 1 295 0
 1489 011e 03EB4008 		add	r8, r3, r0, lsl #1
 1490              	.LVL227:
 1491              	.L213:
 1492              		.loc 1 287 0
 1493 0122 12F8011B 		ldrb	r1, [r2], #1	@ zero_extendqisi2
 1494              	.LVL228:
 1495              		.loc 1 288 0
 1496 0126 A1F13003 		sub	r3, r1, #48
 1497 012a DBB2     		uxtb	r3, r3
 1498 012c 092B     		cmp	r3, #9
 1499              		.loc 1 294 0
 1500 012e 08EB8800 		add	r0, r8, r8, lsl #2
 1501              		.loc 1 288 0
 1502 0132 F4D9     		bls	.L212
 1503              		.loc 1 290 0
 1504 0134 2A29     		cmp	r1, #42
 1505 0136 EED0     		beq	.L358
 1506 0138 A8E7     		b	.L211
 1507              	.LVL229:
 1508              	.L357:
 1509              		.loc 1 302 0
 1510 013a 1378     		ldrb	r3, [r2]	@ zero_extendqisi2
 1511 013c DBB3     		cbz	r3, .L359
 1512              	.L215:
 1513              	.LVL230:
 1514              		.loc 1 309 0
 1515 013e A3F14402 		sub	r2, r3, #68
 1516 0142 342A     		cmp	r2, #52
 1517 0144 00F22881 		bhi	.L217
 1518 0148 DFE812F0 		tbh	[pc, r2, lsl #1]
 1519              	.L268:
 1520 014c 4C01     		.2byte	(.L309-.L268)/2
 1521 014e 2601     		.2byte	(.L217-.L268)/2
 1522 0150 2601     		.2byte	(.L217-.L268)/2
 1523 0152 2601     		.2byte	(.L217-.L268)/2
 1524 0154 2601     		.2byte	(.L217-.L268)/2
 1525 0156 4C01     		.2byte	(.L309-.L268)/2
 1526 0158 2601     		.2byte	(.L217-.L268)/2
 1527 015a 2601     		.2byte	(.L217-.L268)/2
 1528 015c 2601     		.2byte	(.L217-.L268)/2
 1529 015e 2601     		.2byte	(.L217-.L268)/2
 1530 0160 2601     		.2byte	(.L217-.L268)/2
 1531 0162 2201     		.2byte	(.L220-.L268)/2
 1532 0164 2601     		.2byte	(.L217-.L268)/2
 1533 0166 2601     		.2byte	(.L217-.L268)/2
 1534 0168 2601     		.2byte	(.L217-.L268)/2
 1535 016a 2601     		.2byte	(.L217-.L268)/2
 1536 016c 2601     		.2byte	(.L217-.L268)/2
 1537 016e CA00     		.2byte	(.L221-.L268)/2
 1538 0170 2601     		.2byte	(.L217-.L268)/2
 1539 0172 2601     		.2byte	(.L217-.L268)/2
ARM GAS  /tmp/ccQCTkSU.s 			page 28


 1540 0174 4A01     		.2byte	(.L291-.L268)/2
 1541 0176 2601     		.2byte	(.L217-.L268)/2
 1542 0178 2601     		.2byte	(.L217-.L268)/2
 1543 017a 2601     		.2byte	(.L217-.L268)/2
 1544 017c 2601     		.2byte	(.L217-.L268)/2
 1545 017e 2601     		.2byte	(.L217-.L268)/2
 1546 0180 2601     		.2byte	(.L217-.L268)/2
 1547 0182 2601     		.2byte	(.L217-.L268)/2
 1548 0184 2601     		.2byte	(.L217-.L268)/2
 1549 0186 2601     		.2byte	(.L217-.L268)/2
 1550 0188 2601     		.2byte	(.L217-.L268)/2
 1551 018a 7D00     		.2byte	(.L223-.L268)/2
 1552 018c 4C01     		.2byte	(.L309-.L268)/2
 1553 018e 2601     		.2byte	(.L217-.L268)/2
 1554 0190 5B00     		.2byte	(.L224-.L268)/2
 1555 0192 2601     		.2byte	(.L217-.L268)/2
 1556 0194 2601     		.2byte	(.L217-.L268)/2
 1557 0196 4C01     		.2byte	(.L309-.L268)/2
 1558 0198 2601     		.2byte	(.L217-.L268)/2
 1559 019a 2601     		.2byte	(.L217-.L268)/2
 1560 019c 2601     		.2byte	(.L217-.L268)/2
 1561 019e 2601     		.2byte	(.L217-.L268)/2
 1562 01a0 2601     		.2byte	(.L217-.L268)/2
 1563 01a2 2201     		.2byte	(.L220-.L268)/2
 1564 01a4 2601     		.2byte	(.L217-.L268)/2
 1565 01a6 2601     		.2byte	(.L217-.L268)/2
 1566 01a8 2601     		.2byte	(.L217-.L268)/2
 1567 01aa 3900     		.2byte	(.L225-.L268)/2
 1568 01ac 2601     		.2byte	(.L217-.L268)/2
 1569 01ae CA00     		.2byte	(.L221-.L268)/2
 1570 01b0 2601     		.2byte	(.L217-.L268)/2
 1571 01b2 2601     		.2byte	(.L217-.L268)/2
 1572 01b4 4A01     		.2byte	(.L291-.L268)/2
 1573              	.LVL231:
 1574              		.p2align 1
 1575              	.L359:
 1576              		.loc 1 302 0
 1577 01b6 0B46     		mov	r3, r1
 1578 01b8 9346     		mov	fp, r2
 1579 01ba C0E7     		b	.L215
 1580              	.LVL232:
 1581              	.L280:
 1582              		.loc 1 309 0
 1583 01bc 9346     		mov	fp, r2
 1584              	.LVL233:
 1585              	.L225:
 1586              	.LBB88:
 1587              		.loc 1 317 0
 1588 01be D9F80060 		ldr	r6, [r9]
 1589 01c2 09F10409 		add	r9, r9, #4
 1590              	.LVL234:
 1591 01c6 002E     		cmp	r6, #0
 1592 01c8 00F0C781 		beq	.L227
 1593              	.LVL235:
 1594 01cc 3378     		ldrb	r3, [r6]	@ zero_extendqisi2
 1595 01ce 3146     		mov	r1, r6
 1596              		.loc 1 319 0
ARM GAS  /tmp/ccQCTkSU.s 			page 29


 1597 01d0 B8F1000F 		cmp	r8, #0
 1598 01d4 40F0D481 		bne	.L360
 1599              	.LVL236:
 1600              		.loc 1 321 0
 1601 01d8 002B     		cmp	r3, #0
 1602 01da 00F0F381 		beq	.L361
 1603              	.LVL237:
 1604              	.L353:
 1605 01de 47F6FE78 		movw	r8, #32766
 1606              	.L269:
 1607              		.loc 1 321 0 is_stmt 0 discriminator 4
 1608 01e2 3346     		mov	r3, r6
 1609 01e4 02E0     		b	.L231
 1610              	.LVL238:
 1611              	.L230:
 1612              		.loc 1 321 0 discriminator 3
 1613 01e6 B8F10108 		subs	r8, r8, #1
 1614              	.LVL239:
 1615 01ea 03D4     		bmi	.L354
 1616              	.LVL240:
 1617              	.L231:
 1618              		.loc 1 321 0 discriminator 4
 1619 01ec 13F8012F 		ldrb	r2, [r3, #1]!	@ zero_extendqisi2
 1620              	.LVL241:
 1621 01f0 002A     		cmp	r2, #0
 1622 01f2 F8D1     		bne	.L230
 1623              	.LVL242:
 1624              	.L354:
 1625 01f4 5B1A     		subs	r3, r3, r1
 1626              	.LVL243:
 1627 01f6 E41A     		subs	r4, r4, r3
 1628              	.LVL244:
 1629 01f8 013B     		subs	r3, r3, #1
 1630 01fa 0093     		str	r3, [sp]
 1631              		.loc 1 316 0 is_stmt 1
 1632 01fc 2027     		movs	r7, #32
 1633 01fe 2DE0     		b	.L226
 1634              	.LVL245:
 1635              	.L279:
 1636              	.LBE88:
 1637              		.loc 1 309 0
 1638 0200 9346     		mov	fp, r2
 1639              	.LVL246:
 1640              	.L224:
 1641              	.LBB107:
 1642              		.loc 1 342 0
 1643 0202 09F10709 		add	r9, r9, #7
 1644              	.LVL247:
 1645 0206 29F00709 		bic	r9, r9, #7
 1646              	.LVL248:
 1647 020a D9E90023 		ldrd	r2, [r9]
 1648 020e C74E     		ldr	r6, .L367
 1649 0210 C6E90023 		strd	r2, [r6]
 1650              		.loc 1 343 0
 1651 0214 0022     		movs	r2, #0
 1652 0216 D6E90001 		ldrd	r0, [r6]
 1653 021a 0023     		movs	r3, #0
ARM GAS  /tmp/ccQCTkSU.s 			page 30


 1654              		.loc 1 342 0
 1655 021c 09F10809 		add	r9, r9, #8
 1656              	.LVL249:
 1657              		.loc 1 343 0
 1658 0220 FFF7FEFF 		bl	__aeabi_dcmplt
 1659              	.LVL250:
 1660 0224 0028     		cmp	r0, #0
 1661 0226 40F08881 		bne	.L362
 1662              	.LBE107:
 1663              		.loc 1 256 0
 1664 022a 06A8     		add	r0, sp, #24
 1665              	.LVL251:
 1666              	.L244:
 1667              	.LBB108:
 1668              		.loc 1 348 0
 1669 022c 96ED000B 		vldr.64	d0, [r6]
 1670 0230 4146     		mov	r1, r8
 1671 0232 FFF7FEFF 		bl	ftoa
 1672              	.LVL252:
 1673 0236 06AB     		add	r3, sp, #24
 1674              	.LVL253:
 1675 0238 C01A     		subs	r0, r0, r3
 1676              	.LVL254:
 1677 023a 431E     		subs	r3, r0, #1
 1678              	.LVL255:
 1679 023c 241A     		subs	r4, r4, r0
 1680              	.LVL256:
 1681 023e 0093     		str	r3, [sp]
 1682              	.LBE108:
 1683              		.loc 1 257 0
 1684 0240 06AE     		add	r6, sp, #24
 1685              	.LVL257:
 1686              	.LBB109:
 1687              		.loc 1 349 0
 1688 0242 0BE0     		b	.L226
 1689              	.LVL258:
 1690              	.L278:
 1691              	.LBE109:
 1692              		.loc 1 309 0
 1693 0244 9346     		mov	fp, r2
 1694              	.LVL259:
 1695              	.L223:
 1696              	.LBB110:
 1697              		.loc 1 313 0
 1698 0246 0CAE     		add	r6, sp, #48
 1699 0248 D9F80030 		ldr	r3, [r9]
 1700 024c 06F8183D 		strb	r3, [r6, #-24]!
 1701              		.loc 1 314 0
 1702 0250 0023     		movs	r3, #0
 1703 0252 013C     		subs	r4, r4, #1
 1704              	.LVL260:
 1705              		.loc 1 313 0
 1706 0254 09F10409 		add	r9, r9, #4
 1707              	.LVL261:
 1708              		.loc 1 314 0
 1709 0258 0093     		str	r3, [sp]
 1710              		.loc 1 312 0
ARM GAS  /tmp/ccQCTkSU.s 			page 31


 1711 025a 2027     		movs	r7, #32
 1712              	.LVL262:
 1713              	.L226:
 1714              	.LBE110:
 1715              		.loc 1 374 0
 1716 025c 002C     		cmp	r4, #0
 1717 025e C0F29080 		blt	.L363
 1718              	.LVL263:
 1719              	.L256:
 1720              		.loc 1 376 0
 1721 0262 019B     		ldr	r3, [sp, #4]
 1722 0264 002B     		cmp	r3, #0
 1723 0266 40F0A580 		bne	.L259
 1724              		.loc 1 377 0
 1725 026a 6342     		negs	r3, r4
 1726              	.LVL264:
 1727              		.loc 1 378 0
 1728 026c 002C     		cmp	r4, #0
 1729 026e 00F0A080 		beq	.L288
 1730              		.loc 1 380 0
 1731 0272 3178     		ldrb	r1, [r6]	@ zero_extendqisi2
 1732 0274 2A68     		ldr	r2, [r5]
 1733 0276 2D29     		cmp	r1, #45
 1734 0278 D268     		ldr	r2, [r2, #12]
 1735 027a 00F0A080 		beq	.L364
 1736              	.L351:
 1737 027e 9846     		mov	r8, r3
 1738 0280 01E0     		b	.L262
 1739              	.LVL265:
 1740              	.L365:
 1741 0282 2B68     		ldr	r3, [r5]
 1742 0284 DA68     		ldr	r2, [r3, #12]
 1743              	.LVL266:
 1744              	.L262:
 1745              		.loc 1 388 0 discriminator 1
 1746 0286 3946     		mov	r1, r7
 1747 0288 2846     		mov	r0, r5
 1748 028a 9047     		blx	r2
 1749              	.LVL267:
 1750              		.loc 1 390 0 discriminator 1
 1751 028c 18F10108 		adds	r8, r8, #1
 1752              	.LVL268:
 1753 0290 F7D1     		bne	.L365
 1754              		.loc 1 392 0
 1755 0292 009A     		ldr	r2, [sp]
 1756 0294 002A     		cmp	r2, #0
 1757 0296 4346     		mov	r3, r8
 1758 0298 A244     		add	r10, r10, r4
 1759              	.LVL269:
 1760 029a FFF6B9AE 		blt	.L202
 1761 029e 1C46     		mov	r4, r3
 1762              	.LVL270:
 1763              	.L265:
 1764              		.loc 1 377 0
 1765 02a0 DDF80080 		ldr	r8, [sp]
 1766              	.LVL271:
 1767              	.L263:
ARM GAS  /tmp/ccQCTkSU.s 			page 32


 1768              		.loc 1 394 0
 1769 02a4 2B68     		ldr	r3, [r5]
 1770 02a6 16F8011B 		ldrb	r1, [r6], #1	@ zero_extendqisi2
 1771              	.LVL272:
 1772 02aa DB68     		ldr	r3, [r3, #12]
 1773              		.loc 1 392 0
 1774 02ac 08F1FF38 		add	r8, r8, #-1
 1775              	.LVL273:
 1776              		.loc 1 394 0
 1777 02b0 2846     		mov	r0, r5
 1778 02b2 9847     		blx	r3
 1779              	.LVL274:
 1780              		.loc 1 392 0
 1781 02b4 B8F1FF3F 		cmp	r8, #-1
 1782 02b8 F4D1     		bne	.L263
 1783 02ba 009B     		ldr	r3, [sp]
 1784 02bc 0AF1010A 		add	r10, r10, #1
 1785 02c0 5344     		add	r3, r3, r10
 1786 02c2 9A46     		mov	r10, r3
 1787              	.LVL275:
 1788              	.L264:
 1789              		.loc 1 398 0
 1790 02c4 002C     		cmp	r4, #0
 1791 02c6 3FF4A3AE 		beq	.L202
 1792 02ca 2646     		mov	r6, r4
 1793              	.LVL276:
 1794              	.L266:
 1795              		.loc 1 400 0
 1796 02cc 2B68     		ldr	r3, [r5]
 1797 02ce 3946     		mov	r1, r7
 1798 02d0 DB68     		ldr	r3, [r3, #12]
 1799 02d2 2846     		mov	r0, r5
 1800 02d4 9847     		blx	r3
 1801              	.LVL277:
 1802              		.loc 1 398 0
 1803 02d6 013E     		subs	r6, r6, #1
 1804              	.LVL278:
 1805 02d8 F8D1     		bne	.L266
 1806 02da A244     		add	r10, r10, r4
 1807 02dc 98E6     		b	.L202
 1808              	.LVL279:
 1809              	.L276:
 1810              		.loc 1 309 0
 1811 02de 9346     		mov	fp, r2
 1812              	.LVL280:
 1813              	.L221:
 1814              	.LBB111:
 1815              		.loc 1 358 0
 1816 02e0 0A26     		movs	r6, #10
 1817              	.LVL281:
 1818              	.L222:
 1819              	.LBB89:
 1820              	.LBB90:
 1821              	.LBB91:
 1822              		.loc 1 69 0
 1823 02e2 0DF12300 		add	r0, sp, #35
 1824 02e6 59F8042B 		ldr	r2, [r9], #4
ARM GAS  /tmp/ccQCTkSU.s 			page 33


 1825              	.LVL282:
 1826 02ea 0346     		mov	r3, r0
 1827              	.L246:
 1828              	.LVL283:
 1829              		.loc 1 72 0
 1830 02ec B2FBF6F1 		udiv	r1, r2, r6
 1831 02f0 06FB1122 		mls	r2, r6, r1, r2
 1832              	.LVL284:
 1833              		.loc 1 73 0
 1834 02f4 02F1300C 		add	ip, r2, #48
 1835              	.LVL285:
 1836              		.loc 1 74 0
 1837 02f8 BCF1390F 		cmp	ip, #57
 1838              		.loc 1 75 0
 1839 02fc 02F13702 		add	r2, r2, #55
 1840              		.loc 1 74 0
 1841 0300 51DD     		ble	.L247
 1842              		.loc 1 76 0
 1843 0302 03F8012D 		strb	r2, [r3, #-1]!
 1844              	.LVL286:
 1845              		.loc 1 78 0
 1846 0306 0A46     		mov	r2, r1
 1847 0308 0029     		cmp	r1, #0
 1848 030a EFD1     		bne	.L246
 1849              	.LVL287:
 1850              	.L249:
 1851 030c 1A1D     		adds	r2, r3, #4
 1852 030e 07A9     		add	r1, sp, #28
 1853              	.LVL288:
 1854 0310 06AE     		add	r6, sp, #24
 1855              	.LVL289:
 1856 0312 8B42     		cmp	r3, r1
 1857 0314 38BF     		it	cc
 1858 0316 9642     		cmpcc	r6, r2
 1859              		.loc 1 80 0
 1860 0318 A0EB030C 		sub	ip, r0, r3
 1861              	.LVL290:
 1862 031c C0F02681 		bcc	.L250
 1863 0320 BCF1080F 		cmp	ip, #8
 1864 0324 40F22281 		bls	.L250
 1865 0328 0CF1FF38 		add	r8, ip, #-1
 1866              	.LVL291:
 1867 032c B8F1020F 		cmp	r8, #2
 1868 0330 40F23481 		bls	.L287
 1869 0334 4FEA9C0E 		lsr	lr, ip, #2
 1870 0338 1846     		mov	r0, r3
 1871 033a 0022     		movs	r2, #0
 1872 033c 3146     		mov	r1, r6
 1873              	.LVL292:
 1874              	.L252:
 1875 033e 0132     		adds	r2, r2, #1
 1876              		.loc 1 82 0
 1877 0340 50F8046B 		ldr	r6, [r0], #4	@ unaligned
 1878 0344 41F8046B 		str	r6, [r1], #4
 1879 0348 7245     		cmp	r2, lr
 1880 034a F8D3     		bcc	.L252
 1881 034c 2CF00302 		bic	r2, ip, #3
ARM GAS  /tmp/ccQCTkSU.s 			page 34


 1882 0350 06A9     		add	r1, sp, #24
 1883              	.LVL293:
 1884 0352 6245     		cmp	r2, ip
 1885 0354 1344     		add	r3, r3, r2
 1886 0356 1144     		add	r1, r1, r2
 1887              	.LVL294:
 1888 0358 ACEB0200 		sub	r0, ip, r2
 1889 035c 09D0     		beq	.L255
 1890              	.L251:
 1891              	.LVL295:
 1892 035e 1A78     		ldrb	r2, [r3]	@ zero_extendqisi2
 1893 0360 0A70     		strb	r2, [r1]
 1894              	.LVL296:
 1895              		.loc 1 83 0
 1896 0362 0128     		cmp	r0, #1
 1897 0364 05D0     		beq	.L255
 1898              	.LVL297:
 1899              		.loc 1 82 0
 1900 0366 5A78     		ldrb	r2, [r3, #1]	@ zero_extendqisi2
 1901 0368 4A70     		strb	r2, [r1, #1]
 1902              	.LVL298:
 1903              		.loc 1 83 0
 1904 036a 0228     		cmp	r0, #2
 1905 036c 01D0     		beq	.L255
 1906              	.LVL299:
 1907              		.loc 1 82 0
 1908 036e 9B78     		ldrb	r3, [r3, #2]	@ zero_extendqisi2
 1909              	.LVL300:
 1910 0370 8B70     		strb	r3, [r1, #2]
 1911              	.LVL301:
 1912              	.L255:
 1913 0372 A4EB0C04 		sub	r4, r4, ip
 1914              	.LVL302:
 1915              	.LBE91:
 1916              	.LBE90:
 1917              	.LBE89:
 1918              	.LBE111:
 1919              		.loc 1 374 0
 1920 0376 002C     		cmp	r4, #0
 1921 0378 CDF80080 		str	r8, [sp]
 1922              		.loc 1 257 0
 1923 037c 06AE     		add	r6, sp, #24
 1924              	.LVL303:
 1925              		.loc 1 374 0
 1926 037e BFF670AF 		bge	.L256
 1927              	.L363:
 1928              	.LVL304:
 1929              		.loc 1 392 0
 1930 0382 009B     		ldr	r3, [sp]
 1931 0384 002B     		cmp	r3, #0
 1932 0386 FFF643AE 		blt	.L202
 1933              		.loc 1 375 0
 1934 038a 0024     		movs	r4, #0
 1935 038c 88E7     		b	.L265
 1936              	.LVL305:
 1937              	.L275:
 1938              		.loc 1 309 0
ARM GAS  /tmp/ccQCTkSU.s 			page 35


 1939 038e 9346     		mov	fp, r2
 1940              	.LVL306:
 1941              	.L220:
 1942              	.LBB112:
 1943              		.loc 1 359 0
 1944 0390 0826     		movs	r6, #8
 1945 0392 A6E7     		b	.L222
 1946              	.LVL307:
 1947              	.L274:
 1948              	.LBE112:
 1949              		.loc 1 309 0
 1950 0394 0B46     		mov	r3, r1
 1951              	.LVL308:
 1952 0396 9346     		mov	fp, r2
 1953              	.LVL309:
 1954              	.L217:
 1955              	.LBB113:
 1956              		.loc 1 370 0
 1957 0398 0CAE     		add	r6, sp, #48
 1958 039a 013C     		subs	r4, r4, #1
 1959              	.LVL310:
 1960 039c 06F8183D 		strb	r3, [r6, #-24]!
 1961              		.loc 1 371 0
 1962 03a0 0023     		movs	r3, #0
 1963              	.LVL311:
 1964 03a2 0093     		str	r3, [sp]
 1965 03a4 5AE7     		b	.L226
 1966              	.LVL312:
 1967              	.L247:
 1968              	.LBB98:
 1969              	.LBB95:
 1970              	.LBB92:
 1971              		.loc 1 76 0
 1972 03a6 03F801CD 		strb	ip, [r3, #-1]!
 1973              	.LVL313:
 1974              		.loc 1 78 0
 1975 03aa 0A46     		mov	r2, r1
 1976 03ac 0029     		cmp	r1, #0
 1977 03ae 9DD1     		bne	.L246
 1978 03b0 ACE7     		b	.L249
 1979              	.LVL314:
 1980              	.L288:
 1981              	.LBE92:
 1982              	.LBE95:
 1983              	.LBE98:
 1984              	.LBE113:
 1985              		.loc 1 377 0
 1986 03b2 1C46     		mov	r4, r3
 1987              	.LVL315:
 1988              	.L259:
 1989              		.loc 1 392 0
 1990 03b4 009B     		ldr	r3, [sp]
 1991 03b6 002B     		cmp	r3, #0
 1992 03b8 BFF672AF 		bge	.L265
 1993 03bc 82E7     		b	.L264
 1994              	.LVL316:
 1995              	.L364:
ARM GAS  /tmp/ccQCTkSU.s 			page 36


 1996              		.loc 1 380 0 discriminator 1
 1997 03be 302F     		cmp	r7, #48
 1998 03c0 7FF45DAF 		bne	.L351
 1999              		.loc 1 382 0
 2000 03c4 2846     		mov	r0, r5
 2001 03c6 0193     		str	r3, [sp, #4]
 2002              	.LVL317:
 2003 03c8 9047     		blx	r2
 2004              	.LVL318:
 2005 03ca 009B     		ldr	r3, [sp]
 2006 03cc 2A68     		ldr	r2, [r5]
 2007 03ce 013B     		subs	r3, r3, #1
 2008 03d0 0093     		str	r3, [sp]
 2009 03d2 019B     		ldr	r3, [sp, #4]
 2010 03d4 D268     		ldr	r2, [r2, #12]
 2011 03d6 0AF1010A 		add	r10, r10, #1
 2012              	.LVL319:
 2013 03da 0136     		adds	r6, r6, #1
 2014              	.LVL320:
 2015 03dc 9846     		mov	r8, r3
 2016 03de 52E7     		b	.L262
 2017              	.LVL321:
 2018              	.L291:
 2019              		.loc 1 309 0
 2020 03e0 1026     		movs	r6, #16
 2021 03e2 7EE7     		b	.L222
 2022              	.L309:
 2023 03e4 09F10400 		add	r0, r9, #4
 2024              	.LVL322:
 2025              	.L233:
 2026              	.LBB114:
 2027              		.loc 1 329 0
 2028 03e8 D9F80010 		ldr	r1, [r9]
 2029 03ec 8146     		mov	r9, r0
 2030              	.LVL323:
 2031              	.L232:
 2032              		.loc 1 332 0
 2033 03ee 0029     		cmp	r1, #0
 2034 03f0 C0F2CD80 		blt	.L366
 2035              	.LBE114:
 2036              		.loc 1 256 0
 2037 03f4 0DF11808 		add	r8, sp, #24
 2038              	.LVL324:
 2039              	.L234:
 2040              	.LBB115:
 2041              	.LBB99:
 2042              	.LBB100:
 2043              	.LBB101:
 2044              		.loc 1 69 0
 2045 03f8 08F10B0C 		add	ip, r8, #11
 2046              	.LVL325:
 2047 03fc 6246     		mov	r2, ip
 2048              		.loc 1 72 0
 2049 03fe 4C4E     		ldr	r6, .L367+4
 2050 0400 00E0     		b	.L235
 2051              	.LVL326:
 2052              	.L283:
ARM GAS  /tmp/ccQCTkSU.s 			page 37


 2053              		.loc 1 78 0
 2054 0402 1A46     		mov	r2, r3
 2055              	.LVL327:
 2056              	.L235:
 2057              		.loc 1 72 0
 2058 0404 A6FB0103 		umull	r0, r3, r6, r1
 2059 0408 DB08     		lsrs	r3, r3, #3
 2060 040a 03EB830E 		add	lr, r3, r3, lsl #2
 2061 040e 1846     		mov	r0, r3
 2062 0410 A1EB4E03 		sub	r3, r1, lr, lsl #1
 2063              	.LVL328:
 2064              		.loc 1 73 0
 2065 0414 3033     		adds	r3, r3, #48
 2066              	.LVL329:
 2067              		.loc 1 76 0
 2068 0416 02F8013C 		strb	r3, [r2, #-1]
 2069              		.loc 1 78 0
 2070 041a 0146     		mov	r1, r0
 2071              	.LVL330:
 2072              		.loc 1 76 0
 2073 041c 531E     		subs	r3, r2, #1
 2074              	.LVL331:
 2075              		.loc 1 78 0
 2076 041e 0028     		cmp	r0, #0
 2077 0420 EFD1     		bne	.L283
 2078              		.loc 1 80 0
 2079 0422 ACEB0300 		sub	r0, ip, r3
 2080              	.LVL332:
 2081 0426 0646     		mov	r6, r0
 2082 0428 0090     		str	r0, [sp]
 2083              	.LVL333:
 2084 042a 08F10401 		add	r1, r8, #4
 2085              	.LVL334:
 2086 042e D01C     		adds	r0, r2, #3
 2087              	.LVL335:
 2088 0430 8B42     		cmp	r3, r1
 2089 0432 38BF     		it	cc
 2090 0434 8045     		cmpcc	r8, r0
 2091 0436 C0F0B480 		bcc	.L236
 2092 043a 0B2E     		cmp	r6, #11
 2093 043c 40F2B180 		bls	.L236
 2094 0440 5942     		negs	r1, r3
 2095 0442 01F00301 		and	r1, r1, #3
 2096 0446 06F1FF3E 		add	lr, r6, #-1
 2097 044a 01F1030C 		add	ip, r1, #3
 2098 044e F445     		cmp	ip, lr
 2099 0450 CDF808E0 		str	lr, [sp, #8]
 2100 0454 00F2B480 		bhi	.L284
 2101 0458 0029     		cmp	r1, #0
 2102 045a 00F0AD80 		beq	.L285
 2103              		.loc 1 82 0
 2104 045e 1878     		ldrb	r0, [r3]	@ zero_extendqisi2
 2105 0460 88F80000 		strb	r0, [r8]
 2106 0464 08F10106 		add	r6, r8, #1
 2107              	.LVL336:
 2108 0468 0129     		cmp	r1, #1
 2109 046a 0396     		str	r6, [sp, #12]
ARM GAS  /tmp/ccQCTkSU.s 			page 38


 2110              	.LVL337:
 2111 046c 16D0     		beq	.L238
 2112              	.LVL338:
 2113 046e 5878     		ldrb	r0, [r3, #1]	@ zero_extendqisi2
 2114 0470 88F80100 		strb	r0, [r8, #1]
 2115              		.loc 1 83 0
 2116 0474 0098     		ldr	r0, [sp]
 2117              		.loc 1 82 0
 2118 0476 08F10206 		add	r6, r8, #2
 2119              	.LVL339:
 2120 047a 0396     		str	r6, [sp, #12]
 2121              	.LVL340:
 2122 047c 0329     		cmp	r1, #3
 2123              		.loc 1 83 0
 2124 047e A0F10206 		sub	r6, r0, #2
 2125              		.loc 1 82 0
 2126 0482 02F10102 		add	r2, r2, #1
 2127              	.LVL341:
 2128              		.loc 1 83 0
 2129 0486 0296     		str	r6, [sp, #8]
 2130 0488 08D1     		bne	.L238
 2131              	.LVL342:
 2132              		.loc 1 82 0
 2133 048a 9A78     		ldrb	r2, [r3, #2]	@ zero_extendqisi2
 2134 048c 88F80220 		strb	r2, [r8, #2]
 2135 0490 08F10306 		add	r6, r8, #3
 2136              	.LVL343:
 2137              		.loc 1 83 0
 2138 0494 0338     		subs	r0, r0, #3
 2139              		.loc 1 82 0
 2140 0496 DA1C     		adds	r2, r3, #3
 2141              	.LVL344:
 2142 0498 0396     		str	r6, [sp, #12]
 2143              	.LVL345:
 2144              		.loc 1 83 0
 2145 049a 0290     		str	r0, [sp, #8]
 2146              	.LVL346:
 2147              	.L238:
 2148 049c 0098     		ldr	r0, [sp]
 2149 049e A0EB010E 		sub	lr, r0, r1
 2150 04a2 0B44     		add	r3, r3, r1
 2151 04a4 4FEA9E0C 		lsr	ip, lr, #2
 2152 04a8 4144     		add	r1, r1, r8
 2153              		.loc 1 80 0
 2154 04aa 0020     		movs	r0, #0
 2155              	.L240:
 2156 04ac 0130     		adds	r0, r0, #1
 2157              		.loc 1 82 0
 2158 04ae 53F8046B 		ldr	r6, [r3], #4
 2159 04b2 41F8046B 		str	r6, [r1], #4	@ unaligned
 2160 04b6 8445     		cmp	ip, r0
 2161 04b8 F8D8     		bhi	.L240
 2162 04ba 039B     		ldr	r3, [sp, #12]
 2163 04bc 2EF00300 		bic	r0, lr, #3
 2164 04c0 0344     		add	r3, r3, r0
 2165 04c2 1946     		mov	r1, r3
 2166 04c4 029B     		ldr	r3, [sp, #8]
ARM GAS  /tmp/ccQCTkSU.s 			page 39


 2167 04c6 7045     		cmp	r0, lr
 2168 04c8 A3EB0006 		sub	r6, r3, r0
 2169 04cc 02EB0003 		add	r3, r2, r0
 2170 04d0 15D0     		beq	.L243
 2171              	.L237:
 2172              	.LVL347:
 2173 04d2 1A78     		ldrb	r2, [r3]	@ zero_extendqisi2
 2174 04d4 0A70     		strb	r2, [r1]
 2175              		.loc 1 83 0
 2176 04d6 012E     		cmp	r6, #1
 2177 04d8 11D0     		beq	.L243
 2178              	.LVL348:
 2179              		.loc 1 82 0
 2180 04da 5A78     		ldrb	r2, [r3, #1]	@ zero_extendqisi2
 2181 04dc 4A70     		strb	r2, [r1, #1]
 2182              		.loc 1 83 0
 2183 04de 022E     		cmp	r6, #2
 2184 04e0 0DD0     		beq	.L243
 2185              	.LVL349:
 2186              		.loc 1 82 0
 2187 04e2 9A78     		ldrb	r2, [r3, #2]	@ zero_extendqisi2
 2188 04e4 8A70     		strb	r2, [r1, #2]
 2189              		.loc 1 83 0
 2190 04e6 032E     		cmp	r6, #3
 2191 04e8 09D0     		beq	.L243
 2192              	.LVL350:
 2193              		.loc 1 82 0
 2194 04ea DA78     		ldrb	r2, [r3, #3]	@ zero_extendqisi2
 2195 04ec CA70     		strb	r2, [r1, #3]
 2196              		.loc 1 83 0
 2197 04ee 042E     		cmp	r6, #4
 2198 04f0 05D0     		beq	.L243
 2199              	.LVL351:
 2200              		.loc 1 82 0
 2201 04f2 1A79     		ldrb	r2, [r3, #4]	@ zero_extendqisi2
 2202 04f4 0A71     		strb	r2, [r1, #4]
 2203              		.loc 1 83 0
 2204 04f6 052E     		cmp	r6, #5
 2205 04f8 01D0     		beq	.L243
 2206              	.LVL352:
 2207              		.loc 1 82 0
 2208 04fa 5B79     		ldrb	r3, [r3, #5]	@ zero_extendqisi2
 2209              	.LVL353:
 2210 04fc 4B71     		strb	r3, [r1, #5]
 2211              	.LVL354:
 2212              	.L243:
 2213 04fe 009B     		ldr	r3, [sp]
 2214 0500 9844     		add	r8, r8, r3
 2215              	.LVL355:
 2216 0502 06AB     		add	r3, sp, #24
 2217              	.LVL356:
 2218 0504 A8EB0308 		sub	r8, r8, r3
 2219 0508 08F1FF33 		add	r3, r8, #-1
 2220              	.LVL357:
 2221 050c A4EB0804 		sub	r4, r4, r8
 2222              	.LVL358:
 2223 0510 0093     		str	r3, [sp]
ARM GAS  /tmp/ccQCTkSU.s 			page 40


 2224              	.LBE101:
 2225              	.LBE100:
 2226              	.LBE99:
 2227              	.LBE115:
 2228              		.loc 1 257 0
 2229 0512 06AE     		add	r6, sp, #24
 2230              	.LVL359:
 2231 0514 A2E6     		b	.L226
 2232              	.LVL360:
 2233              	.L218:
 2234 0516 4846     		mov	r0, r9
 2235              	.LBB116:
 2236              		.loc 1 328 0
 2237 0518 192B     		cmp	r3, #25
 2238 051a 50F8041B 		ldr	r1, [r0], #4
 2239              	.LVL361:
 2240 051e 9346     		mov	fp, r2
 2241              		.loc 1 331 0
 2242 0520 88BF     		it	hi
 2243 0522 8146     		movhi	r9, r0
 2244              	.LVL362:
 2245              		.loc 1 328 0
 2246 0524 3FF663AF 		bhi	.L232
 2247 0528 5EE7     		b	.L233
 2248              	.L368:
 2249 052a 00BF     		.align	2
 2250              	.L367:
 2251 052c 00000000 		.word	.LANCHOR1
 2252 0530 CDCCCCCC 		.word	-858993459
 2253              	.LVL363:
 2254              	.L277:
 2255              	.LBE116:
 2256              		.loc 1 309 0
 2257 0534 9346     		mov	fp, r2
 2258 0536 1026     		movs	r6, #16
 2259 0538 D3E6     		b	.L222
 2260              	.LVL364:
 2261              	.L362:
 2262              	.LBB117:
 2263              		.loc 1 346 0
 2264 053a D6E90023 		ldrd	r2, [r6]
 2265 053e 03F10043 		add	r3, r3, #-2147483648
 2266 0542 0593     		str	r3, [sp, #20]
 2267 0544 0492     		str	r2, [sp, #16]
 2268 0546 9DED047B 		vldr.64	d7, [sp, #16]
 2269              		.loc 1 345 0
 2270 054a 2D23     		movs	r3, #45
 2271              		.loc 1 346 0
 2272 054c 86ED007B 		vstr.64	d7, [r6]
 2273              		.loc 1 345 0
 2274 0550 8DF81830 		strb	r3, [sp, #24]
 2275 0554 0DF11900 		add	r0, sp, #25
 2276              	.LVL365:
 2277 0558 68E6     		b	.L244
 2278              	.LVL366:
 2279              	.L227:
 2280 055a 1D49     		ldr	r1, .L369
ARM GAS  /tmp/ccQCTkSU.s 			page 41


 2281              		.loc 1 319 0
 2282 055c 0E46     		mov	r6, r1
 2283 055e B8F1000F 		cmp	r8, #0
 2284 0562 3FF43CAE 		beq	.L353
 2285              	.LVL367:
 2286              	.L270:
 2287              		.loc 1 321 0
 2288 0566 08F1FF38 		add	r8, r8, #-1
 2289              	.LVL368:
 2290 056a 3AE6     		b	.L269
 2291              	.LVL369:
 2292              	.L250:
 2293 056c 06AA     		add	r2, sp, #24
 2294              	.LVL370:
 2295              	.L254:
 2296              	.LBB104:
 2297              	.LBB96:
 2298              	.LBB93:
 2299              		.loc 1 82 0
 2300 056e 13F8011B 		ldrb	r1, [r3], #1	@ zero_extendqisi2
 2301              	.LVL371:
 2302 0572 02F8011B 		strb	r1, [r2], #1
 2303              		.loc 1 83 0
 2304 0576 8342     		cmp	r3, r0
 2305 0578 F9D1     		bne	.L254
 2306 057a 0CF1FF38 		add	r8, ip, #-1
 2307              	.LVL372:
 2308 057e F8E6     		b	.L255
 2309              	.LVL373:
 2310              	.L360:
 2311              	.LBE93:
 2312              	.LBE96:
 2313              	.LBE104:
 2314              		.loc 1 321 0
 2315 0580 002B     		cmp	r3, #0
 2316 0582 F0D1     		bne	.L270
 2317 0584 4FF0FF33 		mov	r3, #-1
 2318 0588 0093     		str	r3, [sp]
 2319              		.loc 1 316 0
 2320 058a 2027     		movs	r7, #32
 2321 058c 66E6     		b	.L226
 2322              	.LVL374:
 2323              	.L366:
 2324              		.loc 1 334 0
 2325 058e 2D23     		movs	r3, #45
 2326              		.loc 1 335 0
 2327 0590 4942     		negs	r1, r1
 2328              	.LVL375:
 2329              		.loc 1 334 0
 2330 0592 8DF81830 		strb	r3, [sp, #24]
 2331 0596 0DF11908 		add	r8, sp, #25
 2332              	.LVL376:
 2333 059a 2DE7     		b	.L234
 2334              	.LVL377:
 2335              	.L287:
 2336              	.LBB105:
 2337              	.LBB97:
ARM GAS  /tmp/ccQCTkSU.s 			page 42


 2338              	.LBB94:
 2339              		.loc 1 80 0
 2340 059c 6046     		mov	r0, ip
 2341 059e 06A9     		add	r1, sp, #24
 2342 05a0 DDE6     		b	.L251
 2343              	.LVL378:
 2344              	.L236:
 2345 05a2 0099     		ldr	r1, [sp]
 2346 05a4 08F1FF32 		add	r2, r8, #-1
 2347 05a8 5818     		adds	r0, r3, r1
 2348              	.LVL379:
 2349              	.L242:
 2350              	.LBE94:
 2351              	.LBE97:
 2352              	.LBE105:
 2353              	.LBB106:
 2354              	.LBB103:
 2355              	.LBB102:
 2356              		.loc 1 82 0
 2357 05aa 13F8011B 		ldrb	r1, [r3], #1	@ zero_extendqisi2
 2358              	.LVL380:
 2359 05ae 02F8011F 		strb	r1, [r2, #1]!
 2360              		.loc 1 83 0
 2361 05b2 9842     		cmp	r0, r3
 2362 05b4 F9D1     		bne	.L242
 2363 05b6 A2E7     		b	.L243
 2364              	.LVL381:
 2365              	.L285:
 2366              		.loc 1 80 0
 2367 05b8 1A46     		mov	r2, r3
 2368 05ba CDE90268 		strd	r6, r8, [sp, #8]
 2369 05be 6DE7     		b	.L238
 2370              	.L284:
 2371 05c0 4146     		mov	r1, r8
 2372 05c2 86E7     		b	.L237
 2373              	.LVL382:
 2374              	.L361:
 2375              	.LBE102:
 2376              	.LBE103:
 2377              	.LBE106:
 2378              		.loc 1 321 0
 2379 05c4 4FF0FF33 		mov	r3, #-1
 2380 05c8 0093     		str	r3, [sp]
 2381              		.loc 1 316 0
 2382 05ca 2027     		movs	r7, #32
 2383 05cc 49E6     		b	.L256
 2384              	.L370:
 2385 05ce 00BF     		.align	2
 2386              	.L369:
 2387 05d0 00000000 		.word	.LC0
 2388              	.LBE117:
 2389              		.cfi_endproc
 2390              	.LFE330:
 2391              		.size	chvprintf, .-chvprintf
 2392              		.section	.text.chprintf,"ax",%progbits
 2393              		.align	1
 2394              		.p2align 2,,3
ARM GAS  /tmp/ccQCTkSU.s 			page 43


 2395              		.global	chprintf
 2396              		.syntax unified
 2397              		.thumb
 2398              		.thumb_func
 2399              		.fpu fpv4-sp-d16
 2400              		.type	chprintf, %function
 2401              	chprintf:
 2402              	.LFB331:
 2403              		.loc 1 433 0
 2404              		.cfi_startproc
 2405              		@ args = 4, pretend = 12, frame = 8
 2406              		@ frame_needed = 0, uses_anonymous_args = 1
 2407              	.LVL383:
 2408 0000 0EB4     		push	{r1, r2, r3}
 2409              		.cfi_def_cfa_offset 12
 2410              		.cfi_offset 1, -12
 2411              		.cfi_offset 2, -8
 2412              		.cfi_offset 3, -4
 2413 0002 00B5     		push	{lr}
 2414              		.cfi_def_cfa_offset 16
 2415              		.cfi_offset 14, -16
 2416 0004 82B0     		sub	sp, sp, #8
 2417              		.cfi_def_cfa_offset 24
 2418              		.loc 1 433 0
 2419 0006 03AA     		add	r2, sp, #12
 2420 0008 52F8041B 		ldr	r1, [r2], #4
 2421              		.loc 1 437 0
 2422 000c 0192     		str	r2, [sp, #4]
 2423              		.loc 1 438 0
 2424 000e FFF7FEFF 		bl	chvprintf
 2425              	.LVL384:
 2426              		.loc 1 442 0
 2427 0012 02B0     		add	sp, sp, #8
 2428              		.cfi_def_cfa_offset 16
 2429              		@ sp needed
 2430 0014 5DF804EB 		ldr	lr, [sp], #4
 2431              		.cfi_restore 14
 2432              		.cfi_def_cfa_offset 12
 2433 0018 03B0     		add	sp, sp, #12
 2434              		.cfi_restore 3
 2435              		.cfi_restore 2
 2436              		.cfi_restore 1
 2437              		.cfi_def_cfa_offset 0
 2438 001a 7047     		bx	lr
 2439              		.cfi_endproc
 2440              	.LFE331:
 2441              		.size	chprintf, .-chprintf
 2442              		.section	.text.chsnprintf,"ax",%progbits
 2443              		.align	1
 2444              		.p2align 2,,3
 2445              		.global	chsnprintf
 2446              		.syntax unified
 2447              		.thumb
 2448              		.thumb_func
 2449              		.fpu fpv4-sp-d16
 2450              		.type	chsnprintf, %function
 2451              	chsnprintf:
ARM GAS  /tmp/ccQCTkSU.s 			page 44


 2452              	.LFB332:
 2453              		.loc 1 472 0
 2454              		.cfi_startproc
 2455              		@ args = 4, pretend = 8, frame = 24
 2456              		@ frame_needed = 0, uses_anonymous_args = 1
 2457              	.LVL385:
 2458 0000 0CB4     		push	{r2, r3}
 2459              		.cfi_def_cfa_offset 8
 2460              		.cfi_offset 2, -8
 2461              		.cfi_offset 3, -4
 2462 0002 F0B5     		push	{r4, r5, r6, r7, lr}
 2463              		.cfi_def_cfa_offset 28
 2464              		.cfi_offset 4, -28
 2465              		.cfi_offset 5, -24
 2466              		.cfi_offset 6, -20
 2467              		.cfi_offset 7, -16
 2468              		.cfi_offset 14, -12
 2469 0004 87B0     		sub	sp, sp, #28
 2470              		.cfi_def_cfa_offset 56
 2471              		.loc 1 472 0
 2472 0006 0CAC     		add	r4, sp, #48
 2473 0008 0646     		mov	r6, r0
 2474 000a 54F8047B 		ldr	r7, [r4], #4
 2475              		.loc 1 477 0
 2476 000e 0094     		str	r4, [sp]
 2477              	.LVL386:
 2478              	.LBB120:
 2479              	.LBB121:
 2480              		.loc 1 520 0
 2481 0010 0D46     		mov	r5, r1
 2482 0012 A1B1     		cbz	r1, .L374
 2483              	.LVL387:
 2484              		.loc 1 527 0
 2485 0014 0023     		movs	r3, #0
 2486 0016 4A1E     		subs	r2, r1, #1
 2487              	.LVL388:
 2488 0018 01A8     		add	r0, sp, #4
 2489              	.LVL389:
 2490 001a 3146     		mov	r1, r6
 2491              	.LVL390:
 2492 001c FFF7FEFF 		bl	msObjectInit
 2493              	.LVL391:
 2494              		.loc 1 531 0
 2495 0020 2246     		mov	r2, r4
 2496 0022 3946     		mov	r1, r7
 2497 0024 01A8     		add	r0, sp, #4
 2498              	.LVL392:
 2499 0026 FFF7FEFF 		bl	chvprintf
 2500              	.LVL393:
 2501              		.loc 1 534 0
 2502 002a 049B     		ldr	r3, [sp, #16]
 2503 002c 9D42     		cmp	r5, r3
 2504 002e 01D9     		bls	.L373
 2505              		.loc 1 536 0
 2506 0030 0022     		movs	r2, #0
 2507 0032 F254     		strb	r2, [r6, r3]
 2508              	.LVL394:
ARM GAS  /tmp/ccQCTkSU.s 			page 45


 2509              	.L373:
 2510              	.LBE121:
 2511              	.LBE120:
 2512              		.loc 1 483 0
 2513 0034 07B0     		add	sp, sp, #28
 2514              		.cfi_remember_state
 2515              		.cfi_def_cfa_offset 28
 2516              		@ sp needed
 2517 0036 BDE8F040 		pop	{r4, r5, r6, r7, lr}
 2518              		.cfi_restore 14
 2519              		.cfi_restore 7
 2520              		.cfi_restore 6
 2521              		.cfi_restore 5
 2522              		.cfi_restore 4
 2523              		.cfi_def_cfa_offset 8
 2524              	.LVL395:
 2525 003a 02B0     		add	sp, sp, #8
 2526              		.cfi_restore 3
 2527              		.cfi_restore 2
 2528              		.cfi_def_cfa_offset 0
 2529 003c 7047     		bx	lr
 2530              	.LVL396:
 2531              	.L374:
 2532              		.cfi_restore_state
 2533              	.LBB123:
 2534              	.LBB122:
 2535              		.loc 1 527 0
 2536 003e 0146     		mov	r1, r0
 2537              	.LVL397:
 2538 0040 2B46     		mov	r3, r5
 2539 0042 01A8     		add	r0, sp, #4
 2540              	.LVL398:
 2541 0044 2A46     		mov	r2, r5
 2542 0046 FFF7FEFF 		bl	msObjectInit
 2543              	.LVL399:
 2544              		.loc 1 531 0
 2545 004a 2246     		mov	r2, r4
 2546 004c 3946     		mov	r1, r7
 2547 004e 01A8     		add	r0, sp, #4
 2548              	.LVL400:
 2549 0050 FFF7FEFF 		bl	chvprintf
 2550              	.LVL401:
 2551              	.LBE122:
 2552              	.LBE123:
 2553              		.loc 1 483 0
 2554 0054 07B0     		add	sp, sp, #28
 2555              		.cfi_def_cfa_offset 28
 2556              		@ sp needed
 2557 0056 BDE8F040 		pop	{r4, r5, r6, r7, lr}
 2558              		.cfi_restore 14
 2559              		.cfi_restore 7
 2560              		.cfi_restore 6
 2561              		.cfi_restore 5
 2562              		.cfi_restore 4
 2563              		.cfi_def_cfa_offset 8
 2564              	.LVL402:
 2565 005a 02B0     		add	sp, sp, #8
ARM GAS  /tmp/ccQCTkSU.s 			page 46


 2566              		.cfi_restore 3
 2567              		.cfi_restore 2
 2568              		.cfi_def_cfa_offset 0
 2569              	.LVL403:
 2570 005c 7047     		bx	lr
 2571              		.cfi_endproc
 2572              	.LFE332:
 2573              		.size	chsnprintf, .-chsnprintf
 2574 005e 00BF     		.section	.text.chvsnprintf,"ax",%progbits
 2575              		.align	1
 2576              		.p2align 2,,3
 2577              		.global	chvsnprintf
 2578              		.syntax unified
 2579              		.thumb
 2580              		.thumb_func
 2581              		.fpu fpv4-sp-d16
 2582              		.type	chvsnprintf, %function
 2583              	chvsnprintf:
 2584              	.LFB333:
 2585              		.loc 1 514 0
 2586              		.cfi_startproc
 2587              		@ args = 0, pretend = 0, frame = 24
 2588              		@ frame_needed = 0, uses_anonymous_args = 0
 2589              	.LVL404:
 2590 0000 F0B5     		push	{r4, r5, r6, r7, lr}
 2591              		.cfi_def_cfa_offset 20
 2592              		.cfi_offset 4, -20
 2593              		.cfi_offset 5, -16
 2594              		.cfi_offset 6, -12
 2595              		.cfi_offset 7, -8
 2596              		.cfi_offset 14, -4
 2597 0002 0546     		mov	r5, r0
 2598 0004 87B0     		sub	sp, sp, #28
 2599              		.cfi_def_cfa_offset 48
 2600              		.loc 1 514 0
 2601 0006 1646     		mov	r6, r2
 2602 0008 1F46     		mov	r7, r3
 2603              		.loc 1 520 0
 2604 000a 0C46     		mov	r4, r1
 2605 000c 89B1     		cbz	r1, .L378
 2606              	.LVL405:
 2607              		.loc 1 527 0
 2608 000e 0023     		movs	r3, #0
 2609              	.LVL406:
 2610 0010 4A1E     		subs	r2, r1, #1
 2611              	.LVL407:
 2612 0012 01A8     		add	r0, sp, #4
 2613              	.LVL408:
 2614 0014 2946     		mov	r1, r5
 2615              	.LVL409:
 2616 0016 FFF7FEFF 		bl	msObjectInit
 2617              	.LVL410:
 2618              		.loc 1 531 0
 2619 001a 3A46     		mov	r2, r7
 2620 001c 3146     		mov	r1, r6
 2621 001e 01A8     		add	r0, sp, #4
 2622              	.LVL411:
ARM GAS  /tmp/ccQCTkSU.s 			page 47


 2623 0020 FFF7FEFF 		bl	chvprintf
 2624              	.LVL412:
 2625              		.loc 1 534 0
 2626 0024 049B     		ldr	r3, [sp, #16]
 2627 0026 A342     		cmp	r3, r4
 2628 0028 01D2     		bcs	.L377
 2629              		.loc 1 536 0
 2630 002a 0022     		movs	r2, #0
 2631 002c EA54     		strb	r2, [r5, r3]
 2632              	.L377:
 2633              		.loc 1 541 0
 2634 002e 07B0     		add	sp, sp, #28
 2635              		.cfi_remember_state
 2636              		.cfi_def_cfa_offset 20
 2637              		@ sp needed
 2638 0030 F0BD     		pop	{r4, r5, r6, r7, pc}
 2639              	.LVL413:
 2640              	.L378:
 2641              		.cfi_restore_state
 2642              		.loc 1 527 0
 2643 0032 0146     		mov	r1, r0
 2644              	.LVL414:
 2645 0034 2346     		mov	r3, r4
 2646              	.LVL415:
 2647 0036 01A8     		add	r0, sp, #4
 2648              	.LVL416:
 2649 0038 2246     		mov	r2, r4
 2650              	.LVL417:
 2651 003a FFF7FEFF 		bl	msObjectInit
 2652              	.LVL418:
 2653              		.loc 1 531 0
 2654 003e 3A46     		mov	r2, r7
 2655 0040 3146     		mov	r1, r6
 2656 0042 01A8     		add	r0, sp, #4
 2657              	.LVL419:
 2658 0044 FFF7FEFF 		bl	chvprintf
 2659              	.LVL420:
 2660              		.loc 1 541 0
 2661 0048 07B0     		add	sp, sp, #28
 2662              		.cfi_def_cfa_offset 20
 2663              		@ sp needed
 2664 004a F0BD     		pop	{r4, r5, r6, r7, pc}
 2665              		.cfi_endproc
 2666              	.LFE333:
 2667              		.size	chvsnprintf, .-chvsnprintf
 2668              		.section	.bss.f.10757,"aw",%nobits
 2669              		.align	3
 2670              		.set	.LANCHOR1,. + 0
 2671              		.type	f.10757, %object
 2672              		.size	f.10757, 8
 2673              	f.10757:
 2674 0000 00000000 		.space	8
 2674      00000000 
 2675              		.section	.rodata.chvprintf.str1.4,"aMS",%progbits,1
 2676              		.align	2
 2677              	.LC0:
 2678 0000 286E756C 		.ascii	"(null)\000"
ARM GAS  /tmp/ccQCTkSU.s 			page 48


 2678      6C2900
 2679              		.section	.rodata.pow10,"a",%progbits
 2680              		.align	2
 2681              		.set	.LANCHOR0,. + 0
 2682              		.type	pow10, %object
 2683              		.size	pow10, 36
 2684              	pow10:
 2685 0000 0A000000 		.word	10
 2686 0004 64000000 		.word	100
 2687 0008 E8030000 		.word	1000
 2688 000c 10270000 		.word	10000
 2689 0010 A0860100 		.word	100000
 2690 0014 40420F00 		.word	1000000
 2691 0018 80969800 		.word	10000000
 2692 001c 00E1F505 		.word	100000000
 2693 0020 00CA9A3B 		.word	1000000000
 2694              		.text
 2695              	.Letext0:
 2696              		.file 2 "/usr/lib/gcc/arm-none-eabi/7.3.1/include/stddef.h"
 2697              		.file 3 "/usr/arm-none-eabi/include/machine/_default_types.h"
 2698              		.file 4 "/usr/arm-none-eabi/include/sys/_stdint.h"
 2699              		.file 5 "./RM18A-ChibiOS18-Core/chibios/os/common/ports/ARMCMx/compilers/GCC/chtypes.h"
 2700              		.file 6 "./RM18A-ChibiOS18-Core/chibios/os/rt/include/chsystypes.h"
 2701              		.file 7 "./RM18A-ChibiOS18-Core/chibios/os/rt/include/chschd.h"
 2702              		.file 8 "./RM18A-ChibiOS18-Core/chibios/os/rt/include/chtime.h"
 2703              		.file 9 "./RM18A-ChibiOS18-Core/chibios/os/common/ext/ARM/CMSIS/Core/Include/core_cm4.h"
 2704              		.file 10 "./RM18A-ChibiOS18-Core/chibios/os/common/ext/ST/STM32F4xx/system_stm32f4xx.h"
 2705              		.file 11 "./RM18A-ChibiOS18-Core/chibios/os/common/ext/ST/STM32F4xx/stm32f427xx.h"
 2706              		.file 12 "./RM18A-ChibiOS18-Core/chibios/os/common/ports/ARMCMx/chcore.h"
 2707              		.file 13 "./RM18A-ChibiOS18-Core/chibios/os/common/ports/ARMCMx/chcore_v7m.h"
 2708              		.file 14 "./RM18A-ChibiOS18-Core/chibios/os/hal/ports/STM32/LLD/TIMv1/stm32_tim.h"
 2709              		.file 15 "./RM18A-ChibiOS18-Core/chibios/os/rt/include/chtm.h"
 2710              		.file 16 "./RM18A-ChibiOS18-Core/chibios/os/rt/include/chsem.h"
 2711              		.file 17 "./RM18A-ChibiOS18-Core/chibios/os/rt/include/chmtx.h"
 2712              		.file 18 "./RM18A-ChibiOS18-Core/chibios/os/rt/include/chsys.h"
 2713              		.file 19 "./RM18A-ChibiOS18-Core/chibios/os/rt/include/chregistry.h"
 2714              		.file 20 "./RM18A-ChibiOS18-Core/chibios/os/rt/include/chevents.h"
 2715              		.file 21 "./RM18A-ChibiOS18-Core/chibios/os/oslib/include/chmemcore.h"
 2716              		.file 22 "./RM18A-ChibiOS18-Core/chibios/os/oslib/include/chmempools.h"
 2717              		.file 23 "./RM18A-ChibiOS18-Core/chibios/os/oslib/include/chfactory.h"
 2718              		.file 24 "./RM18A-ChibiOS18-Core/chibios/os/hal/ports/STM32/LLD/DMAv2/stm32_dma.h"
 2719              		.file 25 "./RM18A-ChibiOS18-Core/chibios/os/hal/include/hal_streams.h"
 2720              		.file 26 "./RM18A-ChibiOS18-Core/chibios/os/hal/include/hal_queues.h"
 2721              		.file 27 "./RM18A-ChibiOS18-Core/chibios/os/hal/include/hal_pal.h"
 2722              		.file 28 "./RM18A-ChibiOS18-Core/chibios/os/hal/ports/STM32/LLD/GPIOv2/hal_pal_lld.h"
 2723              		.file 29 "./RM18A-ChibiOS18-Core/chibios/os/hal/include/hal_adc.h"
 2724              		.file 30 "./RM18A-ChibiOS18-Core/chibios/os/hal/ports/STM32/LLD/ADCv2/hal_adc_lld.h"
 2725              		.file 31 "./RM18A-ChibiOS18-Core/chibios/os/hal/include/hal_can.h"
 2726              		.file 32 "./RM18A-ChibiOS18-Core/chibios/os/hal/ports/STM32/LLD/CANv1/hal_can_lld.h"
 2727              		.file 33 "./RM18A-ChibiOS18-Core/chibios/os/hal/include/hal_i2c.h"
 2728              		.file 34 "./RM18A-ChibiOS18-Core/chibios/os/hal/lib/fallback/I2C/hal_i2c_lld.h"
 2729              		.file 35 "./RM18A-ChibiOS18-Core/chibios/os/hal/include/hal_icu.h"
 2730              		.file 36 "./RM18A-ChibiOS18-Core/chibios/os/hal/ports/STM32/LLD/TIMv1/hal_icu_lld.h"
 2731              		.file 37 "./RM18A-ChibiOS18-Core/chibios/os/hal/include/hal_pwm.h"
 2732              		.file 38 "./RM18A-ChibiOS18-Core/chibios/os/hal/ports/STM32/LLD/TIMv1/hal_pwm_lld.h"
 2733              		.file 39 "./RM18A-ChibiOS18-Core/chibios/os/hal/include/hal_serial.h"
 2734              		.file 40 "./RM18A-ChibiOS18-Core/chibios/os/hal/ports/STM32/LLD/USARTv1/hal_serial_lld.h"
ARM GAS  /tmp/ccQCTkSU.s 			page 49


 2735              		.file 41 "./RM18A-ChibiOS18-Core/chibios/os/hal/include/hal_spi.h"
 2736              		.file 42 "./RM18A-ChibiOS18-Core/chibios/os/hal/ports/STM32/LLD/SPIv1/hal_spi_lld.h"
 2737              		.file 43 "./RM18A-ChibiOS18-Core/chibios/os/hal/include/hal_uart.h"
 2738              		.file 44 "./RM18A-ChibiOS18-Core/chibios/os/hal/ports/STM32/LLD/USARTv1/hal_uart_lld.h"
 2739              		.file 45 "./RM18A-ChibiOS18-Core/chibios/os/hal/include/hal_usb.h"
 2740              		.file 46 "./RM18A-ChibiOS18-Core/chibios/os/hal/ports/STM32/LLD/OTGv1/hal_usb_lld.h"
 2741              		.file 47 "./RM18A-ChibiOS18-Core/chibios/os/hal/ports/STM32/LLD/OTGv1/stm32_otg.h"
 2742              		.file 48 "/usr/lib/gcc/arm-none-eabi/7.3.1/include/stdarg.h"
 2743              		.file 49 "<built-in>"
 2744              		.file 50 "./RM18A-ChibiOS18-Core/chibios/os/hal/lib/streams/memstreams.h"
 2745              		.file 51 "/usr/arm-none-eabi/include/sys/lock.h"
 2746              		.file 52 "/usr/arm-none-eabi/include/sys/_types.h"
 2747              		.file 53 "/usr/arm-none-eabi/include/sys/reent.h"
 2748              		.section	.debug_info,"",%progbits
 2749              	.Ldebug_info0:
 2750 0000 1C3D0000 		.4byte	0x3d1c
 2751 0004 0400     		.2byte	0x4
 2752 0006 00000000 		.4byte	.Ldebug_abbrev0
 2753 000a 04       		.byte	0x4
 2754 000b 01       		.uleb128 0x1
 2755 000c CF1A0000 		.4byte	.LASF721
 2756 0010 0C       		.byte	0xc
 2757 0011 59120000 		.4byte	.LASF722
 2758 0015 88050000 		.4byte	.LASF723
 2759 0019 C8010000 		.4byte	.Ldebug_ranges0+0x1c8
 2760 001d 00000000 		.4byte	0
 2761 0021 00000000 		.4byte	.Ldebug_line0
 2762 0025 02       		.uleb128 0x2
 2763 0026 08       		.byte	0x8
 2764 0027 07       		.byte	0x7
 2765 0028 57180000 		.4byte	.LASF0
 2766 002c 02       		.uleb128 0x2
 2767 002d 04       		.byte	0x4
 2768 002e 07       		.byte	0x7
 2769 002f 821C0000 		.4byte	.LASF1
 2770 0033 02       		.uleb128 0x2
 2771 0034 08       		.byte	0x8
 2772 0035 04       		.byte	0x4
 2773 0036 5D160000 		.4byte	.LASF2
 2774 003a 03       		.uleb128 0x3
 2775 003b 04       		.byte	0x4
 2776 003c 05       		.byte	0x5
 2777 003d 696E7400 		.ascii	"int\000"
 2778 0041 04       		.uleb128 0x4
 2779 0042 720A0000 		.4byte	.LASF6
 2780 0046 02       		.byte	0x2
 2781 0047 D8       		.byte	0xd8
 2782 0048 2C000000 		.4byte	0x2c
 2783 004c 05       		.uleb128 0x5
 2784 004d 41000000 		.4byte	0x41
 2785 0051 02       		.uleb128 0x2
 2786 0052 08       		.byte	0x8
 2787 0053 05       		.byte	0x5
 2788 0054 3C1A0000 		.4byte	.LASF3
 2789 0058 02       		.uleb128 0x2
 2790 0059 08       		.byte	0x8
 2791 005a 04       		.byte	0x4
ARM GAS  /tmp/ccQCTkSU.s 			page 50


 2792 005b 0E130000 		.4byte	.LASF4
 2793 005f 02       		.uleb128 0x2
 2794 0060 01       		.byte	0x1
 2795 0061 06       		.byte	0x6
 2796 0062 0B100000 		.4byte	.LASF5
 2797 0066 04       		.uleb128 0x4
 2798 0067 A1000000 		.4byte	.LASF7
 2799 006b 03       		.byte	0x3
 2800 006c 2B       		.byte	0x2b
 2801 006d 71000000 		.4byte	0x71
 2802 0071 02       		.uleb128 0x2
 2803 0072 01       		.byte	0x1
 2804 0073 08       		.byte	0x8
 2805 0074 62070000 		.4byte	.LASF8
 2806 0078 02       		.uleb128 0x2
 2807 0079 02       		.byte	0x2
 2808 007a 05       		.byte	0x5
 2809 007b C91C0000 		.4byte	.LASF9
 2810 007f 04       		.uleb128 0x4
 2811 0080 15060000 		.4byte	.LASF10
 2812 0084 03       		.byte	0x3
 2813 0085 39       		.byte	0x39
 2814 0086 8A000000 		.4byte	0x8a
 2815 008a 02       		.uleb128 0x2
 2816 008b 02       		.byte	0x2
 2817 008c 07       		.byte	0x7
 2818 008d F80F0000 		.4byte	.LASF11
 2819 0091 04       		.uleb128 0x4
 2820 0092 04170000 		.4byte	.LASF12
 2821 0096 03       		.byte	0x3
 2822 0097 4D       		.byte	0x4d
 2823 0098 9C000000 		.4byte	0x9c
 2824 009c 02       		.uleb128 0x2
 2825 009d 04       		.byte	0x4
 2826 009e 05       		.byte	0x5
 2827 009f D7110000 		.4byte	.LASF13
 2828 00a3 06       		.uleb128 0x6
 2829 00a4 9C000000 		.4byte	0x9c
 2830 00a8 04       		.uleb128 0x4
 2831 00a9 0E170000 		.4byte	.LASF14
 2832 00ad 03       		.byte	0x3
 2833 00ae 4F       		.byte	0x4f
 2834 00af B3000000 		.4byte	0xb3
 2835 00b3 02       		.uleb128 0x2
 2836 00b4 04       		.byte	0x4
 2837 00b5 07       		.byte	0x7
 2838 00b6 54130000 		.4byte	.LASF15
 2839 00ba 04       		.uleb128 0x4
 2840 00bb D80C0000 		.4byte	.LASF16
 2841 00bf 03       		.byte	0x3
 2842 00c0 69       		.byte	0x69
 2843 00c1 25000000 		.4byte	0x25
 2844 00c5 04       		.uleb128 0x4
 2845 00c6 9B0A0000 		.4byte	.LASF17
 2846 00ca 04       		.byte	0x4
 2847 00cb 18       		.byte	0x18
 2848 00cc 66000000 		.4byte	0x66
ARM GAS  /tmp/ccQCTkSU.s 			page 51


 2849 00d0 06       		.uleb128 0x6
 2850 00d1 C5000000 		.4byte	0xc5
 2851 00d5 04       		.uleb128 0x4
 2852 00d6 9A010000 		.4byte	.LASF18
 2853 00da 04       		.byte	0x4
 2854 00db 24       		.byte	0x24
 2855 00dc 7F000000 		.4byte	0x7f
 2856 00e0 05       		.uleb128 0x5
 2857 00e1 D5000000 		.4byte	0xd5
 2858 00e5 04       		.uleb128 0x4
 2859 00e6 1C030000 		.4byte	.LASF19
 2860 00ea 04       		.byte	0x4
 2861 00eb 2C       		.byte	0x2c
 2862 00ec 91000000 		.4byte	0x91
 2863 00f0 05       		.uleb128 0x5
 2864 00f1 E5000000 		.4byte	0xe5
 2865 00f5 04       		.uleb128 0x4
 2866 00f6 D5120000 		.4byte	.LASF20
 2867 00fa 04       		.byte	0x4
 2868 00fb 30       		.byte	0x30
 2869 00fc A8000000 		.4byte	0xa8
 2870 0100 05       		.uleb128 0x5
 2871 0101 F5000000 		.4byte	0xf5
 2872 0105 04       		.uleb128 0x4
 2873 0106 A0080000 		.4byte	.LASF21
 2874 010a 04       		.byte	0x4
 2875 010b 3C       		.byte	0x3c
 2876 010c BA000000 		.4byte	0xba
 2877 0110 04       		.uleb128 0x4
 2878 0111 180A0000 		.4byte	.LASF22
 2879 0115 05       		.byte	0x5
 2880 0116 27       		.byte	0x27
 2881 0117 F5000000 		.4byte	0xf5
 2882 011b 04       		.uleb128 0x4
 2883 011c 060E0000 		.4byte	.LASF23
 2884 0120 05       		.byte	0x5
 2885 0121 2A       		.byte	0x2a
 2886 0122 C5000000 		.4byte	0xc5
 2887 0126 04       		.uleb128 0x4
 2888 0127 F9180000 		.4byte	.LASF24
 2889 012b 05       		.byte	0x5
 2890 012c 2B       		.byte	0x2b
 2891 012d C5000000 		.4byte	0xc5
 2892 0131 04       		.uleb128 0x4
 2893 0132 BA0D0000 		.4byte	.LASF25
 2894 0136 05       		.byte	0x5
 2895 0137 2C       		.byte	0x2c
 2896 0138 C5000000 		.4byte	0xc5
 2897 013c 04       		.uleb128 0x4
 2898 013d 15050000 		.4byte	.LASF26
 2899 0141 05       		.byte	0x5
 2900 0142 2E       		.byte	0x2e
 2901 0143 F5000000 		.4byte	0xf5
 2902 0147 04       		.uleb128 0x4
 2903 0148 53000000 		.4byte	.LASF27
 2904 014c 05       		.byte	0x5
 2905 014d 2F       		.byte	0x2f
ARM GAS  /tmp/ccQCTkSU.s 			page 52


 2906 014e E5000000 		.4byte	0xe5
 2907 0152 04       		.uleb128 0x4
 2908 0153 2F130000 		.4byte	.LASF28
 2909 0157 05       		.byte	0x5
 2910 0158 31       		.byte	0x31
 2911 0159 F5000000 		.4byte	0xf5
 2912 015d 04       		.uleb128 0x4
 2913 015e 8A1A0000 		.4byte	.LASF29
 2914 0162 05       		.byte	0x5
 2915 0163 32       		.byte	0x32
 2916 0164 F5000000 		.4byte	0xf5
 2917 0168 04       		.uleb128 0x4
 2918 0169 01150000 		.4byte	.LASF30
 2919 016d 05       		.byte	0x5
 2920 016e 33       		.byte	0x33
 2921 016f E5000000 		.4byte	0xe5
 2922 0173 04       		.uleb128 0x4
 2923 0174 1D100000 		.4byte	.LASF31
 2924 0178 05       		.byte	0x5
 2925 0179 34       		.byte	0x34
 2926 017a F5000000 		.4byte	0xf5
 2927 017e 04       		.uleb128 0x4
 2928 017f EA020000 		.4byte	.LASF32
 2929 0183 06       		.byte	0x6
 2930 0184 34       		.byte	0x34
 2931 0185 89010000 		.4byte	0x189
 2932 0189 07       		.uleb128 0x7
 2933 018a AC070000 		.4byte	.LASF50
 2934 018e 44       		.byte	0x44
 2935 018f 07       		.byte	0x7
 2936 0190 8E       		.byte	0x8e
 2937 0191 67020000 		.4byte	0x267
 2938 0195 08       		.uleb128 0x8
 2939 0196 28180000 		.4byte	.LASF33
 2940 019a 07       		.byte	0x7
 2941 019b 8F       		.byte	0x8f
 2942 019c 9C020000 		.4byte	0x29c
 2943 01a0 00       		.byte	0
 2944 01a1 08       		.uleb128 0x8
 2945 01a2 33010000 		.4byte	.LASF34
 2946 01a6 07       		.byte	0x7
 2947 01a7 90       		.byte	0x90
 2948 01a8 3C010000 		.4byte	0x13c
 2949 01ac 08       		.byte	0x8
 2950 01ad 09       		.uleb128 0x9
 2951 01ae 63747800 		.ascii	"ctx\000"
 2952 01b2 07       		.byte	0x7
 2953 01b3 91       		.byte	0x91
 2954 01b4 F2090000 		.4byte	0x9f2
 2955 01b8 0C       		.byte	0xc
 2956 01b9 08       		.uleb128 0x8
 2957 01ba 6F060000 		.4byte	.LASF35
 2958 01be 07       		.byte	0x7
 2959 01bf 93       		.byte	0x93
 2960 01c0 72020000 		.4byte	0x272
 2961 01c4 10       		.byte	0x10
 2962 01c5 08       		.uleb128 0x8
ARM GAS  /tmp/ccQCTkSU.s 			page 53


 2963 01c6 CF010000 		.4byte	.LASF36
 2964 01ca 07       		.byte	0x7
 2965 01cb 94       		.byte	0x94
 2966 01cc 72020000 		.4byte	0x272
 2967 01d0 14       		.byte	0x14
 2968 01d1 08       		.uleb128 0x8
 2969 01d2 1F0F0000 		.4byte	.LASF37
 2970 01d6 07       		.byte	0x7
 2971 01d7 9B       		.byte	0x9b
 2972 01d8 5E0D0000 		.4byte	0xd5e
 2973 01dc 18       		.byte	0x18
 2974 01dd 08       		.uleb128 0x8
 2975 01de F7100000 		.4byte	.LASF38
 2976 01e2 07       		.byte	0x7
 2977 01e3 A4       		.byte	0xa4
 2978 01e4 750D0000 		.4byte	0xd75
 2979 01e8 1C       		.byte	0x1c
 2980 01e9 08       		.uleb128 0x8
 2981 01ea BC100000 		.4byte	.LASF39
 2982 01ee 07       		.byte	0x7
 2983 01ef A9       		.byte	0xa9
 2984 01f0 26010000 		.4byte	0x126
 2985 01f4 20       		.byte	0x20
 2986 01f5 08       		.uleb128 0x8
 2987 01f6 6B1D0000 		.4byte	.LASF40
 2988 01fa 07       		.byte	0x7
 2989 01fb AD       		.byte	0xad
 2990 01fc 1B010000 		.4byte	0x11b
 2991 0200 21       		.byte	0x21
 2992 0201 08       		.uleb128 0x8
 2993 0202 E1030000 		.4byte	.LASF41
 2994 0206 07       		.byte	0x7
 2995 0207 B2       		.byte	0xb2
 2996 0208 31010000 		.4byte	0x131
 2997 020c 22       		.byte	0x22
 2998 020d 0A       		.uleb128 0xa
 2999 020e 7500     		.ascii	"u\000"
 3000 0210 07       		.byte	0x7
 3001 0211 0301     		.2byte	0x103
 3002 0213 940C0000 		.4byte	0xc94
 3003 0217 24       		.byte	0x24
 3004 0218 0B       		.uleb128 0xb
 3005 0219 3C0D0000 		.4byte	.LASF42
 3006 021d 07       		.byte	0x7
 3007 021e 0801     		.2byte	0x108
 3008 0220 78020000 		.4byte	0x278
 3009 0224 28       		.byte	0x28
 3010 0225 0B       		.uleb128 0xb
 3011 0226 7F100000 		.4byte	.LASF43
 3012 022a 07       		.byte	0x7
 3013 022b 0E01     		.2byte	0x10e
 3014 022d 9C020000 		.4byte	0x29c
 3015 0231 2C       		.byte	0x2c
 3016 0232 0B       		.uleb128 0xb
 3017 0233 BE000000 		.4byte	.LASF44
 3018 0237 07       		.byte	0x7
 3019 0238 1401     		.2byte	0x114
ARM GAS  /tmp/ccQCTkSU.s 			page 54


 3020 023a 52010000 		.4byte	0x152
 3021 023e 34       		.byte	0x34
 3022 023f 0B       		.uleb128 0xb
 3023 0240 F8030000 		.4byte	.LASF45
 3024 0244 07       		.byte	0x7
 3025 0245 1B01     		.2byte	0x11b
 3026 0247 580D0000 		.4byte	0xd58
 3027 024b 38       		.byte	0x38
 3028 024c 0B       		.uleb128 0xb
 3029 024d 351D0000 		.4byte	.LASF46
 3030 0251 07       		.byte	0x7
 3031 0252 1F01     		.2byte	0x11f
 3032 0254 3C010000 		.4byte	0x13c
 3033 0258 3C       		.byte	0x3c
 3034 0259 0B       		.uleb128 0xb
 3035 025a 72110000 		.4byte	.LASF47
 3036 025e 07       		.byte	0x7
 3037 025f 2601     		.2byte	0x126
 3038 0261 4F030000 		.4byte	0x34f
 3039 0265 40       		.byte	0x40
 3040 0266 00       		.byte	0
 3041 0267 04       		.uleb128 0x4
 3042 0268 FA1B0000 		.4byte	.LASF48
 3043 026c 06       		.byte	0x6
 3044 026d 39       		.byte	0x39
 3045 026e 72020000 		.4byte	0x272
 3046 0272 0C       		.uleb128 0xc
 3047 0273 04       		.byte	0x4
 3048 0274 7E010000 		.4byte	0x17e
 3049 0278 04       		.uleb128 0x4
 3050 0279 5D040000 		.4byte	.LASF49
 3051 027d 06       		.byte	0x6
 3052 027e 3E       		.byte	0x3e
 3053 027f 83020000 		.4byte	0x283
 3054 0283 07       		.uleb128 0x7
 3055 0284 711D0000 		.4byte	.LASF51
 3056 0288 04       		.byte	0x4
 3057 0289 07       		.byte	0x7
 3058 028a 7C       		.byte	0x7c
 3059 028b 9C020000 		.4byte	0x29c
 3060 028f 08       		.uleb128 0x8
 3061 0290 CA010000 		.4byte	.LASF52
 3062 0294 07       		.byte	0x7
 3063 0295 7D       		.byte	0x7d
 3064 0296 72020000 		.4byte	0x272
 3065 029a 00       		.byte	0
 3066 029b 00       		.byte	0
 3067 029c 04       		.uleb128 0x4
 3068 029d 84110000 		.4byte	.LASF53
 3069 02a1 06       		.byte	0x6
 3070 02a2 45       		.byte	0x45
 3071 02a3 A7020000 		.4byte	0x2a7
 3072 02a7 07       		.uleb128 0x7
 3073 02a8 26020000 		.4byte	.LASF54
 3074 02ac 08       		.byte	0x8
 3075 02ad 07       		.byte	0x7
 3076 02ae 83       		.byte	0x83
ARM GAS  /tmp/ccQCTkSU.s 			page 55


 3077 02af CC020000 		.4byte	0x2cc
 3078 02b3 08       		.uleb128 0x8
 3079 02b4 CA010000 		.4byte	.LASF52
 3080 02b8 07       		.byte	0x7
 3081 02b9 84       		.byte	0x84
 3082 02ba 72020000 		.4byte	0x272
 3083 02be 00       		.byte	0
 3084 02bf 08       		.uleb128 0x8
 3085 02c0 FD1C0000 		.4byte	.LASF55
 3086 02c4 07       		.byte	0x7
 3087 02c5 85       		.byte	0x85
 3088 02c6 72020000 		.4byte	0x272
 3089 02ca 04       		.byte	0x4
 3090 02cb 00       		.byte	0
 3091 02cc 04       		.uleb128 0x4
 3092 02cd 9F070000 		.4byte	.LASF56
 3093 02d1 06       		.byte	0x6
 3094 02d2 4C       		.byte	0x4c
 3095 02d3 D7020000 		.4byte	0x2d7
 3096 02d7 0D       		.uleb128 0xd
 3097 02d8 EC160000 		.4byte	.LASF57
 3098 02dc 1C       		.byte	0x1c
 3099 02dd 07       		.byte	0x7
 3100 02de 5E01     		.2byte	0x15e
 3101 02e0 33030000 		.4byte	0x333
 3102 02e4 0B       		.uleb128 0xb
 3103 02e5 28180000 		.4byte	.LASF33
 3104 02e9 07       		.byte	0x7
 3105 02ea 5F01     		.2byte	0x15f
 3106 02ec 9C020000 		.4byte	0x29c
 3107 02f0 00       		.byte	0
 3108 02f1 0B       		.uleb128 0xb
 3109 02f2 33010000 		.4byte	.LASF34
 3110 02f6 07       		.byte	0x7
 3111 02f7 6001     		.2byte	0x160
 3112 02f9 3C010000 		.4byte	0x13c
 3113 02fd 08       		.byte	0x8
 3114 02fe 0A       		.uleb128 0xa
 3115 02ff 63747800 		.ascii	"ctx\000"
 3116 0303 07       		.byte	0x7
 3117 0304 6201     		.2byte	0x162
 3118 0306 F2090000 		.4byte	0x9f2
 3119 030a 0C       		.byte	0xc
 3120 030b 0B       		.uleb128 0xb
 3121 030c 6F060000 		.4byte	.LASF35
 3122 0310 07       		.byte	0x7
 3123 0311 6501     		.2byte	0x165
 3124 0313 72020000 		.4byte	0x272
 3125 0317 10       		.byte	0x10
 3126 0318 0B       		.uleb128 0xb
 3127 0319 CF010000 		.4byte	.LASF36
 3128 031d 07       		.byte	0x7
 3129 031e 6601     		.2byte	0x166
 3130 0320 72020000 		.4byte	0x272
 3131 0324 14       		.byte	0x14
 3132 0325 0B       		.uleb128 0xb
 3133 0326 32100000 		.4byte	.LASF58
ARM GAS  /tmp/ccQCTkSU.s 			page 56


 3134 032a 07       		.byte	0x7
 3135 032b 6901     		.2byte	0x169
 3136 032d 72020000 		.4byte	0x272
 3137 0331 18       		.byte	0x18
 3138 0332 00       		.byte	0
 3139 0333 04       		.uleb128 0x4
 3140 0334 FB150000 		.4byte	.LASF59
 3141 0338 06       		.byte	0x6
 3142 0339 51       		.byte	0x51
 3143 033a 3E030000 		.4byte	0x33e
 3144 033e 0C       		.uleb128 0xc
 3145 033f 04       		.byte	0x4
 3146 0340 44030000 		.4byte	0x344
 3147 0344 0E       		.uleb128 0xe
 3148 0345 4F030000 		.4byte	0x34f
 3149 0349 0F       		.uleb128 0xf
 3150 034a 4F030000 		.4byte	0x34f
 3151 034e 00       		.byte	0
 3152 034f 10       		.uleb128 0x10
 3153 0350 04       		.byte	0x4
 3154 0351 04       		.uleb128 0x4
 3155 0352 F3090000 		.4byte	.LASF60
 3156 0356 06       		.byte	0x6
 3157 0357 56       		.byte	0x56
 3158 0358 5C030000 		.4byte	0x35c
 3159 035c 0D       		.uleb128 0xd
 3160 035d C9180000 		.4byte	.LASF61
 3161 0361 14       		.byte	0x14
 3162 0362 07       		.byte	0x7
 3163 0363 3901     		.2byte	0x139
 3164 0365 AB030000 		.4byte	0x3ab
 3165 0369 0B       		.uleb128 0xb
 3166 036a CA010000 		.4byte	.LASF52
 3167 036e 07       		.byte	0x7
 3168 036f 3A01     		.2byte	0x13a
 3169 0371 7B0D0000 		.4byte	0xd7b
 3170 0375 00       		.byte	0
 3171 0376 0B       		.uleb128 0xb
 3172 0377 FD1C0000 		.4byte	.LASF55
 3173 037b 07       		.byte	0x7
 3174 037c 3B01     		.2byte	0x13b
 3175 037e 7B0D0000 		.4byte	0xd7b
 3176 0382 04       		.byte	0x4
 3177 0383 0B       		.uleb128 0xb
 3178 0384 2E080000 		.4byte	.LASF62
 3179 0388 07       		.byte	0x7
 3180 0389 3C01     		.2byte	0x13c
 3181 038b 82040000 		.4byte	0x482
 3182 038f 08       		.byte	0x8
 3183 0390 0B       		.uleb128 0xb
 3184 0391 20110000 		.4byte	.LASF63
 3185 0395 07       		.byte	0x7
 3186 0396 3D01     		.2byte	0x13d
 3187 0398 33030000 		.4byte	0x333
 3188 039c 0C       		.byte	0xc
 3189 039d 0A       		.uleb128 0xa
 3190 039e 70617200 		.ascii	"par\000"
ARM GAS  /tmp/ccQCTkSU.s 			page 57


 3191 03a2 07       		.byte	0x7
 3192 03a3 3F01     		.2byte	0x13f
 3193 03a5 4F030000 		.4byte	0x34f
 3194 03a9 10       		.byte	0x10
 3195 03aa 00       		.byte	0
 3196 03ab 04       		.uleb128 0x4
 3197 03ac C9190000 		.4byte	.LASF64
 3198 03b0 06       		.byte	0x6
 3199 03b1 5B       		.byte	0x5b
 3200 03b2 B6030000 		.4byte	0x3b6
 3201 03b6 0D       		.uleb128 0xd
 3202 03b7 FE020000 		.4byte	.LASF65
 3203 03bb 10       		.byte	0x10
 3204 03bc 07       		.byte	0x7
 3205 03bd 4901     		.2byte	0x149
 3206 03bf F8030000 		.4byte	0x3f8
 3207 03c3 0B       		.uleb128 0xb
 3208 03c4 CA010000 		.4byte	.LASF52
 3209 03c8 07       		.byte	0x7
 3210 03c9 4A01     		.2byte	0x14a
 3211 03cb 7B0D0000 		.4byte	0xd7b
 3212 03cf 00       		.byte	0
 3213 03d0 0B       		.uleb128 0xb
 3214 03d1 FD1C0000 		.4byte	.LASF55
 3215 03d5 07       		.byte	0x7
 3216 03d6 4C01     		.2byte	0x14c
 3217 03d8 7B0D0000 		.4byte	0xd7b
 3218 03dc 04       		.byte	0x4
 3219 03dd 0B       		.uleb128 0xb
 3220 03de 2E080000 		.4byte	.LASF62
 3221 03e2 07       		.byte	0x7
 3222 03e3 4E01     		.2byte	0x14e
 3223 03e5 82040000 		.4byte	0x482
 3224 03e9 08       		.byte	0x8
 3225 03ea 0B       		.uleb128 0xb
 3226 03eb 5C100000 		.4byte	.LASF66
 3227 03ef 07       		.byte	0x7
 3228 03f0 5601     		.2byte	0x156
 3229 03f2 77040000 		.4byte	0x477
 3230 03f6 0C       		.byte	0xc
 3231 03f7 00       		.byte	0
 3232 03f8 04       		.uleb128 0x4
 3233 03f9 09080000 		.4byte	.LASF67
 3234 03fd 06       		.byte	0x6
 3235 03fe 60       		.byte	0x60
 3236 03ff 03040000 		.4byte	0x403
 3237 0403 0D       		.uleb128 0xd
 3238 0404 29170000 		.4byte	.LASF68
 3239 0408 04       		.byte	0x4
 3240 0409 07       		.byte	0x7
 3241 040a 7001     		.2byte	0x170
 3242 040c 1E040000 		.4byte	0x41e
 3243 0410 0B       		.uleb128 0xb
 3244 0411 360F0000 		.4byte	.LASF69
 3245 0415 07       		.byte	0x7
 3246 0416 7801     		.2byte	0x178
 3247 0418 640D0000 		.4byte	0xd64
ARM GAS  /tmp/ccQCTkSU.s 			page 58


 3248 041c 00       		.byte	0
 3249 041d 00       		.byte	0
 3250 041e 04       		.uleb128 0x4
 3251 041f 95000000 		.4byte	.LASF70
 3252 0423 06       		.byte	0x6
 3253 0424 65       		.byte	0x65
 3254 0425 29040000 		.4byte	0x429
 3255 0429 0D       		.uleb128 0xd
 3256 042a E6100000 		.4byte	.LASF71
 3257 042e 78       		.byte	0x78
 3258 042f 07       		.byte	0x7
 3259 0430 9001     		.2byte	0x190
 3260 0432 77040000 		.4byte	0x477
 3261 0436 0B       		.uleb128 0xb
 3262 0437 57040000 		.4byte	.LASF72
 3263 043b 07       		.byte	0x7
 3264 043c 9401     		.2byte	0x194
 3265 043e CC020000 		.4byte	0x2cc
 3266 0442 00       		.byte	0
 3267 0443 0B       		.uleb128 0xb
 3268 0444 20040000 		.4byte	.LASF73
 3269 0448 07       		.byte	0x7
 3270 0449 9801     		.2byte	0x198
 3271 044b AB030000 		.4byte	0x3ab
 3272 044f 1C       		.byte	0x1c
 3273 0450 0A       		.uleb128 0xa
 3274 0451 64626700 		.ascii	"dbg\000"
 3275 0455 07       		.byte	0x7
 3276 0456 9C01     		.2byte	0x19c
 3277 0458 F8030000 		.4byte	0x3f8
 3278 045c 2C       		.byte	0x2c
 3279 045d 0B       		.uleb128 0xb
 3280 045e E0110000 		.4byte	.LASF74
 3281 0462 07       		.byte	0x7
 3282 0463 A001     		.2byte	0x1a0
 3283 0465 7E010000 		.4byte	0x17e
 3284 0469 30       		.byte	0x30
 3285 046a 0A       		.uleb128 0xa
 3286 046b 746D00   		.ascii	"tm\000"
 3287 046e 07       		.byte	0x7
 3288 046f A501     		.2byte	0x1a5
 3289 0471 890C0000 		.4byte	0xc89
 3290 0475 74       		.byte	0x74
 3291 0476 00       		.byte	0
 3292 0477 04       		.uleb128 0x4
 3293 0478 24030000 		.4byte	.LASF75
 3294 047c 08       		.byte	0x8
 3295 047d 6D       		.byte	0x6d
 3296 047e F5000000 		.4byte	0xf5
 3297 0482 04       		.uleb128 0x4
 3298 0483 9E160000 		.4byte	.LASF76
 3299 0487 08       		.byte	0x8
 3300 0488 79       		.byte	0x79
 3301 0489 F5000000 		.4byte	0xf5
 3302 048d 11       		.uleb128 0x11
 3303 048e F5000000 		.4byte	0xf5
 3304 0492 9D040000 		.4byte	0x49d
ARM GAS  /tmp/ccQCTkSU.s 			page 59


 3305 0496 12       		.uleb128 0x12
 3306 0497 2C000000 		.4byte	0x2c
 3307 049b 07       		.byte	0x7
 3308 049c 00       		.byte	0
 3309 049d 13       		.uleb128 0x13
 3310 049e 3C180000 		.4byte	.LASF77
 3311 04a2 09       		.byte	0x9
 3312 04a3 0408     		.2byte	0x804
 3313 04a5 F0000000 		.4byte	0xf0
 3314 04a9 14       		.uleb128 0x14
 3315 04aa 99100000 		.4byte	.LASF78
 3316 04ae 0A       		.byte	0xa
 3317 04af 4C       		.byte	0x4c
 3318 04b0 F5000000 		.4byte	0xf5
 3319 04b4 11       		.uleb128 0x11
 3320 04b5 D0000000 		.4byte	0xd0
 3321 04b9 C4040000 		.4byte	0x4c4
 3322 04bd 12       		.uleb128 0x12
 3323 04be 2C000000 		.4byte	0x2c
 3324 04c2 0F       		.byte	0xf
 3325 04c3 00       		.byte	0
 3326 04c4 06       		.uleb128 0x6
 3327 04c5 B4040000 		.4byte	0x4b4
 3328 04c9 14       		.uleb128 0x14
 3329 04ca C11A0000 		.4byte	.LASF79
 3330 04ce 0A       		.byte	0xa
 3331 04cf 4E       		.byte	0x4e
 3332 04d0 C4040000 		.4byte	0x4c4
 3333 04d4 11       		.uleb128 0x11
 3334 04d5 D0000000 		.4byte	0xd0
 3335 04d9 E4040000 		.4byte	0x4e4
 3336 04dd 12       		.uleb128 0x12
 3337 04de 2C000000 		.4byte	0x2c
 3338 04e2 07       		.byte	0x7
 3339 04e3 00       		.byte	0
 3340 04e4 06       		.uleb128 0x6
 3341 04e5 D4040000 		.4byte	0x4d4
 3342 04e9 14       		.uleb128 0x14
 3343 04ea FE130000 		.4byte	.LASF80
 3344 04ee 0A       		.byte	0xa
 3345 04ef 4F       		.byte	0x4f
 3346 04f0 E4040000 		.4byte	0x4e4
 3347 04f4 15       		.uleb128 0x15
 3348 04f5 50       		.byte	0x50
 3349 04f6 0B       		.byte	0xb
 3350 04f7 CA       		.byte	0xca
 3351 04f8 EB050000 		.4byte	0x5eb
 3352 04fc 09       		.uleb128 0x9
 3353 04fd 535200   		.ascii	"SR\000"
 3354 0500 0B       		.byte	0xb
 3355 0501 CC       		.byte	0xcc
 3356 0502 00010000 		.4byte	0x100
 3357 0506 00       		.byte	0
 3358 0507 09       		.uleb128 0x9
 3359 0508 43523100 		.ascii	"CR1\000"
 3360 050c 0B       		.byte	0xb
 3361 050d CD       		.byte	0xcd
ARM GAS  /tmp/ccQCTkSU.s 			page 60


 3362 050e 00010000 		.4byte	0x100
 3363 0512 04       		.byte	0x4
 3364 0513 09       		.uleb128 0x9
 3365 0514 43523200 		.ascii	"CR2\000"
 3366 0518 0B       		.byte	0xb
 3367 0519 CE       		.byte	0xce
 3368 051a 00010000 		.4byte	0x100
 3369 051e 08       		.byte	0x8
 3370 051f 08       		.uleb128 0x8
 3371 0520 57020000 		.4byte	.LASF81
 3372 0524 0B       		.byte	0xb
 3373 0525 CF       		.byte	0xcf
 3374 0526 00010000 		.4byte	0x100
 3375 052a 0C       		.byte	0xc
 3376 052b 08       		.uleb128 0x8
 3377 052c 5D020000 		.4byte	.LASF82
 3378 0530 0B       		.byte	0xb
 3379 0531 D0       		.byte	0xd0
 3380 0532 00010000 		.4byte	0x100
 3381 0536 10       		.byte	0x10
 3382 0537 08       		.uleb128 0x8
 3383 0538 34080000 		.4byte	.LASF83
 3384 053c 0B       		.byte	0xb
 3385 053d D1       		.byte	0xd1
 3386 053e 00010000 		.4byte	0x100
 3387 0542 14       		.byte	0x14
 3388 0543 08       		.uleb128 0x8
 3389 0544 3A080000 		.4byte	.LASF84
 3390 0548 0B       		.byte	0xb
 3391 0549 D2       		.byte	0xd2
 3392 054a 00010000 		.4byte	0x100
 3393 054e 18       		.byte	0x18
 3394 054f 08       		.uleb128 0x8
 3395 0550 40080000 		.4byte	.LASF85
 3396 0554 0B       		.byte	0xb
 3397 0555 D3       		.byte	0xd3
 3398 0556 00010000 		.4byte	0x100
 3399 055a 1C       		.byte	0x1c
 3400 055b 08       		.uleb128 0x8
 3401 055c 46080000 		.4byte	.LASF86
 3402 0560 0B       		.byte	0xb
 3403 0561 D4       		.byte	0xd4
 3404 0562 00010000 		.4byte	0x100
 3405 0566 20       		.byte	0x20
 3406 0567 09       		.uleb128 0x9
 3407 0568 48545200 		.ascii	"HTR\000"
 3408 056c 0B       		.byte	0xb
 3409 056d D5       		.byte	0xd5
 3410 056e 00010000 		.4byte	0x100
 3411 0572 24       		.byte	0x24
 3412 0573 09       		.uleb128 0x9
 3413 0574 4C545200 		.ascii	"LTR\000"
 3414 0578 0B       		.byte	0xb
 3415 0579 D6       		.byte	0xd6
 3416 057a 00010000 		.4byte	0x100
 3417 057e 28       		.byte	0x28
 3418 057f 08       		.uleb128 0x8
ARM GAS  /tmp/ccQCTkSU.s 			page 61


 3419 0580 450E0000 		.4byte	.LASF87
 3420 0584 0B       		.byte	0xb
 3421 0585 D7       		.byte	0xd7
 3422 0586 00010000 		.4byte	0x100
 3423 058a 2C       		.byte	0x2c
 3424 058b 08       		.uleb128 0x8
 3425 058c 4A0E0000 		.4byte	.LASF88
 3426 0590 0B       		.byte	0xb
 3427 0591 D8       		.byte	0xd8
 3428 0592 00010000 		.4byte	0x100
 3429 0596 30       		.byte	0x30
 3430 0597 08       		.uleb128 0x8
 3431 0598 4F0E0000 		.4byte	.LASF89
 3432 059c 0B       		.byte	0xb
 3433 059d D9       		.byte	0xd9
 3434 059e 00010000 		.4byte	0x100
 3435 05a2 34       		.byte	0x34
 3436 05a3 08       		.uleb128 0x8
 3437 05a4 BF090000 		.4byte	.LASF90
 3438 05a8 0B       		.byte	0xb
 3439 05a9 DA       		.byte	0xda
 3440 05aa 00010000 		.4byte	0x100
 3441 05ae 38       		.byte	0x38
 3442 05af 08       		.uleb128 0x8
 3443 05b0 74190000 		.4byte	.LASF91
 3444 05b4 0B       		.byte	0xb
 3445 05b5 DB       		.byte	0xdb
 3446 05b6 00010000 		.4byte	0x100
 3447 05ba 3C       		.byte	0x3c
 3448 05bb 08       		.uleb128 0x8
 3449 05bc 79190000 		.4byte	.LASF92
 3450 05c0 0B       		.byte	0xb
 3451 05c1 DC       		.byte	0xdc
 3452 05c2 00010000 		.4byte	0x100
 3453 05c6 40       		.byte	0x40
 3454 05c7 08       		.uleb128 0x8
 3455 05c8 7E190000 		.4byte	.LASF93
 3456 05cc 0B       		.byte	0xb
 3457 05cd DD       		.byte	0xdd
 3458 05ce 00010000 		.4byte	0x100
 3459 05d2 44       		.byte	0x44
 3460 05d3 08       		.uleb128 0x8
 3461 05d4 83190000 		.4byte	.LASF94
 3462 05d8 0B       		.byte	0xb
 3463 05d9 DE       		.byte	0xde
 3464 05da 00010000 		.4byte	0x100
 3465 05de 48       		.byte	0x48
 3466 05df 09       		.uleb128 0x9
 3467 05e0 445200   		.ascii	"DR\000"
 3468 05e3 0B       		.byte	0xb
 3469 05e4 DF       		.byte	0xdf
 3470 05e5 00010000 		.4byte	0x100
 3471 05e9 4C       		.byte	0x4c
 3472 05ea 00       		.byte	0
 3473 05eb 04       		.uleb128 0x4
 3474 05ec EC0F0000 		.4byte	.LASF95
 3475 05f0 0B       		.byte	0xb
ARM GAS  /tmp/ccQCTkSU.s 			page 62


 3476 05f1 E0       		.byte	0xe0
 3477 05f2 F4040000 		.4byte	0x4f4
 3478 05f6 15       		.uleb128 0x15
 3479 05f7 10       		.byte	0x10
 3480 05f8 0B       		.byte	0xb
 3481 05f9 EF       		.byte	0xef
 3482 05fa 2F060000 		.4byte	0x62f
 3483 05fe 09       		.uleb128 0x9
 3484 05ff 54495200 		.ascii	"TIR\000"
 3485 0603 0B       		.byte	0xb
 3486 0604 F1       		.byte	0xf1
 3487 0605 00010000 		.4byte	0x100
 3488 0609 00       		.byte	0
 3489 060a 08       		.uleb128 0x8
 3490 060b 6C0C0000 		.4byte	.LASF96
 3491 060f 0B       		.byte	0xb
 3492 0610 F2       		.byte	0xf2
 3493 0611 00010000 		.4byte	0x100
 3494 0615 04       		.byte	0x4
 3495 0616 08       		.uleb128 0x8
 3496 0617 D2110000 		.4byte	.LASF97
 3497 061b 0B       		.byte	0xb
 3498 061c F3       		.byte	0xf3
 3499 061d 00010000 		.4byte	0x100
 3500 0621 08       		.byte	0x8
 3501 0622 08       		.uleb128 0x8
 3502 0623 24100000 		.4byte	.LASF98
 3503 0627 0B       		.byte	0xb
 3504 0628 F4       		.byte	0xf4
 3505 0629 00010000 		.4byte	0x100
 3506 062d 0C       		.byte	0xc
 3507 062e 00       		.byte	0
 3508 062f 04       		.uleb128 0x4
 3509 0630 41040000 		.4byte	.LASF99
 3510 0634 0B       		.byte	0xb
 3511 0635 F5       		.byte	0xf5
 3512 0636 F6050000 		.4byte	0x5f6
 3513 063a 15       		.uleb128 0x15
 3514 063b 10       		.byte	0x10
 3515 063c 0B       		.byte	0xb
 3516 063d FB       		.byte	0xfb
 3517 063e 74060000 		.4byte	0x674
 3518 0642 09       		.uleb128 0x9
 3519 0643 52495200 		.ascii	"RIR\000"
 3520 0647 0B       		.byte	0xb
 3521 0648 FD       		.byte	0xfd
 3522 0649 00010000 		.4byte	0x100
 3523 064d 00       		.byte	0
 3524 064e 08       		.uleb128 0x8
 3525 064f 99160000 		.4byte	.LASF100
 3526 0653 0B       		.byte	0xb
 3527 0654 FE       		.byte	0xfe
 3528 0655 00010000 		.4byte	0x100
 3529 0659 04       		.byte	0x4
 3530 065a 08       		.uleb128 0x8
 3531 065b 03130000 		.4byte	.LASF101
 3532 065f 0B       		.byte	0xb
ARM GAS  /tmp/ccQCTkSU.s 			page 63


 3533 0660 FF       		.byte	0xff
 3534 0661 00010000 		.4byte	0x100
 3535 0665 08       		.byte	0x8
 3536 0666 0B       		.uleb128 0xb
 3537 0667 D3100000 		.4byte	.LASF102
 3538 066b 0B       		.byte	0xb
 3539 066c 0001     		.2byte	0x100
 3540 066e 00010000 		.4byte	0x100
 3541 0672 0C       		.byte	0xc
 3542 0673 00       		.byte	0
 3543 0674 16       		.uleb128 0x16
 3544 0675 04160000 		.4byte	.LASF103
 3545 0679 0B       		.byte	0xb
 3546 067a 0101     		.2byte	0x101
 3547 067c 3A060000 		.4byte	0x63a
 3548 0680 17       		.uleb128 0x17
 3549 0681 08       		.byte	0x8
 3550 0682 0B       		.byte	0xb
 3551 0683 0701     		.2byte	0x107
 3552 0685 A4060000 		.4byte	0x6a4
 3553 0689 0A       		.uleb128 0xa
 3554 068a 46523100 		.ascii	"FR1\000"
 3555 068e 0B       		.byte	0xb
 3556 068f 0901     		.2byte	0x109
 3557 0691 00010000 		.4byte	0x100
 3558 0695 00       		.byte	0
 3559 0696 0A       		.uleb128 0xa
 3560 0697 46523200 		.ascii	"FR2\000"
 3561 069b 0B       		.byte	0xb
 3562 069c 0A01     		.2byte	0x10a
 3563 069e 00010000 		.4byte	0x100
 3564 06a2 04       		.byte	0x4
 3565 06a3 00       		.byte	0
 3566 06a4 16       		.uleb128 0x16
 3567 06a5 7A0C0000 		.4byte	.LASF104
 3568 06a9 0B       		.byte	0xb
 3569 06aa 0B01     		.2byte	0x10b
 3570 06ac 80060000 		.4byte	0x680
 3571 06b0 18       		.uleb128 0x18
 3572 06b1 2003     		.2byte	0x320
 3573 06b3 0B       		.byte	0xb
 3574 06b4 1101     		.2byte	0x111
 3575 06b6 E6070000 		.4byte	0x7e6
 3576 06ba 0A       		.uleb128 0xa
 3577 06bb 4D435200 		.ascii	"MCR\000"
 3578 06bf 0B       		.byte	0xb
 3579 06c0 1301     		.2byte	0x113
 3580 06c2 00010000 		.4byte	0x100
 3581 06c6 00       		.byte	0
 3582 06c7 0A       		.uleb128 0xa
 3583 06c8 4D535200 		.ascii	"MSR\000"
 3584 06cc 0B       		.byte	0xb
 3585 06cd 1401     		.2byte	0x114
 3586 06cf 00010000 		.4byte	0x100
 3587 06d3 04       		.byte	0x4
 3588 06d4 0A       		.uleb128 0xa
 3589 06d5 54535200 		.ascii	"TSR\000"
ARM GAS  /tmp/ccQCTkSU.s 			page 64


 3590 06d9 0B       		.byte	0xb
 3591 06da 1501     		.2byte	0x115
 3592 06dc 00010000 		.4byte	0x100
 3593 06e0 08       		.byte	0x8
 3594 06e1 0B       		.uleb128 0xb
 3595 06e2 400B0000 		.4byte	.LASF105
 3596 06e6 0B       		.byte	0xb
 3597 06e7 1601     		.2byte	0x116
 3598 06e9 00010000 		.4byte	0x100
 3599 06ed 0C       		.byte	0xc
 3600 06ee 0B       		.uleb128 0xb
 3601 06ef CA0B0000 		.4byte	.LASF106
 3602 06f3 0B       		.byte	0xb
 3603 06f4 1701     		.2byte	0x117
 3604 06f6 00010000 		.4byte	0x100
 3605 06fa 10       		.byte	0x10
 3606 06fb 0A       		.uleb128 0xa
 3607 06fc 49455200 		.ascii	"IER\000"
 3608 0700 0B       		.byte	0xb
 3609 0701 1801     		.2byte	0x118
 3610 0703 00010000 		.4byte	0x100
 3611 0707 14       		.byte	0x14
 3612 0708 0A       		.uleb128 0xa
 3613 0709 45535200 		.ascii	"ESR\000"
 3614 070d 0B       		.byte	0xb
 3615 070e 1901     		.2byte	0x119
 3616 0710 00010000 		.4byte	0x100
 3617 0714 18       		.byte	0x18
 3618 0715 0A       		.uleb128 0xa
 3619 0716 42545200 		.ascii	"BTR\000"
 3620 071a 0B       		.byte	0xb
 3621 071b 1A01     		.2byte	0x11a
 3622 071d 00010000 		.4byte	0x100
 3623 0721 1C       		.byte	0x1c
 3624 0722 0B       		.uleb128 0xb
 3625 0723 81170000 		.4byte	.LASF107
 3626 0727 0B       		.byte	0xb
 3627 0728 1B01     		.2byte	0x11b
 3628 072a E6070000 		.4byte	0x7e6
 3629 072e 20       		.byte	0x20
 3630 072f 19       		.uleb128 0x19
 3631 0730 520D0000 		.4byte	.LASF108
 3632 0734 0B       		.byte	0xb
 3633 0735 1C01     		.2byte	0x11c
 3634 0737 F6070000 		.4byte	0x7f6
 3635 073b 8001     		.2byte	0x180
 3636 073d 19       		.uleb128 0x19
 3637 073e B41A0000 		.4byte	.LASF109
 3638 0742 0B       		.byte	0xb
 3639 0743 1D01     		.2byte	0x11d
 3640 0745 06080000 		.4byte	0x806
 3641 0749 B001     		.2byte	0x1b0
 3642 074b 19       		.uleb128 0x19
 3643 074c 8B170000 		.4byte	.LASF110
 3644 0750 0B       		.byte	0xb
 3645 0751 1E01     		.2byte	0x11e
 3646 0753 16080000 		.4byte	0x816
ARM GAS  /tmp/ccQCTkSU.s 			page 65


 3647 0757 D001     		.2byte	0x1d0
 3648 0759 1A       		.uleb128 0x1a
 3649 075a 464D5200 		.ascii	"FMR\000"
 3650 075e 0B       		.byte	0xb
 3651 075f 1F01     		.2byte	0x11f
 3652 0761 00010000 		.4byte	0x100
 3653 0765 0002     		.2byte	0x200
 3654 0767 19       		.uleb128 0x19
 3655 0768 B2080000 		.4byte	.LASF111
 3656 076c 0B       		.byte	0xb
 3657 076d 2001     		.2byte	0x120
 3658 076f 00010000 		.4byte	0x100
 3659 0773 0402     		.2byte	0x204
 3660 0775 19       		.uleb128 0x19
 3661 0776 95170000 		.4byte	.LASF112
 3662 077a 0B       		.byte	0xb
 3663 077b 2101     		.2byte	0x121
 3664 077d F5000000 		.4byte	0xf5
 3665 0781 0802     		.2byte	0x208
 3666 0783 19       		.uleb128 0x19
 3667 0784 F4180000 		.4byte	.LASF113
 3668 0788 0B       		.byte	0xb
 3669 0789 2201     		.2byte	0x122
 3670 078b 00010000 		.4byte	0x100
 3671 078f 0C02     		.2byte	0x20c
 3672 0791 19       		.uleb128 0x19
 3673 0792 9F170000 		.4byte	.LASF114
 3674 0796 0B       		.byte	0xb
 3675 0797 2301     		.2byte	0x123
 3676 0799 F5000000 		.4byte	0xf5
 3677 079d 1002     		.2byte	0x210
 3678 079f 19       		.uleb128 0x19
 3679 07a0 41130000 		.4byte	.LASF115
 3680 07a4 0B       		.byte	0xb
 3681 07a5 2401     		.2byte	0x124
 3682 07a7 00010000 		.4byte	0x100
 3683 07ab 1402     		.2byte	0x214
 3684 07ad 19       		.uleb128 0x19
 3685 07ae A9170000 		.4byte	.LASF116
 3686 07b2 0B       		.byte	0xb
 3687 07b3 2501     		.2byte	0x125
 3688 07b5 F5000000 		.4byte	0xf5
 3689 07b9 1802     		.2byte	0x218
 3690 07bb 19       		.uleb128 0x19
 3691 07bc 71030000 		.4byte	.LASF117
 3692 07c0 0B       		.byte	0xb
 3693 07c1 2601     		.2byte	0x126
 3694 07c3 00010000 		.4byte	0x100
 3695 07c7 1C02     		.2byte	0x21c
 3696 07c9 19       		.uleb128 0x19
 3697 07ca B3170000 		.4byte	.LASF118
 3698 07ce 0B       		.byte	0xb
 3699 07cf 2701     		.2byte	0x127
 3700 07d1 8D040000 		.4byte	0x48d
 3701 07d5 2002     		.2byte	0x220
 3702 07d7 19       		.uleb128 0x19
 3703 07d8 B4040000 		.4byte	.LASF119
ARM GAS  /tmp/ccQCTkSU.s 			page 66


 3704 07dc 0B       		.byte	0xb
 3705 07dd 2801     		.2byte	0x128
 3706 07df 26080000 		.4byte	0x826
 3707 07e3 4002     		.2byte	0x240
 3708 07e5 00       		.byte	0
 3709 07e6 11       		.uleb128 0x11
 3710 07e7 F5000000 		.4byte	0xf5
 3711 07eb F6070000 		.4byte	0x7f6
 3712 07ef 12       		.uleb128 0x12
 3713 07f0 2C000000 		.4byte	0x2c
 3714 07f4 57       		.byte	0x57
 3715 07f5 00       		.byte	0
 3716 07f6 11       		.uleb128 0x11
 3717 07f7 2F060000 		.4byte	0x62f
 3718 07fb 06080000 		.4byte	0x806
 3719 07ff 12       		.uleb128 0x12
 3720 0800 2C000000 		.4byte	0x2c
 3721 0804 02       		.byte	0x2
 3722 0805 00       		.byte	0
 3723 0806 11       		.uleb128 0x11
 3724 0807 74060000 		.4byte	0x674
 3725 080b 16080000 		.4byte	0x816
 3726 080f 12       		.uleb128 0x12
 3727 0810 2C000000 		.4byte	0x2c
 3728 0814 01       		.byte	0x1
 3729 0815 00       		.byte	0
 3730 0816 11       		.uleb128 0x11
 3731 0817 F5000000 		.4byte	0xf5
 3732 081b 26080000 		.4byte	0x826
 3733 081f 12       		.uleb128 0x12
 3734 0820 2C000000 		.4byte	0x2c
 3735 0824 0B       		.byte	0xb
 3736 0825 00       		.byte	0
 3737 0826 11       		.uleb128 0x11
 3738 0827 A4060000 		.4byte	0x6a4
 3739 082b 36080000 		.4byte	0x836
 3740 082f 12       		.uleb128 0x12
 3741 0830 2C000000 		.4byte	0x2c
 3742 0834 1B       		.byte	0x1b
 3743 0835 00       		.byte	0
 3744 0836 16       		.uleb128 0x16
 3745 0837 490A0000 		.4byte	.LASF120
 3746 083b 0B       		.byte	0xb
 3747 083c 2901     		.2byte	0x129
 3748 083e B0060000 		.4byte	0x6b0
 3749 0842 17       		.uleb128 0x17
 3750 0843 18       		.byte	0x18
 3751 0844 0B       		.byte	0xb
 3752 0845 7101     		.2byte	0x171
 3753 0847 99080000 		.4byte	0x899
 3754 084b 0A       		.uleb128 0xa
 3755 084c 435200   		.ascii	"CR\000"
 3756 084f 0B       		.byte	0xb
 3757 0850 7301     		.2byte	0x173
 3758 0852 00010000 		.4byte	0x100
 3759 0856 00       		.byte	0
 3760 0857 0B       		.uleb128 0xb
ARM GAS  /tmp/ccQCTkSU.s 			page 67


 3761 0858 86180000 		.4byte	.LASF121
 3762 085c 0B       		.byte	0xb
 3763 085d 7401     		.2byte	0x174
 3764 085f 00010000 		.4byte	0x100
 3765 0863 04       		.byte	0x4
 3766 0864 0A       		.uleb128 0xa
 3767 0865 50415200 		.ascii	"PAR\000"
 3768 0869 0B       		.byte	0xb
 3769 086a 7501     		.2byte	0x175
 3770 086c 00010000 		.4byte	0x100
 3771 0870 08       		.byte	0x8
 3772 0871 0B       		.uleb128 0xb
 3773 0872 4A030000 		.4byte	.LASF122
 3774 0876 0B       		.byte	0xb
 3775 0877 7601     		.2byte	0x176
 3776 0879 00010000 		.4byte	0x100
 3777 087d 0C       		.byte	0xc
 3778 087e 0B       		.uleb128 0xb
 3779 087f 43060000 		.4byte	.LASF123
 3780 0883 0B       		.byte	0xb
 3781 0884 7701     		.2byte	0x177
 3782 0886 00010000 		.4byte	0x100
 3783 088a 10       		.byte	0x10
 3784 088b 0A       		.uleb128 0xa
 3785 088c 46435200 		.ascii	"FCR\000"
 3786 0890 0B       		.byte	0xb
 3787 0891 7801     		.2byte	0x178
 3788 0893 00010000 		.4byte	0x100
 3789 0897 14       		.byte	0x14
 3790 0898 00       		.byte	0
 3791 0899 16       		.uleb128 0x16
 3792 089a 48060000 		.4byte	.LASF124
 3793 089e 0B       		.byte	0xb
 3794 089f 7901     		.2byte	0x179
 3795 08a1 42080000 		.4byte	0x842
 3796 08a5 11       		.uleb128 0x11
 3797 08a6 00010000 		.4byte	0x100
 3798 08aa B5080000 		.4byte	0x8b5
 3799 08ae 12       		.uleb128 0x12
 3800 08af 2C000000 		.4byte	0x2c
 3801 08b3 01       		.byte	0x1
 3802 08b4 00       		.byte	0
 3803 08b5 05       		.uleb128 0x5
 3804 08b6 A5080000 		.4byte	0x8a5
 3805 08ba 11       		.uleb128 0x11
 3806 08bb 00010000 		.4byte	0x100
 3807 08bf CA080000 		.4byte	0x8ca
 3808 08c3 12       		.uleb128 0x12
 3809 08c4 2C000000 		.4byte	0x2c
 3810 08c8 03       		.byte	0x3
 3811 08c9 00       		.byte	0
 3812 08ca 05       		.uleb128 0x5
 3813 08cb BA080000 		.4byte	0x8ba
 3814 08cf 17       		.uleb128 0x17
 3815 08d0 24       		.byte	0x24
 3816 08d1 0B       		.byte	0xb
 3817 08d2 1F03     		.2byte	0x31f
ARM GAS  /tmp/ccQCTkSU.s 			page 68


 3818 08d4 4C090000 		.4byte	0x94c
 3819 08d8 0A       		.uleb128 0xa
 3820 08d9 43523100 		.ascii	"CR1\000"
 3821 08dd 0B       		.byte	0xb
 3822 08de 2103     		.2byte	0x321
 3823 08e0 00010000 		.4byte	0x100
 3824 08e4 00       		.byte	0
 3825 08e5 0A       		.uleb128 0xa
 3826 08e6 43523200 		.ascii	"CR2\000"
 3827 08ea 0B       		.byte	0xb
 3828 08eb 2203     		.2byte	0x322
 3829 08ed 00010000 		.4byte	0x100
 3830 08f1 04       		.byte	0x4
 3831 08f2 0A       		.uleb128 0xa
 3832 08f3 535200   		.ascii	"SR\000"
 3833 08f6 0B       		.byte	0xb
 3834 08f7 2303     		.2byte	0x323
 3835 08f9 00010000 		.4byte	0x100
 3836 08fd 08       		.byte	0x8
 3837 08fe 0A       		.uleb128 0xa
 3838 08ff 445200   		.ascii	"DR\000"
 3839 0902 0B       		.byte	0xb
 3840 0903 2403     		.2byte	0x324
 3841 0905 00010000 		.4byte	0x100
 3842 0909 0C       		.byte	0xc
 3843 090a 0B       		.uleb128 0xb
 3844 090b 0F060000 		.4byte	.LASF125
 3845 090f 0B       		.byte	0xb
 3846 0910 2503     		.2byte	0x325
 3847 0912 00010000 		.4byte	0x100
 3848 0916 10       		.byte	0x10
 3849 0917 0B       		.uleb128 0xb
 3850 0918 2A090000 		.4byte	.LASF126
 3851 091c 0B       		.byte	0xb
 3852 091d 2603     		.2byte	0x326
 3853 091f 00010000 		.4byte	0x100
 3854 0923 14       		.byte	0x14
 3855 0924 0B       		.uleb128 0xb
 3856 0925 71080000 		.4byte	.LASF127
 3857 0929 0B       		.byte	0xb
 3858 092a 2703     		.2byte	0x327
 3859 092c 00010000 		.4byte	0x100
 3860 0930 18       		.byte	0x18
 3861 0931 0B       		.uleb128 0xb
 3862 0932 2D1A0000 		.4byte	.LASF128
 3863 0936 0B       		.byte	0xb
 3864 0937 2803     		.2byte	0x328
 3865 0939 00010000 		.4byte	0x100
 3866 093d 1C       		.byte	0x1c
 3867 093e 0B       		.uleb128 0xb
 3868 093f E7050000 		.4byte	.LASF129
 3869 0943 0B       		.byte	0xb
 3870 0944 2903     		.2byte	0x329
 3871 0946 00010000 		.4byte	0x100
 3872 094a 20       		.byte	0x20
 3873 094b 00       		.byte	0
 3874 094c 16       		.uleb128 0x16
ARM GAS  /tmp/ccQCTkSU.s 			page 69


 3875 094d AD180000 		.4byte	.LASF130
 3876 0951 0B       		.byte	0xb
 3877 0952 2A03     		.2byte	0x32a
 3878 0954 CF080000 		.4byte	0x8cf
 3879 0958 17       		.uleb128 0x17
 3880 0959 1C       		.byte	0x1c
 3881 095a 0B       		.byte	0xb
 3882 095b 4E03     		.2byte	0x34e
 3883 095d BB090000 		.4byte	0x9bb
 3884 0961 0A       		.uleb128 0xa
 3885 0962 535200   		.ascii	"SR\000"
 3886 0965 0B       		.byte	0xb
 3887 0966 5003     		.2byte	0x350
 3888 0968 00010000 		.4byte	0x100
 3889 096c 00       		.byte	0
 3890 096d 0A       		.uleb128 0xa
 3891 096e 445200   		.ascii	"DR\000"
 3892 0971 0B       		.byte	0xb
 3893 0972 5103     		.2byte	0x351
 3894 0974 00010000 		.4byte	0x100
 3895 0978 04       		.byte	0x4
 3896 0979 0A       		.uleb128 0xa
 3897 097a 42525200 		.ascii	"BRR\000"
 3898 097e 0B       		.byte	0xb
 3899 097f 5203     		.2byte	0x352
 3900 0981 00010000 		.4byte	0x100
 3901 0985 08       		.byte	0x8
 3902 0986 0A       		.uleb128 0xa
 3903 0987 43523100 		.ascii	"CR1\000"
 3904 098b 0B       		.byte	0xb
 3905 098c 5303     		.2byte	0x353
 3906 098e 00010000 		.4byte	0x100
 3907 0992 0C       		.byte	0xc
 3908 0993 0A       		.uleb128 0xa
 3909 0994 43523200 		.ascii	"CR2\000"
 3910 0998 0B       		.byte	0xb
 3911 0999 5403     		.2byte	0x354
 3912 099b 00010000 		.4byte	0x100
 3913 099f 10       		.byte	0x10
 3914 09a0 0A       		.uleb128 0xa
 3915 09a1 43523300 		.ascii	"CR3\000"
 3916 09a5 0B       		.byte	0xb
 3917 09a6 5503     		.2byte	0x355
 3918 09a8 00010000 		.4byte	0x100
 3919 09ac 14       		.byte	0x14
 3920 09ad 0B       		.uleb128 0xb
 3921 09ae 511C0000 		.4byte	.LASF131
 3922 09b2 0B       		.byte	0xb
 3923 09b3 5603     		.2byte	0x356
 3924 09b5 00010000 		.4byte	0x100
 3925 09b9 18       		.byte	0x18
 3926 09ba 00       		.byte	0
 3927 09bb 16       		.uleb128 0x16
 3928 09bc AF110000 		.4byte	.LASF132
 3929 09c0 0B       		.byte	0xb
 3930 09c1 5703     		.2byte	0x357
 3931 09c3 58090000 		.4byte	0x958
ARM GAS  /tmp/ccQCTkSU.s 			page 70


 3932 09c7 11       		.uleb128 0x11
 3933 09c8 00010000 		.4byte	0x100
 3934 09cc D7090000 		.4byte	0x9d7
 3935 09d0 12       		.uleb128 0x12
 3936 09d1 2C000000 		.4byte	0x2c
 3937 09d5 0E       		.byte	0xe
 3938 09d6 00       		.byte	0
 3939 09d7 05       		.uleb128 0x5
 3940 09d8 C7090000 		.4byte	0x9c7
 3941 09dc 04       		.uleb128 0x4
 3942 09dd 26130000 		.4byte	.LASF133
 3943 09e1 0C       		.byte	0xc
 3944 09e2 65       		.byte	0x65
 3945 09e3 4F030000 		.4byte	0x34f
 3946 09e7 04       		.uleb128 0x4
 3947 09e8 29070000 		.4byte	.LASF134
 3948 09ec 0C       		.byte	0xc
 3949 09ed 6D       		.byte	0x6d
 3950 09ee 05010000 		.4byte	0x105
 3951 09f2 07       		.uleb128 0x7
 3952 09f3 720D0000 		.4byte	.LASF135
 3953 09f7 04       		.byte	0x4
 3954 09f8 0C       		.byte	0xc
 3955 09f9 89       		.byte	0x89
 3956 09fa 0A0A0000 		.4byte	0xa0a
 3957 09fe 09       		.uleb128 0x9
 3958 09ff 737000   		.ascii	"sp\000"
 3959 0a02 0C       		.byte	0xc
 3960 0a03 8A       		.byte	0x8a
 3961 0a04 560B0000 		.4byte	0xb56
 3962 0a08 00       		.byte	0
 3963 0a09 00       		.byte	0
 3964 0a0a 0D       		.uleb128 0xd
 3965 0a0b 25000000 		.4byte	.LASF136
 3966 0a0f 64       		.byte	0x64
 3967 0a10 0D       		.byte	0xd
 3968 0a11 5901     		.2byte	0x159
 3969 0a13 560B0000 		.4byte	0xb56
 3970 0a17 0A       		.uleb128 0xa
 3971 0a18 73313600 		.ascii	"s16\000"
 3972 0a1c 0D       		.byte	0xd
 3973 0a1d 5B01     		.2byte	0x15b
 3974 0a1f DC090000 		.4byte	0x9dc
 3975 0a23 00       		.byte	0
 3976 0a24 0A       		.uleb128 0xa
 3977 0a25 73313700 		.ascii	"s17\000"
 3978 0a29 0D       		.byte	0xd
 3979 0a2a 5C01     		.2byte	0x15c
 3980 0a2c DC090000 		.4byte	0x9dc
 3981 0a30 04       		.byte	0x4
 3982 0a31 0A       		.uleb128 0xa
 3983 0a32 73313800 		.ascii	"s18\000"
 3984 0a36 0D       		.byte	0xd
 3985 0a37 5D01     		.2byte	0x15d
 3986 0a39 DC090000 		.4byte	0x9dc
 3987 0a3d 08       		.byte	0x8
 3988 0a3e 0A       		.uleb128 0xa
ARM GAS  /tmp/ccQCTkSU.s 			page 71


 3989 0a3f 73313900 		.ascii	"s19\000"
 3990 0a43 0D       		.byte	0xd
 3991 0a44 5E01     		.2byte	0x15e
 3992 0a46 DC090000 		.4byte	0x9dc
 3993 0a4a 0C       		.byte	0xc
 3994 0a4b 0A       		.uleb128 0xa
 3995 0a4c 73323000 		.ascii	"s20\000"
 3996 0a50 0D       		.byte	0xd
 3997 0a51 5F01     		.2byte	0x15f
 3998 0a53 DC090000 		.4byte	0x9dc
 3999 0a57 10       		.byte	0x10
 4000 0a58 0A       		.uleb128 0xa
 4001 0a59 73323100 		.ascii	"s21\000"
 4002 0a5d 0D       		.byte	0xd
 4003 0a5e 6001     		.2byte	0x160
 4004 0a60 DC090000 		.4byte	0x9dc
 4005 0a64 14       		.byte	0x14
 4006 0a65 0A       		.uleb128 0xa
 4007 0a66 73323200 		.ascii	"s22\000"
 4008 0a6a 0D       		.byte	0xd
 4009 0a6b 6101     		.2byte	0x161
 4010 0a6d DC090000 		.4byte	0x9dc
 4011 0a71 18       		.byte	0x18
 4012 0a72 0A       		.uleb128 0xa
 4013 0a73 73323300 		.ascii	"s23\000"
 4014 0a77 0D       		.byte	0xd
 4015 0a78 6201     		.2byte	0x162
 4016 0a7a DC090000 		.4byte	0x9dc
 4017 0a7e 1C       		.byte	0x1c
 4018 0a7f 0A       		.uleb128 0xa
 4019 0a80 73323400 		.ascii	"s24\000"
 4020 0a84 0D       		.byte	0xd
 4021 0a85 6301     		.2byte	0x163
 4022 0a87 DC090000 		.4byte	0x9dc
 4023 0a8b 20       		.byte	0x20
 4024 0a8c 0A       		.uleb128 0xa
 4025 0a8d 73323500 		.ascii	"s25\000"
 4026 0a91 0D       		.byte	0xd
 4027 0a92 6401     		.2byte	0x164
 4028 0a94 DC090000 		.4byte	0x9dc
 4029 0a98 24       		.byte	0x24
 4030 0a99 0A       		.uleb128 0xa
 4031 0a9a 73323600 		.ascii	"s26\000"
 4032 0a9e 0D       		.byte	0xd
 4033 0a9f 6501     		.2byte	0x165
 4034 0aa1 DC090000 		.4byte	0x9dc
 4035 0aa5 28       		.byte	0x28
 4036 0aa6 0A       		.uleb128 0xa
 4037 0aa7 73323700 		.ascii	"s27\000"
 4038 0aab 0D       		.byte	0xd
 4039 0aac 6601     		.2byte	0x166
 4040 0aae DC090000 		.4byte	0x9dc
 4041 0ab2 2C       		.byte	0x2c
 4042 0ab3 0A       		.uleb128 0xa
 4043 0ab4 73323800 		.ascii	"s28\000"
 4044 0ab8 0D       		.byte	0xd
 4045 0ab9 6701     		.2byte	0x167
ARM GAS  /tmp/ccQCTkSU.s 			page 72


 4046 0abb DC090000 		.4byte	0x9dc
 4047 0abf 30       		.byte	0x30
 4048 0ac0 0A       		.uleb128 0xa
 4049 0ac1 73323900 		.ascii	"s29\000"
 4050 0ac5 0D       		.byte	0xd
 4051 0ac6 6801     		.2byte	0x168
 4052 0ac8 DC090000 		.4byte	0x9dc
 4053 0acc 34       		.byte	0x34
 4054 0acd 0A       		.uleb128 0xa
 4055 0ace 73333000 		.ascii	"s30\000"
 4056 0ad2 0D       		.byte	0xd
 4057 0ad3 6901     		.2byte	0x169
 4058 0ad5 DC090000 		.4byte	0x9dc
 4059 0ad9 38       		.byte	0x38
 4060 0ada 0A       		.uleb128 0xa
 4061 0adb 73333100 		.ascii	"s31\000"
 4062 0adf 0D       		.byte	0xd
 4063 0ae0 6A01     		.2byte	0x16a
 4064 0ae2 DC090000 		.4byte	0x9dc
 4065 0ae6 3C       		.byte	0x3c
 4066 0ae7 0A       		.uleb128 0xa
 4067 0ae8 723400   		.ascii	"r4\000"
 4068 0aeb 0D       		.byte	0xd
 4069 0aec 6C01     		.2byte	0x16c
 4070 0aee DC090000 		.4byte	0x9dc
 4071 0af2 40       		.byte	0x40
 4072 0af3 0A       		.uleb128 0xa
 4073 0af4 723500   		.ascii	"r5\000"
 4074 0af7 0D       		.byte	0xd
 4075 0af8 6D01     		.2byte	0x16d
 4076 0afa DC090000 		.4byte	0x9dc
 4077 0afe 44       		.byte	0x44
 4078 0aff 0A       		.uleb128 0xa
 4079 0b00 723600   		.ascii	"r6\000"
 4080 0b03 0D       		.byte	0xd
 4081 0b04 6E01     		.2byte	0x16e
 4082 0b06 DC090000 		.4byte	0x9dc
 4083 0b0a 48       		.byte	0x48
 4084 0b0b 0A       		.uleb128 0xa
 4085 0b0c 723700   		.ascii	"r7\000"
 4086 0b0f 0D       		.byte	0xd
 4087 0b10 6F01     		.2byte	0x16f
 4088 0b12 DC090000 		.4byte	0x9dc
 4089 0b16 4C       		.byte	0x4c
 4090 0b17 0A       		.uleb128 0xa
 4091 0b18 723800   		.ascii	"r8\000"
 4092 0b1b 0D       		.byte	0xd
 4093 0b1c 7001     		.2byte	0x170
 4094 0b1e DC090000 		.4byte	0x9dc
 4095 0b22 50       		.byte	0x50
 4096 0b23 0A       		.uleb128 0xa
 4097 0b24 723900   		.ascii	"r9\000"
 4098 0b27 0D       		.byte	0xd
 4099 0b28 7101     		.2byte	0x171
 4100 0b2a DC090000 		.4byte	0x9dc
 4101 0b2e 54       		.byte	0x54
 4102 0b2f 0A       		.uleb128 0xa
ARM GAS  /tmp/ccQCTkSU.s 			page 73


 4103 0b30 72313000 		.ascii	"r10\000"
 4104 0b34 0D       		.byte	0xd
 4105 0b35 7201     		.2byte	0x172
 4106 0b37 DC090000 		.4byte	0x9dc
 4107 0b3b 58       		.byte	0x58
 4108 0b3c 0A       		.uleb128 0xa
 4109 0b3d 72313100 		.ascii	"r11\000"
 4110 0b41 0D       		.byte	0xd
 4111 0b42 7301     		.2byte	0x173
 4112 0b44 DC090000 		.4byte	0x9dc
 4113 0b48 5C       		.byte	0x5c
 4114 0b49 0A       		.uleb128 0xa
 4115 0b4a 6C7200   		.ascii	"lr\000"
 4116 0b4d 0D       		.byte	0xd
 4117 0b4e 7401     		.2byte	0x174
 4118 0b50 DC090000 		.4byte	0x9dc
 4119 0b54 60       		.byte	0x60
 4120 0b55 00       		.byte	0
 4121 0b56 0C       		.uleb128 0xc
 4122 0b57 04       		.byte	0x4
 4123 0b58 0A0A0000 		.4byte	0xa0a
 4124 0b5c 17       		.uleb128 0x17
 4125 0b5d 60       		.byte	0x60
 4126 0b5e 0E       		.byte	0xe
 4127 0b5f F501     		.2byte	0x1f5
 4128 0b61 680C0000 		.4byte	0xc68
 4129 0b65 0A       		.uleb128 0xa
 4130 0b66 43523100 		.ascii	"CR1\000"
 4131 0b6a 0E       		.byte	0xe
 4132 0b6b F601     		.2byte	0x1f6
 4133 0b6d 00010000 		.4byte	0x100
 4134 0b71 00       		.byte	0
 4135 0b72 0A       		.uleb128 0xa
 4136 0b73 43523200 		.ascii	"CR2\000"
 4137 0b77 0E       		.byte	0xe
 4138 0b78 F701     		.2byte	0x1f7
 4139 0b7a 00010000 		.4byte	0x100
 4140 0b7e 04       		.byte	0x4
 4141 0b7f 0B       		.uleb128 0xb
 4142 0b80 B9180000 		.4byte	.LASF137
 4143 0b84 0E       		.byte	0xe
 4144 0b85 F801     		.2byte	0x1f8
 4145 0b87 00010000 		.4byte	0x100
 4146 0b8b 08       		.byte	0x8
 4147 0b8c 0B       		.uleb128 0xb
 4148 0b8d 18080000 		.4byte	.LASF138
 4149 0b91 0E       		.byte	0xe
 4150 0b92 F901     		.2byte	0x1f9
 4151 0b94 00010000 		.4byte	0x100
 4152 0b98 0C       		.byte	0xc
 4153 0b99 0A       		.uleb128 0xa
 4154 0b9a 535200   		.ascii	"SR\000"
 4155 0b9d 0E       		.byte	0xe
 4156 0b9e FA01     		.2byte	0x1fa
 4157 0ba0 00010000 		.4byte	0x100
 4158 0ba4 10       		.byte	0x10
 4159 0ba5 0A       		.uleb128 0xa
ARM GAS  /tmp/ccQCTkSU.s 			page 74


 4160 0ba6 45475200 		.ascii	"EGR\000"
 4161 0baa 0E       		.byte	0xe
 4162 0bab FB01     		.2byte	0x1fb
 4163 0bad 00010000 		.4byte	0x100
 4164 0bb1 14       		.byte	0x14
 4165 0bb2 0B       		.uleb128 0xb
 4166 0bb3 701C0000 		.4byte	.LASF139
 4167 0bb7 0E       		.byte	0xe
 4168 0bb8 FC01     		.2byte	0x1fc
 4169 0bba 00010000 		.4byte	0x100
 4170 0bbe 18       		.byte	0x18
 4171 0bbf 0B       		.uleb128 0xb
 4172 0bc0 761C0000 		.4byte	.LASF140
 4173 0bc4 0E       		.byte	0xe
 4174 0bc5 FD01     		.2byte	0x1fd
 4175 0bc7 00010000 		.4byte	0x100
 4176 0bcb 1C       		.byte	0x1c
 4177 0bcc 0B       		.uleb128 0xb
 4178 0bcd E2050000 		.4byte	.LASF141
 4179 0bd1 0E       		.byte	0xe
 4180 0bd2 FE01     		.2byte	0x1fe
 4181 0bd4 00010000 		.4byte	0x100
 4182 0bd8 20       		.byte	0x20
 4183 0bd9 0A       		.uleb128 0xa
 4184 0bda 434E5400 		.ascii	"CNT\000"
 4185 0bde 0E       		.byte	0xe
 4186 0bdf FF01     		.2byte	0x1ff
 4187 0be1 00010000 		.4byte	0x100
 4188 0be5 24       		.byte	0x24
 4189 0be6 0A       		.uleb128 0xa
 4190 0be7 50534300 		.ascii	"PSC\000"
 4191 0beb 0E       		.byte	0xe
 4192 0bec 0002     		.2byte	0x200
 4193 0bee 00010000 		.4byte	0x100
 4194 0bf2 28       		.byte	0x28
 4195 0bf3 0A       		.uleb128 0xa
 4196 0bf4 41525200 		.ascii	"ARR\000"
 4197 0bf8 0E       		.byte	0xe
 4198 0bf9 0102     		.2byte	0x201
 4199 0bfb 00010000 		.4byte	0x100
 4200 0bff 2C       		.byte	0x2c
 4201 0c00 0A       		.uleb128 0xa
 4202 0c01 52435200 		.ascii	"RCR\000"
 4203 0c05 0E       		.byte	0xe
 4204 0c06 0202     		.2byte	0x202
 4205 0c08 00010000 		.4byte	0x100
 4206 0c0c 30       		.byte	0x30
 4207 0c0d 0A       		.uleb128 0xa
 4208 0c0e 43435200 		.ascii	"CCR\000"
 4209 0c12 0E       		.byte	0xe
 4210 0c13 0302     		.2byte	0x203
 4211 0c15 CA080000 		.4byte	0x8ca
 4212 0c19 34       		.byte	0x34
 4213 0c1a 0B       		.uleb128 0xb
 4214 0c1b 8B010000 		.4byte	.LASF142
 4215 0c1f 0E       		.byte	0xe
 4216 0c20 0402     		.2byte	0x204
ARM GAS  /tmp/ccQCTkSU.s 			page 75


 4217 0c22 00010000 		.4byte	0x100
 4218 0c26 44       		.byte	0x44
 4219 0c27 0A       		.uleb128 0xa
 4220 0c28 44435200 		.ascii	"DCR\000"
 4221 0c2c 0E       		.byte	0xe
 4222 0c2d 0502     		.2byte	0x205
 4223 0c2f 00010000 		.4byte	0x100
 4224 0c33 48       		.byte	0x48
 4225 0c34 0B       		.uleb128 0xb
 4226 0c35 D8100000 		.4byte	.LASF143
 4227 0c39 0E       		.byte	0xe
 4228 0c3a 0602     		.2byte	0x206
 4229 0c3c 00010000 		.4byte	0x100
 4230 0c40 4C       		.byte	0x4c
 4231 0c41 0A       		.uleb128 0xa
 4232 0c42 4F5200   		.ascii	"OR\000"
 4233 0c45 0E       		.byte	0xe
 4234 0c46 0702     		.2byte	0x207
 4235 0c48 00010000 		.4byte	0x100
 4236 0c4c 50       		.byte	0x50
 4237 0c4d 0B       		.uleb128 0xb
 4238 0c4e 7C1C0000 		.4byte	.LASF144
 4239 0c52 0E       		.byte	0xe
 4240 0c53 0802     		.2byte	0x208
 4241 0c55 00010000 		.4byte	0x100
 4242 0c59 54       		.byte	0x54
 4243 0c5a 0B       		.uleb128 0xb
 4244 0c5b 650F0000 		.4byte	.LASF145
 4245 0c5f 0E       		.byte	0xe
 4246 0c60 0902     		.2byte	0x209
 4247 0c62 B5080000 		.4byte	0x8b5
 4248 0c66 58       		.byte	0x58
 4249 0c67 00       		.byte	0
 4250 0c68 16       		.uleb128 0x16
 4251 0c69 11180000 		.4byte	.LASF146
 4252 0c6d 0E       		.byte	0xe
 4253 0c6e 0A02     		.2byte	0x20a
 4254 0c70 5C0B0000 		.4byte	0xb5c
 4255 0c74 15       		.uleb128 0x15
 4256 0c75 04       		.byte	0x4
 4257 0c76 0F       		.byte	0xf
 4258 0c77 38       		.byte	0x38
 4259 0c78 890C0000 		.4byte	0xc89
 4260 0c7c 08       		.uleb128 0x8
 4261 0c7d 6E180000 		.4byte	.LASF147
 4262 0c81 0F       		.byte	0xf
 4263 0c82 3C       		.byte	0x3c
 4264 0c83 10010000 		.4byte	0x110
 4265 0c87 00       		.byte	0
 4266 0c88 00       		.byte	0
 4267 0c89 04       		.uleb128 0x4
 4268 0c8a 371C0000 		.4byte	.LASF148
 4269 0c8e 0F       		.byte	0xf
 4270 0c8f 3D       		.byte	0x3d
 4271 0c90 740C0000 		.4byte	0xc74
 4272 0c94 1B       		.uleb128 0x1b
 4273 0c95 04       		.byte	0x4
ARM GAS  /tmp/ccQCTkSU.s 			page 76


 4274 0c96 07       		.byte	0x7
 4275 0c97 C6       		.byte	0xc6
 4276 0c98 F60C0000 		.4byte	0xcf6
 4277 0c9c 1C       		.uleb128 0x1c
 4278 0c9d 530C0000 		.4byte	.LASF149
 4279 0ca1 07       		.byte	0x7
 4280 0ca2 CD       		.byte	0xcd
 4281 0ca3 47010000 		.4byte	0x147
 4282 0ca7 1C       		.uleb128 0x1c
 4283 0ca8 FC0A0000 		.4byte	.LASF150
 4284 0cac 07       		.byte	0x7
 4285 0cad D4       		.byte	0xd4
 4286 0cae 47010000 		.4byte	0x147
 4287 0cb2 1C       		.uleb128 0x1c
 4288 0cb3 1C160000 		.4byte	.LASF151
 4289 0cb7 07       		.byte	0x7
 4290 0cb8 DB       		.byte	0xdb
 4291 0cb9 4F030000 		.4byte	0x34f
 4292 0cbd 1C       		.uleb128 0x1c
 4293 0cbe CF170000 		.4byte	.LASF152
 4294 0cc2 07       		.byte	0x7
 4295 0cc3 E2       		.byte	0xe2
 4296 0cc4 F60C0000 		.4byte	0xcf6
 4297 0cc8 1C       		.uleb128 0x1c
 4298 0cc9 1D000000 		.4byte	.LASF153
 4299 0ccd 07       		.byte	0x7
 4300 0cce E7       		.byte	0xe7
 4301 0ccf 47010000 		.4byte	0x147
 4302 0cd3 1C       		.uleb128 0x1c
 4303 0cd4 AB000000 		.4byte	.LASF154
 4304 0cd8 07       		.byte	0x7
 4305 0cd9 F0       		.byte	0xf0
 4306 0cda 210D0000 		.4byte	0xd21
 4307 0cde 1C       		.uleb128 0x1c
 4308 0cdf 4E160000 		.4byte	.LASF155
 4309 0ce3 07       		.byte	0x7
 4310 0ce4 F9       		.byte	0xf9
 4311 0ce5 580D0000 		.4byte	0xd58
 4312 0ce9 1D       		.uleb128 0x1d
 4313 0cea DA180000 		.4byte	.LASF156
 4314 0cee 07       		.byte	0x7
 4315 0cef 0101     		.2byte	0x101
 4316 0cf1 52010000 		.4byte	0x152
 4317 0cf5 00       		.byte	0
 4318 0cf6 0C       		.uleb128 0xc
 4319 0cf7 04       		.byte	0x4
 4320 0cf8 67020000 		.4byte	0x267
 4321 0cfc 07       		.uleb128 0x7
 4322 0cfd 33110000 		.4byte	.LASF157
 4323 0d01 0C       		.byte	0xc
 4324 0d02 10       		.byte	0x10
 4325 0d03 34       		.byte	0x34
 4326 0d04 210D0000 		.4byte	0xd21
 4327 0d08 08       		.uleb128 0x8
 4328 0d09 28180000 		.4byte	.LASF33
 4329 0d0d 10       		.byte	0x10
 4330 0d0e 35       		.byte	0x35
ARM GAS  /tmp/ccQCTkSU.s 			page 77


 4331 0d0f 9C020000 		.4byte	0x29c
 4332 0d13 00       		.byte	0
 4333 0d14 09       		.uleb128 0x9
 4334 0d15 636E7400 		.ascii	"cnt\000"
 4335 0d19 10       		.byte	0x10
 4336 0d1a 37       		.byte	0x37
 4337 0d1b 68010000 		.4byte	0x168
 4338 0d1f 08       		.byte	0x8
 4339 0d20 00       		.byte	0
 4340 0d21 0C       		.uleb128 0xc
 4341 0d22 04       		.byte	0x4
 4342 0d23 FC0C0000 		.4byte	0xcfc
 4343 0d27 07       		.uleb128 0x7
 4344 0d28 3F090000 		.4byte	.LASF158
 4345 0d2c 10       		.byte	0x10
 4346 0d2d 11       		.byte	0x11
 4347 0d2e 39       		.byte	0x39
 4348 0d2f 580D0000 		.4byte	0xd58
 4349 0d33 08       		.uleb128 0x8
 4350 0d34 28180000 		.4byte	.LASF33
 4351 0d38 11       		.byte	0x11
 4352 0d39 3A       		.byte	0x3a
 4353 0d3a 9C020000 		.4byte	0x29c
 4354 0d3e 00       		.byte	0
 4355 0d3f 08       		.uleb128 0x8
 4356 0d40 430A0000 		.4byte	.LASF159
 4357 0d44 11       		.byte	0x11
 4358 0d45 3C       		.byte	0x3c
 4359 0d46 72020000 		.4byte	0x272
 4360 0d4a 08       		.byte	0x8
 4361 0d4b 08       		.uleb128 0x8
 4362 0d4c CA010000 		.4byte	.LASF52
 4363 0d50 11       		.byte	0x11
 4364 0d51 3E       		.byte	0x3e
 4365 0d52 BA0E0000 		.4byte	0xeba
 4366 0d56 0C       		.byte	0xc
 4367 0d57 00       		.byte	0
 4368 0d58 0C       		.uleb128 0xc
 4369 0d59 04       		.byte	0x4
 4370 0d5a 270D0000 		.4byte	0xd27
 4371 0d5e 0C       		.uleb128 0xc
 4372 0d5f 04       		.byte	0x4
 4373 0d60 700D0000 		.4byte	0xd70
 4374 0d64 05       		.uleb128 0x5
 4375 0d65 5E0D0000 		.4byte	0xd5e
 4376 0d69 02       		.uleb128 0x2
 4377 0d6a 01       		.byte	0x1
 4378 0d6b 08       		.byte	0x8
 4379 0d6c CA130000 		.4byte	.LASF160
 4380 0d70 06       		.uleb128 0x6
 4381 0d71 690D0000 		.4byte	0xd69
 4382 0d75 0C       		.uleb128 0xc
 4383 0d76 04       		.byte	0x4
 4384 0d77 E7090000 		.4byte	0x9e7
 4385 0d7b 0C       		.uleb128 0xc
 4386 0d7c 04       		.byte	0x4
 4387 0d7d 51030000 		.4byte	0x351
ARM GAS  /tmp/ccQCTkSU.s 			page 78


 4388 0d81 1E       		.uleb128 0x1e
 4389 0d82 636800   		.ascii	"ch\000"
 4390 0d85 07       		.byte	0x7
 4391 0d86 C701     		.2byte	0x1c7
 4392 0d88 1E040000 		.4byte	0x41e
 4393 0d8c 11       		.uleb128 0x11
 4394 0d8d E7090000 		.4byte	0x9e7
 4395 0d91 970D0000 		.4byte	0xd97
 4396 0d95 1F       		.uleb128 0x1f
 4397 0d96 00       		.byte	0
 4398 0d97 13       		.uleb128 0x13
 4399 0d98 2B0A0000 		.4byte	.LASF161
 4400 0d9c 12       		.byte	0x12
 4401 0d9d 1701     		.2byte	0x117
 4402 0d9f 8C0D0000 		.4byte	0xd8c
 4403 0da3 15       		.uleb128 0x15
 4404 0da4 16       		.byte	0x16
 4405 0da5 13       		.byte	0x13
 4406 0da6 34       		.byte	0x34
 4407 0da7 840E0000 		.4byte	0xe84
 4408 0dab 08       		.uleb128 0x8
 4409 0dac 900A0000 		.4byte	.LASF162
 4410 0db0 13       		.byte	0x13
 4411 0db1 35       		.byte	0x35
 4412 0db2 840E0000 		.4byte	0xe84
 4413 0db6 00       		.byte	0
 4414 0db7 08       		.uleb128 0x8
 4415 0db8 83050000 		.4byte	.LASF163
 4416 0dbc 13       		.byte	0x13
 4417 0dbd 36       		.byte	0x36
 4418 0dbe C5000000 		.4byte	0xc5
 4419 0dc2 04       		.byte	0x4
 4420 0dc3 08       		.uleb128 0x8
 4421 0dc4 260A0000 		.4byte	.LASF164
 4422 0dc8 13       		.byte	0x13
 4423 0dc9 37       		.byte	0x37
 4424 0dca C5000000 		.4byte	0xc5
 4425 0dce 05       		.byte	0x5
 4426 0dcf 08       		.uleb128 0x8
 4427 0dd0 561C0000 		.4byte	.LASF165
 4428 0dd4 13       		.byte	0x13
 4429 0dd5 38       		.byte	0x38
 4430 0dd6 D5000000 		.4byte	0xd5
 4431 0dda 06       		.byte	0x6
 4432 0ddb 08       		.uleb128 0x8
 4433 0ddc 9E0B0000 		.4byte	.LASF166
 4434 0de0 13       		.byte	0x13
 4435 0de1 39       		.byte	0x39
 4436 0de2 C5000000 		.4byte	0xc5
 4437 0de6 08       		.byte	0x8
 4438 0de7 08       		.uleb128 0x8
 4439 0de8 68030000 		.4byte	.LASF167
 4440 0dec 13       		.byte	0x13
 4441 0ded 3A       		.byte	0x3a
 4442 0dee C5000000 		.4byte	0xc5
 4443 0df2 09       		.byte	0x9
 4444 0df3 08       		.uleb128 0x8
ARM GAS  /tmp/ccQCTkSU.s 			page 79


 4445 0df4 BE180000 		.4byte	.LASF168
 4446 0df8 13       		.byte	0x13
 4447 0df9 3B       		.byte	0x3b
 4448 0dfa C5000000 		.4byte	0xc5
 4449 0dfe 0A       		.byte	0xa
 4450 0dff 08       		.uleb128 0x8
 4451 0e00 E30C0000 		.4byte	.LASF169
 4452 0e04 13       		.byte	0x13
 4453 0e05 3C       		.byte	0x3c
 4454 0e06 C5000000 		.4byte	0xc5
 4455 0e0a 0B       		.byte	0xb
 4456 0e0b 08       		.uleb128 0x8
 4457 0e0c 54100000 		.4byte	.LASF170
 4458 0e10 13       		.byte	0x13
 4459 0e11 3D       		.byte	0x3d
 4460 0e12 C5000000 		.4byte	0xc5
 4461 0e16 0C       		.byte	0xc
 4462 0e17 08       		.uleb128 0x8
 4463 0e18 07180000 		.4byte	.LASF171
 4464 0e1c 13       		.byte	0x13
 4465 0e1d 3E       		.byte	0x3e
 4466 0e1e C5000000 		.4byte	0xc5
 4467 0e22 0D       		.byte	0xd
 4468 0e23 08       		.uleb128 0x8
 4469 0e24 AE130000 		.4byte	.LASF172
 4470 0e28 13       		.byte	0x13
 4471 0e29 3F       		.byte	0x3f
 4472 0e2a C5000000 		.4byte	0xc5
 4473 0e2e 0E       		.byte	0xe
 4474 0e2f 08       		.uleb128 0x8
 4475 0e30 A9190000 		.4byte	.LASF173
 4476 0e34 13       		.byte	0x13
 4477 0e35 40       		.byte	0x40
 4478 0e36 C5000000 		.4byte	0xc5
 4479 0e3a 0F       		.byte	0xf
 4480 0e3b 08       		.uleb128 0x8
 4481 0e3c DE120000 		.4byte	.LASF174
 4482 0e40 13       		.byte	0x13
 4483 0e41 41       		.byte	0x41
 4484 0e42 C5000000 		.4byte	0xc5
 4485 0e46 10       		.byte	0x10
 4486 0e47 08       		.uleb128 0x8
 4487 0e48 3F150000 		.4byte	.LASF175
 4488 0e4c 13       		.byte	0x13
 4489 0e4d 42       		.byte	0x42
 4490 0e4e C5000000 		.4byte	0xc5
 4491 0e52 11       		.byte	0x11
 4492 0e53 08       		.uleb128 0x8
 4493 0e54 51110000 		.4byte	.LASF176
 4494 0e58 13       		.byte	0x13
 4495 0e59 43       		.byte	0x43
 4496 0e5a C5000000 		.4byte	0xc5
 4497 0e5e 12       		.byte	0x12
 4498 0e5f 08       		.uleb128 0x8
 4499 0e60 88100000 		.4byte	.LASF177
 4500 0e64 13       		.byte	0x13
 4501 0e65 44       		.byte	0x44
ARM GAS  /tmp/ccQCTkSU.s 			page 80


 4502 0e66 C5000000 		.4byte	0xc5
 4503 0e6a 13       		.byte	0x13
 4504 0e6b 08       		.uleb128 0x8
 4505 0e6c 1A130000 		.4byte	.LASF178
 4506 0e70 13       		.byte	0x13
 4507 0e71 45       		.byte	0x45
 4508 0e72 C5000000 		.4byte	0xc5
 4509 0e76 14       		.byte	0x14
 4510 0e77 08       		.uleb128 0x8
 4511 0e78 4B100000 		.4byte	.LASF179
 4512 0e7c 13       		.byte	0x13
 4513 0e7d 46       		.byte	0x46
 4514 0e7e C5000000 		.4byte	0xc5
 4515 0e82 15       		.byte	0x15
 4516 0e83 00       		.byte	0
 4517 0e84 11       		.uleb128 0x11
 4518 0e85 690D0000 		.4byte	0xd69
 4519 0e89 940E0000 		.4byte	0xe94
 4520 0e8d 12       		.uleb128 0x12
 4521 0e8e 2C000000 		.4byte	0x2c
 4522 0e92 03       		.byte	0x3
 4523 0e93 00       		.byte	0
 4524 0e94 04       		.uleb128 0x4
 4525 0e95 19170000 		.4byte	.LASF180
 4526 0e99 13       		.byte	0x13
 4527 0e9a 47       		.byte	0x47
 4528 0e9b A30D0000 		.4byte	0xda3
 4529 0e9f 06       		.uleb128 0x6
 4530 0ea0 940E0000 		.4byte	0xe94
 4531 0ea4 14       		.uleb128 0x14
 4532 0ea5 A9080000 		.4byte	.LASF181
 4533 0ea9 13       		.byte	0x13
 4534 0eaa 6C       		.byte	0x6c
 4535 0eab 9F0E0000 		.4byte	0xe9f
 4536 0eaf 04       		.uleb128 0x4
 4537 0eb0 67170000 		.4byte	.LASF182
 4538 0eb4 11       		.byte	0x11
 4539 0eb5 34       		.byte	0x34
 4540 0eb6 270D0000 		.4byte	0xd27
 4541 0eba 0C       		.uleb128 0xc
 4542 0ebb 04       		.byte	0x4
 4543 0ebc AF0E0000 		.4byte	0xeaf
 4544 0ec0 04       		.uleb128 0x4
 4545 0ec1 E7080000 		.4byte	.LASF183
 4546 0ec5 14       		.byte	0x14
 4547 0ec6 34       		.byte	0x34
 4548 0ec7 CB0E0000 		.4byte	0xecb
 4549 0ecb 07       		.uleb128 0x7
 4550 0ecc 78070000 		.4byte	.LASF184
 4551 0ed0 14       		.byte	0x14
 4552 0ed1 14       		.byte	0x14
 4553 0ed2 39       		.byte	0x39
 4554 0ed3 140F0000 		.4byte	0xf14
 4555 0ed7 08       		.uleb128 0x8
 4556 0ed8 CA010000 		.4byte	.LASF52
 4557 0edc 14       		.byte	0x14
 4558 0edd 3A       		.byte	0x3a
ARM GAS  /tmp/ccQCTkSU.s 			page 81


 4559 0ede 140F0000 		.4byte	0xf14
 4560 0ee2 00       		.byte	0
 4561 0ee3 08       		.uleb128 0x8
 4562 0ee4 580B0000 		.4byte	.LASF185
 4563 0ee8 14       		.byte	0x14
 4564 0ee9 3D       		.byte	0x3d
 4565 0eea 72020000 		.4byte	0x272
 4566 0eee 04       		.byte	0x4
 4567 0eef 08       		.uleb128 0x8
 4568 0ef0 5E1C0000 		.4byte	.LASF186
 4569 0ef4 14       		.byte	0x14
 4570 0ef5 3F       		.byte	0x3f
 4571 0ef6 52010000 		.4byte	0x152
 4572 0efa 08       		.byte	0x8
 4573 0efb 08       		.uleb128 0x8
 4574 0efc 6B1D0000 		.4byte	.LASF40
 4575 0f00 14       		.byte	0x14
 4576 0f01 41       		.byte	0x41
 4577 0f02 5D010000 		.4byte	0x15d
 4578 0f06 0C       		.byte	0xc
 4579 0f07 08       		.uleb128 0x8
 4580 0f08 DF160000 		.4byte	.LASF187
 4581 0f0c 14       		.byte	0x14
 4582 0f0d 43       		.byte	0x43
 4583 0f0e 5D010000 		.4byte	0x15d
 4584 0f12 10       		.byte	0x10
 4585 0f13 00       		.byte	0
 4586 0f14 0C       		.uleb128 0xc
 4587 0f15 04       		.byte	0x4
 4588 0f16 C00E0000 		.4byte	0xec0
 4589 0f1a 07       		.uleb128 0x7
 4590 0f1b E1180000 		.4byte	.LASF188
 4591 0f1f 04       		.byte	0x4
 4592 0f20 14       		.byte	0x14
 4593 0f21 4A       		.byte	0x4a
 4594 0f22 330F0000 		.4byte	0xf33
 4595 0f26 08       		.uleb128 0x8
 4596 0f27 CA010000 		.4byte	.LASF52
 4597 0f2b 14       		.byte	0x14
 4598 0f2c 4B       		.byte	0x4b
 4599 0f2d 140F0000 		.4byte	0xf14
 4600 0f31 00       		.byte	0
 4601 0f32 00       		.byte	0
 4602 0f33 04       		.uleb128 0x4
 4603 0f34 B60F0000 		.4byte	.LASF189
 4604 0f38 14       		.byte	0x14
 4605 0f39 4E       		.byte	0x4e
 4606 0f3a 1A0F0000 		.4byte	0xf1a
 4607 0f3e 02       		.uleb128 0x2
 4608 0f3f 01       		.byte	0x1
 4609 0f40 02       		.byte	0x2
 4610 0f41 B2000000 		.4byte	.LASF190
 4611 0f45 04       		.uleb128 0x4
 4612 0f46 F8000000 		.4byte	.LASF191
 4613 0f4a 15       		.byte	0x15
 4614 0f4b 47       		.byte	0x47
 4615 0f4c 500F0000 		.4byte	0xf50
ARM GAS  /tmp/ccQCTkSU.s 			page 82


 4616 0f50 0C       		.uleb128 0xc
 4617 0f51 04       		.byte	0x4
 4618 0f52 560F0000 		.4byte	0xf56
 4619 0f56 20       		.uleb128 0x20
 4620 0f57 4F030000 		.4byte	0x34f
 4621 0f5b 6A0F0000 		.4byte	0xf6a
 4622 0f5f 0F       		.uleb128 0xf
 4623 0f60 41000000 		.4byte	0x41
 4624 0f64 0F       		.uleb128 0xf
 4625 0f65 2C000000 		.4byte	0x2c
 4626 0f69 00       		.byte	0
 4627 0f6a 15       		.uleb128 0x15
 4628 0f6b 08       		.byte	0x8
 4629 0f6c 15       		.byte	0x15
 4630 0f6d 51       		.byte	0x51
 4631 0f6e 8B0F0000 		.4byte	0xf8b
 4632 0f72 08       		.uleb128 0x8
 4633 0f73 75180000 		.4byte	.LASF192
 4634 0f77 15       		.byte	0x15
 4635 0f78 55       		.byte	0x55
 4636 0f79 8B0F0000 		.4byte	0xf8b
 4637 0f7d 00       		.byte	0
 4638 0f7e 08       		.uleb128 0x8
 4639 0f7f 52120000 		.4byte	.LASF193
 4640 0f83 15       		.byte	0x15
 4641 0f84 59       		.byte	0x59
 4642 0f85 8B0F0000 		.4byte	0xf8b
 4643 0f89 04       		.byte	0x4
 4644 0f8a 00       		.byte	0
 4645 0f8b 0C       		.uleb128 0xc
 4646 0f8c 04       		.byte	0x4
 4647 0f8d C5000000 		.4byte	0xc5
 4648 0f91 04       		.uleb128 0x4
 4649 0f92 230C0000 		.4byte	.LASF194
 4650 0f96 15       		.byte	0x15
 4651 0f97 5A       		.byte	0x5a
 4652 0f98 6A0F0000 		.4byte	0xf6a
 4653 0f9c 14       		.uleb128 0x14
 4654 0f9d 12000000 		.4byte	.LASF195
 4655 0fa1 15       		.byte	0x15
 4656 0fa2 65       		.byte	0x65
 4657 0fa3 910F0000 		.4byte	0xf91
 4658 0fa7 07       		.uleb128 0x7
 4659 0fa8 FD070000 		.4byte	.LASF196
 4660 0fac 04       		.byte	0x4
 4661 0fad 16       		.byte	0x16
 4662 0fae 38       		.byte	0x38
 4663 0faf C00F0000 		.4byte	0xfc0
 4664 0fb3 08       		.uleb128 0x8
 4665 0fb4 CA010000 		.4byte	.LASF52
 4666 0fb8 16       		.byte	0x16
 4667 0fb9 39       		.byte	0x39
 4668 0fba C00F0000 		.4byte	0xfc0
 4669 0fbe 00       		.byte	0
 4670 0fbf 00       		.byte	0
 4671 0fc0 0C       		.uleb128 0xc
 4672 0fc1 04       		.byte	0x4
ARM GAS  /tmp/ccQCTkSU.s 			page 83


 4673 0fc2 A70F0000 		.4byte	0xfa7
 4674 0fc6 15       		.uleb128 0x15
 4675 0fc7 10       		.byte	0x10
 4676 0fc8 16       		.byte	0x16
 4677 0fc9 40       		.byte	0x40
 4678 0fca FF0F0000 		.4byte	0xfff
 4679 0fce 08       		.uleb128 0x8
 4680 0fcf CA010000 		.4byte	.LASF52
 4681 0fd3 16       		.byte	0x16
 4682 0fd4 41       		.byte	0x41
 4683 0fd5 C00F0000 		.4byte	0xfc0
 4684 0fd9 00       		.byte	0
 4685 0fda 08       		.uleb128 0x8
 4686 0fdb D30A0000 		.4byte	.LASF197
 4687 0fdf 16       		.byte	0x16
 4688 0fe0 42       		.byte	0x42
 4689 0fe1 41000000 		.4byte	0x41
 4690 0fe5 04       		.byte	0x4
 4691 0fe6 08       		.uleb128 0x8
 4692 0fe7 F8050000 		.4byte	.LASF198
 4693 0feb 16       		.byte	0x16
 4694 0fec 44       		.byte	0x44
 4695 0fed 2C000000 		.4byte	0x2c
 4696 0ff1 08       		.byte	0x8
 4697 0ff2 08       		.uleb128 0x8
 4698 0ff3 D8000000 		.4byte	.LASF199
 4699 0ff7 16       		.byte	0x16
 4700 0ff8 45       		.byte	0x45
 4701 0ff9 450F0000 		.4byte	0xf45
 4702 0ffd 0C       		.byte	0xc
 4703 0ffe 00       		.byte	0
 4704 0fff 04       		.uleb128 0x4
 4705 1000 E11C0000 		.4byte	.LASF200
 4706 1004 16       		.byte	0x16
 4707 1005 47       		.byte	0x47
 4708 1006 C60F0000 		.4byte	0xfc6
 4709 100a 07       		.uleb128 0x7
 4710 100b D5010000 		.4byte	.LASF201
 4711 100f 10       		.byte	0x10
 4712 1010 17       		.byte	0x17
 4713 1011 A9       		.byte	0xa9
 4714 1012 3B100000 		.4byte	0x103b
 4715 1016 08       		.uleb128 0x8
 4716 1017 CA010000 		.4byte	.LASF52
 4717 101b 17       		.byte	0x17
 4718 101c AD       		.byte	0xad
 4719 101d 3B100000 		.4byte	0x103b
 4720 1021 00       		.byte	0
 4721 1022 08       		.uleb128 0x8
 4722 1023 E1030000 		.4byte	.LASF41
 4723 1027 17       		.byte	0x17
 4724 1028 B1       		.byte	0xb1
 4725 1029 73010000 		.4byte	0x173
 4726 102d 04       		.byte	0x4
 4727 102e 08       		.uleb128 0x8
 4728 102f 1F0F0000 		.4byte	.LASF37
 4729 1033 17       		.byte	0x17
ARM GAS  /tmp/ccQCTkSU.s 			page 84


 4730 1034 B3       		.byte	0xb3
 4731 1035 41100000 		.4byte	0x1041
 4732 1039 08       		.byte	0x8
 4733 103a 00       		.byte	0
 4734 103b 0C       		.uleb128 0xc
 4735 103c 04       		.byte	0x4
 4736 103d 0A100000 		.4byte	0x100a
 4737 1041 11       		.uleb128 0x11
 4738 1042 690D0000 		.4byte	0xd69
 4739 1046 51100000 		.4byte	0x1051
 4740 104a 12       		.uleb128 0x12
 4741 104b 2C000000 		.4byte	0x2c
 4742 104f 07       		.byte	0x7
 4743 1050 00       		.byte	0
 4744 1051 04       		.uleb128 0x4
 4745 1052 5B110000 		.4byte	.LASF202
 4746 1056 17       		.byte	0x17
 4747 1057 B7       		.byte	0xb7
 4748 1058 0A100000 		.4byte	0x100a
 4749 105c 07       		.uleb128 0x7
 4750 105d 3C050000 		.4byte	.LASF203
 4751 1061 04       		.byte	0x4
 4752 1062 17       		.byte	0x17
 4753 1063 BC       		.byte	0xbc
 4754 1064 75100000 		.4byte	0x1075
 4755 1068 08       		.uleb128 0x8
 4756 1069 CA010000 		.4byte	.LASF52
 4757 106d 17       		.byte	0x17
 4758 106e BD       		.byte	0xbd
 4759 106f 75100000 		.4byte	0x1075
 4760 1073 00       		.byte	0
 4761 1074 00       		.byte	0
 4762 1075 0C       		.uleb128 0xc
 4763 1076 04       		.byte	0x4
 4764 1077 51100000 		.4byte	0x1051
 4765 107b 04       		.uleb128 0x4
 4766 107c EC0C0000 		.4byte	.LASF204
 4767 1080 17       		.byte	0x17
 4768 1081 BE       		.byte	0xbe
 4769 1082 5C100000 		.4byte	0x105c
 4770 1086 0D       		.uleb128 0xd
 4771 1087 B0010000 		.4byte	.LASF205
 4772 108b 48       		.byte	0x48
 4773 108c 17       		.byte	0x17
 4774 108d 3E01     		.2byte	0x13e
 4775 108f 09110000 		.4byte	0x1109
 4776 1093 0A       		.uleb128 0xa
 4777 1094 6D747800 		.ascii	"mtx\000"
 4778 1098 17       		.byte	0x17
 4779 1099 4301     		.2byte	0x143
 4780 109b AF0E0000 		.4byte	0xeaf
 4781 109f 00       		.byte	0
 4782 10a0 0B       		.uleb128 0xb
 4783 10a1 D3090000 		.4byte	.LASF206
 4784 10a5 17       		.byte	0x17
 4785 10a6 4A01     		.2byte	0x14a
 4786 10a8 7B100000 		.4byte	0x107b
ARM GAS  /tmp/ccQCTkSU.s 			page 85


 4787 10ac 10       		.byte	0x10
 4788 10ad 0B       		.uleb128 0xb
 4789 10ae 31160000 		.4byte	.LASF207
 4790 10b2 17       		.byte	0x17
 4791 10b3 4E01     		.2byte	0x14e
 4792 10b5 FF0F0000 		.4byte	0xfff
 4793 10b9 14       		.byte	0x14
 4794 10ba 0B       		.uleb128 0xb
 4795 10bb CC120000 		.4byte	.LASF208
 4796 10bf 17       		.byte	0x17
 4797 10c0 5301     		.2byte	0x153
 4798 10c2 7B100000 		.4byte	0x107b
 4799 10c6 24       		.byte	0x24
 4800 10c7 0B       		.uleb128 0xb
 4801 10c8 96190000 		.4byte	.LASF209
 4802 10cc 17       		.byte	0x17
 4803 10cd 5901     		.2byte	0x159
 4804 10cf 7B100000 		.4byte	0x107b
 4805 10d3 28       		.byte	0x28
 4806 10d4 0B       		.uleb128 0xb
 4807 10d5 EA090000 		.4byte	.LASF210
 4808 10d9 17       		.byte	0x17
 4809 10da 5D01     		.2byte	0x15d
 4810 10dc FF0F0000 		.4byte	0xfff
 4811 10e0 2C       		.byte	0x2c
 4812 10e1 0B       		.uleb128 0xb
 4813 10e2 FE170000 		.4byte	.LASF211
 4814 10e6 17       		.byte	0x17
 4815 10e7 6301     		.2byte	0x163
 4816 10e9 7B100000 		.4byte	0x107b
 4817 10ed 3C       		.byte	0x3c
 4818 10ee 0B       		.uleb128 0xb
 4819 10ef 2D0B0000 		.4byte	.LASF212
 4820 10f3 17       		.byte	0x17
 4821 10f4 6901     		.2byte	0x169
 4822 10f6 7B100000 		.4byte	0x107b
 4823 10fa 40       		.byte	0x40
 4824 10fb 0B       		.uleb128 0xb
 4825 10fc AB0C0000 		.4byte	.LASF213
 4826 1100 17       		.byte	0x17
 4827 1101 6F01     		.2byte	0x16f
 4828 1103 7B100000 		.4byte	0x107b
 4829 1107 44       		.byte	0x44
 4830 1108 00       		.byte	0
 4831 1109 16       		.uleb128 0x16
 4832 110a E1000000 		.4byte	.LASF214
 4833 110e 17       		.byte	0x17
 4834 110f 7101     		.2byte	0x171
 4835 1111 86100000 		.4byte	0x1086
 4836 1115 13       		.uleb128 0x13
 4837 1116 3A160000 		.4byte	.LASF215
 4838 111a 17       		.byte	0x17
 4839 111b 7C01     		.2byte	0x17c
 4840 111d 09110000 		.4byte	0x1109
 4841 1121 17       		.uleb128 0x17
 4842 1122 0C       		.byte	0xc
 4843 1123 18       		.byte	0x18
ARM GAS  /tmp/ccQCTkSU.s 			page 86


 4844 1124 A201     		.2byte	0x1a2
 4845 1126 79110000 		.4byte	0x1179
 4846 112a 0B       		.uleb128 0xb
 4847 112b AE1C0000 		.4byte	.LASF216
 4848 112f 18       		.byte	0x18
 4849 1130 A301     		.2byte	0x1a3
 4850 1132 79110000 		.4byte	0x1179
 4851 1136 00       		.byte	0
 4852 1137 0B       		.uleb128 0xb
 4853 1138 370C0000 		.4byte	.LASF217
 4854 113c 18       		.byte	0x18
 4855 113d A401     		.2byte	0x1a4
 4856 113f 7F110000 		.4byte	0x117f
 4857 1143 04       		.byte	0x4
 4858 1144 0B       		.uleb128 0xb
 4859 1145 B51C0000 		.4byte	.LASF218
 4860 1149 18       		.byte	0x18
 4861 114a A801     		.2byte	0x1a8
 4862 114c C5000000 		.4byte	0xc5
 4863 1150 08       		.byte	0x8
 4864 1151 0B       		.uleb128 0xb
 4865 1152 120A0000 		.4byte	.LASF219
 4866 1156 18       		.byte	0x18
 4867 1157 AA01     		.2byte	0x1aa
 4868 1159 C5000000 		.4byte	0xc5
 4869 115d 09       		.byte	0x9
 4870 115e 0B       		.uleb128 0xb
 4871 115f 5D170000 		.4byte	.LASF220
 4872 1163 18       		.byte	0x18
 4873 1164 AC01     		.2byte	0x1ac
 4874 1166 C5000000 		.4byte	0xc5
 4875 116a 0A       		.byte	0xa
 4876 116b 0B       		.uleb128 0xb
 4877 116c 15030000 		.4byte	.LASF221
 4878 1170 18       		.byte	0x18
 4879 1171 AD01     		.2byte	0x1ad
 4880 1173 C5000000 		.4byte	0xc5
 4881 1177 0B       		.byte	0xb
 4882 1178 00       		.byte	0
 4883 1179 0C       		.uleb128 0xc
 4884 117a 04       		.byte	0x4
 4885 117b 99080000 		.4byte	0x899
 4886 117f 0C       		.uleb128 0xc
 4887 1180 04       		.byte	0x4
 4888 1181 00010000 		.4byte	0x100
 4889 1185 16       		.uleb128 0x16
 4890 1186 6A0E0000 		.4byte	.LASF222
 4891 118a 18       		.byte	0x18
 4892 118b AE01     		.2byte	0x1ae
 4893 118d 21110000 		.4byte	0x1121
 4894 1191 06       		.uleb128 0x6
 4895 1192 85110000 		.4byte	0x1185
 4896 1196 11       		.uleb128 0x11
 4897 1197 91110000 		.4byte	0x1191
 4898 119b A6110000 		.4byte	0x11a6
 4899 119f 12       		.uleb128 0x12
 4900 11a0 2C000000 		.4byte	0x2c
ARM GAS  /tmp/ccQCTkSU.s 			page 87


 4901 11a4 0F       		.byte	0xf
 4902 11a5 00       		.byte	0
 4903 11a6 06       		.uleb128 0x6
 4904 11a7 96110000 		.4byte	0x1196
 4905 11ab 13       		.uleb128 0x13
 4906 11ac B5140000 		.4byte	.LASF223
 4907 11b0 18       		.byte	0x18
 4908 11b1 9002     		.2byte	0x290
 4909 11b3 A6110000 		.4byte	0x11a6
 4910 11b7 07       		.uleb128 0x7
 4911 11b8 E21B0000 		.4byte	.LASF224
 4912 11bc 14       		.byte	0x14
 4913 11bd 19       		.byte	0x19
 4914 11be 48       		.byte	0x48
 4915 11bf 00120000 		.4byte	0x1200
 4916 11c3 08       		.uleb128 0x8
 4917 11c4 15010000 		.4byte	.LASF225
 4918 11c8 19       		.byte	0x19
 4919 11c9 49       		.byte	0x49
 4920 11ca 41000000 		.4byte	0x41
 4921 11ce 00       		.byte	0
 4922 11cf 08       		.uleb128 0x8
 4923 11d0 A6120000 		.4byte	.LASF226
 4924 11d4 19       		.byte	0x19
 4925 11d5 49       		.byte	0x49
 4926 11d6 24120000 		.4byte	0x1224
 4927 11da 04       		.byte	0x4
 4928 11db 08       		.uleb128 0x8
 4929 11dc 78010000 		.4byte	.LASF227
 4930 11e0 19       		.byte	0x19
 4931 11e1 49       		.byte	0x49
 4932 11e2 43120000 		.4byte	0x1243
 4933 11e6 08       		.byte	0x8
 4934 11e7 09       		.uleb128 0x9
 4935 11e8 70757400 		.ascii	"put\000"
 4936 11ec 19       		.byte	0x19
 4937 11ed 49       		.byte	0x49
 4938 11ee 5D120000 		.4byte	0x125d
 4939 11f2 0C       		.byte	0xc
 4940 11f3 09       		.uleb128 0x9
 4941 11f4 67657400 		.ascii	"get\000"
 4942 11f8 19       		.byte	0x19
 4943 11f9 49       		.byte	0x49
 4944 11fa 72120000 		.4byte	0x1272
 4945 11fe 10       		.byte	0x10
 4946 11ff 00       		.byte	0
 4947 1200 06       		.uleb128 0x6
 4948 1201 B7110000 		.4byte	0x11b7
 4949 1205 20       		.uleb128 0x20
 4950 1206 41000000 		.4byte	0x41
 4951 120a 1E120000 		.4byte	0x121e
 4952 120e 0F       		.uleb128 0xf
 4953 120f 4F030000 		.4byte	0x34f
 4954 1213 0F       		.uleb128 0xf
 4955 1214 1E120000 		.4byte	0x121e
 4956 1218 0F       		.uleb128 0xf
 4957 1219 41000000 		.4byte	0x41
ARM GAS  /tmp/ccQCTkSU.s 			page 88


 4958 121d 00       		.byte	0
 4959 121e 0C       		.uleb128 0xc
 4960 121f 04       		.byte	0x4
 4961 1220 D0000000 		.4byte	0xd0
 4962 1224 0C       		.uleb128 0xc
 4963 1225 04       		.byte	0x4
 4964 1226 05120000 		.4byte	0x1205
 4965 122a 20       		.uleb128 0x20
 4966 122b 41000000 		.4byte	0x41
 4967 122f 43120000 		.4byte	0x1243
 4968 1233 0F       		.uleb128 0xf
 4969 1234 4F030000 		.4byte	0x34f
 4970 1238 0F       		.uleb128 0xf
 4971 1239 8B0F0000 		.4byte	0xf8b
 4972 123d 0F       		.uleb128 0xf
 4973 123e 41000000 		.4byte	0x41
 4974 1242 00       		.byte	0
 4975 1243 0C       		.uleb128 0xc
 4976 1244 04       		.byte	0x4
 4977 1245 2A120000 		.4byte	0x122a
 4978 1249 20       		.uleb128 0x20
 4979 124a 47010000 		.4byte	0x147
 4980 124e 5D120000 		.4byte	0x125d
 4981 1252 0F       		.uleb128 0xf
 4982 1253 4F030000 		.4byte	0x34f
 4983 1257 0F       		.uleb128 0xf
 4984 1258 C5000000 		.4byte	0xc5
 4985 125c 00       		.byte	0
 4986 125d 0C       		.uleb128 0xc
 4987 125e 04       		.byte	0x4
 4988 125f 49120000 		.4byte	0x1249
 4989 1263 20       		.uleb128 0x20
 4990 1264 47010000 		.4byte	0x147
 4991 1268 72120000 		.4byte	0x1272
 4992 126c 0F       		.uleb128 0xf
 4993 126d 4F030000 		.4byte	0x34f
 4994 1271 00       		.byte	0
 4995 1272 0C       		.uleb128 0xc
 4996 1273 04       		.byte	0x4
 4997 1274 63120000 		.4byte	0x1263
 4998 1278 15       		.uleb128 0x15
 4999 1279 04       		.byte	0x4
 5000 127a 19       		.byte	0x19
 5001 127b 53       		.byte	0x53
 5002 127c 8D120000 		.4byte	0x128d
 5003 1280 09       		.uleb128 0x9
 5004 1281 766D7400 		.ascii	"vmt\000"
 5005 1285 19       		.byte	0x19
 5006 1286 55       		.byte	0x55
 5007 1287 8D120000 		.4byte	0x128d
 5008 128b 00       		.byte	0
 5009 128c 00       		.byte	0
 5010 128d 0C       		.uleb128 0xc
 5011 128e 04       		.byte	0x4
 5012 128f 00120000 		.4byte	0x1200
 5013 1293 04       		.uleb128 0x4
 5014 1294 78020000 		.4byte	.LASF228
ARM GAS  /tmp/ccQCTkSU.s 			page 89


 5015 1298 19       		.byte	0x19
 5016 1299 57       		.byte	0x57
 5017 129a 78120000 		.4byte	0x1278
 5018 129e 20       		.uleb128 0x20
 5019 129f 47010000 		.4byte	0x147
 5020 12a3 B7120000 		.4byte	0x12b7
 5021 12a7 0F       		.uleb128 0xf
 5022 12a8 4F030000 		.4byte	0x34f
 5023 12ac 0F       		.uleb128 0xf
 5024 12ad C5000000 		.4byte	0xc5
 5025 12b1 0F       		.uleb128 0xf
 5026 12b2 82040000 		.4byte	0x482
 5027 12b6 00       		.byte	0
 5028 12b7 0C       		.uleb128 0xc
 5029 12b8 04       		.byte	0x4
 5030 12b9 9E120000 		.4byte	0x129e
 5031 12bd 20       		.uleb128 0x20
 5032 12be 47010000 		.4byte	0x147
 5033 12c2 D1120000 		.4byte	0x12d1
 5034 12c6 0F       		.uleb128 0xf
 5035 12c7 4F030000 		.4byte	0x34f
 5036 12cb 0F       		.uleb128 0xf
 5037 12cc 82040000 		.4byte	0x482
 5038 12d0 00       		.byte	0
 5039 12d1 0C       		.uleb128 0xc
 5040 12d2 04       		.byte	0x4
 5041 12d3 BD120000 		.4byte	0x12bd
 5042 12d7 20       		.uleb128 0x20
 5043 12d8 41000000 		.4byte	0x41
 5044 12dc F5120000 		.4byte	0x12f5
 5045 12e0 0F       		.uleb128 0xf
 5046 12e1 4F030000 		.4byte	0x34f
 5047 12e5 0F       		.uleb128 0xf
 5048 12e6 1E120000 		.4byte	0x121e
 5049 12ea 0F       		.uleb128 0xf
 5050 12eb 41000000 		.4byte	0x41
 5051 12ef 0F       		.uleb128 0xf
 5052 12f0 82040000 		.4byte	0x482
 5053 12f4 00       		.byte	0
 5054 12f5 0C       		.uleb128 0xc
 5055 12f6 04       		.byte	0x4
 5056 12f7 D7120000 		.4byte	0x12d7
 5057 12fb 20       		.uleb128 0x20
 5058 12fc 41000000 		.4byte	0x41
 5059 1300 19130000 		.4byte	0x1319
 5060 1304 0F       		.uleb128 0xf
 5061 1305 4F030000 		.4byte	0x34f
 5062 1309 0F       		.uleb128 0xf
 5063 130a 8B0F0000 		.4byte	0xf8b
 5064 130e 0F       		.uleb128 0xf
 5065 130f 41000000 		.4byte	0x41
 5066 1313 0F       		.uleb128 0xf
 5067 1314 82040000 		.4byte	0x482
 5068 1318 00       		.byte	0
 5069 1319 0C       		.uleb128 0xc
 5070 131a 04       		.byte	0x4
 5071 131b FB120000 		.4byte	0x12fb
ARM GAS  /tmp/ccQCTkSU.s 			page 90


 5072 131f 20       		.uleb128 0x20
 5073 1320 47010000 		.4byte	0x147
 5074 1324 38130000 		.4byte	0x1338
 5075 1328 0F       		.uleb128 0xf
 5076 1329 4F030000 		.4byte	0x34f
 5077 132d 0F       		.uleb128 0xf
 5078 132e 2C000000 		.4byte	0x2c
 5079 1332 0F       		.uleb128 0xf
 5080 1333 4F030000 		.4byte	0x34f
 5081 1337 00       		.byte	0
 5082 1338 0C       		.uleb128 0xc
 5083 1339 04       		.byte	0x4
 5084 133a 1F130000 		.4byte	0x131f
 5085 133e 04       		.uleb128 0x4
 5086 133f 170B0000 		.4byte	.LASF229
 5087 1343 1A       		.byte	0x1a
 5088 1344 3A       		.byte	0x3a
 5089 1345 49130000 		.4byte	0x1349
 5090 1349 07       		.uleb128 0x7
 5091 134a CF0C0000 		.4byte	.LASF230
 5092 134e 24       		.byte	0x24
 5093 134f 1A       		.byte	0x1a
 5094 1350 4B       		.byte	0x4b
 5095 1351 B6130000 		.4byte	0x13b6
 5096 1355 08       		.uleb128 0x8
 5097 1356 37040000 		.4byte	.LASF231
 5098 135a 1A       		.byte	0x1a
 5099 135b 4C       		.byte	0x4c
 5100 135c 9C020000 		.4byte	0x29c
 5101 1360 00       		.byte	0
 5102 1361 08       		.uleb128 0x8
 5103 1362 42170000 		.4byte	.LASF232
 5104 1366 1A       		.byte	0x1a
 5105 1367 4D       		.byte	0x4d
 5106 1368 4C000000 		.4byte	0x4c
 5107 136c 08       		.byte	0x8
 5108 136d 08       		.uleb128 0x8
 5109 136e 690D0000 		.4byte	.LASF233
 5110 1372 1A       		.byte	0x1a
 5111 1373 4E       		.byte	0x4e
 5112 1374 8B0F0000 		.4byte	0xf8b
 5113 1378 0C       		.byte	0xc
 5114 1379 08       		.uleb128 0x8
 5115 137a B0030000 		.4byte	.LASF234
 5116 137e 1A       		.byte	0x1a
 5117 137f 4F       		.byte	0x4f
 5118 1380 8B0F0000 		.4byte	0xf8b
 5119 1384 10       		.byte	0x10
 5120 1385 08       		.uleb128 0x8
 5121 1386 66130000 		.4byte	.LASF235
 5122 138a 1A       		.byte	0x1a
 5123 138b 51       		.byte	0x51
 5124 138c 8B0F0000 		.4byte	0xf8b
 5125 1390 14       		.byte	0x14
 5126 1391 08       		.uleb128 0x8
 5127 1392 96120000 		.4byte	.LASF236
 5128 1396 1A       		.byte	0x1a
ARM GAS  /tmp/ccQCTkSU.s 			page 91


 5129 1397 52       		.byte	0x52
 5130 1398 8B0F0000 		.4byte	0xf8b
 5131 139c 18       		.byte	0x18
 5132 139d 08       		.uleb128 0x8
 5133 139e 45160000 		.4byte	.LASF237
 5134 13a2 1A       		.byte	0x1a
 5135 13a3 53       		.byte	0x53
 5136 13a4 B6130000 		.4byte	0x13b6
 5137 13a8 1C       		.byte	0x1c
 5138 13a9 08       		.uleb128 0x8
 5139 13aa 1A140000 		.4byte	.LASF238
 5140 13ae 1A       		.byte	0x1a
 5141 13af 54       		.byte	0x54
 5142 13b0 4F030000 		.4byte	0x34f
 5143 13b4 20       		.byte	0x20
 5144 13b5 00       		.byte	0
 5145 13b6 04       		.uleb128 0x4
 5146 13b7 9B030000 		.4byte	.LASF239
 5147 13bb 1A       		.byte	0x1a
 5148 13bc 41       		.byte	0x41
 5149 13bd C1130000 		.4byte	0x13c1
 5150 13c1 0C       		.uleb128 0xc
 5151 13c2 04       		.byte	0x4
 5152 13c3 C7130000 		.4byte	0x13c7
 5153 13c7 0E       		.uleb128 0xe
 5154 13c8 D2130000 		.4byte	0x13d2
 5155 13cc 0F       		.uleb128 0xf
 5156 13cd D2130000 		.4byte	0x13d2
 5157 13d1 00       		.byte	0
 5158 13d2 0C       		.uleb128 0xc
 5159 13d3 04       		.byte	0x4
 5160 13d4 3E130000 		.4byte	0x133e
 5161 13d8 04       		.uleb128 0x4
 5162 13d9 6C040000 		.4byte	.LASF240
 5163 13dd 1A       		.byte	0x1a
 5164 13de 61       		.byte	0x61
 5165 13df 3E130000 		.4byte	0x133e
 5166 13e3 04       		.uleb128 0x4
 5167 13e4 0A1D0000 		.4byte	.LASF241
 5168 13e8 1A       		.byte	0x1a
 5169 13e9 6D       		.byte	0x6d
 5170 13ea 3E130000 		.4byte	0x133e
 5171 13ee 04       		.uleb128 0x4
 5172 13ef 39140000 		.4byte	.LASF242
 5173 13f3 1B       		.byte	0x1b
 5174 13f4 94       		.byte	0x94
 5175 13f5 3E030000 		.4byte	0x33e
 5176 13f9 15       		.uleb128 0x15
 5177 13fa 10       		.byte	0x10
 5178 13fb 1B       		.byte	0x1b
 5179 13fc 9A       		.byte	0x9a
 5180 13fd 25140000 		.4byte	0x1425
 5181 1401 08       		.uleb128 0x8
 5182 1402 8E060000 		.4byte	.LASF243
 5183 1406 1B       		.byte	0x1b
 5184 1407 9F       		.byte	0x9f
 5185 1408 9C020000 		.4byte	0x29c
ARM GAS  /tmp/ccQCTkSU.s 			page 92


 5186 140c 00       		.byte	0
 5187 140d 09       		.uleb128 0x9
 5188 140e 636200   		.ascii	"cb\000"
 5189 1411 1B       		.byte	0x1b
 5190 1412 A5       		.byte	0xa5
 5191 1413 EE130000 		.4byte	0x13ee
 5192 1417 08       		.byte	0x8
 5193 1418 09       		.uleb128 0x9
 5194 1419 61726700 		.ascii	"arg\000"
 5195 141d 1B       		.byte	0x1b
 5196 141e A9       		.byte	0xa9
 5197 141f 4F030000 		.4byte	0x34f
 5198 1423 0C       		.byte	0xc
 5199 1424 00       		.byte	0
 5200 1425 04       		.uleb128 0x4
 5201 1426 FA060000 		.4byte	.LASF244
 5202 142a 1B       		.byte	0x1b
 5203 142b AB       		.byte	0xab
 5204 142c F9130000 		.4byte	0x13f9
 5205 1430 04       		.uleb128 0x4
 5206 1431 A5150000 		.4byte	.LASF245
 5207 1435 1C       		.byte	0x1c
 5208 1436 CC       		.byte	0xcc
 5209 1437 F5000000 		.4byte	0xf5
 5210 143b 11       		.uleb128 0x11
 5211 143c 25140000 		.4byte	0x1425
 5212 1440 4B140000 		.4byte	0x144b
 5213 1444 12       		.uleb128 0x12
 5214 1445 2C000000 		.4byte	0x2c
 5215 1449 0F       		.byte	0xf
 5216 144a 00       		.byte	0
 5217 144b 13       		.uleb128 0x13
 5218 144c C3160000 		.4byte	.LASF246
 5219 1450 1C       		.byte	0x1c
 5220 1451 EB01     		.2byte	0x1eb
 5221 1453 3B140000 		.4byte	0x143b
 5222 1457 21       		.uleb128 0x21
 5223 1458 07       		.byte	0x7
 5224 1459 01       		.byte	0x1
 5225 145a 71000000 		.4byte	0x71
 5226 145e 1D       		.byte	0x1d
 5227 145f 46       		.byte	0x46
 5228 1460 89140000 		.4byte	0x1489
 5229 1464 22       		.uleb128 0x22
 5230 1465 9C060000 		.4byte	.LASF247
 5231 1469 00       		.byte	0
 5232 146a 22       		.uleb128 0x22
 5233 146b 29100000 		.4byte	.LASF248
 5234 146f 01       		.byte	0x1
 5235 1470 22       		.uleb128 0x22
 5236 1471 9F190000 		.4byte	.LASF249
 5237 1475 02       		.byte	0x2
 5238 1476 22       		.uleb128 0x22
 5239 1477 340E0000 		.4byte	.LASF250
 5240 147b 03       		.byte	0x3
 5241 147c 22       		.uleb128 0x22
 5242 147d FE040000 		.4byte	.LASF251
ARM GAS  /tmp/ccQCTkSU.s 			page 93


 5243 1481 04       		.byte	0x4
 5244 1482 22       		.uleb128 0x22
 5245 1483 EE0D0000 		.4byte	.LASF252
 5246 1487 05       		.byte	0x5
 5247 1488 00       		.byte	0
 5248 1489 04       		.uleb128 0x4
 5249 148a A5030000 		.4byte	.LASF253
 5250 148e 1D       		.byte	0x1d
 5251 148f 4D       		.byte	0x4d
 5252 1490 57140000 		.4byte	0x1457
 5253 1494 04       		.uleb128 0x4
 5254 1495 CF0B0000 		.4byte	.LASF254
 5255 1499 1D       		.byte	0x1d
 5256 149a 52       		.byte	0x52
 5257 149b 9F140000 		.4byte	0x149f
 5258 149f 07       		.uleb128 0x7
 5259 14a0 2B120000 		.4byte	.LASF255
 5260 14a4 34       		.byte	0x34
 5261 14a5 1D       		.byte	0x1d
 5262 14a6 9F       		.byte	0x9f
 5263 14a7 24150000 		.4byte	0x1524
 5264 14ab 08       		.uleb128 0x8
 5265 14ac BC100000 		.4byte	.LASF39
 5266 14b0 1D       		.byte	0x1d
 5267 14b1 A3       		.byte	0xa3
 5268 14b2 89140000 		.4byte	0x1489
 5269 14b6 00       		.byte	0
 5270 14b7 08       		.uleb128 0x8
 5271 14b8 91150000 		.4byte	.LASF256
 5272 14bc 1D       		.byte	0x1d
 5273 14bd A7       		.byte	0xa7
 5274 14be 9A160000 		.4byte	0x169a
 5275 14c2 04       		.byte	0x4
 5276 14c3 08       		.uleb128 0x8
 5277 14c4 7D010000 		.4byte	.LASF257
 5278 14c8 1D       		.byte	0x1d
 5279 14c9 AB       		.byte	0xab
 5280 14ca A0160000 		.4byte	0x16a0
 5281 14ce 08       		.byte	0x8
 5282 14cf 08       		.uleb128 0x8
 5283 14d0 3B130000 		.4byte	.LASF258
 5284 14d4 1D       		.byte	0x1d
 5285 14d5 AF       		.byte	0xaf
 5286 14d6 41000000 		.4byte	0x41
 5287 14da 0C       		.byte	0xc
 5288 14db 08       		.uleb128 0x8
 5289 14dc F9170000 		.4byte	.LASF259
 5290 14e0 1D       		.byte	0x1d
 5291 14e1 B3       		.byte	0xb3
 5292 14e2 A6160000 		.4byte	0x16a6
 5293 14e6 10       		.byte	0x10
 5294 14e7 08       		.uleb128 0x8
 5295 14e8 60050000 		.4byte	.LASF260
 5296 14ec 1D       		.byte	0x1d
 5297 14ed B8       		.byte	0xb8
 5298 14ee 67020000 		.4byte	0x267
 5299 14f2 14       		.byte	0x14
ARM GAS  /tmp/ccQCTkSU.s 			page 94


 5300 14f3 08       		.uleb128 0x8
 5301 14f4 200A0000 		.4byte	.LASF261
 5302 14f8 1D       		.byte	0x1d
 5303 14f9 BE       		.byte	0xbe
 5304 14fa AF0E0000 		.4byte	0xeaf
 5305 14fe 18       		.byte	0x18
 5306 14ff 09       		.uleb128 0x9
 5307 1500 61646300 		.ascii	"adc\000"
 5308 1504 1D       		.byte	0x1d
 5309 1505 C4       		.byte	0xc4
 5310 1506 AC160000 		.4byte	0x16ac
 5311 150a 28       		.byte	0x28
 5312 150b 08       		.uleb128 0x8
 5313 150c 8D080000 		.4byte	.LASF262
 5314 1510 1D       		.byte	0x1d
 5315 1511 C4       		.byte	0xc4
 5316 1512 B2160000 		.4byte	0x16b2
 5317 1516 2C       		.byte	0x2c
 5318 1517 08       		.uleb128 0x8
 5319 1518 12120000 		.4byte	.LASF263
 5320 151c 1D       		.byte	0x1d
 5321 151d C4       		.byte	0xc4
 5322 151e F5000000 		.4byte	0xf5
 5323 1522 30       		.byte	0x30
 5324 1523 00       		.byte	0
 5325 1524 04       		.uleb128 0x4
 5326 1525 E70B0000 		.4byte	.LASF264
 5327 1529 1D       		.byte	0x1d
 5328 152a 57       		.byte	0x57
 5329 152b 34150000 		.4byte	0x1534
 5330 152f 06       		.uleb128 0x6
 5331 1530 24150000 		.4byte	0x1524
 5332 1534 07       		.uleb128 0x7
 5333 1535 51050000 		.4byte	.LASF265
 5334 1539 01       		.byte	0x1
 5335 153a 1D       		.byte	0x1d
 5336 153b 97       		.byte	0x97
 5337 153c 4D150000 		.4byte	0x154d
 5338 1540 08       		.uleb128 0x8
 5339 1541 1D080000 		.4byte	.LASF266
 5340 1545 1D       		.byte	0x1d
 5341 1546 99       		.byte	0x99
 5342 1547 3E0F0000 		.4byte	0xf3e
 5343 154b 00       		.byte	0
 5344 154c 00       		.byte	0
 5345 154d 04       		.uleb128 0x4
 5346 154e 7A040000 		.4byte	.LASF267
 5347 1552 1D       		.byte	0x1d
 5348 1553 61       		.byte	0x61
 5349 1554 5D150000 		.4byte	0x155d
 5350 1558 06       		.uleb128 0x6
 5351 1559 4D150000 		.4byte	0x154d
 5352 155d 07       		.uleb128 0x7
 5353 155e C60E0000 		.4byte	.LASF268
 5354 1562 2C       		.byte	0x2c
 5355 1563 1D       		.byte	0x1d
 5356 1564 7F       		.byte	0x7f
ARM GAS  /tmp/ccQCTkSU.s 			page 95


 5357 1565 06160000 		.4byte	0x1606
 5358 1569 08       		.uleb128 0x8
 5359 156a 141A0000 		.4byte	.LASF269
 5360 156e 1D       		.byte	0x1d
 5361 156f 83       		.byte	0x83
 5362 1570 3E0F0000 		.4byte	0xf3e
 5363 1574 00       		.byte	0
 5364 1575 08       		.uleb128 0x8
 5365 1576 9E0C0000 		.4byte	.LASF270
 5366 157a 1D       		.byte	0x1d
 5367 157b 87       		.byte	0x87
 5368 157c 12160000 		.4byte	0x1612
 5369 1580 02       		.byte	0x2
 5370 1581 08       		.uleb128 0x8
 5371 1582 52070000 		.4byte	.LASF271
 5372 1586 1D       		.byte	0x1d
 5373 1587 8B       		.byte	0x8b
 5374 1588 57160000 		.4byte	0x1657
 5375 158c 04       		.byte	0x4
 5376 158d 08       		.uleb128 0x8
 5377 158e D91B0000 		.4byte	.LASF272
 5378 1592 1D       		.byte	0x1d
 5379 1593 8F       		.byte	0x8f
 5380 1594 79160000 		.4byte	0x1679
 5381 1598 08       		.byte	0x8
 5382 1599 09       		.uleb128 0x9
 5383 159a 63723100 		.ascii	"cr1\000"
 5384 159e 1D       		.byte	0x1d
 5385 159f 91       		.byte	0x91
 5386 15a0 F5000000 		.4byte	0xf5
 5387 15a4 0C       		.byte	0xc
 5388 15a5 09       		.uleb128 0x9
 5389 15a6 63723200 		.ascii	"cr2\000"
 5390 15aa 1D       		.byte	0x1d
 5391 15ab 91       		.byte	0x91
 5392 15ac F5000000 		.4byte	0xf5
 5393 15b0 10       		.byte	0x10
 5394 15b1 08       		.uleb128 0x8
 5395 15b2 78110000 		.4byte	.LASF273
 5396 15b6 1D       		.byte	0x1d
 5397 15b7 91       		.byte	0x91
 5398 15b8 F5000000 		.4byte	0xf5
 5399 15bc 14       		.byte	0x14
 5400 15bd 08       		.uleb128 0x8
 5401 15be 7E110000 		.4byte	.LASF274
 5402 15c2 1D       		.byte	0x1d
 5403 15c3 91       		.byte	0x91
 5404 15c4 F5000000 		.4byte	0xf5
 5405 15c8 18       		.byte	0x18
 5406 15c9 09       		.uleb128 0x9
 5407 15ca 68747200 		.ascii	"htr\000"
 5408 15ce 1D       		.byte	0x1d
 5409 15cf 91       		.byte	0x91
 5410 15d0 D5000000 		.4byte	0xd5
 5411 15d4 1C       		.byte	0x1c
 5412 15d5 09       		.uleb128 0x9
 5413 15d6 6C747200 		.ascii	"ltr\000"
ARM GAS  /tmp/ccQCTkSU.s 			page 96


 5414 15da 1D       		.byte	0x1d
 5415 15db 91       		.byte	0x91
 5416 15dc D5000000 		.4byte	0xd5
 5417 15e0 1E       		.byte	0x1e
 5418 15e1 08       		.uleb128 0x8
 5419 15e2 F3000000 		.4byte	.LASF275
 5420 15e6 1D       		.byte	0x1d
 5421 15e7 91       		.byte	0x91
 5422 15e8 F5000000 		.4byte	0xf5
 5423 15ec 20       		.byte	0x20
 5424 15ed 08       		.uleb128 0x8
 5425 15ee 8F1C0000 		.4byte	.LASF276
 5426 15f2 1D       		.byte	0x1d
 5427 15f3 91       		.byte	0x91
 5428 15f4 F5000000 		.4byte	0xf5
 5429 15f8 24       		.byte	0x24
 5430 15f9 08       		.uleb128 0x8
 5431 15fa 941C0000 		.4byte	.LASF277
 5432 15fe 1D       		.byte	0x1d
 5433 15ff 91       		.byte	0x91
 5434 1600 F5000000 		.4byte	0xf5
 5435 1604 28       		.byte	0x28
 5436 1605 00       		.byte	0
 5437 1606 16       		.uleb128 0x16
 5438 1607 5D0D0000 		.4byte	.LASF278
 5439 160b 1E       		.byte	0x1e
 5440 160c 2E01     		.2byte	0x12e
 5441 160e D5000000 		.4byte	0xd5
 5442 1612 16       		.uleb128 0x16
 5443 1613 E8150000 		.4byte	.LASF279
 5444 1617 1E       		.byte	0x1e
 5445 1618 3301     		.2byte	0x133
 5446 161a D5000000 		.4byte	0xd5
 5447 161e 23       		.uleb128 0x23
 5448 161f 07       		.byte	0x7
 5449 1620 01       		.byte	0x1
 5450 1621 71000000 		.4byte	0x71
 5451 1625 1E       		.byte	0x1e
 5452 1626 3A01     		.2byte	0x13a
 5453 1628 3F160000 		.4byte	0x163f
 5454 162c 22       		.uleb128 0x22
 5455 162d 450B0000 		.4byte	.LASF280
 5456 1631 00       		.byte	0
 5457 1632 22       		.uleb128 0x22
 5458 1633 0D020000 		.4byte	.LASF281
 5459 1637 01       		.byte	0x1
 5460 1638 22       		.uleb128 0x22
 5461 1639 41070000 		.4byte	.LASF282
 5462 163d 02       		.byte	0x2
 5463 163e 00       		.byte	0
 5464 163f 16       		.uleb128 0x16
 5465 1640 651A0000 		.4byte	.LASF283
 5466 1644 1E       		.byte	0x1e
 5467 1645 3E01     		.2byte	0x13e
 5468 1647 1E160000 		.4byte	0x161e
 5469 164b 13       		.uleb128 0x13
 5470 164c 07120000 		.4byte	.LASF284
ARM GAS  /tmp/ccQCTkSU.s 			page 97


 5471 1650 1E       		.byte	0x1e
 5472 1651 C701     		.2byte	0x1c7
 5473 1653 94140000 		.4byte	0x1494
 5474 1657 04       		.uleb128 0x4
 5475 1658 F3140000 		.4byte	.LASF285
 5476 165c 1D       		.byte	0x1d
 5477 165d 6C       		.byte	0x6c
 5478 165e 62160000 		.4byte	0x1662
 5479 1662 0C       		.uleb128 0xc
 5480 1663 04       		.byte	0x4
 5481 1664 68160000 		.4byte	0x1668
 5482 1668 0E       		.uleb128 0xe
 5483 1669 73160000 		.4byte	0x1673
 5484 166d 0F       		.uleb128 0xf
 5485 166e 73160000 		.4byte	0x1673
 5486 1672 00       		.byte	0
 5487 1673 0C       		.uleb128 0xc
 5488 1674 04       		.byte	0x4
 5489 1675 94140000 		.4byte	0x1494
 5490 1679 04       		.uleb128 0x4
 5491 167a A9100000 		.4byte	.LASF286
 5492 167e 1D       		.byte	0x1d
 5493 167f 75       		.byte	0x75
 5494 1680 84160000 		.4byte	0x1684
 5495 1684 0C       		.uleb128 0xc
 5496 1685 04       		.byte	0x4
 5497 1686 8A160000 		.4byte	0x168a
 5498 168a 0E       		.uleb128 0xe
 5499 168b 9A160000 		.4byte	0x169a
 5500 168f 0F       		.uleb128 0xf
 5501 1690 73160000 		.4byte	0x1673
 5502 1694 0F       		.uleb128 0xf
 5503 1695 3F160000 		.4byte	0x163f
 5504 1699 00       		.byte	0
 5505 169a 0C       		.uleb128 0xc
 5506 169b 04       		.byte	0x4
 5507 169c 2F150000 		.4byte	0x152f
 5508 16a0 0C       		.uleb128 0xc
 5509 16a1 04       		.byte	0x4
 5510 16a2 06160000 		.4byte	0x1606
 5511 16a6 0C       		.uleb128 0xc
 5512 16a7 04       		.byte	0x4
 5513 16a8 58150000 		.4byte	0x1558
 5514 16ac 0C       		.uleb128 0xc
 5515 16ad 04       		.byte	0x4
 5516 16ae EB050000 		.4byte	0x5eb
 5517 16b2 0C       		.uleb128 0xc
 5518 16b3 04       		.byte	0x4
 5519 16b4 91110000 		.4byte	0x1191
 5520 16b8 21       		.uleb128 0x21
 5521 16b9 07       		.byte	0x7
 5522 16ba 01       		.byte	0x1
 5523 16bb 71000000 		.4byte	0x71
 5524 16bf 1F       		.byte	0x1f
 5525 16c0 66       		.byte	0x66
 5526 16c1 E4160000 		.4byte	0x16e4
 5527 16c5 22       		.uleb128 0x22
ARM GAS  /tmp/ccQCTkSU.s 			page 98


 5528 16c6 F2070000 		.4byte	.LASF287
 5529 16ca 00       		.byte	0
 5530 16cb 22       		.uleb128 0x22
 5531 16cc 8C000000 		.4byte	.LASF288
 5532 16d0 01       		.byte	0x1
 5533 16d1 22       		.uleb128 0x22
 5534 16d2 46000000 		.4byte	.LASF289
 5535 16d6 02       		.byte	0x2
 5536 16d7 22       		.uleb128 0x22
 5537 16d8 92040000 		.4byte	.LASF290
 5538 16dc 03       		.byte	0x3
 5539 16dd 22       		.uleb128 0x22
 5540 16de D8070000 		.4byte	.LASF291
 5541 16e2 04       		.byte	0x4
 5542 16e3 00       		.byte	0
 5543 16e4 04       		.uleb128 0x4
 5544 16e5 A9040000 		.4byte	.LASF292
 5545 16e9 1F       		.byte	0x1f
 5546 16ea 6C       		.byte	0x6c
 5547 16eb B8160000 		.4byte	0x16b8
 5548 16ef 04       		.uleb128 0x4
 5549 16f0 2E030000 		.4byte	.LASF293
 5550 16f4 20       		.byte	0x20
 5551 16f5 C2       		.byte	0xc2
 5552 16f6 FA160000 		.4byte	0x16fa
 5553 16fa 0D       		.uleb128 0xd
 5554 16fb 2E030000 		.4byte	.LASF293
 5555 16ff 2C       		.byte	0x2c
 5556 1700 20       		.byte	0x20
 5557 1701 4801     		.2byte	0x148
 5558 1703 7D170000 		.4byte	0x177d
 5559 1707 0B       		.uleb128 0xb
 5560 1708 BC100000 		.4byte	.LASF39
 5561 170c 20       		.byte	0x20
 5562 170d 4C01     		.2byte	0x14c
 5563 170f E4160000 		.4byte	0x16e4
 5564 1713 00       		.byte	0
 5565 1714 0B       		.uleb128 0xb
 5566 1715 91150000 		.4byte	.LASF256
 5567 1719 20       		.byte	0x20
 5568 171a 5001     		.2byte	0x150
 5569 171c E9170000 		.4byte	0x17e9
 5570 1720 04       		.byte	0x4
 5571 1721 0B       		.uleb128 0xb
 5572 1722 87070000 		.4byte	.LASF294
 5573 1726 20       		.byte	0x20
 5574 1727 5401     		.2byte	0x154
 5575 1729 9C020000 		.4byte	0x29c
 5576 172d 08       		.byte	0x8
 5577 172e 0B       		.uleb128 0xb
 5578 172f D5170000 		.4byte	.LASF295
 5579 1733 20       		.byte	0x20
 5580 1734 5801     		.2byte	0x158
 5581 1736 9C020000 		.4byte	0x29c
 5582 173a 10       		.byte	0x10
 5583 173b 0B       		.uleb128 0xb
 5584 173c 8F070000 		.4byte	.LASF296
ARM GAS  /tmp/ccQCTkSU.s 			page 99


 5585 1740 20       		.byte	0x20
 5586 1741 8C01     		.2byte	0x18c
 5587 1743 7D170000 		.4byte	0x177d
 5588 1747 18       		.byte	0x18
 5589 1748 0B       		.uleb128 0xb
 5590 1749 1D180000 		.4byte	.LASF297
 5591 174d 20       		.byte	0x20
 5592 174e 9201     		.2byte	0x192
 5593 1750 7D170000 		.4byte	0x177d
 5594 1754 1C       		.byte	0x1c
 5595 1755 0B       		.uleb128 0xb
 5596 1756 D91B0000 		.4byte	.LASF272
 5597 175a 20       		.byte	0x20
 5598 175b 9601     		.2byte	0x196
 5599 175d 7D170000 		.4byte	0x177d
 5600 1761 20       		.byte	0x20
 5601 1762 0B       		.uleb128 0xb
 5602 1763 C0080000 		.4byte	.LASF298
 5603 1767 20       		.byte	0x20
 5604 1768 9B01     		.2byte	0x19b
 5605 176a 7D170000 		.4byte	0x177d
 5606 176e 24       		.byte	0x24
 5607 176f 0A       		.uleb128 0xa
 5608 1770 63616E00 		.ascii	"can\000"
 5609 1774 20       		.byte	0x20
 5610 1775 A201     		.2byte	0x1a2
 5611 1777 EF170000 		.4byte	0x17ef
 5612 177b 28       		.byte	0x28
 5613 177c 00       		.byte	0
 5614 177d 04       		.uleb128 0x4
 5615 177e AD020000 		.4byte	.LASF299
 5616 1782 20       		.byte	0x20
 5617 1783 D1       		.byte	0xd1
 5618 1784 88170000 		.4byte	0x1788
 5619 1788 0C       		.uleb128 0xc
 5620 1789 04       		.byte	0x4
 5621 178a 8E170000 		.4byte	0x178e
 5622 178e 0E       		.uleb128 0xe
 5623 178f 9E170000 		.4byte	0x179e
 5624 1793 0F       		.uleb128 0xf
 5625 1794 9E170000 		.4byte	0x179e
 5626 1798 0F       		.uleb128 0xf
 5627 1799 F5000000 		.4byte	0xf5
 5628 179d 00       		.byte	0
 5629 179e 0C       		.uleb128 0xc
 5630 179f 04       		.byte	0x4
 5631 17a0 EF160000 		.4byte	0x16ef
 5632 17a4 11       		.uleb128 0x11
 5633 17a5 C5000000 		.4byte	0xc5
 5634 17a9 B4170000 		.4byte	0x17b4
 5635 17ad 12       		.uleb128 0x12
 5636 17ae 2C000000 		.4byte	0x2c
 5637 17b2 07       		.byte	0x7
 5638 17b3 00       		.byte	0
 5639 17b4 17       		.uleb128 0x17
 5640 17b5 08       		.byte	0x8
 5641 17b6 20       		.byte	0x20
ARM GAS  /tmp/ccQCTkSU.s 			page 100


 5642 17b7 3601     		.2byte	0x136
 5643 17b9 D8170000 		.4byte	0x17d8
 5644 17bd 0A       		.uleb128 0xa
 5645 17be 6D637200 		.ascii	"mcr\000"
 5646 17c2 20       		.byte	0x20
 5647 17c3 3C01     		.2byte	0x13c
 5648 17c5 F5000000 		.4byte	0xf5
 5649 17c9 00       		.byte	0
 5650 17ca 0A       		.uleb128 0xa
 5651 17cb 62747200 		.ascii	"btr\000"
 5652 17cf 20       		.byte	0x20
 5653 17d0 4201     		.2byte	0x142
 5654 17d2 F5000000 		.4byte	0xf5
 5655 17d6 04       		.byte	0x4
 5656 17d7 00       		.byte	0
 5657 17d8 16       		.uleb128 0x16
 5658 17d9 CF130000 		.4byte	.LASF300
 5659 17dd 20       		.byte	0x20
 5660 17de 4301     		.2byte	0x143
 5661 17e0 B4170000 		.4byte	0x17b4
 5662 17e4 06       		.uleb128 0x6
 5663 17e5 D8170000 		.4byte	0x17d8
 5664 17e9 0C       		.uleb128 0xc
 5665 17ea 04       		.byte	0x4
 5666 17eb E4170000 		.4byte	0x17e4
 5667 17ef 0C       		.uleb128 0xc
 5668 17f0 04       		.byte	0x4
 5669 17f1 36080000 		.4byte	0x836
 5670 17f5 13       		.uleb128 0x13
 5671 17f6 EE180000 		.4byte	.LASF301
 5672 17fa 20       		.byte	0x20
 5673 17fb AE01     		.2byte	0x1ae
 5674 17fd EF160000 		.4byte	0x16ef
 5675 1801 13       		.uleb128 0x13
 5676 1802 87080000 		.4byte	.LASF302
 5677 1806 20       		.byte	0x20
 5678 1807 B201     		.2byte	0x1b2
 5679 1809 EF160000 		.4byte	0x16ef
 5680 180d 21       		.uleb128 0x21
 5681 180e 07       		.byte	0x7
 5682 180f 01       		.byte	0x1
 5683 1810 71000000 		.4byte	0x71
 5684 1814 21       		.byte	0x21
 5685 1815 4C       		.byte	0x4c
 5686 1816 3F180000 		.4byte	0x183f
 5687 181a 22       		.uleb128 0x22
 5688 181b F3040000 		.4byte	.LASF303
 5689 181f 00       		.byte	0
 5690 1820 22       		.uleb128 0x22
 5691 1821 370B0000 		.4byte	.LASF304
 5692 1825 01       		.byte	0x1
 5693 1826 22       		.uleb128 0x22
 5694 1827 32050000 		.4byte	.LASF305
 5695 182b 02       		.byte	0x2
 5696 182c 22       		.uleb128 0x22
 5697 182d D3030000 		.4byte	.LASF306
 5698 1831 03       		.byte	0x3
ARM GAS  /tmp/ccQCTkSU.s 			page 101


 5699 1832 22       		.uleb128 0x22
 5700 1833 DC020000 		.4byte	.LASF307
 5701 1837 04       		.byte	0x4
 5702 1838 22       		.uleb128 0x22
 5703 1839 F30E0000 		.4byte	.LASF308
 5704 183d 05       		.byte	0x5
 5705 183e 00       		.byte	0
 5706 183f 04       		.uleb128 0x4
 5707 1840 310D0000 		.4byte	.LASF309
 5708 1844 21       		.byte	0x21
 5709 1845 53       		.byte	0x53
 5710 1846 0D180000 		.4byte	0x180d
 5711 184a 04       		.uleb128 0x4
 5712 184b 57030000 		.4byte	.LASF310
 5713 184f 22       		.byte	0x22
 5714 1850 69       		.byte	0x69
 5715 1851 C5000000 		.4byte	0xc5
 5716 1855 0C       		.uleb128 0xc
 5717 1856 04       		.byte	0x4
 5718 1857 5B180000 		.4byte	0x185b
 5719 185b 24       		.uleb128 0x24
 5720 185c 15       		.uleb128 0x15
 5721 185d 10       		.byte	0x10
 5722 185e 22       		.byte	0x22
 5723 185f 73       		.byte	0x73
 5724 1860 95180000 		.4byte	0x1895
 5725 1864 08       		.uleb128 0x8
 5726 1865 23090000 		.4byte	.LASF311
 5727 1869 22       		.byte	0x22
 5728 186a 77       		.byte	0x77
 5729 186b 3E0F0000 		.4byte	0xf3e
 5730 186f 00       		.byte	0
 5731 1870 09       		.uleb128 0x9
 5732 1871 73636C00 		.ascii	"scl\000"
 5733 1875 22       		.byte	0x22
 5734 1876 7B       		.byte	0x7b
 5735 1877 30140000 		.4byte	0x1430
 5736 187b 04       		.byte	0x4
 5737 187c 09       		.uleb128 0x9
 5738 187d 73646100 		.ascii	"sda\000"
 5739 1881 22       		.byte	0x22
 5740 1882 7F       		.byte	0x7f
 5741 1883 30140000 		.4byte	0x1430
 5742 1887 08       		.byte	0x8
 5743 1888 08       		.uleb128 0x8
 5744 1889 49150000 		.4byte	.LASF312
 5745 188d 22       		.byte	0x22
 5746 188e 84       		.byte	0x84
 5747 188f 77040000 		.4byte	0x477
 5748 1893 0C       		.byte	0xc
 5749 1894 00       		.byte	0
 5750 1895 04       		.uleb128 0x4
 5751 1896 90010000 		.4byte	.LASF313
 5752 189a 22       		.byte	0x22
 5753 189b 8B       		.byte	0x8b
 5754 189c 5C180000 		.4byte	0x185c
 5755 18a0 06       		.uleb128 0x6
ARM GAS  /tmp/ccQCTkSU.s 			page 102


 5756 18a1 95180000 		.4byte	0x1895
 5757 18a5 04       		.uleb128 0x4
 5758 18a6 C9030000 		.4byte	.LASF314
 5759 18aa 22       		.byte	0x22
 5760 18ab 90       		.byte	0x90
 5761 18ac B0180000 		.4byte	0x18b0
 5762 18b0 07       		.uleb128 0x7
 5763 18b1 C9030000 		.4byte	.LASF314
 5764 18b5 24       		.byte	0x24
 5765 18b6 22       		.byte	0x22
 5766 18b7 95       		.byte	0x95
 5767 18b8 05190000 		.4byte	0x1905
 5768 18bc 08       		.uleb128 0x8
 5769 18bd BC100000 		.4byte	.LASF39
 5770 18c1 22       		.byte	0x22
 5771 18c2 99       		.byte	0x99
 5772 18c3 3F180000 		.4byte	0x183f
 5773 18c7 00       		.byte	0
 5774 18c8 08       		.uleb128 0x8
 5775 18c9 91150000 		.4byte	.LASF256
 5776 18cd 22       		.byte	0x22
 5777 18ce 9D       		.byte	0x9d
 5778 18cf 05190000 		.4byte	0x1905
 5779 18d3 04       		.byte	0x4
 5780 18d4 08       		.uleb128 0x8
 5781 18d5 0E010000 		.4byte	.LASF315
 5782 18d9 22       		.byte	0x22
 5783 18da A1       		.byte	0xa1
 5784 18db 4A180000 		.4byte	0x184a
 5785 18df 08       		.byte	0x8
 5786 18e0 08       		.uleb128 0x8
 5787 18e1 200A0000 		.4byte	.LASF261
 5788 18e5 22       		.byte	0x22
 5789 18e6 A3       		.byte	0xa3
 5790 18e7 AF0E0000 		.4byte	0xeaf
 5791 18eb 0C       		.byte	0xc
 5792 18ec 08       		.uleb128 0x8
 5793 18ed 17100000 		.4byte	.LASF316
 5794 18f1 22       		.byte	0x22
 5795 18f2 AC       		.byte	0xac
 5796 18f3 77040000 		.4byte	0x477
 5797 18f7 1C       		.byte	0x1c
 5798 18f8 09       		.uleb128 0x9
 5799 18f9 656E6400 		.ascii	"end\000"
 5800 18fd 22       		.byte	0x22
 5801 18fe B0       		.byte	0xb0
 5802 18ff 77040000 		.4byte	0x477
 5803 1903 20       		.byte	0x20
 5804 1904 00       		.byte	0
 5805 1905 0C       		.uleb128 0xc
 5806 1906 04       		.byte	0x4
 5807 1907 A0180000 		.4byte	0x18a0
 5808 190b 14       		.uleb128 0x14
 5809 190c 0C0A0000 		.4byte	.LASF317
 5810 1910 22       		.byte	0x22
 5811 1911 C9       		.byte	0xc9
 5812 1912 A5180000 		.4byte	0x18a5
ARM GAS  /tmp/ccQCTkSU.s 			page 103


 5813 1916 21       		.uleb128 0x21
 5814 1917 07       		.byte	0x7
 5815 1918 01       		.byte	0x1
 5816 1919 71000000 		.4byte	0x71
 5817 191d 23       		.byte	0x23
 5818 191e 31       		.byte	0x31
 5819 191f 42190000 		.4byte	0x1942
 5820 1923 22       		.uleb128 0x22
 5821 1924 4F150000 		.4byte	.LASF318
 5822 1928 00       		.byte	0
 5823 1929 22       		.uleb128 0x22
 5824 192a 54170000 		.4byte	.LASF319
 5825 192e 01       		.byte	0x1
 5826 192f 22       		.uleb128 0x22
 5827 1930 27040000 		.4byte	.LASF320
 5828 1934 02       		.byte	0x2
 5829 1935 22       		.uleb128 0x22
 5830 1936 760F0000 		.4byte	.LASF321
 5831 193a 03       		.byte	0x3
 5832 193b 22       		.uleb128 0x22
 5833 193c D4150000 		.4byte	.LASF322
 5834 1940 04       		.byte	0x4
 5835 1941 00       		.byte	0
 5836 1942 04       		.uleb128 0x4
 5837 1943 A2180000 		.4byte	.LASF323
 5838 1947 23       		.byte	0x23
 5839 1948 37       		.byte	0x37
 5840 1949 16190000 		.4byte	0x1916
 5841 194d 04       		.uleb128 0x4
 5842 194e 6E130000 		.4byte	.LASF324
 5843 1952 23       		.byte	0x23
 5844 1953 3C       		.byte	0x3c
 5845 1954 58190000 		.4byte	0x1958
 5846 1958 0D       		.uleb128 0xd
 5847 1959 6E130000 		.4byte	.LASF324
 5848 195d 18       		.byte	0x18
 5849 195e 24       		.byte	0x24
 5850 195f AC01     		.2byte	0x1ac
 5851 1961 B4190000 		.4byte	0x19b4
 5852 1965 0B       		.uleb128 0xb
 5853 1966 BC100000 		.4byte	.LASF39
 5854 196a 24       		.byte	0x24
 5855 196b B001     		.2byte	0x1b0
 5856 196d 42190000 		.4byte	0x1942
 5857 1971 00       		.byte	0
 5858 1972 0B       		.uleb128 0xb
 5859 1973 91150000 		.4byte	.LASF256
 5860 1977 24       		.byte	0x24
 5861 1978 B401     		.2byte	0x1b4
 5862 197a A61A0000 		.4byte	0x1aa6
 5863 197e 04       		.byte	0x4
 5864 197f 0B       		.uleb128 0xb
 5865 1980 3D0A0000 		.4byte	.LASF325
 5866 1984 24       		.byte	0x24
 5867 1985 BC01     		.2byte	0x1bc
 5868 1987 F5000000 		.4byte	0xf5
 5869 198b 08       		.byte	0x8
ARM GAS  /tmp/ccQCTkSU.s 			page 104


 5870 198c 0A       		.uleb128 0xa
 5871 198d 74696D00 		.ascii	"tim\000"
 5872 1991 24       		.byte	0x24
 5873 1992 C001     		.2byte	0x1c0
 5874 1994 AC1A0000 		.4byte	0x1aac
 5875 1998 0C       		.byte	0xc
 5876 1999 0B       		.uleb128 0xb
 5877 199a 23170000 		.4byte	.LASF326
 5878 199e 24       		.byte	0x24
 5879 199f C401     		.2byte	0x1c4
 5880 19a1 7F110000 		.4byte	0x117f
 5881 19a5 10       		.byte	0x10
 5882 19a6 0B       		.uleb128 0xb
 5883 19a7 31040000 		.4byte	.LASF327
 5884 19ab 24       		.byte	0x24
 5885 19ac C801     		.2byte	0x1c8
 5886 19ae 7F110000 		.4byte	0x117f
 5887 19b2 14       		.byte	0x14
 5888 19b3 00       		.byte	0
 5889 19b4 04       		.uleb128 0x4
 5890 19b5 63140000 		.4byte	.LASF328
 5891 19b9 23       		.byte	0x23
 5892 19ba 43       		.byte	0x43
 5893 19bb BF190000 		.4byte	0x19bf
 5894 19bf 0C       		.uleb128 0xc
 5895 19c0 04       		.byte	0x4
 5896 19c1 C5190000 		.4byte	0x19c5
 5897 19c5 0E       		.uleb128 0xe
 5898 19c6 D0190000 		.4byte	0x19d0
 5899 19ca 0F       		.uleb128 0xf
 5900 19cb D0190000 		.4byte	0x19d0
 5901 19cf 00       		.byte	0
 5902 19d0 0C       		.uleb128 0xc
 5903 19d1 04       		.byte	0x4
 5904 19d2 4D190000 		.4byte	0x194d
 5905 19d6 23       		.uleb128 0x23
 5906 19d7 07       		.byte	0x7
 5907 19d8 01       		.byte	0x1
 5908 19d9 71000000 		.4byte	0x71
 5909 19dd 24       		.byte	0x24
 5910 19de 6901     		.2byte	0x169
 5911 19e0 F1190000 		.4byte	0x19f1
 5912 19e4 22       		.uleb128 0x22
 5913 19e5 D0060000 		.4byte	.LASF329
 5914 19e9 00       		.byte	0
 5915 19ea 22       		.uleb128 0x22
 5916 19eb A0140000 		.4byte	.LASF330
 5917 19ef 01       		.byte	0x1
 5918 19f0 00       		.byte	0
 5919 19f1 16       		.uleb128 0x16
 5920 19f2 5B1A0000 		.4byte	.LASF331
 5921 19f6 24       		.byte	0x24
 5922 19f7 6C01     		.2byte	0x16c
 5923 19f9 D6190000 		.4byte	0x19d6
 5924 19fd 16       		.uleb128 0x16
 5925 19fe DC140000 		.4byte	.LASF332
 5926 1a02 24       		.byte	0x24
ARM GAS  /tmp/ccQCTkSU.s 			page 105


 5927 1a03 7101     		.2byte	0x171
 5928 1a05 F5000000 		.4byte	0xf5
 5929 1a09 23       		.uleb128 0x23
 5930 1a0a 07       		.byte	0x7
 5931 1a0b 01       		.byte	0x1
 5932 1a0c 71000000 		.4byte	0x71
 5933 1a10 24       		.byte	0x24
 5934 1a11 7601     		.2byte	0x176
 5935 1a13 241A0000 		.4byte	0x1a24
 5936 1a17 22       		.uleb128 0x22
 5937 1a18 2B140000 		.4byte	.LASF333
 5938 1a1c 00       		.byte	0
 5939 1a1d 22       		.uleb128 0x22
 5940 1a1e 49180000 		.4byte	.LASF334
 5941 1a22 01       		.byte	0x1
 5942 1a23 00       		.byte	0
 5943 1a24 16       		.uleb128 0x16
 5944 1a25 9C040000 		.4byte	.LASF335
 5945 1a29 24       		.byte	0x24
 5946 1a2a 7901     		.2byte	0x179
 5947 1a2c 091A0000 		.4byte	0x1a09
 5948 1a30 17       		.uleb128 0x17
 5949 1a31 1C       		.byte	0x1c
 5950 1a32 24       		.byte	0x24
 5951 1a33 8401     		.2byte	0x184
 5952 1a35 951A0000 		.4byte	0x1a95
 5953 1a39 0B       		.uleb128 0xb
 5954 1a3a BB060000 		.4byte	.LASF336
 5955 1a3e 24       		.byte	0x24
 5956 1a3f 8801     		.2byte	0x188
 5957 1a41 F1190000 		.4byte	0x19f1
 5958 1a45 00       		.byte	0
 5959 1a46 0B       		.uleb128 0xb
 5960 1a47 1E1C0000 		.4byte	.LASF337
 5961 1a4b 24       		.byte	0x24
 5962 1a4c 8E01     		.2byte	0x18e
 5963 1a4e FD190000 		.4byte	0x19fd
 5964 1a52 04       		.byte	0x4
 5965 1a53 0B       		.uleb128 0xb
 5966 1a54 FE0E0000 		.4byte	.LASF338
 5967 1a58 24       		.byte	0x24
 5968 1a59 9201     		.2byte	0x192
 5969 1a5b B4190000 		.4byte	0x19b4
 5970 1a5f 08       		.byte	0x8
 5971 1a60 0B       		.uleb128 0xb
 5972 1a61 270D0000 		.4byte	.LASF339
 5973 1a65 24       		.byte	0x24
 5974 1a66 9601     		.2byte	0x196
 5975 1a68 B4190000 		.4byte	0x19b4
 5976 1a6c 0C       		.byte	0xc
 5977 1a6d 0B       		.uleb128 0xb
 5978 1a6e 94080000 		.4byte	.LASF340
 5979 1a72 24       		.byte	0x24
 5980 1a73 9A01     		.2byte	0x19a
 5981 1a75 B4190000 		.4byte	0x19b4
 5982 1a79 10       		.byte	0x10
 5983 1a7a 0B       		.uleb128 0xb
ARM GAS  /tmp/ccQCTkSU.s 			page 106


 5984 1a7b A90D0000 		.4byte	.LASF341
 5985 1a7f 24       		.byte	0x24
 5986 1a80 A001     		.2byte	0x1a0
 5987 1a82 241A0000 		.4byte	0x1a24
 5988 1a86 14       		.byte	0x14
 5989 1a87 0B       		.uleb128 0xb
 5990 1a88 DC090000 		.4byte	.LASF342
 5991 1a8c 24       		.byte	0x24
 5992 1a8d A601     		.2byte	0x1a6
 5993 1a8f F5000000 		.4byte	0xf5
 5994 1a93 18       		.byte	0x18
 5995 1a94 00       		.byte	0
 5996 1a95 16       		.uleb128 0x16
 5997 1a96 78130000 		.4byte	.LASF343
 5998 1a9a 24       		.byte	0x24
 5999 1a9b A701     		.2byte	0x1a7
 6000 1a9d 301A0000 		.4byte	0x1a30
 6001 1aa1 06       		.uleb128 0x6
 6002 1aa2 951A0000 		.4byte	0x1a95
 6003 1aa6 0C       		.uleb128 0xc
 6004 1aa7 04       		.byte	0x4
 6005 1aa8 A11A0000 		.4byte	0x1aa1
 6006 1aac 0C       		.uleb128 0xc
 6007 1aad 04       		.byte	0x4
 6008 1aae 680C0000 		.4byte	0xc68
 6009 1ab2 13       		.uleb128 0x13
 6010 1ab3 780B0000 		.4byte	.LASF344
 6011 1ab7 24       		.byte	0x24
 6012 1ab8 0502     		.2byte	0x205
 6013 1aba 4D190000 		.4byte	0x194d
 6014 1abe 13       		.uleb128 0x13
 6015 1abf 7E0B0000 		.4byte	.LASF345
 6016 1ac3 24       		.byte	0x24
 6017 1ac4 0902     		.2byte	0x209
 6018 1ac6 4D190000 		.4byte	0x194d
 6019 1aca 21       		.uleb128 0x21
 6020 1acb 07       		.byte	0x7
 6021 1acc 01       		.byte	0x1
 6022 1acd 71000000 		.4byte	0x71
 6023 1ad1 25       		.byte	0x25
 6024 1ad2 4A       		.byte	0x4a
 6025 1ad3 EA1A0000 		.4byte	0x1aea
 6026 1ad7 22       		.uleb128 0x22
 6027 1ad8 ED050000 		.4byte	.LASF346
 6028 1adc 00       		.byte	0
 6029 1add 22       		.uleb128 0x22
 6030 1ade 030A0000 		.4byte	.LASF347
 6031 1ae2 01       		.byte	0x1
 6032 1ae3 22       		.uleb128 0x22
 6033 1ae4 620C0000 		.4byte	.LASF348
 6034 1ae8 02       		.byte	0x2
 6035 1ae9 00       		.byte	0
 6036 1aea 04       		.uleb128 0x4
 6037 1aeb F3020000 		.4byte	.LASF349
 6038 1aef 25       		.byte	0x25
 6039 1af0 4E       		.byte	0x4e
 6040 1af1 CA1A0000 		.4byte	0x1aca
ARM GAS  /tmp/ccQCTkSU.s 			page 107


 6041 1af5 04       		.uleb128 0x4
 6042 1af6 48090000 		.4byte	.LASF350
 6043 1afa 25       		.byte	0x25
 6044 1afb 53       		.byte	0x53
 6045 1afc 001B0000 		.4byte	0x1b00
 6046 1b00 0D       		.uleb128 0xd
 6047 1b01 48090000 		.4byte	.LASF350
 6048 1b05 1C       		.byte	0x1c
 6049 1b06 26       		.byte	0x26
 6050 1b07 6302     		.2byte	0x263
 6051 1b09 691B0000 		.4byte	0x1b69
 6052 1b0d 0B       		.uleb128 0xb
 6053 1b0e BC100000 		.4byte	.LASF39
 6054 1b12 26       		.byte	0x26
 6055 1b13 6702     		.2byte	0x267
 6056 1b15 EA1A0000 		.4byte	0x1aea
 6057 1b19 00       		.byte	0
 6058 1b1a 0B       		.uleb128 0xb
 6059 1b1b 91150000 		.4byte	.LASF256
 6060 1b1f 26       		.byte	0x26
 6061 1b20 6B02     		.2byte	0x26b
 6062 1b22 641C0000 		.4byte	0x1c64
 6063 1b26 04       		.byte	0x4
 6064 1b27 0B       		.uleb128 0xb
 6065 1b28 E20E0000 		.4byte	.LASF351
 6066 1b2c 26       		.byte	0x26
 6067 1b2d 6F02     		.2byte	0x26f
 6068 1b2f AF1B0000 		.4byte	0x1baf
 6069 1b33 08       		.byte	0x8
 6070 1b34 0B       		.uleb128 0xb
 6071 1b35 F6130000 		.4byte	.LASF352
 6072 1b39 26       		.byte	0x26
 6073 1b3a 7302     		.2byte	0x273
 6074 1b3c A31B0000 		.4byte	0x1ba3
 6075 1b40 0C       		.byte	0xc
 6076 1b41 0B       		.uleb128 0xb
 6077 1b42 53190000 		.4byte	.LASF353
 6078 1b46 26       		.byte	0x26
 6079 1b47 7702     		.2byte	0x277
 6080 1b49 971B0000 		.4byte	0x1b97
 6081 1b4d 10       		.byte	0x10
 6082 1b4e 0B       		.uleb128 0xb
 6083 1b4f 3D0A0000 		.4byte	.LASF325
 6084 1b53 26       		.byte	0x26
 6085 1b54 7F02     		.2byte	0x27f
 6086 1b56 F5000000 		.4byte	0xf5
 6087 1b5a 14       		.byte	0x14
 6088 1b5b 0A       		.uleb128 0xa
 6089 1b5c 74696D00 		.ascii	"tim\000"
 6090 1b60 26       		.byte	0x26
 6091 1b61 8302     		.2byte	0x283
 6092 1b63 AC1A0000 		.4byte	0x1aac
 6093 1b67 18       		.byte	0x18
 6094 1b68 00       		.byte	0
 6095 1b69 04       		.uleb128 0x4
 6096 1b6a 0D0D0000 		.4byte	.LASF354
 6097 1b6e 25       		.byte	0x25
ARM GAS  /tmp/ccQCTkSU.s 			page 108


 6098 1b6f 5A       		.byte	0x5a
 6099 1b70 741B0000 		.4byte	0x1b74
 6100 1b74 0C       		.uleb128 0xc
 6101 1b75 04       		.byte	0x4
 6102 1b76 7A1B0000 		.4byte	0x1b7a
 6103 1b7a 0E       		.uleb128 0xe
 6104 1b7b 851B0000 		.4byte	0x1b85
 6105 1b7f 0F       		.uleb128 0xf
 6106 1b80 851B0000 		.4byte	0x1b85
 6107 1b84 00       		.byte	0
 6108 1b85 0C       		.uleb128 0xc
 6109 1b86 04       		.byte	0x4
 6110 1b87 F51A0000 		.4byte	0x1af5
 6111 1b8b 16       		.uleb128 0x16
 6112 1b8c 3A100000 		.4byte	.LASF355
 6113 1b90 26       		.byte	0x26
 6114 1b91 0F02     		.2byte	0x20f
 6115 1b93 F5000000 		.4byte	0xf5
 6116 1b97 16       		.uleb128 0x16
 6117 1b98 C5110000 		.4byte	.LASF356
 6118 1b9c 26       		.byte	0x26
 6119 1b9d 1402     		.2byte	0x214
 6120 1b9f C5000000 		.4byte	0xc5
 6121 1ba3 16       		.uleb128 0x16
 6122 1ba4 8D020000 		.4byte	.LASF357
 6123 1ba8 26       		.byte	0x26
 6124 1ba9 1902     		.2byte	0x219
 6125 1bab F5000000 		.4byte	0xf5
 6126 1baf 16       		.uleb128 0x16
 6127 1bb0 94110000 		.4byte	.LASF358
 6128 1bb4 26       		.byte	0x26
 6129 1bb5 1E02     		.2byte	0x21e
 6130 1bb7 F5000000 		.4byte	0xf5
 6131 1bbb 17       		.uleb128 0x17
 6132 1bbc 08       		.byte	0x8
 6133 1bbd 26       		.byte	0x26
 6134 1bbe 2302     		.2byte	0x223
 6135 1bc0 DF1B0000 		.4byte	0x1bdf
 6136 1bc4 0B       		.uleb128 0xb
 6137 1bc5 BB060000 		.4byte	.LASF336
 6138 1bc9 26       		.byte	0x26
 6139 1bca 2702     		.2byte	0x227
 6140 1bcc 8B1B0000 		.4byte	0x1b8b
 6141 1bd0 00       		.byte	0
 6142 1bd1 0B       		.uleb128 0xb
 6143 1bd2 DD100000 		.4byte	.LASF359
 6144 1bd6 26       		.byte	0x26
 6145 1bd7 2D02     		.2byte	0x22d
 6146 1bd9 691B0000 		.4byte	0x1b69
 6147 1bdd 04       		.byte	0x4
 6148 1bde 00       		.byte	0
 6149 1bdf 16       		.uleb128 0x16
 6150 1be0 BB0A0000 		.4byte	.LASF360
 6151 1be4 26       		.byte	0x26
 6152 1be5 2F02     		.2byte	0x22f
 6153 1be7 BB1B0000 		.4byte	0x1bbb
 6154 1beb 17       		.uleb128 0x17
ARM GAS  /tmp/ccQCTkSU.s 			page 109


 6155 1bec 34       		.byte	0x34
 6156 1bed 26       		.byte	0x26
 6157 1bee 3402     		.2byte	0x234
 6158 1bf0 431C0000 		.4byte	0x1c43
 6159 1bf4 0B       		.uleb128 0xb
 6160 1bf5 1E1C0000 		.4byte	.LASF337
 6161 1bf9 26       		.byte	0x26
 6162 1bfa 3A02     		.2byte	0x23a
 6163 1bfc F5000000 		.4byte	0xf5
 6164 1c00 00       		.byte	0
 6165 1c01 0B       		.uleb128 0xb
 6166 1c02 E20E0000 		.4byte	.LASF351
 6167 1c06 26       		.byte	0x26
 6168 1c07 4002     		.2byte	0x240
 6169 1c09 AF1B0000 		.4byte	0x1baf
 6170 1c0d 04       		.byte	0x4
 6171 1c0e 0B       		.uleb128 0xb
 6172 1c0f DD100000 		.4byte	.LASF359
 6173 1c13 26       		.byte	0x26
 6174 1c14 4602     		.2byte	0x246
 6175 1c16 691B0000 		.4byte	0x1b69
 6176 1c1a 08       		.byte	0x8
 6177 1c1b 0B       		.uleb128 0xb
 6178 1c1c 53190000 		.4byte	.LASF353
 6179 1c20 26       		.byte	0x26
 6180 1c21 4A02     		.2byte	0x24a
 6181 1c23 431C0000 		.4byte	0x1c43
 6182 1c27 0C       		.byte	0xc
 6183 1c28 0A       		.uleb128 0xa
 6184 1c29 63723200 		.ascii	"cr2\000"
 6185 1c2d 26       		.byte	0x26
 6186 1c2e 5002     		.2byte	0x250
 6187 1c30 F5000000 		.4byte	0xf5
 6188 1c34 2C       		.byte	0x2c
 6189 1c35 0B       		.uleb128 0xb
 6190 1c36 DC090000 		.4byte	.LASF342
 6191 1c3a 26       		.byte	0x26
 6192 1c3b 5D02     		.2byte	0x25d
 6193 1c3d F5000000 		.4byte	0xf5
 6194 1c41 30       		.byte	0x30
 6195 1c42 00       		.byte	0
 6196 1c43 11       		.uleb128 0x11
 6197 1c44 DF1B0000 		.4byte	0x1bdf
 6198 1c48 531C0000 		.4byte	0x1c53
 6199 1c4c 12       		.uleb128 0x12
 6200 1c4d 2C000000 		.4byte	0x2c
 6201 1c51 03       		.byte	0x3
 6202 1c52 00       		.byte	0
 6203 1c53 16       		.uleb128 0x16
 6204 1c54 52090000 		.4byte	.LASF361
 6205 1c58 26       		.byte	0x26
 6206 1c59 5E02     		.2byte	0x25e
 6207 1c5b EB1B0000 		.4byte	0x1beb
 6208 1c5f 06       		.uleb128 0x6
 6209 1c60 531C0000 		.4byte	0x1c53
 6210 1c64 0C       		.uleb128 0xc
 6211 1c65 04       		.byte	0x4
ARM GAS  /tmp/ccQCTkSU.s 			page 110


 6212 1c66 5F1C0000 		.4byte	0x1c5f
 6213 1c6a 13       		.uleb128 0x13
 6214 1c6b A30D0000 		.4byte	.LASF362
 6215 1c6f 26       		.byte	0x26
 6216 1c70 A202     		.2byte	0x2a2
 6217 1c72 F51A0000 		.4byte	0x1af5
 6218 1c76 13       		.uleb128 0x13
 6219 1c77 B00F0000 		.4byte	.LASF363
 6220 1c7b 26       		.byte	0x26
 6221 1c7c AA02     		.2byte	0x2aa
 6222 1c7e F51A0000 		.4byte	0x1af5
 6223 1c82 13       		.uleb128 0x13
 6224 1c83 8A150000 		.4byte	.LASF364
 6225 1c87 26       		.byte	0x26
 6226 1c88 BE02     		.2byte	0x2be
 6227 1c8a F51A0000 		.4byte	0x1af5
 6228 1c8e 21       		.uleb128 0x21
 6229 1c8f 07       		.byte	0x7
 6230 1c90 01       		.byte	0x1
 6231 1c91 71000000 		.4byte	0x71
 6232 1c95 27       		.byte	0x27
 6233 1c96 58       		.byte	0x58
 6234 1c97 AE1C0000 		.4byte	0x1cae
 6235 1c9b 22       		.uleb128 0x22
 6236 1c9c 0B050000 		.4byte	.LASF365
 6237 1ca0 00       		.byte	0
 6238 1ca1 22       		.uleb128 0x22
 6239 1ca2 630A0000 		.4byte	.LASF366
 6240 1ca6 01       		.byte	0x1
 6241 1ca7 22       		.uleb128 0x22
 6242 1ca8 811D0000 		.4byte	.LASF367
 6243 1cac 02       		.byte	0x2
 6244 1cad 00       		.byte	0
 6245 1cae 04       		.uleb128 0x4
 6246 1caf 24080000 		.4byte	.LASF368
 6247 1cb3 27       		.byte	0x27
 6248 1cb4 5C       		.byte	0x5c
 6249 1cb5 8E1C0000 		.4byte	0x1c8e
 6250 1cb9 04       		.uleb128 0x4
 6251 1cba 67190000 		.4byte	.LASF369
 6252 1cbe 27       		.byte	0x27
 6253 1cbf 61       		.byte	0x61
 6254 1cc0 C41C0000 		.4byte	0x1cc4
 6255 1cc4 07       		.uleb128 0x7
 6256 1cc5 67190000 		.4byte	.LASF369
 6257 1cc9 7C       		.byte	0x7c
 6258 1cca 27       		.byte	0x27
 6259 1ccb 7B       		.byte	0x7b
 6260 1ccc 3B1D0000 		.4byte	0x1d3b
 6261 1cd0 09       		.uleb128 0x9
 6262 1cd1 766D7400 		.ascii	"vmt\000"
 6263 1cd5 27       		.byte	0x27
 6264 1cd6 7D       		.byte	0x7d
 6265 1cd7 D11D0000 		.4byte	0x1dd1
 6266 1cdb 00       		.byte	0
 6267 1cdc 08       		.uleb128 0x8
 6268 1cdd 31000000 		.4byte	.LASF370
ARM GAS  /tmp/ccQCTkSU.s 			page 111


 6269 1ce1 27       		.byte	0x27
 6270 1ce2 7E       		.byte	0x7e
 6271 1ce3 330F0000 		.4byte	0xf33
 6272 1ce7 04       		.byte	0x4
 6273 1ce8 08       		.uleb128 0x8
 6274 1ce9 BC100000 		.4byte	.LASF39
 6275 1ced 27       		.byte	0x27
 6276 1cee 7E       		.byte	0x7e
 6277 1cef AE1C0000 		.4byte	0x1cae
 6278 1cf3 08       		.byte	0x8
 6279 1cf4 08       		.uleb128 0x8
 6280 1cf5 B7120000 		.4byte	.LASF371
 6281 1cf9 27       		.byte	0x27
 6282 1cfa 7E       		.byte	0x7e
 6283 1cfb D8130000 		.4byte	0x13d8
 6284 1cff 0C       		.byte	0xc
 6285 1d00 08       		.uleb128 0x8
 6286 1d01 C80C0000 		.4byte	.LASF372
 6287 1d05 27       		.byte	0x27
 6288 1d06 7E       		.byte	0x7e
 6289 1d07 E3130000 		.4byte	0x13e3
 6290 1d0b 30       		.byte	0x30
 6291 1d0c 09       		.uleb128 0x9
 6292 1d0d 696200   		.ascii	"ib\000"
 6293 1d10 27       		.byte	0x27
 6294 1d11 7E       		.byte	0x7e
 6295 1d12 D71D0000 		.4byte	0x1dd7
 6296 1d16 54       		.byte	0x54
 6297 1d17 09       		.uleb128 0x9
 6298 1d18 6F6200   		.ascii	"ob\000"
 6299 1d1b 27       		.byte	0x27
 6300 1d1c 7E       		.byte	0x7e
 6301 1d1d D71D0000 		.4byte	0x1dd7
 6302 1d21 64       		.byte	0x64
 6303 1d22 08       		.uleb128 0x8
 6304 1d23 14140000 		.4byte	.LASF373
 6305 1d27 27       		.byte	0x27
 6306 1d28 7E       		.byte	0x7e
 6307 1d29 E71D0000 		.4byte	0x1de7
 6308 1d2d 74       		.byte	0x74
 6309 1d2e 08       		.uleb128 0x8
 6310 1d2f 0F150000 		.4byte	.LASF374
 6311 1d33 27       		.byte	0x27
 6312 1d34 7E       		.byte	0x7e
 6313 1d35 C5000000 		.4byte	0xc5
 6314 1d39 78       		.byte	0x78
 6315 1d3a 00       		.byte	0
 6316 1d3b 1E       		.uleb128 0x1e
 6317 1d3c 53443700 		.ascii	"SD7\000"
 6318 1d40 28       		.byte	0x28
 6319 1d41 5601     		.2byte	0x156
 6320 1d43 B91C0000 		.4byte	0x1cb9
 6321 1d47 07       		.uleb128 0x7
 6322 1d48 8E0B0000 		.4byte	.LASF375
 6323 1d4c 28       		.byte	0x28
 6324 1d4d 27       		.byte	0x27
 6325 1d4e 70       		.byte	0x70
ARM GAS  /tmp/ccQCTkSU.s 			page 112


 6326 1d4f CC1D0000 		.4byte	0x1dcc
 6327 1d53 08       		.uleb128 0x8
 6328 1d54 15010000 		.4byte	.LASF225
 6329 1d58 27       		.byte	0x27
 6330 1d59 71       		.byte	0x71
 6331 1d5a 41000000 		.4byte	0x41
 6332 1d5e 00       		.byte	0
 6333 1d5f 08       		.uleb128 0x8
 6334 1d60 A6120000 		.4byte	.LASF226
 6335 1d64 27       		.byte	0x27
 6336 1d65 71       		.byte	0x71
 6337 1d66 24120000 		.4byte	0x1224
 6338 1d6a 04       		.byte	0x4
 6339 1d6b 08       		.uleb128 0x8
 6340 1d6c 78010000 		.4byte	.LASF227
 6341 1d70 27       		.byte	0x27
 6342 1d71 71       		.byte	0x71
 6343 1d72 43120000 		.4byte	0x1243
 6344 1d76 08       		.byte	0x8
 6345 1d77 09       		.uleb128 0x9
 6346 1d78 70757400 		.ascii	"put\000"
 6347 1d7c 27       		.byte	0x27
 6348 1d7d 71       		.byte	0x71
 6349 1d7e 5D120000 		.4byte	0x125d
 6350 1d82 0C       		.byte	0xc
 6351 1d83 09       		.uleb128 0x9
 6352 1d84 67657400 		.ascii	"get\000"
 6353 1d88 27       		.byte	0x27
 6354 1d89 71       		.byte	0x71
 6355 1d8a 72120000 		.4byte	0x1272
 6356 1d8e 10       		.byte	0x10
 6357 1d8f 08       		.uleb128 0x8
 6358 1d90 9E0F0000 		.4byte	.LASF376
 6359 1d94 27       		.byte	0x27
 6360 1d95 71       		.byte	0x71
 6361 1d96 B7120000 		.4byte	0x12b7
 6362 1d9a 14       		.byte	0x14
 6363 1d9b 08       		.uleb128 0x8
 6364 1d9c 26120000 		.4byte	.LASF377
 6365 1da0 27       		.byte	0x27
 6366 1da1 71       		.byte	0x71
 6367 1da2 D1120000 		.4byte	0x12d1
 6368 1da6 18       		.byte	0x18
 6369 1da7 08       		.uleb128 0x8
 6370 1da8 351A0000 		.4byte	.LASF378
 6371 1dac 27       		.byte	0x27
 6372 1dad 71       		.byte	0x71
 6373 1dae F5120000 		.4byte	0x12f5
 6374 1db2 1C       		.byte	0x1c
 6375 1db3 08       		.uleb128 0x8
 6376 1db4 190F0000 		.4byte	.LASF379
 6377 1db8 27       		.byte	0x27
 6378 1db9 71       		.byte	0x71
 6379 1dba 19130000 		.4byte	0x1319
 6380 1dbe 20       		.byte	0x20
 6381 1dbf 09       		.uleb128 0x9
 6382 1dc0 63746C00 		.ascii	"ctl\000"
ARM GAS  /tmp/ccQCTkSU.s 			page 113


 6383 1dc4 27       		.byte	0x27
 6384 1dc5 71       		.byte	0x71
 6385 1dc6 38130000 		.4byte	0x1338
 6386 1dca 24       		.byte	0x24
 6387 1dcb 00       		.byte	0
 6388 1dcc 06       		.uleb128 0x6
 6389 1dcd 471D0000 		.4byte	0x1d47
 6390 1dd1 0C       		.uleb128 0xc
 6391 1dd2 04       		.byte	0x4
 6392 1dd3 CC1D0000 		.4byte	0x1dcc
 6393 1dd7 11       		.uleb128 0x11
 6394 1dd8 C5000000 		.4byte	0xc5
 6395 1ddc E71D0000 		.4byte	0x1de7
 6396 1de0 12       		.uleb128 0x12
 6397 1de1 2C000000 		.4byte	0x2c
 6398 1de5 0F       		.byte	0xf
 6399 1de6 00       		.byte	0
 6400 1de7 0C       		.uleb128 0xc
 6401 1de8 04       		.byte	0x4
 6402 1de9 BB090000 		.4byte	0x9bb
 6403 1ded 21       		.uleb128 0x21
 6404 1dee 07       		.byte	0x7
 6405 1def 01       		.byte	0x1
 6406 1df0 71000000 		.4byte	0x71
 6407 1df4 29       		.byte	0x29
 6408 1df5 74       		.byte	0x74
 6409 1df6 191E0000 		.4byte	0x1e19
 6410 1dfa 22       		.uleb128 0x22
 6411 1dfb 78050000 		.4byte	.LASF380
 6412 1dff 00       		.byte	0
 6413 1e00 22       		.uleb128 0x22
 6414 1e01 6F020000 		.4byte	.LASF381
 6415 1e05 01       		.byte	0x1
 6416 1e06 22       		.uleb128 0x22
 6417 1e07 971A0000 		.4byte	.LASF382
 6418 1e0b 02       		.byte	0x2
 6419 1e0c 22       		.uleb128 0x22
 6420 1e0d 480C0000 		.4byte	.LASF383
 6421 1e11 03       		.byte	0x3
 6422 1e12 22       		.uleb128 0x22
 6423 1e13 400F0000 		.4byte	.LASF384
 6424 1e17 04       		.byte	0x4
 6425 1e18 00       		.byte	0
 6426 1e19 04       		.uleb128 0x4
 6427 1e1a C4020000 		.4byte	.LASF385
 6428 1e1e 29       		.byte	0x29
 6429 1e1f 7A       		.byte	0x7a
 6430 1e20 ED1D0000 		.4byte	0x1ded
 6431 1e24 04       		.uleb128 0x4
 6432 1e25 02190000 		.4byte	.LASF386
 6433 1e29 29       		.byte	0x29
 6434 1e2a 7F       		.byte	0x7f
 6435 1e2b 2F1E0000 		.4byte	0x1e2f
 6436 1e2f 07       		.uleb128 0x7
 6437 1e30 8C030000 		.4byte	.LASF387
 6438 1e34 20       		.byte	0x20
 6439 1e35 29       		.byte	0x29
ARM GAS  /tmp/ccQCTkSU.s 			page 114


 6440 1e36 C0       		.byte	0xc0
 6441 1e37 9C1E0000 		.4byte	0x1e9c
 6442 1e3b 08       		.uleb128 0x8
 6443 1e3c BC100000 		.4byte	.LASF39
 6444 1e40 29       		.byte	0x29
 6445 1e41 C4       		.byte	0xc4
 6446 1e42 191E0000 		.4byte	0x1e19
 6447 1e46 00       		.byte	0
 6448 1e47 08       		.uleb128 0x8
 6449 1e48 91150000 		.4byte	.LASF256
 6450 1e4c 29       		.byte	0x29
 6451 1e4d C8       		.byte	0xc8
 6452 1e4e 3B1F0000 		.4byte	0x1f3b
 6453 1e52 04       		.byte	0x4
 6454 1e53 08       		.uleb128 0x8
 6455 1e54 60050000 		.4byte	.LASF260
 6456 1e58 29       		.byte	0x29
 6457 1e59 CD       		.byte	0xcd
 6458 1e5a 67020000 		.4byte	0x267
 6459 1e5e 08       		.byte	0x8
 6460 1e5f 09       		.uleb128 0x9
 6461 1e60 73706900 		.ascii	"spi\000"
 6462 1e64 29       		.byte	0x29
 6463 1e65 D9       		.byte	0xd9
 6464 1e66 411F0000 		.4byte	0x1f41
 6465 1e6a 0C       		.byte	0xc
 6466 1e6b 08       		.uleb128 0x8
 6467 1e6c B8000000 		.4byte	.LASF388
 6468 1e70 29       		.byte	0x29
 6469 1e71 D9       		.byte	0xd9
 6470 1e72 B2160000 		.4byte	0x16b2
 6471 1e76 10       		.byte	0x10
 6472 1e77 08       		.uleb128 0x8
 6473 1e78 A3010000 		.4byte	.LASF389
 6474 1e7c 29       		.byte	0x29
 6475 1e7d D9       		.byte	0xd9
 6476 1e7e B2160000 		.4byte	0x16b2
 6477 1e82 14       		.byte	0x14
 6478 1e83 08       		.uleb128 0x8
 6479 1e84 A7060000 		.4byte	.LASF390
 6480 1e88 29       		.byte	0x29
 6481 1e89 D9       		.byte	0xd9
 6482 1e8a F5000000 		.4byte	0xf5
 6483 1e8e 18       		.byte	0x18
 6484 1e8f 08       		.uleb128 0x8
 6485 1e90 9D0E0000 		.4byte	.LASF391
 6486 1e94 29       		.byte	0x29
 6487 1e95 D9       		.byte	0xd9
 6488 1e96 F5000000 		.4byte	0xf5
 6489 1e9a 1C       		.byte	0x1c
 6490 1e9b 00       		.byte	0
 6491 1e9c 04       		.uleb128 0x4
 6492 1e9d 12190000 		.4byte	.LASF392
 6493 1ea1 29       		.byte	0x29
 6494 1ea2 83       		.byte	0x83
 6495 1ea3 AC1E0000 		.4byte	0x1eac
 6496 1ea7 06       		.uleb128 0x6
ARM GAS  /tmp/ccQCTkSU.s 			page 115


 6497 1ea8 9C1E0000 		.4byte	0x1e9c
 6498 1eac 07       		.uleb128 0x7
 6499 1ead 281C0000 		.4byte	.LASF393
 6500 1eb1 10       		.byte	0x10
 6501 1eb2 29       		.byte	0x29
 6502 1eb3 94       		.byte	0x94
 6503 1eb4 F51E0000 		.4byte	0x1ef5
 6504 1eb8 08       		.uleb128 0x8
 6505 1eb9 141A0000 		.4byte	.LASF269
 6506 1ebd 29       		.byte	0x29
 6507 1ebe 99       		.byte	0x99
 6508 1ebf 3E0F0000 		.4byte	0xf3e
 6509 1ec3 00       		.byte	0
 6510 1ec4 08       		.uleb128 0x8
 6511 1ec5 52070000 		.4byte	.LASF271
 6512 1ec9 29       		.byte	0x29
 6513 1eca 9E       		.byte	0x9e
 6514 1ecb F51E0000 		.4byte	0x1ef5
 6515 1ecf 04       		.byte	0x4
 6516 1ed0 08       		.uleb128 0x8
 6517 1ed1 CC0A0000 		.4byte	.LASF394
 6518 1ed5 29       		.byte	0x29
 6519 1ed6 A3       		.byte	0xa3
 6520 1ed7 30140000 		.4byte	0x1430
 6521 1edb 08       		.byte	0x8
 6522 1edc 09       		.uleb128 0x9
 6523 1edd 63723100 		.ascii	"cr1\000"
 6524 1ee1 29       		.byte	0x29
 6525 1ee2 BA       		.byte	0xba
 6526 1ee3 D5000000 		.4byte	0xd5
 6527 1ee7 0C       		.byte	0xc
 6528 1ee8 09       		.uleb128 0x9
 6529 1ee9 63723200 		.ascii	"cr2\000"
 6530 1eed 29       		.byte	0x29
 6531 1eee BA       		.byte	0xba
 6532 1eef D5000000 		.4byte	0xd5
 6533 1ef3 0E       		.byte	0xe
 6534 1ef4 00       		.byte	0
 6535 1ef5 04       		.uleb128 0x4
 6536 1ef6 25010000 		.4byte	.LASF395
 6537 1efa 29       		.byte	0x29
 6538 1efb 8B       		.byte	0x8b
 6539 1efc 001F0000 		.4byte	0x1f00
 6540 1f00 0C       		.uleb128 0xc
 6541 1f01 04       		.byte	0x4
 6542 1f02 061F0000 		.4byte	0x1f06
 6543 1f06 0E       		.uleb128 0xe
 6544 1f07 111F0000 		.4byte	0x1f11
 6545 1f0b 0F       		.uleb128 0xf
 6546 1f0c 111F0000 		.4byte	0x1f11
 6547 1f10 00       		.byte	0
 6548 1f11 0C       		.uleb128 0xc
 6549 1f12 04       		.byte	0x4
 6550 1f13 241E0000 		.4byte	0x1e24
 6551 1f17 13       		.uleb128 0x13
 6552 1f18 20120000 		.4byte	.LASF396
 6553 1f1c 2A       		.byte	0x2a
ARM GAS  /tmp/ccQCTkSU.s 			page 116


 6554 1f1d BD01     		.2byte	0x1bd
 6555 1f1f 241E0000 		.4byte	0x1e24
 6556 1f23 13       		.uleb128 0x13
 6557 1f24 3A120000 		.4byte	.LASF397
 6558 1f28 2A       		.byte	0x2a
 6559 1f29 C901     		.2byte	0x1c9
 6560 1f2b 241E0000 		.4byte	0x1e24
 6561 1f2f 13       		.uleb128 0x13
 6562 1f30 40120000 		.4byte	.LASF398
 6563 1f34 2A       		.byte	0x2a
 6564 1f35 CD01     		.2byte	0x1cd
 6565 1f37 241E0000 		.4byte	0x1e24
 6566 1f3b 0C       		.uleb128 0xc
 6567 1f3c 04       		.byte	0x4
 6568 1f3d A71E0000 		.4byte	0x1ea7
 6569 1f41 0C       		.uleb128 0xc
 6570 1f42 04       		.byte	0x4
 6571 1f43 4C090000 		.4byte	0x94c
 6572 1f47 21       		.uleb128 0x21
 6573 1f48 07       		.byte	0x7
 6574 1f49 01       		.byte	0x1
 6575 1f4a 71000000 		.4byte	0x71
 6576 1f4e 2B       		.byte	0x2b
 6577 1f4f 59       		.byte	0x59
 6578 1f50 671F0000 		.4byte	0x1f67
 6579 1f54 22       		.uleb128 0x22
 6580 1f55 98090000 		.4byte	.LASF399
 6581 1f59 00       		.byte	0
 6582 1f5a 22       		.uleb128 0x22
 6583 1f5b CA150000 		.4byte	.LASF400
 6584 1f5f 01       		.byte	0x1
 6585 1f60 22       		.uleb128 0x22
 6586 1f61 651C0000 		.4byte	.LASF401
 6587 1f65 02       		.byte	0x2
 6588 1f66 00       		.byte	0
 6589 1f67 04       		.uleb128 0x4
 6590 1f68 46120000 		.4byte	.LASF402
 6591 1f6c 2B       		.byte	0x2b
 6592 1f6d 5D       		.byte	0x5d
 6593 1f6e 471F0000 		.4byte	0x1f47
 6594 1f72 21       		.uleb128 0x21
 6595 1f73 07       		.byte	0x7
 6596 1f74 01       		.byte	0x1
 6597 1f75 71000000 		.4byte	0x71
 6598 1f79 2B       		.byte	0x2b
 6599 1f7a 62       		.byte	0x62
 6600 1f7b 921F0000 		.4byte	0x1f92
 6601 1f7f 22       		.uleb128 0x22
 6602 1f80 59000000 		.4byte	.LASF403
 6603 1f84 00       		.byte	0
 6604 1f85 22       		.uleb128 0x22
 6605 1f86 78080000 		.4byte	.LASF404
 6606 1f8a 01       		.byte	0x1
 6607 1f8b 22       		.uleb128 0x22
 6608 1f8c 5A1D0000 		.4byte	.LASF405
 6609 1f90 02       		.byte	0x2
 6610 1f91 00       		.byte	0
ARM GAS  /tmp/ccQCTkSU.s 			page 117


 6611 1f92 04       		.uleb128 0x4
 6612 1f93 F0190000 		.4byte	.LASF406
 6613 1f97 2B       		.byte	0x2b
 6614 1f98 66       		.byte	0x66
 6615 1f99 721F0000 		.4byte	0x1f72
 6616 1f9d 21       		.uleb128 0x21
 6617 1f9e 07       		.byte	0x7
 6618 1f9f 01       		.byte	0x1
 6619 1fa0 71000000 		.4byte	0x71
 6620 1fa4 2B       		.byte	0x2b
 6621 1fa5 6B       		.byte	0x6b
 6622 1fa6 BD1F0000 		.4byte	0x1fbd
 6623 1faa 22       		.uleb128 0x22
 6624 1fab 13110000 		.4byte	.LASF407
 6625 1faf 00       		.byte	0
 6626 1fb0 22       		.uleb128 0x22
 6627 1fb1 4C080000 		.4byte	.LASF408
 6628 1fb5 01       		.byte	0x1
 6629 1fb6 22       		.uleb128 0x22
 6630 1fb7 9D130000 		.4byte	.LASF409
 6631 1fbb 02       		.byte	0x2
 6632 1fbc 00       		.byte	0
 6633 1fbd 04       		.uleb128 0x4
 6634 1fbe B2190000 		.4byte	.LASF410
 6635 1fc2 2B       		.byte	0x2b
 6636 1fc3 6F       		.byte	0x6f
 6637 1fc4 9D1F0000 		.4byte	0x1f9d
 6638 1fc8 16       		.uleb128 0x16
 6639 1fc9 B9150000 		.4byte	.LASF411
 6640 1fcd 2C       		.byte	0x2c
 6641 1fce 2602     		.2byte	0x226
 6642 1fd0 F5000000 		.4byte	0xf5
 6643 1fd4 16       		.uleb128 0x16
 6644 1fd5 540E0000 		.4byte	.LASF412
 6645 1fd9 2C       		.byte	0x2c
 6646 1fda 2B02     		.2byte	0x22b
 6647 1fdc E01F0000 		.4byte	0x1fe0
 6648 1fe0 0D       		.uleb128 0xd
 6649 1fe1 540E0000 		.4byte	.LASF412
 6650 1fe5 28       		.byte	0x28
 6651 1fe6 2C       		.byte	0x2c
 6652 1fe7 7302     		.2byte	0x273
 6653 1fe9 8A200000 		.4byte	0x208a
 6654 1fed 0B       		.uleb128 0xb
 6655 1fee BC100000 		.4byte	.LASF39
 6656 1ff2 2C       		.byte	0x2c
 6657 1ff3 7702     		.2byte	0x277
 6658 1ff5 671F0000 		.4byte	0x1f67
 6659 1ff9 00       		.byte	0
 6660 1ffa 0B       		.uleb128 0xb
 6661 1ffb 021D0000 		.4byte	.LASF413
 6662 1fff 2C       		.byte	0x2c
 6663 2000 7B02     		.2byte	0x27b
 6664 2002 921F0000 		.4byte	0x1f92
 6665 2006 01       		.byte	0x1
 6666 2007 0B       		.uleb128 0xb
 6667 2008 6F100000 		.4byte	.LASF414
ARM GAS  /tmp/ccQCTkSU.s 			page 118


 6668 200c 2C       		.byte	0x2c
 6669 200d 7F02     		.2byte	0x27f
 6670 200f BD1F0000 		.4byte	0x1fbd
 6671 2013 02       		.byte	0x2
 6672 2014 0B       		.uleb128 0xb
 6673 2015 91150000 		.4byte	.LASF256
 6674 2019 2C       		.byte	0x2c
 6675 201a 8302     		.2byte	0x283
 6676 201c 81210000 		.4byte	0x2181
 6677 2020 04       		.byte	0x4
 6678 2021 0B       		.uleb128 0xb
 6679 2022 CF020000 		.4byte	.LASF415
 6680 2026 2C       		.byte	0x2c
 6681 2027 8802     		.2byte	0x288
 6682 2029 3E0F0000 		.4byte	0xf3e
 6683 202d 08       		.byte	0x8
 6684 202e 0B       		.uleb128 0xb
 6685 202f 950C0000 		.4byte	.LASF416
 6686 2033 2C       		.byte	0x2c
 6687 2034 8C02     		.2byte	0x28c
 6688 2036 67020000 		.4byte	0x267
 6689 203a 0C       		.byte	0xc
 6690 203b 0B       		.uleb128 0xb
 6691 203c B10D0000 		.4byte	.LASF417
 6692 2040 2C       		.byte	0x2c
 6693 2041 9002     		.2byte	0x290
 6694 2043 67020000 		.4byte	0x267
 6695 2047 10       		.byte	0x10
 6696 2048 0B       		.uleb128 0xb
 6697 2049 14140000 		.4byte	.LASF373
 6698 204d 2C       		.byte	0x2c
 6699 204e 9F02     		.2byte	0x29f
 6700 2050 E71D0000 		.4byte	0x1de7
 6701 2054 14       		.byte	0x14
 6702 2055 0B       		.uleb128 0xb
 6703 2056 12120000 		.4byte	.LASF263
 6704 205a 2C       		.byte	0x2c
 6705 205b A302     		.2byte	0x2a3
 6706 205d F5000000 		.4byte	0xf5
 6707 2061 18       		.byte	0x18
 6708 2062 0B       		.uleb128 0xb
 6709 2063 B8000000 		.4byte	.LASF388
 6710 2067 2C       		.byte	0x2c
 6711 2068 A702     		.2byte	0x2a7
 6712 206a B2160000 		.4byte	0x16b2
 6713 206e 1C       		.byte	0x1c
 6714 206f 0B       		.uleb128 0xb
 6715 2070 A3010000 		.4byte	.LASF389
 6716 2074 2C       		.byte	0x2c
 6717 2075 AB02     		.2byte	0x2ab
 6718 2077 B2160000 		.4byte	0x16b2
 6719 207b 20       		.byte	0x20
 6720 207c 0B       		.uleb128 0xb
 6721 207d 31090000 		.4byte	.LASF418
 6722 2081 2C       		.byte	0x2c
 6723 2082 AF02     		.2byte	0x2af
 6724 2084 E0000000 		.4byte	0xe0
ARM GAS  /tmp/ccQCTkSU.s 			page 119


 6725 2088 24       		.byte	0x24
 6726 2089 00       		.byte	0
 6727 208a 16       		.uleb128 0x16
 6728 208b 94130000 		.4byte	.LASF419
 6729 208f 2C       		.byte	0x2c
 6730 2090 3202     		.2byte	0x232
 6731 2092 96200000 		.4byte	0x2096
 6732 2096 0C       		.uleb128 0xc
 6733 2097 04       		.byte	0x4
 6734 2098 9C200000 		.4byte	0x209c
 6735 209c 0E       		.uleb128 0xe
 6736 209d A7200000 		.4byte	0x20a7
 6737 20a1 0F       		.uleb128 0xf
 6738 20a2 A7200000 		.4byte	0x20a7
 6739 20a6 00       		.byte	0
 6740 20a7 0C       		.uleb128 0xc
 6741 20a8 04       		.byte	0x4
 6742 20a9 D41F0000 		.4byte	0x1fd4
 6743 20ad 16       		.uleb128 0x16
 6744 20ae 240F0000 		.4byte	.LASF420
 6745 20b2 2C       		.byte	0x2c
 6746 20b3 3A02     		.2byte	0x23a
 6747 20b5 B9200000 		.4byte	0x20b9
 6748 20b9 0C       		.uleb128 0xc
 6749 20ba 04       		.byte	0x4
 6750 20bb BF200000 		.4byte	0x20bf
 6751 20bf 0E       		.uleb128 0xe
 6752 20c0 CF200000 		.4byte	0x20cf
 6753 20c4 0F       		.uleb128 0xf
 6754 20c5 A7200000 		.4byte	0x20a7
 6755 20c9 0F       		.uleb128 0xf
 6756 20ca D5000000 		.4byte	0xd5
 6757 20ce 00       		.byte	0
 6758 20cf 16       		.uleb128 0x16
 6759 20d0 76030000 		.4byte	.LASF421
 6760 20d4 2C       		.byte	0x2c
 6761 20d5 4202     		.2byte	0x242
 6762 20d7 DB200000 		.4byte	0x20db
 6763 20db 0C       		.uleb128 0xc
 6764 20dc 04       		.byte	0x4
 6765 20dd E1200000 		.4byte	0x20e1
 6766 20e1 0E       		.uleb128 0xe
 6767 20e2 F1200000 		.4byte	0x20f1
 6768 20e6 0F       		.uleb128 0xf
 6769 20e7 A7200000 		.4byte	0x20a7
 6770 20eb 0F       		.uleb128 0xf
 6771 20ec C81F0000 		.4byte	0x1fc8
 6772 20f0 00       		.byte	0
 6773 20f1 17       		.uleb128 0x17
 6774 20f2 20       		.byte	0x20
 6775 20f3 2C       		.byte	0x2c
 6776 20f4 4802     		.2byte	0x248
 6777 20f6 70210000 		.4byte	0x2170
 6778 20fa 0B       		.uleb128 0xb
 6779 20fb AE0E0000 		.4byte	.LASF422
 6780 20ff 2C       		.byte	0x2c
 6781 2100 4C02     		.2byte	0x24c
ARM GAS  /tmp/ccQCTkSU.s 			page 120


 6782 2102 8A200000 		.4byte	0x208a
 6783 2106 00       		.byte	0
 6784 2107 0B       		.uleb128 0xb
 6785 2108 FA160000 		.4byte	.LASF423
 6786 210c 2C       		.byte	0x2c
 6787 210d 5002     		.2byte	0x250
 6788 210f 8A200000 		.4byte	0x208a
 6789 2113 04       		.byte	0x4
 6790 2114 0B       		.uleb128 0xb
 6791 2115 DF150000 		.4byte	.LASF424
 6792 2119 2C       		.byte	0x2c
 6793 211a 5402     		.2byte	0x254
 6794 211c 8A200000 		.4byte	0x208a
 6795 2120 08       		.byte	0x8
 6796 2121 0B       		.uleb128 0xb
 6797 2122 E90E0000 		.4byte	.LASF425
 6798 2126 2C       		.byte	0x2c
 6799 2127 5802     		.2byte	0x258
 6800 2129 AD200000 		.4byte	0x20ad
 6801 212d 0C       		.byte	0xc
 6802 212e 0B       		.uleb128 0xb
 6803 212f 7D180000 		.4byte	.LASF426
 6804 2133 2C       		.byte	0x2c
 6805 2134 5C02     		.2byte	0x25c
 6806 2136 CF200000 		.4byte	0x20cf
 6807 213a 10       		.byte	0x10
 6808 213b 0B       		.uleb128 0xb
 6809 213c E6160000 		.4byte	.LASF427
 6810 2140 2C       		.byte	0x2c
 6811 2141 6102     		.2byte	0x261
 6812 2143 F5000000 		.4byte	0xf5
 6813 2147 14       		.byte	0x14
 6814 2148 0A       		.uleb128 0xa
 6815 2149 63723100 		.ascii	"cr1\000"
 6816 214d 2C       		.byte	0x2c
 6817 214e 6502     		.2byte	0x265
 6818 2150 D5000000 		.4byte	0xd5
 6819 2154 18       		.byte	0x18
 6820 2155 0A       		.uleb128 0xa
 6821 2156 63723200 		.ascii	"cr2\000"
 6822 215a 2C       		.byte	0x2c
 6823 215b 6902     		.2byte	0x269
 6824 215d D5000000 		.4byte	0xd5
 6825 2161 1A       		.byte	0x1a
 6826 2162 0A       		.uleb128 0xa
 6827 2163 63723300 		.ascii	"cr3\000"
 6828 2167 2C       		.byte	0x2c
 6829 2168 6D02     		.2byte	0x26d
 6830 216a D5000000 		.4byte	0xd5
 6831 216e 1C       		.byte	0x1c
 6832 216f 00       		.byte	0
 6833 2170 16       		.uleb128 0x16
 6834 2171 5F0E0000 		.4byte	.LASF428
 6835 2175 2C       		.byte	0x2c
 6836 2176 6E02     		.2byte	0x26e
 6837 2178 F1200000 		.4byte	0x20f1
 6838 217c 06       		.uleb128 0x6
ARM GAS  /tmp/ccQCTkSU.s 			page 121


 6839 217d 70210000 		.4byte	0x2170
 6840 2181 0C       		.uleb128 0xc
 6841 2182 04       		.byte	0x4
 6842 2183 7C210000 		.4byte	0x217c
 6843 2187 13       		.uleb128 0x13
 6844 2188 B80E0000 		.4byte	.LASF429
 6845 218c 2C       		.byte	0x2c
 6846 218d BB02     		.2byte	0x2bb
 6847 218f D41F0000 		.4byte	0x1fd4
 6848 2193 13       		.uleb128 0x13
 6849 2194 BF0E0000 		.4byte	.LASF430
 6850 2198 2C       		.byte	0x2c
 6851 2199 CF02     		.2byte	0x2cf
 6852 219b D41F0000 		.4byte	0x1fd4
 6853 219f 13       		.uleb128 0x13
 6854 21a0 3E1D0000 		.4byte	.LASF431
 6855 21a4 2C       		.byte	0x2c
 6856 21a5 D702     		.2byte	0x2d7
 6857 21a7 D41F0000 		.4byte	0x1fd4
 6858 21ab 16       		.uleb128 0x16
 6859 21ac 7F0D0000 		.4byte	.LASF432
 6860 21b0 2D       		.byte	0x2d
 6861 21b1 0301     		.2byte	0x103
 6862 21b3 B7210000 		.4byte	0x21b7
 6863 21b7 0D       		.uleb128 0xd
 6864 21b8 7F0D0000 		.4byte	.LASF432
 6865 21bc 60       		.byte	0x60
 6866 21bd 2E       		.byte	0x2e
 6867 21be A401     		.2byte	0x1a4
 6868 21c0 BC220000 		.4byte	0x22bc
 6869 21c4 0B       		.uleb128 0xb
 6870 21c5 BC100000 		.4byte	.LASF39
 6871 21c9 2E       		.byte	0x2e
 6872 21ca A801     		.2byte	0x1a8
 6873 21cc FB220000 		.4byte	0x22fb
 6874 21d0 00       		.byte	0
 6875 21d1 0B       		.uleb128 0xb
 6876 21d2 91150000 		.4byte	.LASF256
 6877 21d6 2E       		.byte	0x2e
 6878 21d7 AC01     		.2byte	0x1ac
 6879 21d9 752B0000 		.4byte	0x2b75
 6880 21dd 04       		.byte	0x4
 6881 21de 0B       		.uleb128 0xb
 6882 21df 46190000 		.4byte	.LASF433
 6883 21e3 2E       		.byte	0x2e
 6884 21e4 B001     		.2byte	0x1b0
 6885 21e6 D5000000 		.4byte	0xd5
 6886 21ea 08       		.byte	0x8
 6887 21eb 0B       		.uleb128 0xb
 6888 21ec 0D1C0000 		.4byte	.LASF434
 6889 21f0 2E       		.byte	0x2e
 6890 21f1 B401     		.2byte	0x1b4
 6891 21f3 D5000000 		.4byte	0xd5
 6892 21f7 0A       		.byte	0xa
 6893 21f8 0A       		.uleb128 0xa
 6894 21f9 65706300 		.ascii	"epc\000"
 6895 21fd 2E       		.byte	0x2e
ARM GAS  /tmp/ccQCTkSU.s 			page 122


 6896 21fe B801     		.2byte	0x1b8
 6897 2200 7B2B0000 		.4byte	0x2b7b
 6898 2204 0C       		.byte	0xc
 6899 2205 0B       		.uleb128 0xb
 6900 2206 EC010000 		.4byte	.LASF435
 6901 220a 2E       		.byte	0x2e
 6902 220b BF01     		.2byte	0x1bf
 6903 220d 912B0000 		.4byte	0x2b91
 6904 2211 1C       		.byte	0x1c
 6905 2212 0B       		.uleb128 0xb
 6906 2213 B4090000 		.4byte	.LASF436
 6907 2217 2E       		.byte	0x2e
 6908 2218 C601     		.2byte	0x1c6
 6909 221a 912B0000 		.4byte	0x2b91
 6910 221e 28       		.byte	0x28
 6911 221f 0B       		.uleb128 0xb
 6912 2220 1A0C0000 		.4byte	.LASF437
 6913 2224 2E       		.byte	0x2e
 6914 2225 CA01     		.2byte	0x1ca
 6915 2227 40230000 		.4byte	0x2340
 6916 222b 34       		.byte	0x34
 6917 222c 0B       		.uleb128 0xb
 6918 222d 07150000 		.4byte	.LASF438
 6919 2231 2E       		.byte	0x2e
 6920 2232 CE01     		.2byte	0x1ce
 6921 2234 8B0F0000 		.4byte	0xf8b
 6922 2238 38       		.byte	0x38
 6923 2239 0B       		.uleb128 0xb
 6924 223a EB110000 		.4byte	.LASF439
 6925 223e 2E       		.byte	0x2e
 6926 223f D201     		.2byte	0x1d2
 6927 2241 41000000 		.4byte	0x41
 6928 2245 3C       		.byte	0x3c
 6929 2246 0B       		.uleb128 0xb
 6930 2247 E6030000 		.4byte	.LASF440
 6931 224b 2E       		.byte	0x2e
 6932 224c D601     		.2byte	0x1d6
 6933 224e C6230000 		.4byte	0x23c6
 6934 2252 40       		.byte	0x40
 6935 2253 0B       		.uleb128 0xb
 6936 2254 72050000 		.4byte	.LASF441
 6937 2258 2E       		.byte	0x2e
 6938 2259 DA01     		.2byte	0x1da
 6939 225b A4170000 		.4byte	0x17a4
 6940 225f 44       		.byte	0x44
 6941 2260 0B       		.uleb128 0xb
 6942 2261 44100000 		.4byte	.LASF442
 6943 2265 2E       		.byte	0x2e
 6944 2266 DE01     		.2byte	0x1de
 6945 2268 D5000000 		.4byte	0xd5
 6946 226c 4C       		.byte	0x4c
 6947 226d 0B       		.uleb128 0xb
 6948 226e 77100000 		.4byte	.LASF443
 6949 2272 2E       		.byte	0x2e
 6950 2273 E201     		.2byte	0x1e2
 6951 2275 C5000000 		.4byte	0xc5
 6952 2279 4E       		.byte	0x4e
ARM GAS  /tmp/ccQCTkSU.s 			page 123


 6953 227a 0B       		.uleb128 0xb
 6954 227b 7A140000 		.4byte	.LASF444
 6955 227f 2E       		.byte	0x2e
 6956 2280 E601     		.2byte	0x1e6
 6957 2282 C5000000 		.4byte	0xc5
 6958 2286 4F       		.byte	0x4f
 6959 2287 0B       		.uleb128 0xb
 6960 2288 1D050000 		.4byte	.LASF445
 6961 228c 2E       		.byte	0x2e
 6962 228d EA01     		.2byte	0x1ea
 6963 228f FB220000 		.4byte	0x22fb
 6964 2293 50       		.byte	0x50
 6965 2294 0A       		.uleb128 0xa
 6966 2295 6F746700 		.ascii	"otg\000"
 6967 2299 2E       		.byte	0x2e
 6968 229a F201     		.2byte	0x1f2
 6969 229c A12B0000 		.4byte	0x2ba1
 6970 22a0 54       		.byte	0x54
 6971 22a1 0B       		.uleb128 0xb
 6972 22a2 F20A0000 		.4byte	.LASF446
 6973 22a6 2E       		.byte	0x2e
 6974 22a7 F601     		.2byte	0x1f6
 6975 22a9 A72B0000 		.4byte	0x2ba7
 6976 22ad 58       		.byte	0x58
 6977 22ae 0B       		.uleb128 0xb
 6978 22af 2E180000 		.4byte	.LASF447
 6979 22b3 2E       		.byte	0x2e
 6980 22b4 FA01     		.2byte	0x1fa
 6981 22b6 F5000000 		.4byte	0xf5
 6982 22ba 5C       		.byte	0x5c
 6983 22bb 00       		.byte	0
 6984 22bc 16       		.uleb128 0x16
 6985 22bd 38010000 		.4byte	.LASF448
 6986 22c1 2D       		.byte	0x2d
 6987 22c2 0801     		.2byte	0x108
 6988 22c4 C5000000 		.4byte	0xc5
 6989 22c8 23       		.uleb128 0x23
 6990 22c9 07       		.byte	0x7
 6991 22ca 01       		.byte	0x1
 6992 22cb 71000000 		.4byte	0x71
 6993 22cf 2D       		.byte	0x2d
 6994 22d0 0D01     		.2byte	0x10d
 6995 22d2 FB220000 		.4byte	0x22fb
 6996 22d6 22       		.uleb128 0x22
 6997 22d7 A31C0000 		.4byte	.LASF449
 6998 22db 00       		.byte	0
 6999 22dc 22       		.uleb128 0x22
 7000 22dd 66060000 		.4byte	.LASF450
 7001 22e1 01       		.byte	0x1
 7002 22e2 22       		.uleb128 0x22
 7003 22e3 0F0F0000 		.4byte	.LASF451
 7004 22e7 02       		.byte	0x2
 7005 22e8 22       		.uleb128 0x22
 7006 22e9 47130000 		.4byte	.LASF452
 7007 22ed 03       		.byte	0x3
 7008 22ee 22       		.uleb128 0x22
 7009 22ef 5B060000 		.4byte	.LASF453
ARM GAS  /tmp/ccQCTkSU.s 			page 124


 7010 22f3 04       		.byte	0x4
 7011 22f4 22       		.uleb128 0x22
 7012 22f5 FE190000 		.4byte	.LASF454
 7013 22f9 05       		.byte	0x5
 7014 22fa 00       		.byte	0
 7015 22fb 16       		.uleb128 0x16
 7016 22fc 8A1D0000 		.4byte	.LASF455
 7017 2300 2D       		.byte	0x2d
 7018 2301 1401     		.2byte	0x114
 7019 2303 C8220000 		.4byte	0x22c8
 7020 2307 23       		.uleb128 0x23
 7021 2308 07       		.byte	0x7
 7022 2309 01       		.byte	0x1
 7023 230a 71000000 		.4byte	0x71
 7024 230e 2D       		.byte	0x2d
 7025 230f 2201     		.2byte	0x122
 7026 2311 40230000 		.4byte	0x2340
 7027 2315 22       		.uleb128 0x22
 7028 2316 2B150000 		.4byte	.LASF456
 7029 231a 00       		.byte	0
 7030 231b 22       		.uleb128 0x22
 7031 231c A11A0000 		.4byte	.LASF457
 7032 2320 09       		.byte	0x9
 7033 2321 22       		.uleb128 0x22
 7034 2322 F6010000 		.4byte	.LASF458
 7035 2326 0A       		.byte	0xa
 7036 2327 22       		.uleb128 0x22
 7037 2328 AC160000 		.4byte	.LASF459
 7038 232c 0B       		.byte	0xb
 7039 232d 22       		.uleb128 0x22
 7040 232e 88140000 		.4byte	.LASF460
 7041 2332 14       		.byte	0x14
 7042 2333 22       		.uleb128 0x22
 7043 2334 B40B0000 		.4byte	.LASF461
 7044 2338 15       		.byte	0x15
 7045 2339 22       		.uleb128 0x22
 7046 233a A60B0000 		.4byte	.LASF462
 7047 233e 06       		.byte	0x6
 7048 233f 00       		.byte	0
 7049 2340 16       		.uleb128 0x16
 7050 2341 440D0000 		.4byte	.LASF463
 7051 2345 2D       		.byte	0x2d
 7052 2346 2A01     		.2byte	0x12a
 7053 2348 07230000 		.4byte	0x2307
 7054 234c 23       		.uleb128 0x23
 7055 234d 07       		.byte	0x7
 7056 234e 01       		.byte	0x1
 7057 234f 71000000 		.4byte	0x71
 7058 2353 2D       		.byte	0x2d
 7059 2354 2F01     		.2byte	0x12f
 7060 2356 85230000 		.4byte	0x2385
 7061 235a 22       		.uleb128 0x22
 7062 235b CF160000 		.4byte	.LASF464
 7063 235f 00       		.byte	0
 7064 2360 22       		.uleb128 0x22
 7065 2361 82130000 		.4byte	.LASF465
 7066 2365 01       		.byte	0x1
ARM GAS  /tmp/ccQCTkSU.s 			page 125


 7067 2366 22       		.uleb128 0x22
 7068 2367 890F0000 		.4byte	.LASF466
 7069 236b 02       		.byte	0x2
 7070 236c 22       		.uleb128 0x22
 7071 236d 66000000 		.4byte	.LASF467
 7072 2371 03       		.byte	0x3
 7073 2372 22       		.uleb128 0x22
 7074 2373 DA0F0000 		.4byte	.LASF468
 7075 2377 04       		.byte	0x4
 7076 2378 22       		.uleb128 0x22
 7077 2379 BE1B0000 		.4byte	.LASF469
 7078 237d 05       		.byte	0x5
 7079 237e 22       		.uleb128 0x22
 7080 237f 530F0000 		.4byte	.LASF470
 7081 2383 06       		.byte	0x6
 7082 2384 00       		.byte	0
 7083 2385 16       		.uleb128 0x16
 7084 2386 B8130000 		.4byte	.LASF471
 7085 238a 2D       		.byte	0x2d
 7086 238b 3701     		.2byte	0x137
 7087 238d 4C230000 		.4byte	0x234c
 7088 2391 17       		.uleb128 0x17
 7089 2392 08       		.byte	0x8
 7090 2393 2D       		.byte	0x2d
 7091 2394 3C01     		.2byte	0x13c
 7092 2396 B5230000 		.4byte	0x23b5
 7093 239a 0B       		.uleb128 0xb
 7094 239b 2D1D0000 		.4byte	.LASF472
 7095 239f 2D       		.byte	0x2d
 7096 23a0 4001     		.2byte	0x140
 7097 23a2 41000000 		.4byte	0x41
 7098 23a6 00       		.byte	0
 7099 23a7 0B       		.uleb128 0xb
 7100 23a8 BF030000 		.4byte	.LASF473
 7101 23ac 2D       		.byte	0x2d
 7102 23ad 4401     		.2byte	0x144
 7103 23af 1E120000 		.4byte	0x121e
 7104 23b3 04       		.byte	0x4
 7105 23b4 00       		.byte	0
 7106 23b5 16       		.uleb128 0x16
 7107 23b6 DF130000 		.4byte	.LASF474
 7108 23ba 2D       		.byte	0x2d
 7109 23bb 4501     		.2byte	0x145
 7110 23bd 91230000 		.4byte	0x2391
 7111 23c1 06       		.uleb128 0x6
 7112 23c2 B5230000 		.4byte	0x23b5
 7113 23c6 16       		.uleb128 0x16
 7114 23c7 D31C0000 		.4byte	.LASF475
 7115 23cb 2D       		.byte	0x2d
 7116 23cc 4D01     		.2byte	0x14d
 7117 23ce D2230000 		.4byte	0x23d2
 7118 23d2 0C       		.uleb128 0xc
 7119 23d3 04       		.byte	0x4
 7120 23d4 D8230000 		.4byte	0x23d8
 7121 23d8 0E       		.uleb128 0xe
 7122 23d9 E3230000 		.4byte	0x23e3
 7123 23dd 0F       		.uleb128 0xf
ARM GAS  /tmp/ccQCTkSU.s 			page 126


 7124 23de E3230000 		.4byte	0x23e3
 7125 23e2 00       		.byte	0
 7126 23e3 0C       		.uleb128 0xc
 7127 23e4 04       		.byte	0x4
 7128 23e5 AB210000 		.4byte	0x21ab
 7129 23e9 16       		.uleb128 0x16
 7130 23ea 08040000 		.4byte	.LASF476
 7131 23ee 2D       		.byte	0x2d
 7132 23ef 5601     		.2byte	0x156
 7133 23f1 F5230000 		.4byte	0x23f5
 7134 23f5 0C       		.uleb128 0xc
 7135 23f6 04       		.byte	0x4
 7136 23f7 FB230000 		.4byte	0x23fb
 7137 23fb 0E       		.uleb128 0xe
 7138 23fc 0B240000 		.4byte	0x240b
 7139 2400 0F       		.uleb128 0xf
 7140 2401 E3230000 		.4byte	0x23e3
 7141 2405 0F       		.uleb128 0xf
 7142 2406 BC220000 		.4byte	0x22bc
 7143 240a 00       		.byte	0
 7144 240b 16       		.uleb128 0x16
 7145 240c D0080000 		.4byte	.LASF477
 7146 2410 2D       		.byte	0x2d
 7147 2411 5F01     		.2byte	0x15f
 7148 2413 17240000 		.4byte	0x2417
 7149 2417 0C       		.uleb128 0xc
 7150 2418 04       		.byte	0x4
 7151 2419 1D240000 		.4byte	0x241d
 7152 241d 0E       		.uleb128 0xe
 7153 241e 2D240000 		.4byte	0x242d
 7154 2422 0F       		.uleb128 0xf
 7155 2423 E3230000 		.4byte	0x23e3
 7156 2427 0F       		.uleb128 0xf
 7157 2428 85230000 		.4byte	0x2385
 7158 242c 00       		.byte	0
 7159 242d 16       		.uleb128 0x16
 7160 242e F3120000 		.4byte	.LASF478
 7161 2432 2D       		.byte	0x2d
 7162 2433 6B01     		.2byte	0x16b
 7163 2435 39240000 		.4byte	0x2439
 7164 2439 0C       		.uleb128 0xc
 7165 243a 04       		.byte	0x4
 7166 243b 3F240000 		.4byte	0x243f
 7167 243f 20       		.uleb128 0x20
 7168 2440 3E0F0000 		.4byte	0xf3e
 7169 2444 4E240000 		.4byte	0x244e
 7170 2448 0F       		.uleb128 0xf
 7171 2449 E3230000 		.4byte	0x23e3
 7172 244d 00       		.byte	0
 7173 244e 16       		.uleb128 0x16
 7174 244f 000C0000 		.4byte	.LASF479
 7175 2453 2D       		.byte	0x2d
 7176 2454 7001     		.2byte	0x170
 7177 2456 5A240000 		.4byte	0x245a
 7178 245a 0C       		.uleb128 0xc
 7179 245b 04       		.byte	0x4
 7180 245c 60240000 		.4byte	0x2460
ARM GAS  /tmp/ccQCTkSU.s 			page 127


 7181 2460 20       		.uleb128 0x20
 7182 2461 7E240000 		.4byte	0x247e
 7183 2465 7E240000 		.4byte	0x247e
 7184 2469 0F       		.uleb128 0xf
 7185 246a E3230000 		.4byte	0x23e3
 7186 246e 0F       		.uleb128 0xf
 7187 246f C5000000 		.4byte	0xc5
 7188 2473 0F       		.uleb128 0xf
 7189 2474 C5000000 		.4byte	0xc5
 7190 2478 0F       		.uleb128 0xf
 7191 2479 D5000000 		.4byte	0xd5
 7192 247d 00       		.byte	0
 7193 247e 0C       		.uleb128 0xc
 7194 247f 04       		.byte	0x4
 7195 2480 C1230000 		.4byte	0x23c1
 7196 2484 15       		.uleb128 0x15
 7197 2485 20       		.byte	0x20
 7198 2486 2F       		.byte	0x2f
 7199 2487 29       		.byte	0x29
 7200 2488 ED240000 		.4byte	0x24ed
 7201 248c 08       		.uleb128 0x8
 7202 248d D5020000 		.4byte	.LASF480
 7203 2491 2F       		.byte	0x2f
 7204 2492 2A       		.byte	0x2a
 7205 2493 00010000 		.4byte	0x100
 7206 2497 00       		.byte	0
 7207 2498 08       		.uleb128 0x8
 7208 2499 6B0A0000 		.4byte	.LASF481
 7209 249d 2F       		.byte	0x2f
 7210 249e 2C       		.byte	0x2c
 7211 249f 00010000 		.4byte	0x100
 7212 24a3 04       		.byte	0x4
 7213 24a4 08       		.uleb128 0x8
 7214 24a5 46020000 		.4byte	.LASF482
 7215 24a9 2F       		.byte	0x2f
 7216 24aa 2D       		.byte	0x2d
 7217 24ab 00010000 		.4byte	0x100
 7218 24af 08       		.byte	0x8
 7219 24b0 08       		.uleb128 0x8
 7220 24b1 7B150000 		.4byte	.LASF483
 7221 24b5 2F       		.byte	0x2f
 7222 24b6 2E       		.byte	0x2e
 7223 24b7 00010000 		.4byte	0x100
 7224 24bb 0C       		.byte	0xc
 7225 24bc 08       		.uleb128 0x8
 7226 24bd 820F0000 		.4byte	.LASF484
 7227 24c1 2F       		.byte	0x2f
 7228 24c2 30       		.byte	0x30
 7229 24c3 00010000 		.4byte	0x100
 7230 24c7 10       		.byte	0x10
 7231 24c8 08       		.uleb128 0x8
 7232 24c9 A30A0000 		.4byte	.LASF485
 7233 24cd 2F       		.byte	0x2f
 7234 24ce 32       		.byte	0x32
 7235 24cf 00010000 		.4byte	0x100
 7236 24d3 14       		.byte	0x14
 7237 24d4 08       		.uleb128 0x8
ARM GAS  /tmp/ccQCTkSU.s 			page 128


 7238 24d5 AB0A0000 		.4byte	.LASF486
 7239 24d9 2F       		.byte	0x2f
 7240 24da 33       		.byte	0x33
 7241 24db 00010000 		.4byte	0x100
 7242 24df 18       		.byte	0x18
 7243 24e0 08       		.uleb128 0x8
 7244 24e1 4F030000 		.4byte	.LASF487
 7245 24e5 2F       		.byte	0x2f
 7246 24e6 34       		.byte	0x34
 7247 24e7 00010000 		.4byte	0x100
 7248 24eb 1C       		.byte	0x1c
 7249 24ec 00       		.byte	0
 7250 24ed 04       		.uleb128 0x4
 7251 24ee 16150000 		.4byte	.LASF488
 7252 24f2 2F       		.byte	0x2f
 7253 24f3 35       		.byte	0x35
 7254 24f4 84240000 		.4byte	0x2484
 7255 24f8 15       		.uleb128 0x15
 7256 24f9 20       		.byte	0x20
 7257 24fa 2F       		.byte	0x2f
 7258 24fb 3A       		.byte	0x3a
 7259 24fc 61250000 		.4byte	0x2561
 7260 2500 08       		.uleb128 0x8
 7261 2501 EA0A0000 		.4byte	.LASF489
 7262 2505 2F       		.byte	0x2f
 7263 2506 3B       		.byte	0x3b
 7264 2507 00010000 		.4byte	0x100
 7265 250b 00       		.byte	0
 7266 250c 08       		.uleb128 0x8
 7267 250d 5C0A0000 		.4byte	.LASF490
 7268 2511 2F       		.byte	0x2f
 7269 2512 3D       		.byte	0x3d
 7270 2513 00010000 		.4byte	0x100
 7271 2517 04       		.byte	0x4
 7272 2518 08       		.uleb128 0x8
 7273 2519 9A180000 		.4byte	.LASF491
 7274 251d 2F       		.byte	0x2f
 7275 251e 3E       		.byte	0x3e
 7276 251f 00010000 		.4byte	0x100
 7277 2523 08       		.byte	0x8
 7278 2524 08       		.uleb128 0x8
 7279 2525 9C0D0000 		.4byte	.LASF492
 7280 2529 2F       		.byte	0x2f
 7281 252a 40       		.byte	0x40
 7282 252b 00010000 		.4byte	0x100
 7283 252f 0C       		.byte	0xc
 7284 2530 08       		.uleb128 0x8
 7285 2531 69110000 		.4byte	.LASF493
 7286 2535 2F       		.byte	0x2f
 7287 2536 41       		.byte	0x41
 7288 2537 00010000 		.4byte	0x100
 7289 253b 10       		.byte	0x10
 7290 253c 08       		.uleb128 0x8
 7291 253d A30A0000 		.4byte	.LASF485
 7292 2541 2F       		.byte	0x2f
 7293 2542 43       		.byte	0x43
 7294 2543 00010000 		.4byte	0x100
ARM GAS  /tmp/ccQCTkSU.s 			page 129


 7295 2547 14       		.byte	0x14
 7296 2548 08       		.uleb128 0x8
 7297 2549 EB140000 		.4byte	.LASF494
 7298 254d 2F       		.byte	0x2f
 7299 254e 44       		.byte	0x44
 7300 254f 00010000 		.4byte	0x100
 7301 2553 18       		.byte	0x18
 7302 2554 08       		.uleb128 0x8
 7303 2555 B30A0000 		.4byte	.LASF495
 7304 2559 2F       		.byte	0x2f
 7305 255a 46       		.byte	0x46
 7306 255b 00010000 		.4byte	0x100
 7307 255f 1C       		.byte	0x1c
 7308 2560 00       		.byte	0
 7309 2561 04       		.uleb128 0x4
 7310 2562 7C060000 		.4byte	.LASF496
 7311 2566 2F       		.byte	0x2f
 7312 2567 47       		.byte	0x47
 7313 2568 F8240000 		.4byte	0x24f8
 7314 256c 15       		.uleb128 0x15
 7315 256d 20       		.byte	0x20
 7316 256e 2F       		.byte	0x2f
 7317 256f 4C       		.byte	0x4c
 7318 2570 D5250000 		.4byte	0x25d5
 7319 2574 08       		.uleb128 0x8
 7320 2575 18040000 		.4byte	.LASF497
 7321 2579 2F       		.byte	0x2f
 7322 257a 4D       		.byte	0x4d
 7323 257b 00010000 		.4byte	0x100
 7324 257f 00       		.byte	0
 7325 2580 08       		.uleb128 0x8
 7326 2581 5C0A0000 		.4byte	.LASF490
 7327 2585 2F       		.byte	0x2f
 7328 2586 4F       		.byte	0x4f
 7329 2587 00010000 		.4byte	0x100
 7330 258b 04       		.byte	0x4
 7331 258c 08       		.uleb128 0x8
 7332 258d C4120000 		.4byte	.LASF498
 7333 2591 2F       		.byte	0x2f
 7334 2592 50       		.byte	0x50
 7335 2593 00010000 		.4byte	0x100
 7336 2597 08       		.byte	0x8
 7337 2598 08       		.uleb128 0x8
 7338 2599 9C0D0000 		.4byte	.LASF492
 7339 259d 2F       		.byte	0x2f
 7340 259e 52       		.byte	0x52
 7341 259f 00010000 		.4byte	0x100
 7342 25a3 0C       		.byte	0xc
 7343 25a4 08       		.uleb128 0x8
 7344 25a5 88190000 		.4byte	.LASF499
 7345 25a9 2F       		.byte	0x2f
 7346 25aa 53       		.byte	0x53
 7347 25ab 00010000 		.4byte	0x100
 7348 25af 10       		.byte	0x10
 7349 25b0 08       		.uleb128 0x8
 7350 25b1 A30A0000 		.4byte	.LASF485
 7351 25b5 2F       		.byte	0x2f
ARM GAS  /tmp/ccQCTkSU.s 			page 130


 7352 25b6 55       		.byte	0x55
 7353 25b7 00010000 		.4byte	0x100
 7354 25bb 14       		.byte	0x14
 7355 25bc 08       		.uleb128 0x8
 7356 25bd AB0A0000 		.4byte	.LASF486
 7357 25c1 2F       		.byte	0x2f
 7358 25c2 56       		.byte	0x56
 7359 25c3 00010000 		.4byte	0x100
 7360 25c7 18       		.byte	0x18
 7361 25c8 08       		.uleb128 0x8
 7362 25c9 B30A0000 		.4byte	.LASF495
 7363 25cd 2F       		.byte	0x2f
 7364 25ce 57       		.byte	0x57
 7365 25cf 00010000 		.4byte	0x100
 7366 25d3 1C       		.byte	0x1c
 7367 25d4 00       		.byte	0
 7368 25d5 04       		.uleb128 0x4
 7369 25d6 20060000 		.4byte	.LASF500
 7370 25da 2F       		.byte	0x2f
 7371 25db 58       		.byte	0x58
 7372 25dc 6C250000 		.4byte	0x256c
 7373 25e0 25       		.uleb128 0x25
 7374 25e1 00100100 		.4byte	0x11000
 7375 25e5 2F       		.byte	0x2f
 7376 25e6 5D       		.byte	0x5d
 7377 25e7 BD280000 		.4byte	0x28bd
 7378 25eb 08       		.uleb128 0x8
 7379 25ec 00040000 		.4byte	.LASF501
 7380 25f0 2F       		.byte	0x2f
 7381 25f1 5E       		.byte	0x5e
 7382 25f2 00010000 		.4byte	0x100
 7383 25f6 00       		.byte	0
 7384 25f7 08       		.uleb128 0x8
 7385 25f8 9E120000 		.4byte	.LASF502
 7386 25fc 2F       		.byte	0x2f
 7387 25fd 5F       		.byte	0x5f
 7388 25fe 00010000 		.4byte	0x100
 7389 2602 04       		.byte	0x4
 7390 2603 08       		.uleb128 0x8
 7391 2604 FE050000 		.4byte	.LASF503
 7392 2608 2F       		.byte	0x2f
 7393 2609 60       		.byte	0x60
 7394 260a 00010000 		.4byte	0x100
 7395 260e 08       		.byte	0x8
 7396 260f 08       		.uleb128 0x8
 7397 2610 F51C0000 		.4byte	.LASF504
 7398 2614 2F       		.byte	0x2f
 7399 2615 61       		.byte	0x61
 7400 2616 00010000 		.4byte	0x100
 7401 261a 0C       		.byte	0xc
 7402 261b 08       		.uleb128 0x8
 7403 261c 0C1A0000 		.4byte	.LASF505
 7404 2620 2F       		.byte	0x2f
 7405 2621 62       		.byte	0x62
 7406 2622 00010000 		.4byte	0x100
 7407 2626 10       		.byte	0x10
 7408 2627 08       		.uleb128 0x8
ARM GAS  /tmp/ccQCTkSU.s 			page 131


 7409 2628 37090000 		.4byte	.LASF506
 7410 262c 2F       		.byte	0x2f
 7411 262d 63       		.byte	0x63
 7412 262e 00010000 		.4byte	0x100
 7413 2632 14       		.byte	0x14
 7414 2633 08       		.uleb128 0x8
 7415 2634 5B140000 		.4byte	.LASF507
 7416 2638 2F       		.byte	0x2f
 7417 2639 64       		.byte	0x64
 7418 263a 00010000 		.4byte	0x100
 7419 263e 18       		.byte	0x18
 7420 263f 08       		.uleb128 0x8
 7421 2640 3B060000 		.4byte	.LASF508
 7422 2644 2F       		.byte	0x2f
 7423 2645 65       		.byte	0x65
 7424 2646 00010000 		.4byte	0x100
 7425 264a 1C       		.byte	0x1c
 7426 264b 08       		.uleb128 0x8
 7427 264c 33060000 		.4byte	.LASF509
 7428 2650 2F       		.byte	0x2f
 7429 2651 67       		.byte	0x67
 7430 2652 00010000 		.4byte	0x100
 7431 2656 20       		.byte	0x20
 7432 2657 08       		.uleb128 0x8
 7433 2658 0C140000 		.4byte	.LASF510
 7434 265c 2F       		.byte	0x2f
 7435 265d 69       		.byte	0x69
 7436 265e 00010000 		.4byte	0x100
 7437 2662 24       		.byte	0x24
 7438 2663 08       		.uleb128 0x8
 7439 2664 7D000000 		.4byte	.LASF511
 7440 2668 2F       		.byte	0x2f
 7441 2669 6A       		.byte	0x6a
 7442 266a 00010000 		.4byte	0x100
 7443 266e 28       		.byte	0x28
 7444 266f 08       		.uleb128 0x8
 7445 2670 71140000 		.4byte	.LASF512
 7446 2674 2F       		.byte	0x2f
 7447 2675 6C       		.byte	0x6c
 7448 2676 00010000 		.4byte	0x100
 7449 267a 2C       		.byte	0x2c
 7450 267b 08       		.uleb128 0x8
 7451 267c 610B0000 		.4byte	.LASF513
 7452 2680 2F       		.byte	0x2f
 7453 2681 6E       		.byte	0x6e
 7454 2682 00010000 		.4byte	0x100
 7455 2686 30       		.byte	0x30
 7456 2687 08       		.uleb128 0x8
 7457 2688 700B0000 		.4byte	.LASF514
 7458 268c 2F       		.byte	0x2f
 7459 268d 6F       		.byte	0x6f
 7460 268e 00010000 		.4byte	0x100
 7461 2692 34       		.byte	0x34
 7462 2693 08       		.uleb128 0x8
 7463 2694 85010000 		.4byte	.LASF515
 7464 2698 2F       		.byte	0x2f
 7465 2699 70       		.byte	0x70
ARM GAS  /tmp/ccQCTkSU.s 			page 132


 7466 269a 00010000 		.4byte	0x100
 7467 269e 38       		.byte	0x38
 7468 269f 09       		.uleb128 0x9
 7469 26a0 43494400 		.ascii	"CID\000"
 7470 26a4 2F       		.byte	0x2f
 7471 26a5 71       		.byte	0x71
 7472 26a6 00010000 		.4byte	0x100
 7473 26aa 3C       		.byte	0x3c
 7474 26ab 08       		.uleb128 0x8
 7475 26ac F2060000 		.4byte	.LASF516
 7476 26b0 2F       		.byte	0x2f
 7477 26b1 72       		.byte	0x72
 7478 26b2 CD280000 		.4byte	0x28cd
 7479 26b6 40       		.byte	0x40
 7480 26b7 26       		.uleb128 0x26
 7481 26b8 4A1A0000 		.4byte	.LASF517
 7482 26bc 2F       		.byte	0x2f
 7483 26bd 73       		.byte	0x73
 7484 26be 00010000 		.4byte	0x100
 7485 26c2 0001     		.2byte	0x100
 7486 26c4 26       		.uleb128 0x26
 7487 26c5 E4010000 		.4byte	.LASF518
 7488 26c9 2F       		.byte	0x2f
 7489 26ca 75       		.byte	0x75
 7490 26cb D7090000 		.4byte	0x9d7
 7491 26cf 0401     		.2byte	0x104
 7492 26d1 26       		.uleb128 0x26
 7493 26d2 C50F0000 		.4byte	.LASF519
 7494 26d6 2F       		.byte	0x2f
 7495 26d7 77       		.byte	0x77
 7496 26d8 E2280000 		.4byte	0x28e2
 7497 26dc 4001     		.2byte	0x140
 7498 26de 26       		.uleb128 0x26
 7499 26df 0D120000 		.4byte	.LASF520
 7500 26e3 2F       		.byte	0x2f
 7501 26e4 78       		.byte	0x78
 7502 26e5 00010000 		.4byte	0x100
 7503 26e9 0004     		.2byte	0x400
 7504 26eb 26       		.uleb128 0x26
 7505 26ec 9E1C0000 		.4byte	.LASF521
 7506 26f0 2F       		.byte	0x2f
 7507 26f1 79       		.byte	0x79
 7508 26f2 00010000 		.4byte	0x100
 7509 26f6 0404     		.2byte	0x404
 7510 26f8 26       		.uleb128 0x26
 7511 26f9 80030000 		.4byte	.LASF522
 7512 26fd 2F       		.byte	0x2f
 7513 26fe 7A       		.byte	0x7a
 7514 26ff 00010000 		.4byte	0x100
 7515 2703 0804     		.2byte	0x408
 7516 2705 26       		.uleb128 0x26
 7517 2706 E1090000 		.4byte	.LASF523
 7518 270a 2F       		.byte	0x2f
 7519 270b 7C       		.byte	0x7c
 7520 270c 00010000 		.4byte	0x100
 7521 2710 0C04     		.2byte	0x40c
 7522 2712 26       		.uleb128 0x26
ARM GAS  /tmp/ccQCTkSU.s 			page 133


 7523 2713 A5020000 		.4byte	.LASF524
 7524 2717 2F       		.byte	0x2f
 7525 2718 7D       		.byte	0x7d
 7526 2719 00010000 		.4byte	0x100
 7527 271d 1004     		.2byte	0x410
 7528 271f 26       		.uleb128 0x26
 7529 2720 62030000 		.4byte	.LASF525
 7530 2724 2F       		.byte	0x2f
 7531 2725 7F       		.byte	0x7f
 7532 2726 00010000 		.4byte	0x100
 7533 272a 1404     		.2byte	0x414
 7534 272c 26       		.uleb128 0x26
 7535 272d AB090000 		.4byte	.LASF526
 7536 2731 2F       		.byte	0x2f
 7537 2732 81       		.byte	0x81
 7538 2733 00010000 		.4byte	0x100
 7539 2737 1804     		.2byte	0x418
 7540 2739 26       		.uleb128 0x26
 7541 273a 7D160000 		.4byte	.LASF527
 7542 273e 2F       		.byte	0x2f
 7543 273f 83       		.byte	0x83
 7544 2740 F7280000 		.4byte	0x28f7
 7545 2744 1C04     		.2byte	0x41c
 7546 2746 26       		.uleb128 0x26
 7547 2747 41020000 		.4byte	.LASF528
 7548 274b 2F       		.byte	0x2f
 7549 274c 84       		.byte	0x84
 7550 274d 00010000 		.4byte	0x100
 7551 2751 4004     		.2byte	0x440
 7552 2753 26       		.uleb128 0x26
 7553 2754 DD170000 		.4byte	.LASF529
 7554 2758 2F       		.byte	0x2f
 7555 2759 86       		.byte	0x86
 7556 275a 0C290000 		.4byte	0x290c
 7557 275e 4404     		.2byte	0x444
 7558 2760 27       		.uleb128 0x27
 7559 2761 686300   		.ascii	"hc\000"
 7560 2764 2F       		.byte	0x2f
 7561 2765 87       		.byte	0x87
 7562 2766 11290000 		.4byte	0x2911
 7563 276a 0005     		.2byte	0x500
 7564 276c 26       		.uleb128 0x26
 7565 276d 241A0000 		.4byte	.LASF530
 7566 2771 2F       		.byte	0x2f
 7567 2772 88       		.byte	0x88
 7568 2773 31290000 		.4byte	0x2931
 7569 2777 0007     		.2byte	0x700
 7570 2779 26       		.uleb128 0x26
 7571 277a C5150000 		.4byte	.LASF531
 7572 277e 2F       		.byte	0x2f
 7573 277f 89       		.byte	0x89
 7574 2780 00010000 		.4byte	0x100
 7575 2784 0008     		.2byte	0x800
 7576 2786 26       		.uleb128 0x26
 7577 2787 AB1B0000 		.4byte	.LASF532
 7578 278b 2F       		.byte	0x2f
 7579 278c 8A       		.byte	0x8a
ARM GAS  /tmp/ccQCTkSU.s 			page 134


 7580 278d 00010000 		.4byte	0x100
 7581 2791 0408     		.2byte	0x804
 7582 2793 26       		.uleb128 0x26
 7583 2794 8D040000 		.4byte	.LASF533
 7584 2798 2F       		.byte	0x2f
 7585 2799 8B       		.byte	0x8b
 7586 279a 00010000 		.4byte	0x100
 7587 279e 0808     		.2byte	0x808
 7588 27a0 26       		.uleb128 0x26
 7589 27a1 EF030000 		.4byte	.LASF534
 7590 27a5 2F       		.byte	0x2f
 7591 27a6 8C       		.byte	0x8c
 7592 27a7 00010000 		.4byte	0x100
 7593 27ab 0C08     		.2byte	0x80c
 7594 27ad 26       		.uleb128 0x26
 7595 27ae 87090000 		.4byte	.LASF535
 7596 27b2 2F       		.byte	0x2f
 7597 27b3 8D       		.byte	0x8d
 7598 27b4 00010000 		.4byte	0x100
 7599 27b8 1008     		.2byte	0x810
 7600 27ba 26       		.uleb128 0x26
 7601 27bb BC020000 		.4byte	.LASF536
 7602 27bf 2F       		.byte	0x2f
 7603 27c0 8F       		.byte	0x8f
 7604 27c1 00010000 		.4byte	0x100
 7605 27c5 1408     		.2byte	0x814
 7606 27c7 26       		.uleb128 0x26
 7607 27c8 0C190000 		.4byte	.LASF537
 7608 27cc 2F       		.byte	0x2f
 7609 27cd 91       		.byte	0x91
 7610 27ce 00010000 		.4byte	0x100
 7611 27d2 1808     		.2byte	0x818
 7612 27d4 26       		.uleb128 0x26
 7613 27d5 39170000 		.4byte	.LASF538
 7614 27d9 2F       		.byte	0x2f
 7615 27da 93       		.byte	0x93
 7616 27db 00010000 		.4byte	0x100
 7617 27df 1C08     		.2byte	0x81c
 7618 27e1 26       		.uleb128 0x26
 7619 27e2 C9040000 		.4byte	.LASF539
 7620 27e6 2F       		.byte	0x2f
 7621 27e7 95       		.byte	0x95
 7622 27e8 00010000 		.4byte	0x100
 7623 27ec 2008     		.2byte	0x820
 7624 27ee 26       		.uleb128 0x26
 7625 27ef D2040000 		.4byte	.LASF540
 7626 27f3 2F       		.byte	0x2f
 7627 27f4 96       		.byte	0x96
 7628 27f5 00010000 		.4byte	0x100
 7629 27f9 2408     		.2byte	0x824
 7630 27fb 26       		.uleb128 0x26
 7631 27fc 05010000 		.4byte	.LASF541
 7632 2800 2F       		.byte	0x2f
 7633 2801 97       		.byte	0x97
 7634 2802 00010000 		.4byte	0x100
 7635 2806 2808     		.2byte	0x828
 7636 2808 26       		.uleb128 0x26
ARM GAS  /tmp/ccQCTkSU.s 			page 135


 7637 2809 67050000 		.4byte	.LASF542
 7638 280d 2F       		.byte	0x2f
 7639 280e 99       		.byte	0x99
 7640 280f 00010000 		.4byte	0x100
 7641 2813 2C08     		.2byte	0x82c
 7642 2815 26       		.uleb128 0x26
 7643 2816 29050000 		.4byte	.LASF543
 7644 281a 2F       		.byte	0x2f
 7645 281b 9B       		.byte	0x9b
 7646 281c 00010000 		.4byte	0x100
 7647 2820 3008     		.2byte	0x830
 7648 2822 26       		.uleb128 0x26
 7649 2823 DF0A0000 		.4byte	.LASF544
 7650 2827 2F       		.byte	0x2f
 7651 2828 9C       		.byte	0x9c
 7652 2829 00010000 		.4byte	0x100
 7653 282d 3408     		.2byte	0x834
 7654 282f 26       		.uleb128 0x26
 7655 2830 48050000 		.4byte	.LASF545
 7656 2834 2F       		.byte	0x2f
 7657 2835 9E       		.byte	0x9e
 7658 2836 00010000 		.4byte	0x100
 7659 283a 3808     		.2byte	0x838
 7660 283c 26       		.uleb128 0x26
 7661 283d CF050000 		.4byte	.LASF546
 7662 2841 2F       		.byte	0x2f
 7663 2842 9F       		.byte	0x9f
 7664 2843 00010000 		.4byte	0x100
 7665 2847 3C08     		.2byte	0x83c
 7666 2849 26       		.uleb128 0x26
 7667 284a 06060000 		.4byte	.LASF547
 7668 284e 2F       		.byte	0x2f
 7669 284f A0       		.byte	0xa0
 7670 2850 46290000 		.4byte	0x2946
 7671 2854 4008     		.2byte	0x840
 7672 2856 26       		.uleb128 0x26
 7673 2857 5B080000 		.4byte	.LASF548
 7674 285b 2F       		.byte	0x2f
 7675 285c A1       		.byte	0xa1
 7676 285d 46290000 		.4byte	0x2946
 7677 2861 8008     		.2byte	0x880
 7678 2863 26       		.uleb128 0x26
 7679 2864 890D0000 		.4byte	.LASF549
 7680 2868 2F       		.byte	0x2f
 7681 2869 A2       		.byte	0xa2
 7682 286a 46290000 		.4byte	0x2946
 7683 286e C008     		.2byte	0x8c0
 7684 2870 27       		.uleb128 0x27
 7685 2871 696500   		.ascii	"ie\000"
 7686 2874 2F       		.byte	0x2f
 7687 2875 A3       		.byte	0xa3
 7688 2876 4B290000 		.4byte	0x294b
 7689 287a 0009     		.2byte	0x900
 7690 287c 27       		.uleb128 0x27
 7691 287d 6F6500   		.ascii	"oe\000"
 7692 2880 2F       		.byte	0x2f
 7693 2881 A4       		.byte	0xa4
ARM GAS  /tmp/ccQCTkSU.s 			page 136


 7694 2882 5B290000 		.4byte	0x295b
 7695 2886 000B     		.2byte	0xb00
 7696 2888 26       		.uleb128 0x26
 7697 2889 710C0000 		.4byte	.LASF550
 7698 288d 2F       		.byte	0x2f
 7699 288e A5       		.byte	0xa5
 7700 288f 31290000 		.4byte	0x2931
 7701 2893 000D     		.2byte	0xd00
 7702 2895 26       		.uleb128 0x26
 7703 2896 B61B0000 		.4byte	.LASF551
 7704 289a 2F       		.byte	0x2f
 7705 289b A6       		.byte	0xa6
 7706 289c 00010000 		.4byte	0x100
 7707 28a0 000E     		.2byte	0xe00
 7708 28a2 26       		.uleb128 0x26
 7709 28a3 F0110000 		.4byte	.LASF552
 7710 28a7 2F       		.byte	0x2f
 7711 28a8 A8       		.byte	0xa8
 7712 28a9 7B290000 		.4byte	0x297b
 7713 28ad 040E     		.2byte	0xe04
 7714 28af 26       		.uleb128 0x26
 7715 28b0 AF1A0000 		.4byte	.LASF553
 7716 28b4 2F       		.byte	0x2f
 7717 28b5 A9       		.byte	0xa9
 7718 28b6 97290000 		.4byte	0x2997
 7719 28ba 0010     		.2byte	0x1000
 7720 28bc 00       		.byte	0
 7721 28bd 11       		.uleb128 0x11
 7722 28be 00010000 		.4byte	0x100
 7723 28c2 CD280000 		.4byte	0x28cd
 7724 28c6 12       		.uleb128 0x12
 7725 28c7 2C000000 		.4byte	0x2c
 7726 28cb 2F       		.byte	0x2f
 7727 28cc 00       		.byte	0
 7728 28cd 05       		.uleb128 0x5
 7729 28ce BD280000 		.4byte	0x28bd
 7730 28d2 11       		.uleb128 0x11
 7731 28d3 00010000 		.4byte	0x100
 7732 28d7 E2280000 		.4byte	0x28e2
 7733 28db 12       		.uleb128 0x12
 7734 28dc 2C000000 		.4byte	0x2c
 7735 28e0 AF       		.byte	0xaf
 7736 28e1 00       		.byte	0
 7737 28e2 05       		.uleb128 0x5
 7738 28e3 D2280000 		.4byte	0x28d2
 7739 28e7 11       		.uleb128 0x11
 7740 28e8 00010000 		.4byte	0x100
 7741 28ec F7280000 		.4byte	0x28f7
 7742 28f0 12       		.uleb128 0x12
 7743 28f1 2C000000 		.4byte	0x2c
 7744 28f5 08       		.byte	0x8
 7745 28f6 00       		.byte	0
 7746 28f7 05       		.uleb128 0x5
 7747 28f8 E7280000 		.4byte	0x28e7
 7748 28fc 11       		.uleb128 0x11
 7749 28fd 00010000 		.4byte	0x100
 7750 2901 0C290000 		.4byte	0x290c
ARM GAS  /tmp/ccQCTkSU.s 			page 137


 7751 2905 12       		.uleb128 0x12
 7752 2906 2C000000 		.4byte	0x2c
 7753 290a 2E       		.byte	0x2e
 7754 290b 00       		.byte	0
 7755 290c 05       		.uleb128 0x5
 7756 290d FC280000 		.4byte	0x28fc
 7757 2911 11       		.uleb128 0x11
 7758 2912 ED240000 		.4byte	0x24ed
 7759 2916 21290000 		.4byte	0x2921
 7760 291a 12       		.uleb128 0x12
 7761 291b 2C000000 		.4byte	0x2c
 7762 291f 0F       		.byte	0xf
 7763 2920 00       		.byte	0
 7764 2921 11       		.uleb128 0x11
 7765 2922 00010000 		.4byte	0x100
 7766 2926 31290000 		.4byte	0x2931
 7767 292a 12       		.uleb128 0x12
 7768 292b 2C000000 		.4byte	0x2c
 7769 292f 3F       		.byte	0x3f
 7770 2930 00       		.byte	0
 7771 2931 05       		.uleb128 0x5
 7772 2932 21290000 		.4byte	0x2921
 7773 2936 11       		.uleb128 0x11
 7774 2937 00010000 		.4byte	0x100
 7775 293b 46290000 		.4byte	0x2946
 7776 293f 12       		.uleb128 0x12
 7777 2940 2C000000 		.4byte	0x2c
 7778 2944 0F       		.byte	0xf
 7779 2945 00       		.byte	0
 7780 2946 05       		.uleb128 0x5
 7781 2947 36290000 		.4byte	0x2936
 7782 294b 11       		.uleb128 0x11
 7783 294c 61250000 		.4byte	0x2561
 7784 2950 5B290000 		.4byte	0x295b
 7785 2954 12       		.uleb128 0x12
 7786 2955 2C000000 		.4byte	0x2c
 7787 2959 0F       		.byte	0xf
 7788 295a 00       		.byte	0
 7789 295b 11       		.uleb128 0x11
 7790 295c D5250000 		.4byte	0x25d5
 7791 2960 6B290000 		.4byte	0x296b
 7792 2964 12       		.uleb128 0x12
 7793 2965 2C000000 		.4byte	0x2c
 7794 2969 0F       		.byte	0xf
 7795 296a 00       		.byte	0
 7796 296b 11       		.uleb128 0x11
 7797 296c 00010000 		.4byte	0x100
 7798 2970 7B290000 		.4byte	0x297b
 7799 2974 12       		.uleb128 0x12
 7800 2975 2C000000 		.4byte	0x2c
 7801 2979 7E       		.byte	0x7e
 7802 297a 00       		.byte	0
 7803 297b 05       		.uleb128 0x5
 7804 297c 6B290000 		.4byte	0x296b
 7805 2980 11       		.uleb128 0x11
 7806 2981 00010000 		.4byte	0x100
 7807 2985 97290000 		.4byte	0x2997
ARM GAS  /tmp/ccQCTkSU.s 			page 138


 7808 2989 12       		.uleb128 0x12
 7809 298a 2C000000 		.4byte	0x2c
 7810 298e 0F       		.byte	0xf
 7811 298f 28       		.uleb128 0x28
 7812 2990 2C000000 		.4byte	0x2c
 7813 2994 FF03     		.2byte	0x3ff
 7814 2996 00       		.byte	0
 7815 2997 05       		.uleb128 0x5
 7816 2998 80290000 		.4byte	0x2980
 7817 299c 04       		.uleb128 0x4
 7818 299d 211D0000 		.4byte	.LASF554
 7819 29a1 2F       		.byte	0x2f
 7820 29a2 AA       		.byte	0xaa
 7821 29a3 E0250000 		.4byte	0x25e0
 7822 29a7 17       		.uleb128 0x17
 7823 29a8 0C       		.byte	0xc
 7824 29a9 2E       		.byte	0x2e
 7825 29aa 0301     		.2byte	0x103
 7826 29ac D8290000 		.4byte	0x29d8
 7827 29b0 0B       		.uleb128 0xb
 7828 29b1 34070000 		.4byte	.LASF555
 7829 29b5 2E       		.byte	0x2e
 7830 29b6 0401     		.2byte	0x104
 7831 29b8 F5000000 		.4byte	0xf5
 7832 29bc 00       		.byte	0
 7833 29bd 0B       		.uleb128 0xb
 7834 29be F8080000 		.4byte	.LASF556
 7835 29c2 2E       		.byte	0x2e
 7836 29c3 0501     		.2byte	0x105
 7837 29c5 F5000000 		.4byte	0xf5
 7838 29c9 04       		.byte	0x4
 7839 29ca 0B       		.uleb128 0xb
 7840 29cb D90B0000 		.4byte	.LASF557
 7841 29cf 2E       		.byte	0x2e
 7842 29d0 0601     		.2byte	0x106
 7843 29d2 F5000000 		.4byte	0xf5
 7844 29d6 08       		.byte	0x8
 7845 29d7 00       		.byte	0
 7846 29d8 16       		.uleb128 0x16
 7847 29d9 10090000 		.4byte	.LASF558
 7848 29dd 2E       		.byte	0x2e
 7849 29de 0701     		.2byte	0x107
 7850 29e0 A7290000 		.4byte	0x29a7
 7851 29e4 06       		.uleb128 0x6
 7852 29e5 D8290000 		.4byte	0x29d8
 7853 29e9 17       		.uleb128 0x17
 7854 29ea 10       		.byte	0x10
 7855 29eb 2E       		.byte	0x2e
 7856 29ec 0C01     		.2byte	0x10c
 7857 29ee 272A0000 		.4byte	0x2a27
 7858 29f2 0B       		.uleb128 0xb
 7859 29f3 A70E0000 		.4byte	.LASF559
 7860 29f7 2E       		.byte	0x2e
 7861 29f8 1001     		.2byte	0x110
 7862 29fa 41000000 		.4byte	0x41
 7863 29fe 00       		.byte	0
 7864 29ff 0B       		.uleb128 0xb
ARM GAS  /tmp/ccQCTkSU.s 			page 139


 7865 2a00 CA080000 		.4byte	.LASF560
 7866 2a04 2E       		.byte	0x2e
 7867 2a05 1401     		.2byte	0x114
 7868 2a07 41000000 		.4byte	0x41
 7869 2a0b 04       		.byte	0x4
 7870 2a0c 0B       		.uleb128 0xb
 7871 2a0d B01B0000 		.4byte	.LASF561
 7872 2a11 2E       		.byte	0x2e
 7873 2a12 1801     		.2byte	0x118
 7874 2a14 1E120000 		.4byte	0x121e
 7875 2a18 08       		.byte	0x8
 7876 2a19 0B       		.uleb128 0xb
 7877 2a1a F10B0000 		.4byte	.LASF562
 7878 2a1e 2E       		.byte	0x2e
 7879 2a1f 2301     		.2byte	0x123
 7880 2a21 41000000 		.4byte	0x41
 7881 2a25 0C       		.byte	0xc
 7882 2a26 00       		.byte	0
 7883 2a27 16       		.uleb128 0x16
 7884 2a28 B50C0000 		.4byte	.LASF563
 7885 2a2c 2E       		.byte	0x2e
 7886 2a2d 2401     		.2byte	0x124
 7887 2a2f E9290000 		.4byte	0x29e9
 7888 2a33 17       		.uleb128 0x17
 7889 2a34 10       		.byte	0x10
 7890 2a35 2E       		.byte	0x2e
 7891 2a36 2901     		.2byte	0x129
 7892 2a38 712A0000 		.4byte	0x2a71
 7893 2a3c 0B       		.uleb128 0xb
 7894 2a3d 6F0F0000 		.4byte	.LASF564
 7895 2a41 2E       		.byte	0x2e
 7896 2a42 2D01     		.2byte	0x12d
 7897 2a44 41000000 		.4byte	0x41
 7898 2a48 00       		.byte	0
 7899 2a49 0B       		.uleb128 0xb
 7900 2a4a 96060000 		.4byte	.LASF565
 7901 2a4e 2E       		.byte	0x2e
 7902 2a4f 3101     		.2byte	0x131
 7903 2a51 41000000 		.4byte	0x41
 7904 2a55 04       		.byte	0x4
 7905 2a56 0B       		.uleb128 0xb
 7906 2a57 31090000 		.4byte	.LASF418
 7907 2a5b 2E       		.byte	0x2e
 7908 2a5c 3501     		.2byte	0x135
 7909 2a5e 8B0F0000 		.4byte	0xf8b
 7910 2a62 08       		.byte	0x8
 7911 2a63 0B       		.uleb128 0xb
 7912 2a64 F10B0000 		.4byte	.LASF562
 7913 2a68 2E       		.byte	0x2e
 7914 2a69 4001     		.2byte	0x140
 7915 2a6b 41000000 		.4byte	0x41
 7916 2a6f 0C       		.byte	0xc
 7917 2a70 00       		.byte	0
 7918 2a71 16       		.uleb128 0x16
 7919 2a72 69160000 		.4byte	.LASF566
 7920 2a76 2E       		.byte	0x2e
 7921 2a77 4101     		.2byte	0x141
ARM GAS  /tmp/ccQCTkSU.s 			page 140


 7922 2a79 332A0000 		.4byte	0x2a33
 7923 2a7d 17       		.uleb128 0x17
 7924 2a7e 24       		.byte	0x24
 7925 2a7f 2E       		.byte	0x2e
 7926 2a80 4701     		.2byte	0x147
 7927 2a82 092B0000 		.4byte	0x2b09
 7928 2a86 0B       		.uleb128 0xb
 7929 2a87 BD110000 		.4byte	.LASF567
 7930 2a8b 2E       		.byte	0x2e
 7931 2a8c 4B01     		.2byte	0x14b
 7932 2a8e F5000000 		.4byte	0xf5
 7933 2a92 00       		.byte	0
 7934 2a93 0B       		.uleb128 0xb
 7935 2a94 59070000 		.4byte	.LASF568
 7936 2a98 2E       		.byte	0x2e
 7937 2a99 5601     		.2byte	0x156
 7938 2a9b E9230000 		.4byte	0x23e9
 7939 2a9f 04       		.byte	0x4
 7940 2aa0 0B       		.uleb128 0xb
 7941 2aa1 BE120000 		.4byte	.LASF569
 7942 2aa5 2E       		.byte	0x2e
 7943 2aa6 5B01     		.2byte	0x15b
 7944 2aa8 E9230000 		.4byte	0x23e9
 7945 2aac 08       		.byte	0x8
 7946 2aad 0B       		.uleb128 0xb
 7947 2aae A4090000 		.4byte	.LASF570
 7948 2ab2 2E       		.byte	0x2e
 7949 2ab3 6001     		.2byte	0x160
 7950 2ab5 E9230000 		.4byte	0x23e9
 7951 2ab9 0C       		.byte	0xc
 7952 2aba 0B       		.uleb128 0xb
 7953 2abb 451D0000 		.4byte	.LASF571
 7954 2abf 2E       		.byte	0x2e
 7955 2ac0 6501     		.2byte	0x165
 7956 2ac2 D5000000 		.4byte	0xd5
 7957 2ac6 10       		.byte	0x10
 7958 2ac7 0B       		.uleb128 0xb
 7959 2ac8 3C0C0000 		.4byte	.LASF572
 7960 2acc 2E       		.byte	0x2e
 7961 2acd 6A01     		.2byte	0x16a
 7962 2acf D5000000 		.4byte	0xd5
 7963 2ad3 12       		.byte	0x12
 7964 2ad4 0B       		.uleb128 0xb
 7965 2ad5 481C0000 		.4byte	.LASF573
 7966 2ad9 2E       		.byte	0x2e
 7967 2ada 7001     		.2byte	0x170
 7968 2adc 092B0000 		.4byte	0x2b09
 7969 2ae0 14       		.byte	0x14
 7970 2ae1 0B       		.uleb128 0xb
 7971 2ae2 0D0B0000 		.4byte	.LASF574
 7972 2ae6 2E       		.byte	0x2e
 7973 2ae7 7601     		.2byte	0x176
 7974 2ae9 0F2B0000 		.4byte	0x2b0f
 7975 2aed 18       		.byte	0x18
 7976 2aee 0B       		.uleb128 0xb
 7977 2aef E00D0000 		.4byte	.LASF575
 7978 2af3 2E       		.byte	0x2e
ARM GAS  /tmp/ccQCTkSU.s 			page 141


 7979 2af4 7D01     		.2byte	0x17d
 7980 2af6 D5000000 		.4byte	0xd5
 7981 2afa 1C       		.byte	0x1c
 7982 2afb 0B       		.uleb128 0xb
 7983 2afc CF1B0000 		.4byte	.LASF576
 7984 2b00 2E       		.byte	0x2e
 7985 2b01 8301     		.2byte	0x183
 7986 2b03 8B0F0000 		.4byte	0xf8b
 7987 2b07 20       		.byte	0x20
 7988 2b08 00       		.byte	0
 7989 2b09 0C       		.uleb128 0xc
 7990 2b0a 04       		.byte	0x4
 7991 2b0b 272A0000 		.4byte	0x2a27
 7992 2b0f 0C       		.uleb128 0xc
 7993 2b10 04       		.byte	0x4
 7994 2b11 712A0000 		.4byte	0x2a71
 7995 2b15 16       		.uleb128 0x16
 7996 2b16 BD170000 		.4byte	.LASF577
 7997 2b1a 2E       		.byte	0x2e
 7998 2b1b 8401     		.2byte	0x184
 7999 2b1d 7D2A0000 		.4byte	0x2a7d
 8000 2b21 06       		.uleb128 0x6
 8001 2b22 152B0000 		.4byte	0x2b15
 8002 2b26 17       		.uleb128 0x17
 8003 2b27 10       		.byte	0x10
 8004 2b28 2E       		.byte	0x2e
 8005 2b29 8901     		.2byte	0x189
 8006 2b2b 642B0000 		.4byte	0x2b64
 8007 2b2f 0B       		.uleb128 0xb
 8008 2b30 8F090000 		.4byte	.LASF578
 8009 2b34 2E       		.byte	0x2e
 8010 2b35 8E01     		.2byte	0x18e
 8011 2b37 0B240000 		.4byte	0x240b
 8012 2b3b 00       		.byte	0
 8013 2b3c 0B       		.uleb128 0xb
 8014 2b3d 701A0000 		.4byte	.LASF579
 8015 2b41 2E       		.byte	0x2e
 8016 2b42 9301     		.2byte	0x193
 8017 2b44 4E240000 		.4byte	0x244e
 8018 2b48 04       		.byte	0x4
 8019 2b49 0B       		.uleb128 0xb
 8020 2b4a 7D0E0000 		.4byte	.LASF580
 8021 2b4e 2E       		.byte	0x2e
 8022 2b4f 9901     		.2byte	0x199
 8023 2b51 2D240000 		.4byte	0x242d
 8024 2b55 08       		.byte	0x8
 8025 2b56 0B       		.uleb128 0xb
 8026 2b57 A9010000 		.4byte	.LASF581
 8027 2b5b 2E       		.byte	0x2e
 8028 2b5c 9D01     		.2byte	0x19d
 8029 2b5e C6230000 		.4byte	0x23c6
 8030 2b62 0C       		.byte	0xc
 8031 2b63 00       		.byte	0
 8032 2b64 16       		.uleb128 0x16
 8033 2b65 920D0000 		.4byte	.LASF582
 8034 2b69 2E       		.byte	0x2e
 8035 2b6a 9F01     		.2byte	0x19f
ARM GAS  /tmp/ccQCTkSU.s 			page 142


 8036 2b6c 262B0000 		.4byte	0x2b26
 8037 2b70 06       		.uleb128 0x6
 8038 2b71 642B0000 		.4byte	0x2b64
 8039 2b75 0C       		.uleb128 0xc
 8040 2b76 04       		.byte	0x4
 8041 2b77 702B0000 		.4byte	0x2b70
 8042 2b7b 11       		.uleb128 0x11
 8043 2b7c 8B2B0000 		.4byte	0x2b8b
 8044 2b80 8B2B0000 		.4byte	0x2b8b
 8045 2b84 12       		.uleb128 0x12
 8046 2b85 2C000000 		.4byte	0x2c
 8047 2b89 03       		.byte	0x3
 8048 2b8a 00       		.byte	0
 8049 2b8b 0C       		.uleb128 0xc
 8050 2b8c 04       		.byte	0x4
 8051 2b8d 212B0000 		.4byte	0x2b21
 8052 2b91 11       		.uleb128 0x11
 8053 2b92 4F030000 		.4byte	0x34f
 8054 2b96 A12B0000 		.4byte	0x2ba1
 8055 2b9a 12       		.uleb128 0x12
 8056 2b9b 2C000000 		.4byte	0x2c
 8057 2b9f 02       		.byte	0x2
 8058 2ba0 00       		.byte	0
 8059 2ba1 0C       		.uleb128 0xc
 8060 2ba2 04       		.byte	0x4
 8061 2ba3 9C290000 		.4byte	0x299c
 8062 2ba7 0C       		.uleb128 0xc
 8063 2ba8 04       		.byte	0x4
 8064 2ba9 E4290000 		.4byte	0x29e4
 8065 2bad 13       		.uleb128 0x13
 8066 2bae 86000000 		.4byte	.LASF583
 8067 2bb2 2E       		.byte	0x2e
 8068 2bb3 3902     		.2byte	0x239
 8069 2bb5 AB210000 		.4byte	0x21ab
 8070 2bb9 04       		.uleb128 0x4
 8071 2bba 05070000 		.4byte	.LASF584
 8072 2bbe 30       		.byte	0x30
 8073 2bbf 28       		.byte	0x28
 8074 2bc0 C42B0000 		.4byte	0x2bc4
 8075 2bc4 07       		.uleb128 0x7
 8076 2bc5 501D0000 		.4byte	.LASF585
 8077 2bc9 04       		.byte	0x4
 8078 2bca 31       		.byte	0x31
 8079 2bcb 00       		.byte	0
 8080 2bcc DB2B0000 		.4byte	0x2bdb
 8081 2bd0 29       		.uleb128 0x29
 8082 2bd1 91190000 		.4byte	.LASF586
 8083 2bd5 4F030000 		.4byte	0x34f
 8084 2bd9 00       		.byte	0
 8085 2bda 00       		.byte	0
 8086 2bdb 04       		.uleb128 0x4
 8087 2bdc C4090000 		.4byte	.LASF587
 8088 2be0 30       		.byte	0x30
 8089 2be1 63       		.byte	0x63
 8090 2be2 B92B0000 		.4byte	0x2bb9
 8091 2be6 07       		.uleb128 0x7
 8092 2be7 7A090000 		.4byte	.LASF588
ARM GAS  /tmp/ccQCTkSU.s 			page 143


 8093 2beb 14       		.byte	0x14
 8094 2bec 32       		.byte	0x32
 8095 2bed 3D       		.byte	0x3d
 8096 2bee 2F2C0000 		.4byte	0x2c2f
 8097 2bf2 08       		.uleb128 0x8
 8098 2bf3 15010000 		.4byte	.LASF225
 8099 2bf7 32       		.byte	0x32
 8100 2bf8 3E       		.byte	0x3e
 8101 2bf9 41000000 		.4byte	0x41
 8102 2bfd 00       		.byte	0
 8103 2bfe 08       		.uleb128 0x8
 8104 2bff A6120000 		.4byte	.LASF226
 8105 2c03 32       		.byte	0x32
 8106 2c04 3E       		.byte	0x3e
 8107 2c05 24120000 		.4byte	0x1224
 8108 2c09 04       		.byte	0x4
 8109 2c0a 08       		.uleb128 0x8
 8110 2c0b 78010000 		.4byte	.LASF227
 8111 2c0f 32       		.byte	0x32
 8112 2c10 3E       		.byte	0x3e
 8113 2c11 43120000 		.4byte	0x1243
 8114 2c15 08       		.byte	0x8
 8115 2c16 09       		.uleb128 0x9
 8116 2c17 70757400 		.ascii	"put\000"
 8117 2c1b 32       		.byte	0x32
 8118 2c1c 3E       		.byte	0x3e
 8119 2c1d 5D120000 		.4byte	0x125d
 8120 2c21 0C       		.byte	0xc
 8121 2c22 09       		.uleb128 0x9
 8122 2c23 67657400 		.ascii	"get\000"
 8123 2c27 32       		.byte	0x32
 8124 2c28 3E       		.byte	0x3e
 8125 2c29 72120000 		.4byte	0x1272
 8126 2c2d 10       		.byte	0x10
 8127 2c2e 00       		.byte	0
 8128 2c2f 06       		.uleb128 0x6
 8129 2c30 E62B0000 		.4byte	0x2be6
 8130 2c34 15       		.uleb128 0x15
 8131 2c35 14       		.byte	0x14
 8132 2c36 32       		.byte	0x32
 8133 2c37 46       		.byte	0x46
 8134 2c38 792C0000 		.4byte	0x2c79
 8135 2c3c 09       		.uleb128 0x9
 8136 2c3d 766D7400 		.ascii	"vmt\000"
 8137 2c41 32       		.byte	0x32
 8138 2c42 48       		.byte	0x48
 8139 2c43 792C0000 		.4byte	0x2c79
 8140 2c47 00       		.byte	0
 8141 2c48 08       		.uleb128 0x8
 8142 2c49 C8140000 		.4byte	.LASF589
 8143 2c4d 32       		.byte	0x32
 8144 2c4e 49       		.byte	0x49
 8145 2c4f 8B0F0000 		.4byte	0xf8b
 8146 2c53 04       		.byte	0x4
 8147 2c54 08       		.uleb128 0x8
 8148 2c55 260A0000 		.4byte	.LASF164
 8149 2c59 32       		.byte	0x32
ARM GAS  /tmp/ccQCTkSU.s 			page 144


 8150 2c5a 49       		.byte	0x49
 8151 2c5b 41000000 		.4byte	0x41
 8152 2c5f 08       		.byte	0x8
 8153 2c60 09       		.uleb128 0x9
 8154 2c61 656F7300 		.ascii	"eos\000"
 8155 2c65 32       		.byte	0x32
 8156 2c66 49       		.byte	0x49
 8157 2c67 41000000 		.4byte	0x41
 8158 2c6b 0C       		.byte	0xc
 8159 2c6c 08       		.uleb128 0x8
 8160 2c6d 6E180000 		.4byte	.LASF147
 8161 2c71 32       		.byte	0x32
 8162 2c72 49       		.byte	0x49
 8163 2c73 41000000 		.4byte	0x41
 8164 2c77 10       		.byte	0x10
 8165 2c78 00       		.byte	0
 8166 2c79 0C       		.uleb128 0xc
 8167 2c7a 04       		.byte	0x4
 8168 2c7b 2F2C0000 		.4byte	0x2c2f
 8169 2c7f 04       		.uleb128 0x4
 8170 2c80 61010000 		.4byte	.LASF590
 8171 2c84 32       		.byte	0x32
 8172 2c85 4A       		.byte	0x4a
 8173 2c86 342C0000 		.4byte	0x2c34
 8174 2c8a 04       		.uleb128 0x4
 8175 2c8b 9D110000 		.4byte	.LASF591
 8176 2c8f 33       		.byte	0x33
 8177 2c90 0C       		.byte	0xc
 8178 2c91 3A000000 		.4byte	0x3a
 8179 2c95 04       		.uleb128 0x4
 8180 2c96 550A0000 		.4byte	.LASF592
 8181 2c9a 34       		.byte	0x34
 8182 2c9b 2C       		.byte	0x2c
 8183 2c9c 9C000000 		.4byte	0x9c
 8184 2ca0 04       		.uleb128 0x4
 8185 2ca1 23160000 		.4byte	.LASF593
 8186 2ca5 34       		.byte	0x34
 8187 2ca6 72       		.byte	0x72
 8188 2ca7 9C000000 		.4byte	0x9c
 8189 2cab 16       		.uleb128 0x16
 8190 2cac C30B0000 		.4byte	.LASF594
 8191 2cb0 02       		.byte	0x2
 8192 2cb1 6501     		.2byte	0x165
 8193 2cb3 2C000000 		.4byte	0x2c
 8194 2cb7 1B       		.uleb128 0x1b
 8195 2cb8 04       		.byte	0x4
 8196 2cb9 34       		.byte	0x34
 8197 2cba A6       		.byte	0xa6
 8198 2cbb D62C0000 		.4byte	0x2cd6
 8199 2cbf 1C       		.uleb128 0x1c
 8200 2cc0 25110000 		.4byte	.LASF595
 8201 2cc4 34       		.byte	0x34
 8202 2cc5 A8       		.byte	0xa8
 8203 2cc6 AB2C0000 		.4byte	0x2cab
 8204 2cca 1C       		.uleb128 0x1c
 8205 2ccb 690B0000 		.4byte	.LASF596
 8206 2ccf 34       		.byte	0x34
ARM GAS  /tmp/ccQCTkSU.s 			page 145


 8207 2cd0 A9       		.byte	0xa9
 8208 2cd1 D62C0000 		.4byte	0x2cd6
 8209 2cd5 00       		.byte	0
 8210 2cd6 11       		.uleb128 0x11
 8211 2cd7 71000000 		.4byte	0x71
 8212 2cdb E62C0000 		.4byte	0x2ce6
 8213 2cdf 12       		.uleb128 0x12
 8214 2ce0 2C000000 		.4byte	0x2c
 8215 2ce4 03       		.byte	0x3
 8216 2ce5 00       		.byte	0
 8217 2ce6 15       		.uleb128 0x15
 8218 2ce7 08       		.byte	0x8
 8219 2ce8 34       		.byte	0x34
 8220 2ce9 A3       		.byte	0xa3
 8221 2cea 072D0000 		.4byte	0x2d07
 8222 2cee 08       		.uleb128 0x8
 8223 2cef 880A0000 		.4byte	.LASF597
 8224 2cf3 34       		.byte	0x34
 8225 2cf4 A5       		.byte	0xa5
 8226 2cf5 3A000000 		.4byte	0x3a
 8227 2cf9 00       		.byte	0
 8228 2cfa 08       		.uleb128 0x8
 8229 2cfb 2B110000 		.4byte	.LASF598
 8230 2cff 34       		.byte	0x34
 8231 2d00 AA       		.byte	0xaa
 8232 2d01 B72C0000 		.4byte	0x2cb7
 8233 2d05 04       		.byte	0x4
 8234 2d06 00       		.byte	0
 8235 2d07 04       		.uleb128 0x4
 8236 2d08 86160000 		.4byte	.LASF599
 8237 2d0c 34       		.byte	0x34
 8238 2d0d AB       		.byte	0xab
 8239 2d0e E62C0000 		.4byte	0x2ce6
 8240 2d12 04       		.uleb128 0x4
 8241 2d13 C0190000 		.4byte	.LASF600
 8242 2d17 34       		.byte	0x34
 8243 2d18 AF       		.byte	0xaf
 8244 2d19 8A2C0000 		.4byte	0x2c8a
 8245 2d1d 0C       		.uleb128 0xc
 8246 2d1e 04       		.byte	0x4
 8247 2d1f 690D0000 		.4byte	0xd69
 8248 2d23 04       		.uleb128 0x4
 8249 2d24 2E0F0000 		.4byte	.LASF601
 8250 2d28 35       		.byte	0x35
 8251 2d29 16       		.byte	0x16
 8252 2d2a B3000000 		.4byte	0xb3
 8253 2d2e 07       		.uleb128 0x7
 8254 2d2f 47140000 		.4byte	.LASF602
 8255 2d33 18       		.byte	0x18
 8256 2d34 35       		.byte	0x35
 8257 2d35 2F       		.byte	0x2f
 8258 2d36 812D0000 		.4byte	0x2d81
 8259 2d3a 08       		.uleb128 0x8
 8260 2d3b 070D0000 		.4byte	.LASF603
 8261 2d3f 35       		.byte	0x35
 8262 2d40 31       		.byte	0x31
 8263 2d41 812D0000 		.4byte	0x2d81
ARM GAS  /tmp/ccQCTkSU.s 			page 146


 8264 2d45 00       		.byte	0
 8265 2d46 09       		.uleb128 0x9
 8266 2d47 5F6B00   		.ascii	"_k\000"
 8267 2d4a 35       		.byte	0x35
 8268 2d4b 32       		.byte	0x32
 8269 2d4c 3A000000 		.4byte	0x3a
 8270 2d50 04       		.byte	0x4
 8271 2d51 08       		.uleb128 0x8
 8272 2d52 EB120000 		.4byte	.LASF604
 8273 2d56 35       		.byte	0x35
 8274 2d57 32       		.byte	0x32
 8275 2d58 3A000000 		.4byte	0x3a
 8276 2d5c 08       		.byte	0x8
 8277 2d5d 08       		.uleb128 0x8
 8278 2d5e 08130000 		.4byte	.LASF605
 8279 2d62 35       		.byte	0x35
 8280 2d63 32       		.byte	0x32
 8281 2d64 3A000000 		.4byte	0x3a
 8282 2d68 0C       		.byte	0xc
 8283 2d69 08       		.uleb128 0x8
 8284 2d6a C7070000 		.4byte	.LASF606
 8285 2d6e 35       		.byte	0x35
 8286 2d6f 32       		.byte	0x32
 8287 2d70 3A000000 		.4byte	0x3a
 8288 2d74 10       		.byte	0x10
 8289 2d75 09       		.uleb128 0x9
 8290 2d76 5F7800   		.ascii	"_x\000"
 8291 2d79 35       		.byte	0x35
 8292 2d7a 33       		.byte	0x33
 8293 2d7b 872D0000 		.4byte	0x2d87
 8294 2d7f 14       		.byte	0x14
 8295 2d80 00       		.byte	0
 8296 2d81 0C       		.uleb128 0xc
 8297 2d82 04       		.byte	0x4
 8298 2d83 2E2D0000 		.4byte	0x2d2e
 8299 2d87 11       		.uleb128 0x11
 8300 2d88 232D0000 		.4byte	0x2d23
 8301 2d8c 972D0000 		.4byte	0x2d97
 8302 2d90 12       		.uleb128 0x12
 8303 2d91 2C000000 		.4byte	0x2c
 8304 2d95 00       		.byte	0
 8305 2d96 00       		.byte	0
 8306 2d97 07       		.uleb128 0x7
 8307 2d98 E6140000 		.4byte	.LASF607
 8308 2d9c 24       		.byte	0x24
 8309 2d9d 35       		.byte	0x35
 8310 2d9e 37       		.byte	0x37
 8311 2d9f 102E0000 		.4byte	0x2e10
 8312 2da3 08       		.uleb128 0x8
 8313 2da4 CF0D0000 		.4byte	.LASF608
 8314 2da8 35       		.byte	0x35
 8315 2da9 39       		.byte	0x39
 8316 2daa 3A000000 		.4byte	0x3a
 8317 2dae 00       		.byte	0
 8318 2daf 08       		.uleb128 0x8
 8319 2db0 B7080000 		.4byte	.LASF609
 8320 2db4 35       		.byte	0x35
ARM GAS  /tmp/ccQCTkSU.s 			page 147


 8321 2db5 3A       		.byte	0x3a
 8322 2db6 3A000000 		.4byte	0x3a
 8323 2dba 04       		.byte	0x4
 8324 2dbb 08       		.uleb128 0x8
 8325 2dbc 840B0000 		.4byte	.LASF610
 8326 2dc0 35       		.byte	0x35
 8327 2dc1 3B       		.byte	0x3b
 8328 2dc2 3A000000 		.4byte	0x3a
 8329 2dc6 08       		.byte	0x8
 8330 2dc7 08       		.uleb128 0x8
 8331 2dc8 2D0C0000 		.4byte	.LASF611
 8332 2dcc 35       		.byte	0x35
 8333 2dcd 3C       		.byte	0x3c
 8334 2dce 3A000000 		.4byte	0x3a
 8335 2dd2 0C       		.byte	0xc
 8336 2dd3 08       		.uleb128 0x8
 8337 2dd4 40010000 		.4byte	.LASF612
 8338 2dd8 35       		.byte	0x35
 8339 2dd9 3D       		.byte	0x3d
 8340 2dda 3A000000 		.4byte	0x3a
 8341 2dde 10       		.byte	0x10
 8342 2ddf 08       		.uleb128 0x8
 8343 2de0 DD080000 		.4byte	.LASF613
 8344 2de4 35       		.byte	0x35
 8345 2de5 3E       		.byte	0x3e
 8346 2de6 3A000000 		.4byte	0x3a
 8347 2dea 14       		.byte	0x14
 8348 2deb 08       		.uleb128 0x8
 8349 2dec 14070000 		.4byte	.LASF614
 8350 2df0 35       		.byte	0x35
 8351 2df1 3F       		.byte	0x3f
 8352 2df2 3A000000 		.4byte	0x3a
 8353 2df6 18       		.byte	0x18
 8354 2df7 08       		.uleb128 0x8
 8355 2df8 D8050000 		.4byte	.LASF615
 8356 2dfc 35       		.byte	0x35
 8357 2dfd 40       		.byte	0x40
 8358 2dfe 3A000000 		.4byte	0x3a
 8359 2e02 1C       		.byte	0x1c
 8360 2e03 08       		.uleb128 0x8
 8361 2e04 1E070000 		.4byte	.LASF616
 8362 2e08 35       		.byte	0x35
 8363 2e09 41       		.byte	0x41
 8364 2e0a 3A000000 		.4byte	0x3a
 8365 2e0e 20       		.byte	0x20
 8366 2e0f 00       		.byte	0
 8367 2e10 2A       		.uleb128 0x2a
 8368 2e11 F80D0000 		.4byte	.LASF617
 8369 2e15 0801     		.2byte	0x108
 8370 2e17 35       		.byte	0x35
 8371 2e18 4A       		.byte	0x4a
 8372 2e19 502E0000 		.4byte	0x2e50
 8373 2e1d 08       		.uleb128 0x8
 8374 2e1e 5A0C0000 		.4byte	.LASF618
 8375 2e22 35       		.byte	0x35
 8376 2e23 4B       		.byte	0x4b
 8377 2e24 502E0000 		.4byte	0x2e50
ARM GAS  /tmp/ccQCTkSU.s 			page 148


 8378 2e28 00       		.byte	0
 8379 2e29 08       		.uleb128 0x8
 8380 2e2a E6060000 		.4byte	.LASF619
 8381 2e2e 35       		.byte	0x35
 8382 2e2f 4C       		.byte	0x4c
 8383 2e30 502E0000 		.4byte	0x2e50
 8384 2e34 80       		.byte	0x80
 8385 2e35 26       		.uleb128 0x26
 8386 2e36 49010000 		.4byte	.LASF620
 8387 2e3a 35       		.byte	0x35
 8388 2e3b 4E       		.byte	0x4e
 8389 2e3c 232D0000 		.4byte	0x2d23
 8390 2e40 0001     		.2byte	0x100
 8391 2e42 26       		.uleb128 0x26
 8392 2e43 4C170000 		.4byte	.LASF621
 8393 2e47 35       		.byte	0x35
 8394 2e48 51       		.byte	0x51
 8395 2e49 232D0000 		.4byte	0x2d23
 8396 2e4d 0401     		.2byte	0x104
 8397 2e4f 00       		.byte	0
 8398 2e50 11       		.uleb128 0x11
 8399 2e51 4F030000 		.4byte	0x34f
 8400 2e55 602E0000 		.4byte	0x2e60
 8401 2e59 12       		.uleb128 0x12
 8402 2e5a 2C000000 		.4byte	0x2c
 8403 2e5e 1F       		.byte	0x1f
 8404 2e5f 00       		.byte	0
 8405 2e60 07       		.uleb128 0x7
 8406 2e61 D0000000 		.4byte	.LASF622
 8407 2e65 8C       		.byte	0x8c
 8408 2e66 35       		.byte	0x35
 8409 2e67 55       		.byte	0x55
 8410 2e68 9D2E0000 		.4byte	0x2e9d
 8411 2e6c 08       		.uleb128 0x8
 8412 2e6d 070D0000 		.4byte	.LASF603
 8413 2e71 35       		.byte	0x35
 8414 2e72 56       		.byte	0x56
 8415 2e73 9D2E0000 		.4byte	0x2e9d
 8416 2e77 00       		.byte	0
 8417 2e78 08       		.uleb128 0x8
 8418 2e79 73010000 		.4byte	.LASF623
 8419 2e7d 35       		.byte	0x35
 8420 2e7e 57       		.byte	0x57
 8421 2e7f 3A000000 		.4byte	0x3a
 8422 2e83 04       		.byte	0x4
 8423 2e84 08       		.uleb128 0x8
 8424 2e85 64160000 		.4byte	.LASF624
 8425 2e89 35       		.byte	0x35
 8426 2e8a 58       		.byte	0x58
 8427 2e8b A32E0000 		.4byte	0x2ea3
 8428 2e8f 08       		.byte	0x8
 8429 2e90 08       		.uleb128 0x8
 8430 2e91 00000000 		.4byte	.LASF625
 8431 2e95 35       		.byte	0x35
 8432 2e96 59       		.byte	0x59
 8433 2e97 B32E0000 		.4byte	0x2eb3
 8434 2e9b 88       		.byte	0x88
ARM GAS  /tmp/ccQCTkSU.s 			page 149


 8435 2e9c 00       		.byte	0
 8436 2e9d 0C       		.uleb128 0xc
 8437 2e9e 04       		.byte	0x4
 8438 2e9f 602E0000 		.4byte	0x2e60
 8439 2ea3 11       		.uleb128 0x11
 8440 2ea4 55180000 		.4byte	0x1855
 8441 2ea8 B32E0000 		.4byte	0x2eb3
 8442 2eac 12       		.uleb128 0x12
 8443 2ead 2C000000 		.4byte	0x2c
 8444 2eb1 1F       		.byte	0x1f
 8445 2eb2 00       		.byte	0
 8446 2eb3 0C       		.uleb128 0xc
 8447 2eb4 04       		.byte	0x4
 8448 2eb5 102E0000 		.4byte	0x2e10
 8449 2eb9 07       		.uleb128 0x7
 8450 2eba C2100000 		.4byte	.LASF626
 8451 2ebe 08       		.byte	0x8
 8452 2ebf 35       		.byte	0x35
 8453 2ec0 75       		.byte	0x75
 8454 2ec1 DE2E0000 		.4byte	0x2ede
 8455 2ec5 08       		.uleb128 0x8
 8456 2ec6 3F0E0000 		.4byte	.LASF627
 8457 2eca 35       		.byte	0x35
 8458 2ecb 76       		.byte	0x76
 8459 2ecc DE2E0000 		.4byte	0x2ede
 8460 2ed0 00       		.byte	0
 8461 2ed1 08       		.uleb128 0x8
 8462 2ed2 64080000 		.4byte	.LASF628
 8463 2ed6 35       		.byte	0x35
 8464 2ed7 77       		.byte	0x77
 8465 2ed8 3A000000 		.4byte	0x3a
 8466 2edc 04       		.byte	0x4
 8467 2edd 00       		.byte	0
 8468 2ede 0C       		.uleb128 0xc
 8469 2edf 04       		.byte	0x4
 8470 2ee0 71000000 		.4byte	0x71
 8471 2ee4 07       		.uleb128 0x7
 8472 2ee5 3D030000 		.4byte	.LASF629
 8473 2ee9 20       		.byte	0x20
 8474 2eea 35       		.byte	0x35
 8475 2eeb 99       		.byte	0x99
 8476 2eec 4E2F0000 		.4byte	0x2f4e
 8477 2ef0 09       		.uleb128 0x9
 8478 2ef1 5F7000   		.ascii	"_p\000"
 8479 2ef4 35       		.byte	0x35
 8480 2ef5 9A       		.byte	0x9a
 8481 2ef6 DE2E0000 		.4byte	0x2ede
 8482 2efa 00       		.byte	0
 8483 2efb 09       		.uleb128 0x9
 8484 2efc 5F7200   		.ascii	"_r\000"
 8485 2eff 35       		.byte	0x35
 8486 2f00 9B       		.byte	0x9b
 8487 2f01 3A000000 		.4byte	0x3a
 8488 2f05 04       		.byte	0x4
 8489 2f06 09       		.uleb128 0x9
 8490 2f07 5F7700   		.ascii	"_w\000"
 8491 2f0a 35       		.byte	0x35
ARM GAS  /tmp/ccQCTkSU.s 			page 150


 8492 2f0b 9C       		.byte	0x9c
 8493 2f0c 3A000000 		.4byte	0x3a
 8494 2f10 08       		.byte	0x8
 8495 2f11 08       		.uleb128 0x8
 8496 2f12 C3010000 		.4byte	.LASF630
 8497 2f16 35       		.byte	0x35
 8498 2f17 9D       		.byte	0x9d
 8499 2f18 78000000 		.4byte	0x78
 8500 2f1c 0C       		.byte	0xc
 8501 2f1d 08       		.uleb128 0x8
 8502 2f1e 2B160000 		.4byte	.LASF631
 8503 2f22 35       		.byte	0x35
 8504 2f23 9E       		.byte	0x9e
 8505 2f24 78000000 		.4byte	0x78
 8506 2f28 0E       		.byte	0xe
 8507 2f29 09       		.uleb128 0x9
 8508 2f2a 5F626600 		.ascii	"_bf\000"
 8509 2f2e 35       		.byte	0x35
 8510 2f2f 9F       		.byte	0x9f
 8511 2f30 B92E0000 		.4byte	0x2eb9
 8512 2f34 10       		.byte	0x10
 8513 2f35 08       		.uleb128 0x8
 8514 2f36 B6030000 		.4byte	.LASF632
 8515 2f3a 35       		.byte	0x35
 8516 2f3b A0       		.byte	0xa0
 8517 2f3c 3A000000 		.4byte	0x3a
 8518 2f40 18       		.byte	0x18
 8519 2f41 08       		.uleb128 0x8
 8520 2f42 4D0F0000 		.4byte	.LASF633
 8521 2f46 35       		.byte	0x35
 8522 2f47 A2       		.byte	0xa2
 8523 2f48 7F300000 		.4byte	0x307f
 8524 2f4c 1C       		.byte	0x1c
 8525 2f4d 00       		.byte	0
 8526 2f4e 06       		.uleb128 0x6
 8527 2f4f E42E0000 		.4byte	0x2ee4
 8528 2f53 0D       		.uleb128 0xd
 8529 2f54 F0100000 		.4byte	.LASF634
 8530 2f58 60       		.byte	0x60
 8531 2f59 35       		.byte	0x35
 8532 2f5a 7401     		.2byte	0x174
 8533 2f5c 7F300000 		.4byte	0x307f
 8534 2f60 0B       		.uleb128 0xb
 8535 2f61 130C0000 		.4byte	.LASF635
 8536 2f65 35       		.byte	0x35
 8537 2f66 7801     		.2byte	0x178
 8538 2f68 3A000000 		.4byte	0x3a
 8539 2f6c 00       		.byte	0
 8540 2f6d 0B       		.uleb128 0xb
 8541 2f6e CC090000 		.4byte	.LASF636
 8542 2f72 35       		.byte	0x35
 8543 2f73 7D01     		.2byte	0x17d
 8544 2f75 A1320000 		.4byte	0x32a1
 8545 2f79 04       		.byte	0x4
 8546 2f7a 0B       		.uleb128 0xb
 8547 2f7b 70070000 		.4byte	.LASF637
 8548 2f7f 35       		.byte	0x35
ARM GAS  /tmp/ccQCTkSU.s 			page 151


 8549 2f80 7D01     		.2byte	0x17d
 8550 2f82 A1320000 		.4byte	0x32a1
 8551 2f86 08       		.byte	0x8
 8552 2f87 0B       		.uleb128 0xb
 8553 2f88 C0060000 		.4byte	.LASF638
 8554 2f8c 35       		.byte	0x35
 8555 2f8d 7D01     		.2byte	0x17d
 8556 2f8f A1320000 		.4byte	0x32a1
 8557 2f93 0C       		.byte	0xc
 8558 2f94 0B       		.uleb128 0xb
 8559 2f95 6E010000 		.4byte	.LASF639
 8560 2f99 35       		.byte	0x35
 8561 2f9a 7F01     		.2byte	0x17f
 8562 2f9c 3A000000 		.4byte	0x3a
 8563 2fa0 10       		.byte	0x10
 8564 2fa1 0B       		.uleb128 0xb
 8565 2fa2 220B0000 		.4byte	.LASF640
 8566 2fa6 35       		.byte	0x35
 8567 2fa7 8101     		.2byte	0x181
 8568 2fa9 1D2D0000 		.4byte	0x2d1d
 8569 2fad 14       		.byte	0x14
 8570 2fae 0B       		.uleb128 0xb
 8571 2faf 5C190000 		.4byte	.LASF641
 8572 2fb3 35       		.byte	0x35
 8573 2fb4 8301     		.2byte	0x183
 8574 2fb6 3A000000 		.4byte	0x3a
 8575 2fba 18       		.byte	0x18
 8576 2fbb 0B       		.uleb128 0xb
 8577 2fbc 1C190000 		.4byte	.LASF642
 8578 2fc0 35       		.byte	0x35
 8579 2fc1 8501     		.2byte	0x185
 8580 2fc3 3A000000 		.4byte	0x3a
 8581 2fc7 1C       		.byte	0x1c
 8582 2fc8 0B       		.uleb128 0xb
 8583 2fc9 821A0000 		.4byte	.LASF643
 8584 2fcd 35       		.byte	0x35
 8585 2fce 8601     		.2byte	0x186
 8586 2fd0 E3330000 		.4byte	0x33e3
 8587 2fd4 20       		.byte	0x20
 8588 2fd5 0A       		.uleb128 0xa
 8589 2fd6 5F6D7000 		.ascii	"_mp\000"
 8590 2fda 35       		.byte	0x35
 8591 2fdb 8801     		.2byte	0x188
 8592 2fdd E9330000 		.4byte	0x33e9
 8593 2fe1 24       		.byte	0x24
 8594 2fe2 0B       		.uleb128 0xb
 8595 2fe3 0E0E0000 		.4byte	.LASF644
 8596 2fe7 35       		.byte	0x35
 8597 2fe8 8A01     		.2byte	0x18a
 8598 2fea FA330000 		.4byte	0x33fa
 8599 2fee 28       		.byte	0x28
 8600 2fef 0B       		.uleb128 0xb
 8601 2ff0 8B180000 		.4byte	.LASF645
 8602 2ff4 35       		.byte	0x35
 8603 2ff5 8C01     		.2byte	0x18c
 8604 2ff7 3A000000 		.4byte	0x3a
 8605 2ffb 2C       		.byte	0x2c
ARM GAS  /tmp/ccQCTkSU.s 			page 152


 8606 2ffc 0B       		.uleb128 0xb
 8607 2ffd 1E020000 		.4byte	.LASF646
 8608 3001 35       		.byte	0x35
 8609 3002 8F01     		.2byte	0x18f
 8610 3004 3A000000 		.4byte	0x3a
 8611 3008 30       		.byte	0x30
 8612 3009 0B       		.uleb128 0xb
 8613 300a 050B0000 		.4byte	.LASF647
 8614 300e 35       		.byte	0x35
 8615 300f 9001     		.2byte	0x190
 8616 3011 1D2D0000 		.4byte	0x2d1d
 8617 3015 34       		.byte	0x34
 8618 3016 0B       		.uleb128 0xb
 8619 3017 991C0000 		.4byte	.LASF648
 8620 301b 35       		.byte	0x35
 8621 301c 9201     		.2byte	0x192
 8622 301e 00340000 		.4byte	0x3400
 8623 3022 38       		.byte	0x38
 8624 3023 0B       		.uleb128 0xb
 8625 3024 790A0000 		.4byte	.LASF649
 8626 3028 35       		.byte	0x35
 8627 3029 9301     		.2byte	0x193
 8628 302b 06340000 		.4byte	0x3406
 8629 302f 3C       		.byte	0x3c
 8630 3030 0B       		.uleb128 0xb
 8631 3031 06110000 		.4byte	.LASF650
 8632 3035 35       		.byte	0x35
 8633 3036 9401     		.2byte	0x194
 8634 3038 1D2D0000 		.4byte	0x2d1d
 8635 303c 40       		.byte	0x40
 8636 303d 0B       		.uleb128 0xb
 8637 303e 37020000 		.4byte	.LASF651
 8638 3042 35       		.byte	0x35
 8639 3043 9701     		.2byte	0x197
 8640 3045 17340000 		.4byte	0x3417
 8641 3049 44       		.byte	0x44
 8642 304a 0B       		.uleb128 0xb
 8643 304b 070F0000 		.4byte	.LASF652
 8644 304f 35       		.byte	0x35
 8645 3050 9F01     		.2byte	0x19f
 8646 3052 66320000 		.4byte	0x3266
 8647 3056 48       		.byte	0x48
 8648 3057 0B       		.uleb128 0xb
 8649 3058 C4040000 		.4byte	.LASF653
 8650 305c 35       		.byte	0x35
 8651 305d A001     		.2byte	0x1a0
 8652 305f A1320000 		.4byte	0x32a1
 8653 3063 54       		.byte	0x54
 8654 3064 0B       		.uleb128 0xb
 8655 3065 CC070000 		.4byte	.LASF654
 8656 3069 35       		.byte	0x35
 8657 306a A101     		.2byte	0x1a1
 8658 306c 23340000 		.4byte	0x3423
 8659 3070 58       		.byte	0x58
 8660 3071 0B       		.uleb128 0xb
 8661 3072 1B0D0000 		.4byte	.LASF655
 8662 3076 35       		.byte	0x35
ARM GAS  /tmp/ccQCTkSU.s 			page 153


 8663 3077 A201     		.2byte	0x1a2
 8664 3079 1D2D0000 		.4byte	0x2d1d
 8665 307d 5C       		.byte	0x5c
 8666 307e 00       		.byte	0
 8667 307f 0C       		.uleb128 0xc
 8668 3080 04       		.byte	0x4
 8669 3081 532F0000 		.4byte	0x2f53
 8670 3085 06       		.uleb128 0x6
 8671 3086 7F300000 		.4byte	0x307f
 8672 308a 07       		.uleb128 0x7
 8673 308b 55160000 		.4byte	.LASF656
 8674 308f 68       		.byte	0x68
 8675 3090 35       		.byte	0x35
 8676 3091 B5       		.byte	0xb5
 8677 3092 B4310000 		.4byte	0x31b4
 8678 3096 09       		.uleb128 0x9
 8679 3097 5F7000   		.ascii	"_p\000"
 8680 309a 35       		.byte	0x35
 8681 309b B6       		.byte	0xb6
 8682 309c DE2E0000 		.4byte	0x2ede
 8683 30a0 00       		.byte	0
 8684 30a1 09       		.uleb128 0x9
 8685 30a2 5F7200   		.ascii	"_r\000"
 8686 30a5 35       		.byte	0x35
 8687 30a6 B7       		.byte	0xb7
 8688 30a7 3A000000 		.4byte	0x3a
 8689 30ab 04       		.byte	0x4
 8690 30ac 09       		.uleb128 0x9
 8691 30ad 5F7700   		.ascii	"_w\000"
 8692 30b0 35       		.byte	0x35
 8693 30b1 B8       		.byte	0xb8
 8694 30b2 3A000000 		.4byte	0x3a
 8695 30b6 08       		.byte	0x8
 8696 30b7 08       		.uleb128 0x8
 8697 30b8 C3010000 		.4byte	.LASF630
 8698 30bc 35       		.byte	0x35
 8699 30bd B9       		.byte	0xb9
 8700 30be 78000000 		.4byte	0x78
 8701 30c2 0C       		.byte	0xc
 8702 30c3 08       		.uleb128 0x8
 8703 30c4 2B160000 		.4byte	.LASF631
 8704 30c8 35       		.byte	0x35
 8705 30c9 BA       		.byte	0xba
 8706 30ca 78000000 		.4byte	0x78
 8707 30ce 0E       		.byte	0xe
 8708 30cf 09       		.uleb128 0x9
 8709 30d0 5F626600 		.ascii	"_bf\000"
 8710 30d4 35       		.byte	0x35
 8711 30d5 BB       		.byte	0xbb
 8712 30d6 B92E0000 		.4byte	0x2eb9
 8713 30da 10       		.byte	0x10
 8714 30db 08       		.uleb128 0x8
 8715 30dc B6030000 		.4byte	.LASF632
 8716 30e0 35       		.byte	0x35
 8717 30e1 BC       		.byte	0xbc
 8718 30e2 3A000000 		.4byte	0x3a
 8719 30e6 18       		.byte	0x18
ARM GAS  /tmp/ccQCTkSU.s 			page 154


 8720 30e7 08       		.uleb128 0x8
 8721 30e8 4D0F0000 		.4byte	.LASF633
 8722 30ec 35       		.byte	0x35
 8723 30ed BF       		.byte	0xbf
 8724 30ee 7F300000 		.4byte	0x307f
 8725 30f2 1C       		.byte	0x1c
 8726 30f3 08       		.uleb128 0x8
 8727 30f4 FE100000 		.4byte	.LASF657
 8728 30f8 35       		.byte	0x35
 8729 30f9 C3       		.byte	0xc3
 8730 30fa 4F030000 		.4byte	0x34f
 8731 30fe 20       		.byte	0x20
 8732 30ff 08       		.uleb128 0x8
 8733 3100 EF1C0000 		.4byte	.LASF658
 8734 3104 35       		.byte	0x35
 8735 3105 C5       		.byte	0xc5
 8736 3106 D2310000 		.4byte	0x31d2
 8737 310a 24       		.byte	0x24
 8738 310b 08       		.uleb128 0x8
 8739 310c 6A080000 		.4byte	.LASF659
 8740 3110 35       		.byte	0x35
 8741 3111 C7       		.byte	0xc7
 8742 3112 F6310000 		.4byte	0x31f6
 8743 3116 28       		.byte	0x28
 8744 3117 08       		.uleb128 0x8
 8745 3118 D40F0000 		.4byte	.LASF660
 8746 311c 35       		.byte	0x35
 8747 311d CA       		.byte	0xca
 8748 311e 1A320000 		.4byte	0x321a
 8749 3122 2C       		.byte	0x2c
 8750 3123 08       		.uleb128 0x8
 8751 3124 C3130000 		.4byte	.LASF661
 8752 3128 35       		.byte	0x35
 8753 3129 CB       		.byte	0xcb
 8754 312a 34320000 		.4byte	0x3234
 8755 312e 30       		.byte	0x30
 8756 312f 09       		.uleb128 0x9
 8757 3130 5F756200 		.ascii	"_ub\000"
 8758 3134 35       		.byte	0x35
 8759 3135 CE       		.byte	0xce
 8760 3136 B92E0000 		.4byte	0x2eb9
 8761 313a 34       		.byte	0x34
 8762 313b 09       		.uleb128 0x9
 8763 313c 5F757000 		.ascii	"_up\000"
 8764 3140 35       		.byte	0x35
 8765 3141 CF       		.byte	0xcf
 8766 3142 DE2E0000 		.4byte	0x2ede
 8767 3146 3C       		.byte	0x3c
 8768 3147 09       		.uleb128 0x9
 8769 3148 5F757200 		.ascii	"_ur\000"
 8770 314c 35       		.byte	0x35
 8771 314d D0       		.byte	0xd0
 8772 314e 3A000000 		.4byte	0x3a
 8773 3152 40       		.byte	0x40
 8774 3153 08       		.uleb128 0x8
 8775 3154 84150000 		.4byte	.LASF662
 8776 3158 35       		.byte	0x35
ARM GAS  /tmp/ccQCTkSU.s 			page 155


 8777 3159 D3       		.byte	0xd3
 8778 315a 3A320000 		.4byte	0x323a
 8779 315e 44       		.byte	0x44
 8780 315f 08       		.uleb128 0x8
 8781 3160 69020000 		.4byte	.LASF663
 8782 3164 35       		.byte	0x35
 8783 3165 D4       		.byte	0xd4
 8784 3166 4A320000 		.4byte	0x324a
 8785 316a 47       		.byte	0x47
 8786 316b 09       		.uleb128 0x9
 8787 316c 5F6C6200 		.ascii	"_lb\000"
 8788 3170 35       		.byte	0x35
 8789 3171 D7       		.byte	0xd7
 8790 3172 B92E0000 		.4byte	0x2eb9
 8791 3176 48       		.byte	0x48
 8792 3177 08       		.uleb128 0x8
 8793 3178 66150000 		.4byte	.LASF664
 8794 317c 35       		.byte	0x35
 8795 317d DA       		.byte	0xda
 8796 317e 3A000000 		.4byte	0x3a
 8797 3182 50       		.byte	0x50
 8798 3183 08       		.uleb128 0x8
 8799 3184 91100000 		.4byte	.LASF665
 8800 3188 35       		.byte	0x35
 8801 3189 DB       		.byte	0xdb
 8802 318a 952C0000 		.4byte	0x2c95
 8803 318e 54       		.byte	0x54
 8804 318f 08       		.uleb128 0x8
 8805 3190 63020000 		.4byte	.LASF666
 8806 3194 35       		.byte	0x35
 8807 3195 E2       		.byte	0xe2
 8808 3196 122D0000 		.4byte	0x2d12
 8809 319a 58       		.byte	0x58
 8810 319b 08       		.uleb128 0x8
 8811 319c C7000000 		.4byte	.LASF667
 8812 31a0 35       		.byte	0x35
 8813 31a1 E4       		.byte	0xe4
 8814 31a2 072D0000 		.4byte	0x2d07
 8815 31a6 5C       		.byte	0x5c
 8816 31a7 08       		.uleb128 0x8
 8817 31a8 531A0000 		.4byte	.LASF668
 8818 31ac 35       		.byte	0x35
 8819 31ad E5       		.byte	0xe5
 8820 31ae 3A000000 		.4byte	0x3a
 8821 31b2 64       		.byte	0x64
 8822 31b3 00       		.byte	0
 8823 31b4 20       		.uleb128 0x20
 8824 31b5 3A000000 		.4byte	0x3a
 8825 31b9 D2310000 		.4byte	0x31d2
 8826 31bd 0F       		.uleb128 0xf
 8827 31be 7F300000 		.4byte	0x307f
 8828 31c2 0F       		.uleb128 0xf
 8829 31c3 4F030000 		.4byte	0x34f
 8830 31c7 0F       		.uleb128 0xf
 8831 31c8 1D2D0000 		.4byte	0x2d1d
 8832 31cc 0F       		.uleb128 0xf
 8833 31cd 3A000000 		.4byte	0x3a
ARM GAS  /tmp/ccQCTkSU.s 			page 156


 8834 31d1 00       		.byte	0
 8835 31d2 0C       		.uleb128 0xc
 8836 31d3 04       		.byte	0x4
 8837 31d4 B4310000 		.4byte	0x31b4
 8838 31d8 20       		.uleb128 0x20
 8839 31d9 3A000000 		.4byte	0x3a
 8840 31dd F6310000 		.4byte	0x31f6
 8841 31e1 0F       		.uleb128 0xf
 8842 31e2 7F300000 		.4byte	0x307f
 8843 31e6 0F       		.uleb128 0xf
 8844 31e7 4F030000 		.4byte	0x34f
 8845 31eb 0F       		.uleb128 0xf
 8846 31ec 5E0D0000 		.4byte	0xd5e
 8847 31f0 0F       		.uleb128 0xf
 8848 31f1 3A000000 		.4byte	0x3a
 8849 31f5 00       		.byte	0
 8850 31f6 0C       		.uleb128 0xc
 8851 31f7 04       		.byte	0x4
 8852 31f8 D8310000 		.4byte	0x31d8
 8853 31fc 20       		.uleb128 0x20
 8854 31fd A02C0000 		.4byte	0x2ca0
 8855 3201 1A320000 		.4byte	0x321a
 8856 3205 0F       		.uleb128 0xf
 8857 3206 7F300000 		.4byte	0x307f
 8858 320a 0F       		.uleb128 0xf
 8859 320b 4F030000 		.4byte	0x34f
 8860 320f 0F       		.uleb128 0xf
 8861 3210 A02C0000 		.4byte	0x2ca0
 8862 3214 0F       		.uleb128 0xf
 8863 3215 3A000000 		.4byte	0x3a
 8864 3219 00       		.byte	0
 8865 321a 0C       		.uleb128 0xc
 8866 321b 04       		.byte	0x4
 8867 321c FC310000 		.4byte	0x31fc
 8868 3220 20       		.uleb128 0x20
 8869 3221 3A000000 		.4byte	0x3a
 8870 3225 34320000 		.4byte	0x3234
 8871 3229 0F       		.uleb128 0xf
 8872 322a 7F300000 		.4byte	0x307f
 8873 322e 0F       		.uleb128 0xf
 8874 322f 4F030000 		.4byte	0x34f
 8875 3233 00       		.byte	0
 8876 3234 0C       		.uleb128 0xc
 8877 3235 04       		.byte	0x4
 8878 3236 20320000 		.4byte	0x3220
 8879 323a 11       		.uleb128 0x11
 8880 323b 71000000 		.4byte	0x71
 8881 323f 4A320000 		.4byte	0x324a
 8882 3243 12       		.uleb128 0x12
 8883 3244 2C000000 		.4byte	0x2c
 8884 3248 02       		.byte	0x2
 8885 3249 00       		.byte	0
 8886 324a 11       		.uleb128 0x11
 8887 324b 71000000 		.4byte	0x71
 8888 324f 5A320000 		.4byte	0x325a
 8889 3253 12       		.uleb128 0x12
 8890 3254 2C000000 		.4byte	0x2c
ARM GAS  /tmp/ccQCTkSU.s 			page 157


 8891 3258 00       		.byte	0
 8892 3259 00       		.byte	0
 8893 325a 16       		.uleb128 0x16
 8894 325b 171C0000 		.4byte	.LASF669
 8895 325f 35       		.byte	0x35
 8896 3260 1F01     		.2byte	0x11f
 8897 3262 8A300000 		.4byte	0x308a
 8898 3266 0D       		.uleb128 0xd
 8899 3267 D9130000 		.4byte	.LASF670
 8900 326b 0C       		.byte	0xc
 8901 326c 35       		.byte	0x35
 8902 326d 2301     		.2byte	0x123
 8903 326f 9B320000 		.4byte	0x329b
 8904 3273 0B       		.uleb128 0xb
 8905 3274 070D0000 		.4byte	.LASF603
 8906 3278 35       		.byte	0x35
 8907 3279 2501     		.2byte	0x125
 8908 327b 9B320000 		.4byte	0x329b
 8909 327f 00       		.byte	0
 8910 3280 0B       		.uleb128 0xb
 8911 3281 F90B0000 		.4byte	.LASF671
 8912 3285 35       		.byte	0x35
 8913 3286 2601     		.2byte	0x126
 8914 3288 3A000000 		.4byte	0x3a
 8915 328c 04       		.byte	0x4
 8916 328d 0B       		.uleb128 0xb
 8917 328e 1A120000 		.4byte	.LASF672
 8918 3292 35       		.byte	0x35
 8919 3293 2701     		.2byte	0x127
 8920 3295 A1320000 		.4byte	0x32a1
 8921 3299 08       		.byte	0x8
 8922 329a 00       		.byte	0
 8923 329b 0C       		.uleb128 0xc
 8924 329c 04       		.byte	0x4
 8925 329d 66320000 		.4byte	0x3266
 8926 32a1 0C       		.uleb128 0xc
 8927 32a2 04       		.byte	0x4
 8928 32a3 5A320000 		.4byte	0x325a
 8929 32a7 0D       		.uleb128 0xd
 8930 32a8 191D0000 		.4byte	.LASF673
 8931 32ac 18       		.byte	0x18
 8932 32ad 35       		.byte	0x35
 8933 32ae 3F01     		.2byte	0x13f
 8934 32b0 E9320000 		.4byte	0x32e9
 8935 32b4 0B       		.uleb128 0xb
 8936 32b5 CE0F0000 		.4byte	.LASF674
 8937 32b9 35       		.byte	0x35
 8938 32ba 4001     		.2byte	0x140
 8939 32bc E9320000 		.4byte	0x32e9
 8940 32c0 00       		.byte	0
 8941 32c1 0B       		.uleb128 0xb
 8942 32c2 C31C0000 		.4byte	.LASF675
 8943 32c6 35       		.byte	0x35
 8944 32c7 4101     		.2byte	0x141
 8945 32c9 E9320000 		.4byte	0x32e9
 8946 32cd 06       		.byte	0x6
 8947 32ce 0B       		.uleb128 0xb
ARM GAS  /tmp/ccQCTkSU.s 			page 158


 8948 32cf 38030000 		.4byte	.LASF676
 8949 32d3 35       		.byte	0x35
 8950 32d4 4201     		.2byte	0x142
 8951 32d6 8A000000 		.4byte	0x8a
 8952 32da 0C       		.byte	0xc
 8953 32db 0B       		.uleb128 0xb
 8954 32dc AC120000 		.4byte	.LASF677
 8955 32e0 35       		.byte	0x35
 8956 32e1 4501     		.2byte	0x145
 8957 32e3 25000000 		.4byte	0x25
 8958 32e7 10       		.byte	0x10
 8959 32e8 00       		.byte	0
 8960 32e9 11       		.uleb128 0x11
 8961 32ea 8A000000 		.4byte	0x8a
 8962 32ee F9320000 		.4byte	0x32f9
 8963 32f2 12       		.uleb128 0x12
 8964 32f3 2C000000 		.4byte	0x2c
 8965 32f7 02       		.byte	0x2
 8966 32f8 00       		.byte	0
 8967 32f9 0D       		.uleb128 0xd
 8968 32fa 75060000 		.4byte	.LASF678
 8969 32fe 10       		.byte	0x10
 8970 32ff 35       		.byte	0x35
 8971 3300 5801     		.2byte	0x158
 8972 3302 3B330000 		.4byte	0x333b
 8973 3306 0B       		.uleb128 0xb
 8974 3307 C8060000 		.4byte	.LASF679
 8975 330b 35       		.byte	0x35
 8976 330c 5B01     		.2byte	0x15b
 8977 330e 812D0000 		.4byte	0x2d81
 8978 3312 00       		.byte	0
 8979 3313 0B       		.uleb128 0xb
 8980 3314 B1060000 		.4byte	.LASF680
 8981 3318 35       		.byte	0x35
 8982 3319 5C01     		.2byte	0x15c
 8983 331b 3A000000 		.4byte	0x3a
 8984 331f 04       		.byte	0x4
 8985 3320 0B       		.uleb128 0xb
 8986 3321 6F170000 		.4byte	.LASF681
 8987 3325 35       		.byte	0x35
 8988 3326 5D01     		.2byte	0x15d
 8989 3328 812D0000 		.4byte	0x2d81
 8990 332c 08       		.byte	0x8
 8991 332d 0B       		.uleb128 0xb
 8992 332e 65100000 		.4byte	.LASF682
 8993 3332 35       		.byte	0x35
 8994 3333 5E01     		.2byte	0x15e
 8995 3335 3B330000 		.4byte	0x333b
 8996 3339 0C       		.byte	0xc
 8997 333a 00       		.byte	0
 8998 333b 0C       		.uleb128 0xc
 8999 333c 04       		.byte	0x4
 9000 333d 812D0000 		.4byte	0x2d81
 9001 3341 0D       		.uleb128 0xd
 9002 3342 4F140000 		.4byte	.LASF683
 9003 3346 50       		.byte	0x50
 9004 3347 35       		.byte	0x35
ARM GAS  /tmp/ccQCTkSU.s 			page 159


 9005 3348 6201     		.2byte	0x162
 9006 334a DE330000 		.4byte	0x33de
 9007 334e 0B       		.uleb128 0xb
 9008 334f A30F0000 		.4byte	.LASF684
 9009 3353 35       		.byte	0x35
 9010 3354 6501     		.2byte	0x165
 9011 3356 1D2D0000 		.4byte	0x2d1d
 9012 335a 00       		.byte	0
 9013 335b 0B       		.uleb128 0xb
 9014 335c 98150000 		.4byte	.LASF685
 9015 3360 35       		.byte	0x35
 9016 3361 6601     		.2byte	0x166
 9017 3363 072D0000 		.4byte	0x2d07
 9018 3367 04       		.byte	0x4
 9019 3368 0B       		.uleb128 0xb
 9020 3369 F9110000 		.4byte	.LASF686
 9021 336d 35       		.byte	0x35
 9022 336e 6701     		.2byte	0x167
 9023 3370 072D0000 		.4byte	0x2d07
 9024 3374 0C       		.byte	0xc
 9025 3375 0B       		.uleb128 0xb
 9026 3376 DB040000 		.4byte	.LASF687
 9027 337a 35       		.byte	0x35
 9028 337b 6801     		.2byte	0x168
 9029 337d 072D0000 		.4byte	0x2d07
 9030 3381 14       		.byte	0x14
 9031 3382 0B       		.uleb128 0xb
 9032 3383 C9100000 		.4byte	.LASF688
 9033 3387 35       		.byte	0x35
 9034 3388 6901     		.2byte	0x169
 9035 338a 41100000 		.4byte	0x1041
 9036 338e 1C       		.byte	0x1c
 9037 338f 0B       		.uleb128 0xb
 9038 3390 CF140000 		.4byte	.LASF689
 9039 3394 35       		.byte	0x35
 9040 3395 6A01     		.2byte	0x16a
 9041 3397 3A000000 		.4byte	0x3a
 9042 339b 24       		.byte	0x24
 9043 339c 0B       		.uleb128 0xb
 9044 339d 5C090000 		.4byte	.LASF690
 9045 33a1 35       		.byte	0x35
 9046 33a2 6B01     		.2byte	0x16b
 9047 33a4 072D0000 		.4byte	0x2d07
 9048 33a8 28       		.byte	0x28
 9049 33a9 0B       		.uleb128 0xb
 9050 33aa 37000000 		.4byte	.LASF691
 9051 33ae 35       		.byte	0x35
 9052 33af 6C01     		.2byte	0x16c
 9053 33b1 072D0000 		.4byte	0x2d07
 9054 33b5 30       		.byte	0x30
 9055 33b6 0B       		.uleb128 0xb
 9056 33b7 B6070000 		.4byte	.LASF692
 9057 33bb 35       		.byte	0x35
 9058 33bc 6D01     		.2byte	0x16d
 9059 33be 072D0000 		.4byte	0x2d07
 9060 33c2 38       		.byte	0x38
 9061 33c3 0B       		.uleb128 0xb
ARM GAS  /tmp/ccQCTkSU.s 			page 160


 9062 33c4 8E0E0000 		.4byte	.LASF693
 9063 33c8 35       		.byte	0x35
 9064 33c9 6E01     		.2byte	0x16e
 9065 33cb 072D0000 		.4byte	0x2d07
 9066 33cf 40       		.byte	0x40
 9067 33d0 0B       		.uleb128 0xb
 9068 33d1 40110000 		.4byte	.LASF694
 9069 33d5 35       		.byte	0x35
 9070 33d6 6F01     		.2byte	0x16f
 9071 33d8 072D0000 		.4byte	0x2d07
 9072 33dc 48       		.byte	0x48
 9073 33dd 00       		.byte	0
 9074 33de 2B       		.uleb128 0x2b
 9075 33df AE150000 		.4byte	.LASF724
 9076 33e3 0C       		.uleb128 0xc
 9077 33e4 04       		.byte	0x4
 9078 33e5 DE330000 		.4byte	0x33de
 9079 33e9 0C       		.uleb128 0xc
 9080 33ea 04       		.byte	0x4
 9081 33eb F9320000 		.4byte	0x32f9
 9082 33ef 0E       		.uleb128 0xe
 9083 33f0 FA330000 		.4byte	0x33fa
 9084 33f4 0F       		.uleb128 0xf
 9085 33f5 7F300000 		.4byte	0x307f
 9086 33f9 00       		.byte	0
 9087 33fa 0C       		.uleb128 0xc
 9088 33fb 04       		.byte	0x4
 9089 33fc EF330000 		.4byte	0x33ef
 9090 3400 0C       		.uleb128 0xc
 9091 3401 04       		.byte	0x4
 9092 3402 A7320000 		.4byte	0x32a7
 9093 3406 0C       		.uleb128 0xc
 9094 3407 04       		.byte	0x4
 9095 3408 972D0000 		.4byte	0x2d97
 9096 340c 0E       		.uleb128 0xe
 9097 340d 17340000 		.4byte	0x3417
 9098 3411 0F       		.uleb128 0xf
 9099 3412 3A000000 		.4byte	0x3a
 9100 3416 00       		.byte	0
 9101 3417 0C       		.uleb128 0xc
 9102 3418 04       		.byte	0x4
 9103 3419 1D340000 		.4byte	0x341d
 9104 341d 0C       		.uleb128 0xc
 9105 341e 04       		.byte	0x4
 9106 341f 0C340000 		.4byte	0x340c
 9107 3423 0C       		.uleb128 0xc
 9108 3424 04       		.byte	0x4
 9109 3425 41330000 		.4byte	0x3341
 9110 3429 13       		.uleb128 0x13
 9111 342a E2070000 		.4byte	.LASF695
 9112 342e 35       		.byte	0x35
 9113 342f CA01     		.2byte	0x1ca
 9114 3431 4E2F0000 		.4byte	0x2f4e
 9115 3435 13       		.uleb128 0x13
 9116 3436 DF190000 		.4byte	.LASF696
 9117 343a 35       		.byte	0x35
 9118 343b CB01     		.2byte	0x1cb
ARM GAS  /tmp/ccQCTkSU.s 			page 161


 9119 343d 4E2F0000 		.4byte	0x2f4e
 9120 3441 13       		.uleb128 0x13
 9121 3442 35190000 		.4byte	.LASF697
 9122 3446 35       		.byte	0x35
 9123 3447 CC01     		.2byte	0x1cc
 9124 3449 4E2F0000 		.4byte	0x2f4e
 9125 344d 13       		.uleb128 0x13
 9126 344e 5A150000 		.4byte	.LASF698
 9127 3452 35       		.byte	0x35
 9128 3453 2E03     		.2byte	0x32e
 9129 3455 7F300000 		.4byte	0x307f
 9130 3459 13       		.uleb128 0x13
 9131 345a E6170000 		.4byte	.LASF699
 9132 345e 35       		.byte	0x35
 9133 345f 2F03     		.2byte	0x32f
 9134 3461 85300000 		.4byte	0x3085
 9135 3465 13       		.uleb128 0x13
 9136 3466 52010000 		.4byte	.LASF700
 9137 346a 35       		.byte	0x35
 9138 346b 4103     		.2byte	0x341
 9139 346d 9D2E0000 		.4byte	0x2e9d
 9140 3471 02       		.uleb128 0x2
 9141 3472 04       		.byte	0x4
 9142 3473 04       		.byte	0x4
 9143 3474 D2070000 		.4byte	.LASF701
 9144 3478 05       		.uleb128 0x5
 9145 3479 33000000 		.4byte	0x33
 9146 347d 11       		.uleb128 0x11
 9147 347e A3000000 		.4byte	0xa3
 9148 3482 8D340000 		.4byte	0x348d
 9149 3486 12       		.uleb128 0x12
 9150 3487 2C000000 		.4byte	0x2c
 9151 348b 08       		.byte	0x8
 9152 348c 00       		.byte	0
 9153 348d 06       		.uleb128 0x6
 9154 348e 7D340000 		.4byte	0x347d
 9155 3492 2C       		.uleb128 0x2c
 9156 3493 86030000 		.4byte	.LASF704
 9157 3497 01       		.byte	0x1
 9158 3498 60       		.byte	0x60
 9159 3499 8D340000 		.4byte	0x348d
 9160 349d 05       		.uleb128 0x5
 9161 349e 03       		.byte	0x3
 9162 349f 00000000 		.4byte	pow10
 9163 34a3 2D       		.uleb128 0x2d
 9164 34a4 99020000 		.4byte	.LASF715
 9165 34a8 01       		.byte	0x1
 9166 34a9 0102     		.2byte	0x201
 9167 34ab 3A000000 		.4byte	0x3a
 9168 34af 01       		.byte	0x1
 9169 34b0 13350000 		.4byte	0x3513
 9170 34b4 2E       		.uleb128 0x2e
 9171 34b5 73747200 		.ascii	"str\000"
 9172 34b9 01       		.byte	0x1
 9173 34ba 0102     		.2byte	0x201
 9174 34bc 1D2D0000 		.4byte	0x2d1d
 9175 34c0 2F       		.uleb128 0x2f
ARM GAS  /tmp/ccQCTkSU.s 			page 162


 9176 34c1 260A0000 		.4byte	.LASF164
 9177 34c5 01       		.byte	0x1
 9178 34c6 0102     		.2byte	0x201
 9179 34c8 41000000 		.4byte	0x41
 9180 34cc 2E       		.uleb128 0x2e
 9181 34cd 666D7400 		.ascii	"fmt\000"
 9182 34d1 01       		.byte	0x1
 9183 34d2 0102     		.2byte	0x201
 9184 34d4 5E0D0000 		.4byte	0xd5e
 9185 34d8 2E       		.uleb128 0x2e
 9186 34d9 617000   		.ascii	"ap\000"
 9187 34dc 01       		.byte	0x1
 9188 34dd 0102     		.2byte	0x201
 9189 34df DB2B0000 		.4byte	0x2bdb
 9190 34e3 30       		.uleb128 0x30
 9191 34e4 6D7300   		.ascii	"ms\000"
 9192 34e7 01       		.byte	0x1
 9193 34e8 0302     		.2byte	0x203
 9194 34ea 7F2C0000 		.4byte	0x2c7f
 9195 34ee 30       		.uleb128 0x30
 9196 34ef 63687000 		.ascii	"chp\000"
 9197 34f3 01       		.byte	0x1
 9198 34f4 0402     		.2byte	0x204
 9199 34f6 13350000 		.4byte	0x3513
 9200 34fa 31       		.uleb128 0x31
 9201 34fb 6F150000 		.4byte	.LASF702
 9202 34ff 01       		.byte	0x1
 9203 3500 0502     		.2byte	0x205
 9204 3502 41000000 		.4byte	0x41
 9205 3506 31       		.uleb128 0x31
 9206 3507 1D1A0000 		.4byte	.LASF703
 9207 350b 01       		.byte	0x1
 9208 350c 0602     		.2byte	0x206
 9209 350e 3A000000 		.4byte	0x3a
 9210 3512 00       		.byte	0
 9211 3513 0C       		.uleb128 0xc
 9212 3514 04       		.byte	0x4
 9213 3515 93120000 		.4byte	0x1293
 9214 3519 32       		.uleb128 0x32
 9215 351a 4C020000 		.4byte	.LASF705
 9216 351e 01       		.byte	0x1
 9217 351f D701     		.2byte	0x1d7
 9218 3521 3A000000 		.4byte	0x3a
 9219 3525 00000000 		.4byte	.LFB332
 9220 3529 5E000000 		.4byte	.LFE332-.LFB332
 9221 352d 01       		.uleb128 0x1
 9222 352e 9C       		.byte	0x9c
 9223 352f 63360000 		.4byte	0x3663
 9224 3533 33       		.uleb128 0x33
 9225 3534 73747200 		.ascii	"str\000"
 9226 3538 01       		.byte	0x1
 9227 3539 D701     		.2byte	0x1d7
 9228 353b 1D2D0000 		.4byte	0x2d1d
 9229 353f 00000000 		.4byte	.LLST69
 9230 3543 34       		.uleb128 0x34
 9231 3544 260A0000 		.4byte	.LASF164
 9232 3548 01       		.byte	0x1
ARM GAS  /tmp/ccQCTkSU.s 			page 163


 9233 3549 D701     		.2byte	0x1d7
 9234 354b 41000000 		.4byte	0x41
 9235 354f 50000000 		.4byte	.LLST70
 9236 3553 35       		.uleb128 0x35
 9237 3554 666D7400 		.ascii	"fmt\000"
 9238 3558 01       		.byte	0x1
 9239 3559 D701     		.2byte	0x1d7
 9240 355b 5E0D0000 		.4byte	0xd5e
 9241 355f 02       		.uleb128 0x2
 9242 3560 91       		.byte	0x91
 9243 3561 78       		.sleb128 -8
 9244 3562 36       		.uleb128 0x36
 9245 3563 37       		.uleb128 0x37
 9246 3564 617000   		.ascii	"ap\000"
 9247 3567 01       		.byte	0x1
 9248 3568 D901     		.2byte	0x1d9
 9249 356a DB2B0000 		.4byte	0x2bdb
 9250 356e 02       		.uleb128 0x2
 9251 356f 91       		.byte	0x91
 9252 3570 48       		.sleb128 -56
 9253 3571 31       		.uleb128 0x31
 9254 3572 1D1A0000 		.4byte	.LASF703
 9255 3576 01       		.byte	0x1
 9256 3577 DA01     		.2byte	0x1da
 9257 3579 3A000000 		.4byte	0x3a
 9258 357d 38       		.uleb128 0x38
 9259 357e A3340000 		.4byte	0x34a3
 9260 3582 10000000 		.4byte	.LBB120
 9261 3586 B0010000 		.4byte	.Ldebug_ranges0+0x1b0
 9262 358a 01       		.byte	0x1
 9263 358b DE01     		.2byte	0x1de
 9264 358d 39       		.uleb128 0x39
 9265 358e D8340000 		.4byte	0x34d8
 9266 3592 3A       		.uleb128 0x3a
 9267 3593 CC340000 		.4byte	0x34cc
 9268 3597 A0000000 		.4byte	.LLST71
 9269 359b 3A       		.uleb128 0x3a
 9270 359c C0340000 		.4byte	0x34c0
 9271 35a0 D6000000 		.4byte	.LLST72
 9272 35a4 3A       		.uleb128 0x3a
 9273 35a5 B4340000 		.4byte	0x34b4
 9274 35a9 18010000 		.4byte	.LLST73
 9275 35ad 3B       		.uleb128 0x3b
 9276 35ae B0010000 		.4byte	.Ldebug_ranges0+0x1b0
 9277 35b2 3C       		.uleb128 0x3c
 9278 35b3 E3340000 		.4byte	0x34e3
 9279 35b7 02       		.uleb128 0x2
 9280 35b8 91       		.byte	0x91
 9281 35b9 4C       		.sleb128 -52
 9282 35ba 3D       		.uleb128 0x3d
 9283 35bb EE340000 		.4byte	0x34ee
 9284 35bf 5A010000 		.4byte	.LLST74
 9285 35c3 3D       		.uleb128 0x3d
 9286 35c4 FA340000 		.4byte	0x34fa
 9287 35c8 B0010000 		.4byte	.LLST75
 9288 35cc 3D       		.uleb128 0x3d
 9289 35cd 06350000 		.4byte	0x3506
ARM GAS  /tmp/ccQCTkSU.s 			page 164


 9290 35d1 E9010000 		.4byte	.LLST76
 9291 35d5 3E       		.uleb128 0x3e
 9292 35d6 20000000 		.4byte	.LVL391
 9293 35da 143D0000 		.4byte	0x3d14
 9294 35de FB350000 		.4byte	0x35fb
 9295 35e2 3F       		.uleb128 0x3f
 9296 35e3 01       		.uleb128 0x1
 9297 35e4 50       		.byte	0x50
 9298 35e5 03       		.uleb128 0x3
 9299 35e6 91       		.byte	0x91
 9300 35e7 BC7F     		.sleb128 -68
 9301 35e9 3F       		.uleb128 0x3f
 9302 35ea 01       		.uleb128 0x1
 9303 35eb 51       		.byte	0x51
 9304 35ec 02       		.uleb128 0x2
 9305 35ed 76       		.byte	0x76
 9306 35ee 00       		.sleb128 0
 9307 35ef 3F       		.uleb128 0x3f
 9308 35f0 01       		.uleb128 0x1
 9309 35f1 52       		.byte	0x52
 9310 35f2 02       		.uleb128 0x2
 9311 35f3 75       		.byte	0x75
 9312 35f4 7F       		.sleb128 -1
 9313 35f5 3F       		.uleb128 0x3f
 9314 35f6 01       		.uleb128 0x1
 9315 35f7 53       		.byte	0x53
 9316 35f8 01       		.uleb128 0x1
 9317 35f9 30       		.byte	0x30
 9318 35fa 00       		.byte	0
 9319 35fb 3E       		.uleb128 0x3e
 9320 35fc 2A000000 		.4byte	.LVL393
 9321 3600 D8360000 		.4byte	0x36d8
 9322 3604 1C360000 		.4byte	0x361c
 9323 3608 3F       		.uleb128 0x3f
 9324 3609 01       		.uleb128 0x1
 9325 360a 50       		.byte	0x50
 9326 360b 03       		.uleb128 0x3
 9327 360c 91       		.byte	0x91
 9328 360d BC7F     		.sleb128 -68
 9329 360f 3F       		.uleb128 0x3f
 9330 3610 01       		.uleb128 0x1
 9331 3611 51       		.byte	0x51
 9332 3612 02       		.uleb128 0x2
 9333 3613 77       		.byte	0x77
 9334 3614 00       		.sleb128 0
 9335 3615 3F       		.uleb128 0x3f
 9336 3616 01       		.uleb128 0x1
 9337 3617 52       		.byte	0x52
 9338 3618 02       		.uleb128 0x2
 9339 3619 74       		.byte	0x74
 9340 361a 00       		.sleb128 0
 9341 361b 00       		.byte	0
 9342 361c 3E       		.uleb128 0x3e
 9343 361d 4A000000 		.4byte	.LVL399
 9344 3621 143D0000 		.4byte	0x3d14
 9345 3625 43360000 		.4byte	0x3643
 9346 3629 3F       		.uleb128 0x3f
ARM GAS  /tmp/ccQCTkSU.s 			page 165


 9347 362a 01       		.uleb128 0x1
 9348 362b 50       		.byte	0x50
 9349 362c 03       		.uleb128 0x3
 9350 362d 91       		.byte	0x91
 9351 362e BC7F     		.sleb128 -68
 9352 3630 3F       		.uleb128 0x3f
 9353 3631 01       		.uleb128 0x1
 9354 3632 51       		.byte	0x51
 9355 3633 02       		.uleb128 0x2
 9356 3634 76       		.byte	0x76
 9357 3635 00       		.sleb128 0
 9358 3636 3F       		.uleb128 0x3f
 9359 3637 01       		.uleb128 0x1
 9360 3638 52       		.byte	0x52
 9361 3639 02       		.uleb128 0x2
 9362 363a 75       		.byte	0x75
 9363 363b 00       		.sleb128 0
 9364 363c 3F       		.uleb128 0x3f
 9365 363d 01       		.uleb128 0x1
 9366 363e 53       		.byte	0x53
 9367 363f 02       		.uleb128 0x2
 9368 3640 75       		.byte	0x75
 9369 3641 00       		.sleb128 0
 9370 3642 00       		.byte	0
 9371 3643 40       		.uleb128 0x40
 9372 3644 54000000 		.4byte	.LVL401
 9373 3648 D8360000 		.4byte	0x36d8
 9374 364c 3F       		.uleb128 0x3f
 9375 364d 01       		.uleb128 0x1
 9376 364e 50       		.byte	0x50
 9377 364f 03       		.uleb128 0x3
 9378 3650 91       		.byte	0x91
 9379 3651 BC7F     		.sleb128 -68
 9380 3653 3F       		.uleb128 0x3f
 9381 3654 01       		.uleb128 0x1
 9382 3655 51       		.byte	0x51
 9383 3656 02       		.uleb128 0x2
 9384 3657 77       		.byte	0x77
 9385 3658 00       		.sleb128 0
 9386 3659 3F       		.uleb128 0x3f
 9387 365a 01       		.uleb128 0x1
 9388 365b 52       		.byte	0x52
 9389 365c 02       		.uleb128 0x2
 9390 365d 74       		.byte	0x74
 9391 365e 00       		.sleb128 0
 9392 365f 00       		.byte	0
 9393 3660 00       		.byte	0
 9394 3661 00       		.byte	0
 9395 3662 00       		.byte	0
 9396 3663 32       		.uleb128 0x32
 9397 3664 ED130000 		.4byte	.LASF706
 9398 3668 01       		.byte	0x1
 9399 3669 B001     		.2byte	0x1b0
 9400 366b 3A000000 		.4byte	0x3a
 9401 366f 00000000 		.4byte	.LFB331
 9402 3673 1C000000 		.4byte	.LFE331-.LFB331
 9403 3677 01       		.uleb128 0x1
ARM GAS  /tmp/ccQCTkSU.s 			page 166


 9404 3678 9C       		.byte	0x9c
 9405 3679 D8360000 		.4byte	0x36d8
 9406 367d 33       		.uleb128 0x33
 9407 367e 63687000 		.ascii	"chp\000"
 9408 3682 01       		.byte	0x1
 9409 3683 B001     		.2byte	0x1b0
 9410 3685 13350000 		.4byte	0x3513
 9411 3689 07020000 		.4byte	.LLST68
 9412 368d 35       		.uleb128 0x35
 9413 368e 666D7400 		.ascii	"fmt\000"
 9414 3692 01       		.byte	0x1
 9415 3693 B001     		.2byte	0x1b0
 9416 3695 5E0D0000 		.4byte	0xd5e
 9417 3699 02       		.uleb128 0x2
 9418 369a 91       		.byte	0x91
 9419 369b 74       		.sleb128 -12
 9420 369c 36       		.uleb128 0x36
 9421 369d 37       		.uleb128 0x37
 9422 369e 617000   		.ascii	"ap\000"
 9423 36a1 01       		.byte	0x1
 9424 36a2 B201     		.2byte	0x1b2
 9425 36a4 DB2B0000 		.4byte	0x2bdb
 9426 36a8 02       		.uleb128 0x2
 9427 36a9 91       		.byte	0x91
 9428 36aa 6C       		.sleb128 -20
 9429 36ab 41       		.uleb128 0x41
 9430 36ac F70C0000 		.4byte	.LASF707
 9431 36b0 01       		.byte	0x1
 9432 36b1 B301     		.2byte	0x1b3
 9433 36b3 3A000000 		.4byte	0x3a
 9434 36b7 01       		.uleb128 0x1
 9435 36b8 50       		.byte	0x50
 9436 36b9 40       		.uleb128 0x40
 9437 36ba 12000000 		.4byte	.LVL384
 9438 36be D8360000 		.4byte	0x36d8
 9439 36c2 3F       		.uleb128 0x3f
 9440 36c3 01       		.uleb128 0x1
 9441 36c4 50       		.byte	0x50
 9442 36c5 03       		.uleb128 0x3
 9443 36c6 F3       		.byte	0xf3
 9444 36c7 01       		.uleb128 0x1
 9445 36c8 50       		.byte	0x50
 9446 36c9 3F       		.uleb128 0x3f
 9447 36ca 01       		.uleb128 0x1
 9448 36cb 51       		.byte	0x51
 9449 36cc 03       		.uleb128 0x3
 9450 36cd 91       		.byte	0x91
 9451 36ce 5C       		.sleb128 -36
 9452 36cf 06       		.byte	0x6
 9453 36d0 3F       		.uleb128 0x3f
 9454 36d1 01       		.uleb128 0x1
 9455 36d2 52       		.byte	0x52
 9456 36d3 02       		.uleb128 0x2
 9457 36d4 91       		.byte	0x91
 9458 36d5 60       		.sleb128 -32
 9459 36d6 00       		.byte	0
 9460 36d7 00       		.byte	0
ARM GAS  /tmp/ccQCTkSU.s 			page 167


 9461 36d8 42       		.uleb128 0x42
 9462 36d9 E9040000 		.4byte	.LASF708
 9463 36dd 01       		.byte	0x1
 9464 36de E8       		.byte	0xe8
 9465 36df 3A000000 		.4byte	0x3a
 9466 36e3 00000000 		.4byte	.LFB330
 9467 36e7 D4050000 		.4byte	.LFE330-.LFB330
 9468 36eb 01       		.uleb128 0x1
 9469 36ec 9C       		.byte	0x9c
 9470 36ed 57390000 		.4byte	0x3957
 9471 36f1 43       		.uleb128 0x43
 9472 36f2 63687000 		.ascii	"chp\000"
 9473 36f6 01       		.byte	0x1
 9474 36f7 E8       		.byte	0xe8
 9475 36f8 13350000 		.4byte	0x3513
 9476 36fc 28020000 		.4byte	.LLST38
 9477 3700 43       		.uleb128 0x43
 9478 3701 666D7400 		.ascii	"fmt\000"
 9479 3705 01       		.byte	0x1
 9480 3706 E8       		.byte	0xe8
 9481 3707 5E0D0000 		.4byte	0xd5e
 9482 370b 46020000 		.4byte	.LLST39
 9483 370f 43       		.uleb128 0x43
 9484 3710 617000   		.ascii	"ap\000"
 9485 3713 01       		.byte	0x1
 9486 3714 E8       		.byte	0xe8
 9487 3715 DB2B0000 		.4byte	0x2bdb
 9488 3719 A2030000 		.4byte	.LLST40
 9489 371d 44       		.uleb128 0x44
 9490 371e 7000     		.ascii	"p\000"
 9491 3720 01       		.byte	0x1
 9492 3721 EA       		.byte	0xea
 9493 3722 1D2D0000 		.4byte	0x2d1d
 9494 3726 6B050000 		.4byte	.LLST41
 9495 372a 44       		.uleb128 0x44
 9496 372b 7300     		.ascii	"s\000"
 9497 372d 01       		.byte	0x1
 9498 372e EA       		.byte	0xea
 9499 372f 1D2D0000 		.4byte	0x2d1d
 9500 3733 EA060000 		.4byte	.LLST42
 9501 3737 44       		.uleb128 0x44
 9502 3738 6300     		.ascii	"c\000"
 9503 373a 01       		.byte	0x1
 9504 373b EA       		.byte	0xea
 9505 373c 690D0000 		.4byte	0xd69
 9506 3740 68080000 		.4byte	.LLST43
 9507 3744 45       		.uleb128 0x45
 9508 3745 7A170000 		.4byte	.LASF709
 9509 3749 01       		.byte	0x1
 9510 374a EA       		.byte	0xea
 9511 374b 690D0000 		.4byte	0xd69
 9512 374f 4F090000 		.4byte	.LLST44
 9513 3753 44       		.uleb128 0x44
 9514 3754 6900     		.ascii	"i\000"
 9515 3756 01       		.byte	0x1
 9516 3757 EB       		.byte	0xeb
 9517 3758 3A000000 		.4byte	0x3a
ARM GAS  /tmp/ccQCTkSU.s 			page 168


 9518 375c E9090000 		.4byte	.LLST45
 9519 3760 45       		.uleb128 0x45
 9520 3761 21140000 		.4byte	.LASF710
 9521 3765 01       		.byte	0x1
 9522 3766 EB       		.byte	0xeb
 9523 3767 3A000000 		.4byte	0x3a
 9524 376b 140A0000 		.4byte	.LLST46
 9525 376f 45       		.uleb128 0x45
 9526 3770 74170000 		.4byte	.LASF711
 9527 3774 01       		.byte	0x1
 9528 3775 EB       		.byte	0xeb
 9529 3776 3A000000 		.4byte	0x3a
 9530 377a E80A0000 		.4byte	.LLST47
 9531 377e 44       		.uleb128 0x44
 9532 377f 6E00     		.ascii	"n\000"
 9533 3781 01       		.byte	0x1
 9534 3782 EC       		.byte	0xec
 9535 3783 3A000000 		.4byte	0x3a
 9536 3787 100C0000 		.4byte	.LLST48
 9537 378b 45       		.uleb128 0x45
 9538 378c BB1C0000 		.4byte	.LASF712
 9539 3790 01       		.byte	0x1
 9540 3791 ED       		.byte	0xed
 9541 3792 3E0F0000 		.4byte	0xf3e
 9542 3796 750C0000 		.4byte	.LLST49
 9543 379a 45       		.uleb128 0x45
 9544 379b 05090000 		.4byte	.LASF713
 9545 379f 01       		.byte	0x1
 9546 37a0 ED       		.byte	0xed
 9547 37a1 3E0F0000 		.4byte	0xf3e
 9548 37a5 380D0000 		.4byte	.LLST50
 9549 37a9 44       		.uleb128 0x44
 9550 37aa 6C00     		.ascii	"l\000"
 9551 37ac 01       		.byte	0x1
 9552 37ad EE       		.byte	0xee
 9553 37ae 9C000000 		.4byte	0x9c
 9554 37b2 7F0D0000 		.4byte	.LLST51
 9555 37b6 2C       		.uleb128 0x2c
 9556 37b7 35180000 		.4byte	.LASF714
 9557 37bb 01       		.byte	0x1
 9558 37bc F0       		.byte	0xf0
 9559 37bd 57390000 		.4byte	0x3957
 9560 37c1 02       		.uleb128 0x2
 9561 37c2 91       		.byte	0x91
 9562 37c3 40       		.sleb128 -64
 9563 37c4 46       		.uleb128 0x46
 9564 37c5 6A090000 		.4byte	.LASF725
 9565 37c9 01       		.byte	0x1
 9566 37ca 6A01     		.2byte	0x16a
 9567 37cc E2020000 		.4byte	.L222
 9568 37d0 47       		.uleb128 0x47
 9569 37d1 08010000 		.4byte	.Ldebug_ranges0+0x108
 9570 37d5 FE380000 		.4byte	0x38fe
 9571 37d9 37       		.uleb128 0x37
 9572 37da 6600     		.ascii	"f\000"
 9573 37dc 01       		.byte	0x1
 9574 37dd 5401     		.2byte	0x154
ARM GAS  /tmp/ccQCTkSU.s 			page 169


 9575 37df 78340000 		.4byte	0x3478
 9576 37e3 05       		.uleb128 0x5
 9577 37e4 03       		.byte	0x3
 9578 37e5 00000000 		.4byte	f.10757
 9579 37e9 48       		.uleb128 0x48
 9580 37ea AB390000 		.4byte	0x39ab
 9581 37ee E2020000 		.4byte	.LBB89
 9582 37f2 70010000 		.4byte	.Ldebug_ranges0+0x170
 9583 37f6 01       		.byte	0x1
 9584 37f7 6F01     		.2byte	0x16f
 9585 37f9 5F380000 		.4byte	0x385f
 9586 37fd 39       		.uleb128 0x39
 9587 37fe CF390000 		.4byte	0x39cf
 9588 3802 39       		.uleb128 0x39
 9589 3803 C4390000 		.4byte	0x39c4
 9590 3807 39       		.uleb128 0x39
 9591 3808 BB390000 		.4byte	0x39bb
 9592 380c 49       		.uleb128 0x49
 9593 380d DB390000 		.4byte	0x39db
 9594 3811 E2020000 		.4byte	.LBB90
 9595 3815 70010000 		.4byte	.Ldebug_ranges0+0x170
 9596 3819 01       		.byte	0x1
 9597 381a 5B       		.byte	0x5b
 9598 381b 39       		.uleb128 0x39
 9599 381c 0A3A0000 		.4byte	0x3a0a
 9600 3820 39       		.uleb128 0x39
 9601 3821 FF390000 		.4byte	0x39ff
 9602 3825 39       		.uleb128 0x39
 9603 3826 F4390000 		.4byte	0x39f4
 9604 382a 3A       		.uleb128 0x3a
 9605 382b EB390000 		.4byte	0x39eb
 9606 382f CD0D0000 		.4byte	.LLST52
 9607 3833 3B       		.uleb128 0x3b
 9608 3834 70010000 		.4byte	.Ldebug_ranges0+0x170
 9609 3838 3D       		.uleb128 0x3d
 9610 3839 153A0000 		.4byte	0x3a15
 9611 383d 070E0000 		.4byte	.LLST53
 9612 3841 3D       		.uleb128 0x3d
 9613 3842 1E3A0000 		.4byte	0x3a1e
 9614 3846 6D0E0000 		.4byte	.LLST54
 9615 384a 3D       		.uleb128 0x3d
 9616 384b 273A0000 		.4byte	0x3a27
 9617 384f E40E0000 		.4byte	.LLST55
 9618 3853 3D       		.uleb128 0x3d
 9619 3854 303A0000 		.4byte	0x3a30
 9620 3858 E40E0000 		.4byte	.LLST55
 9621 385c 00       		.byte	0
 9622 385d 00       		.byte	0
 9623 385e 00       		.byte	0
 9624 385f 48       		.uleb128 0x48
 9625 3860 AB390000 		.4byte	0x39ab
 9626 3864 F8030000 		.4byte	.LBB99
 9627 3868 98010000 		.4byte	.Ldebug_ranges0+0x198
 9628 386c 01       		.byte	0x1
 9629 386d 5101     		.2byte	0x151
 9630 386f ED380000 		.4byte	0x38ed
 9631 3873 3A       		.uleb128 0x3a
ARM GAS  /tmp/ccQCTkSU.s 			page 170


 9632 3874 CF390000 		.4byte	0x39cf
 9633 3878 0D0F0000 		.4byte	.LLST57
 9634 387c 3A       		.uleb128 0x3a
 9635 387d C4390000 		.4byte	0x39c4
 9636 3881 2D0F0000 		.4byte	.LLST58
 9637 3885 3A       		.uleb128 0x3a
 9638 3886 BB390000 		.4byte	0x39bb
 9639 388a 400F0000 		.4byte	.LLST59
 9640 388e 49       		.uleb128 0x49
 9641 388f DB390000 		.4byte	0x39db
 9642 3893 F8030000 		.4byte	.LBB100
 9643 3897 98010000 		.4byte	.Ldebug_ranges0+0x198
 9644 389b 01       		.byte	0x1
 9645 389c 5B       		.byte	0x5b
 9646 389d 3A       		.uleb128 0x3a
 9647 389e 0A3A0000 		.4byte	0x3a0a
 9648 38a2 5E0F0000 		.4byte	.LLST60
 9649 38a6 3A       		.uleb128 0x3a
 9650 38a7 FF390000 		.4byte	0x39ff
 9651 38ab 0D0F0000 		.4byte	.LLST57
 9652 38af 3A       		.uleb128 0x3a
 9653 38b0 F4390000 		.4byte	0x39f4
 9654 38b4 2D0F0000 		.4byte	.LLST58
 9655 38b8 3A       		.uleb128 0x3a
 9656 38b9 EB390000 		.4byte	0x39eb
 9657 38bd 7E0F0000 		.4byte	.LLST63
 9658 38c1 3B       		.uleb128 0x3b
 9659 38c2 98010000 		.4byte	.Ldebug_ranges0+0x198
 9660 38c6 3D       		.uleb128 0x3d
 9661 38c7 153A0000 		.4byte	0x3a15
 9662 38cb 32100000 		.4byte	.LLST64
 9663 38cf 3D       		.uleb128 0x3d
 9664 38d0 1E3A0000 		.4byte	0x3a1e
 9665 38d4 A2100000 		.4byte	.LLST65
 9666 38d8 3D       		.uleb128 0x3d
 9667 38d9 273A0000 		.4byte	0x3a27
 9668 38dd 6C110000 		.4byte	.LLST66
 9669 38e1 3D       		.uleb128 0x3d
 9670 38e2 303A0000 		.4byte	0x3a30
 9671 38e6 6C110000 		.4byte	.LLST66
 9672 38ea 00       		.byte	0
 9673 38eb 00       		.byte	0
 9674 38ec 00       		.byte	0
 9675 38ed 40       		.uleb128 0x40
 9676 38ee 36020000 		.4byte	.LVL252
 9677 38f2 67390000 		.4byte	0x3967
 9678 38f6 3F       		.uleb128 0x3f
 9679 38f7 01       		.uleb128 0x1
 9680 38f8 51       		.byte	0x51
 9681 38f9 02       		.uleb128 0x2
 9682 38fa 78       		.byte	0x78
 9683 38fb 00       		.sleb128 0
 9684 38fc 00       		.byte	0
 9685 38fd 00       		.byte	0
 9686 38fe 4A       		.uleb128 0x4a
 9687 38ff 28000000 		.4byte	.LVL208
 9688 3903 0E390000 		.4byte	0x390e
ARM GAS  /tmp/ccQCTkSU.s 			page 171


 9689 3907 3F       		.uleb128 0x3f
 9690 3908 01       		.uleb128 0x1
 9691 3909 50       		.byte	0x50
 9692 390a 02       		.uleb128 0x2
 9693 390b 75       		.byte	0x75
 9694 390c 00       		.sleb128 0
 9695 390d 00       		.byte	0
 9696 390e 4A       		.uleb128 0x4a
 9697 390f 8C020000 		.4byte	.LVL267
 9698 3913 24390000 		.4byte	0x3924
 9699 3917 3F       		.uleb128 0x3f
 9700 3918 01       		.uleb128 0x1
 9701 3919 50       		.byte	0x50
 9702 391a 02       		.uleb128 0x2
 9703 391b 75       		.byte	0x75
 9704 391c 00       		.sleb128 0
 9705 391d 3F       		.uleb128 0x3f
 9706 391e 01       		.uleb128 0x1
 9707 391f 51       		.byte	0x51
 9708 3920 02       		.uleb128 0x2
 9709 3921 77       		.byte	0x77
 9710 3922 00       		.sleb128 0
 9711 3923 00       		.byte	0
 9712 3924 4A       		.uleb128 0x4a
 9713 3925 B4020000 		.4byte	.LVL274
 9714 3929 34390000 		.4byte	0x3934
 9715 392d 3F       		.uleb128 0x3f
 9716 392e 01       		.uleb128 0x1
 9717 392f 50       		.byte	0x50
 9718 3930 02       		.uleb128 0x2
 9719 3931 75       		.byte	0x75
 9720 3932 00       		.sleb128 0
 9721 3933 00       		.byte	0
 9722 3934 4A       		.uleb128 0x4a
 9723 3935 D6020000 		.4byte	.LVL277
 9724 3939 4A390000 		.4byte	0x394a
 9725 393d 3F       		.uleb128 0x3f
 9726 393e 01       		.uleb128 0x1
 9727 393f 50       		.byte	0x50
 9728 3940 02       		.uleb128 0x2
 9729 3941 75       		.byte	0x75
 9730 3942 00       		.sleb128 0
 9731 3943 3F       		.uleb128 0x3f
 9732 3944 01       		.uleb128 0x1
 9733 3945 51       		.byte	0x51
 9734 3946 02       		.uleb128 0x2
 9735 3947 77       		.byte	0x77
 9736 3948 00       		.sleb128 0
 9737 3949 00       		.byte	0
 9738 394a 4B       		.uleb128 0x4b
 9739 394b CA030000 		.4byte	.LVL318
 9740 394f 3F       		.uleb128 0x3f
 9741 3950 01       		.uleb128 0x1
 9742 3951 50       		.byte	0x50
 9743 3952 02       		.uleb128 0x2
 9744 3953 75       		.byte	0x75
 9745 3954 00       		.sleb128 0
ARM GAS  /tmp/ccQCTkSU.s 			page 172


 9746 3955 00       		.byte	0
 9747 3956 00       		.byte	0
 9748 3957 11       		.uleb128 0x11
 9749 3958 690D0000 		.4byte	0xd69
 9750 395c 67390000 		.4byte	0x3967
 9751 3960 12       		.uleb128 0x12
 9752 3961 2C000000 		.4byte	0x2c
 9753 3965 16       		.byte	0x16
 9754 3966 00       		.byte	0
 9755 3967 4C       		.uleb128 0x4c
 9756 3968 6A0F0000 		.4byte	.LASF716
 9757 396c 01       		.byte	0x1
 9758 396d 7B       		.byte	0x7b
 9759 396e 1D2D0000 		.4byte	0x2d1d
 9760 3972 01       		.byte	0x1
 9761 3973 AB390000 		.4byte	0x39ab
 9762 3977 4D       		.uleb128 0x4d
 9763 3978 7000     		.ascii	"p\000"
 9764 397a 01       		.byte	0x1
 9765 397b 7B       		.byte	0x7b
 9766 397c 1D2D0000 		.4byte	0x2d1d
 9767 3980 4D       		.uleb128 0x4d
 9768 3981 6E756D00 		.ascii	"num\000"
 9769 3985 01       		.byte	0x1
 9770 3986 7B       		.byte	0x7b
 9771 3987 33000000 		.4byte	0x33
 9772 398b 4E       		.uleb128 0x4e
 9773 398c 21140000 		.4byte	.LASF710
 9774 3990 01       		.byte	0x1
 9775 3991 7B       		.byte	0x7b
 9776 3992 B3000000 		.4byte	0xb3
 9777 3996 4F       		.uleb128 0x4f
 9778 3997 4500     		.ascii	"E\000"
 9779 3999 01       		.byte	0x1
 9780 399a 8E       		.byte	0x8e
 9781 399b 3A000000 		.4byte	0x3a
 9782 399f 50       		.uleb128 0x50
 9783 39a0 4F       		.uleb128 0x4f
 9784 39a1 6C00     		.ascii	"l\000"
 9785 39a3 01       		.byte	0x1
 9786 39a4 AF       		.byte	0xaf
 9787 39a5 9C000000 		.4byte	0x9c
 9788 39a9 00       		.byte	0
 9789 39aa 00       		.byte	0
 9790 39ab 51       		.uleb128 0x51
 9791 39ac 91160000 		.4byte	.LASF718
 9792 39b0 01       		.byte	0x1
 9793 39b1 58       		.byte	0x58
 9794 39b2 1D2D0000 		.4byte	0x2d1d
 9795 39b6 01       		.byte	0x1
 9796 39b7 DB390000 		.4byte	0x39db
 9797 39bb 4D       		.uleb128 0x4d
 9798 39bc 7000     		.ascii	"p\000"
 9799 39be 01       		.byte	0x1
 9800 39bf 58       		.byte	0x58
 9801 39c0 1D2D0000 		.4byte	0x2d1d
 9802 39c4 4D       		.uleb128 0x4d
ARM GAS  /tmp/ccQCTkSU.s 			page 173


 9803 39c5 6E756D00 		.ascii	"num\000"
 9804 39c9 01       		.byte	0x1
 9805 39ca 58       		.byte	0x58
 9806 39cb 9C000000 		.4byte	0x9c
 9807 39cf 4E       		.uleb128 0x4e
 9808 39d0 99070000 		.4byte	.LASF717
 9809 39d4 01       		.byte	0x1
 9810 39d5 58       		.byte	0x58
 9811 39d6 2C000000 		.4byte	0x2c
 9812 39da 00       		.byte	0
 9813 39db 51       		.uleb128 0x51
 9814 39dc 180E0000 		.4byte	.LASF719
 9815 39e0 01       		.byte	0x1
 9816 39e1 32       		.byte	0x32
 9817 39e2 1D2D0000 		.4byte	0x2d1d
 9818 39e6 01       		.byte	0x1
 9819 39e7 3B3A0000 		.4byte	0x3a3b
 9820 39eb 4D       		.uleb128 0x4d
 9821 39ec 7000     		.ascii	"p\000"
 9822 39ee 01       		.byte	0x1
 9823 39ef 32       		.byte	0x32
 9824 39f0 1D2D0000 		.4byte	0x2d1d
 9825 39f4 4D       		.uleb128 0x4d
 9826 39f5 6E756D00 		.ascii	"num\000"
 9827 39f9 01       		.byte	0x1
 9828 39fa 33       		.byte	0x33
 9829 39fb 9C000000 		.4byte	0x9c
 9830 39ff 4E       		.uleb128 0x4e
 9831 3a00 99070000 		.4byte	.LASF717
 9832 3a04 01       		.byte	0x1
 9833 3a05 34       		.byte	0x34
 9834 3a06 2C000000 		.4byte	0x2c
 9835 3a0a 4E       		.uleb128 0x4e
 9836 3a0b D80D0000 		.4byte	.LASF720
 9837 3a0f 01       		.byte	0x1
 9838 3a10 35       		.byte	0x35
 9839 3a11 9C000000 		.4byte	0x9c
 9840 3a15 4F       		.uleb128 0x4f
 9841 3a16 6900     		.ascii	"i\000"
 9842 3a18 01       		.byte	0x1
 9843 3a19 37       		.byte	0x37
 9844 3a1a 3A000000 		.4byte	0x3a
 9845 3a1e 4F       		.uleb128 0x4f
 9846 3a1f 7100     		.ascii	"q\000"
 9847 3a21 01       		.byte	0x1
 9848 3a22 38       		.byte	0x38
 9849 3a23 1D2D0000 		.4byte	0x2d1d
 9850 3a27 4F       		.uleb128 0x4f
 9851 3a28 6C00     		.ascii	"l\000"
 9852 3a2a 01       		.byte	0x1
 9853 3a2b 39       		.byte	0x39
 9854 3a2c 9C000000 		.4byte	0x9c
 9855 3a30 4F       		.uleb128 0x4f
 9856 3a31 6C6C00   		.ascii	"ll\000"
 9857 3a34 01       		.byte	0x1
 9858 3a35 39       		.byte	0x39
 9859 3a36 9C000000 		.4byte	0x9c
ARM GAS  /tmp/ccQCTkSU.s 			page 174


 9860 3a3a 00       		.byte	0
 9861 3a3b 52       		.uleb128 0x52
 9862 3a3c 67390000 		.4byte	0x3967
 9863 3a40 00000000 		.4byte	.LFB329
 9864 3a44 88060000 		.4byte	.LFE329-.LFB329
 9865 3a48 01       		.uleb128 0x1
 9866 3a49 9C       		.byte	0x9c
 9867 3a4a 323C0000 		.4byte	0x3c32
 9868 3a4e 3A       		.uleb128 0x3a
 9869 3a4f 77390000 		.4byte	0x3977
 9870 3a53 AB110000 		.4byte	.LLST0
 9871 3a57 3A       		.uleb128 0x3a
 9872 3a58 80390000 		.4byte	0x3980
 9873 3a5c A9120000 		.4byte	.LLST1
 9874 3a60 3A       		.uleb128 0x3a
 9875 3a61 8B390000 		.4byte	0x398b
 9876 3a65 63130000 		.4byte	.LLST2
 9877 3a69 53       		.uleb128 0x53
 9878 3a6a 96390000 		.4byte	0x3996
 9879 3a6e 54       		.uleb128 0x54
 9880 3a6f 67390000 		.4byte	0x3967
 9881 3a73 00000000 		.4byte	.Ldebug_ranges0+0
 9882 3a77 3A       		.uleb128 0x3a
 9883 3a78 8B390000 		.4byte	0x398b
 9884 3a7c 0D140000 		.4byte	.LLST3
 9885 3a80 3A       		.uleb128 0x3a
 9886 3a81 80390000 		.4byte	0x3980
 9887 3a85 7A150000 		.4byte	.LLST4
 9888 3a89 3A       		.uleb128 0x3a
 9889 3a8a 77390000 		.4byte	0x3977
 9890 3a8e 02160000 		.4byte	.LLST5
 9891 3a92 3B       		.uleb128 0x3b
 9892 3a93 00000000 		.4byte	.Ldebug_ranges0+0
 9893 3a97 3D       		.uleb128 0x3d
 9894 3a98 693A0000 		.4byte	0x3a69
 9895 3a9c 2F170000 		.4byte	.LLST6
 9896 3aa0 54       		.uleb128 0x54
 9897 3aa1 9F390000 		.4byte	0x399f
 9898 3aa5 20000000 		.4byte	.Ldebug_ranges0+0x20
 9899 3aa9 3D       		.uleb128 0x3d
 9900 3aaa A0390000 		.4byte	0x39a0
 9901 3aae C3170000 		.4byte	.LLST7
 9902 3ab2 55       		.uleb128 0x55
 9903 3ab3 DB390000 		.4byte	0x39db
 9904 3ab7 06010000 		.4byte	.LBB41
 9905 3abb 48000000 		.4byte	.Ldebug_ranges0+0x48
 9906 3abf 01       		.byte	0x1
 9907 3ac0 B1       		.byte	0xb1
 9908 3ac1 143B0000 		.4byte	0x3b14
 9909 3ac5 3A       		.uleb128 0x3a
 9910 3ac6 0A3A0000 		.4byte	0x3a0a
 9911 3aca 01180000 		.4byte	.LLST8
 9912 3ace 3A       		.uleb128 0x3a
 9913 3acf FF390000 		.4byte	0x39ff
 9914 3ad3 2D180000 		.4byte	.LLST9
 9915 3ad7 3A       		.uleb128 0x3a
 9916 3ad8 F4390000 		.4byte	0x39f4
ARM GAS  /tmp/ccQCTkSU.s 			page 175


 9917 3adc C3170000 		.4byte	.LLST7
 9918 3ae0 3A       		.uleb128 0x3a
 9919 3ae1 EB390000 		.4byte	0x39eb
 9920 3ae5 59180000 		.4byte	.LLST11
 9921 3ae9 3B       		.uleb128 0x3b
 9922 3aea 48000000 		.4byte	.Ldebug_ranges0+0x48
 9923 3aee 3D       		.uleb128 0x3d
 9924 3aef 153A0000 		.4byte	0x3a15
 9925 3af3 18190000 		.4byte	.LLST12
 9926 3af7 3D       		.uleb128 0x3d
 9927 3af8 1E3A0000 		.4byte	0x3a1e
 9928 3afc DF190000 		.4byte	.LLST13
 9929 3b00 3D       		.uleb128 0x3d
 9930 3b01 273A0000 		.4byte	0x3a27
 9931 3b05 A91A0000 		.4byte	.LLST14
 9932 3b09 3D       		.uleb128 0x3d
 9933 3b0a 303A0000 		.4byte	0x3a30
 9934 3b0e A91A0000 		.4byte	.LLST14
 9935 3b12 00       		.byte	0
 9936 3b13 00       		.byte	0
 9937 3b14 55       		.uleb128 0x55
 9938 3b15 DB390000 		.4byte	0x39db
 9939 3b19 46020000 		.4byte	.LBB45
 9940 3b1d 68000000 		.4byte	.Ldebug_ranges0+0x68
 9941 3b21 01       		.byte	0x1
 9942 3b22 B9       		.byte	0xb9
 9943 3b23 6E3B0000 		.4byte	0x3b6e
 9944 3b27 3A       		.uleb128 0x3a
 9945 3b28 FF390000 		.4byte	0x39ff
 9946 3b2c EF1A0000 		.4byte	.LLST16
 9947 3b30 3A       		.uleb128 0x3a
 9948 3b31 0A3A0000 		.4byte	0x3a0a
 9949 3b35 271B0000 		.4byte	.LLST17
 9950 3b39 39       		.uleb128 0x39
 9951 3b3a F4390000 		.4byte	0x39f4
 9952 3b3e 3A       		.uleb128 0x3a
 9953 3b3f EB390000 		.4byte	0x39eb
 9954 3b43 C81E0000 		.4byte	.LLST18
 9955 3b47 3B       		.uleb128 0x3b
 9956 3b48 68000000 		.4byte	.Ldebug_ranges0+0x68
 9957 3b4c 3D       		.uleb128 0x3d
 9958 3b4d 153A0000 		.4byte	0x3a15
 9959 3b51 B21F0000 		.4byte	.LLST19
 9960 3b55 3D       		.uleb128 0x3d
 9961 3b56 1E3A0000 		.4byte	0x3a1e
 9962 3b5a 6E200000 		.4byte	.LLST20
 9963 3b5e 53       		.uleb128 0x53
 9964 3b5f 273A0000 		.4byte	0x3a27
 9965 3b63 3D       		.uleb128 0x3d
 9966 3b64 303A0000 		.4byte	0x3a30
 9967 3b68 43210000 		.4byte	.LLST21
 9968 3b6c 00       		.byte	0
 9969 3b6d 00       		.byte	0
 9970 3b6e 55       		.uleb128 0x55
 9971 3b6f DB390000 		.4byte	0x39db
 9972 3b73 80030000 		.4byte	.LBB55
 9973 3b77 A0000000 		.4byte	.Ldebug_ranges0+0xa0
ARM GAS  /tmp/ccQCTkSU.s 			page 176


 9974 3b7b 01       		.byte	0x1
 9975 3b7c C0       		.byte	0xc0
 9976 3b7d D03B0000 		.4byte	0x3bd0
 9977 3b81 3A       		.uleb128 0x3a
 9978 3b82 0A3A0000 		.4byte	0x3a0a
 9979 3b86 61210000 		.4byte	.LLST22
 9980 3b8a 3A       		.uleb128 0x3a
 9981 3b8b FF390000 		.4byte	0x39ff
 9982 3b8f 8D210000 		.4byte	.LLST23
 9983 3b93 3A       		.uleb128 0x3a
 9984 3b94 F4390000 		.4byte	0x39f4
 9985 3b98 B9210000 		.4byte	.LLST24
 9986 3b9c 3A       		.uleb128 0x3a
 9987 3b9d EB390000 		.4byte	0x39eb
 9988 3ba1 E2210000 		.4byte	.LLST25
 9989 3ba5 3B       		.uleb128 0x3b
 9990 3ba6 A0000000 		.4byte	.Ldebug_ranges0+0xa0
 9991 3baa 3D       		.uleb128 0x3d
 9992 3bab 153A0000 		.4byte	0x3a15
 9993 3baf A1220000 		.4byte	.LLST26
 9994 3bb3 3D       		.uleb128 0x3d
 9995 3bb4 1E3A0000 		.4byte	0x3a1e
 9996 3bb8 12230000 		.4byte	.LLST27
 9997 3bbc 3D       		.uleb128 0x3d
 9998 3bbd 273A0000 		.4byte	0x3a27
 9999 3bc1 B9210000 		.4byte	.LLST24
 10000 3bc5 3D       		.uleb128 0x3d
 10001 3bc6 303A0000 		.4byte	0x3a30
 10002 3bca B9210000 		.4byte	.LLST24
 10003 3bce 00       		.byte	0
 10004 3bcf 00       		.byte	0
 10005 3bd0 49       		.uleb128 0x49
 10006 3bd1 DB390000 		.4byte	0x39db
 10007 3bd5 E0040000 		.4byte	.LBB64
 10008 3bd9 D0000000 		.4byte	.Ldebug_ranges0+0xd0
 10009 3bdd 01       		.byte	0x1
 10010 3bde C6       		.byte	0xc6
 10011 3bdf 3A       		.uleb128 0x3a
 10012 3be0 0A3A0000 		.4byte	0x3a0a
 10013 3be4 E7230000 		.4byte	.LLST30
 10014 3be8 3A       		.uleb128 0x3a
 10015 3be9 FF390000 		.4byte	0x39ff
 10016 3bed 1F240000 		.4byte	.LLST31
 10017 3bf1 3A       		.uleb128 0x3a
 10018 3bf2 F4390000 		.4byte	0x39f4
 10019 3bf6 57240000 		.4byte	.LLST32
 10020 3bfa 3A       		.uleb128 0x3a
 10021 3bfb EB390000 		.4byte	0x39eb
 10022 3bff 6A240000 		.4byte	.LLST33
 10023 3c03 3B       		.uleb128 0x3b
 10024 3c04 D0000000 		.4byte	.Ldebug_ranges0+0xd0
 10025 3c08 3D       		.uleb128 0x3d
 10026 3c09 153A0000 		.4byte	0x3a15
 10027 3c0d 29250000 		.4byte	.LLST34
 10028 3c11 3D       		.uleb128 0x3d
 10029 3c12 1E3A0000 		.4byte	0x3a1e
 10030 3c16 A5250000 		.4byte	.LLST35
ARM GAS  /tmp/ccQCTkSU.s 			page 177


 10031 3c1a 3D       		.uleb128 0x3d
 10032 3c1b 273A0000 		.4byte	0x3a27
 10033 3c1f 7A260000 		.4byte	.LLST36
 10034 3c23 3D       		.uleb128 0x3d
 10035 3c24 303A0000 		.4byte	0x3a30
 10036 3c28 7A260000 		.4byte	.LLST36
 10037 3c2c 00       		.byte	0
 10038 3c2d 00       		.byte	0
 10039 3c2e 00       		.byte	0
 10040 3c2f 00       		.byte	0
 10041 3c30 00       		.byte	0
 10042 3c31 00       		.byte	0
 10043 3c32 56       		.uleb128 0x56
 10044 3c33 A3340000 		.4byte	0x34a3
 10045 3c37 00000000 		.4byte	.LFB333
 10046 3c3b 4C000000 		.4byte	.LFE333-.LFB333
 10047 3c3f 01       		.uleb128 0x1
 10048 3c40 9C       		.byte	0x9c
 10049 3c41 143D0000 		.4byte	0x3d14
 10050 3c45 3A       		.uleb128 0x3a
 10051 3c46 B4340000 		.4byte	0x34b4
 10052 3c4a B9260000 		.4byte	.LLST77
 10053 3c4e 3A       		.uleb128 0x3a
 10054 3c4f C0340000 		.4byte	0x34c0
 10055 3c53 ED260000 		.4byte	.LLST78
 10056 3c57 3A       		.uleb128 0x3a
 10057 3c58 CC340000 		.4byte	0x34cc
 10058 3c5c 21270000 		.4byte	.LLST79
 10059 3c60 3A       		.uleb128 0x3a
 10060 3c61 D8340000 		.4byte	0x34d8
 10061 3c65 55270000 		.4byte	.LLST80
 10062 3c69 3C       		.uleb128 0x3c
 10063 3c6a E3340000 		.4byte	0x34e3
 10064 3c6e 02       		.uleb128 0x2
 10065 3c6f 91       		.byte	0x91
 10066 3c70 54       		.sleb128 -44
 10067 3c71 3D       		.uleb128 0x3d
 10068 3c72 EE340000 		.4byte	0x34ee
 10069 3c76 89270000 		.4byte	.LLST81
 10070 3c7a 3D       		.uleb128 0x3d
 10071 3c7b FA340000 		.4byte	0x34fa
 10072 3c7f DB270000 		.4byte	.LLST82
 10073 3c83 3D       		.uleb128 0x3d
 10074 3c84 06350000 		.4byte	0x3506
 10075 3c88 14280000 		.4byte	.LLST83
 10076 3c8c 3E       		.uleb128 0x3e
 10077 3c8d 1A000000 		.4byte	.LVL410
 10078 3c91 143D0000 		.4byte	0x3d14
 10079 3c95 B13C0000 		.4byte	0x3cb1
 10080 3c99 3F       		.uleb128 0x3f
 10081 3c9a 01       		.uleb128 0x1
 10082 3c9b 50       		.byte	0x50
 10083 3c9c 02       		.uleb128 0x2
 10084 3c9d 91       		.byte	0x91
 10085 3c9e 54       		.sleb128 -44
 10086 3c9f 3F       		.uleb128 0x3f
 10087 3ca0 01       		.uleb128 0x1
ARM GAS  /tmp/ccQCTkSU.s 			page 178


 10088 3ca1 51       		.byte	0x51
 10089 3ca2 02       		.uleb128 0x2
 10090 3ca3 75       		.byte	0x75
 10091 3ca4 00       		.sleb128 0
 10092 3ca5 3F       		.uleb128 0x3f
 10093 3ca6 01       		.uleb128 0x1
 10094 3ca7 52       		.byte	0x52
 10095 3ca8 02       		.uleb128 0x2
 10096 3ca9 74       		.byte	0x74
 10097 3caa 7F       		.sleb128 -1
 10098 3cab 3F       		.uleb128 0x3f
 10099 3cac 01       		.uleb128 0x1
 10100 3cad 53       		.byte	0x53
 10101 3cae 01       		.uleb128 0x1
 10102 3caf 30       		.byte	0x30
 10103 3cb0 00       		.byte	0
 10104 3cb1 3E       		.uleb128 0x3e
 10105 3cb2 24000000 		.4byte	.LVL412
 10106 3cb6 D8360000 		.4byte	0x36d8
 10107 3cba D13C0000 		.4byte	0x3cd1
 10108 3cbe 3F       		.uleb128 0x3f
 10109 3cbf 01       		.uleb128 0x1
 10110 3cc0 50       		.byte	0x50
 10111 3cc1 02       		.uleb128 0x2
 10112 3cc2 91       		.byte	0x91
 10113 3cc3 54       		.sleb128 -44
 10114 3cc4 3F       		.uleb128 0x3f
 10115 3cc5 01       		.uleb128 0x1
 10116 3cc6 51       		.byte	0x51
 10117 3cc7 02       		.uleb128 0x2
 10118 3cc8 76       		.byte	0x76
 10119 3cc9 00       		.sleb128 0
 10120 3cca 3F       		.uleb128 0x3f
 10121 3ccb 01       		.uleb128 0x1
 10122 3ccc 52       		.byte	0x52
 10123 3ccd 02       		.uleb128 0x2
 10124 3cce 77       		.byte	0x77
 10125 3ccf 00       		.sleb128 0
 10126 3cd0 00       		.byte	0
 10127 3cd1 3E       		.uleb128 0x3e
 10128 3cd2 3E000000 		.4byte	.LVL418
 10129 3cd6 143D0000 		.4byte	0x3d14
 10130 3cda F73C0000 		.4byte	0x3cf7
 10131 3cde 3F       		.uleb128 0x3f
 10132 3cdf 01       		.uleb128 0x1
 10133 3ce0 50       		.byte	0x50
 10134 3ce1 02       		.uleb128 0x2
 10135 3ce2 91       		.byte	0x91
 10136 3ce3 54       		.sleb128 -44
 10137 3ce4 3F       		.uleb128 0x3f
 10138 3ce5 01       		.uleb128 0x1
 10139 3ce6 51       		.byte	0x51
 10140 3ce7 02       		.uleb128 0x2
 10141 3ce8 75       		.byte	0x75
 10142 3ce9 00       		.sleb128 0
 10143 3cea 3F       		.uleb128 0x3f
 10144 3ceb 01       		.uleb128 0x1
ARM GAS  /tmp/ccQCTkSU.s 			page 179


 10145 3cec 52       		.byte	0x52
 10146 3ced 02       		.uleb128 0x2
 10147 3cee 74       		.byte	0x74
 10148 3cef 00       		.sleb128 0
 10149 3cf0 3F       		.uleb128 0x3f
 10150 3cf1 01       		.uleb128 0x1
 10151 3cf2 53       		.byte	0x53
 10152 3cf3 02       		.uleb128 0x2
 10153 3cf4 74       		.byte	0x74
 10154 3cf5 00       		.sleb128 0
 10155 3cf6 00       		.byte	0
 10156 3cf7 40       		.uleb128 0x40
 10157 3cf8 48000000 		.4byte	.LVL420
 10158 3cfc D8360000 		.4byte	0x36d8
 10159 3d00 3F       		.uleb128 0x3f
 10160 3d01 01       		.uleb128 0x1
 10161 3d02 50       		.byte	0x50
 10162 3d03 02       		.uleb128 0x2
 10163 3d04 91       		.byte	0x91
 10164 3d05 54       		.sleb128 -44
 10165 3d06 3F       		.uleb128 0x3f
 10166 3d07 01       		.uleb128 0x1
 10167 3d08 51       		.byte	0x51
 10168 3d09 02       		.uleb128 0x2
 10169 3d0a 76       		.byte	0x76
 10170 3d0b 00       		.sleb128 0
 10171 3d0c 3F       		.uleb128 0x3f
 10172 3d0d 01       		.uleb128 0x1
 10173 3d0e 52       		.byte	0x52
 10174 3d0f 02       		.uleb128 0x2
 10175 3d10 77       		.byte	0x77
 10176 3d11 00       		.sleb128 0
 10177 3d12 00       		.byte	0
 10178 3d13 00       		.byte	0
 10179 3d14 57       		.uleb128 0x57
 10180 3d15 C20D0000 		.4byte	.LASF726
 10181 3d19 C20D0000 		.4byte	.LASF726
 10182 3d1d 32       		.byte	0x32
 10183 3d1e 57       		.byte	0x57
 10184 3d1f 00       		.byte	0
 10185              		.section	.debug_abbrev,"",%progbits
 10186              	.Ldebug_abbrev0:
 10187 0000 01       		.uleb128 0x1
 10188 0001 11       		.uleb128 0x11
 10189 0002 01       		.byte	0x1
 10190 0003 25       		.uleb128 0x25
 10191 0004 0E       		.uleb128 0xe
 10192 0005 13       		.uleb128 0x13
 10193 0006 0B       		.uleb128 0xb
 10194 0007 03       		.uleb128 0x3
 10195 0008 0E       		.uleb128 0xe
 10196 0009 1B       		.uleb128 0x1b
 10197 000a 0E       		.uleb128 0xe
 10198 000b 55       		.uleb128 0x55
 10199 000c 17       		.uleb128 0x17
 10200 000d 11       		.uleb128 0x11
 10201 000e 01       		.uleb128 0x1
ARM GAS  /tmp/ccQCTkSU.s 			page 180


 10202 000f 10       		.uleb128 0x10
 10203 0010 17       		.uleb128 0x17
 10204 0011 00       		.byte	0
 10205 0012 00       		.byte	0
 10206 0013 02       		.uleb128 0x2
 10207 0014 24       		.uleb128 0x24
 10208 0015 00       		.byte	0
 10209 0016 0B       		.uleb128 0xb
 10210 0017 0B       		.uleb128 0xb
 10211 0018 3E       		.uleb128 0x3e
 10212 0019 0B       		.uleb128 0xb
 10213 001a 03       		.uleb128 0x3
 10214 001b 0E       		.uleb128 0xe
 10215 001c 00       		.byte	0
 10216 001d 00       		.byte	0
 10217 001e 03       		.uleb128 0x3
 10218 001f 24       		.uleb128 0x24
 10219 0020 00       		.byte	0
 10220 0021 0B       		.uleb128 0xb
 10221 0022 0B       		.uleb128 0xb
 10222 0023 3E       		.uleb128 0x3e
 10223 0024 0B       		.uleb128 0xb
 10224 0025 03       		.uleb128 0x3
 10225 0026 08       		.uleb128 0x8
 10226 0027 00       		.byte	0
 10227 0028 00       		.byte	0
 10228 0029 04       		.uleb128 0x4
 10229 002a 16       		.uleb128 0x16
 10230 002b 00       		.byte	0
 10231 002c 03       		.uleb128 0x3
 10232 002d 0E       		.uleb128 0xe
 10233 002e 3A       		.uleb128 0x3a
 10234 002f 0B       		.uleb128 0xb
 10235 0030 3B       		.uleb128 0x3b
 10236 0031 0B       		.uleb128 0xb
 10237 0032 49       		.uleb128 0x49
 10238 0033 13       		.uleb128 0x13
 10239 0034 00       		.byte	0
 10240 0035 00       		.byte	0
 10241 0036 05       		.uleb128 0x5
 10242 0037 35       		.uleb128 0x35
 10243 0038 00       		.byte	0
 10244 0039 49       		.uleb128 0x49
 10245 003a 13       		.uleb128 0x13
 10246 003b 00       		.byte	0
 10247 003c 00       		.byte	0
 10248 003d 06       		.uleb128 0x6
 10249 003e 26       		.uleb128 0x26
 10250 003f 00       		.byte	0
 10251 0040 49       		.uleb128 0x49
 10252 0041 13       		.uleb128 0x13
 10253 0042 00       		.byte	0
 10254 0043 00       		.byte	0
 10255 0044 07       		.uleb128 0x7
 10256 0045 13       		.uleb128 0x13
 10257 0046 01       		.byte	0x1
 10258 0047 03       		.uleb128 0x3
ARM GAS  /tmp/ccQCTkSU.s 			page 181


 10259 0048 0E       		.uleb128 0xe
 10260 0049 0B       		.uleb128 0xb
 10261 004a 0B       		.uleb128 0xb
 10262 004b 3A       		.uleb128 0x3a
 10263 004c 0B       		.uleb128 0xb
 10264 004d 3B       		.uleb128 0x3b
 10265 004e 0B       		.uleb128 0xb
 10266 004f 01       		.uleb128 0x1
 10267 0050 13       		.uleb128 0x13
 10268 0051 00       		.byte	0
 10269 0052 00       		.byte	0
 10270 0053 08       		.uleb128 0x8
 10271 0054 0D       		.uleb128 0xd
 10272 0055 00       		.byte	0
 10273 0056 03       		.uleb128 0x3
 10274 0057 0E       		.uleb128 0xe
 10275 0058 3A       		.uleb128 0x3a
 10276 0059 0B       		.uleb128 0xb
 10277 005a 3B       		.uleb128 0x3b
 10278 005b 0B       		.uleb128 0xb
 10279 005c 49       		.uleb128 0x49
 10280 005d 13       		.uleb128 0x13
 10281 005e 38       		.uleb128 0x38
 10282 005f 0B       		.uleb128 0xb
 10283 0060 00       		.byte	0
 10284 0061 00       		.byte	0
 10285 0062 09       		.uleb128 0x9
 10286 0063 0D       		.uleb128 0xd
 10287 0064 00       		.byte	0
 10288 0065 03       		.uleb128 0x3
 10289 0066 08       		.uleb128 0x8
 10290 0067 3A       		.uleb128 0x3a
 10291 0068 0B       		.uleb128 0xb
 10292 0069 3B       		.uleb128 0x3b
 10293 006a 0B       		.uleb128 0xb
 10294 006b 49       		.uleb128 0x49
 10295 006c 13       		.uleb128 0x13
 10296 006d 38       		.uleb128 0x38
 10297 006e 0B       		.uleb128 0xb
 10298 006f 00       		.byte	0
 10299 0070 00       		.byte	0
 10300 0071 0A       		.uleb128 0xa
 10301 0072 0D       		.uleb128 0xd
 10302 0073 00       		.byte	0
 10303 0074 03       		.uleb128 0x3
 10304 0075 08       		.uleb128 0x8
 10305 0076 3A       		.uleb128 0x3a
 10306 0077 0B       		.uleb128 0xb
 10307 0078 3B       		.uleb128 0x3b
 10308 0079 05       		.uleb128 0x5
 10309 007a 49       		.uleb128 0x49
 10310 007b 13       		.uleb128 0x13
 10311 007c 38       		.uleb128 0x38
 10312 007d 0B       		.uleb128 0xb
 10313 007e 00       		.byte	0
 10314 007f 00       		.byte	0
 10315 0080 0B       		.uleb128 0xb
ARM GAS  /tmp/ccQCTkSU.s 			page 182


 10316 0081 0D       		.uleb128 0xd
 10317 0082 00       		.byte	0
 10318 0083 03       		.uleb128 0x3
 10319 0084 0E       		.uleb128 0xe
 10320 0085 3A       		.uleb128 0x3a
 10321 0086 0B       		.uleb128 0xb
 10322 0087 3B       		.uleb128 0x3b
 10323 0088 05       		.uleb128 0x5
 10324 0089 49       		.uleb128 0x49
 10325 008a 13       		.uleb128 0x13
 10326 008b 38       		.uleb128 0x38
 10327 008c 0B       		.uleb128 0xb
 10328 008d 00       		.byte	0
 10329 008e 00       		.byte	0
 10330 008f 0C       		.uleb128 0xc
 10331 0090 0F       		.uleb128 0xf
 10332 0091 00       		.byte	0
 10333 0092 0B       		.uleb128 0xb
 10334 0093 0B       		.uleb128 0xb
 10335 0094 49       		.uleb128 0x49
 10336 0095 13       		.uleb128 0x13
 10337 0096 00       		.byte	0
 10338 0097 00       		.byte	0
 10339 0098 0D       		.uleb128 0xd
 10340 0099 13       		.uleb128 0x13
 10341 009a 01       		.byte	0x1
 10342 009b 03       		.uleb128 0x3
 10343 009c 0E       		.uleb128 0xe
 10344 009d 0B       		.uleb128 0xb
 10345 009e 0B       		.uleb128 0xb
 10346 009f 3A       		.uleb128 0x3a
 10347 00a0 0B       		.uleb128 0xb
 10348 00a1 3B       		.uleb128 0x3b
 10349 00a2 05       		.uleb128 0x5
 10350 00a3 01       		.uleb128 0x1
 10351 00a4 13       		.uleb128 0x13
 10352 00a5 00       		.byte	0
 10353 00a6 00       		.byte	0
 10354 00a7 0E       		.uleb128 0xe
 10355 00a8 15       		.uleb128 0x15
 10356 00a9 01       		.byte	0x1
 10357 00aa 27       		.uleb128 0x27
 10358 00ab 19       		.uleb128 0x19
 10359 00ac 01       		.uleb128 0x1
 10360 00ad 13       		.uleb128 0x13
 10361 00ae 00       		.byte	0
 10362 00af 00       		.byte	0
 10363 00b0 0F       		.uleb128 0xf
 10364 00b1 05       		.uleb128 0x5
 10365 00b2 00       		.byte	0
 10366 00b3 49       		.uleb128 0x49
 10367 00b4 13       		.uleb128 0x13
 10368 00b5 00       		.byte	0
 10369 00b6 00       		.byte	0
 10370 00b7 10       		.uleb128 0x10
 10371 00b8 0F       		.uleb128 0xf
 10372 00b9 00       		.byte	0
ARM GAS  /tmp/ccQCTkSU.s 			page 183


 10373 00ba 0B       		.uleb128 0xb
 10374 00bb 0B       		.uleb128 0xb
 10375 00bc 00       		.byte	0
 10376 00bd 00       		.byte	0
 10377 00be 11       		.uleb128 0x11
 10378 00bf 01       		.uleb128 0x1
 10379 00c0 01       		.byte	0x1
 10380 00c1 49       		.uleb128 0x49
 10381 00c2 13       		.uleb128 0x13
 10382 00c3 01       		.uleb128 0x1
 10383 00c4 13       		.uleb128 0x13
 10384 00c5 00       		.byte	0
 10385 00c6 00       		.byte	0
 10386 00c7 12       		.uleb128 0x12
 10387 00c8 21       		.uleb128 0x21
 10388 00c9 00       		.byte	0
 10389 00ca 49       		.uleb128 0x49
 10390 00cb 13       		.uleb128 0x13
 10391 00cc 2F       		.uleb128 0x2f
 10392 00cd 0B       		.uleb128 0xb
 10393 00ce 00       		.byte	0
 10394 00cf 00       		.byte	0
 10395 00d0 13       		.uleb128 0x13
 10396 00d1 34       		.uleb128 0x34
 10397 00d2 00       		.byte	0
 10398 00d3 03       		.uleb128 0x3
 10399 00d4 0E       		.uleb128 0xe
 10400 00d5 3A       		.uleb128 0x3a
 10401 00d6 0B       		.uleb128 0xb
 10402 00d7 3B       		.uleb128 0x3b
 10403 00d8 05       		.uleb128 0x5
 10404 00d9 49       		.uleb128 0x49
 10405 00da 13       		.uleb128 0x13
 10406 00db 3F       		.uleb128 0x3f
 10407 00dc 19       		.uleb128 0x19
 10408 00dd 3C       		.uleb128 0x3c
 10409 00de 19       		.uleb128 0x19
 10410 00df 00       		.byte	0
 10411 00e0 00       		.byte	0
 10412 00e1 14       		.uleb128 0x14
 10413 00e2 34       		.uleb128 0x34
 10414 00e3 00       		.byte	0
 10415 00e4 03       		.uleb128 0x3
 10416 00e5 0E       		.uleb128 0xe
 10417 00e6 3A       		.uleb128 0x3a
 10418 00e7 0B       		.uleb128 0xb
 10419 00e8 3B       		.uleb128 0x3b
 10420 00e9 0B       		.uleb128 0xb
 10421 00ea 49       		.uleb128 0x49
 10422 00eb 13       		.uleb128 0x13
 10423 00ec 3F       		.uleb128 0x3f
 10424 00ed 19       		.uleb128 0x19
 10425 00ee 3C       		.uleb128 0x3c
 10426 00ef 19       		.uleb128 0x19
 10427 00f0 00       		.byte	0
 10428 00f1 00       		.byte	0
 10429 00f2 15       		.uleb128 0x15
ARM GAS  /tmp/ccQCTkSU.s 			page 184


 10430 00f3 13       		.uleb128 0x13
 10431 00f4 01       		.byte	0x1
 10432 00f5 0B       		.uleb128 0xb
 10433 00f6 0B       		.uleb128 0xb
 10434 00f7 3A       		.uleb128 0x3a
 10435 00f8 0B       		.uleb128 0xb
 10436 00f9 3B       		.uleb128 0x3b
 10437 00fa 0B       		.uleb128 0xb
 10438 00fb 01       		.uleb128 0x1
 10439 00fc 13       		.uleb128 0x13
 10440 00fd 00       		.byte	0
 10441 00fe 00       		.byte	0
 10442 00ff 16       		.uleb128 0x16
 10443 0100 16       		.uleb128 0x16
 10444 0101 00       		.byte	0
 10445 0102 03       		.uleb128 0x3
 10446 0103 0E       		.uleb128 0xe
 10447 0104 3A       		.uleb128 0x3a
 10448 0105 0B       		.uleb128 0xb
 10449 0106 3B       		.uleb128 0x3b
 10450 0107 05       		.uleb128 0x5
 10451 0108 49       		.uleb128 0x49
 10452 0109 13       		.uleb128 0x13
 10453 010a 00       		.byte	0
 10454 010b 00       		.byte	0
 10455 010c 17       		.uleb128 0x17
 10456 010d 13       		.uleb128 0x13
 10457 010e 01       		.byte	0x1
 10458 010f 0B       		.uleb128 0xb
 10459 0110 0B       		.uleb128 0xb
 10460 0111 3A       		.uleb128 0x3a
 10461 0112 0B       		.uleb128 0xb
 10462 0113 3B       		.uleb128 0x3b
 10463 0114 05       		.uleb128 0x5
 10464 0115 01       		.uleb128 0x1
 10465 0116 13       		.uleb128 0x13
 10466 0117 00       		.byte	0
 10467 0118 00       		.byte	0
 10468 0119 18       		.uleb128 0x18
 10469 011a 13       		.uleb128 0x13
 10470 011b 01       		.byte	0x1
 10471 011c 0B       		.uleb128 0xb
 10472 011d 05       		.uleb128 0x5
 10473 011e 3A       		.uleb128 0x3a
 10474 011f 0B       		.uleb128 0xb
 10475 0120 3B       		.uleb128 0x3b
 10476 0121 05       		.uleb128 0x5
 10477 0122 01       		.uleb128 0x1
 10478 0123 13       		.uleb128 0x13
 10479 0124 00       		.byte	0
 10480 0125 00       		.byte	0
 10481 0126 19       		.uleb128 0x19
 10482 0127 0D       		.uleb128 0xd
 10483 0128 00       		.byte	0
 10484 0129 03       		.uleb128 0x3
 10485 012a 0E       		.uleb128 0xe
 10486 012b 3A       		.uleb128 0x3a
ARM GAS  /tmp/ccQCTkSU.s 			page 185


 10487 012c 0B       		.uleb128 0xb
 10488 012d 3B       		.uleb128 0x3b
 10489 012e 05       		.uleb128 0x5
 10490 012f 49       		.uleb128 0x49
 10491 0130 13       		.uleb128 0x13
 10492 0131 38       		.uleb128 0x38
 10493 0132 05       		.uleb128 0x5
 10494 0133 00       		.byte	0
 10495 0134 00       		.byte	0
 10496 0135 1A       		.uleb128 0x1a
 10497 0136 0D       		.uleb128 0xd
 10498 0137 00       		.byte	0
 10499 0138 03       		.uleb128 0x3
 10500 0139 08       		.uleb128 0x8
 10501 013a 3A       		.uleb128 0x3a
 10502 013b 0B       		.uleb128 0xb
 10503 013c 3B       		.uleb128 0x3b
 10504 013d 05       		.uleb128 0x5
 10505 013e 49       		.uleb128 0x49
 10506 013f 13       		.uleb128 0x13
 10507 0140 38       		.uleb128 0x38
 10508 0141 05       		.uleb128 0x5
 10509 0142 00       		.byte	0
 10510 0143 00       		.byte	0
 10511 0144 1B       		.uleb128 0x1b
 10512 0145 17       		.uleb128 0x17
 10513 0146 01       		.byte	0x1
 10514 0147 0B       		.uleb128 0xb
 10515 0148 0B       		.uleb128 0xb
 10516 0149 3A       		.uleb128 0x3a
 10517 014a 0B       		.uleb128 0xb
 10518 014b 3B       		.uleb128 0x3b
 10519 014c 0B       		.uleb128 0xb
 10520 014d 01       		.uleb128 0x1
 10521 014e 13       		.uleb128 0x13
 10522 014f 00       		.byte	0
 10523 0150 00       		.byte	0
 10524 0151 1C       		.uleb128 0x1c
 10525 0152 0D       		.uleb128 0xd
 10526 0153 00       		.byte	0
 10527 0154 03       		.uleb128 0x3
 10528 0155 0E       		.uleb128 0xe
 10529 0156 3A       		.uleb128 0x3a
 10530 0157 0B       		.uleb128 0xb
 10531 0158 3B       		.uleb128 0x3b
 10532 0159 0B       		.uleb128 0xb
 10533 015a 49       		.uleb128 0x49
 10534 015b 13       		.uleb128 0x13
 10535 015c 00       		.byte	0
 10536 015d 00       		.byte	0
 10537 015e 1D       		.uleb128 0x1d
 10538 015f 0D       		.uleb128 0xd
 10539 0160 00       		.byte	0
 10540 0161 03       		.uleb128 0x3
 10541 0162 0E       		.uleb128 0xe
 10542 0163 3A       		.uleb128 0x3a
 10543 0164 0B       		.uleb128 0xb
ARM GAS  /tmp/ccQCTkSU.s 			page 186


 10544 0165 3B       		.uleb128 0x3b
 10545 0166 05       		.uleb128 0x5
 10546 0167 49       		.uleb128 0x49
 10547 0168 13       		.uleb128 0x13
 10548 0169 00       		.byte	0
 10549 016a 00       		.byte	0
 10550 016b 1E       		.uleb128 0x1e
 10551 016c 34       		.uleb128 0x34
 10552 016d 00       		.byte	0
 10553 016e 03       		.uleb128 0x3
 10554 016f 08       		.uleb128 0x8
 10555 0170 3A       		.uleb128 0x3a
 10556 0171 0B       		.uleb128 0xb
 10557 0172 3B       		.uleb128 0x3b
 10558 0173 05       		.uleb128 0x5
 10559 0174 49       		.uleb128 0x49
 10560 0175 13       		.uleb128 0x13
 10561 0176 3F       		.uleb128 0x3f
 10562 0177 19       		.uleb128 0x19
 10563 0178 3C       		.uleb128 0x3c
 10564 0179 19       		.uleb128 0x19
 10565 017a 00       		.byte	0
 10566 017b 00       		.byte	0
 10567 017c 1F       		.uleb128 0x1f
 10568 017d 21       		.uleb128 0x21
 10569 017e 00       		.byte	0
 10570 017f 00       		.byte	0
 10571 0180 00       		.byte	0
 10572 0181 20       		.uleb128 0x20
 10573 0182 15       		.uleb128 0x15
 10574 0183 01       		.byte	0x1
 10575 0184 27       		.uleb128 0x27
 10576 0185 19       		.uleb128 0x19
 10577 0186 49       		.uleb128 0x49
 10578 0187 13       		.uleb128 0x13
 10579 0188 01       		.uleb128 0x1
 10580 0189 13       		.uleb128 0x13
 10581 018a 00       		.byte	0
 10582 018b 00       		.byte	0
 10583 018c 21       		.uleb128 0x21
 10584 018d 04       		.uleb128 0x4
 10585 018e 01       		.byte	0x1
 10586 018f 3E       		.uleb128 0x3e
 10587 0190 0B       		.uleb128 0xb
 10588 0191 0B       		.uleb128 0xb
 10589 0192 0B       		.uleb128 0xb
 10590 0193 49       		.uleb128 0x49
 10591 0194 13       		.uleb128 0x13
 10592 0195 3A       		.uleb128 0x3a
 10593 0196 0B       		.uleb128 0xb
 10594 0197 3B       		.uleb128 0x3b
 10595 0198 0B       		.uleb128 0xb
 10596 0199 01       		.uleb128 0x1
 10597 019a 13       		.uleb128 0x13
 10598 019b 00       		.byte	0
 10599 019c 00       		.byte	0
 10600 019d 22       		.uleb128 0x22
ARM GAS  /tmp/ccQCTkSU.s 			page 187


 10601 019e 28       		.uleb128 0x28
 10602 019f 00       		.byte	0
 10603 01a0 03       		.uleb128 0x3
 10604 01a1 0E       		.uleb128 0xe
 10605 01a2 1C       		.uleb128 0x1c
 10606 01a3 0B       		.uleb128 0xb
 10607 01a4 00       		.byte	0
 10608 01a5 00       		.byte	0
 10609 01a6 23       		.uleb128 0x23
 10610 01a7 04       		.uleb128 0x4
 10611 01a8 01       		.byte	0x1
 10612 01a9 3E       		.uleb128 0x3e
 10613 01aa 0B       		.uleb128 0xb
 10614 01ab 0B       		.uleb128 0xb
 10615 01ac 0B       		.uleb128 0xb
 10616 01ad 49       		.uleb128 0x49
 10617 01ae 13       		.uleb128 0x13
 10618 01af 3A       		.uleb128 0x3a
 10619 01b0 0B       		.uleb128 0xb
 10620 01b1 3B       		.uleb128 0x3b
 10621 01b2 05       		.uleb128 0x5
 10622 01b3 01       		.uleb128 0x1
 10623 01b4 13       		.uleb128 0x13
 10624 01b5 00       		.byte	0
 10625 01b6 00       		.byte	0
 10626 01b7 24       		.uleb128 0x24
 10627 01b8 15       		.uleb128 0x15
 10628 01b9 00       		.byte	0
 10629 01ba 27       		.uleb128 0x27
 10630 01bb 19       		.uleb128 0x19
 10631 01bc 00       		.byte	0
 10632 01bd 00       		.byte	0
 10633 01be 25       		.uleb128 0x25
 10634 01bf 13       		.uleb128 0x13
 10635 01c0 01       		.byte	0x1
 10636 01c1 0B       		.uleb128 0xb
 10637 01c2 06       		.uleb128 0x6
 10638 01c3 3A       		.uleb128 0x3a
 10639 01c4 0B       		.uleb128 0xb
 10640 01c5 3B       		.uleb128 0x3b
 10641 01c6 0B       		.uleb128 0xb
 10642 01c7 01       		.uleb128 0x1
 10643 01c8 13       		.uleb128 0x13
 10644 01c9 00       		.byte	0
 10645 01ca 00       		.byte	0
 10646 01cb 26       		.uleb128 0x26
 10647 01cc 0D       		.uleb128 0xd
 10648 01cd 00       		.byte	0
 10649 01ce 03       		.uleb128 0x3
 10650 01cf 0E       		.uleb128 0xe
 10651 01d0 3A       		.uleb128 0x3a
 10652 01d1 0B       		.uleb128 0xb
 10653 01d2 3B       		.uleb128 0x3b
 10654 01d3 0B       		.uleb128 0xb
 10655 01d4 49       		.uleb128 0x49
 10656 01d5 13       		.uleb128 0x13
 10657 01d6 38       		.uleb128 0x38
ARM GAS  /tmp/ccQCTkSU.s 			page 188


 10658 01d7 05       		.uleb128 0x5
 10659 01d8 00       		.byte	0
 10660 01d9 00       		.byte	0
 10661 01da 27       		.uleb128 0x27
 10662 01db 0D       		.uleb128 0xd
 10663 01dc 00       		.byte	0
 10664 01dd 03       		.uleb128 0x3
 10665 01de 08       		.uleb128 0x8
 10666 01df 3A       		.uleb128 0x3a
 10667 01e0 0B       		.uleb128 0xb
 10668 01e1 3B       		.uleb128 0x3b
 10669 01e2 0B       		.uleb128 0xb
 10670 01e3 49       		.uleb128 0x49
 10671 01e4 13       		.uleb128 0x13
 10672 01e5 38       		.uleb128 0x38
 10673 01e6 05       		.uleb128 0x5
 10674 01e7 00       		.byte	0
 10675 01e8 00       		.byte	0
 10676 01e9 28       		.uleb128 0x28
 10677 01ea 21       		.uleb128 0x21
 10678 01eb 00       		.byte	0
 10679 01ec 49       		.uleb128 0x49
 10680 01ed 13       		.uleb128 0x13
 10681 01ee 2F       		.uleb128 0x2f
 10682 01ef 05       		.uleb128 0x5
 10683 01f0 00       		.byte	0
 10684 01f1 00       		.byte	0
 10685 01f2 29       		.uleb128 0x29
 10686 01f3 0D       		.uleb128 0xd
 10687 01f4 00       		.byte	0
 10688 01f5 03       		.uleb128 0x3
 10689 01f6 0E       		.uleb128 0xe
 10690 01f7 49       		.uleb128 0x49
 10691 01f8 13       		.uleb128 0x13
 10692 01f9 38       		.uleb128 0x38
 10693 01fa 0B       		.uleb128 0xb
 10694 01fb 34       		.uleb128 0x34
 10695 01fc 19       		.uleb128 0x19
 10696 01fd 00       		.byte	0
 10697 01fe 00       		.byte	0
 10698 01ff 2A       		.uleb128 0x2a
 10699 0200 13       		.uleb128 0x13
 10700 0201 01       		.byte	0x1
 10701 0202 03       		.uleb128 0x3
 10702 0203 0E       		.uleb128 0xe
 10703 0204 0B       		.uleb128 0xb
 10704 0205 05       		.uleb128 0x5
 10705 0206 3A       		.uleb128 0x3a
 10706 0207 0B       		.uleb128 0xb
 10707 0208 3B       		.uleb128 0x3b
 10708 0209 0B       		.uleb128 0xb
 10709 020a 01       		.uleb128 0x1
 10710 020b 13       		.uleb128 0x13
 10711 020c 00       		.byte	0
 10712 020d 00       		.byte	0
 10713 020e 2B       		.uleb128 0x2b
 10714 020f 13       		.uleb128 0x13
ARM GAS  /tmp/ccQCTkSU.s 			page 189


 10715 0210 00       		.byte	0
 10716 0211 03       		.uleb128 0x3
 10717 0212 0E       		.uleb128 0xe
 10718 0213 3C       		.uleb128 0x3c
 10719 0214 19       		.uleb128 0x19
 10720 0215 00       		.byte	0
 10721 0216 00       		.byte	0
 10722 0217 2C       		.uleb128 0x2c
 10723 0218 34       		.uleb128 0x34
 10724 0219 00       		.byte	0
 10725 021a 03       		.uleb128 0x3
 10726 021b 0E       		.uleb128 0xe
 10727 021c 3A       		.uleb128 0x3a
 10728 021d 0B       		.uleb128 0xb
 10729 021e 3B       		.uleb128 0x3b
 10730 021f 0B       		.uleb128 0xb
 10731 0220 49       		.uleb128 0x49
 10732 0221 13       		.uleb128 0x13
 10733 0222 02       		.uleb128 0x2
 10734 0223 18       		.uleb128 0x18
 10735 0224 00       		.byte	0
 10736 0225 00       		.byte	0
 10737 0226 2D       		.uleb128 0x2d
 10738 0227 2E       		.uleb128 0x2e
 10739 0228 01       		.byte	0x1
 10740 0229 3F       		.uleb128 0x3f
 10741 022a 19       		.uleb128 0x19
 10742 022b 03       		.uleb128 0x3
 10743 022c 0E       		.uleb128 0xe
 10744 022d 3A       		.uleb128 0x3a
 10745 022e 0B       		.uleb128 0xb
 10746 022f 3B       		.uleb128 0x3b
 10747 0230 05       		.uleb128 0x5
 10748 0231 27       		.uleb128 0x27
 10749 0232 19       		.uleb128 0x19
 10750 0233 49       		.uleb128 0x49
 10751 0234 13       		.uleb128 0x13
 10752 0235 20       		.uleb128 0x20
 10753 0236 0B       		.uleb128 0xb
 10754 0237 01       		.uleb128 0x1
 10755 0238 13       		.uleb128 0x13
 10756 0239 00       		.byte	0
 10757 023a 00       		.byte	0
 10758 023b 2E       		.uleb128 0x2e
 10759 023c 05       		.uleb128 0x5
 10760 023d 00       		.byte	0
 10761 023e 03       		.uleb128 0x3
 10762 023f 08       		.uleb128 0x8
 10763 0240 3A       		.uleb128 0x3a
 10764 0241 0B       		.uleb128 0xb
 10765 0242 3B       		.uleb128 0x3b
 10766 0243 05       		.uleb128 0x5
 10767 0244 49       		.uleb128 0x49
 10768 0245 13       		.uleb128 0x13
 10769 0246 00       		.byte	0
 10770 0247 00       		.byte	0
 10771 0248 2F       		.uleb128 0x2f
ARM GAS  /tmp/ccQCTkSU.s 			page 190


 10772 0249 05       		.uleb128 0x5
 10773 024a 00       		.byte	0
 10774 024b 03       		.uleb128 0x3
 10775 024c 0E       		.uleb128 0xe
 10776 024d 3A       		.uleb128 0x3a
 10777 024e 0B       		.uleb128 0xb
 10778 024f 3B       		.uleb128 0x3b
 10779 0250 05       		.uleb128 0x5
 10780 0251 49       		.uleb128 0x49
 10781 0252 13       		.uleb128 0x13
 10782 0253 00       		.byte	0
 10783 0254 00       		.byte	0
 10784 0255 30       		.uleb128 0x30
 10785 0256 34       		.uleb128 0x34
 10786 0257 00       		.byte	0
 10787 0258 03       		.uleb128 0x3
 10788 0259 08       		.uleb128 0x8
 10789 025a 3A       		.uleb128 0x3a
 10790 025b 0B       		.uleb128 0xb
 10791 025c 3B       		.uleb128 0x3b
 10792 025d 05       		.uleb128 0x5
 10793 025e 49       		.uleb128 0x49
 10794 025f 13       		.uleb128 0x13
 10795 0260 00       		.byte	0
 10796 0261 00       		.byte	0
 10797 0262 31       		.uleb128 0x31
 10798 0263 34       		.uleb128 0x34
 10799 0264 00       		.byte	0
 10800 0265 03       		.uleb128 0x3
 10801 0266 0E       		.uleb128 0xe
 10802 0267 3A       		.uleb128 0x3a
 10803 0268 0B       		.uleb128 0xb
 10804 0269 3B       		.uleb128 0x3b
 10805 026a 05       		.uleb128 0x5
 10806 026b 49       		.uleb128 0x49
 10807 026c 13       		.uleb128 0x13
 10808 026d 00       		.byte	0
 10809 026e 00       		.byte	0
 10810 026f 32       		.uleb128 0x32
 10811 0270 2E       		.uleb128 0x2e
 10812 0271 01       		.byte	0x1
 10813 0272 3F       		.uleb128 0x3f
 10814 0273 19       		.uleb128 0x19
 10815 0274 03       		.uleb128 0x3
 10816 0275 0E       		.uleb128 0xe
 10817 0276 3A       		.uleb128 0x3a
 10818 0277 0B       		.uleb128 0xb
 10819 0278 3B       		.uleb128 0x3b
 10820 0279 05       		.uleb128 0x5
 10821 027a 27       		.uleb128 0x27
 10822 027b 19       		.uleb128 0x19
 10823 027c 49       		.uleb128 0x49
 10824 027d 13       		.uleb128 0x13
 10825 027e 11       		.uleb128 0x11
 10826 027f 01       		.uleb128 0x1
 10827 0280 12       		.uleb128 0x12
 10828 0281 06       		.uleb128 0x6
ARM GAS  /tmp/ccQCTkSU.s 			page 191


 10829 0282 40       		.uleb128 0x40
 10830 0283 18       		.uleb128 0x18
 10831 0284 9742     		.uleb128 0x2117
 10832 0286 19       		.uleb128 0x19
 10833 0287 01       		.uleb128 0x1
 10834 0288 13       		.uleb128 0x13
 10835 0289 00       		.byte	0
 10836 028a 00       		.byte	0
 10837 028b 33       		.uleb128 0x33
 10838 028c 05       		.uleb128 0x5
 10839 028d 00       		.byte	0
 10840 028e 03       		.uleb128 0x3
 10841 028f 08       		.uleb128 0x8
 10842 0290 3A       		.uleb128 0x3a
 10843 0291 0B       		.uleb128 0xb
 10844 0292 3B       		.uleb128 0x3b
 10845 0293 05       		.uleb128 0x5
 10846 0294 49       		.uleb128 0x49
 10847 0295 13       		.uleb128 0x13
 10848 0296 02       		.uleb128 0x2
 10849 0297 17       		.uleb128 0x17
 10850 0298 00       		.byte	0
 10851 0299 00       		.byte	0
 10852 029a 34       		.uleb128 0x34
 10853 029b 05       		.uleb128 0x5
 10854 029c 00       		.byte	0
 10855 029d 03       		.uleb128 0x3
 10856 029e 0E       		.uleb128 0xe
 10857 029f 3A       		.uleb128 0x3a
 10858 02a0 0B       		.uleb128 0xb
 10859 02a1 3B       		.uleb128 0x3b
 10860 02a2 05       		.uleb128 0x5
 10861 02a3 49       		.uleb128 0x49
 10862 02a4 13       		.uleb128 0x13
 10863 02a5 02       		.uleb128 0x2
 10864 02a6 17       		.uleb128 0x17
 10865 02a7 00       		.byte	0
 10866 02a8 00       		.byte	0
 10867 02a9 35       		.uleb128 0x35
 10868 02aa 05       		.uleb128 0x5
 10869 02ab 00       		.byte	0
 10870 02ac 03       		.uleb128 0x3
 10871 02ad 08       		.uleb128 0x8
 10872 02ae 3A       		.uleb128 0x3a
 10873 02af 0B       		.uleb128 0xb
 10874 02b0 3B       		.uleb128 0x3b
 10875 02b1 05       		.uleb128 0x5
 10876 02b2 49       		.uleb128 0x49
 10877 02b3 13       		.uleb128 0x13
 10878 02b4 02       		.uleb128 0x2
 10879 02b5 18       		.uleb128 0x18
 10880 02b6 00       		.byte	0
 10881 02b7 00       		.byte	0
 10882 02b8 36       		.uleb128 0x36
 10883 02b9 18       		.uleb128 0x18
 10884 02ba 00       		.byte	0
 10885 02bb 00       		.byte	0
ARM GAS  /tmp/ccQCTkSU.s 			page 192


 10886 02bc 00       		.byte	0
 10887 02bd 37       		.uleb128 0x37
 10888 02be 34       		.uleb128 0x34
 10889 02bf 00       		.byte	0
 10890 02c0 03       		.uleb128 0x3
 10891 02c1 08       		.uleb128 0x8
 10892 02c2 3A       		.uleb128 0x3a
 10893 02c3 0B       		.uleb128 0xb
 10894 02c4 3B       		.uleb128 0x3b
 10895 02c5 05       		.uleb128 0x5
 10896 02c6 49       		.uleb128 0x49
 10897 02c7 13       		.uleb128 0x13
 10898 02c8 02       		.uleb128 0x2
 10899 02c9 18       		.uleb128 0x18
 10900 02ca 00       		.byte	0
 10901 02cb 00       		.byte	0
 10902 02cc 38       		.uleb128 0x38
 10903 02cd 1D       		.uleb128 0x1d
 10904 02ce 01       		.byte	0x1
 10905 02cf 31       		.uleb128 0x31
 10906 02d0 13       		.uleb128 0x13
 10907 02d1 52       		.uleb128 0x52
 10908 02d2 01       		.uleb128 0x1
 10909 02d3 55       		.uleb128 0x55
 10910 02d4 17       		.uleb128 0x17
 10911 02d5 58       		.uleb128 0x58
 10912 02d6 0B       		.uleb128 0xb
 10913 02d7 59       		.uleb128 0x59
 10914 02d8 05       		.uleb128 0x5
 10915 02d9 00       		.byte	0
 10916 02da 00       		.byte	0
 10917 02db 39       		.uleb128 0x39
 10918 02dc 05       		.uleb128 0x5
 10919 02dd 00       		.byte	0
 10920 02de 31       		.uleb128 0x31
 10921 02df 13       		.uleb128 0x13
 10922 02e0 00       		.byte	0
 10923 02e1 00       		.byte	0
 10924 02e2 3A       		.uleb128 0x3a
 10925 02e3 05       		.uleb128 0x5
 10926 02e4 00       		.byte	0
 10927 02e5 31       		.uleb128 0x31
 10928 02e6 13       		.uleb128 0x13
 10929 02e7 02       		.uleb128 0x2
 10930 02e8 17       		.uleb128 0x17
 10931 02e9 00       		.byte	0
 10932 02ea 00       		.byte	0
 10933 02eb 3B       		.uleb128 0x3b
 10934 02ec 0B       		.uleb128 0xb
 10935 02ed 01       		.byte	0x1
 10936 02ee 55       		.uleb128 0x55
 10937 02ef 17       		.uleb128 0x17
 10938 02f0 00       		.byte	0
 10939 02f1 00       		.byte	0
 10940 02f2 3C       		.uleb128 0x3c
 10941 02f3 34       		.uleb128 0x34
 10942 02f4 00       		.byte	0
ARM GAS  /tmp/ccQCTkSU.s 			page 193


 10943 02f5 31       		.uleb128 0x31
 10944 02f6 13       		.uleb128 0x13
 10945 02f7 02       		.uleb128 0x2
 10946 02f8 18       		.uleb128 0x18
 10947 02f9 00       		.byte	0
 10948 02fa 00       		.byte	0
 10949 02fb 3D       		.uleb128 0x3d
 10950 02fc 34       		.uleb128 0x34
 10951 02fd 00       		.byte	0
 10952 02fe 31       		.uleb128 0x31
 10953 02ff 13       		.uleb128 0x13
 10954 0300 02       		.uleb128 0x2
 10955 0301 17       		.uleb128 0x17
 10956 0302 00       		.byte	0
 10957 0303 00       		.byte	0
 10958 0304 3E       		.uleb128 0x3e
 10959 0305 898201   		.uleb128 0x4109
 10960 0308 01       		.byte	0x1
 10961 0309 11       		.uleb128 0x11
 10962 030a 01       		.uleb128 0x1
 10963 030b 31       		.uleb128 0x31
 10964 030c 13       		.uleb128 0x13
 10965 030d 01       		.uleb128 0x1
 10966 030e 13       		.uleb128 0x13
 10967 030f 00       		.byte	0
 10968 0310 00       		.byte	0
 10969 0311 3F       		.uleb128 0x3f
 10970 0312 8A8201   		.uleb128 0x410a
 10971 0315 00       		.byte	0
 10972 0316 02       		.uleb128 0x2
 10973 0317 18       		.uleb128 0x18
 10974 0318 9142     		.uleb128 0x2111
 10975 031a 18       		.uleb128 0x18
 10976 031b 00       		.byte	0
 10977 031c 00       		.byte	0
 10978 031d 40       		.uleb128 0x40
 10979 031e 898201   		.uleb128 0x4109
 10980 0321 01       		.byte	0x1
 10981 0322 11       		.uleb128 0x11
 10982 0323 01       		.uleb128 0x1
 10983 0324 31       		.uleb128 0x31
 10984 0325 13       		.uleb128 0x13
 10985 0326 00       		.byte	0
 10986 0327 00       		.byte	0
 10987 0328 41       		.uleb128 0x41
 10988 0329 34       		.uleb128 0x34
 10989 032a 00       		.byte	0
 10990 032b 03       		.uleb128 0x3
 10991 032c 0E       		.uleb128 0xe
 10992 032d 3A       		.uleb128 0x3a
 10993 032e 0B       		.uleb128 0xb
 10994 032f 3B       		.uleb128 0x3b
 10995 0330 05       		.uleb128 0x5
 10996 0331 49       		.uleb128 0x49
 10997 0332 13       		.uleb128 0x13
 10998 0333 02       		.uleb128 0x2
 10999 0334 18       		.uleb128 0x18
ARM GAS  /tmp/ccQCTkSU.s 			page 194


 11000 0335 00       		.byte	0
 11001 0336 00       		.byte	0
 11002 0337 42       		.uleb128 0x42
 11003 0338 2E       		.uleb128 0x2e
 11004 0339 01       		.byte	0x1
 11005 033a 3F       		.uleb128 0x3f
 11006 033b 19       		.uleb128 0x19
 11007 033c 03       		.uleb128 0x3
 11008 033d 0E       		.uleb128 0xe
 11009 033e 3A       		.uleb128 0x3a
 11010 033f 0B       		.uleb128 0xb
 11011 0340 3B       		.uleb128 0x3b
 11012 0341 0B       		.uleb128 0xb
 11013 0342 27       		.uleb128 0x27
 11014 0343 19       		.uleb128 0x19
 11015 0344 49       		.uleb128 0x49
 11016 0345 13       		.uleb128 0x13
 11017 0346 11       		.uleb128 0x11
 11018 0347 01       		.uleb128 0x1
 11019 0348 12       		.uleb128 0x12
 11020 0349 06       		.uleb128 0x6
 11021 034a 40       		.uleb128 0x40
 11022 034b 18       		.uleb128 0x18
 11023 034c 9642     		.uleb128 0x2116
 11024 034e 19       		.uleb128 0x19
 11025 034f 01       		.uleb128 0x1
 11026 0350 13       		.uleb128 0x13
 11027 0351 00       		.byte	0
 11028 0352 00       		.byte	0
 11029 0353 43       		.uleb128 0x43
 11030 0354 05       		.uleb128 0x5
 11031 0355 00       		.byte	0
 11032 0356 03       		.uleb128 0x3
 11033 0357 08       		.uleb128 0x8
 11034 0358 3A       		.uleb128 0x3a
 11035 0359 0B       		.uleb128 0xb
 11036 035a 3B       		.uleb128 0x3b
 11037 035b 0B       		.uleb128 0xb
 11038 035c 49       		.uleb128 0x49
 11039 035d 13       		.uleb128 0x13
 11040 035e 02       		.uleb128 0x2
 11041 035f 17       		.uleb128 0x17
 11042 0360 00       		.byte	0
 11043 0361 00       		.byte	0
 11044 0362 44       		.uleb128 0x44
 11045 0363 34       		.uleb128 0x34
 11046 0364 00       		.byte	0
 11047 0365 03       		.uleb128 0x3
 11048 0366 08       		.uleb128 0x8
 11049 0367 3A       		.uleb128 0x3a
 11050 0368 0B       		.uleb128 0xb
 11051 0369 3B       		.uleb128 0x3b
 11052 036a 0B       		.uleb128 0xb
 11053 036b 49       		.uleb128 0x49
 11054 036c 13       		.uleb128 0x13
 11055 036d 02       		.uleb128 0x2
 11056 036e 17       		.uleb128 0x17
ARM GAS  /tmp/ccQCTkSU.s 			page 195


 11057 036f 00       		.byte	0
 11058 0370 00       		.byte	0
 11059 0371 45       		.uleb128 0x45
 11060 0372 34       		.uleb128 0x34
 11061 0373 00       		.byte	0
 11062 0374 03       		.uleb128 0x3
 11063 0375 0E       		.uleb128 0xe
 11064 0376 3A       		.uleb128 0x3a
 11065 0377 0B       		.uleb128 0xb
 11066 0378 3B       		.uleb128 0x3b
 11067 0379 0B       		.uleb128 0xb
 11068 037a 49       		.uleb128 0x49
 11069 037b 13       		.uleb128 0x13
 11070 037c 02       		.uleb128 0x2
 11071 037d 17       		.uleb128 0x17
 11072 037e 00       		.byte	0
 11073 037f 00       		.byte	0
 11074 0380 46       		.uleb128 0x46
 11075 0381 0A       		.uleb128 0xa
 11076 0382 00       		.byte	0
 11077 0383 03       		.uleb128 0x3
 11078 0384 0E       		.uleb128 0xe
 11079 0385 3A       		.uleb128 0x3a
 11080 0386 0B       		.uleb128 0xb
 11081 0387 3B       		.uleb128 0x3b
 11082 0388 05       		.uleb128 0x5
 11083 0389 11       		.uleb128 0x11
 11084 038a 01       		.uleb128 0x1
 11085 038b 00       		.byte	0
 11086 038c 00       		.byte	0
 11087 038d 47       		.uleb128 0x47
 11088 038e 0B       		.uleb128 0xb
 11089 038f 01       		.byte	0x1
 11090 0390 55       		.uleb128 0x55
 11091 0391 17       		.uleb128 0x17
 11092 0392 01       		.uleb128 0x1
 11093 0393 13       		.uleb128 0x13
 11094 0394 00       		.byte	0
 11095 0395 00       		.byte	0
 11096 0396 48       		.uleb128 0x48
 11097 0397 1D       		.uleb128 0x1d
 11098 0398 01       		.byte	0x1
 11099 0399 31       		.uleb128 0x31
 11100 039a 13       		.uleb128 0x13
 11101 039b 52       		.uleb128 0x52
 11102 039c 01       		.uleb128 0x1
 11103 039d 55       		.uleb128 0x55
 11104 039e 17       		.uleb128 0x17
 11105 039f 58       		.uleb128 0x58
 11106 03a0 0B       		.uleb128 0xb
 11107 03a1 59       		.uleb128 0x59
 11108 03a2 05       		.uleb128 0x5
 11109 03a3 01       		.uleb128 0x1
 11110 03a4 13       		.uleb128 0x13
 11111 03a5 00       		.byte	0
 11112 03a6 00       		.byte	0
 11113 03a7 49       		.uleb128 0x49
ARM GAS  /tmp/ccQCTkSU.s 			page 196


 11114 03a8 1D       		.uleb128 0x1d
 11115 03a9 01       		.byte	0x1
 11116 03aa 31       		.uleb128 0x31
 11117 03ab 13       		.uleb128 0x13
 11118 03ac 52       		.uleb128 0x52
 11119 03ad 01       		.uleb128 0x1
 11120 03ae 55       		.uleb128 0x55
 11121 03af 17       		.uleb128 0x17
 11122 03b0 58       		.uleb128 0x58
 11123 03b1 0B       		.uleb128 0xb
 11124 03b2 59       		.uleb128 0x59
 11125 03b3 0B       		.uleb128 0xb
 11126 03b4 00       		.byte	0
 11127 03b5 00       		.byte	0
 11128 03b6 4A       		.uleb128 0x4a
 11129 03b7 898201   		.uleb128 0x4109
 11130 03ba 01       		.byte	0x1
 11131 03bb 11       		.uleb128 0x11
 11132 03bc 01       		.uleb128 0x1
 11133 03bd 01       		.uleb128 0x1
 11134 03be 13       		.uleb128 0x13
 11135 03bf 00       		.byte	0
 11136 03c0 00       		.byte	0
 11137 03c1 4B       		.uleb128 0x4b
 11138 03c2 898201   		.uleb128 0x4109
 11139 03c5 01       		.byte	0x1
 11140 03c6 11       		.uleb128 0x11
 11141 03c7 01       		.uleb128 0x1
 11142 03c8 00       		.byte	0
 11143 03c9 00       		.byte	0
 11144 03ca 4C       		.uleb128 0x4c
 11145 03cb 2E       		.uleb128 0x2e
 11146 03cc 01       		.byte	0x1
 11147 03cd 3F       		.uleb128 0x3f
 11148 03ce 19       		.uleb128 0x19
 11149 03cf 03       		.uleb128 0x3
 11150 03d0 0E       		.uleb128 0xe
 11151 03d1 3A       		.uleb128 0x3a
 11152 03d2 0B       		.uleb128 0xb
 11153 03d3 3B       		.uleb128 0x3b
 11154 03d4 0B       		.uleb128 0xb
 11155 03d5 27       		.uleb128 0x27
 11156 03d6 19       		.uleb128 0x19
 11157 03d7 49       		.uleb128 0x49
 11158 03d8 13       		.uleb128 0x13
 11159 03d9 20       		.uleb128 0x20
 11160 03da 0B       		.uleb128 0xb
 11161 03db 01       		.uleb128 0x1
 11162 03dc 13       		.uleb128 0x13
 11163 03dd 00       		.byte	0
 11164 03de 00       		.byte	0
 11165 03df 4D       		.uleb128 0x4d
 11166 03e0 05       		.uleb128 0x5
 11167 03e1 00       		.byte	0
 11168 03e2 03       		.uleb128 0x3
 11169 03e3 08       		.uleb128 0x8
 11170 03e4 3A       		.uleb128 0x3a
ARM GAS  /tmp/ccQCTkSU.s 			page 197


 11171 03e5 0B       		.uleb128 0xb
 11172 03e6 3B       		.uleb128 0x3b
 11173 03e7 0B       		.uleb128 0xb
 11174 03e8 49       		.uleb128 0x49
 11175 03e9 13       		.uleb128 0x13
 11176 03ea 00       		.byte	0
 11177 03eb 00       		.byte	0
 11178 03ec 4E       		.uleb128 0x4e
 11179 03ed 05       		.uleb128 0x5
 11180 03ee 00       		.byte	0
 11181 03ef 03       		.uleb128 0x3
 11182 03f0 0E       		.uleb128 0xe
 11183 03f1 3A       		.uleb128 0x3a
 11184 03f2 0B       		.uleb128 0xb
 11185 03f3 3B       		.uleb128 0x3b
 11186 03f4 0B       		.uleb128 0xb
 11187 03f5 49       		.uleb128 0x49
 11188 03f6 13       		.uleb128 0x13
 11189 03f7 00       		.byte	0
 11190 03f8 00       		.byte	0
 11191 03f9 4F       		.uleb128 0x4f
 11192 03fa 34       		.uleb128 0x34
 11193 03fb 00       		.byte	0
 11194 03fc 03       		.uleb128 0x3
 11195 03fd 08       		.uleb128 0x8
 11196 03fe 3A       		.uleb128 0x3a
 11197 03ff 0B       		.uleb128 0xb
 11198 0400 3B       		.uleb128 0x3b
 11199 0401 0B       		.uleb128 0xb
 11200 0402 49       		.uleb128 0x49
 11201 0403 13       		.uleb128 0x13
 11202 0404 00       		.byte	0
 11203 0405 00       		.byte	0
 11204 0406 50       		.uleb128 0x50
 11205 0407 0B       		.uleb128 0xb
 11206 0408 01       		.byte	0x1
 11207 0409 00       		.byte	0
 11208 040a 00       		.byte	0
 11209 040b 51       		.uleb128 0x51
 11210 040c 2E       		.uleb128 0x2e
 11211 040d 01       		.byte	0x1
 11212 040e 03       		.uleb128 0x3
 11213 040f 0E       		.uleb128 0xe
 11214 0410 3A       		.uleb128 0x3a
 11215 0411 0B       		.uleb128 0xb
 11216 0412 3B       		.uleb128 0x3b
 11217 0413 0B       		.uleb128 0xb
 11218 0414 27       		.uleb128 0x27
 11219 0415 19       		.uleb128 0x19
 11220 0416 49       		.uleb128 0x49
 11221 0417 13       		.uleb128 0x13
 11222 0418 20       		.uleb128 0x20
 11223 0419 0B       		.uleb128 0xb
 11224 041a 01       		.uleb128 0x1
 11225 041b 13       		.uleb128 0x13
 11226 041c 00       		.byte	0
 11227 041d 00       		.byte	0
ARM GAS  /tmp/ccQCTkSU.s 			page 198


 11228 041e 52       		.uleb128 0x52
 11229 041f 2E       		.uleb128 0x2e
 11230 0420 01       		.byte	0x1
 11231 0421 31       		.uleb128 0x31
 11232 0422 13       		.uleb128 0x13
 11233 0423 11       		.uleb128 0x11
 11234 0424 01       		.uleb128 0x1
 11235 0425 12       		.uleb128 0x12
 11236 0426 06       		.uleb128 0x6
 11237 0427 40       		.uleb128 0x40
 11238 0428 18       		.uleb128 0x18
 11239 0429 9642     		.uleb128 0x2116
 11240 042b 19       		.uleb128 0x19
 11241 042c 01       		.uleb128 0x1
 11242 042d 13       		.uleb128 0x13
 11243 042e 00       		.byte	0
 11244 042f 00       		.byte	0
 11245 0430 53       		.uleb128 0x53
 11246 0431 34       		.uleb128 0x34
 11247 0432 00       		.byte	0
 11248 0433 31       		.uleb128 0x31
 11249 0434 13       		.uleb128 0x13
 11250 0435 00       		.byte	0
 11251 0436 00       		.byte	0
 11252 0437 54       		.uleb128 0x54
 11253 0438 0B       		.uleb128 0xb
 11254 0439 01       		.byte	0x1
 11255 043a 31       		.uleb128 0x31
 11256 043b 13       		.uleb128 0x13
 11257 043c 55       		.uleb128 0x55
 11258 043d 17       		.uleb128 0x17
 11259 043e 00       		.byte	0
 11260 043f 00       		.byte	0
 11261 0440 55       		.uleb128 0x55
 11262 0441 1D       		.uleb128 0x1d
 11263 0442 01       		.byte	0x1
 11264 0443 31       		.uleb128 0x31
 11265 0444 13       		.uleb128 0x13
 11266 0445 52       		.uleb128 0x52
 11267 0446 01       		.uleb128 0x1
 11268 0447 55       		.uleb128 0x55
 11269 0448 17       		.uleb128 0x17
 11270 0449 58       		.uleb128 0x58
 11271 044a 0B       		.uleb128 0xb
 11272 044b 59       		.uleb128 0x59
 11273 044c 0B       		.uleb128 0xb
 11274 044d 01       		.uleb128 0x1
 11275 044e 13       		.uleb128 0x13
 11276 044f 00       		.byte	0
 11277 0450 00       		.byte	0
 11278 0451 56       		.uleb128 0x56
 11279 0452 2E       		.uleb128 0x2e
 11280 0453 01       		.byte	0x1
 11281 0454 31       		.uleb128 0x31
 11282 0455 13       		.uleb128 0x13
 11283 0456 11       		.uleb128 0x11
 11284 0457 01       		.uleb128 0x1
ARM GAS  /tmp/ccQCTkSU.s 			page 199


 11285 0458 12       		.uleb128 0x12
 11286 0459 06       		.uleb128 0x6
 11287 045a 40       		.uleb128 0x40
 11288 045b 18       		.uleb128 0x18
 11289 045c 9742     		.uleb128 0x2117
 11290 045e 19       		.uleb128 0x19
 11291 045f 01       		.uleb128 0x1
 11292 0460 13       		.uleb128 0x13
 11293 0461 00       		.byte	0
 11294 0462 00       		.byte	0
 11295 0463 57       		.uleb128 0x57
 11296 0464 2E       		.uleb128 0x2e
 11297 0465 00       		.byte	0
 11298 0466 3F       		.uleb128 0x3f
 11299 0467 19       		.uleb128 0x19
 11300 0468 3C       		.uleb128 0x3c
 11301 0469 19       		.uleb128 0x19
 11302 046a 6E       		.uleb128 0x6e
 11303 046b 0E       		.uleb128 0xe
 11304 046c 03       		.uleb128 0x3
 11305 046d 0E       		.uleb128 0xe
 11306 046e 3A       		.uleb128 0x3a
 11307 046f 0B       		.uleb128 0xb
 11308 0470 3B       		.uleb128 0x3b
 11309 0471 0B       		.uleb128 0xb
 11310 0472 00       		.byte	0
 11311 0473 00       		.byte	0
 11312 0474 00       		.byte	0
 11313              		.section	.debug_loc,"",%progbits
 11314              	.Ldebug_loc0:
 11315              	.LLST69:
 11316 0000 00000000 		.4byte	.LVL385
 11317 0004 1A000000 		.4byte	.LVL389
 11318 0008 0100     		.2byte	0x1
 11319 000a 50       		.byte	0x50
 11320 000b 1A000000 		.4byte	.LVL389
 11321 000f 3A000000 		.4byte	.LVL395
 11322 0013 0100     		.2byte	0x1
 11323 0015 56       		.byte	0x56
 11324 0016 3A000000 		.4byte	.LVL395
 11325 001a 3E000000 		.4byte	.LVL396
 11326 001e 0400     		.2byte	0x4
 11327 0020 F3       		.byte	0xf3
 11328 0021 01       		.uleb128 0x1
 11329 0022 50       		.byte	0x50
 11330 0023 9F       		.byte	0x9f
 11331 0024 3E000000 		.4byte	.LVL396
 11332 0028 44000000 		.4byte	.LVL398
 11333 002c 0100     		.2byte	0x1
 11334 002e 50       		.byte	0x50
 11335 002f 44000000 		.4byte	.LVL398
 11336 0033 5A000000 		.4byte	.LVL402
 11337 0037 0100     		.2byte	0x1
 11338 0039 56       		.byte	0x56
 11339 003a 5A000000 		.4byte	.LVL402
 11340 003e 5E000000 		.4byte	.LFE332
 11341 0042 0400     		.2byte	0x4
ARM GAS  /tmp/ccQCTkSU.s 			page 200


 11342 0044 F3       		.byte	0xf3
 11343 0045 01       		.uleb128 0x1
 11344 0046 50       		.byte	0x50
 11345 0047 9F       		.byte	0x9f
 11346 0048 00000000 		.4byte	0
 11347 004c 00000000 		.4byte	0
 11348              	.LLST70:
 11349 0050 00000000 		.4byte	.LVL385
 11350 0054 1C000000 		.4byte	.LVL390
 11351 0058 0100     		.2byte	0x1
 11352 005a 51       		.byte	0x51
 11353 005b 1C000000 		.4byte	.LVL390
 11354 005f 3A000000 		.4byte	.LVL395
 11355 0063 0100     		.2byte	0x1
 11356 0065 55       		.byte	0x55
 11357 0066 3A000000 		.4byte	.LVL395
 11358 006a 3E000000 		.4byte	.LVL396
 11359 006e 0400     		.2byte	0x4
 11360 0070 F3       		.byte	0xf3
 11361 0071 01       		.uleb128 0x1
 11362 0072 51       		.byte	0x51
 11363 0073 9F       		.byte	0x9f
 11364 0074 3E000000 		.4byte	.LVL396
 11365 0078 40000000 		.4byte	.LVL397
 11366 007c 0100     		.2byte	0x1
 11367 007e 51       		.byte	0x51
 11368 007f 40000000 		.4byte	.LVL397
 11369 0083 5A000000 		.4byte	.LVL402
 11370 0087 0100     		.2byte	0x1
 11371 0089 55       		.byte	0x55
 11372 008a 5A000000 		.4byte	.LVL402
 11373 008e 5E000000 		.4byte	.LFE332
 11374 0092 0400     		.2byte	0x4
 11375 0094 F3       		.byte	0xf3
 11376 0095 01       		.uleb128 0x1
 11377 0096 51       		.byte	0x51
 11378 0097 9F       		.byte	0x9f
 11379 0098 00000000 		.4byte	0
 11380 009c 00000000 		.4byte	0
 11381              	.LLST71:
 11382 00a0 10000000 		.4byte	.LVL386
 11383 00a4 34000000 		.4byte	.LVL394
 11384 00a8 0100     		.2byte	0x1
 11385 00aa 57       		.byte	0x57
 11386 00ab 3E000000 		.4byte	.LVL396
 11387 00af 5A000000 		.4byte	.LVL402
 11388 00b3 0100     		.2byte	0x1
 11389 00b5 57       		.byte	0x57
 11390 00b6 5A000000 		.4byte	.LVL402
 11391 00ba 5C000000 		.4byte	.LVL403
 11392 00be 0200     		.2byte	0x2
 11393 00c0 7D       		.byte	0x7d
 11394 00c1 00       		.sleb128 0
 11395 00c2 5C000000 		.4byte	.LVL403
 11396 00c6 5E000000 		.4byte	.LFE332
 11397 00ca 0200     		.2byte	0x2
 11398 00cc 91       		.byte	0x91
ARM GAS  /tmp/ccQCTkSU.s 			page 201


 11399 00cd 68       		.sleb128 -24
 11400 00ce 00000000 		.4byte	0
 11401 00d2 00000000 		.4byte	0
 11402              	.LLST72:
 11403 00d6 10000000 		.4byte	.LVL386
 11404 00da 1C000000 		.4byte	.LVL390
 11405 00de 0100     		.2byte	0x1
 11406 00e0 51       		.byte	0x51
 11407 00e1 1C000000 		.4byte	.LVL390
 11408 00e5 34000000 		.4byte	.LVL394
 11409 00e9 0100     		.2byte	0x1
 11410 00eb 55       		.byte	0x55
 11411 00ec 3E000000 		.4byte	.LVL396
 11412 00f0 40000000 		.4byte	.LVL397
 11413 00f4 0100     		.2byte	0x1
 11414 00f6 51       		.byte	0x51
 11415 00f7 40000000 		.4byte	.LVL397
 11416 00fb 5A000000 		.4byte	.LVL402
 11417 00ff 0100     		.2byte	0x1
 11418 0101 55       		.byte	0x55
 11419 0102 5A000000 		.4byte	.LVL402
 11420 0106 5E000000 		.4byte	.LFE332
 11421 010a 0400     		.2byte	0x4
 11422 010c F3       		.byte	0xf3
 11423 010d 01       		.uleb128 0x1
 11424 010e 51       		.byte	0x51
 11425 010f 9F       		.byte	0x9f
 11426 0110 00000000 		.4byte	0
 11427 0114 00000000 		.4byte	0
 11428              	.LLST73:
 11429 0118 10000000 		.4byte	.LVL386
 11430 011c 1A000000 		.4byte	.LVL389
 11431 0120 0100     		.2byte	0x1
 11432 0122 50       		.byte	0x50
 11433 0123 1A000000 		.4byte	.LVL389
 11434 0127 34000000 		.4byte	.LVL394
 11435 012b 0100     		.2byte	0x1
 11436 012d 56       		.byte	0x56
 11437 012e 3E000000 		.4byte	.LVL396
 11438 0132 44000000 		.4byte	.LVL398
 11439 0136 0100     		.2byte	0x1
 11440 0138 50       		.byte	0x50
 11441 0139 44000000 		.4byte	.LVL398
 11442 013d 5A000000 		.4byte	.LVL402
 11443 0141 0100     		.2byte	0x1
 11444 0143 56       		.byte	0x56
 11445 0144 5A000000 		.4byte	.LVL402
 11446 0148 5E000000 		.4byte	.LFE332
 11447 014c 0400     		.2byte	0x4
 11448 014e F3       		.byte	0xf3
 11449 014f 01       		.uleb128 0x1
 11450 0150 50       		.byte	0x50
 11451 0151 9F       		.byte	0x9f
 11452 0152 00000000 		.4byte	0
 11453 0156 00000000 		.4byte	0
 11454              	.LLST74:
 11455 015a 20000000 		.4byte	.LVL391
ARM GAS  /tmp/ccQCTkSU.s 			page 202


 11456 015e 26000000 		.4byte	.LVL392
 11457 0162 0400     		.2byte	0x4
 11458 0164 91       		.byte	0x91
 11459 0165 BC7F     		.sleb128 -68
 11460 0167 9F       		.byte	0x9f
 11461 0168 26000000 		.4byte	.LVL392
 11462 016c 29000000 		.4byte	.LVL393-1
 11463 0170 0100     		.2byte	0x1
 11464 0172 50       		.byte	0x50
 11465 0173 29000000 		.4byte	.LVL393-1
 11466 0177 3E000000 		.4byte	.LVL396
 11467 017b 0400     		.2byte	0x4
 11468 017d 91       		.byte	0x91
 11469 017e BC7F     		.sleb128 -68
 11470 0180 9F       		.byte	0x9f
 11471 0181 4A000000 		.4byte	.LVL399
 11472 0185 50000000 		.4byte	.LVL400
 11473 0189 0400     		.2byte	0x4
 11474 018b 91       		.byte	0x91
 11475 018c BC7F     		.sleb128 -68
 11476 018e 9F       		.byte	0x9f
 11477 018f 50000000 		.4byte	.LVL400
 11478 0193 53000000 		.4byte	.LVL401-1
 11479 0197 0100     		.2byte	0x1
 11480 0199 50       		.byte	0x50
 11481 019a 53000000 		.4byte	.LVL401-1
 11482 019e 5E000000 		.4byte	.LFE332
 11483 01a2 0400     		.2byte	0x4
 11484 01a4 91       		.byte	0x91
 11485 01a5 BC7F     		.sleb128 -68
 11486 01a7 9F       		.byte	0x9f
 11487 01a8 00000000 		.4byte	0
 11488 01ac 00000000 		.4byte	0
 11489              	.LLST75:
 11490 01b0 14000000 		.4byte	.LVL387
 11491 01b4 18000000 		.4byte	.LVL388
 11492 01b8 0300     		.2byte	0x3
 11493 01ba 71       		.byte	0x71
 11494 01bb 7F       		.sleb128 -1
 11495 01bc 9F       		.byte	0x9f
 11496 01bd 18000000 		.4byte	.LVL388
 11497 01c1 1F000000 		.4byte	.LVL391-1
 11498 01c5 0100     		.2byte	0x1
 11499 01c7 52       		.byte	0x52
 11500 01c8 1F000000 		.4byte	.LVL391-1
 11501 01cc 34000000 		.4byte	.LVL394
 11502 01d0 0300     		.2byte	0x3
 11503 01d2 75       		.byte	0x75
 11504 01d3 7F       		.sleb128 -1
 11505 01d4 9F       		.byte	0x9f
 11506 01d5 3E000000 		.4byte	.LVL396
 11507 01d9 5E000000 		.4byte	.LFE332
 11508 01dd 0200     		.2byte	0x2
 11509 01df 30       		.byte	0x30
 11510 01e0 9F       		.byte	0x9f
 11511 01e1 00000000 		.4byte	0
 11512 01e5 00000000 		.4byte	0
ARM GAS  /tmp/ccQCTkSU.s 			page 203


 11513              	.LLST76:
 11514 01e9 2A000000 		.4byte	.LVL393
 11515 01ed 34000000 		.4byte	.LVL394
 11516 01f1 0100     		.2byte	0x1
 11517 01f3 50       		.byte	0x50
 11518 01f4 54000000 		.4byte	.LVL401
 11519 01f8 5E000000 		.4byte	.LFE332
 11520 01fc 0100     		.2byte	0x1
 11521 01fe 50       		.byte	0x50
 11522 01ff 00000000 		.4byte	0
 11523 0203 00000000 		.4byte	0
 11524              	.LLST68:
 11525 0207 00000000 		.4byte	.LVL383
 11526 020b 11000000 		.4byte	.LVL384-1
 11527 020f 0100     		.2byte	0x1
 11528 0211 50       		.byte	0x50
 11529 0212 11000000 		.4byte	.LVL384-1
 11530 0216 1C000000 		.4byte	.LFE331
 11531 021a 0400     		.2byte	0x4
 11532 021c F3       		.byte	0xf3
 11533 021d 01       		.uleb128 0x1
 11534 021e 50       		.byte	0x50
 11535 021f 9F       		.byte	0x9f
 11536 0220 00000000 		.4byte	0
 11537 0224 00000000 		.4byte	0
 11538              	.LLST38:
 11539 0228 00000000 		.4byte	.LVL203
 11540 022c 10000000 		.4byte	.LVL205
 11541 0230 0100     		.2byte	0x1
 11542 0232 50       		.byte	0x50
 11543 0233 10000000 		.4byte	.LVL205
 11544 0237 D4050000 		.4byte	.LFE330
 11545 023b 0100     		.2byte	0x1
 11546 023d 55       		.byte	0x55
 11547 023e 00000000 		.4byte	0
 11548 0242 00000000 		.4byte	0
 11549              	.LLST39:
 11550 0246 00000000 		.4byte	.LVL203
 11551 024a 10000000 		.4byte	.LVL205
 11552 024e 0100     		.2byte	0x1
 11553 0250 51       		.byte	0x51
 11554 0251 10000000 		.4byte	.LVL205
 11555 0255 18000000 		.4byte	.LVL206
 11556 0259 0100     		.2byte	0x1
 11557 025b 5B       		.byte	0x5b
 11558 025c 18000000 		.4byte	.LVL206
 11559 0260 27000000 		.4byte	.LVL208-1
 11560 0264 0100     		.2byte	0x1
 11561 0266 52       		.byte	0x52
 11562 0267 27000000 		.4byte	.LVL208-1
 11563 026b 34000000 		.4byte	.LVL210
 11564 026f 0100     		.2byte	0x1
 11565 0271 5B       		.byte	0x5b
 11566 0272 34000000 		.4byte	.LVL210
 11567 0276 5C000000 		.4byte	.LVL214
 11568 027a 0100     		.2byte	0x1
 11569 027c 52       		.byte	0x52
ARM GAS  /tmp/ccQCTkSU.s 			page 204


 11570 027d 5C000000 		.4byte	.LVL214
 11571 0281 5E000000 		.4byte	.LVL215
 11572 0285 0300     		.2byte	0x3
 11573 0287 72       		.byte	0x72
 11574 0288 01       		.sleb128 1
 11575 0289 9F       		.byte	0x9f
 11576 028a 5E000000 		.4byte	.LVL215
 11577 028e 62000000 		.4byte	.LVL216
 11578 0292 0100     		.2byte	0x1
 11579 0294 52       		.byte	0x52
 11580 0295 62000000 		.4byte	.LVL216
 11581 0299 6E000000 		.4byte	.LVL219
 11582 029d 0300     		.2byte	0x3
 11583 029f 72       		.byte	0x72
 11584 02a0 7F       		.sleb128 -1
 11585 02a1 9F       		.byte	0x9f
 11586 02a2 6E000000 		.4byte	.LVL219
 11587 02a6 72000000 		.4byte	.LVL220
 11588 02aa 0100     		.2byte	0x1
 11589 02ac 52       		.byte	0x52
 11590 02ad 72000000 		.4byte	.LVL220
 11591 02b1 8C000000 		.4byte	.LVL222
 11592 02b5 0300     		.2byte	0x3
 11593 02b7 72       		.byte	0x72
 11594 02b8 7F       		.sleb128 -1
 11595 02b9 9F       		.byte	0x9f
 11596 02ba 8C000000 		.4byte	.LVL222
 11597 02be 16010000 		.4byte	.LVL224
 11598 02c2 0100     		.2byte	0x1
 11599 02c4 52       		.byte	0x52
 11600 02c5 16010000 		.4byte	.LVL224
 11601 02c9 22010000 		.4byte	.LVL227
 11602 02cd 0300     		.2byte	0x3
 11603 02cf 72       		.byte	0x72
 11604 02d0 7F       		.sleb128 -1
 11605 02d1 9F       		.byte	0x9f
 11606 02d2 22010000 		.4byte	.LVL227
 11607 02d6 26010000 		.4byte	.LVL228
 11608 02da 0100     		.2byte	0x1
 11609 02dc 52       		.byte	0x52
 11610 02dd 26010000 		.4byte	.LVL228
 11611 02e1 3A010000 		.4byte	.LVL229
 11612 02e5 0300     		.2byte	0x3
 11613 02e7 72       		.byte	0x72
 11614 02e8 7F       		.sleb128 -1
 11615 02e9 9F       		.byte	0x9f
 11616 02ea 3A010000 		.4byte	.LVL229
 11617 02ee 3E010000 		.4byte	.LVL230
 11618 02f2 0100     		.2byte	0x1
 11619 02f4 52       		.byte	0x52
 11620 02f5 3E010000 		.4byte	.LVL230
 11621 02f9 B6010000 		.4byte	.LVL231
 11622 02fd 0100     		.2byte	0x1
 11623 02ff 5B       		.byte	0x5b
 11624 0300 B6010000 		.4byte	.LVL231
 11625 0304 BE010000 		.4byte	.LVL233
 11626 0308 0100     		.2byte	0x1
ARM GAS  /tmp/ccQCTkSU.s 			page 205


 11627 030a 52       		.byte	0x52
 11628 030b BE010000 		.4byte	.LVL233
 11629 030f 00020000 		.4byte	.LVL245
 11630 0313 0100     		.2byte	0x1
 11631 0315 5B       		.byte	0x5b
 11632 0316 00020000 		.4byte	.LVL245
 11633 031a 02020000 		.4byte	.LVL246
 11634 031e 0100     		.2byte	0x1
 11635 0320 52       		.byte	0x52
 11636 0321 02020000 		.4byte	.LVL246
 11637 0325 44020000 		.4byte	.LVL258
 11638 0329 0100     		.2byte	0x1
 11639 032b 5B       		.byte	0x5b
 11640 032c 44020000 		.4byte	.LVL258
 11641 0330 46020000 		.4byte	.LVL259
 11642 0334 0100     		.2byte	0x1
 11643 0336 52       		.byte	0x52
 11644 0337 46020000 		.4byte	.LVL259
 11645 033b DE020000 		.4byte	.LVL279
 11646 033f 0100     		.2byte	0x1
 11647 0341 5B       		.byte	0x5b
 11648 0342 DE020000 		.4byte	.LVL279
 11649 0346 E0020000 		.4byte	.LVL280
 11650 034a 0100     		.2byte	0x1
 11651 034c 52       		.byte	0x52
 11652 034d E0020000 		.4byte	.LVL280
 11653 0351 8E030000 		.4byte	.LVL305
 11654 0355 0100     		.2byte	0x1
 11655 0357 5B       		.byte	0x5b
 11656 0358 8E030000 		.4byte	.LVL305
 11657 035c 90030000 		.4byte	.LVL306
 11658 0360 0100     		.2byte	0x1
 11659 0362 52       		.byte	0x52
 11660 0363 90030000 		.4byte	.LVL306
 11661 0367 94030000 		.4byte	.LVL307
 11662 036b 0100     		.2byte	0x1
 11663 036d 5B       		.byte	0x5b
 11664 036e 94030000 		.4byte	.LVL307
 11665 0372 98030000 		.4byte	.LVL309
 11666 0376 0100     		.2byte	0x1
 11667 0378 52       		.byte	0x52
 11668 0379 98030000 		.4byte	.LVL309
 11669 037d 16050000 		.4byte	.LVL360
 11670 0381 0100     		.2byte	0x1
 11671 0383 5B       		.byte	0x5b
 11672 0384 16050000 		.4byte	.LVL360
 11673 0388 3A050000 		.4byte	.LVL364
 11674 038c 0100     		.2byte	0x1
 11675 038e 52       		.byte	0x52
 11676 038f 3A050000 		.4byte	.LVL364
 11677 0393 D4050000 		.4byte	.LFE330
 11678 0397 0100     		.2byte	0x1
 11679 0399 5B       		.byte	0x5b
 11680 039a 00000000 		.4byte	0
 11681 039e 00000000 		.4byte	0
 11682              	.LLST40:
 11683 03a2 00000000 		.4byte	.LVL203
ARM GAS  /tmp/ccQCTkSU.s 			page 206


 11684 03a6 0C000000 		.4byte	.LVL204
 11685 03aa 0100     		.2byte	0x1
 11686 03ac 52       		.byte	0x52
 11687 03ad 0C000000 		.4byte	.LVL204
 11688 03b1 10000000 		.4byte	.LVL205
 11689 03b5 0300     		.2byte	0x3
 11690 03b7 52       		.byte	0x52
 11691 03b8 93       		.byte	0x93
 11692 03b9 04       		.uleb128 0x4
 11693 03ba 10000000 		.4byte	.LVL205
 11694 03be 18000000 		.4byte	.LVL206
 11695 03c2 0300     		.2byte	0x3
 11696 03c4 59       		.byte	0x59
 11697 03c5 93       		.byte	0x93
 11698 03c6 04       		.uleb128 0x4
 11699 03c7 1A000000 		.4byte	.LVL207
 11700 03cb 40000000 		.4byte	.LVL211
 11701 03cf 0300     		.2byte	0x3
 11702 03d1 59       		.byte	0x59
 11703 03d2 93       		.byte	0x93
 11704 03d3 04       		.uleb128 0x4
 11705 03d4 40000000 		.4byte	.LVL211
 11706 03d8 62000000 		.4byte	.LVL216
 11707 03dc 0300     		.2byte	0x3
 11708 03de 59       		.byte	0x59
 11709 03df 93       		.byte	0x93
 11710 03e0 04       		.uleb128 0x4
 11711 03e1 62000000 		.4byte	.LVL216
 11712 03e5 6A000000 		.4byte	.LVL218
 11713 03e9 0500     		.2byte	0x5
 11714 03eb 79       		.byte	0x79
 11715 03ec 04       		.sleb128 4
 11716 03ed 9F       		.byte	0x9f
 11717 03ee 93       		.byte	0x93
 11718 03ef 04       		.uleb128 0x4
 11719 03f0 6A000000 		.4byte	.LVL218
 11720 03f4 6E000000 		.4byte	.LVL219
 11721 03f8 0300     		.2byte	0x3
 11722 03fa 59       		.byte	0x59
 11723 03fb 93       		.byte	0x93
 11724 03fc 04       		.uleb128 0x4
 11725 03fd 6E000000 		.4byte	.LVL219
 11726 0401 8C000000 		.4byte	.LVL222
 11727 0405 0500     		.2byte	0x5
 11728 0407 79       		.byte	0x79
 11729 0408 04       		.sleb128 4
 11730 0409 9F       		.byte	0x9f
 11731 040a 93       		.byte	0x93
 11732 040b 04       		.uleb128 0x4
 11733 040c 8C000000 		.4byte	.LVL222
 11734 0410 16010000 		.4byte	.LVL224
 11735 0414 0300     		.2byte	0x3
 11736 0416 59       		.byte	0x59
 11737 0417 93       		.byte	0x93
 11738 0418 04       		.uleb128 0x4
 11739 0419 16010000 		.4byte	.LVL224
 11740 041d 1E010000 		.4byte	.LVL226
ARM GAS  /tmp/ccQCTkSU.s 			page 207


 11741 0421 0500     		.2byte	0x5
 11742 0423 79       		.byte	0x79
 11743 0424 04       		.sleb128 4
 11744 0425 9F       		.byte	0x9f
 11745 0426 93       		.byte	0x93
 11746 0427 04       		.uleb128 0x4
 11747 0428 1E010000 		.4byte	.LVL226
 11748 042c 22010000 		.4byte	.LVL227
 11749 0430 0300     		.2byte	0x3
 11750 0432 59       		.byte	0x59
 11751 0433 93       		.byte	0x93
 11752 0434 04       		.uleb128 0x4
 11753 0435 22010000 		.4byte	.LVL227
 11754 0439 3A010000 		.4byte	.LVL229
 11755 043d 0500     		.2byte	0x5
 11756 043f 79       		.byte	0x79
 11757 0440 04       		.sleb128 4
 11758 0441 9F       		.byte	0x9f
 11759 0442 93       		.byte	0x93
 11760 0443 04       		.uleb128 0x4
 11761 0444 3A010000 		.4byte	.LVL229
 11762 0448 C6010000 		.4byte	.LVL234
 11763 044c 0300     		.2byte	0x3
 11764 044e 59       		.byte	0x59
 11765 044f 93       		.byte	0x93
 11766 0450 04       		.uleb128 0x4
 11767 0451 C6010000 		.4byte	.LVL234
 11768 0455 06020000 		.4byte	.LVL247
 11769 0459 0300     		.2byte	0x3
 11770 045b 59       		.byte	0x59
 11771 045c 93       		.byte	0x93
 11772 045d 04       		.uleb128 0x4
 11773 045e 06020000 		.4byte	.LVL247
 11774 0462 0A020000 		.4byte	.LVL248
 11775 0466 0500     		.2byte	0x5
 11776 0468 79       		.byte	0x79
 11777 0469 79       		.sleb128 -7
 11778 046a 9F       		.byte	0x9f
 11779 046b 93       		.byte	0x93
 11780 046c 04       		.uleb128 0x4
 11781 046d 20020000 		.4byte	.LVL249
 11782 0471 46020000 		.4byte	.LVL259
 11783 0475 0300     		.2byte	0x3
 11784 0477 59       		.byte	0x59
 11785 0478 93       		.byte	0x93
 11786 0479 04       		.uleb128 0x4
 11787 047a 46020000 		.4byte	.LVL259
 11788 047e 58020000 		.4byte	.LVL261
 11789 0482 0500     		.2byte	0x5
 11790 0484 79       		.byte	0x79
 11791 0485 04       		.sleb128 4
 11792 0486 9F       		.byte	0x9f
 11793 0487 93       		.byte	0x93
 11794 0488 04       		.uleb128 0x4
 11795 0489 58020000 		.4byte	.LVL261
 11796 048d 5C020000 		.4byte	.LVL262
 11797 0491 0300     		.2byte	0x3
ARM GAS  /tmp/ccQCTkSU.s 			page 208


 11798 0493 59       		.byte	0x59
 11799 0494 93       		.byte	0x93
 11800 0495 04       		.uleb128 0x4
 11801 0496 5C020000 		.4byte	.LVL262
 11802 049a EA020000 		.4byte	.LVL282
 11803 049e 0300     		.2byte	0x3
 11804 04a0 59       		.byte	0x59
 11805 04a1 93       		.byte	0x93
 11806 04a2 04       		.uleb128 0x4
 11807 04a3 EA020000 		.4byte	.LVL282
 11808 04a7 7E030000 		.4byte	.LVL303
 11809 04ab 0500     		.2byte	0x5
 11810 04ad 79       		.byte	0x79
 11811 04ae 04       		.sleb128 4
 11812 04af 9F       		.byte	0x9f
 11813 04b0 93       		.byte	0x93
 11814 04b1 04       		.uleb128 0x4
 11815 04b2 7E030000 		.4byte	.LVL303
 11816 04b6 A6030000 		.4byte	.LVL312
 11817 04ba 0300     		.2byte	0x3
 11818 04bc 59       		.byte	0x59
 11819 04bd 93       		.byte	0x93
 11820 04be 04       		.uleb128 0x4
 11821 04bf A6030000 		.4byte	.LVL312
 11822 04c3 B2030000 		.4byte	.LVL314
 11823 04c7 0500     		.2byte	0x5
 11824 04c9 79       		.byte	0x79
 11825 04ca 04       		.sleb128 4
 11826 04cb 9F       		.byte	0x9f
 11827 04cc 93       		.byte	0x93
 11828 04cd 04       		.uleb128 0x4
 11829 04ce B2030000 		.4byte	.LVL314
 11830 04d2 E8030000 		.4byte	.LVL322
 11831 04d6 0300     		.2byte	0x3
 11832 04d8 59       		.byte	0x59
 11833 04d9 93       		.byte	0x93
 11834 04da 04       		.uleb128 0x4
 11835 04db E8030000 		.4byte	.LVL322
 11836 04df EE030000 		.4byte	.LVL323
 11837 04e3 0300     		.2byte	0x3
 11838 04e5 50       		.byte	0x50
 11839 04e6 93       		.byte	0x93
 11840 04e7 04       		.uleb128 0x4
 11841 04e8 EE030000 		.4byte	.LVL323
 11842 04ec 02040000 		.4byte	.LVL326
 11843 04f0 0300     		.2byte	0x3
 11844 04f2 50       		.byte	0x50
 11845 04f3 93       		.byte	0x93
 11846 04f4 04       		.uleb128 0x4
 11847 04f5 16050000 		.4byte	.LVL360
 11848 04f9 24050000 		.4byte	.LVL362
 11849 04fd 0300     		.2byte	0x3
 11850 04ff 59       		.byte	0x59
 11851 0500 93       		.byte	0x93
 11852 0501 04       		.uleb128 0x4
 11853 0502 24050000 		.4byte	.LVL362
 11854 0506 34050000 		.4byte	.LVL363
ARM GAS  /tmp/ccQCTkSU.s 			page 209


 11855 050a 0500     		.2byte	0x5
 11856 050c 70       		.byte	0x70
 11857 050d 7C       		.sleb128 -4
 11858 050e 9F       		.byte	0x9f
 11859 050f 93       		.byte	0x93
 11860 0510 04       		.uleb128 0x4
 11861 0511 34050000 		.4byte	.LVL363
 11862 0515 6C050000 		.4byte	.LVL369
 11863 0519 0300     		.2byte	0x3
 11864 051b 59       		.byte	0x59
 11865 051c 93       		.byte	0x93
 11866 051d 04       		.uleb128 0x4
 11867 051e 6C050000 		.4byte	.LVL369
 11868 0522 80050000 		.4byte	.LVL373
 11869 0526 0500     		.2byte	0x5
 11870 0528 79       		.byte	0x79
 11871 0529 04       		.sleb128 4
 11872 052a 9F       		.byte	0x9f
 11873 052b 93       		.byte	0x93
 11874 052c 04       		.uleb128 0x4
 11875 052d 80050000 		.4byte	.LVL373
 11876 0531 8E050000 		.4byte	.LVL374
 11877 0535 0300     		.2byte	0x3
 11878 0537 59       		.byte	0x59
 11879 0538 93       		.byte	0x93
 11880 0539 04       		.uleb128 0x4
 11881 053a 8E050000 		.4byte	.LVL374
 11882 053e 9C050000 		.4byte	.LVL377
 11883 0542 0300     		.2byte	0x3
 11884 0544 50       		.byte	0x50
 11885 0545 93       		.byte	0x93
 11886 0546 04       		.uleb128 0x4
 11887 0547 9C050000 		.4byte	.LVL377
 11888 054b A2050000 		.4byte	.LVL378
 11889 054f 0500     		.2byte	0x5
 11890 0551 79       		.byte	0x79
 11891 0552 04       		.sleb128 4
 11892 0553 9F       		.byte	0x9f
 11893 0554 93       		.byte	0x93
 11894 0555 04       		.uleb128 0x4
 11895 0556 C4050000 		.4byte	.LVL382
 11896 055a D4050000 		.4byte	.LFE330
 11897 055e 0300     		.2byte	0x3
 11898 0560 59       		.byte	0x59
 11899 0561 93       		.byte	0x93
 11900 0562 04       		.uleb128 0x4
 11901 0563 00000000 		.4byte	0
 11902 0567 00000000 		.4byte	0
 11903              	.LLST41:
 11904 056b 40000000 		.4byte	.LVL211
 11905 056f D8010000 		.4byte	.LVL236
 11906 0573 0300     		.2byte	0x3
 11907 0575 91       		.byte	0x91
 11908 0576 40       		.sleb128 -64
 11909 0577 9F       		.byte	0x9f
 11910 0578 D8010000 		.4byte	.LVL236
 11911 057c DE010000 		.4byte	.LVL237
ARM GAS  /tmp/ccQCTkSU.s 			page 210


 11912 0580 0100     		.2byte	0x1
 11913 0582 56       		.byte	0x56
 11914 0583 E6010000 		.4byte	.LVL238
 11915 0587 EC010000 		.4byte	.LVL240
 11916 058b 0300     		.2byte	0x3
 11917 058d 73       		.byte	0x73
 11918 058e 7F       		.sleb128 -1
 11919 058f 9F       		.byte	0x9f
 11920 0590 EC010000 		.4byte	.LVL240
 11921 0594 F0010000 		.4byte	.LVL241
 11922 0598 0100     		.2byte	0x1
 11923 059a 53       		.byte	0x53
 11924 059b F0010000 		.4byte	.LVL241
 11925 059f F6010000 		.4byte	.LVL243
 11926 05a3 0300     		.2byte	0x3
 11927 05a5 73       		.byte	0x73
 11928 05a6 7F       		.sleb128 -1
 11929 05a7 9F       		.byte	0x9f
 11930 05a8 00020000 		.4byte	.LVL245
 11931 05ac 2C020000 		.4byte	.LVL251
 11932 05b0 0300     		.2byte	0x3
 11933 05b2 91       		.byte	0x91
 11934 05b3 40       		.sleb128 -64
 11935 05b4 9F       		.byte	0x9f
 11936 05b5 2C020000 		.4byte	.LVL251
 11937 05b9 35020000 		.4byte	.LVL252-1
 11938 05bd 0100     		.2byte	0x1
 11939 05bf 50       		.byte	0x50
 11940 05c0 36020000 		.4byte	.LVL252
 11941 05c4 3A020000 		.4byte	.LVL254
 11942 05c8 0100     		.2byte	0x1
 11943 05ca 50       		.byte	0x50
 11944 05cb 44020000 		.4byte	.LVL258
 11945 05cf 46020000 		.4byte	.LVL259
 11946 05d3 0300     		.2byte	0x3
 11947 05d5 91       		.byte	0x91
 11948 05d6 40       		.sleb128 -64
 11949 05d7 9F       		.byte	0x9f
 11950 05d8 46020000 		.4byte	.LVL259
 11951 05dc 5C020000 		.4byte	.LVL262
 11952 05e0 0300     		.2byte	0x3
 11953 05e2 91       		.byte	0x91
 11954 05e3 41       		.sleb128 -63
 11955 05e4 9F       		.byte	0x9f
 11956 05e5 DE020000 		.4byte	.LVL279
 11957 05e9 12030000 		.4byte	.LVL289
 11958 05ed 0300     		.2byte	0x3
 11959 05ef 91       		.byte	0x91
 11960 05f0 40       		.sleb128 -64
 11961 05f1 9F       		.byte	0x9f
 11962 05f2 12030000 		.4byte	.LVL289
 11963 05f6 3E030000 		.4byte	.LVL292
 11964 05fa 0100     		.2byte	0x1
 11965 05fc 56       		.byte	0x56
 11966 05fd 3E030000 		.4byte	.LVL292
 11967 0601 52030000 		.4byte	.LVL293
 11968 0605 0300     		.2byte	0x3
ARM GAS  /tmp/ccQCTkSU.s 			page 211


 11969 0607 91       		.byte	0x91
 11970 0608 40       		.sleb128 -64
 11971 0609 9F       		.byte	0x9f
 11972 060a 52030000 		.4byte	.LVL293
 11973 060e 58030000 		.4byte	.LVL294
 11974 0612 0100     		.2byte	0x1
 11975 0614 51       		.byte	0x51
 11976 0615 58030000 		.4byte	.LVL294
 11977 0619 7E030000 		.4byte	.LVL303
 11978 061d 0300     		.2byte	0x3
 11979 061f 91       		.byte	0x91
 11980 0620 40       		.sleb128 -64
 11981 0621 9F       		.byte	0x9f
 11982 0622 8E030000 		.4byte	.LVL305
 11983 0626 98030000 		.4byte	.LVL309
 11984 062a 0300     		.2byte	0x3
 11985 062c 91       		.byte	0x91
 11986 062d 40       		.sleb128 -64
 11987 062e 9F       		.byte	0x9f
 11988 062f 98030000 		.4byte	.LVL309
 11989 0633 A6030000 		.4byte	.LVL312
 11990 0637 0300     		.2byte	0x3
 11991 0639 91       		.byte	0x91
 11992 063a 41       		.sleb128 -63
 11993 063b 9F       		.byte	0x9f
 11994 063c A6030000 		.4byte	.LVL312
 11995 0640 B2030000 		.4byte	.LVL314
 11996 0644 0300     		.2byte	0x3
 11997 0646 91       		.byte	0x91
 11998 0647 40       		.sleb128 -64
 11999 0648 9F       		.byte	0x9f
 12000 0649 E0030000 		.4byte	.LVL321
 12001 064d F8030000 		.4byte	.LVL324
 12002 0651 0300     		.2byte	0x3
 12003 0653 91       		.byte	0x91
 12004 0654 40       		.sleb128 -64
 12005 0655 9F       		.byte	0x9f
 12006 0656 F8030000 		.4byte	.LVL324
 12007 065a 02050000 		.4byte	.LVL355
 12008 065e 0100     		.2byte	0x1
 12009 0660 58       		.byte	0x58
 12010 0661 16050000 		.4byte	.LVL360
 12011 0665 3A050000 		.4byte	.LVL364
 12012 0669 0300     		.2byte	0x3
 12013 066b 91       		.byte	0x91
 12014 066c 40       		.sleb128 -64
 12015 066d 9F       		.byte	0x9f
 12016 066e 3A050000 		.4byte	.LVL364
 12017 0672 58050000 		.4byte	.LVL365
 12018 0676 0300     		.2byte	0x3
 12019 0678 91       		.byte	0x91
 12020 0679 41       		.sleb128 -63
 12021 067a 9F       		.byte	0x9f
 12022 067b 58050000 		.4byte	.LVL365
 12023 067f 5A050000 		.4byte	.LVL366
 12024 0683 0100     		.2byte	0x1
 12025 0685 50       		.byte	0x50
ARM GAS  /tmp/ccQCTkSU.s 			page 212


 12026 0686 5A050000 		.4byte	.LVL366
 12027 068a 66050000 		.4byte	.LVL367
 12028 068e 0300     		.2byte	0x3
 12029 0690 91       		.byte	0x91
 12030 0691 40       		.sleb128 -64
 12031 0692 9F       		.byte	0x9f
 12032 0693 66050000 		.4byte	.LVL367
 12033 0697 80050000 		.4byte	.LVL373
 12034 069b 0100     		.2byte	0x1
 12035 069d 56       		.byte	0x56
 12036 069e 80050000 		.4byte	.LVL373
 12037 06a2 8E050000 		.4byte	.LVL374
 12038 06a6 0100     		.2byte	0x1
 12039 06a8 51       		.byte	0x51
 12040 06a9 8E050000 		.4byte	.LVL374
 12041 06ad 9A050000 		.4byte	.LVL376
 12042 06b1 0300     		.2byte	0x3
 12043 06b3 91       		.byte	0x91
 12044 06b4 41       		.sleb128 -63
 12045 06b5 9F       		.byte	0x9f
 12046 06b6 9A050000 		.4byte	.LVL376
 12047 06ba 9C050000 		.4byte	.LVL377
 12048 06be 0100     		.2byte	0x1
 12049 06c0 58       		.byte	0x58
 12050 06c1 9C050000 		.4byte	.LVL377
 12051 06c5 A2050000 		.4byte	.LVL378
 12052 06c9 0100     		.2byte	0x1
 12053 06cb 56       		.byte	0x56
 12054 06cc A2050000 		.4byte	.LVL378
 12055 06d0 C4050000 		.4byte	.LVL382
 12056 06d4 0100     		.2byte	0x1
 12057 06d6 58       		.byte	0x58
 12058 06d7 C4050000 		.4byte	.LVL382
 12059 06db D4050000 		.4byte	.LFE330
 12060 06df 0100     		.2byte	0x1
 12061 06e1 51       		.byte	0x51
 12062 06e2 00000000 		.4byte	0
 12063 06e6 00000000 		.4byte	0
 12064              	.LLST42:
 12065 06ea 40000000 		.4byte	.LVL211
 12066 06ee C6010000 		.4byte	.LVL234
 12067 06f2 0300     		.2byte	0x3
 12068 06f4 91       		.byte	0x91
 12069 06f5 40       		.sleb128 -64
 12070 06f6 9F       		.byte	0x9f
 12071 06f7 CC010000 		.4byte	.LVL235
 12072 06fb DE010000 		.4byte	.LVL237
 12073 06ff 0100     		.2byte	0x1
 12074 0701 56       		.byte	0x56
 12075 0702 00020000 		.4byte	.LVL245
 12076 0706 38020000 		.4byte	.LVL253
 12077 070a 0300     		.2byte	0x3
 12078 070c 91       		.byte	0x91
 12079 070d 40       		.sleb128 -64
 12080 070e 9F       		.byte	0x9f
 12081 070f 38020000 		.4byte	.LVL253
 12082 0713 3C020000 		.4byte	.LVL255
ARM GAS  /tmp/ccQCTkSU.s 			page 213


 12083 0717 0100     		.2byte	0x1
 12084 0719 53       		.byte	0x53
 12085 071a 3C020000 		.4byte	.LVL255
 12086 071e 42020000 		.4byte	.LVL257
 12087 0722 0300     		.2byte	0x3
 12088 0724 91       		.byte	0x91
 12089 0725 40       		.sleb128 -64
 12090 0726 9F       		.byte	0x9f
 12091 0727 42020000 		.4byte	.LVL257
 12092 072b 44020000 		.4byte	.LVL258
 12093 072f 0100     		.2byte	0x1
 12094 0731 56       		.byte	0x56
 12095 0732 44020000 		.4byte	.LVL258
 12096 0736 5C020000 		.4byte	.LVL262
 12097 073a 0300     		.2byte	0x3
 12098 073c 91       		.byte	0x91
 12099 073d 40       		.sleb128 -64
 12100 073e 9F       		.byte	0x9f
 12101 073f 5C020000 		.4byte	.LVL262
 12102 0743 82020000 		.4byte	.LVL265
 12103 0747 0100     		.2byte	0x1
 12104 0749 56       		.byte	0x56
 12105 074a 9A020000 		.4byte	.LVL269
 12106 074e AA020000 		.4byte	.LVL272
 12107 0752 0100     		.2byte	0x1
 12108 0754 56       		.byte	0x56
 12109 0755 AA020000 		.4byte	.LVL272
 12110 0759 B4020000 		.4byte	.LVL274
 12111 075d 0300     		.2byte	0x3
 12112 075f 76       		.byte	0x76
 12113 0760 7F       		.sleb128 -1
 12114 0761 9F       		.byte	0x9f
 12115 0762 B4020000 		.4byte	.LVL274
 12116 0766 CC020000 		.4byte	.LVL276
 12117 076a 0100     		.2byte	0x1
 12118 076c 56       		.byte	0x56
 12119 076d DE020000 		.4byte	.LVL279
 12120 0771 12030000 		.4byte	.LVL289
 12121 0775 0300     		.2byte	0x3
 12122 0777 91       		.byte	0x91
 12123 0778 40       		.sleb128 -64
 12124 0779 9F       		.byte	0x9f
 12125 077a 12030000 		.4byte	.LVL289
 12126 077e 3E030000 		.4byte	.LVL292
 12127 0782 0100     		.2byte	0x1
 12128 0784 56       		.byte	0x56
 12129 0785 3E030000 		.4byte	.LVL292
 12130 0789 52030000 		.4byte	.LVL293
 12131 078d 0300     		.2byte	0x3
 12132 078f 91       		.byte	0x91
 12133 0790 40       		.sleb128 -64
 12134 0791 9F       		.byte	0x9f
 12135 0792 52030000 		.4byte	.LVL293
 12136 0796 58030000 		.4byte	.LVL294
 12137 079a 0100     		.2byte	0x1
 12138 079c 51       		.byte	0x51
 12139 079d 58030000 		.4byte	.LVL294
ARM GAS  /tmp/ccQCTkSU.s 			page 214


 12140 07a1 7E030000 		.4byte	.LVL303
 12141 07a5 0300     		.2byte	0x3
 12142 07a7 91       		.byte	0x91
 12143 07a8 40       		.sleb128 -64
 12144 07a9 9F       		.byte	0x9f
 12145 07aa 7E030000 		.4byte	.LVL303
 12146 07ae 8E030000 		.4byte	.LVL305
 12147 07b2 0100     		.2byte	0x1
 12148 07b4 56       		.byte	0x56
 12149 07b5 8E030000 		.4byte	.LVL305
 12150 07b9 B2030000 		.4byte	.LVL314
 12151 07bd 0300     		.2byte	0x3
 12152 07bf 91       		.byte	0x91
 12153 07c0 40       		.sleb128 -64
 12154 07c1 9F       		.byte	0x9f
 12155 07c2 B2030000 		.4byte	.LVL314
 12156 07c6 E0030000 		.4byte	.LVL321
 12157 07ca 0100     		.2byte	0x1
 12158 07cc 56       		.byte	0x56
 12159 07cd E0030000 		.4byte	.LVL321
 12160 07d1 04050000 		.4byte	.LVL356
 12161 07d5 0300     		.2byte	0x3
 12162 07d7 91       		.byte	0x91
 12163 07d8 40       		.sleb128 -64
 12164 07d9 9F       		.byte	0x9f
 12165 07da 04050000 		.4byte	.LVL356
 12166 07de 0C050000 		.4byte	.LVL357
 12167 07e2 0100     		.2byte	0x1
 12168 07e4 53       		.byte	0x53
 12169 07e5 0C050000 		.4byte	.LVL357
 12170 07e9 14050000 		.4byte	.LVL359
 12171 07ed 0300     		.2byte	0x3
 12172 07ef 91       		.byte	0x91
 12173 07f0 40       		.sleb128 -64
 12174 07f1 9F       		.byte	0x9f
 12175 07f2 14050000 		.4byte	.LVL359
 12176 07f6 16050000 		.4byte	.LVL360
 12177 07fa 0100     		.2byte	0x1
 12178 07fc 56       		.byte	0x56
 12179 07fd 16050000 		.4byte	.LVL360
 12180 0801 5A050000 		.4byte	.LVL366
 12181 0805 0300     		.2byte	0x3
 12182 0807 91       		.byte	0x91
 12183 0808 40       		.sleb128 -64
 12184 0809 9F       		.byte	0x9f
 12185 080a 5A050000 		.4byte	.LVL366
 12186 080e 66050000 		.4byte	.LVL367
 12187 0812 0600     		.2byte	0x6
 12188 0814 03       		.byte	0x3
 12189 0815 00000000 		.4byte	.LC0
 12190 0819 9F       		.byte	0x9f
 12191 081a 6C050000 		.4byte	.LVL369
 12192 081e 80050000 		.4byte	.LVL373
 12193 0822 0100     		.2byte	0x1
 12194 0824 56       		.byte	0x56
 12195 0825 80050000 		.4byte	.LVL373
 12196 0829 8E050000 		.4byte	.LVL374
ARM GAS  /tmp/ccQCTkSU.s 			page 215


 12197 082d 0100     		.2byte	0x1
 12198 082f 51       		.byte	0x51
 12199 0830 8E050000 		.4byte	.LVL374
 12200 0834 9C050000 		.4byte	.LVL377
 12201 0838 0300     		.2byte	0x3
 12202 083a 91       		.byte	0x91
 12203 083b 40       		.sleb128 -64
 12204 083c 9F       		.byte	0x9f
 12205 083d 9C050000 		.4byte	.LVL377
 12206 0841 A2050000 		.4byte	.LVL378
 12207 0845 0100     		.2byte	0x1
 12208 0847 56       		.byte	0x56
 12209 0848 A2050000 		.4byte	.LVL378
 12210 084c C4050000 		.4byte	.LVL382
 12211 0850 0300     		.2byte	0x3
 12212 0852 91       		.byte	0x91
 12213 0853 40       		.sleb128 -64
 12214 0854 9F       		.byte	0x9f
 12215 0855 C4050000 		.4byte	.LVL382
 12216 0859 D4050000 		.4byte	.LFE330
 12217 085d 0100     		.2byte	0x1
 12218 085f 51       		.byte	0x51
 12219 0860 00000000 		.4byte	0
 12220 0864 00000000 		.4byte	0
 12221              	.LLST43:
 12222 0868 18000000 		.4byte	.LVL206
 12223 086c 27000000 		.4byte	.LVL208-1
 12224 0870 0100     		.2byte	0x1
 12225 0872 51       		.byte	0x51
 12226 0873 34000000 		.4byte	.LVL210
 12227 0877 66000000 		.4byte	.LVL217
 12228 087b 0100     		.2byte	0x1
 12229 087d 51       		.byte	0x51
 12230 087e 66000000 		.4byte	.LVL217
 12231 0882 6E000000 		.4byte	.LVL219
 12232 0886 0100     		.2byte	0x1
 12233 0888 53       		.byte	0x53
 12234 0889 72000000 		.4byte	.LVL220
 12235 088d 1A010000 		.4byte	.LVL225
 12236 0891 0100     		.2byte	0x1
 12237 0893 51       		.byte	0x51
 12238 0894 1A010000 		.4byte	.LVL225
 12239 0898 22010000 		.4byte	.LVL227
 12240 089c 0100     		.2byte	0x1
 12241 089e 53       		.byte	0x53
 12242 089f 26010000 		.4byte	.LVL228
 12243 08a3 3E010000 		.4byte	.LVL230
 12244 08a7 0100     		.2byte	0x1
 12245 08a9 51       		.byte	0x51
 12246 08aa 3E010000 		.4byte	.LVL230
 12247 08ae B6010000 		.4byte	.LVL231
 12248 08b2 0100     		.2byte	0x1
 12249 08b4 53       		.byte	0x53
 12250 08b5 B6010000 		.4byte	.LVL231
 12251 08b9 BE010000 		.4byte	.LVL233
 12252 08bd 0100     		.2byte	0x1
 12253 08bf 51       		.byte	0x51
ARM GAS  /tmp/ccQCTkSU.s 			page 216


 12254 08c0 00020000 		.4byte	.LVL245
 12255 08c4 02020000 		.4byte	.LVL246
 12256 08c8 0100     		.2byte	0x1
 12257 08ca 51       		.byte	0x51
 12258 08cb 44020000 		.4byte	.LVL258
 12259 08cf 46020000 		.4byte	.LVL259
 12260 08d3 0100     		.2byte	0x1
 12261 08d5 51       		.byte	0x51
 12262 08d6 DE020000 		.4byte	.LVL279
 12263 08da E0020000 		.4byte	.LVL280
 12264 08de 0100     		.2byte	0x1
 12265 08e0 51       		.byte	0x51
 12266 08e1 E0020000 		.4byte	.LVL280
 12267 08e5 E2020000 		.4byte	.LVL281
 12268 08e9 0200     		.2byte	0x2
 12269 08eb 3A       		.byte	0x3a
 12270 08ec 9F       		.byte	0x9f
 12271 08ed 8E030000 		.4byte	.LVL305
 12272 08f1 90030000 		.4byte	.LVL306
 12273 08f5 0100     		.2byte	0x1
 12274 08f7 51       		.byte	0x51
 12275 08f8 90030000 		.4byte	.LVL306
 12276 08fc 94030000 		.4byte	.LVL307
 12277 0900 0200     		.2byte	0x2
 12278 0902 38       		.byte	0x38
 12279 0903 9F       		.byte	0x9f
 12280 0904 94030000 		.4byte	.LVL307
 12281 0908 98030000 		.4byte	.LVL309
 12282 090c 0100     		.2byte	0x1
 12283 090e 51       		.byte	0x51
 12284 090f 98030000 		.4byte	.LVL309
 12285 0913 A2030000 		.4byte	.LVL311
 12286 0917 0100     		.2byte	0x1
 12287 0919 53       		.byte	0x53
 12288 091a A2030000 		.4byte	.LVL311
 12289 091e A6030000 		.4byte	.LVL312
 12290 0922 0200     		.2byte	0x2
 12291 0924 76       		.byte	0x76
 12292 0925 00       		.sleb128 0
 12293 0926 E0030000 		.4byte	.LVL321
 12294 092a E8030000 		.4byte	.LVL322
 12295 092e 0100     		.2byte	0x1
 12296 0930 53       		.byte	0x53
 12297 0931 16050000 		.4byte	.LVL360
 12298 0935 1E050000 		.4byte	.LVL361
 12299 0939 0100     		.2byte	0x1
 12300 093b 51       		.byte	0x51
 12301 093c 34050000 		.4byte	.LVL363
 12302 0940 3A050000 		.4byte	.LVL364
 12303 0944 0100     		.2byte	0x1
 12304 0946 51       		.byte	0x51
 12305 0947 00000000 		.4byte	0
 12306 094b 00000000 		.4byte	0
 12307              	.LLST44:
 12308 094f 58000000 		.4byte	.LVL213
 12309 0953 5C000000 		.4byte	.LVL214
 12310 0957 0300     		.2byte	0x3
ARM GAS  /tmp/ccQCTkSU.s 			page 217


 12311 0959 08       		.byte	0x8
 12312 095a 20       		.byte	0x20
 12313 095b 9F       		.byte	0x9f
 12314 095c 5C000000 		.4byte	.LVL214
 12315 0960 5E000000 		.4byte	.LVL215
 12316 0964 0300     		.2byte	0x3
 12317 0966 08       		.byte	0x8
 12318 0967 30       		.byte	0x30
 12319 0968 9F       		.byte	0x9f
 12320 0969 5E000000 		.4byte	.LVL215
 12321 096d BE010000 		.4byte	.LVL233
 12322 0971 0100     		.2byte	0x1
 12323 0973 57       		.byte	0x57
 12324 0974 BE010000 		.4byte	.LVL233
 12325 0978 00020000 		.4byte	.LVL245
 12326 097c 0300     		.2byte	0x3
 12327 097e 08       		.byte	0x8
 12328 097f 20       		.byte	0x20
 12329 0980 9F       		.byte	0x9f
 12330 0981 00020000 		.4byte	.LVL245
 12331 0985 46020000 		.4byte	.LVL259
 12332 0989 0100     		.2byte	0x1
 12333 098b 57       		.byte	0x57
 12334 098c 46020000 		.4byte	.LVL259
 12335 0990 5C020000 		.4byte	.LVL262
 12336 0994 0300     		.2byte	0x3
 12337 0996 08       		.byte	0x8
 12338 0997 20       		.byte	0x20
 12339 0998 9F       		.byte	0x9f
 12340 0999 5C020000 		.4byte	.LVL262
 12341 099d 5A050000 		.4byte	.LVL366
 12342 09a1 0100     		.2byte	0x1
 12343 09a3 57       		.byte	0x57
 12344 09a4 5A050000 		.4byte	.LVL366
 12345 09a8 6C050000 		.4byte	.LVL369
 12346 09ac 0300     		.2byte	0x3
 12347 09ae 08       		.byte	0x8
 12348 09af 20       		.byte	0x20
 12349 09b0 9F       		.byte	0x9f
 12350 09b1 6C050000 		.4byte	.LVL369
 12351 09b5 80050000 		.4byte	.LVL373
 12352 09b9 0100     		.2byte	0x1
 12353 09bb 57       		.byte	0x57
 12354 09bc 80050000 		.4byte	.LVL373
 12355 09c0 8E050000 		.4byte	.LVL374
 12356 09c4 0300     		.2byte	0x3
 12357 09c6 08       		.byte	0x8
 12358 09c7 20       		.byte	0x20
 12359 09c8 9F       		.byte	0x9f
 12360 09c9 8E050000 		.4byte	.LVL374
 12361 09cd C4050000 		.4byte	.LVL382
 12362 09d1 0100     		.2byte	0x1
 12363 09d3 57       		.byte	0x57
 12364 09d4 C4050000 		.4byte	.LVL382
 12365 09d8 D4050000 		.4byte	.LFE330
 12366 09dc 0300     		.2byte	0x3
 12367 09de 08       		.byte	0x8
ARM GAS  /tmp/ccQCTkSU.s 			page 218


 12368 09df 20       		.byte	0x20
 12369 09e0 9F       		.byte	0x9f
 12370 09e1 00000000 		.4byte	0
 12371 09e5 00000000 		.4byte	0
 12372              	.LLST45:
 12373 09e9 A4020000 		.4byte	.LVL271
 12374 09ed B0020000 		.4byte	.LVL273
 12375 09f1 0100     		.2byte	0x1
 12376 09f3 58       		.byte	0x58
 12377 09f4 B0020000 		.4byte	.LVL273
 12378 09f8 B4020000 		.4byte	.LVL274
 12379 09fc 0300     		.2byte	0x3
 12380 09fe 78       		.byte	0x78
 12381 09ff 01       		.sleb128 1
 12382 0a00 9F       		.byte	0x9f
 12383 0a01 B4020000 		.4byte	.LVL274
 12384 0a05 C4020000 		.4byte	.LVL275
 12385 0a09 0100     		.2byte	0x1
 12386 0a0b 58       		.byte	0x58
 12387 0a0c 00000000 		.4byte	0
 12388 0a10 00000000 		.4byte	0
 12389              	.LLST46:
 12390 0a14 84000000 		.4byte	.LVL221
 12391 0a18 8C000000 		.4byte	.LVL222
 12392 0a1c 0200     		.2byte	0x2
 12393 0a1e 30       		.byte	0x30
 12394 0a1f 9F       		.byte	0x9f
 12395 0a20 8C000000 		.4byte	.LVL222
 12396 0a24 1E010000 		.4byte	.LVL226
 12397 0a28 0100     		.2byte	0x1
 12398 0a2a 58       		.byte	0x58
 12399 0a2b 1E010000 		.4byte	.LVL226
 12400 0a2f 22010000 		.4byte	.LVL227
 12401 0a33 0500     		.2byte	0x5
 12402 0a35 70       		.byte	0x70
 12403 0a36 00       		.sleb128 0
 12404 0a37 31       		.byte	0x31
 12405 0a38 24       		.byte	0x24
 12406 0a39 9F       		.byte	0x9f
 12407 0a3a 22010000 		.4byte	.LVL227
 12408 0a3e D8010000 		.4byte	.LVL236
 12409 0a42 0100     		.2byte	0x1
 12410 0a44 58       		.byte	0x58
 12411 0a45 D8010000 		.4byte	.LVL236
 12412 0a49 DE010000 		.4byte	.LVL237
 12413 0a4d 0400     		.2byte	0x4
 12414 0a4f 0A       		.byte	0xa
 12415 0a50 FF7F     		.2byte	0x7fff
 12416 0a52 9F       		.byte	0x9f
 12417 0a53 E6010000 		.4byte	.LVL238
 12418 0a57 EA010000 		.4byte	.LVL239
 12419 0a5b 0300     		.2byte	0x3
 12420 0a5d 78       		.byte	0x78
 12421 0a5e 7F       		.sleb128 -1
 12422 0a5f 9F       		.byte	0x9f
 12423 0a60 EA010000 		.4byte	.LVL239
 12424 0a64 EC010000 		.4byte	.LVL240
ARM GAS  /tmp/ccQCTkSU.s 			page 219


 12425 0a68 0100     		.2byte	0x1
 12426 0a6a 58       		.byte	0x58
 12427 0a6b EC010000 		.4byte	.LVL240
 12428 0a6f F4010000 		.4byte	.LVL242
 12429 0a73 0300     		.2byte	0x3
 12430 0a75 78       		.byte	0x78
 12431 0a76 7F       		.sleb128 -1
 12432 0a77 9F       		.byte	0x9f
 12433 0a78 00020000 		.4byte	.LVL245
 12434 0a7c 5C020000 		.4byte	.LVL262
 12435 0a80 0100     		.2byte	0x1
 12436 0a82 58       		.byte	0x58
 12437 0a83 DE020000 		.4byte	.LVL279
 12438 0a87 2C030000 		.4byte	.LVL291
 12439 0a8b 0100     		.2byte	0x1
 12440 0a8d 58       		.byte	0x58
 12441 0a8e 8E030000 		.4byte	.LVL305
 12442 0a92 B2030000 		.4byte	.LVL314
 12443 0a96 0100     		.2byte	0x1
 12444 0a98 58       		.byte	0x58
 12445 0a99 E0030000 		.4byte	.LVL321
 12446 0a9d F8030000 		.4byte	.LVL324
 12447 0aa1 0100     		.2byte	0x1
 12448 0aa3 58       		.byte	0x58
 12449 0aa4 16050000 		.4byte	.LVL360
 12450 0aa8 6A050000 		.4byte	.LVL368
 12451 0aac 0100     		.2byte	0x1
 12452 0aae 58       		.byte	0x58
 12453 0aaf 6A050000 		.4byte	.LVL368
 12454 0ab3 6C050000 		.4byte	.LVL369
 12455 0ab7 0300     		.2byte	0x3
 12456 0ab9 78       		.byte	0x78
 12457 0aba 01       		.sleb128 1
 12458 0abb 9F       		.byte	0x9f
 12459 0abc 6C050000 		.4byte	.LVL369
 12460 0ac0 7E050000 		.4byte	.LVL372
 12461 0ac4 0100     		.2byte	0x1
 12462 0ac6 58       		.byte	0x58
 12463 0ac7 80050000 		.4byte	.LVL373
 12464 0acb 9A050000 		.4byte	.LVL376
 12465 0acf 0100     		.2byte	0x1
 12466 0ad1 58       		.byte	0x58
 12467 0ad2 C4050000 		.4byte	.LVL382
 12468 0ad6 D4050000 		.4byte	.LFE330
 12469 0ada 0400     		.2byte	0x4
 12470 0adc 0A       		.byte	0xa
 12471 0add FF7F     		.2byte	0x7fff
 12472 0adf 9F       		.byte	0x9f
 12473 0ae0 00000000 		.4byte	0
 12474 0ae4 00000000 		.4byte	0
 12475              	.LLST47:
 12476 0ae8 5E000000 		.4byte	.LVL215
 12477 0aec 62000000 		.4byte	.LVL216
 12478 0af0 0200     		.2byte	0x2
 12479 0af2 30       		.byte	0x30
 12480 0af3 9F       		.byte	0x9f
 12481 0af4 62000000 		.4byte	.LVL216
ARM GAS  /tmp/ccQCTkSU.s 			page 220


 12482 0af8 F8010000 		.4byte	.LVL244
 12483 0afc 0100     		.2byte	0x1
 12484 0afe 54       		.byte	0x54
 12485 0aff 00020000 		.4byte	.LVL245
 12486 0b03 3E020000 		.4byte	.LVL256
 12487 0b07 0100     		.2byte	0x1
 12488 0b09 54       		.byte	0x54
 12489 0b0a 44020000 		.4byte	.LVL258
 12490 0b0e 54020000 		.4byte	.LVL260
 12491 0b12 0100     		.2byte	0x1
 12492 0b14 54       		.byte	0x54
 12493 0b15 54020000 		.4byte	.LVL260
 12494 0b19 5C020000 		.4byte	.LVL262
 12495 0b1d 0300     		.2byte	0x3
 12496 0b1f 74       		.byte	0x74
 12497 0b20 01       		.sleb128 1
 12498 0b21 9F       		.byte	0x9f
 12499 0b22 6C020000 		.4byte	.LVL264
 12500 0b26 82020000 		.4byte	.LVL265
 12501 0b2a 0100     		.2byte	0x1
 12502 0b2c 53       		.byte	0x53
 12503 0b2d 82020000 		.4byte	.LVL265
 12504 0b31 8C020000 		.4byte	.LVL267
 12505 0b35 0100     		.2byte	0x1
 12506 0b37 58       		.byte	0x58
 12507 0b38 8C020000 		.4byte	.LVL267
 12508 0b3c 90020000 		.4byte	.LVL268
 12509 0b40 0300     		.2byte	0x3
 12510 0b42 78       		.byte	0x78
 12511 0b43 01       		.sleb128 1
 12512 0b44 9F       		.byte	0x9f
 12513 0b45 90020000 		.4byte	.LVL268
 12514 0b49 9A020000 		.4byte	.LVL269
 12515 0b4d 0100     		.2byte	0x1
 12516 0b4f 58       		.byte	0x58
 12517 0b50 9A020000 		.4byte	.LVL269
 12518 0b54 A0020000 		.4byte	.LVL270
 12519 0b58 0200     		.2byte	0x2
 12520 0b5a 30       		.byte	0x30
 12521 0b5b 9F       		.byte	0x9f
 12522 0b5c C4020000 		.4byte	.LVL275
 12523 0b60 CC020000 		.4byte	.LVL276
 12524 0b64 0100     		.2byte	0x1
 12525 0b66 54       		.byte	0x54
 12526 0b67 CC020000 		.4byte	.LVL276
 12527 0b6b D6020000 		.4byte	.LVL277
 12528 0b6f 0100     		.2byte	0x1
 12529 0b71 56       		.byte	0x56
 12530 0b72 D6020000 		.4byte	.LVL277
 12531 0b76 D8020000 		.4byte	.LVL278
 12532 0b7a 0300     		.2byte	0x3
 12533 0b7c 76       		.byte	0x76
 12534 0b7d 7F       		.sleb128 -1
 12535 0b7e 9F       		.byte	0x9f
 12536 0b7f D8020000 		.4byte	.LVL278
 12537 0b83 DE020000 		.4byte	.LVL279
 12538 0b87 0100     		.2byte	0x1
ARM GAS  /tmp/ccQCTkSU.s 			page 221


 12539 0b89 56       		.byte	0x56
 12540 0b8a DE020000 		.4byte	.LVL279
 12541 0b8e 76030000 		.4byte	.LVL302
 12542 0b92 0100     		.2byte	0x1
 12543 0b94 54       		.byte	0x54
 12544 0b95 82030000 		.4byte	.LVL304
 12545 0b99 8E030000 		.4byte	.LVL305
 12546 0b9d 0200     		.2byte	0x2
 12547 0b9f 30       		.byte	0x30
 12548 0ba0 9F       		.byte	0x9f
 12549 0ba1 8E030000 		.4byte	.LVL305
 12550 0ba5 9C030000 		.4byte	.LVL310
 12551 0ba9 0100     		.2byte	0x1
 12552 0bab 54       		.byte	0x54
 12553 0bac 9C030000 		.4byte	.LVL310
 12554 0bb0 A6030000 		.4byte	.LVL312
 12555 0bb4 0300     		.2byte	0x3
 12556 0bb6 74       		.byte	0x74
 12557 0bb7 01       		.sleb128 1
 12558 0bb8 9F       		.byte	0x9f
 12559 0bb9 A6030000 		.4byte	.LVL312
 12560 0bbd B2030000 		.4byte	.LVL314
 12561 0bc1 0100     		.2byte	0x1
 12562 0bc3 54       		.byte	0x54
 12563 0bc4 B2030000 		.4byte	.LVL314
 12564 0bc8 B4030000 		.4byte	.LVL315
 12565 0bcc 0100     		.2byte	0x1
 12566 0bce 53       		.byte	0x53
 12567 0bcf B4030000 		.4byte	.LVL315
 12568 0bd3 BE030000 		.4byte	.LVL316
 12569 0bd7 0100     		.2byte	0x1
 12570 0bd9 54       		.byte	0x54
 12571 0bda BE030000 		.4byte	.LVL316
 12572 0bde C9030000 		.4byte	.LVL318-1
 12573 0be2 0100     		.2byte	0x1
 12574 0be4 53       		.byte	0x53
 12575 0be5 C9030000 		.4byte	.LVL318-1
 12576 0be9 E0030000 		.4byte	.LVL321
 12577 0bed 0300     		.2byte	0x3
 12578 0bef 91       		.byte	0x91
 12579 0bf0 AC7F     		.sleb128 -84
 12580 0bf2 E0030000 		.4byte	.LVL321
 12581 0bf6 10050000 		.4byte	.LVL358
 12582 0bfa 0100     		.2byte	0x1
 12583 0bfc 54       		.byte	0x54
 12584 0bfd 16050000 		.4byte	.LVL360
 12585 0c01 D4050000 		.4byte	.LFE330
 12586 0c05 0100     		.2byte	0x1
 12587 0c07 54       		.byte	0x54
 12588 0c08 00000000 		.4byte	0
 12589 0c0c 00000000 		.4byte	0
 12590              	.LLST48:
 12591 0c10 0C000000 		.4byte	.LVL204
 12592 0c14 10000000 		.4byte	.LVL205
 12593 0c18 0200     		.2byte	0x2
 12594 0c1a 30       		.byte	0x30
 12595 0c1b 9F       		.byte	0x9f
ARM GAS  /tmp/ccQCTkSU.s 			page 222


 12596 0c1c 10000000 		.4byte	.LVL205
 12597 0c20 82020000 		.4byte	.LVL265
 12598 0c24 0100     		.2byte	0x1
 12599 0c26 5A       		.byte	0x5a
 12600 0c27 9A020000 		.4byte	.LVL269
 12601 0c2b A4020000 		.4byte	.LVL271
 12602 0c2f 0100     		.2byte	0x1
 12603 0c31 5A       		.byte	0x5a
 12604 0c32 C4020000 		.4byte	.LVL275
 12605 0c36 CC020000 		.4byte	.LVL276
 12606 0c3a 0100     		.2byte	0x1
 12607 0c3c 5A       		.byte	0x5a
 12608 0c3d DE020000 		.4byte	.LVL279
 12609 0c41 DA030000 		.4byte	.LVL319
 12610 0c45 0100     		.2byte	0x1
 12611 0c47 5A       		.byte	0x5a
 12612 0c48 DA030000 		.4byte	.LVL319
 12613 0c4c DC030000 		.4byte	.LVL320
 12614 0c50 0300     		.2byte	0x3
 12615 0c52 7A       		.byte	0x7a
 12616 0c53 7F       		.sleb128 -1
 12617 0c54 9F       		.byte	0x9f
 12618 0c55 DC030000 		.4byte	.LVL320
 12619 0c59 E0030000 		.4byte	.LVL321
 12620 0c5d 0300     		.2byte	0x3
 12621 0c5f 7A       		.byte	0x7a
 12622 0c60 01       		.sleb128 1
 12623 0c61 9F       		.byte	0x9f
 12624 0c62 E0030000 		.4byte	.LVL321
 12625 0c66 D4050000 		.4byte	.LFE330
 12626 0c6a 0100     		.2byte	0x1
 12627 0c6c 5A       		.byte	0x5a
 12628 0c6d 00000000 		.4byte	0
 12629 0c71 00000000 		.4byte	0
 12630              	.LLST49:
 12631 0c75 A2000000 		.4byte	.LVL223
 12632 0c79 16010000 		.4byte	.LVL224
 12633 0c7d 0800     		.2byte	0x8
 12634 0c7f 73       		.byte	0x73
 12635 0c80 00       		.sleb128 0
 12636 0c81 08       		.byte	0x8
 12637 0c82 FF       		.byte	0xff
 12638 0c83 1A       		.byte	0x1a
 12639 0c84 49       		.byte	0x49
 12640 0c85 2C       		.byte	0x2c
 12641 0c86 9F       		.byte	0x9f
 12642 0c87 3A010000 		.4byte	.LVL229
 12643 0c8b BC010000 		.4byte	.LVL232
 12644 0c8f 0200     		.2byte	0x2
 12645 0c91 31       		.byte	0x31
 12646 0c92 9F       		.byte	0x9f
 12647 0c93 BC010000 		.4byte	.LVL232
 12648 0c97 BE010000 		.4byte	.LVL233
 12649 0c9b 0800     		.2byte	0x8
 12650 0c9d 73       		.byte	0x73
 12651 0c9e 00       		.sleb128 0
 12652 0c9f 08       		.byte	0x8
ARM GAS  /tmp/ccQCTkSU.s 			page 223


 12653 0ca0 FF       		.byte	0xff
 12654 0ca1 1A       		.byte	0x1a
 12655 0ca2 49       		.byte	0x49
 12656 0ca3 2C       		.byte	0x2c
 12657 0ca4 9F       		.byte	0x9f
 12658 0ca5 00020000 		.4byte	.LVL245
 12659 0ca9 02020000 		.4byte	.LVL246
 12660 0cad 0800     		.2byte	0x8
 12661 0caf 73       		.byte	0x73
 12662 0cb0 00       		.sleb128 0
 12663 0cb1 08       		.byte	0x8
 12664 0cb2 FF       		.byte	0xff
 12665 0cb3 1A       		.byte	0x1a
 12666 0cb4 49       		.byte	0x49
 12667 0cb5 2C       		.byte	0x2c
 12668 0cb6 9F       		.byte	0x9f
 12669 0cb7 44020000 		.4byte	.LVL258
 12670 0cbb 46020000 		.4byte	.LVL259
 12671 0cbf 0800     		.2byte	0x8
 12672 0cc1 73       		.byte	0x73
 12673 0cc2 00       		.sleb128 0
 12674 0cc3 08       		.byte	0x8
 12675 0cc4 FF       		.byte	0xff
 12676 0cc5 1A       		.byte	0x1a
 12677 0cc6 49       		.byte	0x49
 12678 0cc7 2C       		.byte	0x2c
 12679 0cc8 9F       		.byte	0x9f
 12680 0cc9 DE020000 		.4byte	.LVL279
 12681 0ccd E0020000 		.4byte	.LVL280
 12682 0cd1 0800     		.2byte	0x8
 12683 0cd3 73       		.byte	0x73
 12684 0cd4 00       		.sleb128 0
 12685 0cd5 08       		.byte	0x8
 12686 0cd6 FF       		.byte	0xff
 12687 0cd7 1A       		.byte	0x1a
 12688 0cd8 49       		.byte	0x49
 12689 0cd9 2C       		.byte	0x2c
 12690 0cda 9F       		.byte	0x9f
 12691 0cdb 8E030000 		.4byte	.LVL305
 12692 0cdf 90030000 		.4byte	.LVL306
 12693 0ce3 0800     		.2byte	0x8
 12694 0ce5 73       		.byte	0x73
 12695 0ce6 00       		.sleb128 0
 12696 0ce7 08       		.byte	0x8
 12697 0ce8 FF       		.byte	0xff
 12698 0ce9 1A       		.byte	0x1a
 12699 0cea 49       		.byte	0x49
 12700 0ceb 2C       		.byte	0x2c
 12701 0cec 9F       		.byte	0x9f
 12702 0ced 94030000 		.4byte	.LVL307
 12703 0cf1 96030000 		.4byte	.LVL308
 12704 0cf5 0800     		.2byte	0x8
 12705 0cf7 73       		.byte	0x73
 12706 0cf8 00       		.sleb128 0
 12707 0cf9 08       		.byte	0x8
 12708 0cfa FF       		.byte	0xff
 12709 0cfb 1A       		.byte	0x1a
ARM GAS  /tmp/ccQCTkSU.s 			page 224


 12710 0cfc 49       		.byte	0x49
 12711 0cfd 2C       		.byte	0x2c
 12712 0cfe 9F       		.byte	0x9f
 12713 0cff 96030000 		.4byte	.LVL308
 12714 0d03 98030000 		.4byte	.LVL309
 12715 0d07 0900     		.2byte	0x9
 12716 0d09 71       		.byte	0x71
 12717 0d0a BF7F     		.sleb128 -65
 12718 0d0c 08       		.byte	0x8
 12719 0d0d FF       		.byte	0xff
 12720 0d0e 1A       		.byte	0x1a
 12721 0d0f 49       		.byte	0x49
 12722 0d10 2C       		.byte	0x2c
 12723 0d11 9F       		.byte	0x9f
 12724 0d12 E0030000 		.4byte	.LVL321
 12725 0d16 E8030000 		.4byte	.LVL322
 12726 0d1a 0200     		.2byte	0x2
 12727 0d1c 31       		.byte	0x31
 12728 0d1d 9F       		.byte	0x9f
 12729 0d1e 16050000 		.4byte	.LVL360
 12730 0d22 3A050000 		.4byte	.LVL364
 12731 0d26 0800     		.2byte	0x8
 12732 0d28 73       		.byte	0x73
 12733 0d29 00       		.sleb128 0
 12734 0d2a 08       		.byte	0x8
 12735 0d2b FF       		.byte	0xff
 12736 0d2c 1A       		.byte	0x1a
 12737 0d2d 49       		.byte	0x49
 12738 0d2e 2C       		.byte	0x2c
 12739 0d2f 9F       		.byte	0x9f
 12740 0d30 00000000 		.4byte	0
 12741 0d34 00000000 		.4byte	0
 12742              	.LLST50:
 12743 0d38 40000000 		.4byte	.LVL211
 12744 0d3c 50000000 		.4byte	.LVL212
 12745 0d40 0200     		.2byte	0x2
 12746 0d42 30       		.byte	0x30
 12747 0d43 9F       		.byte	0x9f
 12748 0d44 50000000 		.4byte	.LVL212
 12749 0d48 58000000 		.4byte	.LVL213
 12750 0d4c 0200     		.2byte	0x2
 12751 0d4e 31       		.byte	0x31
 12752 0d4f 9F       		.byte	0x9f
 12753 0d50 58000000 		.4byte	.LVL213
 12754 0d54 82020000 		.4byte	.LVL265
 12755 0d58 0300     		.2byte	0x3
 12756 0d5a 91       		.byte	0x91
 12757 0d5b AC7F     		.sleb128 -84
 12758 0d5d DE020000 		.4byte	.LVL279
 12759 0d61 C8030000 		.4byte	.LVL317
 12760 0d65 0300     		.2byte	0x3
 12761 0d67 91       		.byte	0x91
 12762 0d68 AC7F     		.sleb128 -84
 12763 0d6a E0030000 		.4byte	.LVL321
 12764 0d6e D4050000 		.4byte	.LFE330
 12765 0d72 0300     		.2byte	0x3
 12766 0d74 91       		.byte	0x91
ARM GAS  /tmp/ccQCTkSU.s 			page 225


 12767 0d75 AC7F     		.sleb128 -84
 12768 0d77 00000000 		.4byte	0
 12769 0d7b 00000000 		.4byte	0
 12770              	.LLST51:
 12771 0d7f EA020000 		.4byte	.LVL282
 12772 0d83 62030000 		.4byte	.LVL296
 12773 0d87 0200     		.2byte	0x2
 12774 0d89 79       		.byte	0x79
 12775 0d8a 00       		.sleb128 0
 12776 0d8b A6030000 		.4byte	.LVL312
 12777 0d8f B2030000 		.4byte	.LVL314
 12778 0d93 0200     		.2byte	0x2
 12779 0d95 79       		.byte	0x79
 12780 0d96 00       		.sleb128 0
 12781 0d97 EE030000 		.4byte	.LVL323
 12782 0d9b 02040000 		.4byte	.LVL326
 12783 0d9f 0100     		.2byte	0x1
 12784 0da1 51       		.byte	0x51
 12785 0da2 6C050000 		.4byte	.LVL369
 12786 0da6 80050000 		.4byte	.LVL373
 12787 0daa 0200     		.2byte	0x2
 12788 0dac 79       		.byte	0x79
 12789 0dad 00       		.sleb128 0
 12790 0dae 8E050000 		.4byte	.LVL374
 12791 0db2 9C050000 		.4byte	.LVL377
 12792 0db6 0100     		.2byte	0x1
 12793 0db8 51       		.byte	0x51
 12794 0db9 9C050000 		.4byte	.LVL377
 12795 0dbd A2050000 		.4byte	.LVL378
 12796 0dc1 0200     		.2byte	0x2
 12797 0dc3 79       		.byte	0x79
 12798 0dc4 00       		.sleb128 0
 12799 0dc5 00000000 		.4byte	0
 12800 0dc9 00000000 		.4byte	0
 12801              	.LLST52:
 12802 0dcd 5E030000 		.4byte	.LVL295
 12803 0dd1 66030000 		.4byte	.LVL297
 12804 0dd5 0300     		.2byte	0x3
 12805 0dd7 71       		.byte	0x71
 12806 0dd8 01       		.sleb128 1
 12807 0dd9 9F       		.byte	0x9f
 12808 0dda 66030000 		.4byte	.LVL297
 12809 0dde 6E030000 		.4byte	.LVL299
 12810 0de2 0300     		.2byte	0x3
 12811 0de4 71       		.byte	0x71
 12812 0de5 02       		.sleb128 2
 12813 0de6 9F       		.byte	0x9f
 12814 0de7 6E030000 		.4byte	.LVL299
 12815 0deb 72030000 		.4byte	.LVL301
 12816 0def 0300     		.2byte	0x3
 12817 0df1 71       		.byte	0x71
 12818 0df2 03       		.sleb128 3
 12819 0df3 9F       		.byte	0x9f
 12820 0df4 6E050000 		.4byte	.LVL370
 12821 0df8 80050000 		.4byte	.LVL373
 12822 0dfc 0100     		.2byte	0x1
 12823 0dfe 56       		.byte	0x56
ARM GAS  /tmp/ccQCTkSU.s 			page 226


 12824 0dff 00000000 		.4byte	0
 12825 0e03 00000000 		.4byte	0
 12826              	.LLST53:
 12827 0e07 F4020000 		.4byte	.LVL284
 12828 0e0b F8020000 		.4byte	.LVL285
 12829 0e0f 0300     		.2byte	0x3
 12830 0e11 72       		.byte	0x72
 12831 0e12 37       		.sleb128 55
 12832 0e13 9F       		.byte	0x9f
 12833 0e14 F8020000 		.4byte	.LVL285
 12834 0e18 3E030000 		.4byte	.LVL292
 12835 0e1c 0100     		.2byte	0x1
 12836 0e1e 5C       		.byte	0x5c
 12837 0e1f 5E030000 		.4byte	.LVL295
 12838 0e23 62030000 		.4byte	.LVL296
 12839 0e27 0100     		.2byte	0x1
 12840 0e29 50       		.byte	0x50
 12841 0e2a 62030000 		.4byte	.LVL296
 12842 0e2e 6A030000 		.4byte	.LVL298
 12843 0e32 0300     		.2byte	0x3
 12844 0e34 70       		.byte	0x70
 12845 0e35 7F       		.sleb128 -1
 12846 0e36 9F       		.byte	0x9f
 12847 0e37 6A030000 		.4byte	.LVL298
 12848 0e3b 72030000 		.4byte	.LVL301
 12849 0e3f 0300     		.2byte	0x3
 12850 0e41 70       		.byte	0x70
 12851 0e42 7E       		.sleb128 -2
 12852 0e43 9F       		.byte	0x9f
 12853 0e44 A6030000 		.4byte	.LVL312
 12854 0e48 B2030000 		.4byte	.LVL314
 12855 0e4c 0100     		.2byte	0x1
 12856 0e4e 5C       		.byte	0x5c
 12857 0e4f 6C050000 		.4byte	.LVL369
 12858 0e53 6E050000 		.4byte	.LVL370
 12859 0e57 0100     		.2byte	0x1
 12860 0e59 5C       		.byte	0x5c
 12861 0e5a 9C050000 		.4byte	.LVL377
 12862 0e5e A2050000 		.4byte	.LVL378
 12863 0e62 0100     		.2byte	0x1
 12864 0e64 5C       		.byte	0x5c
 12865 0e65 00000000 		.4byte	0
 12866 0e69 00000000 		.4byte	0
 12867              	.LLST54:
 12868 0e6d EC020000 		.4byte	.LVL283
 12869 0e71 06030000 		.4byte	.LVL286
 12870 0e75 0100     		.2byte	0x1
 12871 0e77 53       		.byte	0x53
 12872 0e78 06030000 		.4byte	.LVL286
 12873 0e7c 0C030000 		.4byte	.LVL287
 12874 0e80 0300     		.2byte	0x3
 12875 0e82 73       		.byte	0x73
 12876 0e83 01       		.sleb128 1
 12877 0e84 9F       		.byte	0x9f
 12878 0e85 5E030000 		.4byte	.LVL295
 12879 0e89 66030000 		.4byte	.LVL297
 12880 0e8d 0300     		.2byte	0x3
ARM GAS  /tmp/ccQCTkSU.s 			page 227


 12881 0e8f 73       		.byte	0x73
 12882 0e90 01       		.sleb128 1
 12883 0e91 9F       		.byte	0x9f
 12884 0e92 66030000 		.4byte	.LVL297
 12885 0e96 6E030000 		.4byte	.LVL299
 12886 0e9a 0300     		.2byte	0x3
 12887 0e9c 73       		.byte	0x73
 12888 0e9d 02       		.sleb128 2
 12889 0e9e 9F       		.byte	0x9f
 12890 0e9f 6E030000 		.4byte	.LVL299
 12891 0ea3 70030000 		.4byte	.LVL300
 12892 0ea7 0300     		.2byte	0x3
 12893 0ea9 73       		.byte	0x73
 12894 0eaa 03       		.sleb128 3
 12895 0eab 9F       		.byte	0x9f
 12896 0eac A6030000 		.4byte	.LVL312
 12897 0eb0 AA030000 		.4byte	.LVL313
 12898 0eb4 0100     		.2byte	0x1
 12899 0eb6 53       		.byte	0x53
 12900 0eb7 AA030000 		.4byte	.LVL313
 12901 0ebb B2030000 		.4byte	.LVL314
 12902 0ebf 0300     		.2byte	0x3
 12903 0ec1 73       		.byte	0x73
 12904 0ec2 01       		.sleb128 1
 12905 0ec3 9F       		.byte	0x9f
 12906 0ec4 6E050000 		.4byte	.LVL370
 12907 0ec8 72050000 		.4byte	.LVL371
 12908 0ecc 0100     		.2byte	0x1
 12909 0ece 53       		.byte	0x53
 12910 0ecf 72050000 		.4byte	.LVL371
 12911 0ed3 80050000 		.4byte	.LVL373
 12912 0ed7 0300     		.2byte	0x3
 12913 0ed9 73       		.byte	0x73
 12914 0eda 7F       		.sleb128 -1
 12915 0edb 9F       		.byte	0x9f
 12916 0edc 00000000 		.4byte	0
 12917 0ee0 00000000 		.4byte	0
 12918              	.LLST55:
 12919 0ee4 EC020000 		.4byte	.LVL283
 12920 0ee8 F4020000 		.4byte	.LVL284
 12921 0eec 0100     		.2byte	0x1
 12922 0eee 52       		.byte	0x52
 12923 0eef F4020000 		.4byte	.LVL284
 12924 0ef3 10030000 		.4byte	.LVL288
 12925 0ef7 0100     		.2byte	0x1
 12926 0ef9 51       		.byte	0x51
 12927 0efa A6030000 		.4byte	.LVL312
 12928 0efe B2030000 		.4byte	.LVL314
 12929 0f02 0100     		.2byte	0x1
 12930 0f04 51       		.byte	0x51
 12931 0f05 00000000 		.4byte	0
 12932 0f09 00000000 		.4byte	0
 12933              	.LLST57:
 12934 0f0d F8030000 		.4byte	.LVL324
 12935 0f11 16050000 		.4byte	.LVL360
 12936 0f15 0200     		.2byte	0x2
 12937 0f17 3A       		.byte	0x3a
ARM GAS  /tmp/ccQCTkSU.s 			page 228


 12938 0f18 9F       		.byte	0x9f
 12939 0f19 A2050000 		.4byte	.LVL378
 12940 0f1d C4050000 		.4byte	.LVL382
 12941 0f21 0200     		.2byte	0x2
 12942 0f23 3A       		.byte	0x3a
 12943 0f24 9F       		.byte	0x9f
 12944 0f25 00000000 		.4byte	0
 12945 0f29 00000000 		.4byte	0
 12946              	.LLST58:
 12947 0f2d F8030000 		.4byte	.LVL324
 12948 0f31 02040000 		.4byte	.LVL326
 12949 0f35 0100     		.2byte	0x1
 12950 0f37 51       		.byte	0x51
 12951 0f38 00000000 		.4byte	0
 12952 0f3c 00000000 		.4byte	0
 12953              	.LLST59:
 12954 0f40 F8030000 		.4byte	.LVL324
 12955 0f44 02050000 		.4byte	.LVL355
 12956 0f48 0100     		.2byte	0x1
 12957 0f4a 58       		.byte	0x58
 12958 0f4b A2050000 		.4byte	.LVL378
 12959 0f4f C4050000 		.4byte	.LVL382
 12960 0f53 0100     		.2byte	0x1
 12961 0f55 58       		.byte	0x58
 12962 0f56 00000000 		.4byte	0
 12963 0f5a 00000000 		.4byte	0
 12964              	.LLST60:
 12965 0f5e F8030000 		.4byte	.LVL324
 12966 0f62 16050000 		.4byte	.LVL360
 12967 0f66 0200     		.2byte	0x2
 12968 0f68 30       		.byte	0x30
 12969 0f69 9F       		.byte	0x9f
 12970 0f6a A2050000 		.4byte	.LVL378
 12971 0f6e C4050000 		.4byte	.LVL382
 12972 0f72 0200     		.2byte	0x2
 12973 0f74 30       		.byte	0x30
 12974 0f75 9F       		.byte	0x9f
 12975 0f76 00000000 		.4byte	0
 12976 0f7a 00000000 		.4byte	0
 12977              	.LLST63:
 12978 0f7e F8030000 		.4byte	.LVL324
 12979 0f82 6C040000 		.4byte	.LVL337
 12980 0f86 0100     		.2byte	0x1
 12981 0f88 58       		.byte	0x58
 12982 0f89 6C040000 		.4byte	.LVL337
 12983 0f8d 7A040000 		.4byte	.LVL339
 12984 0f91 0100     		.2byte	0x1
 12985 0f93 56       		.byte	0x56
 12986 0f94 7A040000 		.4byte	.LVL339
 12987 0f98 7C040000 		.4byte	.LVL340
 12988 0f9c 0300     		.2byte	0x3
 12989 0f9e 91       		.byte	0x91
 12990 0f9f B47F     		.sleb128 -76
 12991 0fa1 7C040000 		.4byte	.LVL340
 12992 0fa5 86040000 		.4byte	.LVL341
 12993 0fa9 0300     		.2byte	0x3
 12994 0fab 78       		.byte	0x78
ARM GAS  /tmp/ccQCTkSU.s 			page 229


 12995 0fac 01       		.sleb128 1
 12996 0fad 9F       		.byte	0x9f
 12997 0fae 86040000 		.4byte	.LVL341
 12998 0fb2 98040000 		.4byte	.LVL344
 12999 0fb6 0300     		.2byte	0x3
 13000 0fb8 91       		.byte	0x91
 13001 0fb9 B47F     		.sleb128 -76
 13002 0fbb 98040000 		.4byte	.LVL344
 13003 0fbf 9C040000 		.4byte	.LVL346
 13004 0fc3 0100     		.2byte	0x1
 13005 0fc5 56       		.byte	0x56
 13006 0fc6 D2040000 		.4byte	.LVL347
 13007 0fca DA040000 		.4byte	.LVL348
 13008 0fce 0300     		.2byte	0x3
 13009 0fd0 71       		.byte	0x71
 13010 0fd1 01       		.sleb128 1
 13011 0fd2 9F       		.byte	0x9f
 13012 0fd3 DA040000 		.4byte	.LVL348
 13013 0fd7 E2040000 		.4byte	.LVL349
 13014 0fdb 0300     		.2byte	0x3
 13015 0fdd 71       		.byte	0x71
 13016 0fde 02       		.sleb128 2
 13017 0fdf 9F       		.byte	0x9f
 13018 0fe0 E2040000 		.4byte	.LVL349
 13019 0fe4 EA040000 		.4byte	.LVL350
 13020 0fe8 0300     		.2byte	0x3
 13021 0fea 71       		.byte	0x71
 13022 0feb 03       		.sleb128 3
 13023 0fec 9F       		.byte	0x9f
 13024 0fed EA040000 		.4byte	.LVL350
 13025 0ff1 F2040000 		.4byte	.LVL351
 13026 0ff5 0300     		.2byte	0x3
 13027 0ff7 71       		.byte	0x71
 13028 0ff8 04       		.sleb128 4
 13029 0ff9 9F       		.byte	0x9f
 13030 0ffa F2040000 		.4byte	.LVL351
 13031 0ffe FA040000 		.4byte	.LVL352
 13032 1002 0300     		.2byte	0x3
 13033 1004 71       		.byte	0x71
 13034 1005 05       		.sleb128 5
 13035 1006 9F       		.byte	0x9f
 13036 1007 FA040000 		.4byte	.LVL352
 13037 100b FE040000 		.4byte	.LVL354
 13038 100f 0300     		.2byte	0x3
 13039 1011 71       		.byte	0x71
 13040 1012 06       		.sleb128 6
 13041 1013 9F       		.byte	0x9f
 13042 1014 A2050000 		.4byte	.LVL378
 13043 1018 AA050000 		.4byte	.LVL379
 13044 101c 0100     		.2byte	0x1
 13045 101e 58       		.byte	0x58
 13046 101f B8050000 		.4byte	.LVL381
 13047 1023 C4050000 		.4byte	.LVL382
 13048 1027 0100     		.2byte	0x1
 13049 1029 58       		.byte	0x58
 13050 102a 00000000 		.4byte	0
 13051 102e 00000000 		.4byte	0
ARM GAS  /tmp/ccQCTkSU.s 			page 230


 13052              	.LLST64:
 13053 1032 14040000 		.4byte	.LVL328
 13054 1036 16040000 		.4byte	.LVL329
 13055 103a 0300     		.2byte	0x3
 13056 103c 73       		.byte	0x73
 13057 103d 30       		.sleb128 48
 13058 103e 9F       		.byte	0x9f
 13059 103f 16040000 		.4byte	.LVL329
 13060 1043 1E040000 		.4byte	.LVL331
 13061 1047 0100     		.2byte	0x1
 13062 1049 53       		.byte	0x53
 13063 104a 2A040000 		.4byte	.LVL333
 13064 104e 30040000 		.4byte	.LVL335
 13065 1052 0100     		.2byte	0x1
 13066 1054 50       		.byte	0x50
 13067 1055 30040000 		.4byte	.LVL335
 13068 1059 68040000 		.4byte	.LVL336
 13069 105d 0100     		.2byte	0x1
 13070 105f 56       		.byte	0x56
 13071 1060 68040000 		.4byte	.LVL336
 13072 1064 6C040000 		.4byte	.LVL337
 13073 1068 0200     		.2byte	0x2
 13074 106a 7D       		.byte	0x7d
 13075 106b 00       		.sleb128 0
 13076 106c 6C040000 		.4byte	.LVL337
 13077 1070 86040000 		.4byte	.LVL341
 13078 1074 0100     		.2byte	0x1
 13079 1076 5E       		.byte	0x5e
 13080 1077 86040000 		.4byte	.LVL341
 13081 107b 94040000 		.4byte	.LVL343
 13082 107f 0100     		.2byte	0x1
 13083 1081 56       		.byte	0x56
 13084 1082 94040000 		.4byte	.LVL343
 13085 1086 9A040000 		.4byte	.LVL345
 13086 108a 0300     		.2byte	0x3
 13087 108c 91       		.byte	0x91
 13088 108d B07F     		.sleb128 -80
 13089 108f A2050000 		.4byte	.LVL378
 13090 1093 C4050000 		.4byte	.LVL382
 13091 1097 0100     		.2byte	0x1
 13092 1099 56       		.byte	0x56
 13093 109a 00000000 		.4byte	0
 13094 109e 00000000 		.4byte	0
 13095              	.LLST65:
 13096 10a2 FC030000 		.4byte	.LVL325
 13097 10a6 02040000 		.4byte	.LVL326
 13098 10aa 0100     		.2byte	0x1
 13099 10ac 5C       		.byte	0x5c
 13100 10ad 02040000 		.4byte	.LVL326
 13101 10b1 04040000 		.4byte	.LVL327
 13102 10b5 0100     		.2byte	0x1
 13103 10b7 53       		.byte	0x53
 13104 10b8 04040000 		.4byte	.LVL327
 13105 10bc 1E040000 		.4byte	.LVL331
 13106 10c0 0100     		.2byte	0x1
 13107 10c2 52       		.byte	0x52
 13108 10c3 1E040000 		.4byte	.LVL331
ARM GAS  /tmp/ccQCTkSU.s 			page 231


 13109 10c7 6E040000 		.4byte	.LVL338
 13110 10cb 0100     		.2byte	0x1
 13111 10cd 53       		.byte	0x53
 13112 10ce 6E040000 		.4byte	.LVL338
 13113 10d2 8A040000 		.4byte	.LVL342
 13114 10d6 0300     		.2byte	0x3
 13115 10d8 73       		.byte	0x73
 13116 10d9 02       		.sleb128 2
 13117 10da 9F       		.byte	0x9f
 13118 10db 8A040000 		.4byte	.LVL342
 13119 10df 98040000 		.4byte	.LVL344
 13120 10e3 0300     		.2byte	0x3
 13121 10e5 73       		.byte	0x73
 13122 10e6 03       		.sleb128 3
 13123 10e7 9F       		.byte	0x9f
 13124 10e8 98040000 		.4byte	.LVL344
 13125 10ec 9C040000 		.4byte	.LVL346
 13126 10f0 0100     		.2byte	0x1
 13127 10f2 52       		.byte	0x52
 13128 10f3 D2040000 		.4byte	.LVL347
 13129 10f7 DA040000 		.4byte	.LVL348
 13130 10fb 0300     		.2byte	0x3
 13131 10fd 73       		.byte	0x73
 13132 10fe 01       		.sleb128 1
 13133 10ff 9F       		.byte	0x9f
 13134 1100 DA040000 		.4byte	.LVL348
 13135 1104 E2040000 		.4byte	.LVL349
 13136 1108 0300     		.2byte	0x3
 13137 110a 73       		.byte	0x73
 13138 110b 02       		.sleb128 2
 13139 110c 9F       		.byte	0x9f
 13140 110d E2040000 		.4byte	.LVL349
 13141 1111 EA040000 		.4byte	.LVL350
 13142 1115 0300     		.2byte	0x3
 13143 1117 73       		.byte	0x73
 13144 1118 03       		.sleb128 3
 13145 1119 9F       		.byte	0x9f
 13146 111a EA040000 		.4byte	.LVL350
 13147 111e F2040000 		.4byte	.LVL351
 13148 1122 0300     		.2byte	0x3
 13149 1124 73       		.byte	0x73
 13150 1125 04       		.sleb128 4
 13151 1126 9F       		.byte	0x9f
 13152 1127 F2040000 		.4byte	.LVL351
 13153 112b FA040000 		.4byte	.LVL352
 13154 112f 0300     		.2byte	0x3
 13155 1131 73       		.byte	0x73
 13156 1132 05       		.sleb128 5
 13157 1133 9F       		.byte	0x9f
 13158 1134 FA040000 		.4byte	.LVL352
 13159 1138 FC040000 		.4byte	.LVL353
 13160 113c 0300     		.2byte	0x3
 13161 113e 73       		.byte	0x73
 13162 113f 06       		.sleb128 6
 13163 1140 9F       		.byte	0x9f
 13164 1141 A2050000 		.4byte	.LVL378
 13165 1145 AE050000 		.4byte	.LVL380
ARM GAS  /tmp/ccQCTkSU.s 			page 232


 13166 1149 0100     		.2byte	0x1
 13167 114b 53       		.byte	0x53
 13168 114c AE050000 		.4byte	.LVL380
 13169 1150 B8050000 		.4byte	.LVL381
 13170 1154 0300     		.2byte	0x3
 13171 1156 73       		.byte	0x73
 13172 1157 7F       		.sleb128 -1
 13173 1158 9F       		.byte	0x9f
 13174 1159 B8050000 		.4byte	.LVL381
 13175 115d C4050000 		.4byte	.LVL382
 13176 1161 0100     		.2byte	0x1
 13177 1163 53       		.byte	0x53
 13178 1164 00000000 		.4byte	0
 13179 1168 00000000 		.4byte	0
 13180              	.LLST66:
 13181 116c F8030000 		.4byte	.LVL324
 13182 1170 02040000 		.4byte	.LVL326
 13183 1174 0100     		.2byte	0x1
 13184 1176 51       		.byte	0x51
 13185 1177 02040000 		.4byte	.LVL326
 13186 117b 04040000 		.4byte	.LVL327
 13187 117f 0100     		.2byte	0x1
 13188 1181 50       		.byte	0x50
 13189 1182 04040000 		.4byte	.LVL327
 13190 1186 1C040000 		.4byte	.LVL330
 13191 118a 0100     		.2byte	0x1
 13192 118c 51       		.byte	0x51
 13193 118d 1E040000 		.4byte	.LVL331
 13194 1191 26040000 		.4byte	.LVL332
 13195 1195 0100     		.2byte	0x1
 13196 1197 50       		.byte	0x50
 13197 1198 26040000 		.4byte	.LVL332
 13198 119c 2E040000 		.4byte	.LVL334
 13199 11a0 0100     		.2byte	0x1
 13200 11a2 51       		.byte	0x51
 13201 11a3 00000000 		.4byte	0
 13202 11a7 00000000 		.4byte	0
 13203              	.LLST0:
 13204 11ab 00000000 		.4byte	.LVL0
 13205 11af 18000000 		.4byte	.LVL1
 13206 11b3 0100     		.2byte	0x1
 13207 11b5 50       		.byte	0x50
 13208 11b6 18000000 		.4byte	.LVL1
 13209 11ba 56000000 		.4byte	.LVL7
 13210 11be 0100     		.2byte	0x1
 13211 11c0 55       		.byte	0x55
 13212 11c1 56000000 		.4byte	.LVL7
 13213 11c5 64000000 		.4byte	.LVL9
 13214 11c9 0300     		.2byte	0x3
 13215 11cb 75       		.byte	0x75
 13216 11cc 01       		.sleb128 1
 13217 11cd 9F       		.byte	0x9f
 13218 11ce 64000000 		.4byte	.LVL9
 13219 11d2 6A000000 		.4byte	.LVL10
 13220 11d6 0300     		.2byte	0x3
 13221 11d8 75       		.byte	0x75
 13222 11d9 02       		.sleb128 2
ARM GAS  /tmp/ccQCTkSU.s 			page 233


 13223 11da 9F       		.byte	0x9f
 13224 11db 72000000 		.4byte	.LVL11
 13225 11df 10030000 		.4byte	.LVL94
 13226 11e3 0100     		.2byte	0x1
 13227 11e5 55       		.byte	0x55
 13228 11e6 10030000 		.4byte	.LVL94
 13229 11ea 7A040000 		.4byte	.LVL130
 13230 11ee 0400     		.2byte	0x4
 13231 11f0 F3       		.byte	0xf3
 13232 11f1 01       		.uleb128 0x1
 13233 11f2 50       		.byte	0x50
 13234 11f3 9F       		.byte	0x9f
 13235 11f4 7A040000 		.4byte	.LVL130
 13236 11f8 94040000 		.4byte	.LVL134
 13237 11fc 0100     		.2byte	0x1
 13238 11fe 55       		.byte	0x55
 13239 11ff 94040000 		.4byte	.LVL134
 13240 1203 E6050000 		.4byte	.LVL173
 13241 1207 0400     		.2byte	0x4
 13242 1209 F3       		.byte	0xf3
 13243 120a 01       		.uleb128 0x1
 13244 120b 50       		.byte	0x50
 13245 120c 9F       		.byte	0x9f
 13246 120d E6050000 		.4byte	.LVL173
 13247 1211 EC050000 		.4byte	.LVL174
 13248 1215 0300     		.2byte	0x3
 13249 1217 75       		.byte	0x75
 13250 1218 01       		.sleb128 1
 13251 1219 9F       		.byte	0x9f
 13252 121a EC050000 		.4byte	.LVL174
 13253 121e F2050000 		.4byte	.LVL175
 13254 1222 0300     		.2byte	0x3
 13255 1224 75       		.byte	0x75
 13256 1225 02       		.sleb128 2
 13257 1226 9F       		.byte	0x9f
 13258 1227 F2050000 		.4byte	.LVL175
 13259 122b F4050000 		.4byte	.LVL176
 13260 122f 0100     		.2byte	0x1
 13261 1231 56       		.byte	0x56
 13262 1232 F4050000 		.4byte	.LVL176
 13263 1236 1A060000 		.4byte	.LVL182
 13264 123a 0100     		.2byte	0x1
 13265 123c 55       		.byte	0x55
 13266 123d 1A060000 		.4byte	.LVL182
 13267 1241 36060000 		.4byte	.LVL188
 13268 1245 0400     		.2byte	0x4
 13269 1247 F3       		.byte	0xf3
 13270 1248 01       		.uleb128 0x1
 13271 1249 50       		.byte	0x50
 13272 124a 9F       		.byte	0x9f
 13273 124b 36060000 		.4byte	.LVL188
 13274 124f 3C060000 		.4byte	.LVL189
 13275 1253 0100     		.2byte	0x1
 13276 1255 55       		.byte	0x55
 13277 1256 3C060000 		.4byte	.LVL189
 13278 125a 50060000 		.4byte	.LVL193
 13279 125e 0400     		.2byte	0x4
ARM GAS  /tmp/ccQCTkSU.s 			page 234


 13280 1260 F3       		.byte	0xf3
 13281 1261 01       		.uleb128 0x1
 13282 1262 50       		.byte	0x50
 13283 1263 9F       		.byte	0x9f
 13284 1264 50060000 		.4byte	.LVL193
 13285 1268 56060000 		.4byte	.LVL195
 13286 126c 0100     		.2byte	0x1
 13287 126e 55       		.byte	0x55
 13288 126f 56060000 		.4byte	.LVL195
 13289 1273 6C060000 		.4byte	.LVL198
 13290 1277 0400     		.2byte	0x4
 13291 1279 F3       		.byte	0xf3
 13292 127a 01       		.uleb128 0x1
 13293 127b 50       		.byte	0x50
 13294 127c 9F       		.byte	0x9f
 13295 127d 6C060000 		.4byte	.LVL198
 13296 1281 74060000 		.4byte	.LVL199
 13297 1285 0100     		.2byte	0x1
 13298 1287 55       		.byte	0x55
 13299 1288 74060000 		.4byte	.LVL199
 13300 128c 7C060000 		.4byte	.LVL202
 13301 1290 0400     		.2byte	0x4
 13302 1292 F3       		.byte	0xf3
 13303 1293 01       		.uleb128 0x1
 13304 1294 50       		.byte	0x50
 13305 1295 9F       		.byte	0x9f
 13306 1296 7C060000 		.4byte	.LVL202
 13307 129a 88060000 		.4byte	.LFE329
 13308 129e 0100     		.2byte	0x1
 13309 12a0 55       		.byte	0x55
 13310 12a1 00000000 		.4byte	0
 13311 12a5 00000000 		.4byte	0
 13312              	.LLST1:
 13313 12a9 00000000 		.4byte	.LVL0
 13314 12ad 1D000000 		.4byte	.LVL3-1
 13315 12b1 0800     		.2byte	0x8
 13316 12b3 90       		.byte	0x90
 13317 12b4 40       		.uleb128 0x40
 13318 12b5 93       		.byte	0x93
 13319 12b6 04       		.uleb128 0x4
 13320 12b7 90       		.byte	0x90
 13321 12b8 41       		.uleb128 0x41
 13322 12b9 93       		.byte	0x93
 13323 12ba 04       		.uleb128 0x4
 13324 12bb 1D000000 		.4byte	.LVL3-1
 13325 12bf 6A000000 		.4byte	.LVL10
 13326 12c3 0600     		.2byte	0x6
 13327 12c5 58       		.byte	0x58
 13328 12c6 93       		.byte	0x93
 13329 12c7 04       		.uleb128 0x4
 13330 12c8 59       		.byte	0x59
 13331 12c9 93       		.byte	0x93
 13332 12ca 04       		.uleb128 0x4
 13333 12cb 6A000000 		.4byte	.LVL10
 13334 12cf 72000000 		.4byte	.LVL11
 13335 12d3 0600     		.2byte	0x6
 13336 12d5 F3       		.byte	0xf3
ARM GAS  /tmp/ccQCTkSU.s 			page 235


 13337 12d6 03       		.uleb128 0x3
 13338 12d7 F5       		.byte	0xf5
 13339 12d8 40       		.uleb128 0x40
 13340 12d9 33       		.uleb128 0x33
 13341 12da 9F       		.byte	0x9f
 13342 12db 72000000 		.4byte	.LVL11
 13343 12df A0000000 		.4byte	.LVL14
 13344 12e3 0600     		.2byte	0x6
 13345 12e5 58       		.byte	0x58
 13346 12e6 93       		.byte	0x93
 13347 12e7 04       		.uleb128 0x4
 13348 12e8 59       		.byte	0x59
 13349 12e9 93       		.byte	0x93
 13350 12ea 04       		.uleb128 0x4
 13351 12eb A0000000 		.4byte	.LVL14
 13352 12ef 7A040000 		.4byte	.LVL130
 13353 12f3 0600     		.2byte	0x6
 13354 12f5 F3       		.byte	0xf3
 13355 12f6 03       		.uleb128 0x3
 13356 12f7 F5       		.byte	0xf5
 13357 12f8 40       		.uleb128 0x40
 13358 12f9 33       		.uleb128 0x33
 13359 12fa 9F       		.byte	0x9f
 13360 12fb 7A040000 		.4byte	.LVL130
 13361 12ff 86040000 		.4byte	.LVL132
 13362 1303 0600     		.2byte	0x6
 13363 1305 58       		.byte	0x58
 13364 1306 93       		.byte	0x93
 13365 1307 04       		.uleb128 0x4
 13366 1308 59       		.byte	0x59
 13367 1309 93       		.byte	0x93
 13368 130a 04       		.uleb128 0x4
 13369 130b 86040000 		.4byte	.LVL132
 13370 130f E6050000 		.4byte	.LVL173
 13371 1313 0600     		.2byte	0x6
 13372 1315 F3       		.byte	0xf3
 13373 1316 03       		.uleb128 0x3
 13374 1317 F5       		.byte	0xf5
 13375 1318 40       		.uleb128 0x40
 13376 1319 33       		.uleb128 0x33
 13377 131a 9F       		.byte	0x9f
 13378 131b E6050000 		.4byte	.LVL173
 13379 131f F4050000 		.4byte	.LVL176
 13380 1323 0600     		.2byte	0x6
 13381 1325 58       		.byte	0x58
 13382 1326 93       		.byte	0x93
 13383 1327 04       		.uleb128 0x4
 13384 1328 59       		.byte	0x59
 13385 1329 93       		.byte	0x93
 13386 132a 04       		.uleb128 0x4
 13387 132b F4050000 		.4byte	.LVL176
 13388 132f 16060000 		.4byte	.LVL181
 13389 1333 0600     		.2byte	0x6
 13390 1335 F3       		.byte	0xf3
 13391 1336 03       		.uleb128 0x3
 13392 1337 F5       		.byte	0xf5
 13393 1338 40       		.uleb128 0x40
ARM GAS  /tmp/ccQCTkSU.s 			page 236


 13394 1339 33       		.uleb128 0x33
 13395 133a 9F       		.byte	0x9f
 13396 133b 16060000 		.4byte	.LVL181
 13397 133f 1A060000 		.4byte	.LVL182
 13398 1343 0600     		.2byte	0x6
 13399 1345 58       		.byte	0x58
 13400 1346 93       		.byte	0x93
 13401 1347 04       		.uleb128 0x4
 13402 1348 59       		.byte	0x59
 13403 1349 93       		.byte	0x93
 13404 134a 04       		.uleb128 0x4
 13405 134b 1A060000 		.4byte	.LVL182
 13406 134f 88060000 		.4byte	.LFE329
 13407 1353 0600     		.2byte	0x6
 13408 1355 F3       		.byte	0xf3
 13409 1356 03       		.uleb128 0x3
 13410 1357 F5       		.byte	0xf5
 13411 1358 40       		.uleb128 0x40
 13412 1359 33       		.uleb128 0x33
 13413 135a 9F       		.byte	0x9f
 13414 135b 00000000 		.4byte	0
 13415 135f 00000000 		.4byte	0
 13416              	.LLST2:
 13417 1363 00000000 		.4byte	.LVL0
 13418 1367 1A000000 		.4byte	.LVL2
 13419 136b 0100     		.2byte	0x1
 13420 136d 51       		.byte	0x51
 13421 136e 1A000000 		.4byte	.LVL2
 13422 1372 6A000000 		.4byte	.LVL10
 13423 1376 0100     		.2byte	0x1
 13424 1378 5B       		.byte	0x5b
 13425 1379 6A000000 		.4byte	.LVL10
 13426 137d 72000000 		.4byte	.LVL11
 13427 1381 0400     		.2byte	0x4
 13428 1383 F3       		.byte	0xf3
 13429 1384 01       		.uleb128 0x1
 13430 1385 51       		.byte	0x51
 13431 1386 9F       		.byte	0x9f
 13432 1387 72000000 		.4byte	.LVL11
 13433 138b F8000000 		.4byte	.LVL28
 13434 138f 0100     		.2byte	0x1
 13435 1391 5B       		.byte	0x5b
 13436 1392 F8000000 		.4byte	.LVL28
 13437 1396 0A010000 		.4byte	.LVL31
 13438 139a 0300     		.2byte	0x3
 13439 139c 7A       		.byte	0x7a
 13440 139d 01       		.sleb128 1
 13441 139e 9F       		.byte	0x9f
 13442 139f 0A010000 		.4byte	.LVL31
 13443 13a3 7A040000 		.4byte	.LVL130
 13444 13a7 0400     		.2byte	0x4
 13445 13a9 F3       		.byte	0xf3
 13446 13aa 01       		.uleb128 0x1
 13447 13ab 51       		.byte	0x51
 13448 13ac 9F       		.byte	0x9f
 13449 13ad 7A040000 		.4byte	.LVL130
 13450 13b1 84040000 		.4byte	.LVL131
ARM GAS  /tmp/ccQCTkSU.s 			page 237


 13451 13b5 0100     		.2byte	0x1
 13452 13b7 5B       		.byte	0x5b
 13453 13b8 84040000 		.4byte	.LVL131
 13454 13bc 8E040000 		.4byte	.LVL133
 13455 13c0 0300     		.2byte	0x3
 13456 13c2 7A       		.byte	0x7a
 13457 13c3 01       		.sleb128 1
 13458 13c4 9F       		.byte	0x9f
 13459 13c5 8E040000 		.4byte	.LVL133
 13460 13c9 E6050000 		.4byte	.LVL173
 13461 13cd 0400     		.2byte	0x4
 13462 13cf F3       		.byte	0xf3
 13463 13d0 01       		.uleb128 0x1
 13464 13d1 51       		.byte	0x51
 13465 13d2 9F       		.byte	0x9f
 13466 13d3 E6050000 		.4byte	.LVL173
 13467 13d7 F4050000 		.4byte	.LVL176
 13468 13db 0100     		.2byte	0x1
 13469 13dd 5B       		.byte	0x5b
 13470 13de F4050000 		.4byte	.LVL176
 13471 13e2 16060000 		.4byte	.LVL181
 13472 13e6 0400     		.2byte	0x4
 13473 13e8 F3       		.byte	0xf3
 13474 13e9 01       		.uleb128 0x1
 13475 13ea 51       		.byte	0x51
 13476 13eb 9F       		.byte	0x9f
 13477 13ec 16060000 		.4byte	.LVL181
 13478 13f0 1A060000 		.4byte	.LVL182
 13479 13f4 0100     		.2byte	0x1
 13480 13f6 5B       		.byte	0x5b
 13481 13f7 1A060000 		.4byte	.LVL182
 13482 13fb 88060000 		.4byte	.LFE329
 13483 13ff 0400     		.2byte	0x4
 13484 1401 F3       		.byte	0xf3
 13485 1402 01       		.uleb128 0x1
 13486 1403 51       		.byte	0x51
 13487 1404 9F       		.byte	0x9f
 13488 1405 00000000 		.4byte	0
 13489 1409 00000000 		.4byte	0
 13490              	.LLST3:
 13491 140d 72000000 		.4byte	.LVL11
 13492 1411 F8000000 		.4byte	.LVL28
 13493 1415 0100     		.2byte	0x1
 13494 1417 5B       		.byte	0x5b
 13495 1418 F8000000 		.4byte	.LVL28
 13496 141c 0A010000 		.4byte	.LVL31
 13497 1420 0300     		.2byte	0x3
 13498 1422 7A       		.byte	0x7a
 13499 1423 01       		.sleb128 1
 13500 1424 9F       		.byte	0x9f
 13501 1425 0A010000 		.4byte	.LVL31
 13502 1429 3C020000 		.4byte	.LVL70
 13503 142d 0400     		.2byte	0x4
 13504 142f F3       		.byte	0xf3
 13505 1430 01       		.uleb128 0x1
 13506 1431 51       		.byte	0x51
 13507 1432 9F       		.byte	0x9f
ARM GAS  /tmp/ccQCTkSU.s 			page 238


 13508 1433 3C020000 		.4byte	.LVL70
 13509 1437 40020000 		.4byte	.LVL71
 13510 143b 0100     		.2byte	0x1
 13511 143d 56       		.byte	0x56
 13512 143e 40020000 		.4byte	.LVL71
 13513 1442 54020000 		.4byte	.LVL74
 13514 1446 0A00     		.2byte	0xa
 13515 1448 77       		.byte	0x77
 13516 1449 00       		.sleb128 0
 13517 144a 32       		.byte	0x32
 13518 144b 24       		.byte	0x24
 13519 144c 03       		.byte	0x3
 13520 144d 00000000 		.4byte	.LANCHOR0
 13521 1451 22       		.byte	0x22
 13522 1452 54020000 		.4byte	.LVL74
 13523 1456 7A040000 		.4byte	.LVL130
 13524 145a 2200     		.2byte	0x22
 13525 145c 39       		.byte	0x39
 13526 145d F3       		.byte	0xf3
 13527 145e 01       		.uleb128 0x1
 13528 145f 51       		.byte	0x51
 13529 1460 F3       		.byte	0xf3
 13530 1461 01       		.uleb128 0x1
 13531 1462 51       		.byte	0x51
 13532 1463 31       		.byte	0x31
 13533 1464 1C       		.byte	0x1c
 13534 1465 40       		.byte	0x40
 13535 1466 4B       		.byte	0x4b
 13536 1467 24       		.byte	0x24
 13537 1468 22       		.byte	0x22
 13538 1469 0C       		.byte	0xc
 13539 146a 09000080 		.4byte	0x80000009
 13540 146e 2A       		.byte	0x2a
 13541 146f 28       		.byte	0x28
 13542 1470 0100     		.2byte	0x1
 13543 1472 16       		.byte	0x16
 13544 1473 13       		.byte	0x13
 13545 1474 32       		.byte	0x32
 13546 1475 1C       		.byte	0x1c
 13547 1476 32       		.byte	0x32
 13548 1477 24       		.byte	0x24
 13549 1478 03       		.byte	0x3
 13550 1479 00000000 		.4byte	.LANCHOR0
 13551 147d 22       		.byte	0x22
 13552 147e 7A040000 		.4byte	.LVL130
 13553 1482 84040000 		.4byte	.LVL131
 13554 1486 0100     		.2byte	0x1
 13555 1488 5B       		.byte	0x5b
 13556 1489 84040000 		.4byte	.LVL131
 13557 148d 8E040000 		.4byte	.LVL133
 13558 1491 0300     		.2byte	0x3
 13559 1493 7A       		.byte	0x7a
 13560 1494 01       		.sleb128 1
 13561 1495 9F       		.byte	0x9f
 13562 1496 8E040000 		.4byte	.LVL133
 13563 149a 94040000 		.4byte	.LVL134
 13564 149e 0400     		.2byte	0x4
ARM GAS  /tmp/ccQCTkSU.s 			page 239


 13565 14a0 F3       		.byte	0xf3
 13566 14a1 01       		.uleb128 0x1
 13567 14a2 51       		.byte	0x51
 13568 14a3 9F       		.byte	0x9f
 13569 14a4 94040000 		.4byte	.LVL134
 13570 14a8 BC040000 		.4byte	.LVL139
 13571 14ac 0100     		.2byte	0x1
 13572 14ae 57       		.byte	0x57
 13573 14af BC040000 		.4byte	.LVL139
 13574 14b3 C0040000 		.4byte	.LVL140
 13575 14b7 0300     		.2byte	0x3
 13576 14b9 77       		.byte	0x77
 13577 14ba 01       		.sleb128 1
 13578 14bb 9F       		.byte	0x9f
 13579 14bc C6040000 		.4byte	.LVL141
 13580 14c0 DE040000 		.4byte	.LVL145
 13581 14c4 0100     		.2byte	0x1
 13582 14c6 57       		.byte	0x57
 13583 14c7 DE040000 		.4byte	.LVL145
 13584 14cb E6050000 		.4byte	.LVL173
 13585 14cf 2200     		.2byte	0x22
 13586 14d1 39       		.byte	0x39
 13587 14d2 F3       		.byte	0xf3
 13588 14d3 01       		.uleb128 0x1
 13589 14d4 51       		.byte	0x51
 13590 14d5 F3       		.byte	0xf3
 13591 14d6 01       		.uleb128 0x1
 13592 14d7 51       		.byte	0x51
 13593 14d8 31       		.byte	0x31
 13594 14d9 1C       		.byte	0x1c
 13595 14da 40       		.byte	0x40
 13596 14db 4B       		.byte	0x4b
 13597 14dc 24       		.byte	0x24
 13598 14dd 22       		.byte	0x22
 13599 14de 0C       		.byte	0xc
 13600 14df 09000080 		.4byte	0x80000009
 13601 14e3 2A       		.byte	0x2a
 13602 14e4 28       		.byte	0x28
 13603 14e5 0100     		.2byte	0x1
 13604 14e7 16       		.byte	0x16
 13605 14e8 13       		.byte	0x13
 13606 14e9 32       		.byte	0x32
 13607 14ea 1C       		.byte	0x1c
 13608 14eb 32       		.byte	0x32
 13609 14ec 24       		.byte	0x24
 13610 14ed 03       		.byte	0x3
 13611 14ee 00000000 		.4byte	.LANCHOR0
 13612 14f2 22       		.byte	0x22
 13613 14f3 F4050000 		.4byte	.LVL176
 13614 14f7 16060000 		.4byte	.LVL181
 13615 14fb 0400     		.2byte	0x4
 13616 14fd F3       		.byte	0xf3
 13617 14fe 01       		.uleb128 0x1
 13618 14ff 51       		.byte	0x51
 13619 1500 9F       		.byte	0x9f
 13620 1501 16060000 		.4byte	.LVL181
 13621 1505 1A060000 		.4byte	.LVL182
ARM GAS  /tmp/ccQCTkSU.s 			page 240


 13622 1509 0100     		.2byte	0x1
 13623 150b 5B       		.byte	0x5b
 13624 150c 1A060000 		.4byte	.LVL182
 13625 1510 36060000 		.4byte	.LVL188
 13626 1514 2200     		.2byte	0x22
 13627 1516 39       		.byte	0x39
 13628 1517 F3       		.byte	0xf3
 13629 1518 01       		.uleb128 0x1
 13630 1519 51       		.byte	0x51
 13631 151a F3       		.byte	0xf3
 13632 151b 01       		.uleb128 0x1
 13633 151c 51       		.byte	0x51
 13634 151d 31       		.byte	0x31
 13635 151e 1C       		.byte	0x1c
 13636 151f 40       		.byte	0x40
 13637 1520 4B       		.byte	0x4b
 13638 1521 24       		.byte	0x24
 13639 1522 22       		.byte	0x22
 13640 1523 0C       		.byte	0xc
 13641 1524 09000080 		.4byte	0x80000009
 13642 1528 2A       		.byte	0x2a
 13643 1529 28       		.byte	0x28
 13644 152a 0100     		.2byte	0x1
 13645 152c 16       		.byte	0x16
 13646 152d 13       		.byte	0x13
 13647 152e 32       		.byte	0x32
 13648 152f 1C       		.byte	0x1c
 13649 1530 32       		.byte	0x32
 13650 1531 24       		.byte	0x24
 13651 1532 03       		.byte	0x3
 13652 1533 00000000 		.4byte	.LANCHOR0
 13653 1537 22       		.byte	0x22
 13654 1538 36060000 		.4byte	.LVL188
 13655 153c 3C060000 		.4byte	.LVL189
 13656 1540 0400     		.2byte	0x4
 13657 1542 F3       		.byte	0xf3
 13658 1543 01       		.uleb128 0x1
 13659 1544 51       		.byte	0x51
 13660 1545 9F       		.byte	0x9f
 13661 1546 3C060000 		.4byte	.LVL189
 13662 154a 88060000 		.4byte	.LFE329
 13663 154e 2200     		.2byte	0x22
 13664 1550 39       		.byte	0x39
 13665 1551 F3       		.byte	0xf3
 13666 1552 01       		.uleb128 0x1
 13667 1553 51       		.byte	0x51
 13668 1554 F3       		.byte	0xf3
 13669 1555 01       		.uleb128 0x1
 13670 1556 51       		.byte	0x51
 13671 1557 31       		.byte	0x31
 13672 1558 1C       		.byte	0x1c
 13673 1559 40       		.byte	0x40
 13674 155a 4B       		.byte	0x4b
 13675 155b 24       		.byte	0x24
 13676 155c 22       		.byte	0x22
 13677 155d 0C       		.byte	0xc
 13678 155e 09000080 		.4byte	0x80000009
ARM GAS  /tmp/ccQCTkSU.s 			page 241


 13679 1562 2A       		.byte	0x2a
 13680 1563 28       		.byte	0x28
 13681 1564 0100     		.2byte	0x1
 13682 1566 16       		.byte	0x16
 13683 1567 13       		.byte	0x13
 13684 1568 32       		.byte	0x32
 13685 1569 1C       		.byte	0x1c
 13686 156a 32       		.byte	0x32
 13687 156b 24       		.byte	0x24
 13688 156c 03       		.byte	0x3
 13689 156d 00000000 		.4byte	.LANCHOR0
 13690 1571 22       		.byte	0x22
 13691 1572 00000000 		.4byte	0
 13692 1576 00000000 		.4byte	0
 13693              	.LLST4:
 13694 157a 72000000 		.4byte	.LVL11
 13695 157e B2000000 		.4byte	.LVL16
 13696 1582 0600     		.2byte	0x6
 13697 1584 58       		.byte	0x58
 13698 1585 93       		.byte	0x93
 13699 1586 04       		.uleb128 0x4
 13700 1587 59       		.byte	0x59
 13701 1588 93       		.byte	0x93
 13702 1589 04       		.uleb128 0x4
 13703 158a B4000000 		.4byte	.LVL17
 13704 158e E2000000 		.4byte	.LVL23
 13705 1592 0600     		.2byte	0x6
 13706 1594 58       		.byte	0x58
 13707 1595 93       		.byte	0x93
 13708 1596 04       		.uleb128 0x4
 13709 1597 59       		.byte	0x59
 13710 1598 93       		.byte	0x93
 13711 1599 04       		.uleb128 0x4
 13712 159a E4000000 		.4byte	.LVL24
 13713 159e 20020000 		.4byte	.LVL66
 13714 15a2 0600     		.2byte	0x6
 13715 15a4 58       		.byte	0x58
 13716 15a5 93       		.byte	0x93
 13717 15a6 04       		.uleb128 0x4
 13718 15a7 59       		.byte	0x59
 13719 15a8 93       		.byte	0x93
 13720 15a9 04       		.uleb128 0x4
 13721 15aa 7A040000 		.4byte	.LVL130
 13722 15ae B2040000 		.4byte	.LVL137
 13723 15b2 0600     		.2byte	0x6
 13724 15b4 58       		.byte	0x58
 13725 15b5 93       		.byte	0x93
 13726 15b6 04       		.uleb128 0x4
 13727 15b7 59       		.byte	0x59
 13728 15b8 93       		.byte	0x93
 13729 15b9 04       		.uleb128 0x4
 13730 15ba B2040000 		.4byte	.LVL137
 13731 15be B9040000 		.4byte	.LVL138-1
 13732 15c2 0600     		.2byte	0x6
 13733 15c4 50       		.byte	0x50
 13734 15c5 93       		.byte	0x93
 13735 15c6 04       		.uleb128 0x4
ARM GAS  /tmp/ccQCTkSU.s 			page 242


 13736 15c7 51       		.byte	0x51
 13737 15c8 93       		.byte	0x93
 13738 15c9 04       		.uleb128 0x4
 13739 15ca C0040000 		.4byte	.LVL140
 13740 15ce DE040000 		.4byte	.LVL145
 13741 15d2 0600     		.2byte	0x6
 13742 15d4 58       		.byte	0x58
 13743 15d5 93       		.byte	0x93
 13744 15d6 04       		.uleb128 0x4
 13745 15d7 59       		.byte	0x59
 13746 15d8 93       		.byte	0x93
 13747 15d9 04       		.uleb128 0x4
 13748 15da F4050000 		.4byte	.LVL176
 13749 15de 1A060000 		.4byte	.LVL182
 13750 15e2 0600     		.2byte	0x6
 13751 15e4 58       		.byte	0x58
 13752 15e5 93       		.byte	0x93
 13753 15e6 04       		.uleb128 0x4
 13754 15e7 59       		.byte	0x59
 13755 15e8 93       		.byte	0x93
 13756 15e9 04       		.uleb128 0x4
 13757 15ea 36060000 		.4byte	.LVL188
 13758 15ee 3C060000 		.4byte	.LVL189
 13759 15f2 0600     		.2byte	0x6
 13760 15f4 58       		.byte	0x58
 13761 15f5 93       		.byte	0x93
 13762 15f6 04       		.uleb128 0x4
 13763 15f7 59       		.byte	0x59
 13764 15f8 93       		.byte	0x93
 13765 15f9 04       		.uleb128 0x4
 13766 15fa 00000000 		.4byte	0
 13767 15fe 00000000 		.4byte	0
 13768              	.LLST5:
 13769 1602 72000000 		.4byte	.LVL11
 13770 1606 3C020000 		.4byte	.LVL70
 13771 160a 0100     		.2byte	0x1
 13772 160c 55       		.byte	0x55
 13773 160d 3C020000 		.4byte	.LVL70
 13774 1611 72030000 		.4byte	.LVL102
 13775 1615 0300     		.2byte	0x3
 13776 1617 7B       		.byte	0x7b
 13777 1618 02       		.sleb128 2
 13778 1619 9F       		.byte	0x9f
 13779 161a 72030000 		.4byte	.LVL102
 13780 161e 7A030000 		.4byte	.LVL103
 13781 1622 0100     		.2byte	0x1
 13782 1624 50       		.byte	0x50
 13783 1625 7A030000 		.4byte	.LVL103
 13784 1629 8A030000 		.4byte	.LVL104
 13785 162d 0300     		.2byte	0x3
 13786 162f 70       		.byte	0x70
 13787 1630 01       		.sleb128 1
 13788 1631 9F       		.byte	0x9f
 13789 1632 8A030000 		.4byte	.LVL104
 13790 1636 72040000 		.4byte	.LVL129
 13791 163a 0100     		.2byte	0x1
 13792 163c 56       		.byte	0x56
ARM GAS  /tmp/ccQCTkSU.s 			page 243


 13793 163d 7A040000 		.4byte	.LVL130
 13794 1641 94040000 		.4byte	.LVL134
 13795 1645 0100     		.2byte	0x1
 13796 1647 55       		.byte	0x55
 13797 1648 94040000 		.4byte	.LVL134
 13798 164c A2040000 		.4byte	.LVL135
 13799 1650 0300     		.2byte	0x3
 13800 1652 75       		.byte	0x75
 13801 1653 02       		.sleb128 2
 13802 1654 9F       		.byte	0x9f
 13803 1655 A2040000 		.4byte	.LVL135
 13804 1659 C6040000 		.4byte	.LVL141
 13805 165d 0100     		.2byte	0x1
 13806 165f 56       		.byte	0x56
 13807 1660 C6040000 		.4byte	.LVL141
 13808 1664 CE040000 		.4byte	.LVL142
 13809 1668 0100     		.2byte	0x1
 13810 166a 55       		.byte	0x55
 13811 166b D0040000 		.4byte	.LVL143
 13812 166f DA040000 		.4byte	.LVL144
 13813 1673 0300     		.2byte	0x3
 13814 1675 75       		.byte	0x75
 13815 1676 01       		.sleb128 1
 13816 1677 9F       		.byte	0x9f
 13817 1678 DA040000 		.4byte	.LVL144
 13818 167c DE040000 		.4byte	.LVL145
 13819 1680 0100     		.2byte	0x1
 13820 1682 56       		.byte	0x56
 13821 1683 DE040000 		.4byte	.LVL145
 13822 1687 EC040000 		.4byte	.LVL146
 13823 168b 0300     		.2byte	0x3
 13824 168d 70       		.byte	0x70
 13825 168e 01       		.sleb128 1
 13826 168f 9F       		.byte	0x9f
 13827 1690 EC040000 		.4byte	.LVL146
 13828 1694 E4050000 		.4byte	.LVL172
 13829 1698 0100     		.2byte	0x1
 13830 169a 56       		.byte	0x56
 13831 169b F4050000 		.4byte	.LVL176
 13832 169f 1A060000 		.4byte	.LVL182
 13833 16a3 0100     		.2byte	0x1
 13834 16a5 55       		.byte	0x55
 13835 16a6 1A060000 		.4byte	.LVL182
 13836 16aa 2C060000 		.4byte	.LVL185
 13837 16ae 0100     		.2byte	0x1
 13838 16b0 56       		.byte	0x56
 13839 16b1 2E060000 		.4byte	.LVL186
 13840 16b5 36060000 		.4byte	.LVL188
 13841 16b9 0100     		.2byte	0x1
 13842 16bb 56       		.byte	0x56
 13843 16bc 36060000 		.4byte	.LVL188
 13844 16c0 3C060000 		.4byte	.LVL189
 13845 16c4 0100     		.2byte	0x1
 13846 16c6 55       		.byte	0x55
 13847 16c7 3C060000 		.4byte	.LVL189
 13848 16cb 4E060000 		.4byte	.LVL192
 13849 16cf 0100     		.2byte	0x1
ARM GAS  /tmp/ccQCTkSU.s 			page 244


 13850 16d1 56       		.byte	0x56
 13851 16d2 4E060000 		.4byte	.LVL192
 13852 16d6 50060000 		.4byte	.LVL193
 13853 16da 0300     		.2byte	0x3
 13854 16dc 7C       		.byte	0x7c
 13855 16dd 75       		.sleb128 -11
 13856 16de 9F       		.byte	0x9f
 13857 16df 50060000 		.4byte	.LVL193
 13858 16e3 54060000 		.4byte	.LVL194
 13859 16e7 0300     		.2byte	0x3
 13860 16e9 7B       		.byte	0x7b
 13861 16ea 02       		.sleb128 2
 13862 16eb 9F       		.byte	0x9f
 13863 16ec 54060000 		.4byte	.LVL194
 13864 16f0 64060000 		.4byte	.LVL197
 13865 16f4 0100     		.2byte	0x1
 13866 16f6 50       		.byte	0x50
 13867 16f7 64060000 		.4byte	.LVL197
 13868 16fb 6C060000 		.4byte	.LVL198
 13869 16ff 0100     		.2byte	0x1
 13870 1701 56       		.byte	0x56
 13871 1702 6C060000 		.4byte	.LVL198
 13872 1706 74060000 		.4byte	.LVL199
 13873 170a 0300     		.2byte	0x3
 13874 170c 7B       		.byte	0x7b
 13875 170d 02       		.sleb128 2
 13876 170e 9F       		.byte	0x9f
 13877 170f 74060000 		.4byte	.LVL199
 13878 1713 7C060000 		.4byte	.LVL202
 13879 1717 0100     		.2byte	0x1
 13880 1719 56       		.byte	0x56
 13881 171a 7C060000 		.4byte	.LVL202
 13882 171e 88060000 		.4byte	.LFE329
 13883 1722 0300     		.2byte	0x3
 13884 1724 7B       		.byte	0x7b
 13885 1725 02       		.sleb128 2
 13886 1726 9F       		.byte	0x9f
 13887 1727 00000000 		.4byte	0
 13888 172b 00000000 		.4byte	0
 13889              	.LLST6:
 13890 172f 72000000 		.4byte	.LVL11
 13891 1733 A0000000 		.4byte	.LVL14
 13892 1737 0200     		.2byte	0x2
 13893 1739 30       		.byte	0x30
 13894 173a 9F       		.byte	0x9f
 13895 173b B4000000 		.4byte	.LVL17
 13896 173f B6000000 		.4byte	.LVL18
 13897 1743 0300     		.2byte	0x3
 13898 1745 74       		.byte	0x74
 13899 1746 01       		.sleb128 1
 13900 1747 9F       		.byte	0x9f
 13901 1748 B6000000 		.4byte	.LVL18
 13902 174c BE000000 		.4byte	.LVL20
 13903 1750 0100     		.2byte	0x1
 13904 1752 54       		.byte	0x54
 13905 1753 E4000000 		.4byte	.LVL24
 13906 1757 E6000000 		.4byte	.LVL25
ARM GAS  /tmp/ccQCTkSU.s 			page 245


 13907 175b 0300     		.2byte	0x3
 13908 175d 74       		.byte	0x74
 13909 175e 7F       		.sleb128 -1
 13910 175f 9F       		.byte	0x9f
 13911 1760 E6000000 		.4byte	.LVL25
 13912 1764 EE000000 		.4byte	.LVL27
 13913 1768 0100     		.2byte	0x1
 13914 176a 54       		.byte	0x54
 13915 176b 8E030000 		.4byte	.LVL105
 13916 176f 90030000 		.4byte	.LVL106
 13917 1773 0100     		.2byte	0x1
 13918 1775 52       		.byte	0x52
 13919 1776 AA030000 		.4byte	.LVL109
 13920 177a B2030000 		.4byte	.LVL110
 13921 177e 0100     		.2byte	0x1
 13922 1780 52       		.byte	0x52
 13923 1781 B2030000 		.4byte	.LVL110
 13924 1785 B6030000 		.4byte	.LVL111
 13925 1789 0100     		.2byte	0x1
 13926 178b 54       		.byte	0x54
 13927 178c 7A040000 		.4byte	.LVL130
 13928 1790 86040000 		.4byte	.LVL132
 13929 1794 0200     		.2byte	0x2
 13930 1796 30       		.byte	0x30
 13931 1797 9F       		.byte	0x9f
 13932 1798 94040000 		.4byte	.LVL134
 13933 179c A2040000 		.4byte	.LVL135
 13934 17a0 0200     		.2byte	0x2
 13935 17a2 30       		.byte	0x30
 13936 17a3 9F       		.byte	0x9f
 13937 17a4 EC040000 		.4byte	.LVL146
 13938 17a8 F0040000 		.4byte	.LVL147
 13939 17ac 0100     		.2byte	0x1
 13940 17ae 54       		.byte	0x54
 13941 17af 16060000 		.4byte	.LVL181
 13942 17b3 1A060000 		.4byte	.LVL182
 13943 17b7 0200     		.2byte	0x2
 13944 17b9 30       		.byte	0x30
 13945 17ba 9F       		.byte	0x9f
 13946 17bb 00000000 		.4byte	0
 13947 17bf 00000000 		.4byte	0
 13948              	.LLST7:
 13949 17c3 06010000 		.4byte	.LVL30
 13950 17c7 20020000 		.4byte	.LVL66
 13951 17cb 0800     		.2byte	0x8
 13952 17cd F5       		.byte	0xf5
 13953 17ce 08       		.uleb128 0x8
 13954 17cf 33       		.uleb128 0x33
 13955 17d0 F7       		.byte	0xf7
 13956 17d1 3A       		.uleb128 0x3a
 13957 17d2 F7       		.byte	0xf7
 13958 17d3 00       		.uleb128 0
 13959 17d4 9F       		.byte	0x9f
 13960 17d5 F4050000 		.4byte	.LVL176
 13961 17d9 16060000 		.4byte	.LVL181
 13962 17dd 0800     		.2byte	0x8
 13963 17df F5       		.byte	0xf5
ARM GAS  /tmp/ccQCTkSU.s 			page 246


 13964 17e0 08       		.uleb128 0x8
 13965 17e1 33       		.uleb128 0x33
 13966 17e2 F7       		.byte	0xf7
 13967 17e3 3A       		.uleb128 0x3a
 13968 17e4 F7       		.byte	0xf7
 13969 17e5 00       		.uleb128 0
 13970 17e6 9F       		.byte	0x9f
 13971 17e7 36060000 		.4byte	.LVL188
 13972 17eb 3C060000 		.4byte	.LVL189
 13973 17ef 0800     		.2byte	0x8
 13974 17f1 F5       		.byte	0xf5
 13975 17f2 08       		.uleb128 0x8
 13976 17f3 33       		.uleb128 0x33
 13977 17f4 F7       		.byte	0xf7
 13978 17f5 3A       		.uleb128 0x3a
 13979 17f6 F7       		.byte	0xf7
 13980 17f7 00       		.uleb128 0
 13981 17f8 9F       		.byte	0x9f
 13982 17f9 00000000 		.4byte	0
 13983 17fd 00000000 		.4byte	0
 13984              	.LLST8:
 13985 1801 06010000 		.4byte	.LVL30
 13986 1805 3C020000 		.4byte	.LVL70
 13987 1809 0200     		.2byte	0x2
 13988 180b 30       		.byte	0x30
 13989 180c 9F       		.byte	0x9f
 13990 180d F4050000 		.4byte	.LVL176
 13991 1811 16060000 		.4byte	.LVL181
 13992 1815 0200     		.2byte	0x2
 13993 1817 30       		.byte	0x30
 13994 1818 9F       		.byte	0x9f
 13995 1819 36060000 		.4byte	.LVL188
 13996 181d 3C060000 		.4byte	.LVL189
 13997 1821 0200     		.2byte	0x2
 13998 1823 30       		.byte	0x30
 13999 1824 9F       		.byte	0x9f
 14000 1825 00000000 		.4byte	0
 14001 1829 00000000 		.4byte	0
 14002              	.LLST9:
 14003 182d 06010000 		.4byte	.LVL30
 14004 1831 3C020000 		.4byte	.LVL70
 14005 1835 0200     		.2byte	0x2
 14006 1837 3A       		.byte	0x3a
 14007 1838 9F       		.byte	0x9f
 14008 1839 F4050000 		.4byte	.LVL176
 14009 183d 16060000 		.4byte	.LVL181
 14010 1841 0200     		.2byte	0x2
 14011 1843 3A       		.byte	0x3a
 14012 1844 9F       		.byte	0x9f
 14013 1845 36060000 		.4byte	.LVL188
 14014 1849 3C060000 		.4byte	.LVL189
 14015 184d 0200     		.2byte	0x2
 14016 184f 3A       		.byte	0x3a
 14017 1850 9F       		.byte	0x9f
 14018 1851 00000000 		.4byte	0
 14019 1855 00000000 		.4byte	0
 14020              	.LLST11:
ARM GAS  /tmp/ccQCTkSU.s 			page 247


 14021 1859 06010000 		.4byte	.LVL30
 14022 185d 76010000 		.4byte	.LVL41
 14023 1861 0100     		.2byte	0x1
 14024 1863 55       		.byte	0x55
 14025 1864 76010000 		.4byte	.LVL41
 14026 1868 7A010000 		.4byte	.LVL43
 14027 186c 0100     		.2byte	0x1
 14028 186e 56       		.byte	0x56
 14029 186f 7A010000 		.4byte	.LVL43
 14030 1873 80010000 		.4byte	.LVL44
 14031 1877 0200     		.2byte	0x2
 14032 1879 91       		.byte	0x91
 14033 187a 4C       		.sleb128 -52
 14034 187b 80010000 		.4byte	.LVL44
 14035 187f 8A010000 		.4byte	.LVL45
 14036 1883 0300     		.2byte	0x3
 14037 1885 75       		.byte	0x75
 14038 1886 01       		.sleb128 1
 14039 1887 9F       		.byte	0x9f
 14040 1888 8A010000 		.4byte	.LVL45
 14041 188c 94010000 		.4byte	.LVL48
 14042 1890 0200     		.2byte	0x2
 14043 1892 91       		.byte	0x91
 14044 1893 4C       		.sleb128 -52
 14045 1894 94010000 		.4byte	.LVL48
 14046 1898 9E010000 		.4byte	.LVL50
 14047 189c 0300     		.2byte	0x3
 14048 189e 75       		.byte	0x75
 14049 189f 02       		.sleb128 2
 14050 18a0 9F       		.byte	0x9f
 14051 18a1 D2010000 		.4byte	.LVL51
 14052 18a5 DA010000 		.4byte	.LVL53
 14053 18a9 0300     		.2byte	0x3
 14054 18ab 76       		.byte	0x76
 14055 18ac 01       		.sleb128 1
 14056 18ad 9F       		.byte	0x9f
 14057 18ae DA010000 		.4byte	.LVL53
 14058 18b2 E2010000 		.4byte	.LVL55
 14059 18b6 0300     		.2byte	0x3
 14060 18b8 76       		.byte	0x76
 14061 18b9 02       		.sleb128 2
 14062 18ba 9F       		.byte	0x9f
 14063 18bb E2010000 		.4byte	.LVL55
 14064 18bf EA010000 		.4byte	.LVL57
 14065 18c3 0300     		.2byte	0x3
 14066 18c5 76       		.byte	0x76
 14067 18c6 03       		.sleb128 3
 14068 18c7 9F       		.byte	0x9f
 14069 18c8 EA010000 		.4byte	.LVL57
 14070 18cc F2010000 		.4byte	.LVL59
 14071 18d0 0300     		.2byte	0x3
 14072 18d2 76       		.byte	0x76
 14073 18d3 04       		.sleb128 4
 14074 18d4 9F       		.byte	0x9f
 14075 18d5 F2010000 		.4byte	.LVL59
 14076 18d9 FA010000 		.4byte	.LVL61
 14077 18dd 0300     		.2byte	0x3
ARM GAS  /tmp/ccQCTkSU.s 			page 248


 14078 18df 76       		.byte	0x76
 14079 18e0 05       		.sleb128 5
 14080 18e1 9F       		.byte	0x9f
 14081 18e2 FA010000 		.4byte	.LVL61
 14082 18e6 FE010000 		.4byte	.LVL63
 14083 18ea 0300     		.2byte	0x3
 14084 18ec 76       		.byte	0x76
 14085 18ed 06       		.sleb128 6
 14086 18ee 9F       		.byte	0x9f
 14087 18ef F4050000 		.4byte	.LVL176
 14088 18f3 FA050000 		.4byte	.LVL177
 14089 18f7 0100     		.2byte	0x1
 14090 18f9 55       		.byte	0x55
 14091 18fa 0E060000 		.4byte	.LVL180
 14092 18fe 16060000 		.4byte	.LVL181
 14093 1902 0100     		.2byte	0x1
 14094 1904 55       		.byte	0x55
 14095 1905 36060000 		.4byte	.LVL188
 14096 1909 3C060000 		.4byte	.LVL189
 14097 190d 0100     		.2byte	0x1
 14098 190f 55       		.byte	0x55
 14099 1910 00000000 		.4byte	0
 14100 1914 00000000 		.4byte	0
 14101              	.LLST12:
 14102 1918 24010000 		.4byte	.LVL34
 14103 191c 26010000 		.4byte	.LVL35
 14104 1920 0300     		.2byte	0x3
 14105 1922 73       		.byte	0x73
 14106 1923 30       		.sleb128 48
 14107 1924 9F       		.byte	0x9f
 14108 1925 26010000 		.4byte	.LVL35
 14109 1929 2E010000 		.4byte	.LVL37
 14110 192d 0100     		.2byte	0x1
 14111 192f 53       		.byte	0x53
 14112 1930 40010000 		.4byte	.LVL39
 14113 1934 76010000 		.4byte	.LVL41
 14114 1938 0100     		.2byte	0x1
 14115 193a 5A       		.byte	0x5a
 14116 193b 76010000 		.4byte	.LVL41
 14117 193f 8A010000 		.4byte	.LVL45
 14118 1943 0100     		.2byte	0x1
 14119 1945 57       		.byte	0x57
 14120 1946 8A010000 		.4byte	.LVL45
 14121 194a 90010000 		.4byte	.LVL47
 14122 194e 0100     		.2byte	0x1
 14123 1950 56       		.byte	0x56
 14124 1951 90010000 		.4byte	.LVL47
 14125 1955 9C010000 		.4byte	.LVL49
 14126 1959 0200     		.2byte	0x2
 14127 195b 7D       		.byte	0x7d
 14128 195c 00       		.sleb128 0
 14129 195d 9C010000 		.4byte	.LVL49
 14130 1961 9E010000 		.4byte	.LVL50
 14131 1965 0300     		.2byte	0x3
 14132 1967 7A       		.byte	0x7a
 14133 1968 7E       		.sleb128 -2
 14134 1969 9F       		.byte	0x9f
ARM GAS  /tmp/ccQCTkSU.s 			page 249


 14135 196a D2010000 		.4byte	.LVL51
 14136 196e D6010000 		.4byte	.LVL52
 14137 1972 0100     		.2byte	0x1
 14138 1974 57       		.byte	0x57
 14139 1975 D6010000 		.4byte	.LVL52
 14140 1979 DE010000 		.4byte	.LVL54
 14141 197d 0300     		.2byte	0x3
 14142 197f 77       		.byte	0x77
 14143 1980 7F       		.sleb128 -1
 14144 1981 9F       		.byte	0x9f
 14145 1982 DE010000 		.4byte	.LVL54
 14146 1986 E6010000 		.4byte	.LVL56
 14147 198a 0300     		.2byte	0x3
 14148 198c 77       		.byte	0x77
 14149 198d 7E       		.sleb128 -2
 14150 198e 9F       		.byte	0x9f
 14151 198f E6010000 		.4byte	.LVL56
 14152 1993 EE010000 		.4byte	.LVL58
 14153 1997 0300     		.2byte	0x3
 14154 1999 77       		.byte	0x77
 14155 199a 7D       		.sleb128 -3
 14156 199b 9F       		.byte	0x9f
 14157 199c EE010000 		.4byte	.LVL58
 14158 19a0 F6010000 		.4byte	.LVL60
 14159 19a4 0300     		.2byte	0x3
 14160 19a6 77       		.byte	0x77
 14161 19a7 7C       		.sleb128 -4
 14162 19a8 9F       		.byte	0x9f
 14163 19a9 F6010000 		.4byte	.LVL60
 14164 19ad FE010000 		.4byte	.LVL63
 14165 19b1 0300     		.2byte	0x3
 14166 19b3 77       		.byte	0x77
 14167 19b4 7B       		.sleb128 -5
 14168 19b5 9F       		.byte	0x9f
 14169 19b6 F4050000 		.4byte	.LVL176
 14170 19ba FA050000 		.4byte	.LVL177
 14171 19be 0100     		.2byte	0x1
 14172 19c0 5A       		.byte	0x5a
 14173 19c1 0E060000 		.4byte	.LVL180
 14174 19c5 16060000 		.4byte	.LVL181
 14175 19c9 0100     		.2byte	0x1
 14176 19cb 5A       		.byte	0x5a
 14177 19cc 36060000 		.4byte	.LVL188
 14178 19d0 3C060000 		.4byte	.LVL189
 14179 19d4 0100     		.2byte	0x1
 14180 19d6 5A       		.byte	0x5a
 14181 19d7 00000000 		.4byte	0
 14182 19db 00000000 		.4byte	0
 14183              	.LLST13:
 14184 19df 0A010000 		.4byte	.LVL31
 14185 19e3 12010000 		.4byte	.LVL32
 14186 19e7 0100     		.2byte	0x1
 14187 19e9 5A       		.byte	0x5a
 14188 19ea 12010000 		.4byte	.LVL32
 14189 19ee 14010000 		.4byte	.LVL33
 14190 19f2 0100     		.2byte	0x1
 14191 19f4 53       		.byte	0x53
ARM GAS  /tmp/ccQCTkSU.s 			page 250


 14192 19f5 14010000 		.4byte	.LVL33
 14193 19f9 2E010000 		.4byte	.LVL37
 14194 19fd 0100     		.2byte	0x1
 14195 19ff 52       		.byte	0x52
 14196 1a00 2E010000 		.4byte	.LVL37
 14197 1a04 78010000 		.4byte	.LVL42
 14198 1a08 0100     		.2byte	0x1
 14199 1a0a 53       		.byte	0x53
 14200 1a0b 78010000 		.4byte	.LVL42
 14201 1a0f 8E010000 		.4byte	.LVL46
 14202 1a13 0300     		.2byte	0x3
 14203 1a15 73       		.byte	0x73
 14204 1a16 02       		.sleb128 2
 14205 1a17 9F       		.byte	0x9f
 14206 1a18 8E010000 		.4byte	.LVL46
 14207 1a1c 9E010000 		.4byte	.LVL50
 14208 1a20 0300     		.2byte	0x3
 14209 1a22 73       		.byte	0x73
 14210 1a23 03       		.sleb128 3
 14211 1a24 9F       		.byte	0x9f
 14212 1a25 D2010000 		.4byte	.LVL51
 14213 1a29 DA010000 		.4byte	.LVL53
 14214 1a2d 0300     		.2byte	0x3
 14215 1a2f 73       		.byte	0x73
 14216 1a30 01       		.sleb128 1
 14217 1a31 9F       		.byte	0x9f
 14218 1a32 DA010000 		.4byte	.LVL53
 14219 1a36 E2010000 		.4byte	.LVL55
 14220 1a3a 0300     		.2byte	0x3
 14221 1a3c 73       		.byte	0x73
 14222 1a3d 02       		.sleb128 2
 14223 1a3e 9F       		.byte	0x9f
 14224 1a3f E2010000 		.4byte	.LVL55
 14225 1a43 EA010000 		.4byte	.LVL57
 14226 1a47 0300     		.2byte	0x3
 14227 1a49 73       		.byte	0x73
 14228 1a4a 03       		.sleb128 3
 14229 1a4b 9F       		.byte	0x9f
 14230 1a4c EA010000 		.4byte	.LVL57
 14231 1a50 F2010000 		.4byte	.LVL59
 14232 1a54 0300     		.2byte	0x3
 14233 1a56 73       		.byte	0x73
 14234 1a57 04       		.sleb128 4
 14235 1a58 9F       		.byte	0x9f
 14236 1a59 F2010000 		.4byte	.LVL59
 14237 1a5d FA010000 		.4byte	.LVL61
 14238 1a61 0300     		.2byte	0x3
 14239 1a63 73       		.byte	0x73
 14240 1a64 05       		.sleb128 5
 14241 1a65 9F       		.byte	0x9f
 14242 1a66 FA010000 		.4byte	.LVL61
 14243 1a6a FC010000 		.4byte	.LVL62
 14244 1a6e 0300     		.2byte	0x3
 14245 1a70 73       		.byte	0x73
 14246 1a71 06       		.sleb128 6
 14247 1a72 9F       		.byte	0x9f
 14248 1a73 F4050000 		.4byte	.LVL176
ARM GAS  /tmp/ccQCTkSU.s 			page 251


 14249 1a77 FE050000 		.4byte	.LVL178
 14250 1a7b 0100     		.2byte	0x1
 14251 1a7d 53       		.byte	0x53
 14252 1a7e FE050000 		.4byte	.LVL178
 14253 1a82 0A060000 		.4byte	.LVL179
 14254 1a86 0300     		.2byte	0x3
 14255 1a88 73       		.byte	0x73
 14256 1a89 7F       		.sleb128 -1
 14257 1a8a 9F       		.byte	0x9f
 14258 1a8b 0E060000 		.4byte	.LVL180
 14259 1a8f 16060000 		.4byte	.LVL181
 14260 1a93 0100     		.2byte	0x1
 14261 1a95 53       		.byte	0x53
 14262 1a96 36060000 		.4byte	.LVL188
 14263 1a9a 3C060000 		.4byte	.LVL189
 14264 1a9e 0100     		.2byte	0x1
 14265 1aa0 53       		.byte	0x53
 14266 1aa1 00000000 		.4byte	0
 14267 1aa5 00000000 		.4byte	0
 14268              	.LLST14:
 14269 1aa9 06010000 		.4byte	.LVL30
 14270 1aad 12010000 		.4byte	.LVL32
 14271 1ab1 0800     		.2byte	0x8
 14272 1ab3 F5       		.byte	0xf5
 14273 1ab4 08       		.uleb128 0x8
 14274 1ab5 33       		.uleb128 0x33
 14275 1ab6 F7       		.byte	0xf7
 14276 1ab7 3A       		.uleb128 0x3a
 14277 1ab8 F7       		.byte	0xf7
 14278 1ab9 00       		.uleb128 0
 14279 1aba 9F       		.byte	0x9f
 14280 1abb 12010000 		.4byte	.LVL32
 14281 1abf 2C010000 		.4byte	.LVL36
 14282 1ac3 0100     		.2byte	0x1
 14283 1ac5 51       		.byte	0x51
 14284 1ac6 2E010000 		.4byte	.LVL37
 14285 1aca 36010000 		.4byte	.LVL38
 14286 1ace 0100     		.2byte	0x1
 14287 1ad0 51       		.byte	0x51
 14288 1ad1 36010000 		.4byte	.LVL38
 14289 1ad5 58010000 		.4byte	.LVL40
 14290 1ad9 0100     		.2byte	0x1
 14291 1adb 57       		.byte	0x57
 14292 1adc F4050000 		.4byte	.LVL176
 14293 1ae0 0E060000 		.4byte	.LVL180
 14294 1ae4 0100     		.2byte	0x1
 14295 1ae6 57       		.byte	0x57
 14296 1ae7 00000000 		.4byte	0
 14297 1aeb 00000000 		.4byte	0
 14298              	.LLST16:
 14299 1aef 40020000 		.4byte	.LVL71
 14300 1af3 7A040000 		.4byte	.LVL130
 14301 1af7 0200     		.2byte	0x2
 14302 1af9 3A       		.byte	0x3a
 14303 1afa 9F       		.byte	0x9f
 14304 1afb DE040000 		.4byte	.LVL145
 14305 1aff E6050000 		.4byte	.LVL173
ARM GAS  /tmp/ccQCTkSU.s 			page 252


 14306 1b03 0200     		.2byte	0x2
 14307 1b05 3A       		.byte	0x3a
 14308 1b06 9F       		.byte	0x9f
 14309 1b07 1A060000 		.4byte	.LVL182
 14310 1b0b 36060000 		.4byte	.LVL188
 14311 1b0f 0200     		.2byte	0x2
 14312 1b11 3A       		.byte	0x3a
 14313 1b12 9F       		.byte	0x9f
 14314 1b13 3C060000 		.4byte	.LVL189
 14315 1b17 88060000 		.4byte	.LFE329
 14316 1b1b 0200     		.2byte	0x2
 14317 1b1d 3A       		.byte	0x3a
 14318 1b1e 9F       		.byte	0x9f
 14319 1b1f 00000000 		.4byte	0
 14320 1b23 00000000 		.4byte	0
 14321              	.LLST17:
 14322 1b27 40020000 		.4byte	.LVL71
 14323 1b2b 42020000 		.4byte	.LVL72
 14324 1b2f 0500     		.2byte	0x5
 14325 1b31 76       		.byte	0x76
 14326 1b32 00       		.sleb128 0
 14327 1b33 33       		.byte	0x33
 14328 1b34 25       		.byte	0x25
 14329 1b35 9F       		.byte	0x9f
 14330 1b36 42020000 		.4byte	.LVL72
 14331 1b3a 52020000 		.4byte	.LVL73
 14332 1b3e 0100     		.2byte	0x1
 14333 1b40 56       		.byte	0x56
 14334 1b41 52020000 		.4byte	.LVL73
 14335 1b45 54020000 		.4byte	.LVL74
 14336 1b49 2200     		.2byte	0x22
 14337 1b4b 77       		.byte	0x77
 14338 1b4c 00       		.sleb128 0
 14339 1b4d 32       		.byte	0x32
 14340 1b4e 24       		.byte	0x24
 14341 1b4f 03       		.byte	0x3
 14342 1b50 00000000 		.4byte	.LANCHOR0
 14343 1b54 22       		.byte	0x22
 14344 1b55 06       		.byte	0x6
 14345 1b56 F7       		.byte	0xf7
 14346 1b57 2C       		.uleb128 0x2c
 14347 1b58 F7       		.byte	0xf7
 14348 1b59 25       		.uleb128 0x25
 14349 1b5a 71       		.byte	0x71
 14350 1b5b 00       		.sleb128 0
 14351 1b5c F7       		.byte	0xf7
 14352 1b5d 2C       		.uleb128 0x2c
 14353 1b5e F7       		.byte	0xf7
 14354 1b5f 25       		.uleb128 0x25
 14355 1b60 1E       		.byte	0x1e
 14356 1b61 08       		.byte	0x8
 14357 1b62 20       		.byte	0x20
 14358 1b63 F7       		.byte	0xf7
 14359 1b64 25       		.uleb128 0x25
 14360 1b65 25       		.byte	0x25
 14361 1b66 F7       		.byte	0xf7
 14362 1b67 2C       		.uleb128 0x2c
ARM GAS  /tmp/ccQCTkSU.s 			page 253


 14363 1b68 F7       		.byte	0xf7
 14364 1b69 00       		.uleb128 0
 14365 1b6a 33       		.byte	0x33
 14366 1b6b 25       		.byte	0x25
 14367 1b6c 9F       		.byte	0x9f
 14368 1b6d 54020000 		.4byte	.LVL74
 14369 1b71 94020000 		.4byte	.LVL81
 14370 1b75 3A00     		.2byte	0x3a
 14371 1b77 39       		.byte	0x39
 14372 1b78 F3       		.byte	0xf3
 14373 1b79 01       		.uleb128 0x1
 14374 1b7a 51       		.byte	0x51
 14375 1b7b F3       		.byte	0xf3
 14376 1b7c 01       		.uleb128 0x1
 14377 1b7d 51       		.byte	0x51
 14378 1b7e 31       		.byte	0x31
 14379 1b7f 1C       		.byte	0x1c
 14380 1b80 40       		.byte	0x40
 14381 1b81 4B       		.byte	0x4b
 14382 1b82 24       		.byte	0x24
 14383 1b83 22       		.byte	0x22
 14384 1b84 0C       		.byte	0xc
 14385 1b85 09000080 		.4byte	0x80000009
 14386 1b89 2A       		.byte	0x2a
 14387 1b8a 28       		.byte	0x28
 14388 1b8b 0100     		.2byte	0x1
 14389 1b8d 16       		.byte	0x16
 14390 1b8e 13       		.byte	0x13
 14391 1b8f 32       		.byte	0x32
 14392 1b90 1C       		.byte	0x1c
 14393 1b91 32       		.byte	0x32
 14394 1b92 24       		.byte	0x24
 14395 1b93 03       		.byte	0x3
 14396 1b94 00000000 		.4byte	.LANCHOR0
 14397 1b98 22       		.byte	0x22
 14398 1b99 06       		.byte	0x6
 14399 1b9a F7       		.byte	0xf7
 14400 1b9b 2C       		.uleb128 0x2c
 14401 1b9c F7       		.byte	0xf7
 14402 1b9d 25       		.uleb128 0x25
 14403 1b9e 71       		.byte	0x71
 14404 1b9f 00       		.sleb128 0
 14405 1ba0 F7       		.byte	0xf7
 14406 1ba1 2C       		.uleb128 0x2c
 14407 1ba2 F7       		.byte	0xf7
 14408 1ba3 25       		.uleb128 0x25
 14409 1ba4 1E       		.byte	0x1e
 14410 1ba5 08       		.byte	0x8
 14411 1ba6 20       		.byte	0x20
 14412 1ba7 F7       		.byte	0xf7
 14413 1ba8 25       		.uleb128 0x25
 14414 1ba9 25       		.byte	0x25
 14415 1baa F7       		.byte	0xf7
 14416 1bab 2C       		.uleb128 0x2c
 14417 1bac F7       		.byte	0xf7
 14418 1bad 00       		.uleb128 0
 14419 1bae 33       		.byte	0x33
ARM GAS  /tmp/ccQCTkSU.s 			page 254


 14420 1baf 25       		.byte	0x25
 14421 1bb0 9F       		.byte	0x9f
 14422 1bb1 94020000 		.4byte	.LVL81
 14423 1bb5 8E030000 		.4byte	.LVL105
 14424 1bb9 3F00     		.2byte	0x3f
 14425 1bbb 39       		.byte	0x39
 14426 1bbc F3       		.byte	0xf3
 14427 1bbd 01       		.uleb128 0x1
 14428 1bbe 51       		.byte	0x51
 14429 1bbf F3       		.byte	0xf3
 14430 1bc0 01       		.uleb128 0x1
 14431 1bc1 51       		.byte	0x51
 14432 1bc2 31       		.byte	0x31
 14433 1bc3 1C       		.byte	0x1c
 14434 1bc4 40       		.byte	0x40
 14435 1bc5 4B       		.byte	0x4b
 14436 1bc6 24       		.byte	0x24
 14437 1bc7 22       		.byte	0x22
 14438 1bc8 0C       		.byte	0xc
 14439 1bc9 09000080 		.4byte	0x80000009
 14440 1bcd 2A       		.byte	0x2a
 14441 1bce 28       		.byte	0x28
 14442 1bcf 0100     		.2byte	0x1
 14443 1bd1 16       		.byte	0x16
 14444 1bd2 13       		.byte	0x13
 14445 1bd3 32       		.byte	0x32
 14446 1bd4 1C       		.byte	0x1c
 14447 1bd5 32       		.byte	0x32
 14448 1bd6 24       		.byte	0x24
 14449 1bd7 03       		.byte	0x3
 14450 1bd8 00000000 		.4byte	.LANCHOR0
 14451 1bdc 22       		.byte	0x22
 14452 1bdd 06       		.byte	0x6
 14453 1bde F7       		.byte	0xf7
 14454 1bdf 2C       		.uleb128 0x2c
 14455 1be0 F7       		.byte	0xf7
 14456 1be1 25       		.uleb128 0x25
 14457 1be2 F4       		.byte	0xf4
 14458 1be3 25       		.uleb128 0x25
 14459 1be4 08       		.byte	0x8
 14460 1be5 CDCCCCCC 		.8byte	0xcccccccd
 14460      00000000 
 14461 1bed 1E       		.byte	0x1e
 14462 1bee 08       		.byte	0x8
 14463 1bef 20       		.byte	0x20
 14464 1bf0 F7       		.byte	0xf7
 14465 1bf1 25       		.uleb128 0x25
 14466 1bf2 25       		.byte	0x25
 14467 1bf3 F7       		.byte	0xf7
 14468 1bf4 2C       		.uleb128 0x2c
 14469 1bf5 F7       		.byte	0xf7
 14470 1bf6 00       		.uleb128 0
 14471 1bf7 33       		.byte	0x33
 14472 1bf8 25       		.byte	0x25
 14473 1bf9 9F       		.byte	0x9f
 14474 1bfa 8E030000 		.4byte	.LVL105
 14475 1bfe EA030000 		.4byte	.LVL112
ARM GAS  /tmp/ccQCTkSU.s 			page 255


 14476 1c02 3A00     		.2byte	0x3a
 14477 1c04 39       		.byte	0x39
 14478 1c05 F3       		.byte	0xf3
 14479 1c06 01       		.uleb128 0x1
 14480 1c07 51       		.byte	0x51
 14481 1c08 F3       		.byte	0xf3
 14482 1c09 01       		.uleb128 0x1
 14483 1c0a 51       		.byte	0x51
 14484 1c0b 31       		.byte	0x31
 14485 1c0c 1C       		.byte	0x1c
 14486 1c0d 40       		.byte	0x40
 14487 1c0e 4B       		.byte	0x4b
 14488 1c0f 24       		.byte	0x24
 14489 1c10 22       		.byte	0x22
 14490 1c11 0C       		.byte	0xc
 14491 1c12 09000080 		.4byte	0x80000009
 14492 1c16 2A       		.byte	0x2a
 14493 1c17 28       		.byte	0x28
 14494 1c18 0100     		.2byte	0x1
 14495 1c1a 16       		.byte	0x16
 14496 1c1b 13       		.byte	0x13
 14497 1c1c 32       		.byte	0x32
 14498 1c1d 1C       		.byte	0x1c
 14499 1c1e 32       		.byte	0x32
 14500 1c1f 24       		.byte	0x24
 14501 1c20 03       		.byte	0x3
 14502 1c21 00000000 		.4byte	.LANCHOR0
 14503 1c25 22       		.byte	0x22
 14504 1c26 06       		.byte	0x6
 14505 1c27 F7       		.byte	0xf7
 14506 1c28 2C       		.uleb128 0x2c
 14507 1c29 F7       		.byte	0xf7
 14508 1c2a 25       		.uleb128 0x25
 14509 1c2b 77       		.byte	0x77
 14510 1c2c 00       		.sleb128 0
 14511 1c2d F7       		.byte	0xf7
 14512 1c2e 2C       		.uleb128 0x2c
 14513 1c2f F7       		.byte	0xf7
 14514 1c30 25       		.uleb128 0x25
 14515 1c31 1E       		.byte	0x1e
 14516 1c32 08       		.byte	0x8
 14517 1c33 20       		.byte	0x20
 14518 1c34 F7       		.byte	0xf7
 14519 1c35 25       		.uleb128 0x25
 14520 1c36 25       		.byte	0x25
 14521 1c37 F7       		.byte	0xf7
 14522 1c38 2C       		.uleb128 0x2c
 14523 1c39 F7       		.byte	0xf7
 14524 1c3a 00       		.uleb128 0
 14525 1c3b 33       		.byte	0x33
 14526 1c3c 25       		.byte	0x25
 14527 1c3d 9F       		.byte	0x9f
 14528 1c3e EA030000 		.4byte	.LVL112
 14529 1c42 7A040000 		.4byte	.LVL130
 14530 1c46 3F00     		.2byte	0x3f
 14531 1c48 39       		.byte	0x39
 14532 1c49 F3       		.byte	0xf3
ARM GAS  /tmp/ccQCTkSU.s 			page 256


 14533 1c4a 01       		.uleb128 0x1
 14534 1c4b 51       		.byte	0x51
 14535 1c4c F3       		.byte	0xf3
 14536 1c4d 01       		.uleb128 0x1
 14537 1c4e 51       		.byte	0x51
 14538 1c4f 31       		.byte	0x31
 14539 1c50 1C       		.byte	0x1c
 14540 1c51 40       		.byte	0x40
 14541 1c52 4B       		.byte	0x4b
 14542 1c53 24       		.byte	0x24
 14543 1c54 22       		.byte	0x22
 14544 1c55 0C       		.byte	0xc
 14545 1c56 09000080 		.4byte	0x80000009
 14546 1c5a 2A       		.byte	0x2a
 14547 1c5b 28       		.byte	0x28
 14548 1c5c 0100     		.2byte	0x1
 14549 1c5e 16       		.byte	0x16
 14550 1c5f 13       		.byte	0x13
 14551 1c60 32       		.byte	0x32
 14552 1c61 1C       		.byte	0x1c
 14553 1c62 32       		.byte	0x32
 14554 1c63 24       		.byte	0x24
 14555 1c64 03       		.byte	0x3
 14556 1c65 00000000 		.4byte	.LANCHOR0
 14557 1c69 22       		.byte	0x22
 14558 1c6a 06       		.byte	0x6
 14559 1c6b F7       		.byte	0xf7
 14560 1c6c 2C       		.uleb128 0x2c
 14561 1c6d F7       		.byte	0xf7
 14562 1c6e 25       		.uleb128 0x25
 14563 1c6f F4       		.byte	0xf4
 14564 1c70 25       		.uleb128 0x25
 14565 1c71 08       		.byte	0x8
 14566 1c72 CDCCCCCC 		.8byte	0xcccccccd
 14566      00000000 
 14567 1c7a 1E       		.byte	0x1e
 14568 1c7b 08       		.byte	0x8
 14569 1c7c 20       		.byte	0x20
 14570 1c7d F7       		.byte	0xf7
 14571 1c7e 25       		.uleb128 0x25
 14572 1c7f 25       		.byte	0x25
 14573 1c80 F7       		.byte	0xf7
 14574 1c81 2C       		.uleb128 0x2c
 14575 1c82 F7       		.byte	0xf7
 14576 1c83 00       		.uleb128 0
 14577 1c84 33       		.byte	0x33
 14578 1c85 25       		.byte	0x25
 14579 1c86 9F       		.byte	0x9f
 14580 1c87 DE040000 		.4byte	.LVL145
 14581 1c8b F0040000 		.4byte	.LVL147
 14582 1c8f 3F00     		.2byte	0x3f
 14583 1c91 39       		.byte	0x39
 14584 1c92 F3       		.byte	0xf3
 14585 1c93 01       		.uleb128 0x1
 14586 1c94 51       		.byte	0x51
 14587 1c95 F3       		.byte	0xf3
 14588 1c96 01       		.uleb128 0x1
ARM GAS  /tmp/ccQCTkSU.s 			page 257


 14589 1c97 51       		.byte	0x51
 14590 1c98 31       		.byte	0x31
 14591 1c99 1C       		.byte	0x1c
 14592 1c9a 40       		.byte	0x40
 14593 1c9b 4B       		.byte	0x4b
 14594 1c9c 24       		.byte	0x24
 14595 1c9d 22       		.byte	0x22
 14596 1c9e 0C       		.byte	0xc
 14597 1c9f 09000080 		.4byte	0x80000009
 14598 1ca3 2A       		.byte	0x2a
 14599 1ca4 28       		.byte	0x28
 14600 1ca5 0100     		.2byte	0x1
 14601 1ca7 16       		.byte	0x16
 14602 1ca8 13       		.byte	0x13
 14603 1ca9 32       		.byte	0x32
 14604 1caa 1C       		.byte	0x1c
 14605 1cab 32       		.byte	0x32
 14606 1cac 24       		.byte	0x24
 14607 1cad 03       		.byte	0x3
 14608 1cae 00000000 		.4byte	.LANCHOR0
 14609 1cb2 22       		.byte	0x22
 14610 1cb3 06       		.byte	0x6
 14611 1cb4 F7       		.byte	0xf7
 14612 1cb5 2C       		.uleb128 0x2c
 14613 1cb6 F7       		.byte	0xf7
 14614 1cb7 25       		.uleb128 0x25
 14615 1cb8 F4       		.byte	0xf4
 14616 1cb9 25       		.uleb128 0x25
 14617 1cba 08       		.byte	0x8
 14618 1cbb CDCCCCCC 		.8byte	0xcccccccd
 14618      00000000 
 14619 1cc3 1E       		.byte	0x1e
 14620 1cc4 08       		.byte	0x8
 14621 1cc5 20       		.byte	0x20
 14622 1cc6 F7       		.byte	0xf7
 14623 1cc7 25       		.uleb128 0x25
 14624 1cc8 25       		.byte	0x25
 14625 1cc9 F7       		.byte	0xf7
 14626 1cca 2C       		.uleb128 0x2c
 14627 1ccb F7       		.byte	0xf7
 14628 1ccc 00       		.uleb128 0
 14629 1ccd 33       		.byte	0x33
 14630 1cce 25       		.byte	0x25
 14631 1ccf 9F       		.byte	0x9f
 14632 1cd0 F0040000 		.4byte	.LVL147
 14633 1cd4 20050000 		.4byte	.LVL155
 14634 1cd8 3A00     		.2byte	0x3a
 14635 1cda 39       		.byte	0x39
 14636 1cdb F3       		.byte	0xf3
 14637 1cdc 01       		.uleb128 0x1
 14638 1cdd 51       		.byte	0x51
 14639 1cde F3       		.byte	0xf3
 14640 1cdf 01       		.uleb128 0x1
 14641 1ce0 51       		.byte	0x51
 14642 1ce1 31       		.byte	0x31
 14643 1ce2 1C       		.byte	0x1c
 14644 1ce3 40       		.byte	0x40
ARM GAS  /tmp/ccQCTkSU.s 			page 258


 14645 1ce4 4B       		.byte	0x4b
 14646 1ce5 24       		.byte	0x24
 14647 1ce6 22       		.byte	0x22
 14648 1ce7 0C       		.byte	0xc
 14649 1ce8 09000080 		.4byte	0x80000009
 14650 1cec 2A       		.byte	0x2a
 14651 1ced 28       		.byte	0x28
 14652 1cee 0100     		.2byte	0x1
 14653 1cf0 16       		.byte	0x16
 14654 1cf1 13       		.byte	0x13
 14655 1cf2 32       		.byte	0x32
 14656 1cf3 1C       		.byte	0x1c
 14657 1cf4 32       		.byte	0x32
 14658 1cf5 24       		.byte	0x24
 14659 1cf6 03       		.byte	0x3
 14660 1cf7 00000000 		.4byte	.LANCHOR0
 14661 1cfb 22       		.byte	0x22
 14662 1cfc 06       		.byte	0x6
 14663 1cfd F7       		.byte	0xf7
 14664 1cfe 2C       		.uleb128 0x2c
 14665 1cff F7       		.byte	0xf7
 14666 1d00 25       		.uleb128 0x25
 14667 1d01 77       		.byte	0x77
 14668 1d02 00       		.sleb128 0
 14669 1d03 F7       		.byte	0xf7
 14670 1d04 2C       		.uleb128 0x2c
 14671 1d05 F7       		.byte	0xf7
 14672 1d06 25       		.uleb128 0x25
 14673 1d07 1E       		.byte	0x1e
 14674 1d08 08       		.byte	0x8
 14675 1d09 20       		.byte	0x20
 14676 1d0a F7       		.byte	0xf7
 14677 1d0b 25       		.uleb128 0x25
 14678 1d0c 25       		.byte	0x25
 14679 1d0d F7       		.byte	0xf7
 14680 1d0e 2C       		.uleb128 0x2c
 14681 1d0f F7       		.byte	0xf7
 14682 1d10 00       		.uleb128 0
 14683 1d11 33       		.byte	0x33
 14684 1d12 25       		.byte	0x25
 14685 1d13 9F       		.byte	0x9f
 14686 1d14 20050000 		.4byte	.LVL155
 14687 1d18 E6050000 		.4byte	.LVL173
 14688 1d1c 3F00     		.2byte	0x3f
 14689 1d1e 39       		.byte	0x39
 14690 1d1f F3       		.byte	0xf3
 14691 1d20 01       		.uleb128 0x1
 14692 1d21 51       		.byte	0x51
 14693 1d22 F3       		.byte	0xf3
 14694 1d23 01       		.uleb128 0x1
 14695 1d24 51       		.byte	0x51
 14696 1d25 31       		.byte	0x31
 14697 1d26 1C       		.byte	0x1c
 14698 1d27 40       		.byte	0x40
 14699 1d28 4B       		.byte	0x4b
 14700 1d29 24       		.byte	0x24
 14701 1d2a 22       		.byte	0x22
ARM GAS  /tmp/ccQCTkSU.s 			page 259


 14702 1d2b 0C       		.byte	0xc
 14703 1d2c 09000080 		.4byte	0x80000009
 14704 1d30 2A       		.byte	0x2a
 14705 1d31 28       		.byte	0x28
 14706 1d32 0100     		.2byte	0x1
 14707 1d34 16       		.byte	0x16
 14708 1d35 13       		.byte	0x13
 14709 1d36 32       		.byte	0x32
 14710 1d37 1C       		.byte	0x1c
 14711 1d38 32       		.byte	0x32
 14712 1d39 24       		.byte	0x24
 14713 1d3a 03       		.byte	0x3
 14714 1d3b 00000000 		.4byte	.LANCHOR0
 14715 1d3f 22       		.byte	0x22
 14716 1d40 06       		.byte	0x6
 14717 1d41 F7       		.byte	0xf7
 14718 1d42 2C       		.uleb128 0x2c
 14719 1d43 F7       		.byte	0xf7
 14720 1d44 25       		.uleb128 0x25
 14721 1d45 F4       		.byte	0xf4
 14722 1d46 25       		.uleb128 0x25
 14723 1d47 08       		.byte	0x8
 14724 1d48 CDCCCCCC 		.8byte	0xcccccccd
 14724      00000000 
 14725 1d50 1E       		.byte	0x1e
 14726 1d51 08       		.byte	0x8
 14727 1d52 20       		.byte	0x20
 14728 1d53 F7       		.byte	0xf7
 14729 1d54 25       		.uleb128 0x25
 14730 1d55 25       		.byte	0x25
 14731 1d56 F7       		.byte	0xf7
 14732 1d57 2C       		.uleb128 0x2c
 14733 1d58 F7       		.byte	0xf7
 14734 1d59 00       		.uleb128 0
 14735 1d5a 33       		.byte	0x33
 14736 1d5b 25       		.byte	0x25
 14737 1d5c 9F       		.byte	0x9f
 14738 1d5d 1A060000 		.4byte	.LVL182
 14739 1d61 34060000 		.4byte	.LVL187
 14740 1d65 3A00     		.2byte	0x3a
 14741 1d67 39       		.byte	0x39
 14742 1d68 F3       		.byte	0xf3
 14743 1d69 01       		.uleb128 0x1
 14744 1d6a 51       		.byte	0x51
 14745 1d6b F3       		.byte	0xf3
 14746 1d6c 01       		.uleb128 0x1
 14747 1d6d 51       		.byte	0x51
 14748 1d6e 31       		.byte	0x31
 14749 1d6f 1C       		.byte	0x1c
 14750 1d70 40       		.byte	0x40
 14751 1d71 4B       		.byte	0x4b
 14752 1d72 24       		.byte	0x24
 14753 1d73 22       		.byte	0x22
 14754 1d74 0C       		.byte	0xc
 14755 1d75 09000080 		.4byte	0x80000009
 14756 1d79 2A       		.byte	0x2a
 14757 1d7a 28       		.byte	0x28
ARM GAS  /tmp/ccQCTkSU.s 			page 260


 14758 1d7b 0100     		.2byte	0x1
 14759 1d7d 16       		.byte	0x16
 14760 1d7e 13       		.byte	0x13
 14761 1d7f 32       		.byte	0x32
 14762 1d80 1C       		.byte	0x1c
 14763 1d81 32       		.byte	0x32
 14764 1d82 24       		.byte	0x24
 14765 1d83 03       		.byte	0x3
 14766 1d84 00000000 		.4byte	.LANCHOR0
 14767 1d88 22       		.byte	0x22
 14768 1d89 06       		.byte	0x6
 14769 1d8a F7       		.byte	0xf7
 14770 1d8b 2C       		.uleb128 0x2c
 14771 1d8c F7       		.byte	0xf7
 14772 1d8d 25       		.uleb128 0x25
 14773 1d8e 77       		.byte	0x77
 14774 1d8f 00       		.sleb128 0
 14775 1d90 F7       		.byte	0xf7
 14776 1d91 2C       		.uleb128 0x2c
 14777 1d92 F7       		.byte	0xf7
 14778 1d93 25       		.uleb128 0x25
 14779 1d94 1E       		.byte	0x1e
 14780 1d95 08       		.byte	0x8
 14781 1d96 20       		.byte	0x20
 14782 1d97 F7       		.byte	0xf7
 14783 1d98 25       		.uleb128 0x25
 14784 1d99 25       		.byte	0x25
 14785 1d9a F7       		.byte	0xf7
 14786 1d9b 2C       		.uleb128 0x2c
 14787 1d9c F7       		.byte	0xf7
 14788 1d9d 00       		.uleb128 0
 14789 1d9e 33       		.byte	0x33
 14790 1d9f 25       		.byte	0x25
 14791 1da0 9F       		.byte	0x9f
 14792 1da1 34060000 		.4byte	.LVL187
 14793 1da5 36060000 		.4byte	.LVL188
 14794 1da9 3F00     		.2byte	0x3f
 14795 1dab 39       		.byte	0x39
 14796 1dac F3       		.byte	0xf3
 14797 1dad 01       		.uleb128 0x1
 14798 1dae 51       		.byte	0x51
 14799 1daf F3       		.byte	0xf3
 14800 1db0 01       		.uleb128 0x1
 14801 1db1 51       		.byte	0x51
 14802 1db2 31       		.byte	0x31
 14803 1db3 1C       		.byte	0x1c
 14804 1db4 40       		.byte	0x40
 14805 1db5 4B       		.byte	0x4b
 14806 1db6 24       		.byte	0x24
 14807 1db7 22       		.byte	0x22
 14808 1db8 0C       		.byte	0xc
 14809 1db9 09000080 		.4byte	0x80000009
 14810 1dbd 2A       		.byte	0x2a
 14811 1dbe 28       		.byte	0x28
 14812 1dbf 0100     		.2byte	0x1
 14813 1dc1 16       		.byte	0x16
 14814 1dc2 13       		.byte	0x13
ARM GAS  /tmp/ccQCTkSU.s 			page 261


 14815 1dc3 32       		.byte	0x32
 14816 1dc4 1C       		.byte	0x1c
 14817 1dc5 32       		.byte	0x32
 14818 1dc6 24       		.byte	0x24
 14819 1dc7 03       		.byte	0x3
 14820 1dc8 00000000 		.4byte	.LANCHOR0
 14821 1dcc 22       		.byte	0x22
 14822 1dcd 06       		.byte	0x6
 14823 1dce F7       		.byte	0xf7
 14824 1dcf 2C       		.uleb128 0x2c
 14825 1dd0 F7       		.byte	0xf7
 14826 1dd1 25       		.uleb128 0x25
 14827 1dd2 F4       		.byte	0xf4
 14828 1dd3 25       		.uleb128 0x25
 14829 1dd4 08       		.byte	0x8
 14830 1dd5 CDCCCCCC 		.8byte	0xcccccccd
 14830      00000000 
 14831 1ddd 1E       		.byte	0x1e
 14832 1dde 08       		.byte	0x8
 14833 1ddf 20       		.byte	0x20
 14834 1de0 F7       		.byte	0xf7
 14835 1de1 25       		.uleb128 0x25
 14836 1de2 25       		.byte	0x25
 14837 1de3 F7       		.byte	0xf7
 14838 1de4 2C       		.uleb128 0x2c
 14839 1de5 F7       		.byte	0xf7
 14840 1de6 00       		.uleb128 0
 14841 1de7 33       		.byte	0x33
 14842 1de8 25       		.byte	0x25
 14843 1de9 9F       		.byte	0x9f
 14844 1dea 3C060000 		.4byte	.LVL189
 14845 1dee 74060000 		.4byte	.LVL199
 14846 1df2 3F00     		.2byte	0x3f
 14847 1df4 39       		.byte	0x39
 14848 1df5 F3       		.byte	0xf3
 14849 1df6 01       		.uleb128 0x1
 14850 1df7 51       		.byte	0x51
 14851 1df8 F3       		.byte	0xf3
 14852 1df9 01       		.uleb128 0x1
 14853 1dfa 51       		.byte	0x51
 14854 1dfb 31       		.byte	0x31
 14855 1dfc 1C       		.byte	0x1c
 14856 1dfd 40       		.byte	0x40
 14857 1dfe 4B       		.byte	0x4b
 14858 1dff 24       		.byte	0x24
 14859 1e00 22       		.byte	0x22
 14860 1e01 0C       		.byte	0xc
 14861 1e02 09000080 		.4byte	0x80000009
 14862 1e06 2A       		.byte	0x2a
 14863 1e07 28       		.byte	0x28
 14864 1e08 0100     		.2byte	0x1
 14865 1e0a 16       		.byte	0x16
 14866 1e0b 13       		.byte	0x13
 14867 1e0c 32       		.byte	0x32
 14868 1e0d 1C       		.byte	0x1c
 14869 1e0e 32       		.byte	0x32
 14870 1e0f 24       		.byte	0x24
ARM GAS  /tmp/ccQCTkSU.s 			page 262


 14871 1e10 03       		.byte	0x3
 14872 1e11 00000000 		.4byte	.LANCHOR0
 14873 1e15 22       		.byte	0x22
 14874 1e16 06       		.byte	0x6
 14875 1e17 F7       		.byte	0xf7
 14876 1e18 2C       		.uleb128 0x2c
 14877 1e19 F7       		.byte	0xf7
 14878 1e1a 25       		.uleb128 0x25
 14879 1e1b F4       		.byte	0xf4
 14880 1e1c 25       		.uleb128 0x25
 14881 1e1d 08       		.byte	0x8
 14882 1e1e CDCCCCCC 		.8byte	0xcccccccd
 14882      00000000 
 14883 1e26 1E       		.byte	0x1e
 14884 1e27 08       		.byte	0x8
 14885 1e28 20       		.byte	0x20
 14886 1e29 F7       		.byte	0xf7
 14887 1e2a 25       		.uleb128 0x25
 14888 1e2b 25       		.byte	0x25
 14889 1e2c F7       		.byte	0xf7
 14890 1e2d 2C       		.uleb128 0x2c
 14891 1e2e F7       		.byte	0xf7
 14892 1e2f 00       		.uleb128 0
 14893 1e30 33       		.byte	0x33
 14894 1e31 25       		.byte	0x25
 14895 1e32 9F       		.byte	0x9f
 14896 1e33 74060000 		.4byte	.LVL199
 14897 1e37 76060000 		.4byte	.LVL200
 14898 1e3b 3A00     		.2byte	0x3a
 14899 1e3d 39       		.byte	0x39
 14900 1e3e F3       		.byte	0xf3
 14901 1e3f 01       		.uleb128 0x1
 14902 1e40 51       		.byte	0x51
 14903 1e41 F3       		.byte	0xf3
 14904 1e42 01       		.uleb128 0x1
 14905 1e43 51       		.byte	0x51
 14906 1e44 31       		.byte	0x31
 14907 1e45 1C       		.byte	0x1c
 14908 1e46 40       		.byte	0x40
 14909 1e47 4B       		.byte	0x4b
 14910 1e48 24       		.byte	0x24
 14911 1e49 22       		.byte	0x22
 14912 1e4a 0C       		.byte	0xc
 14913 1e4b 09000080 		.4byte	0x80000009
 14914 1e4f 2A       		.byte	0x2a
 14915 1e50 28       		.byte	0x28
 14916 1e51 0100     		.2byte	0x1
 14917 1e53 16       		.byte	0x16
 14918 1e54 13       		.byte	0x13
 14919 1e55 32       		.byte	0x32
 14920 1e56 1C       		.byte	0x1c
 14921 1e57 32       		.byte	0x32
 14922 1e58 24       		.byte	0x24
 14923 1e59 03       		.byte	0x3
 14924 1e5a 00000000 		.4byte	.LANCHOR0
 14925 1e5e 22       		.byte	0x22
 14926 1e5f 06       		.byte	0x6
ARM GAS  /tmp/ccQCTkSU.s 			page 263


 14927 1e60 F7       		.byte	0xf7
 14928 1e61 2C       		.uleb128 0x2c
 14929 1e62 F7       		.byte	0xf7
 14930 1e63 25       		.uleb128 0x25
 14931 1e64 77       		.byte	0x77
 14932 1e65 00       		.sleb128 0
 14933 1e66 F7       		.byte	0xf7
 14934 1e67 2C       		.uleb128 0x2c
 14935 1e68 F7       		.byte	0xf7
 14936 1e69 25       		.uleb128 0x25
 14937 1e6a 1E       		.byte	0x1e
 14938 1e6b 08       		.byte	0x8
 14939 1e6c 20       		.byte	0x20
 14940 1e6d F7       		.byte	0xf7
 14941 1e6e 25       		.uleb128 0x25
 14942 1e6f 25       		.byte	0x25
 14943 1e70 F7       		.byte	0xf7
 14944 1e71 2C       		.uleb128 0x2c
 14945 1e72 F7       		.byte	0xf7
 14946 1e73 00       		.uleb128 0
 14947 1e74 33       		.byte	0x33
 14948 1e75 25       		.byte	0x25
 14949 1e76 9F       		.byte	0x9f
 14950 1e77 76060000 		.4byte	.LVL200
 14951 1e7b 88060000 		.4byte	.LFE329
 14952 1e7f 3F00     		.2byte	0x3f
 14953 1e81 39       		.byte	0x39
 14954 1e82 F3       		.byte	0xf3
 14955 1e83 01       		.uleb128 0x1
 14956 1e84 51       		.byte	0x51
 14957 1e85 F3       		.byte	0xf3
 14958 1e86 01       		.uleb128 0x1
 14959 1e87 51       		.byte	0x51
 14960 1e88 31       		.byte	0x31
 14961 1e89 1C       		.byte	0x1c
 14962 1e8a 40       		.byte	0x40
 14963 1e8b 4B       		.byte	0x4b
 14964 1e8c 24       		.byte	0x24
 14965 1e8d 22       		.byte	0x22
 14966 1e8e 0C       		.byte	0xc
 14967 1e8f 09000080 		.4byte	0x80000009
 14968 1e93 2A       		.byte	0x2a
 14969 1e94 28       		.byte	0x28
 14970 1e95 0100     		.2byte	0x1
 14971 1e97 16       		.byte	0x16
 14972 1e98 13       		.byte	0x13
 14973 1e99 32       		.byte	0x32
 14974 1e9a 1C       		.byte	0x1c
 14975 1e9b 32       		.byte	0x32
 14976 1e9c 24       		.byte	0x24
 14977 1e9d 03       		.byte	0x3
 14978 1e9e 00000000 		.4byte	.LANCHOR0
 14979 1ea2 22       		.byte	0x22
 14980 1ea3 06       		.byte	0x6
 14981 1ea4 F7       		.byte	0xf7
 14982 1ea5 2C       		.uleb128 0x2c
 14983 1ea6 F7       		.byte	0xf7
ARM GAS  /tmp/ccQCTkSU.s 			page 264


 14984 1ea7 25       		.uleb128 0x25
 14985 1ea8 F4       		.byte	0xf4
 14986 1ea9 25       		.uleb128 0x25
 14987 1eaa 08       		.byte	0x8
 14988 1eab CDCCCCCC 		.8byte	0xcccccccd
 14988      00000000 
 14989 1eb3 1E       		.byte	0x1e
 14990 1eb4 08       		.byte	0x8
 14991 1eb5 20       		.byte	0x20
 14992 1eb6 F7       		.byte	0xf7
 14993 1eb7 25       		.uleb128 0x25
 14994 1eb8 25       		.byte	0x25
 14995 1eb9 F7       		.byte	0xf7
 14996 1eba 2C       		.uleb128 0x2c
 14997 1ebb F7       		.byte	0xf7
 14998 1ebc 00       		.uleb128 0
 14999 1ebd 33       		.byte	0x33
 15000 1ebe 25       		.byte	0x25
 15001 1ebf 9F       		.byte	0x9f
 15002 1ec0 00000000 		.4byte	0
 15003 1ec4 00000000 		.4byte	0
 15004              	.LLST18:
 15005 1ec8 3C020000 		.4byte	.LVL70
 15006 1ecc D4020000 		.4byte	.LVL83
 15007 1ed0 0300     		.2byte	0x3
 15008 1ed2 7B       		.byte	0x7b
 15009 1ed3 02       		.sleb128 2
 15010 1ed4 9F       		.byte	0x9f
 15011 1ed5 D4020000 		.4byte	.LVL83
 15012 1ed9 E0020000 		.4byte	.LVL84
 15013 1edd 0100     		.2byte	0x1
 15014 1edf 50       		.byte	0x50
 15015 1ee0 E0020000 		.4byte	.LVL84
 15016 1ee4 E4020000 		.4byte	.LVL86
 15017 1ee8 0100     		.2byte	0x1
 15018 1eea 56       		.byte	0x56
 15019 1eeb E4020000 		.4byte	.LVL86
 15020 1eef EE020000 		.4byte	.LVL87
 15021 1ef3 0300     		.2byte	0x3
 15022 1ef5 7B       		.byte	0x7b
 15023 1ef6 03       		.sleb128 3
 15024 1ef7 9F       		.byte	0x9f
 15025 1ef8 EE020000 		.4byte	.LVL87
 15026 1efc F2020000 		.4byte	.LVL88
 15027 1f00 0300     		.2byte	0x3
 15028 1f02 7B       		.byte	0x7b
 15029 1f03 04       		.sleb128 4
 15030 1f04 9F       		.byte	0x9f
 15031 1f05 F2020000 		.4byte	.LVL88
 15032 1f09 FA020000 		.4byte	.LVL91
 15033 1f0d 0100     		.2byte	0x1
 15034 1f0f 56       		.byte	0x56
 15035 1f10 FA020000 		.4byte	.LVL91
 15036 1f14 00030000 		.4byte	.LVL92
 15037 1f18 0300     		.2byte	0x3
 15038 1f1a 7B       		.byte	0x7b
 15039 1f1b 04       		.sleb128 4
ARM GAS  /tmp/ccQCTkSU.s 			page 265


 15040 1f1c 9F       		.byte	0x9f
 15041 1f1d 00030000 		.4byte	.LVL92
 15042 1f21 08030000 		.4byte	.LVL93
 15043 1f25 0300     		.2byte	0x3
 15044 1f27 7B       		.byte	0x7b
 15045 1f28 05       		.sleb128 5
 15046 1f29 9F       		.byte	0x9f
 15047 1f2a 3C030000 		.4byte	.LVL95
 15048 1f2e 46030000 		.4byte	.LVL96
 15049 1f32 0300     		.2byte	0x3
 15050 1f34 76       		.byte	0x76
 15051 1f35 01       		.sleb128 1
 15052 1f36 9F       		.byte	0x9f
 15053 1f37 46030000 		.4byte	.LVL96
 15054 1f3b 50030000 		.4byte	.LVL97
 15055 1f3f 0300     		.2byte	0x3
 15056 1f41 76       		.byte	0x76
 15057 1f42 02       		.sleb128 2
 15058 1f43 9F       		.byte	0x9f
 15059 1f44 50030000 		.4byte	.LVL97
 15060 1f48 5A030000 		.4byte	.LVL98
 15061 1f4c 0300     		.2byte	0x3
 15062 1f4e 76       		.byte	0x76
 15063 1f4f 03       		.sleb128 3
 15064 1f50 9F       		.byte	0x9f
 15065 1f51 5A030000 		.4byte	.LVL98
 15066 1f55 64030000 		.4byte	.LVL99
 15067 1f59 0300     		.2byte	0x3
 15068 1f5b 76       		.byte	0x76
 15069 1f5c 04       		.sleb128 4
 15070 1f5d 9F       		.byte	0x9f
 15071 1f5e 64030000 		.4byte	.LVL99
 15072 1f62 6E030000 		.4byte	.LVL100
 15073 1f66 0300     		.2byte	0x3
 15074 1f68 76       		.byte	0x76
 15075 1f69 05       		.sleb128 5
 15076 1f6a 9F       		.byte	0x9f
 15077 1f6b 6E030000 		.4byte	.LVL100
 15078 1f6f 72030000 		.4byte	.LVL102
 15079 1f73 0300     		.2byte	0x3
 15080 1f75 76       		.byte	0x76
 15081 1f76 06       		.sleb128 6
 15082 1f77 9F       		.byte	0x9f
 15083 1f78 50060000 		.4byte	.LVL193
 15084 1f7c 54060000 		.4byte	.LVL194
 15085 1f80 0300     		.2byte	0x3
 15086 1f82 7B       		.byte	0x7b
 15087 1f83 02       		.sleb128 2
 15088 1f84 9F       		.byte	0x9f
 15089 1f85 54060000 		.4byte	.LVL194
 15090 1f89 64060000 		.4byte	.LVL197
 15091 1f8d 0100     		.2byte	0x1
 15092 1f8f 50       		.byte	0x50
 15093 1f90 6C060000 		.4byte	.LVL198
 15094 1f94 74060000 		.4byte	.LVL199
 15095 1f98 0300     		.2byte	0x3
 15096 1f9a 7B       		.byte	0x7b
ARM GAS  /tmp/ccQCTkSU.s 			page 266


 15097 1f9b 02       		.sleb128 2
 15098 1f9c 9F       		.byte	0x9f
 15099 1f9d 7C060000 		.4byte	.LVL202
 15100 1fa1 88060000 		.4byte	.LFE329
 15101 1fa5 0300     		.2byte	0x3
 15102 1fa7 7B       		.byte	0x7b
 15103 1fa8 02       		.sleb128 2
 15104 1fa9 9F       		.byte	0x9f
 15105 1faa 00000000 		.4byte	0
 15106 1fae 00000000 		.4byte	0
 15107              	.LLST19:
 15108 1fb2 7E020000 		.4byte	.LVL77
 15109 1fb6 84020000 		.4byte	.LVL79
 15110 1fba 0300     		.2byte	0x3
 15111 1fbc 73       		.byte	0x73
 15112 1fbd 30       		.sleb128 48
 15113 1fbe 9F       		.byte	0x9f
 15114 1fbf 84020000 		.4byte	.LVL79
 15115 1fc3 90020000 		.4byte	.LVL80
 15116 1fc7 0100     		.2byte	0x1
 15117 1fc9 53       		.byte	0x53
 15118 1fca B2020000 		.4byte	.LVL82
 15119 1fce E0020000 		.4byte	.LVL84
 15120 1fd2 0800     		.2byte	0x8
 15121 1fd4 7B       		.byte	0x7b
 15122 1fd5 00       		.sleb128 0
 15123 1fd6 73       		.byte	0x73
 15124 1fd7 00       		.sleb128 0
 15125 1fd8 1C       		.byte	0x1c
 15126 1fd9 23       		.byte	0x23
 15127 1fda 0D       		.uleb128 0xd
 15128 1fdb 9F       		.byte	0x9f
 15129 1fdc E0020000 		.4byte	.LVL84
 15130 1fe0 F2020000 		.4byte	.LVL88
 15131 1fe4 0100     		.2byte	0x1
 15132 1fe6 5E       		.byte	0x5e
 15133 1fe7 F2020000 		.4byte	.LVL88
 15134 1feb F6020000 		.4byte	.LVL89
 15135 1fef 0300     		.2byte	0x3
 15136 1ff1 72       		.byte	0x72
 15137 1ff2 7E       		.sleb128 -2
 15138 1ff3 9F       		.byte	0x9f
 15139 1ff4 F6020000 		.4byte	.LVL89
 15140 1ff8 00030000 		.4byte	.LVL92
 15141 1ffc 0100     		.2byte	0x1
 15142 1ffe 5E       		.byte	0x5e
 15143 1fff 00030000 		.4byte	.LVL92
 15144 2003 08030000 		.4byte	.LVL93
 15145 2007 0300     		.2byte	0x3
 15146 2009 72       		.byte	0x72
 15147 200a 7D       		.sleb128 -3
 15148 200b 9F       		.byte	0x9f
 15149 200c 50060000 		.4byte	.LVL193
 15150 2010 54060000 		.4byte	.LVL194
 15151 2014 0800     		.2byte	0x8
 15152 2016 7B       		.byte	0x7b
 15153 2017 00       		.sleb128 0
ARM GAS  /tmp/ccQCTkSU.s 			page 267


 15154 2018 73       		.byte	0x73
 15155 2019 00       		.sleb128 0
 15156 201a 1C       		.byte	0x1c
 15157 201b 23       		.byte	0x23
 15158 201c 0D       		.uleb128 0xd
 15159 201d 9F       		.byte	0x9f
 15160 201e 54060000 		.4byte	.LVL194
 15161 2022 56060000 		.4byte	.LVL195
 15162 2026 0800     		.2byte	0x8
 15163 2028 70       		.byte	0x70
 15164 2029 00       		.sleb128 0
 15165 202a 73       		.byte	0x73
 15166 202b 00       		.sleb128 0
 15167 202c 1C       		.byte	0x1c
 15168 202d 23       		.byte	0x23
 15169 202e 0B       		.uleb128 0xb
 15170 202f 9F       		.byte	0x9f
 15171 2030 56060000 		.4byte	.LVL195
 15172 2034 64060000 		.4byte	.LVL197
 15173 2038 0800     		.2byte	0x8
 15174 203a 70       		.byte	0x70
 15175 203b 00       		.sleb128 0
 15176 203c 77       		.byte	0x77
 15177 203d 00       		.sleb128 0
 15178 203e 1C       		.byte	0x1c
 15179 203f 23       		.byte	0x23
 15180 2040 0C       		.uleb128 0xc
 15181 2041 9F       		.byte	0x9f
 15182 2042 6C060000 		.4byte	.LVL198
 15183 2046 74060000 		.4byte	.LVL199
 15184 204a 0800     		.2byte	0x8
 15185 204c 7B       		.byte	0x7b
 15186 204d 00       		.sleb128 0
 15187 204e 73       		.byte	0x73
 15188 204f 00       		.sleb128 0
 15189 2050 1C       		.byte	0x1c
 15190 2051 23       		.byte	0x23
 15191 2052 0D       		.uleb128 0xd
 15192 2053 9F       		.byte	0x9f
 15193 2054 7C060000 		.4byte	.LVL202
 15194 2058 88060000 		.4byte	.LFE329
 15195 205c 0800     		.2byte	0x8
 15196 205e 7B       		.byte	0x7b
 15197 205f 00       		.sleb128 0
 15198 2060 73       		.byte	0x73
 15199 2061 00       		.sleb128 0
 15200 2062 1C       		.byte	0x1c
 15201 2063 23       		.byte	0x23
 15202 2064 0D       		.uleb128 0xd
 15203 2065 9F       		.byte	0x9f
 15204 2066 00000000 		.4byte	0
 15205 206a 00000000 		.4byte	0
 15206              	.LLST20:
 15207 206e 52020000 		.4byte	.LVL73
 15208 2072 6C020000 		.4byte	.LVL75
 15209 2076 0100     		.2byte	0x1
 15210 2078 52       		.byte	0x52
ARM GAS  /tmp/ccQCTkSU.s 			page 268


 15211 2079 6C020000 		.4byte	.LVL75
 15212 207d 6E020000 		.4byte	.LVL76
 15213 2081 0100     		.2byte	0x1
 15214 2083 53       		.byte	0x53
 15215 2084 6E020000 		.4byte	.LVL76
 15216 2088 90020000 		.4byte	.LVL80
 15217 208c 0100     		.2byte	0x1
 15218 208e 57       		.byte	0x57
 15219 208f 90020000 		.4byte	.LVL80
 15220 2093 E2020000 		.4byte	.LVL85
 15221 2097 0100     		.2byte	0x1
 15222 2099 53       		.byte	0x53
 15223 209a E2020000 		.4byte	.LVL85
 15224 209e F8020000 		.4byte	.LVL90
 15225 20a2 0300     		.2byte	0x3
 15226 20a4 73       		.byte	0x73
 15227 20a5 02       		.sleb128 2
 15228 20a6 9F       		.byte	0x9f
 15229 20a7 F8020000 		.4byte	.LVL90
 15230 20ab 00030000 		.4byte	.LVL92
 15231 20af 0300     		.2byte	0x3
 15232 20b1 73       		.byte	0x73
 15233 20b2 03       		.sleb128 3
 15234 20b3 9F       		.byte	0x9f
 15235 20b4 00030000 		.4byte	.LVL92
 15236 20b8 08030000 		.4byte	.LVL93
 15237 20bc 0100     		.2byte	0x1
 15238 20be 57       		.byte	0x57
 15239 20bf 3C030000 		.4byte	.LVL95
 15240 20c3 46030000 		.4byte	.LVL96
 15241 20c7 0300     		.2byte	0x3
 15242 20c9 73       		.byte	0x73
 15243 20ca 01       		.sleb128 1
 15244 20cb 9F       		.byte	0x9f
 15245 20cc 46030000 		.4byte	.LVL96
 15246 20d0 50030000 		.4byte	.LVL97
 15247 20d4 0300     		.2byte	0x3
 15248 20d6 73       		.byte	0x73
 15249 20d7 02       		.sleb128 2
 15250 20d8 9F       		.byte	0x9f
 15251 20d9 50030000 		.4byte	.LVL97
 15252 20dd 5A030000 		.4byte	.LVL98
 15253 20e1 0300     		.2byte	0x3
 15254 20e3 73       		.byte	0x73
 15255 20e4 03       		.sleb128 3
 15256 20e5 9F       		.byte	0x9f
 15257 20e6 5A030000 		.4byte	.LVL98
 15258 20ea 64030000 		.4byte	.LVL99
 15259 20ee 0300     		.2byte	0x3
 15260 20f0 73       		.byte	0x73
 15261 20f1 04       		.sleb128 4
 15262 20f2 9F       		.byte	0x9f
 15263 20f3 64030000 		.4byte	.LVL99
 15264 20f7 6E030000 		.4byte	.LVL100
 15265 20fb 0300     		.2byte	0x3
 15266 20fd 73       		.byte	0x73
 15267 20fe 05       		.sleb128 5
ARM GAS  /tmp/ccQCTkSU.s 			page 269


 15268 20ff 9F       		.byte	0x9f
 15269 2100 6E030000 		.4byte	.LVL100
 15270 2104 70030000 		.4byte	.LVL101
 15271 2108 0300     		.2byte	0x3
 15272 210a 73       		.byte	0x73
 15273 210b 06       		.sleb128 6
 15274 210c 9F       		.byte	0x9f
 15275 210d 50060000 		.4byte	.LVL193
 15276 2111 5A060000 		.4byte	.LVL196
 15277 2115 0100     		.2byte	0x1
 15278 2117 53       		.byte	0x53
 15279 2118 5A060000 		.4byte	.LVL196
 15280 211c 64060000 		.4byte	.LVL197
 15281 2120 0300     		.2byte	0x3
 15282 2122 73       		.byte	0x73
 15283 2123 7F       		.sleb128 -1
 15284 2124 9F       		.byte	0x9f
 15285 2125 6C060000 		.4byte	.LVL198
 15286 2129 74060000 		.4byte	.LVL199
 15287 212d 0100     		.2byte	0x1
 15288 212f 53       		.byte	0x53
 15289 2130 7C060000 		.4byte	.LVL202
 15290 2134 88060000 		.4byte	.LFE329
 15291 2138 0100     		.2byte	0x1
 15292 213a 53       		.byte	0x53
 15293 213b 00000000 		.4byte	0
 15294 213f 00000000 		.4byte	0
 15295              	.LLST21:
 15296 2143 52020000 		.4byte	.LVL73
 15297 2147 6C020000 		.4byte	.LVL75
 15298 214b 0100     		.2byte	0x1
 15299 214d 56       		.byte	0x56
 15300 214e 6E020000 		.4byte	.LVL76
 15301 2152 82020000 		.4byte	.LVL78
 15302 2156 0100     		.2byte	0x1
 15303 2158 56       		.byte	0x56
 15304 2159 00000000 		.4byte	0
 15305 215d 00000000 		.4byte	0
 15306              	.LLST22:
 15307 2161 8A030000 		.4byte	.LVL104
 15308 2165 70040000 		.4byte	.LVL128
 15309 2169 0200     		.2byte	0x2
 15310 216b 30       		.byte	0x30
 15311 216c 9F       		.byte	0x9f
 15312 216d 1A060000 		.4byte	.LVL182
 15313 2171 36060000 		.4byte	.LVL188
 15314 2175 0200     		.2byte	0x2
 15315 2177 30       		.byte	0x30
 15316 2178 9F       		.byte	0x9f
 15317 2179 74060000 		.4byte	.LVL199
 15318 217d 78060000 		.4byte	.LVL201
 15319 2181 0200     		.2byte	0x2
 15320 2183 30       		.byte	0x30
 15321 2184 9F       		.byte	0x9f
 15322 2185 00000000 		.4byte	0
 15323 2189 00000000 		.4byte	0
 15324              	.LLST23:
ARM GAS  /tmp/ccQCTkSU.s 			page 270


 15325 218d 8A030000 		.4byte	.LVL104
 15326 2191 70040000 		.4byte	.LVL128
 15327 2195 0200     		.2byte	0x2
 15328 2197 3A       		.byte	0x3a
 15329 2198 9F       		.byte	0x9f
 15330 2199 1A060000 		.4byte	.LVL182
 15331 219d 36060000 		.4byte	.LVL188
 15332 21a1 0200     		.2byte	0x2
 15333 21a3 3A       		.byte	0x3a
 15334 21a4 9F       		.byte	0x9f
 15335 21a5 74060000 		.4byte	.LVL199
 15336 21a9 78060000 		.4byte	.LVL201
 15337 21ad 0200     		.2byte	0x2
 15338 21af 3A       		.byte	0x3a
 15339 21b0 9F       		.byte	0x9f
 15340 21b1 00000000 		.4byte	0
 15341 21b5 00000000 		.4byte	0
 15342              	.LLST24:
 15343 21b9 8E030000 		.4byte	.LVL105
 15344 21bd 90030000 		.4byte	.LVL106
 15345 21c1 0100     		.2byte	0x1
 15346 21c3 52       		.byte	0x52
 15347 21c4 AA030000 		.4byte	.LVL109
 15348 21c8 B2030000 		.4byte	.LVL110
 15349 21cc 0100     		.2byte	0x1
 15350 21ce 52       		.byte	0x52
 15351 21cf B2030000 		.4byte	.LVL110
 15352 21d3 B6030000 		.4byte	.LVL111
 15353 21d7 0100     		.2byte	0x1
 15354 21d9 54       		.byte	0x54
 15355 21da 00000000 		.4byte	0
 15356 21de 00000000 		.4byte	0
 15357              	.LLST25:
 15358 21e2 8A030000 		.4byte	.LVL104
 15359 21e6 EA030000 		.4byte	.LVL112
 15360 21ea 0100     		.2byte	0x1
 15361 21ec 56       		.byte	0x56
 15362 21ed EA030000 		.4byte	.LVL112
 15363 21f1 F6030000 		.4byte	.LVL114
 15364 21f5 0100     		.2byte	0x1
 15365 21f7 57       		.byte	0x57
 15366 21f8 F6030000 		.4byte	.LVL114
 15367 21fc FA030000 		.4byte	.LVL115
 15368 2200 0300     		.2byte	0x3
 15369 2202 70       		.byte	0x70
 15370 2203 04       		.sleb128 4
 15371 2204 9F       		.byte	0x9f
 15372 2205 FA030000 		.4byte	.LVL115
 15373 2209 06040000 		.4byte	.LVL118
 15374 220d 0100     		.2byte	0x1
 15375 220f 57       		.byte	0x57
 15376 2210 06040000 		.4byte	.LVL118
 15377 2214 08040000 		.4byte	.LVL119
 15378 2218 0300     		.2byte	0x3
 15379 221a 70       		.byte	0x70
 15380 221b 04       		.sleb128 4
 15381 221c 9F       		.byte	0x9f
ARM GAS  /tmp/ccQCTkSU.s 			page 271


 15382 221d 08040000 		.4byte	.LVL119
 15383 2221 0C040000 		.4byte	.LVL120
 15384 2225 0300     		.2byte	0x3
 15385 2227 70       		.byte	0x70
 15386 2228 05       		.sleb128 5
 15387 2229 9F       		.byte	0x9f
 15388 222a 3A040000 		.4byte	.LVL121
 15389 222e 44040000 		.4byte	.LVL122
 15390 2232 0300     		.2byte	0x3
 15391 2234 77       		.byte	0x77
 15392 2235 01       		.sleb128 1
 15393 2236 9F       		.byte	0x9f
 15394 2237 44040000 		.4byte	.LVL122
 15395 223b 4E040000 		.4byte	.LVL123
 15396 223f 0300     		.2byte	0x3
 15397 2241 77       		.byte	0x77
 15398 2242 02       		.sleb128 2
 15399 2243 9F       		.byte	0x9f
 15400 2244 4E040000 		.4byte	.LVL123
 15401 2248 58040000 		.4byte	.LVL124
 15402 224c 0300     		.2byte	0x3
 15403 224e 77       		.byte	0x77
 15404 224f 03       		.sleb128 3
 15405 2250 9F       		.byte	0x9f
 15406 2251 58040000 		.4byte	.LVL124
 15407 2255 62040000 		.4byte	.LVL125
 15408 2259 0300     		.2byte	0x3
 15409 225b 77       		.byte	0x77
 15410 225c 04       		.sleb128 4
 15411 225d 9F       		.byte	0x9f
 15412 225e 62040000 		.4byte	.LVL125
 15413 2262 6C040000 		.4byte	.LVL126
 15414 2266 0300     		.2byte	0x3
 15415 2268 77       		.byte	0x77
 15416 2269 05       		.sleb128 5
 15417 226a 9F       		.byte	0x9f
 15418 226b 6C040000 		.4byte	.LVL126
 15419 226f 70040000 		.4byte	.LVL128
 15420 2273 0300     		.2byte	0x3
 15421 2275 77       		.byte	0x77
 15422 2276 06       		.sleb128 6
 15423 2277 9F       		.byte	0x9f
 15424 2278 1A060000 		.4byte	.LVL182
 15425 227c 1E060000 		.4byte	.LVL183
 15426 2280 0100     		.2byte	0x1
 15427 2282 56       		.byte	0x56
 15428 2283 2E060000 		.4byte	.LVL186
 15429 2287 36060000 		.4byte	.LVL188
 15430 228b 0100     		.2byte	0x1
 15431 228d 56       		.byte	0x56
 15432 228e 74060000 		.4byte	.LVL199
 15433 2292 78060000 		.4byte	.LVL201
 15434 2296 0100     		.2byte	0x1
 15435 2298 56       		.byte	0x56
 15436 2299 00000000 		.4byte	0
 15437 229d 00000000 		.4byte	0
 15438              	.LLST26:
ARM GAS  /tmp/ccQCTkSU.s 			page 272


 15439 22a1 A0030000 		.4byte	.LVL107
 15440 22a5 A2030000 		.4byte	.LVL108
 15441 22a9 0300     		.2byte	0x3
 15442 22ab 73       		.byte	0x73
 15443 22ac 30       		.sleb128 48
 15444 22ad 9F       		.byte	0x9f
 15445 22ae A2030000 		.4byte	.LVL108
 15446 22b2 AA030000 		.4byte	.LVL109
 15447 22b6 0100     		.2byte	0x1
 15448 22b8 53       		.byte	0x53
 15449 22b9 B6030000 		.4byte	.LVL111
 15450 22bd EA030000 		.4byte	.LVL112
 15451 22c1 0100     		.2byte	0x1
 15452 22c3 54       		.byte	0x54
 15453 22c4 EA030000 		.4byte	.LVL112
 15454 22c8 FA030000 		.4byte	.LVL115
 15455 22cc 0100     		.2byte	0x1
 15456 22ce 5E       		.byte	0x5e
 15457 22cf FA030000 		.4byte	.LVL115
 15458 22d3 FE030000 		.4byte	.LVL116
 15459 22d7 0300     		.2byte	0x3
 15460 22d9 74       		.byte	0x74
 15461 22da 7E       		.sleb128 -2
 15462 22db 9F       		.byte	0x9f
 15463 22dc FE030000 		.4byte	.LVL116
 15464 22e0 08040000 		.4byte	.LVL119
 15465 22e4 0100     		.2byte	0x1
 15466 22e6 5E       		.byte	0x5e
 15467 22e7 08040000 		.4byte	.LVL119
 15468 22eb 0C040000 		.4byte	.LVL120
 15469 22ef 0300     		.2byte	0x3
 15470 22f1 74       		.byte	0x74
 15471 22f2 7D       		.sleb128 -3
 15472 22f3 9F       		.byte	0x9f
 15473 22f4 1A060000 		.4byte	.LVL182
 15474 22f8 36060000 		.4byte	.LVL188
 15475 22fc 0100     		.2byte	0x1
 15476 22fe 54       		.byte	0x54
 15477 22ff 74060000 		.4byte	.LVL199
 15478 2303 78060000 		.4byte	.LVL201
 15479 2307 0100     		.2byte	0x1
 15480 2309 54       		.byte	0x54
 15481 230a 00000000 		.4byte	0
 15482 230e 00000000 		.4byte	0
 15483              	.LLST27:
 15484 2312 8A030000 		.4byte	.LVL104
 15485 2316 8E030000 		.4byte	.LVL105
 15486 231a 0100     		.2byte	0x1
 15487 231c 55       		.byte	0x55
 15488 231d 8E030000 		.4byte	.LVL105
 15489 2321 90030000 		.4byte	.LVL106
 15490 2325 0100     		.2byte	0x1
 15491 2327 53       		.byte	0x53
 15492 2328 90030000 		.4byte	.LVL106
 15493 232c AA030000 		.4byte	.LVL109
 15494 2330 0100     		.2byte	0x1
 15495 2332 55       		.byte	0x55
ARM GAS  /tmp/ccQCTkSU.s 			page 273


 15496 2333 AA030000 		.4byte	.LVL109
 15497 2337 EC030000 		.4byte	.LVL113
 15498 233b 0100     		.2byte	0x1
 15499 233d 53       		.byte	0x53
 15500 233e EC030000 		.4byte	.LVL113
 15501 2342 00040000 		.4byte	.LVL117
 15502 2346 0300     		.2byte	0x3
 15503 2348 73       		.byte	0x73
 15504 2349 02       		.sleb128 2
 15505 234a 9F       		.byte	0x9f
 15506 234b 00040000 		.4byte	.LVL117
 15507 234f 08040000 		.4byte	.LVL119
 15508 2353 0300     		.2byte	0x3
 15509 2355 73       		.byte	0x73
 15510 2356 03       		.sleb128 3
 15511 2357 9F       		.byte	0x9f
 15512 2358 08040000 		.4byte	.LVL119
 15513 235c 0C040000 		.4byte	.LVL120
 15514 2360 0100     		.2byte	0x1
 15515 2362 55       		.byte	0x55
 15516 2363 3A040000 		.4byte	.LVL121
 15517 2367 44040000 		.4byte	.LVL122
 15518 236b 0300     		.2byte	0x3
 15519 236d 73       		.byte	0x73
 15520 236e 01       		.sleb128 1
 15521 236f 9F       		.byte	0x9f
 15522 2370 44040000 		.4byte	.LVL122
 15523 2374 4E040000 		.4byte	.LVL123
 15524 2378 0300     		.2byte	0x3
 15525 237a 73       		.byte	0x73
 15526 237b 02       		.sleb128 2
 15527 237c 9F       		.byte	0x9f
 15528 237d 4E040000 		.4byte	.LVL123
 15529 2381 58040000 		.4byte	.LVL124
 15530 2385 0300     		.2byte	0x3
 15531 2387 73       		.byte	0x73
 15532 2388 03       		.sleb128 3
 15533 2389 9F       		.byte	0x9f
 15534 238a 58040000 		.4byte	.LVL124
 15535 238e 62040000 		.4byte	.LVL125
 15536 2392 0300     		.2byte	0x3
 15537 2394 73       		.byte	0x73
 15538 2395 04       		.sleb128 4
 15539 2396 9F       		.byte	0x9f
 15540 2397 62040000 		.4byte	.LVL125
 15541 239b 6C040000 		.4byte	.LVL126
 15542 239f 0300     		.2byte	0x3
 15543 23a1 73       		.byte	0x73
 15544 23a2 05       		.sleb128 5
 15545 23a3 9F       		.byte	0x9f
 15546 23a4 6C040000 		.4byte	.LVL126
 15547 23a8 6E040000 		.4byte	.LVL127
 15548 23ac 0300     		.2byte	0x3
 15549 23ae 73       		.byte	0x73
 15550 23af 06       		.sleb128 6
 15551 23b0 9F       		.byte	0x9f
 15552 23b1 1A060000 		.4byte	.LVL182
ARM GAS  /tmp/ccQCTkSU.s 			page 274


 15553 23b5 22060000 		.4byte	.LVL184
 15554 23b9 0100     		.2byte	0x1
 15555 23bb 53       		.byte	0x53
 15556 23bc 22060000 		.4byte	.LVL184
 15557 23c0 2E060000 		.4byte	.LVL186
 15558 23c4 0300     		.2byte	0x3
 15559 23c6 73       		.byte	0x73
 15560 23c7 7F       		.sleb128 -1
 15561 23c8 9F       		.byte	0x9f
 15562 23c9 2E060000 		.4byte	.LVL186
 15563 23cd 36060000 		.4byte	.LVL188
 15564 23d1 0100     		.2byte	0x1
 15565 23d3 53       		.byte	0x53
 15566 23d4 74060000 		.4byte	.LVL199
 15567 23d8 78060000 		.4byte	.LVL201
 15568 23dc 0100     		.2byte	0x1
 15569 23de 53       		.byte	0x53
 15570 23df 00000000 		.4byte	0
 15571 23e3 00000000 		.4byte	0
 15572              	.LLST30:
 15573 23e7 EC040000 		.4byte	.LVL146
 15574 23eb E6050000 		.4byte	.LVL173
 15575 23ef 0200     		.2byte	0x2
 15576 23f1 30       		.byte	0x30
 15577 23f2 9F       		.byte	0x9f
 15578 23f3 3C060000 		.4byte	.LVL189
 15579 23f7 50060000 		.4byte	.LVL193
 15580 23fb 0200     		.2byte	0x2
 15581 23fd 30       		.byte	0x30
 15582 23fe 9F       		.byte	0x9f
 15583 23ff 64060000 		.4byte	.LVL197
 15584 2403 6C060000 		.4byte	.LVL198
 15585 2407 0200     		.2byte	0x2
 15586 2409 30       		.byte	0x30
 15587 240a 9F       		.byte	0x9f
 15588 240b 78060000 		.4byte	.LVL201
 15589 240f 7C060000 		.4byte	.LVL202
 15590 2413 0200     		.2byte	0x2
 15591 2415 30       		.byte	0x30
 15592 2416 9F       		.byte	0x9f
 15593 2417 00000000 		.4byte	0
 15594 241b 00000000 		.4byte	0
 15595              	.LLST31:
 15596 241f EC040000 		.4byte	.LVL146
 15597 2423 E6050000 		.4byte	.LVL173
 15598 2427 0200     		.2byte	0x2
 15599 2429 3A       		.byte	0x3a
 15600 242a 9F       		.byte	0x9f
 15601 242b 3C060000 		.4byte	.LVL189
 15602 242f 50060000 		.4byte	.LVL193
 15603 2433 0200     		.2byte	0x2
 15604 2435 3A       		.byte	0x3a
 15605 2436 9F       		.byte	0x9f
 15606 2437 64060000 		.4byte	.LVL197
 15607 243b 6C060000 		.4byte	.LVL198
 15608 243f 0200     		.2byte	0x2
 15609 2441 3A       		.byte	0x3a
ARM GAS  /tmp/ccQCTkSU.s 			page 275


 15610 2442 9F       		.byte	0x9f
 15611 2443 78060000 		.4byte	.LVL201
 15612 2447 7C060000 		.4byte	.LVL202
 15613 244b 0200     		.2byte	0x2
 15614 244d 3A       		.byte	0x3a
 15615 244e 9F       		.byte	0x9f
 15616 244f 00000000 		.4byte	0
 15617 2453 00000000 		.4byte	0
 15618              	.LLST32:
 15619 2457 EC040000 		.4byte	.LVL146
 15620 245b F0040000 		.4byte	.LVL147
 15621 245f 0100     		.2byte	0x1
 15622 2461 54       		.byte	0x54
 15623 2462 00000000 		.4byte	0
 15624 2466 00000000 		.4byte	0
 15625              	.LLST33:
 15626 246a EC040000 		.4byte	.LVL146
 15627 246e 4C050000 		.4byte	.LVL156
 15628 2472 0100     		.2byte	0x1
 15629 2474 56       		.byte	0x56
 15630 2475 4C050000 		.4byte	.LVL156
 15631 2479 58050000 		.4byte	.LVL158
 15632 247d 0100     		.2byte	0x1
 15633 247f 5C       		.byte	0x5c
 15634 2480 58050000 		.4byte	.LVL158
 15635 2484 5C050000 		.4byte	.LVL159
 15636 2488 0300     		.2byte	0x3
 15637 248a 70       		.byte	0x70
 15638 248b 04       		.sleb128 4
 15639 248c 9F       		.byte	0x9f
 15640 248d 5C050000 		.4byte	.LVL159
 15641 2491 6A050000 		.4byte	.LVL162
 15642 2495 0100     		.2byte	0x1
 15643 2497 5C       		.byte	0x5c
 15644 2498 6A050000 		.4byte	.LVL162
 15645 249c 6C050000 		.4byte	.LVL163
 15646 24a0 0300     		.2byte	0x3
 15647 24a2 70       		.byte	0x70
 15648 24a3 04       		.sleb128 4
 15649 24a4 9F       		.byte	0x9f
 15650 24a5 6C050000 		.4byte	.LVL163
 15651 24a9 70050000 		.4byte	.LVL164
 15652 24ad 0300     		.2byte	0x3
 15653 24af 70       		.byte	0x70
 15654 24b0 05       		.sleb128 5
 15655 24b1 9F       		.byte	0x9f
 15656 24b2 A0050000 		.4byte	.LVL165
 15657 24b6 AC050000 		.4byte	.LVL166
 15658 24ba 0300     		.2byte	0x3
 15659 24bc 7C       		.byte	0x7c
 15660 24bd 01       		.sleb128 1
 15661 24be 9F       		.byte	0x9f
 15662 24bf AC050000 		.4byte	.LVL166
 15663 24c3 B8050000 		.4byte	.LVL167
 15664 24c7 0300     		.2byte	0x3
 15665 24c9 7C       		.byte	0x7c
 15666 24ca 02       		.sleb128 2
ARM GAS  /tmp/ccQCTkSU.s 			page 276


 15667 24cb 9F       		.byte	0x9f
 15668 24cc B8050000 		.4byte	.LVL167
 15669 24d0 C4050000 		.4byte	.LVL168
 15670 24d4 0300     		.2byte	0x3
 15671 24d6 7C       		.byte	0x7c
 15672 24d7 03       		.sleb128 3
 15673 24d8 9F       		.byte	0x9f
 15674 24d9 C4050000 		.4byte	.LVL168
 15675 24dd D0050000 		.4byte	.LVL169
 15676 24e1 0300     		.2byte	0x3
 15677 24e3 7C       		.byte	0x7c
 15678 24e4 04       		.sleb128 4
 15679 24e5 9F       		.byte	0x9f
 15680 24e6 D0050000 		.4byte	.LVL169
 15681 24ea DC050000 		.4byte	.LVL170
 15682 24ee 0300     		.2byte	0x3
 15683 24f0 7C       		.byte	0x7c
 15684 24f1 05       		.sleb128 5
 15685 24f2 9F       		.byte	0x9f
 15686 24f3 DC050000 		.4byte	.LVL170
 15687 24f7 E6050000 		.4byte	.LVL173
 15688 24fb 0300     		.2byte	0x3
 15689 24fd 7C       		.byte	0x7c
 15690 24fe 06       		.sleb128 6
 15691 24ff 9F       		.byte	0x9f
 15692 2500 3C060000 		.4byte	.LVL189
 15693 2504 40060000 		.4byte	.LVL190
 15694 2508 0100     		.2byte	0x1
 15695 250a 56       		.byte	0x56
 15696 250b 64060000 		.4byte	.LVL197
 15697 250f 6C060000 		.4byte	.LVL198
 15698 2513 0100     		.2byte	0x1
 15699 2515 56       		.byte	0x56
 15700 2516 78060000 		.4byte	.LVL201
 15701 251a 7C060000 		.4byte	.LVL202
 15702 251e 0100     		.2byte	0x1
 15703 2520 56       		.byte	0x56
 15704 2521 00000000 		.4byte	0
 15705 2525 00000000 		.4byte	0
 15706              	.LLST34:
 15707 2529 02050000 		.4byte	.LVL149
 15708 252d 04050000 		.4byte	.LVL150
 15709 2531 0300     		.2byte	0x3
 15710 2533 73       		.byte	0x73
 15711 2534 30       		.sleb128 48
 15712 2535 9F       		.byte	0x9f
 15713 2536 04050000 		.4byte	.LVL150
 15714 253a 0C050000 		.4byte	.LVL152
 15715 253e 0100     		.2byte	0x1
 15716 2540 53       		.byte	0x53
 15717 2541 18050000 		.4byte	.LVL154
 15718 2545 4C050000 		.4byte	.LVL156
 15719 2549 0100     		.2byte	0x1
 15720 254b 54       		.byte	0x54
 15721 254c 4C050000 		.4byte	.LVL156
 15722 2550 5C050000 		.4byte	.LVL159
 15723 2554 0100     		.2byte	0x1
ARM GAS  /tmp/ccQCTkSU.s 			page 277


 15724 2556 5E       		.byte	0x5e
 15725 2557 5C050000 		.4byte	.LVL159
 15726 255b 60050000 		.4byte	.LVL160
 15727 255f 0300     		.2byte	0x3
 15728 2561 74       		.byte	0x74
 15729 2562 7E       		.sleb128 -2
 15730 2563 9F       		.byte	0x9f
 15731 2564 60050000 		.4byte	.LVL160
 15732 2568 6C050000 		.4byte	.LVL163
 15733 256c 0100     		.2byte	0x1
 15734 256e 5E       		.byte	0x5e
 15735 256f 6C050000 		.4byte	.LVL163
 15736 2573 70050000 		.4byte	.LVL164
 15737 2577 0300     		.2byte	0x3
 15738 2579 74       		.byte	0x74
 15739 257a 7D       		.sleb128 -3
 15740 257b 9F       		.byte	0x9f
 15741 257c 3C060000 		.4byte	.LVL189
 15742 2580 50060000 		.4byte	.LVL193
 15743 2584 0100     		.2byte	0x1
 15744 2586 54       		.byte	0x54
 15745 2587 64060000 		.4byte	.LVL197
 15746 258b 6C060000 		.4byte	.LVL198
 15747 258f 0100     		.2byte	0x1
 15748 2591 54       		.byte	0x54
 15749 2592 78060000 		.4byte	.LVL201
 15750 2596 7C060000 		.4byte	.LVL202
 15751 259a 0100     		.2byte	0x1
 15752 259c 54       		.byte	0x54
 15753 259d 00000000 		.4byte	0
 15754 25a1 00000000 		.4byte	0
 15755              	.LLST35:
 15756 25a5 EC040000 		.4byte	.LVL146
 15757 25a9 F0040000 		.4byte	.LVL147
 15758 25ad 0100     		.2byte	0x1
 15759 25af 55       		.byte	0x55
 15760 25b0 F0040000 		.4byte	.LVL147
 15761 25b4 F2040000 		.4byte	.LVL148
 15762 25b8 0100     		.2byte	0x1
 15763 25ba 53       		.byte	0x53
 15764 25bb F2040000 		.4byte	.LVL148
 15765 25bf 0C050000 		.4byte	.LVL152
 15766 25c3 0100     		.2byte	0x1
 15767 25c5 55       		.byte	0x55
 15768 25c6 0C050000 		.4byte	.LVL152
 15769 25ca 4E050000 		.4byte	.LVL157
 15770 25ce 0100     		.2byte	0x1
 15771 25d0 53       		.byte	0x53
 15772 25d1 4E050000 		.4byte	.LVL157
 15773 25d5 62050000 		.4byte	.LVL161
 15774 25d9 0300     		.2byte	0x3
 15775 25db 73       		.byte	0x73
 15776 25dc 02       		.sleb128 2
 15777 25dd 9F       		.byte	0x9f
 15778 25de 62050000 		.4byte	.LVL161
 15779 25e2 6C050000 		.4byte	.LVL163
 15780 25e6 0300     		.2byte	0x3
ARM GAS  /tmp/ccQCTkSU.s 			page 278


 15781 25e8 73       		.byte	0x73
 15782 25e9 03       		.sleb128 3
 15783 25ea 9F       		.byte	0x9f
 15784 25eb 6C050000 		.4byte	.LVL163
 15785 25ef 70050000 		.4byte	.LVL164
 15786 25f3 0100     		.2byte	0x1
 15787 25f5 55       		.byte	0x55
 15788 25f6 A0050000 		.4byte	.LVL165
 15789 25fa AC050000 		.4byte	.LVL166
 15790 25fe 0300     		.2byte	0x3
 15791 2600 73       		.byte	0x73
 15792 2601 01       		.sleb128 1
 15793 2602 9F       		.byte	0x9f
 15794 2603 AC050000 		.4byte	.LVL166
 15795 2607 B8050000 		.4byte	.LVL167
 15796 260b 0300     		.2byte	0x3
 15797 260d 73       		.byte	0x73
 15798 260e 02       		.sleb128 2
 15799 260f 9F       		.byte	0x9f
 15800 2610 B8050000 		.4byte	.LVL167
 15801 2614 C4050000 		.4byte	.LVL168
 15802 2618 0300     		.2byte	0x3
 15803 261a 73       		.byte	0x73
 15804 261b 03       		.sleb128 3
 15805 261c 9F       		.byte	0x9f
 15806 261d C4050000 		.4byte	.LVL168
 15807 2621 D0050000 		.4byte	.LVL169
 15808 2625 0300     		.2byte	0x3
 15809 2627 73       		.byte	0x73
 15810 2628 04       		.sleb128 4
 15811 2629 9F       		.byte	0x9f
 15812 262a D0050000 		.4byte	.LVL169
 15813 262e DC050000 		.4byte	.LVL170
 15814 2632 0300     		.2byte	0x3
 15815 2634 73       		.byte	0x73
 15816 2635 05       		.sleb128 5
 15817 2636 9F       		.byte	0x9f
 15818 2637 DC050000 		.4byte	.LVL170
 15819 263b DE050000 		.4byte	.LVL171
 15820 263f 0300     		.2byte	0x3
 15821 2641 73       		.byte	0x73
 15822 2642 06       		.sleb128 6
 15823 2643 9F       		.byte	0x9f
 15824 2644 3C060000 		.4byte	.LVL189
 15825 2648 44060000 		.4byte	.LVL191
 15826 264c 0100     		.2byte	0x1
 15827 264e 53       		.byte	0x53
 15828 264f 44060000 		.4byte	.LVL191
 15829 2653 50060000 		.4byte	.LVL193
 15830 2657 0300     		.2byte	0x3
 15831 2659 73       		.byte	0x73
 15832 265a 7F       		.sleb128 -1
 15833 265b 9F       		.byte	0x9f
 15834 265c 64060000 		.4byte	.LVL197
 15835 2660 6C060000 		.4byte	.LVL198
 15836 2664 0100     		.2byte	0x1
 15837 2666 53       		.byte	0x53
ARM GAS  /tmp/ccQCTkSU.s 			page 279


 15838 2667 78060000 		.4byte	.LVL201
 15839 266b 7C060000 		.4byte	.LVL202
 15840 266f 0100     		.2byte	0x1
 15841 2671 53       		.byte	0x53
 15842 2672 00000000 		.4byte	0
 15843 2676 00000000 		.4byte	0
 15844              	.LLST36:
 15845 267a EC040000 		.4byte	.LVL146
 15846 267e F0040000 		.4byte	.LVL147
 15847 2682 0100     		.2byte	0x1
 15848 2684 54       		.byte	0x54
 15849 2685 F0040000 		.4byte	.LVL147
 15850 2689 F2040000 		.4byte	.LVL148
 15851 268d 0100     		.2byte	0x1
 15852 268f 52       		.byte	0x52
 15853 2690 F2040000 		.4byte	.LVL148
 15854 2694 0A050000 		.4byte	.LVL151
 15855 2698 0100     		.2byte	0x1
 15856 269a 54       		.byte	0x54
 15857 269b 0C050000 		.4byte	.LVL152
 15858 269f 14050000 		.4byte	.LVL153
 15859 26a3 0100     		.2byte	0x1
 15860 26a5 52       		.byte	0x52
 15861 26a6 14050000 		.4byte	.LVL153
 15862 26aa 18050000 		.4byte	.LVL154
 15863 26ae 0100     		.2byte	0x1
 15864 26b0 54       		.byte	0x54
 15865 26b1 00000000 		.4byte	0
 15866 26b5 00000000 		.4byte	0
 15867              	.LLST77:
 15868 26b9 00000000 		.4byte	.LVL404
 15869 26bd 14000000 		.4byte	.LVL408
 15870 26c1 0100     		.2byte	0x1
 15871 26c3 50       		.byte	0x50
 15872 26c4 14000000 		.4byte	.LVL408
 15873 26c8 32000000 		.4byte	.LVL413
 15874 26cc 0100     		.2byte	0x1
 15875 26ce 55       		.byte	0x55
 15876 26cf 32000000 		.4byte	.LVL413
 15877 26d3 38000000 		.4byte	.LVL416
 15878 26d7 0100     		.2byte	0x1
 15879 26d9 50       		.byte	0x50
 15880 26da 38000000 		.4byte	.LVL416
 15881 26de 4C000000 		.4byte	.LFE333
 15882 26e2 0100     		.2byte	0x1
 15883 26e4 55       		.byte	0x55
 15884 26e5 00000000 		.4byte	0
 15885 26e9 00000000 		.4byte	0
 15886              	.LLST78:
 15887 26ed 00000000 		.4byte	.LVL404
 15888 26f1 16000000 		.4byte	.LVL409
 15889 26f5 0100     		.2byte	0x1
 15890 26f7 51       		.byte	0x51
 15891 26f8 16000000 		.4byte	.LVL409
 15892 26fc 32000000 		.4byte	.LVL413
 15893 2700 0100     		.2byte	0x1
 15894 2702 54       		.byte	0x54
ARM GAS  /tmp/ccQCTkSU.s 			page 280


 15895 2703 32000000 		.4byte	.LVL413
 15896 2707 34000000 		.4byte	.LVL414
 15897 270b 0100     		.2byte	0x1
 15898 270d 51       		.byte	0x51
 15899 270e 34000000 		.4byte	.LVL414
 15900 2712 4C000000 		.4byte	.LFE333
 15901 2716 0100     		.2byte	0x1
 15902 2718 54       		.byte	0x54
 15903 2719 00000000 		.4byte	0
 15904 271d 00000000 		.4byte	0
 15905              	.LLST79:
 15906 2721 00000000 		.4byte	.LVL404
 15907 2725 12000000 		.4byte	.LVL407
 15908 2729 0100     		.2byte	0x1
 15909 272b 52       		.byte	0x52
 15910 272c 12000000 		.4byte	.LVL407
 15911 2730 32000000 		.4byte	.LVL413
 15912 2734 0100     		.2byte	0x1
 15913 2736 56       		.byte	0x56
 15914 2737 32000000 		.4byte	.LVL413
 15915 273b 3A000000 		.4byte	.LVL417
 15916 273f 0100     		.2byte	0x1
 15917 2741 52       		.byte	0x52
 15918 2742 3A000000 		.4byte	.LVL417
 15919 2746 4C000000 		.4byte	.LFE333
 15920 274a 0100     		.2byte	0x1
 15921 274c 56       		.byte	0x56
 15922 274d 00000000 		.4byte	0
 15923 2751 00000000 		.4byte	0
 15924              	.LLST80:
 15925 2755 00000000 		.4byte	.LVL404
 15926 2759 10000000 		.4byte	.LVL406
 15927 275d 0100     		.2byte	0x1
 15928 275f 53       		.byte	0x53
 15929 2760 1A000000 		.4byte	.LVL410
 15930 2764 32000000 		.4byte	.LVL413
 15931 2768 0100     		.2byte	0x1
 15932 276a 57       		.byte	0x57
 15933 276b 32000000 		.4byte	.LVL413
 15934 276f 36000000 		.4byte	.LVL415
 15935 2773 0100     		.2byte	0x1
 15936 2775 53       		.byte	0x53
 15937 2776 3E000000 		.4byte	.LVL418
 15938 277a 4C000000 		.4byte	.LFE333
 15939 277e 0100     		.2byte	0x1
 15940 2780 57       		.byte	0x57
 15941 2781 00000000 		.4byte	0
 15942 2785 00000000 		.4byte	0
 15943              	.LLST81:
 15944 2789 1A000000 		.4byte	.LVL410
 15945 278d 20000000 		.4byte	.LVL411
 15946 2791 0300     		.2byte	0x3
 15947 2793 91       		.byte	0x91
 15948 2794 54       		.sleb128 -44
 15949 2795 9F       		.byte	0x9f
 15950 2796 20000000 		.4byte	.LVL411
 15951 279a 23000000 		.4byte	.LVL412-1
ARM GAS  /tmp/ccQCTkSU.s 			page 281


 15952 279e 0100     		.2byte	0x1
 15953 27a0 50       		.byte	0x50
 15954 27a1 23000000 		.4byte	.LVL412-1
 15955 27a5 32000000 		.4byte	.LVL413
 15956 27a9 0300     		.2byte	0x3
 15957 27ab 91       		.byte	0x91
 15958 27ac 54       		.sleb128 -44
 15959 27ad 9F       		.byte	0x9f
 15960 27ae 3E000000 		.4byte	.LVL418
 15961 27b2 44000000 		.4byte	.LVL419
 15962 27b6 0300     		.2byte	0x3
 15963 27b8 91       		.byte	0x91
 15964 27b9 54       		.sleb128 -44
 15965 27ba 9F       		.byte	0x9f
 15966 27bb 44000000 		.4byte	.LVL419
 15967 27bf 47000000 		.4byte	.LVL420-1
 15968 27c3 0100     		.2byte	0x1
 15969 27c5 50       		.byte	0x50
 15970 27c6 47000000 		.4byte	.LVL420-1
 15971 27ca 4C000000 		.4byte	.LFE333
 15972 27ce 0300     		.2byte	0x3
 15973 27d0 91       		.byte	0x91
 15974 27d1 54       		.sleb128 -44
 15975 27d2 9F       		.byte	0x9f
 15976 27d3 00000000 		.4byte	0
 15977 27d7 00000000 		.4byte	0
 15978              	.LLST82:
 15979 27db 0E000000 		.4byte	.LVL405
 15980 27df 12000000 		.4byte	.LVL407
 15981 27e3 0300     		.2byte	0x3
 15982 27e5 71       		.byte	0x71
 15983 27e6 7F       		.sleb128 -1
 15984 27e7 9F       		.byte	0x9f
 15985 27e8 12000000 		.4byte	.LVL407
 15986 27ec 19000000 		.4byte	.LVL410-1
 15987 27f0 0100     		.2byte	0x1
 15988 27f2 52       		.byte	0x52
 15989 27f3 19000000 		.4byte	.LVL410-1
 15990 27f7 32000000 		.4byte	.LVL413
 15991 27fb 0300     		.2byte	0x3
 15992 27fd 74       		.byte	0x74
 15993 27fe 7F       		.sleb128 -1
 15994 27ff 9F       		.byte	0x9f
 15995 2800 32000000 		.4byte	.LVL413
 15996 2804 4C000000 		.4byte	.LFE333
 15997 2808 0200     		.2byte	0x2
 15998 280a 30       		.byte	0x30
 15999 280b 9F       		.byte	0x9f
 16000 280c 00000000 		.4byte	0
 16001 2810 00000000 		.4byte	0
 16002              	.LLST83:
 16003 2814 24000000 		.4byte	.LVL412
 16004 2818 32000000 		.4byte	.LVL413
 16005 281c 0100     		.2byte	0x1
 16006 281e 50       		.byte	0x50
 16007 281f 48000000 		.4byte	.LVL420
 16008 2823 4C000000 		.4byte	.LFE333
ARM GAS  /tmp/ccQCTkSU.s 			page 282


 16009 2827 0100     		.2byte	0x1
 16010 2829 50       		.byte	0x50
 16011 282a 00000000 		.4byte	0
 16012 282e 00000000 		.4byte	0
 16013              		.section	.debug_aranges,"",%progbits
 16014 0000 3C000000 		.4byte	0x3c
 16015 0004 0200     		.2byte	0x2
 16016 0006 00000000 		.4byte	.Ldebug_info0
 16017 000a 04       		.byte	0x4
 16018 000b 00       		.byte	0
 16019 000c 0000     		.2byte	0
 16020 000e 0000     		.2byte	0
 16021 0010 00000000 		.4byte	.LFB329
 16022 0014 88060000 		.4byte	.LFE329-.LFB329
 16023 0018 00000000 		.4byte	.LFB330
 16024 001c D4050000 		.4byte	.LFE330-.LFB330
 16025 0020 00000000 		.4byte	.LFB331
 16026 0024 1C000000 		.4byte	.LFE331-.LFB331
 16027 0028 00000000 		.4byte	.LFB332
 16028 002c 5E000000 		.4byte	.LFE332-.LFB332
 16029 0030 00000000 		.4byte	.LFB333
 16030 0034 4C000000 		.4byte	.LFE333-.LFB333
 16031 0038 00000000 		.4byte	0
 16032 003c 00000000 		.4byte	0
 16033              		.section	.debug_ranges,"",%progbits
 16034              	.Ldebug_ranges0:
 16035 0000 72000000 		.4byte	.LBB38
 16036 0004 72040000 		.4byte	.LBE38
 16037 0008 7A040000 		.4byte	.LBB86
 16038 000c E6050000 		.4byte	.LBE86
 16039 0010 FA050000 		.4byte	.LBB87
 16040 0014 88060000 		.4byte	.LBE87
 16041 0018 00000000 		.4byte	0
 16042 001c 00000000 		.4byte	0
 16043 0020 06010000 		.4byte	.LBB40
 16044 0024 72040000 		.4byte	.LBE40
 16045 0028 DE040000 		.4byte	.LBB81
 16046 002c E6050000 		.4byte	.LBE81
 16047 0030 FA050000 		.4byte	.LBB82
 16048 0034 16060000 		.4byte	.LBE82
 16049 0038 1E060000 		.4byte	.LBB83
 16050 003c 88060000 		.4byte	.LBE83
 16051 0040 00000000 		.4byte	0
 16052 0044 00000000 		.4byte	0
 16053 0048 06010000 		.4byte	.LBB41
 16054 004c 00020000 		.4byte	.LBE41
 16055 0050 FA050000 		.4byte	.LBB74
 16056 0054 16060000 		.4byte	.LBE74
 16057 0058 36060000 		.4byte	.LBB76
 16058 005c 40060000 		.4byte	.LBE76
 16059 0060 00000000 		.4byte	0
 16060 0064 00000000 		.4byte	0
 16061 0068 46020000 		.4byte	.LBB45
 16062 006c 4A020000 		.4byte	.LBE45
 16063 0070 52020000 		.4byte	.LBB52
 16064 0074 AE020000 		.4byte	.LBE52
 16065 0078 D4020000 		.4byte	.LBB53
ARM GAS  /tmp/ccQCTkSU.s 			page 283


 16066 007c 16030000 		.4byte	.LBE53
 16067 0080 1C030000 		.4byte	.LBB54
 16068 0084 72030000 		.4byte	.LBE54
 16069 0088 56060000 		.4byte	.LBB78
 16070 008c 64060000 		.4byte	.LBE78
 16071 0090 6C060000 		.4byte	.LBB80
 16072 0094 70060000 		.4byte	.LBE80
 16073 0098 00000000 		.4byte	0
 16074 009c 00000000 		.4byte	0
 16075 00a0 80030000 		.4byte	.LBB55
 16076 00a4 84030000 		.4byte	.LBE55
 16077 00a8 86030000 		.4byte	.LBB61
 16078 00ac 88030000 		.4byte	.LBE61
 16079 00b0 8A030000 		.4byte	.LBB62
 16080 00b4 18040000 		.4byte	.LBE62
 16081 00b8 1C040000 		.4byte	.LBB63
 16082 00bc 72040000 		.4byte	.LBE63
 16083 00c0 1E060000 		.4byte	.LBB75
 16084 00c4 32060000 		.4byte	.LBE75
 16085 00c8 00000000 		.4byte	0
 16086 00cc 00000000 		.4byte	0
 16087 00d0 E0040000 		.4byte	.LBB64
 16088 00d4 E4040000 		.4byte	.LBE64
 16089 00d8 E8040000 		.4byte	.LBB71
 16090 00dc EA040000 		.4byte	.LBE71
 16091 00e0 EC040000 		.4byte	.LBB72
 16092 00e4 7C050000 		.4byte	.LBE72
 16093 00e8 80050000 		.4byte	.LBB73
 16094 00ec E6050000 		.4byte	.LBE73
 16095 00f0 40060000 		.4byte	.LBB77
 16096 00f4 56060000 		.4byte	.LBE77
 16097 00f8 64060000 		.4byte	.LBB79
 16098 00fc 68060000 		.4byte	.LBE79
 16099 0100 00000000 		.4byte	0
 16100 0104 00000000 		.4byte	0
 16101 0108 BE010000 		.4byte	.LBB88
 16102 010c 00020000 		.4byte	.LBE88
 16103 0110 02020000 		.4byte	.LBB107
 16104 0114 2A020000 		.4byte	.LBE107
 16105 0118 2C020000 		.4byte	.LBB108
 16106 011c 40020000 		.4byte	.LBE108
 16107 0120 42020000 		.4byte	.LBB109
 16108 0124 44020000 		.4byte	.LBE109
 16109 0128 46020000 		.4byte	.LBB110
 16110 012c 5C020000 		.4byte	.LBE110
 16111 0130 E0020000 		.4byte	.LBB111
 16112 0134 76030000 		.4byte	.LBE111
 16113 0138 90030000 		.4byte	.LBB112
 16114 013c 94030000 		.4byte	.LBE112
 16115 0140 98030000 		.4byte	.LBB113
 16116 0144 B2030000 		.4byte	.LBE113
 16117 0148 E8030000 		.4byte	.LBB114
 16118 014c F4030000 		.4byte	.LBE114
 16119 0150 F8030000 		.4byte	.LBB115
 16120 0154 12050000 		.4byte	.LBE115
 16121 0158 18050000 		.4byte	.LBB116
 16122 015c 34050000 		.4byte	.LBE116
ARM GAS  /tmp/ccQCTkSU.s 			page 284


 16123 0160 3A050000 		.4byte	.LBB117
 16124 0164 D4050000 		.4byte	.LBE117
 16125 0168 00000000 		.4byte	0
 16126 016c 00000000 		.4byte	0
 16127 0170 E2020000 		.4byte	.LBB89
 16128 0174 76030000 		.4byte	.LBE89
 16129 0178 A6030000 		.4byte	.LBB98
 16130 017c B2030000 		.4byte	.LBE98
 16131 0180 6E050000 		.4byte	.LBB104
 16132 0184 80050000 		.4byte	.LBE104
 16133 0188 9C050000 		.4byte	.LBB105
 16134 018c AA050000 		.4byte	.LBE105
 16135 0190 00000000 		.4byte	0
 16136 0194 00000000 		.4byte	0
 16137 0198 F8030000 		.4byte	.LBB99
 16138 019c 12050000 		.4byte	.LBE99
 16139 01a0 AA050000 		.4byte	.LBB106
 16140 01a4 C4050000 		.4byte	.LBE106
 16141 01a8 00000000 		.4byte	0
 16142 01ac 00000000 		.4byte	0
 16143 01b0 10000000 		.4byte	.LBB120
 16144 01b4 34000000 		.4byte	.LBE120
 16145 01b8 3E000000 		.4byte	.LBB123
 16146 01bc 54000000 		.4byte	.LBE123
 16147 01c0 00000000 		.4byte	0
 16148 01c4 00000000 		.4byte	0
 16149 01c8 00000000 		.4byte	.LFB329
 16150 01cc 88060000 		.4byte	.LFE329
 16151 01d0 00000000 		.4byte	.LFB330
 16152 01d4 D4050000 		.4byte	.LFE330
 16153 01d8 00000000 		.4byte	.LFB331
 16154 01dc 1C000000 		.4byte	.LFE331
 16155 01e0 00000000 		.4byte	.LFB332
 16156 01e4 5E000000 		.4byte	.LFE332
 16157 01e8 00000000 		.4byte	.LFB333
 16158 01ec 4C000000 		.4byte	.LFE333
 16159 01f0 00000000 		.4byte	0
 16160 01f4 00000000 		.4byte	0
 16161              		.section	.debug_line,"",%progbits
 16162              	.Ldebug_line0:
 16163 0000 760A0000 		.section	.debug_str,"MS",%progbits,1
 16163      02005207 
 16163      00000201 
 16163      FB0E0D00 
 16163      01010101 
 16164              	.LASF625:
 16165 0000 5F6F6E5F 		.ascii	"_on_exit_args_ptr\000"
 16165      65786974 
 16165      5F617267 
 16165      735F7074 
 16165      7200
 16166              	.LASF195:
 16167 0012 63685F6D 		.ascii	"ch_memcore\000"
 16167      656D636F 
 16167      726500
 16168              	.LASF153:
 16169 001d 73656E74 		.ascii	"sentmsg\000"
ARM GAS  /tmp/ccQCTkSU.s 			page 285


 16169      6D736700 
 16170              	.LASF136:
 16171 0025 706F7274 		.ascii	"port_intctx\000"
 16171      5F696E74 
 16171      63747800 
 16172              	.LASF370:
 16173 0031 6576656E 		.ascii	"event\000"
 16173      7400
 16174              	.LASF691:
 16175 0037 5F6D6272 		.ascii	"_mbrtowc_state\000"
 16175      746F7763 
 16175      5F737461 
 16175      746500
 16176              	.LASF289:
 16177 0046 43414E5F 		.ascii	"CAN_STARTING\000"
 16177      53544152 
 16177      54494E47 
 16177      00
 16178              	.LASF27:
 16179 0053 6D73675F 		.ascii	"msg_t\000"
 16179      7400
 16180              	.LASF403:
 16181 0059 55415254 		.ascii	"UART_TX_IDLE\000"
 16181      5F54585F 
 16181      49444C45 
 16181      00
 16182              	.LASF467:
 16183 0066 5553425F 		.ascii	"USB_EVENT_UNCONFIGURED\000"
 16183      4556454E 
 16183      545F554E 
 16183      434F4E46 
 16183      49475552 
 16184              	.LASF511:
 16185 007d 44494550 		.ascii	"DIEPTXF0\000"
 16185      54584630 
 16185      00
 16186              	.LASF583:
 16187 0086 55534244 		.ascii	"USBD1\000"
 16187      3100
 16188              	.LASF288:
 16189 008c 43414E5F 		.ascii	"CAN_STOP\000"
 16189      53544F50 
 16189      00
 16190              	.LASF70:
 16191 0095 63685F73 		.ascii	"ch_system_t\000"
 16191      79737465 
 16191      6D5F7400 
 16192              	.LASF7:
 16193 00a1 5F5F7569 		.ascii	"__uint8_t\000"
 16193      6E74385F 
 16193      7400
 16194              	.LASF154:
 16195 00ab 77747365 		.ascii	"wtsemp\000"
 16195      6D7000
 16196              	.LASF190:
 16197 00b2 5F426F6F 		.ascii	"_Bool\000"
 16197      6C00
ARM GAS  /tmp/ccQCTkSU.s 			page 286


 16198              	.LASF388:
 16199 00b8 646D6172 		.ascii	"dmarx\000"
 16199      7800
 16200              	.LASF44:
 16201 00be 6570656E 		.ascii	"epending\000"
 16201      64696E67 
 16201      00
 16202              	.LASF667:
 16203 00c7 5F6D6273 		.ascii	"_mbstate\000"
 16203      74617465 
 16203      00
 16204              	.LASF622:
 16205 00d0 5F617465 		.ascii	"_atexit\000"
 16205      78697400 
 16206              	.LASF199:
 16207 00d8 70726F76 		.ascii	"provider\000"
 16207      69646572 
 16207      00
 16208              	.LASF214:
 16209 00e1 6F626A65 		.ascii	"objects_factory_t\000"
 16209      6374735F 
 16209      66616374 
 16209      6F72795F 
 16209      7400
 16210              	.LASF275:
 16211 00f3 73717231 		.ascii	"sqr1\000"
 16211      00
 16212              	.LASF191:
 16213 00f8 6D656D67 		.ascii	"memgetfunc_t\000"
 16213      65746675 
 16213      6E635F74 
 16213      00
 16214              	.LASF541:
 16215 0105 44564255 		.ascii	"DVBUSDIS\000"
 16215      53444953 
 16215      00
 16216              	.LASF315:
 16217 010e 6572726F 		.ascii	"errors\000"
 16217      727300
 16218              	.LASF225:
 16219 0115 696E7374 		.ascii	"instance_offset\000"
 16219      616E6365 
 16219      5F6F6666 
 16219      73657400 
 16220              	.LASF395:
 16221 0125 73706963 		.ascii	"spicallback_t\000"
 16221      616C6C62 
 16221      61636B5F 
 16221      7400
 16222              	.LASF34:
 16223 0133 7072696F 		.ascii	"prio\000"
 16223      00
 16224              	.LASF448:
 16225 0138 75736265 		.ascii	"usbep_t\000"
 16225      705F7400 
 16226              	.LASF612:
 16227 0140 5F5F746D 		.ascii	"__tm_mon\000"
ARM GAS  /tmp/ccQCTkSU.s 			page 287


 16227      5F6D6F6E 
 16227      00
 16228              	.LASF620:
 16229 0149 5F666E74 		.ascii	"_fntypes\000"
 16229      79706573 
 16229      00
 16230              	.LASF700:
 16231 0152 5F676C6F 		.ascii	"_global_atexit\000"
 16231      62616C5F 
 16231      61746578 
 16231      697400
 16232              	.LASF590:
 16233 0161 4D656D6F 		.ascii	"MemoryStream\000"
 16233      72795374 
 16233      7265616D 
 16233      00
 16234              	.LASF639:
 16235 016e 5F696E63 		.ascii	"_inc\000"
 16235      00
 16236              	.LASF623:
 16237 0173 5F696E64 		.ascii	"_ind\000"
 16237      00
 16238              	.LASF227:
 16239 0178 72656164 		.ascii	"read\000"
 16239      00
 16240              	.LASF257:
 16241 017d 73616D70 		.ascii	"samples\000"
 16241      6C657300 
 16242              	.LASF515:
 16243 0185 47434346 		.ascii	"GCCFG\000"
 16243      4700
 16244              	.LASF142:
 16245 018b 42445452 		.ascii	"BDTR\000"
 16245      00
 16246              	.LASF313:
 16247 0190 49324343 		.ascii	"I2CConfig\000"
 16247      6F6E6669 
 16247      6700
 16248              	.LASF18:
 16249 019a 75696E74 		.ascii	"uint16_t\000"
 16249      31365F74 
 16249      00
 16250              	.LASF389:
 16251 01a3 646D6174 		.ascii	"dmatx\000"
 16251      7800
 16252              	.LASF581:
 16253 01a9 736F665F 		.ascii	"sof_cb\000"
 16253      636200
 16254              	.LASF205:
 16255 01b0 63685F6F 		.ascii	"ch_objects_factory\000"
 16255      626A6563 
 16255      74735F66 
 16255      6163746F 
 16255      727900
 16256              	.LASF630:
 16257 01c3 5F666C61 		.ascii	"_flags\000"
 16257      677300
ARM GAS  /tmp/ccQCTkSU.s 			page 288


 16258              	.LASF52:
 16259 01ca 6E657874 		.ascii	"next\000"
 16259      00
 16260              	.LASF36:
 16261 01cf 6F6C6465 		.ascii	"older\000"
 16261      7200
 16262              	.LASF201:
 16263 01d5 63685F64 		.ascii	"ch_dyn_element\000"
 16263      796E5F65 
 16263      6C656D65 
 16263      6E7400
 16264              	.LASF518:
 16265 01e4 44494550 		.ascii	"DIEPTXF\000"
 16265      54584600 
 16266              	.LASF435:
 16267 01ec 696E5F70 		.ascii	"in_params\000"
 16267      6172616D 
 16267      7300
 16268              	.LASF458:
 16269 01f6 5553425F 		.ascii	"USB_EP0_IN_WAITING_TX0\000"
 16269      4550305F 
 16269      494E5F57 
 16269      41495449 
 16269      4E475F54 
 16270              	.LASF281:
 16271 020d 4144435F 		.ascii	"ADC_ERR_OVERFLOW\000"
 16271      4552525F 
 16271      4F564552 
 16271      464C4F57 
 16271      00
 16272              	.LASF646:
 16273 021e 5F637674 		.ascii	"_cvtlen\000"
 16273      6C656E00 
 16274              	.LASF54:
 16275 0226 63685F74 		.ascii	"ch_threads_queue\000"
 16275      68726561 
 16275      64735F71 
 16275      75657565 
 16275      00
 16276              	.LASF651:
 16277 0237 5F736967 		.ascii	"_sig_func\000"
 16277      5F66756E 
 16277      6300
 16278              	.LASF528:
 16279 0241 48505254 		.ascii	"HPRT\000"
 16279      00
 16280              	.LASF482:
 16281 0246 4843494E 		.ascii	"HCINT\000"
 16281      5400
 16282              	.LASF705:
 16283 024c 6368736E 		.ascii	"chsnprintf\000"
 16283      7072696E 
 16283      746600
 16284              	.LASF81:
 16285 0257 534D5052 		.ascii	"SMPR1\000"
 16285      3100
 16286              	.LASF82:
ARM GAS  /tmp/ccQCTkSU.s 			page 289


 16287 025d 534D5052 		.ascii	"SMPR2\000"
 16287      3200
 16288              	.LASF666:
 16289 0263 5F6C6F63 		.ascii	"_lock\000"
 16289      6B00
 16290              	.LASF663:
 16291 0269 5F6E6275 		.ascii	"_nbuf\000"
 16291      6600
 16292              	.LASF381:
 16293 026f 5350495F 		.ascii	"SPI_STOP\000"
 16293      53544F50 
 16293      00
 16294              	.LASF228:
 16295 0278 42617365 		.ascii	"BaseSequentialStream\000"
 16295      53657175 
 16295      656E7469 
 16295      616C5374 
 16295      7265616D 
 16296              	.LASF357:
 16297 028d 70776D63 		.ascii	"pwmchnmsk_t\000"
 16297      686E6D73 
 16297      6B5F7400 
 16298              	.LASF715:
 16299 0299 63687673 		.ascii	"chvsnprintf\000"
 16299      6E707269 
 16299      6E746600 
 16300              	.LASF524:
 16301 02a5 48505458 		.ascii	"HPTXSTS\000"
 16301      53545300 
 16302              	.LASF299:
 16303 02ad 63616E5F 		.ascii	"can_callback_t\000"
 16303      63616C6C 
 16303      6261636B 
 16303      5F7400
 16304              	.LASF536:
 16305 02bc 444F4550 		.ascii	"DOEPMSK\000"
 16305      4D534B00 
 16306              	.LASF385:
 16307 02c4 73706973 		.ascii	"spistate_t\000"
 16307      74617465 
 16307      5F7400
 16308              	.LASF415:
 16309 02cf 6561726C 		.ascii	"early\000"
 16309      7900
 16310              	.LASF480:
 16311 02d5 48434348 		.ascii	"HCCHAR\000"
 16311      415200
 16312              	.LASF307:
 16313 02dc 4932435F 		.ascii	"I2C_ACTIVE_RX\000"
 16313      41435449 
 16313      56455F52 
 16313      5800
 16314              	.LASF32:
 16315 02ea 74687265 		.ascii	"thread_t\000"
 16315      61645F74 
 16315      00
 16316              	.LASF349:
ARM GAS  /tmp/ccQCTkSU.s 			page 290


 16317 02f3 70776D73 		.ascii	"pwmstate_t\000"
 16317      74617465 
 16317      5F7400
 16318              	.LASF65:
 16319 02fe 63685F76 		.ascii	"ch_virtual_timers_list\000"
 16319      69727475 
 16319      616C5F74 
 16319      696D6572 
 16319      735F6C69 
 16320              	.LASF221:
 16321 0315 76656374 		.ascii	"vector\000"
 16321      6F7200
 16322              	.LASF19:
 16323 031c 696E7433 		.ascii	"int32_t\000"
 16323      325F7400 
 16324              	.LASF75:
 16325 0324 73797374 		.ascii	"systime_t\000"
 16325      696D655F 
 16325      7400
 16326              	.LASF293:
 16327 032e 43414E44 		.ascii	"CANDriver\000"
 16327      72697665 
 16327      7200
 16328              	.LASF676:
 16329 0338 5F616464 		.ascii	"_add\000"
 16329      00
 16330              	.LASF629:
 16331 033d 5F5F7346 		.ascii	"__sFILE_fake\000"
 16331      494C455F 
 16331      66616B65 
 16331      00
 16332              	.LASF122:
 16333 034a 4D304152 		.ascii	"M0AR\000"
 16333      00
 16334              	.LASF487:
 16335 034f 72657376 		.ascii	"resvd1c\000"
 16335      64316300 
 16336              	.LASF310:
 16337 0357 69326366 		.ascii	"i2cflags_t\000"
 16337      6C616773 
 16337      5F7400
 16338              	.LASF525:
 16339 0362 4841494E 		.ascii	"HAINT\000"
 16339      5400
 16340              	.LASF167:
 16341 0368 74696D65 		.ascii	"timesize\000"
 16341      73697A65 
 16341      00
 16342              	.LASF117:
 16343 0371 46413152 		.ascii	"FA1R\000"
 16343      00
 16344              	.LASF421:
 16345 0376 75617274 		.ascii	"uartecb_t\000"
 16345      6563625F 
 16345      7400
 16346              	.LASF522:
 16347 0380 48464E55 		.ascii	"HFNUM\000"
ARM GAS  /tmp/ccQCTkSU.s 			page 291


 16347      4D00
 16348              	.LASF704:
 16349 0386 706F7731 		.ascii	"pow10\000"
 16349      3000
 16350              	.LASF387:
 16351 038c 68616C5F 		.ascii	"hal_spi_driver\000"
 16351      7370695F 
 16351      64726976 
 16351      657200
 16352              	.LASF239:
 16353 039b 716E6F74 		.ascii	"qnotify_t\000"
 16353      6966795F 
 16353      7400
 16354              	.LASF253:
 16355 03a5 61646373 		.ascii	"adcstate_t\000"
 16355      74617465 
 16355      5F7400
 16356              	.LASF234:
 16357 03b0 715F746F 		.ascii	"q_top\000"
 16357      7000
 16358              	.LASF632:
 16359 03b6 5F6C6266 		.ascii	"_lbfsize\000"
 16359      73697A65 
 16359      00
 16360              	.LASF473:
 16361 03bf 75645F73 		.ascii	"ud_string\000"
 16361      7472696E 
 16361      6700
 16362              	.LASF314:
 16363 03c9 49324344 		.ascii	"I2CDriver\000"
 16363      72697665 
 16363      7200
 16364              	.LASF306:
 16365 03d3 4932435F 		.ascii	"I2C_ACTIVE_TX\000"
 16365      41435449 
 16365      56455F54 
 16365      5800
 16366              	.LASF41:
 16367 03e1 72656673 		.ascii	"refs\000"
 16367      00
 16368              	.LASF440:
 16369 03e6 65703065 		.ascii	"ep0endcb\000"
 16369      6E646362 
 16369      00
 16370              	.LASF534:
 16371 03ef 72657376 		.ascii	"resvd80C\000"
 16371      64383043 
 16371      00
 16372              	.LASF45:
 16373 03f8 6D74786C 		.ascii	"mtxlist\000"
 16373      69737400 
 16374              	.LASF501:
 16375 0400 474F5447 		.ascii	"GOTGCTL\000"
 16375      43544C00 
 16376              	.LASF476:
 16377 0408 75736265 		.ascii	"usbepcallback_t\000"
 16377      7063616C 
ARM GAS  /tmp/ccQCTkSU.s 			page 292


 16377      6C626163 
 16377      6B5F7400 
 16378              	.LASF497:
 16379 0418 444F4550 		.ascii	"DOEPCTL\000"
 16379      43544C00 
 16380              	.LASF73:
 16381 0420 76746C69 		.ascii	"vtlist\000"
 16381      737400
 16382              	.LASF320:
 16383 0427 4943555F 		.ascii	"ICU_READY\000"
 16383      52454144 
 16383      5900
 16384              	.LASF327:
 16385 0431 70636372 		.ascii	"pccrp\000"
 16385      7000
 16386              	.LASF231:
 16387 0437 715F7761 		.ascii	"q_waiting\000"
 16387      6974696E 
 16387      6700
 16388              	.LASF99:
 16389 0441 43414E5F 		.ascii	"CAN_TxMailBox_TypeDef\000"
 16389      54784D61 
 16389      696C426F 
 16389      785F5479 
 16389      70654465 
 16390              	.LASF72:
 16391 0457 726C6973 		.ascii	"rlist\000"
 16391      7400
 16392              	.LASF49:
 16393 045d 74687265 		.ascii	"threads_list_t\000"
 16393      6164735F 
 16393      6C697374 
 16393      5F7400
 16394              	.LASF240:
 16395 046c 696E7075 		.ascii	"input_queue_t\000"
 16395      745F7175 
 16395      6575655F 
 16395      7400
 16396              	.LASF267:
 16397 047a 41444343 		.ascii	"ADCConversionGroup\000"
 16397      6F6E7665 
 16397      7273696F 
 16397      6E47726F 
 16397      757000
 16398              	.LASF533:
 16399 048d 44535453 		.ascii	"DSTS\000"
 16399      00
 16400              	.LASF290:
 16401 0492 43414E5F 		.ascii	"CAN_READY\000"
 16401      52454144 
 16401      5900
 16402              	.LASF335:
 16403 049c 69637563 		.ascii	"icuchannel_t\000"
 16403      68616E6E 
 16403      656C5F74 
 16403      00
 16404              	.LASF292:
ARM GAS  /tmp/ccQCTkSU.s 			page 293


 16405 04a9 63616E73 		.ascii	"canstate_t\000"
 16405      74617465 
 16405      5F7400
 16406              	.LASF119:
 16407 04b4 7346696C 		.ascii	"sFilterRegister\000"
 16407      74657252 
 16407      65676973 
 16407      74657200 
 16408              	.LASF653:
 16409 04c4 5F5F7366 		.ascii	"__sf\000"
 16409      00
 16410              	.LASF539:
 16411 04c9 72657376 		.ascii	"resvd820\000"
 16411      64383230 
 16411      00
 16412              	.LASF540:
 16413 04d2 72657376 		.ascii	"resvd824\000"
 16413      64383234 
 16413      00
 16414              	.LASF687:
 16415 04db 5F6D6274 		.ascii	"_mbtowc_state\000"
 16415      6F77635F 
 16415      73746174 
 16415      6500
 16416              	.LASF708:
 16417 04e9 63687670 		.ascii	"chvprintf\000"
 16417      72696E74 
 16417      6600
 16418              	.LASF303:
 16419 04f3 4932435F 		.ascii	"I2C_UNINIT\000"
 16419      554E494E 
 16419      495400
 16420              	.LASF251:
 16421 04fe 4144435F 		.ascii	"ADC_COMPLETE\000"
 16421      434F4D50 
 16421      4C455445 
 16421      00
 16422              	.LASF365:
 16423 050b 53445F55 		.ascii	"SD_UNINIT\000"
 16423      4E494E49 
 16423      5400
 16424              	.LASF26:
 16425 0515 74707269 		.ascii	"tprio_t\000"
 16425      6F5F7400 
 16426              	.LASF445:
 16427 051d 73617665 		.ascii	"saved_state\000"
 16427      645F7374 
 16427      61746500 
 16428              	.LASF543:
 16429 0529 72657376 		.ascii	"resvd830\000"
 16429      64383330 
 16429      00
 16430              	.LASF305:
 16431 0532 4932435F 		.ascii	"I2C_READY\000"
 16431      52454144 
 16431      5900
 16432              	.LASF203:
ARM GAS  /tmp/ccQCTkSU.s 			page 294


 16433 053c 63685F64 		.ascii	"ch_dyn_list\000"
 16433      796E5F6C 
 16433      69737400 
 16434              	.LASF545:
 16435 0548 72657376 		.ascii	"resvd838\000"
 16435      64383338 
 16435      00
 16436              	.LASF265:
 16437 0551 68616C5F 		.ascii	"hal_adc_config\000"
 16437      6164635F 
 16437      636F6E66 
 16437      696700
 16438              	.LASF260:
 16439 0560 74687265 		.ascii	"thread\000"
 16439      616400
 16440              	.LASF542:
 16441 0567 44564255 		.ascii	"DVBUSPULSE\000"
 16441      5350554C 
 16441      534500
 16442              	.LASF441:
 16443 0572 73657475 		.ascii	"setup\000"
 16443      7000
 16444              	.LASF380:
 16445 0578 5350495F 		.ascii	"SPI_UNINIT\000"
 16445      554E494E 
 16445      495400
 16446              	.LASF163:
 16447 0583 7A65726F 		.ascii	"zero\000"
 16447      00
 16448              	.LASF723:
 16449 0588 2F686F6D 		.ascii	"/home/tongcheng/Downloads/RM2019_Power_Runes-master"
 16449      652F746F 
 16449      6E676368 
 16449      656E672F 
 16449      446F776E 
 16450 05bb 2F524D32 		.ascii	"/RM2019_Power_Runes\000"
 16450      3031395F 
 16450      506F7765 
 16450      725F5275 
 16450      6E657300 
 16451              	.LASF546:
 16452 05cf 72657376 		.ascii	"resvd83C\000"
 16452      64383343 
 16452      00
 16453              	.LASF615:
 16454 05d8 5F5F746D 		.ascii	"__tm_yday\000"
 16454      5F796461 
 16454      7900
 16455              	.LASF141:
 16456 05e2 43434552 		.ascii	"CCER\000"
 16456      00
 16457              	.LASF129:
 16458 05e7 49325350 		.ascii	"I2SPR\000"
 16458      5200
 16459              	.LASF346:
 16460 05ed 50574D5F 		.ascii	"PWM_UNINIT\000"
 16460      554E494E 
ARM GAS  /tmp/ccQCTkSU.s 			page 295


 16460      495400
 16461              	.LASF198:
 16462 05f8 616C6967 		.ascii	"align\000"
 16462      6E00
 16463              	.LASF503:
 16464 05fe 47414842 		.ascii	"GAHBCFG\000"
 16464      43464700 
 16465              	.LASF547:
 16466 0606 72657376 		.ascii	"resvd840\000"
 16466      64383430 
 16466      00
 16467              	.LASF125:
 16468 060f 43524350 		.ascii	"CRCPR\000"
 16468      5200
 16469              	.LASF10:
 16470 0615 5F5F7569 		.ascii	"__uint16_t\000"
 16470      6E743136 
 16470      5F7400
 16471              	.LASF500:
 16472 0620 73746D33 		.ascii	"stm32_otg_out_ep_t\000"
 16472      325F6F74 
 16472      675F6F75 
 16472      745F6570 
 16472      5F7400
 16473              	.LASF509:
 16474 0633 47525853 		.ascii	"GRXSTSP\000"
 16474      54535000 
 16475              	.LASF508:
 16476 063b 47525853 		.ascii	"GRXSTSR\000"
 16476      54535200 
 16477              	.LASF123:
 16478 0643 4D314152 		.ascii	"M1AR\000"
 16478      00
 16479              	.LASF124:
 16480 0648 444D415F 		.ascii	"DMA_Stream_TypeDef\000"
 16480      53747265 
 16480      616D5F54 
 16480      79706544 
 16480      656600
 16481              	.LASF453:
 16482 065b 5553425F 		.ascii	"USB_ACTIVE\000"
 16482      41435449 
 16482      564500
 16483              	.LASF450:
 16484 0666 5553425F 		.ascii	"USB_STOP\000"
 16484      53544F50 
 16484      00
 16485              	.LASF35:
 16486 066f 6E657765 		.ascii	"newer\000"
 16486      7200
 16487              	.LASF678:
 16488 0675 5F6D7072 		.ascii	"_mprec\000"
 16488      656300
 16489              	.LASF496:
 16490 067c 73746D33 		.ascii	"stm32_otg_in_ep_t\000"
 16490      325F6F74 
 16490      675F696E 
ARM GAS  /tmp/ccQCTkSU.s 			page 296


 16490      5F65705F 
 16490      7400
 16491              	.LASF243:
 16492 068e 74687265 		.ascii	"threads\000"
 16492      61647300 
 16493              	.LASF565:
 16494 0696 7278636E 		.ascii	"rxcnt\000"
 16494      7400
 16495              	.LASF247:
 16496 069c 4144435F 		.ascii	"ADC_UNINIT\000"
 16496      554E494E 
 16496      495400
 16497              	.LASF390:
 16498 06a7 7278646D 		.ascii	"rxdmamode\000"
 16498      616D6F64 
 16498      6500
 16499              	.LASF680:
 16500 06b1 5F726573 		.ascii	"_result_k\000"
 16500      756C745F 
 16500      6B00
 16501              	.LASF336:
 16502 06bb 6D6F6465 		.ascii	"mode\000"
 16502      00
 16503              	.LASF638:
 16504 06c0 5F737464 		.ascii	"_stderr\000"
 16504      65727200 
 16505              	.LASF679:
 16506 06c8 5F726573 		.ascii	"_result\000"
 16506      756C7400 
 16507              	.LASF329:
 16508 06d0 4943555F 		.ascii	"ICU_INPUT_ACTIVE_HIGH\000"
 16508      494E5055 
 16508      545F4143 
 16508      54495645 
 16508      5F484947 
 16509              	.LASF619:
 16510 06e6 5F64736F 		.ascii	"_dso_handle\000"
 16510      5F68616E 
 16510      646C6500 
 16511              	.LASF516:
 16512 06f2 72657376 		.ascii	"resvd58\000"
 16512      64353800 
 16513              	.LASF244:
 16514 06fa 70616C65 		.ascii	"palevent_t\000"
 16514      76656E74 
 16514      5F7400
 16515              	.LASF584:
 16516 0705 5F5F676E 		.ascii	"__gnuc_va_list\000"
 16516      75635F76 
 16516      615F6C69 
 16516      737400
 16517              	.LASF614:
 16518 0714 5F5F746D 		.ascii	"__tm_wday\000"
 16518      5F776461 
 16518      7900
 16519              	.LASF616:
 16520 071e 5F5F746D 		.ascii	"__tm_isdst\000"
ARM GAS  /tmp/ccQCTkSU.s 			page 297


 16520      5F697364 
 16520      737400
 16521              	.LASF134:
 16522 0729 73746B61 		.ascii	"stkalign_t\000"
 16522      6C69676E 
 16522      5F7400
 16523              	.LASF555:
 16524 0734 72785F66 		.ascii	"rx_fifo_size\000"
 16524      69666F5F 
 16524      73697A65 
 16524      00
 16525              	.LASF282:
 16526 0741 4144435F 		.ascii	"ADC_ERR_WATCHDOG\000"
 16526      4552525F 
 16526      57415443 
 16526      48444F47 
 16526      00
 16527              	.LASF271:
 16528 0752 656E645F 		.ascii	"end_cb\000"
 16528      636200
 16529              	.LASF568:
 16530 0759 73657475 		.ascii	"setup_cb\000"
 16530      705F6362 
 16530      00
 16531              	.LASF8:
 16532 0762 756E7369 		.ascii	"unsigned char\000"
 16532      676E6564 
 16532      20636861 
 16532      7200
 16533              	.LASF637:
 16534 0770 5F737464 		.ascii	"_stdout\000"
 16534      6F757400 
 16535              	.LASF184:
 16536 0778 6576656E 		.ascii	"event_listener\000"
 16536      745F6C69 
 16536      7374656E 
 16536      657200
 16537              	.LASF294:
 16538 0787 74787175 		.ascii	"txqueue\000"
 16538      65756500 
 16539              	.LASF296:
 16540 078f 72786675 		.ascii	"rxfull_cb\000"
 16540      6C6C5F63 
 16540      6200
 16541              	.LASF717:
 16542 0799 72616469 		.ascii	"radix\000"
 16542      7800
 16543              	.LASF56:
 16544 079f 72656164 		.ascii	"ready_list_t\000"
 16544      795F6C69 
 16544      73745F74 
 16544      00
 16545              	.LASF50:
 16546 07ac 63685F74 		.ascii	"ch_thread\000"
 16546      68726561 
 16546      6400
 16547              	.LASF692:
ARM GAS  /tmp/ccQCTkSU.s 			page 298


 16548 07b6 5F6D6273 		.ascii	"_mbsrtowcs_state\000"
 16548      72746F77 
 16548      63735F73 
 16548      74617465 
 16548      00
 16549              	.LASF606:
 16550 07c7 5F776473 		.ascii	"_wds\000"
 16550      00
 16551              	.LASF654:
 16552 07cc 5F6D6973 		.ascii	"_misc\000"
 16552      6300
 16553              	.LASF701:
 16554 07d2 666C6F61 		.ascii	"float\000"
 16554      7400
 16555              	.LASF291:
 16556 07d8 43414E5F 		.ascii	"CAN_SLEEP\000"
 16556      534C4545 
 16556      5000
 16557              	.LASF695:
 16558 07e2 5F5F7366 		.ascii	"__sf_fake_stdin\000"
 16558      5F66616B 
 16558      655F7374 
 16558      64696E00 
 16559              	.LASF287:
 16560 07f2 43414E5F 		.ascii	"CAN_UNINIT\000"
 16560      554E494E 
 16560      495400
 16561              	.LASF196:
 16562 07fd 706F6F6C 		.ascii	"pool_header\000"
 16562      5F686561 
 16562      64657200 
 16563              	.LASF67:
 16564 0809 73797374 		.ascii	"system_debug_t\000"
 16564      656D5F64 
 16564      65627567 
 16564      5F7400
 16565              	.LASF138:
 16566 0818 44494552 		.ascii	"DIER\000"
 16566      00
 16567              	.LASF266:
 16568 081d 75736544 		.ascii	"useDMA\000"
 16568      4D4100
 16569              	.LASF368:
 16570 0824 73647374 		.ascii	"sdstate_t\000"
 16570      6174655F 
 16570      7400
 16571              	.LASF62:
 16572 082e 64656C74 		.ascii	"delta\000"
 16572      6100
 16573              	.LASF83:
 16574 0834 4A4F4652 		.ascii	"JOFR1\000"
 16574      3100
 16575              	.LASF84:
 16576 083a 4A4F4652 		.ascii	"JOFR2\000"
 16576      3200
 16577              	.LASF85:
 16578 0840 4A4F4652 		.ascii	"JOFR3\000"
ARM GAS  /tmp/ccQCTkSU.s 			page 299


 16578      3300
 16579              	.LASF86:
 16580 0846 4A4F4652 		.ascii	"JOFR4\000"
 16580      3400
 16581              	.LASF408:
 16582 084c 55415254 		.ascii	"UART_RX_ACTIVE\000"
 16582      5F52585F 
 16582      41435449 
 16582      564500
 16583              	.LASF548:
 16584 085b 72657376 		.ascii	"resvd880\000"
 16584      64383830 
 16584      00
 16585              	.LASF628:
 16586 0864 5F73697A 		.ascii	"_size\000"
 16586      6500
 16587              	.LASF659:
 16588 086a 5F777269 		.ascii	"_write\000"
 16588      746500
 16589              	.LASF127:
 16590 0871 54584352 		.ascii	"TXCRCR\000"
 16590      435200
 16591              	.LASF404:
 16592 0878 55415254 		.ascii	"UART_TX_ACTIVE\000"
 16592      5F54585F 
 16592      41435449 
 16592      564500
 16593              	.LASF302:
 16594 0887 43414E44 		.ascii	"CAND2\000"
 16594      3200
 16595              	.LASF262:
 16596 088d 646D6173 		.ascii	"dmastp\000"
 16596      747000
 16597              	.LASF340:
 16598 0894 6F766572 		.ascii	"overflow_cb\000"
 16598      666C6F77 
 16598      5F636200 
 16599              	.LASF21:
 16600 08a0 75696E74 		.ascii	"uint64_t\000"
 16600      36345F74 
 16600      00
 16601              	.LASF181:
 16602 08a9 63685F64 		.ascii	"ch_debug\000"
 16602      65627567 
 16602      00
 16603              	.LASF111:
 16604 08b2 464D3152 		.ascii	"FM1R\000"
 16604      00
 16605              	.LASF609:
 16606 08b7 5F5F746D 		.ascii	"__tm_min\000"
 16606      5F6D696E 
 16606      00
 16607              	.LASF298:
 16608 08c0 77616B65 		.ascii	"wakeup_cb\000"
 16608      75705F63 
 16608      6200
 16609              	.LASF560:
ARM GAS  /tmp/ccQCTkSU.s 			page 300


 16610 08ca 7478636E 		.ascii	"txcnt\000"
 16610      7400
 16611              	.LASF477:
 16612 08d0 75736265 		.ascii	"usbeventcb_t\000"
 16612      76656E74 
 16612      63625F74 
 16612      00
 16613              	.LASF613:
 16614 08dd 5F5F746D 		.ascii	"__tm_year\000"
 16614      5F796561 
 16614      7200
 16615              	.LASF183:
 16616 08e7 6576656E 		.ascii	"event_listener_t\000"
 16616      745F6C69 
 16616      7374656E 
 16616      65725F74 
 16616      00
 16617              	.LASF556:
 16618 08f8 6F74675F 		.ascii	"otg_ram_size\000"
 16618      72616D5F 
 16618      73697A65 
 16618      00
 16619              	.LASF713:
 16620 0905 6C656674 		.ascii	"left_align\000"
 16620      5F616C69 
 16620      676E00
 16621              	.LASF558:
 16622 0910 73746D33 		.ascii	"stm32_otg_params_t\000"
 16622      325F6F74 
 16622      675F7061 
 16622      72616D73 
 16622      5F7400
 16623              	.LASF311:
 16624 0923 61646472 		.ascii	"addr10\000"
 16624      313000
 16625              	.LASF126:
 16626 092a 52584352 		.ascii	"RXCRCR\000"
 16626      435200
 16627              	.LASF418:
 16628 0931 72786275 		.ascii	"rxbuf\000"
 16628      6600
 16629              	.LASF506:
 16630 0937 47494E54 		.ascii	"GINTSTS\000"
 16630      53545300 
 16631              	.LASF158:
 16632 093f 63685F6D 		.ascii	"ch_mutex\000"
 16632      75746578 
 16632      00
 16633              	.LASF350:
 16634 0948 50574D44 		.ascii	"PWMDriver\000"
 16634      72697665 
 16634      7200
 16635              	.LASF361:
 16636 0952 50574D43 		.ascii	"PWMConfig\000"
 16636      6F6E6669 
 16636      6700
 16637              	.LASF690:
ARM GAS  /tmp/ccQCTkSU.s 			page 301


 16638 095c 5F6D6272 		.ascii	"_mbrlen_state\000"
 16638      6C656E5F 
 16638      73746174 
 16638      6500
 16639              	.LASF725:
 16640 096a 756E7369 		.ascii	"unsigned_common\000"
 16640      676E6564 
 16640      5F636F6D 
 16640      6D6F6E00 
 16641              	.LASF588:
 16642 097a 4D656D53 		.ascii	"MemStreamVMT\000"
 16642      74726561 
 16642      6D564D54 
 16642      00
 16643              	.LASF535:
 16644 0987 44494550 		.ascii	"DIEPMSK\000"
 16644      4D534B00 
 16645              	.LASF578:
 16646 098f 6576656E 		.ascii	"event_cb\000"
 16646      745F6362 
 16646      00
 16647              	.LASF399:
 16648 0998 55415254 		.ascii	"UART_UNINIT\000"
 16648      5F554E49 
 16648      4E495400 
 16649              	.LASF570:
 16650 09a4 6F75745F 		.ascii	"out_cb\000"
 16650      636200
 16651              	.LASF526:
 16652 09ab 4841494E 		.ascii	"HAINTMSK\000"
 16652      544D534B 
 16652      00
 16653              	.LASF436:
 16654 09b4 6F75745F 		.ascii	"out_params\000"
 16654      70617261 
 16654      6D7300
 16655              	.LASF90:
 16656 09bf 4A535152 		.ascii	"JSQR\000"
 16656      00
 16657              	.LASF587:
 16658 09c4 76615F6C 		.ascii	"va_list\000"
 16658      69737400 
 16659              	.LASF636:
 16660 09cc 5F737464 		.ascii	"_stdin\000"
 16660      696E00
 16661              	.LASF206:
 16662 09d3 6F626A5F 		.ascii	"obj_list\000"
 16662      6C697374 
 16662      00
 16663              	.LASF342:
 16664 09dc 64696572 		.ascii	"dier\000"
 16664      00
 16665              	.LASF523:
 16666 09e1 72657376 		.ascii	"resvd40C\000"
 16666      64343043 
 16666      00
 16667              	.LASF210:
ARM GAS  /tmp/ccQCTkSU.s 			page 302


 16668 09ea 73656D5F 		.ascii	"sem_pool\000"
 16668      706F6F6C 
 16668      00
 16669              	.LASF60:
 16670 09f3 76697274 		.ascii	"virtual_timer_t\000"
 16670      75616C5F 
 16670      74696D65 
 16670      725F7400 
 16671              	.LASF347:
 16672 0a03 50574D5F 		.ascii	"PWM_STOP\000"
 16672      53544F50 
 16672      00
 16673              	.LASF317:
 16674 0a0c 49324344 		.ascii	"I2CD2\000"
 16674      3200
 16675              	.LASF219:
 16676 0a12 73686966 		.ascii	"shift\000"
 16676      7400
 16677              	.LASF22:
 16678 0a18 7274636E 		.ascii	"rtcnt_t\000"
 16678      745F7400 
 16679              	.LASF261:
 16680 0a20 6D757465 		.ascii	"mutex\000"
 16680      7800
 16681              	.LASF164:
 16682 0a26 73697A65 		.ascii	"size\000"
 16682      00
 16683              	.LASF161:
 16684 0a2b 63685F69 		.ascii	"ch_idle_thread_wa\000"
 16684      646C655F 
 16684      74687265 
 16684      61645F77 
 16684      6100
 16685              	.LASF325:
 16686 0a3d 636C6F63 		.ascii	"clock\000"
 16686      6B00
 16687              	.LASF159:
 16688 0a43 6F776E65 		.ascii	"owner\000"
 16688      7200
 16689              	.LASF120:
 16690 0a49 43414E5F 		.ascii	"CAN_TypeDef\000"
 16690      54797065 
 16690      44656600 
 16691              	.LASF592:
 16692 0a55 5F6F6666 		.ascii	"_off_t\000"
 16692      5F7400
 16693              	.LASF490:
 16694 0a5c 72657376 		.ascii	"resvd4\000"
 16694      643400
 16695              	.LASF366:
 16696 0a63 53445F53 		.ascii	"SD_STOP\000"
 16696      544F5000 
 16697              	.LASF481:
 16698 0a6b 72657376 		.ascii	"resvd8\000"
 16698      643800
 16699              	.LASF6:
 16700 0a72 73697A65 		.ascii	"size_t\000"
ARM GAS  /tmp/ccQCTkSU.s 			page 303


 16700      5F7400
 16701              	.LASF649:
 16702 0a79 5F6C6F63 		.ascii	"_localtime_buf\000"
 16702      616C7469 
 16702      6D655F62 
 16702      756600
 16703              	.LASF597:
 16704 0a88 5F5F636F 		.ascii	"__count\000"
 16704      756E7400 
 16705              	.LASF162:
 16706 0a90 6964656E 		.ascii	"identifier\000"
 16706      74696669 
 16706      657200
 16707              	.LASF17:
 16708 0a9b 75696E74 		.ascii	"uint8_t\000"
 16708      385F7400 
 16709              	.LASF485:
 16710 0aa3 72657376 		.ascii	"resvd14\000"
 16710      64313400 
 16711              	.LASF486:
 16712 0aab 72657376 		.ascii	"resvd18\000"
 16712      64313800 
 16713              	.LASF495:
 16714 0ab3 72657376 		.ascii	"resvd1C\000"
 16714      64314300 
 16715              	.LASF360:
 16716 0abb 50574D43 		.ascii	"PWMChannelConfig\000"
 16716      68616E6E 
 16716      656C436F 
 16716      6E666967 
 16716      00
 16717              	.LASF394:
 16718 0acc 73736C69 		.ascii	"ssline\000"
 16718      6E6500
 16719              	.LASF197:
 16720 0ad3 6F626A65 		.ascii	"object_size\000"
 16720      63745F73 
 16720      697A6500 
 16721              	.LASF544:
 16722 0adf 44494550 		.ascii	"DIEPEMPMSK\000"
 16722      454D504D 
 16722      534B00
 16723              	.LASF489:
 16724 0aea 44494550 		.ascii	"DIEPCTL\000"
 16724      43544C00 
 16725              	.LASF446:
 16726 0af2 6F746770 		.ascii	"otgparams\000"
 16726      6172616D 
 16726      7300
 16727              	.LASF150:
 16728 0afc 65786974 		.ascii	"exitcode\000"
 16728      636F6465 
 16728      00
 16729              	.LASF647:
 16730 0b05 5F637674 		.ascii	"_cvtbuf\000"
 16730      62756600 
 16731              	.LASF574:
ARM GAS  /tmp/ccQCTkSU.s 			page 304


 16732 0b0d 6F75745F 		.ascii	"out_state\000"
 16732      73746174 
 16732      6500
 16733              	.LASF229:
 16734 0b17 696F5F71 		.ascii	"io_queue_t\000"
 16734      75657565 
 16734      5F7400
 16735              	.LASF640:
 16736 0b22 5F656D65 		.ascii	"_emergency\000"
 16736      7267656E 
 16736      637900
 16737              	.LASF212:
 16738 0b2d 6669666F 		.ascii	"fifo_list\000"
 16738      5F6C6973 
 16738      7400
 16739              	.LASF304:
 16740 0b37 4932435F 		.ascii	"I2C_STOP\000"
 16740      53544F50 
 16740      00
 16741              	.LASF105:
 16742 0b40 52463052 		.ascii	"RF0R\000"
 16742      00
 16743              	.LASF280:
 16744 0b45 4144435F 		.ascii	"ADC_ERR_DMAFAILURE\000"
 16744      4552525F 
 16744      444D4146 
 16744      41494C55 
 16744      524500
 16745              	.LASF185:
 16746 0b58 6C697374 		.ascii	"listener\000"
 16746      656E6572 
 16746      00
 16747              	.LASF513:
 16748 0b61 72657376 		.ascii	"resvd30\000"
 16748      64333000 
 16749              	.LASF596:
 16750 0b69 5F5F7763 		.ascii	"__wchb\000"
 16750      686200
 16751              	.LASF514:
 16752 0b70 72657376 		.ascii	"resvd34\000"
 16752      64333400 
 16753              	.LASF344:
 16754 0b78 49435544 		.ascii	"ICUD4\000"
 16754      3400
 16755              	.LASF345:
 16756 0b7e 49435544 		.ascii	"ICUD5\000"
 16756      3500
 16757              	.LASF610:
 16758 0b84 5F5F746D 		.ascii	"__tm_hour\000"
 16758      5F686F75 
 16758      7200
 16759              	.LASF375:
 16760 0b8e 53657269 		.ascii	"SerialDriverVMT\000"
 16760      616C4472 
 16760      69766572 
 16760      564D5400 
 16761              	.LASF166:
ARM GAS  /tmp/ccQCTkSU.s 			page 305


 16762 0b9e 70747273 		.ascii	"ptrsize\000"
 16762      697A6500 
 16763              	.LASF462:
 16764 0ba6 5553425F 		.ascii	"USB_EP0_ERROR\000"
 16764      4550305F 
 16764      4552524F 
 16764      5200
 16765              	.LASF461:
 16766 0bb4 5553425F 		.ascii	"USB_EP0_OUT_RX\000"
 16766      4550305F 
 16766      4F55545F 
 16766      525800
 16767              	.LASF594:
 16768 0bc3 77696E74 		.ascii	"wint_t\000"
 16768      5F7400
 16769              	.LASF106:
 16770 0bca 52463152 		.ascii	"RF1R\000"
 16770      00
 16771              	.LASF254:
 16772 0bcf 41444344 		.ascii	"ADCDriver\000"
 16772      72697665 
 16772      7200
 16773              	.LASF557:
 16774 0bd9 6E756D5F 		.ascii	"num_endpoints\000"
 16774      656E6470 
 16774      6F696E74 
 16774      7300
 16775              	.LASF264:
 16776 0be7 41444343 		.ascii	"ADCConfig\000"
 16776      6F6E6669 
 16776      6700
 16777              	.LASF562:
 16778 0bf1 746F7473 		.ascii	"totsize\000"
 16778      697A6500 
 16779              	.LASF671:
 16780 0bf9 5F6E696F 		.ascii	"_niobs\000"
 16780      627300
 16781              	.LASF479:
 16782 0c00 75736267 		.ascii	"usbgetdescriptor_t\000"
 16782      65746465 
 16782      73637269 
 16782      70746F72 
 16782      5F7400
 16783              	.LASF635:
 16784 0c13 5F657272 		.ascii	"_errno\000"
 16784      6E6F00
 16785              	.LASF437:
 16786 0c1a 65703073 		.ascii	"ep0state\000"
 16786      74617465 
 16786      00
 16787              	.LASF194:
 16788 0c23 6D656D63 		.ascii	"memcore_t\000"
 16788      6F72655F 
 16788      7400
 16789              	.LASF611:
 16790 0c2d 5F5F746D 		.ascii	"__tm_mday\000"
 16790      5F6D6461 
ARM GAS  /tmp/ccQCTkSU.s 			page 306


 16790      7900
 16791              	.LASF217:
 16792 0c37 69666372 		.ascii	"ifcr\000"
 16792      00
 16793              	.LASF572:
 16794 0c3c 6F75745F 		.ascii	"out_maxsize\000"
 16794      6D617873 
 16794      697A6500 
 16795              	.LASF383:
 16796 0c48 5350495F 		.ascii	"SPI_ACTIVE\000"
 16796      41435449 
 16796      564500
 16797              	.LASF149:
 16798 0c53 7264796D 		.ascii	"rdymsg\000"
 16798      736700
 16799              	.LASF618:
 16800 0c5a 5F666E61 		.ascii	"_fnargs\000"
 16800      72677300 
 16801              	.LASF348:
 16802 0c62 50574D5F 		.ascii	"PWM_READY\000"
 16802      52454144 
 16802      5900
 16803              	.LASF96:
 16804 0c6c 54445452 		.ascii	"TDTR\000"
 16804      00
 16805              	.LASF550:
 16806 0c71 72657376 		.ascii	"resvdD00\000"
 16806      64443030 
 16806      00
 16807              	.LASF104:
 16808 0c7a 43414E5F 		.ascii	"CAN_FilterRegister_TypeDef\000"
 16808      46696C74 
 16808      65725265 
 16808      67697374 
 16808      65725F54 
 16809              	.LASF416:
 16810 0c95 74687265 		.ascii	"threadrx\000"
 16810      61647278 
 16810      00
 16811              	.LASF270:
 16812 0c9e 6E756D5F 		.ascii	"num_channels\000"
 16812      6368616E 
 16812      6E656C73 
 16812      00
 16813              	.LASF213:
 16814 0cab 70697065 		.ascii	"pipe_list\000"
 16814      5F6C6973 
 16814      7400
 16815              	.LASF563:
 16816 0cb5 55534249 		.ascii	"USBInEndpointState\000"
 16816      6E456E64 
 16816      706F696E 
 16816      74537461 
 16816      746500
 16817              	.LASF372:
 16818 0cc8 6F717565 		.ascii	"oqueue\000"
 16818      756500
ARM GAS  /tmp/ccQCTkSU.s 			page 307


 16819              	.LASF230:
 16820 0ccf 696F5F71 		.ascii	"io_queue\000"
 16820      75657565 
 16820      00
 16821              	.LASF16:
 16822 0cd8 5F5F7569 		.ascii	"__uint64_t\000"
 16822      6E743634 
 16822      5F7400
 16823              	.LASF169:
 16824 0ce3 6F66665F 		.ascii	"off_prio\000"
 16824      7072696F 
 16824      00
 16825              	.LASF204:
 16826 0cec 64796E5F 		.ascii	"dyn_list_t\000"
 16826      6C697374 
 16826      5F7400
 16827              	.LASF707:
 16828 0cf7 666F726D 		.ascii	"formatted_bytes\000"
 16828      61747465 
 16828      645F6279 
 16828      74657300 
 16829              	.LASF603:
 16830 0d07 5F6E6578 		.ascii	"_next\000"
 16830      7400
 16831              	.LASF354:
 16832 0d0d 70776D63 		.ascii	"pwmcallback_t\000"
 16832      616C6C62 
 16832      61636B5F 
 16832      7400
 16833              	.LASF655:
 16834 0d1b 5F736967 		.ascii	"_signal_buf\000"
 16834      6E616C5F 
 16834      62756600 
 16835              	.LASF339:
 16836 0d27 70657269 		.ascii	"period_cb\000"
 16836      6F645F63 
 16836      6200
 16837              	.LASF309:
 16838 0d31 69326373 		.ascii	"i2cstate_t\000"
 16838      74617465 
 16838      5F7400
 16839              	.LASF42:
 16840 0d3c 77616974 		.ascii	"waiting\000"
 16840      696E6700 
 16841              	.LASF463:
 16842 0d44 75736265 		.ascii	"usbep0state_t\000"
 16842      70307374 
 16842      6174655F 
 16842      7400
 16843              	.LASF108:
 16844 0d52 7354784D 		.ascii	"sTxMailBox\000"
 16844      61696C42 
 16844      6F7800
 16845              	.LASF278:
 16846 0d5d 61646373 		.ascii	"adcsample_t\000"
 16846      616D706C 
 16846      655F7400 
ARM GAS  /tmp/ccQCTkSU.s 			page 308


 16847              	.LASF233:
 16848 0d69 715F6275 		.ascii	"q_buffer\000"
 16848      66666572 
 16848      00
 16849              	.LASF135:
 16850 0d72 706F7274 		.ascii	"port_context\000"
 16850      5F636F6E 
 16850      74657874 
 16850      00
 16851              	.LASF432:
 16852 0d7f 55534244 		.ascii	"USBDriver\000"
 16852      72697665 
 16852      7200
 16853              	.LASF549:
 16854 0d89 72657376 		.ascii	"resvd8C0\000"
 16854      64384330 
 16854      00
 16855              	.LASF582:
 16856 0d92 55534243 		.ascii	"USBConfig\000"
 16856      6F6E6669 
 16856      6700
 16857              	.LASF492:
 16858 0d9c 72657376 		.ascii	"resvdC\000"
 16858      644300
 16859              	.LASF362:
 16860 0da3 50574D44 		.ascii	"PWMD1\000"
 16860      3100
 16861              	.LASF341:
 16862 0da9 6368616E 		.ascii	"channel\000"
 16862      6E656C00 
 16863              	.LASF417:
 16864 0db1 74687265 		.ascii	"threadtx\000"
 16864      61647478 
 16864      00
 16865              	.LASF25:
 16866 0dba 74726566 		.ascii	"trefs_t\000"
 16866      735F7400 
 16867              	.LASF726:
 16868 0dc2 6D734F62 		.ascii	"msObjectInit\000"
 16868      6A656374 
 16868      496E6974 
 16868      00
 16869              	.LASF608:
 16870 0dcf 5F5F746D 		.ascii	"__tm_sec\000"
 16870      5F736563 
 16870      00
 16871              	.LASF720:
 16872 0dd8 64697669 		.ascii	"divisor\000"
 16872      736F7200 
 16873              	.LASF575:
 16874 0de0 696E5F6D 		.ascii	"in_multiplier\000"
 16874      756C7469 
 16874      706C6965 
 16874      7200
 16875              	.LASF252:
 16876 0dee 4144435F 		.ascii	"ADC_ERROR\000"
 16876      4552524F 
ARM GAS  /tmp/ccQCTkSU.s 			page 309


 16876      5200
 16877              	.LASF617:
 16878 0df8 5F6F6E5F 		.ascii	"_on_exit_args\000"
 16878      65786974 
 16878      5F617267 
 16878      7300
 16879              	.LASF23:
 16880 0e06 746D6F64 		.ascii	"tmode_t\000"
 16880      655F7400 
 16881              	.LASF644:
 16882 0e0e 5F5F636C 		.ascii	"__cleanup\000"
 16882      65616E75 
 16882      7000
 16883              	.LASF719:
 16884 0e18 6C6F6E67 		.ascii	"long_to_string_with_divisor\000"
 16884      5F746F5F 
 16884      73747269 
 16884      6E675F77 
 16884      6974685F 
 16885              	.LASF250:
 16886 0e34 4144435F 		.ascii	"ADC_ACTIVE\000"
 16886      41435449 
 16886      564500
 16887              	.LASF627:
 16888 0e3f 5F626173 		.ascii	"_base\000"
 16888      6500
 16889              	.LASF87:
 16890 0e45 53515231 		.ascii	"SQR1\000"
 16890      00
 16891              	.LASF88:
 16892 0e4a 53515232 		.ascii	"SQR2\000"
 16892      00
 16893              	.LASF89:
 16894 0e4f 53515233 		.ascii	"SQR3\000"
 16894      00
 16895              	.LASF412:
 16896 0e54 55415254 		.ascii	"UARTDriver\000"
 16896      44726976 
 16896      657200
 16897              	.LASF428:
 16898 0e5f 55415254 		.ascii	"UARTConfig\000"
 16898      436F6E66 
 16898      696700
 16899              	.LASF222:
 16900 0e6a 73746D33 		.ascii	"stm32_dma_stream_t\000"
 16900      325F646D 
 16900      615F7374 
 16900      7265616D 
 16900      5F7400
 16901              	.LASF580:
 16902 0e7d 72657175 		.ascii	"requests_hook_cb\000"
 16902      65737473 
 16902      5F686F6F 
 16902      6B5F6362 
 16902      00
 16903              	.LASF693:
 16904 0e8e 5F776372 		.ascii	"_wcrtomb_state\000"
ARM GAS  /tmp/ccQCTkSU.s 			page 310


 16904      746F6D62 
 16904      5F737461 
 16904      746500
 16905              	.LASF391:
 16906 0e9d 7478646D 		.ascii	"txdmamode\000"
 16906      616D6F64 
 16906      6500
 16907              	.LASF559:
 16908 0ea7 74787369 		.ascii	"txsize\000"
 16908      7A6500
 16909              	.LASF422:
 16910 0eae 7478656E 		.ascii	"txend1_cb\000"
 16910      64315F63 
 16910      6200
 16911              	.LASF429:
 16912 0eb8 55415254 		.ascii	"UARTD1\000"
 16912      443100
 16913              	.LASF430:
 16914 0ebf 55415254 		.ascii	"UARTD6\000"
 16914      443600
 16915              	.LASF268:
 16916 0ec6 68616C5F 		.ascii	"hal_adc_configuration_group\000"
 16916      6164635F 
 16916      636F6E66 
 16916      69677572 
 16916      6174696F 
 16917              	.LASF351:
 16918 0ee2 70657269 		.ascii	"period\000"
 16918      6F6400
 16919              	.LASF425:
 16920 0ee9 72786368 		.ascii	"rxchar_cb\000"
 16920      61725F63 
 16920      6200
 16921              	.LASF308:
 16922 0ef3 4932435F 		.ascii	"I2C_LOCKED\000"
 16922      4C4F434B 
 16922      454400
 16923              	.LASF338:
 16924 0efe 77696474 		.ascii	"width_cb\000"
 16924      685F6362 
 16924      00
 16925              	.LASF652:
 16926 0f07 5F5F7367 		.ascii	"__sglue\000"
 16926      6C756500 
 16927              	.LASF451:
 16928 0f0f 5553425F 		.ascii	"USB_READY\000"
 16928      52454144 
 16928      5900
 16929              	.LASF379:
 16930 0f19 72656164 		.ascii	"readt\000"
 16930      7400
 16931              	.LASF37:
 16932 0f1f 6E616D65 		.ascii	"name\000"
 16932      00
 16933              	.LASF420:
 16934 0f24 75617274 		.ascii	"uartccb_t\000"
 16934      6363625F 
ARM GAS  /tmp/ccQCTkSU.s 			page 311


 16934      7400
 16935              	.LASF601:
 16936 0f2e 5F5F554C 		.ascii	"__ULong\000"
 16936      6F6E6700 
 16937              	.LASF69:
 16938 0f36 70616E69 		.ascii	"panic_msg\000"
 16938      635F6D73 
 16938      6700
 16939              	.LASF384:
 16940 0f40 5350495F 		.ascii	"SPI_COMPLETE\000"
 16940      434F4D50 
 16940      4C455445 
 16940      00
 16941              	.LASF633:
 16942 0f4d 5F646174 		.ascii	"_data\000"
 16942      6100
 16943              	.LASF470:
 16944 0f53 5553425F 		.ascii	"USB_EVENT_STALLED\000"
 16944      4556454E 
 16944      545F5354 
 16944      414C4C45 
 16944      4400
 16945              	.LASF145:
 16946 0f65 43435852 		.ascii	"CCXR\000"
 16946      00
 16947              	.LASF716:
 16948 0f6a 66746F61 		.ascii	"ftoa\000"
 16948      00
 16949              	.LASF564:
 16950 0f6f 72787369 		.ascii	"rxsize\000"
 16950      7A6500
 16951              	.LASF321:
 16952 0f76 4943555F 		.ascii	"ICU_WAITING\000"
 16952      57414954 
 16952      494E4700 
 16953              	.LASF484:
 16954 0f82 48435453 		.ascii	"HCTSIZ\000"
 16954      495A00
 16955              	.LASF466:
 16956 0f89 5553425F 		.ascii	"USB_EVENT_CONFIGURED\000"
 16956      4556454E 
 16956      545F434F 
 16956      4E464947 
 16956      55524544 
 16957              	.LASF376:
 16958 0f9e 70757474 		.ascii	"putt\000"
 16958      00
 16959              	.LASF684:
 16960 0fa3 5F737472 		.ascii	"_strtok_last\000"
 16960      746F6B5F 
 16960      6C617374 
 16960      00
 16961              	.LASF363:
 16962 0fb0 50574D44 		.ascii	"PWMD3\000"
 16962      3300
 16963              	.LASF189:
 16964 0fb6 6576656E 		.ascii	"event_source_t\000"
ARM GAS  /tmp/ccQCTkSU.s 			page 312


 16964      745F736F 
 16964      75726365 
 16964      5F7400
 16965              	.LASF519:
 16966 0fc5 72657376 		.ascii	"resvd140\000"
 16966      64313430 
 16966      00
 16967              	.LASF674:
 16968 0fce 5F736565 		.ascii	"_seed\000"
 16968      6400
 16969              	.LASF660:
 16970 0fd4 5F736565 		.ascii	"_seek\000"
 16970      6B00
 16971              	.LASF468:
 16972 0fda 5553425F 		.ascii	"USB_EVENT_SUSPEND\000"
 16972      4556454E 
 16972      545F5355 
 16972      5350454E 
 16972      4400
 16973              	.LASF95:
 16974 0fec 4144435F 		.ascii	"ADC_TypeDef\000"
 16974      54797065 
 16974      44656600 
 16975              	.LASF11:
 16976 0ff8 73686F72 		.ascii	"short unsigned int\000"
 16976      7420756E 
 16976      7369676E 
 16976      65642069 
 16976      6E7400
 16977              	.LASF5:
 16978 100b 7369676E 		.ascii	"signed char\000"
 16978      65642063 
 16978      68617200 
 16979              	.LASF316:
 16980 1017 73746172 		.ascii	"start\000"
 16980      7400
 16981              	.LASF31:
 16982 101d 75636E74 		.ascii	"ucnt_t\000"
 16982      5F7400
 16983              	.LASF98:
 16984 1024 54444852 		.ascii	"TDHR\000"
 16984      00
 16985              	.LASF248:
 16986 1029 4144435F 		.ascii	"ADC_STOP\000"
 16986      53544F50 
 16986      00
 16987              	.LASF58:
 16988 1032 63757272 		.ascii	"current\000"
 16988      656E7400 
 16989              	.LASF355:
 16990 103a 70776D6D 		.ascii	"pwmmode_t\000"
 16990      6F64655F 
 16990      7400
 16991              	.LASF442:
 16992 1044 73746174 		.ascii	"status\000"
 16992      757300
 16993              	.LASF179:
ARM GAS  /tmp/ccQCTkSU.s 			page 313


 16994 104b 6F66665F 		.ascii	"off_time\000"
 16994      74696D65 
 16994      00
 16995              	.LASF170:
 16996 1054 6F66665F 		.ascii	"off_ctx\000"
 16996      63747800 
 16997              	.LASF66:
 16998 105c 6C617374 		.ascii	"lasttime\000"
 16998      74696D65 
 16998      00
 16999              	.LASF682:
 17000 1065 5F667265 		.ascii	"_freelist\000"
 17000      656C6973 
 17000      7400
 17001              	.LASF414:
 17002 106f 72787374 		.ascii	"rxstate\000"
 17002      61746500 
 17003              	.LASF443:
 17004 1077 61646472 		.ascii	"address\000"
 17004      65737300 
 17005              	.LASF43:
 17006 107f 6D736771 		.ascii	"msgqueue\000"
 17006      75657565 
 17006      00
 17007              	.LASF177:
 17008 1088 6F66665F 		.ascii	"off_refs\000"
 17008      72656673 
 17008      00
 17009              	.LASF665:
 17010 1091 5F6F6666 		.ascii	"_offset\000"
 17010      73657400 
 17011              	.LASF78:
 17012 1099 53797374 		.ascii	"SystemCoreClock\000"
 17012      656D436F 
 17012      7265436C 
 17012      6F636B00 
 17013              	.LASF286:
 17014 10a9 61646365 		.ascii	"adcerrorcallback_t\000"
 17014      72726F72 
 17014      63616C6C 
 17014      6261636B 
 17014      5F7400
 17015              	.LASF39:
 17016 10bc 73746174 		.ascii	"state\000"
 17016      6500
 17017              	.LASF626:
 17018 10c2 5F5F7362 		.ascii	"__sbuf\000"
 17018      756600
 17019              	.LASF688:
 17020 10c9 5F6C3634 		.ascii	"_l64a_buf\000"
 17020      615F6275 
 17020      6600
 17021              	.LASF102:
 17022 10d3 52444852 		.ascii	"RDHR\000"
 17022      00
 17023              	.LASF143:
 17024 10d8 444D4152 		.ascii	"DMAR\000"
ARM GAS  /tmp/ccQCTkSU.s 			page 314


 17024      00
 17025              	.LASF359:
 17026 10dd 63616C6C 		.ascii	"callback\000"
 17026      6261636B 
 17026      00
 17027              	.LASF71:
 17028 10e6 63685F73 		.ascii	"ch_system\000"
 17028      79737465 
 17028      6D00
 17029              	.LASF634:
 17030 10f0 5F726565 		.ascii	"_reent\000"
 17030      6E7400
 17031              	.LASF38:
 17032 10f7 77616261 		.ascii	"wabase\000"
 17032      736500
 17033              	.LASF657:
 17034 10fe 5F636F6F 		.ascii	"_cookie\000"
 17034      6B696500 
 17035              	.LASF650:
 17036 1106 5F617363 		.ascii	"_asctime_buf\000"
 17036      74696D65 
 17036      5F627566 
 17036      00
 17037              	.LASF407:
 17038 1113 55415254 		.ascii	"UART_RX_IDLE\000"
 17038      5F52585F 
 17038      49444C45 
 17038      00
 17039              	.LASF63:
 17040 1120 66756E63 		.ascii	"func\000"
 17040      00
 17041              	.LASF595:
 17042 1125 5F5F7763 		.ascii	"__wch\000"
 17042      6800
 17043              	.LASF598:
 17044 112b 5F5F7661 		.ascii	"__value\000"
 17044      6C756500 
 17045              	.LASF157:
 17046 1133 63685F73 		.ascii	"ch_semaphore\000"
 17046      656D6170 
 17046      686F7265 
 17046      00
 17047              	.LASF694:
 17048 1140 5F776373 		.ascii	"_wcsrtombs_state\000"
 17048      72746F6D 
 17048      62735F73 
 17048      74617465 
 17048      00
 17049              	.LASF176:
 17050 1151 6F66665F 		.ascii	"off_flags\000"
 17050      666C6167 
 17050      7300
 17051              	.LASF202:
 17052 115b 64796E5F 		.ascii	"dyn_element_t\000"
 17052      656C656D 
 17052      656E745F 
 17052      7400
ARM GAS  /tmp/ccQCTkSU.s 			page 315


 17053              	.LASF493:
 17054 1169 44494550 		.ascii	"DIEPTSIZ\000"
 17054      5453495A 
 17054      00
 17055              	.LASF47:
 17056 1172 6D706F6F 		.ascii	"mpool\000"
 17056      6C00
 17057              	.LASF273:
 17058 1178 736D7072 		.ascii	"smpr1\000"
 17058      3100
 17059              	.LASF274:
 17060 117e 736D7072 		.ascii	"smpr2\000"
 17060      3200
 17061              	.LASF53:
 17062 1184 74687265 		.ascii	"threads_queue_t\000"
 17062      6164735F 
 17062      71756575 
 17062      655F7400 
 17063              	.LASF358:
 17064 1194 70776D63 		.ascii	"pwmcnt_t\000"
 17064      6E745F74 
 17064      00
 17065              	.LASF591:
 17066 119d 5F4C4F43 		.ascii	"_LOCK_RECURSIVE_T\000"
 17066      4B5F5245 
 17066      43555253 
 17066      4956455F 
 17066      5400
 17067              	.LASF132:
 17068 11af 55534152 		.ascii	"USART_TypeDef\000"
 17068      545F5479 
 17068      70654465 
 17068      6600
 17069              	.LASF567:
 17070 11bd 65705F6D 		.ascii	"ep_mode\000"
 17070      6F646500 
 17071              	.LASF356:
 17072 11c5 70776D63 		.ascii	"pwmchannel_t\000"
 17072      68616E6E 
 17072      656C5F74 
 17072      00
 17073              	.LASF97:
 17074 11d2 54444C52 		.ascii	"TDLR\000"
 17074      00
 17075              	.LASF13:
 17076 11d7 6C6F6E67 		.ascii	"long int\000"
 17076      20696E74 
 17076      00
 17077              	.LASF74:
 17078 11e0 6D61696E 		.ascii	"mainthread\000"
 17078      74687265 
 17078      616400
 17079              	.LASF439:
 17080 11eb 6570306E 		.ascii	"ep0n\000"
 17080      00
 17081              	.LASF552:
 17082 11f0 72657376 		.ascii	"resvdE04\000"
ARM GAS  /tmp/ccQCTkSU.s 			page 316


 17082      64453034 
 17082      00
 17083              	.LASF686:
 17084 11f9 5F776374 		.ascii	"_wctomb_state\000"
 17084      6F6D625F 
 17084      73746174 
 17084      6500
 17085              	.LASF284:
 17086 1207 41444344 		.ascii	"ADCD1\000"
 17086      3100
 17087              	.LASF520:
 17088 120d 48434647 		.ascii	"HCFG\000"
 17088      00
 17089              	.LASF263:
 17090 1212 646D616D 		.ascii	"dmamode\000"
 17090      6F646500 
 17091              	.LASF672:
 17092 121a 5F696F62 		.ascii	"_iobs\000"
 17092      7300
 17093              	.LASF396:
 17094 1220 53504944 		.ascii	"SPID1\000"
 17094      3100
 17095              	.LASF377:
 17096 1226 67657474 		.ascii	"gett\000"
 17096      00
 17097              	.LASF255:
 17098 122b 68616C5F 		.ascii	"hal_adc_driver\000"
 17098      6164635F 
 17098      64726976 
 17098      657200
 17099              	.LASF397:
 17100 123a 53504944 		.ascii	"SPID4\000"
 17100      3400
 17101              	.LASF398:
 17102 1240 53504944 		.ascii	"SPID5\000"
 17102      3500
 17103              	.LASF402:
 17104 1246 75617274 		.ascii	"uartstate_t\000"
 17104      73746174 
 17104      655F7400 
 17105              	.LASF193:
 17106 1252 656E646D 		.ascii	"endmem\000"
 17106      656D00
 17107              	.LASF722:
 17108 1259 2E2F524D 		.ascii	"./RM18A-ChibiOS18-Core/chibios/os/hal/lib/streams/c"
 17108      3138412D 
 17108      43686962 
 17108      694F5331 
 17108      382D436F 
 17109 128c 68707269 		.ascii	"hprintf.c\000"
 17109      6E74662E 
 17109      6300
 17110              	.LASF236:
 17111 1296 715F7264 		.ascii	"q_rdptr\000"
 17111      70747200 
 17112              	.LASF502:
 17113 129e 474F5447 		.ascii	"GOTGINT\000"
ARM GAS  /tmp/ccQCTkSU.s 			page 317


 17113      494E5400 
 17114              	.LASF226:
 17115 12a6 77726974 		.ascii	"write\000"
 17115      6500
 17116              	.LASF677:
 17117 12ac 5F72616E 		.ascii	"_rand_next\000"
 17117      645F6E65 
 17117      787400
 17118              	.LASF371:
 17119 12b7 69717565 		.ascii	"iqueue\000"
 17119      756500
 17120              	.LASF569:
 17121 12be 696E5F63 		.ascii	"in_cb\000"
 17121      6200
 17122              	.LASF498:
 17123 12c4 444F4550 		.ascii	"DOEPINT\000"
 17123      494E5400 
 17124              	.LASF208:
 17125 12cc 6275665F 		.ascii	"buf_list\000"
 17125      6C697374 
 17125      00
 17126              	.LASF20:
 17127 12d5 75696E74 		.ascii	"uint32_t\000"
 17127      33325F74 
 17127      00
 17128              	.LASF174:
 17129 12de 6F66665F 		.ascii	"off_stklimit\000"
 17129      73746B6C 
 17129      696D6974 
 17129      00
 17130              	.LASF604:
 17131 12eb 5F6D6178 		.ascii	"_maxwds\000"
 17131      77647300 
 17132              	.LASF478:
 17133 12f3 75736272 		.ascii	"usbreqhandler_t\000"
 17133      65716861 
 17133      6E646C65 
 17133      725F7400 
 17134              	.LASF101:
 17135 1303 52444C52 		.ascii	"RDLR\000"
 17135      00
 17136              	.LASF605:
 17137 1308 5F736967 		.ascii	"_sign\000"
 17137      6E00
 17138              	.LASF4:
 17139 130e 6C6F6E67 		.ascii	"long double\000"
 17139      20646F75 
 17139      626C6500 
 17140              	.LASF178:
 17141 131a 6F66665F 		.ascii	"off_preempt\000"
 17141      70726565 
 17141      6D707400 
 17142              	.LASF133:
 17143 1326 72656761 		.ascii	"regarm_t\000"
 17143      726D5F74 
 17143      00
 17144              	.LASF28:
ARM GAS  /tmp/ccQCTkSU.s 			page 318


 17145 132f 6576656E 		.ascii	"eventmask_t\000"
 17145      746D6173 
 17145      6B5F7400 
 17146              	.LASF258:
 17147 133b 64657074 		.ascii	"depth\000"
 17147      6800
 17148              	.LASF115:
 17149 1341 46464131 		.ascii	"FFA1R\000"
 17149      5200
 17150              	.LASF452:
 17151 1347 5553425F 		.ascii	"USB_SELECTED\000"
 17151      53454C45 
 17151      43544544 
 17151      00
 17152              	.LASF15:
 17153 1354 6C6F6E67 		.ascii	"long unsigned int\000"
 17153      20756E73 
 17153      69676E65 
 17153      6420696E 
 17153      7400
 17154              	.LASF235:
 17155 1366 715F7772 		.ascii	"q_wrptr\000"
 17155      70747200 
 17156              	.LASF324:
 17157 136e 49435544 		.ascii	"ICUDriver\000"
 17157      72697665 
 17157      7200
 17158              	.LASF343:
 17159 1378 49435543 		.ascii	"ICUConfig\000"
 17159      6F6E6669 
 17159      6700
 17160              	.LASF465:
 17161 1382 5553425F 		.ascii	"USB_EVENT_ADDRESS\000"
 17161      4556454E 
 17161      545F4144 
 17161      44524553 
 17161      5300
 17162              	.LASF419:
 17163 1394 75617274 		.ascii	"uartcb_t\000"
 17163      63625F74 
 17163      00
 17164              	.LASF409:
 17165 139d 55415254 		.ascii	"UART_RX_COMPLETE\000"
 17165      5F52585F 
 17165      434F4D50 
 17165      4C455445 
 17165      00
 17166              	.LASF172:
 17167 13ae 6F66665F 		.ascii	"off_older\000"
 17167      6F6C6465 
 17167      7200
 17168              	.LASF471:
 17169 13b8 75736265 		.ascii	"usbevent_t\000"
 17169      76656E74 
 17169      5F7400
 17170              	.LASF661:
 17171 13c3 5F636C6F 		.ascii	"_close\000"
ARM GAS  /tmp/ccQCTkSU.s 			page 319


 17171      736500
 17172              	.LASF160:
 17173 13ca 63686172 		.ascii	"char\000"
 17173      00
 17174              	.LASF300:
 17175 13cf 43414E43 		.ascii	"CANConfig\000"
 17175      6F6E6669 
 17175      6700
 17176              	.LASF670:
 17177 13d9 5F676C75 		.ascii	"_glue\000"
 17177      6500
 17178              	.LASF474:
 17179 13df 55534244 		.ascii	"USBDescriptor\000"
 17179      65736372 
 17179      6970746F 
 17179      7200
 17180              	.LASF706:
 17181 13ed 63687072 		.ascii	"chprintf\000"
 17181      696E7466 
 17181      00
 17182              	.LASF352:
 17183 13f6 656E6162 		.ascii	"enabled\000"
 17183      6C656400 
 17184              	.LASF80:
 17185 13fe 41504250 		.ascii	"APBPrescTable\000"
 17185      72657363 
 17185      5461626C 
 17185      6500
 17186              	.LASF510:
 17187 140c 47525846 		.ascii	"GRXFSIZ\000"
 17187      53495A00 
 17188              	.LASF373:
 17189 1414 75736172 		.ascii	"usart\000"
 17189      7400
 17190              	.LASF238:
 17191 141a 715F6C69 		.ascii	"q_link\000"
 17191      6E6B00
 17192              	.LASF710:
 17193 1421 70726563 		.ascii	"precision\000"
 17193      6973696F 
 17193      6E00
 17194              	.LASF333:
 17195 142b 4943555F 		.ascii	"ICU_CHANNEL_1\000"
 17195      4348414E 
 17195      4E454C5F 
 17195      3100
 17196              	.LASF242:
 17197 1439 70616C63 		.ascii	"palcallback_t\000"
 17197      616C6C62 
 17197      61636B5F 
 17197      7400
 17198              	.LASF602:
 17199 1447 5F426967 		.ascii	"_Bigint\000"
 17199      696E7400 
 17200              	.LASF683:
 17201 144f 5F6D6973 		.ascii	"_misc_reent\000"
 17201      635F7265 
ARM GAS  /tmp/ccQCTkSU.s 			page 320


 17201      656E7400 
 17202              	.LASF507:
 17203 145b 47494E54 		.ascii	"GINTMSK\000"
 17203      4D534B00 
 17204              	.LASF328:
 17205 1463 69637563 		.ascii	"icucallback_t\000"
 17205      616C6C62 
 17205      61636B5F 
 17205      7400
 17206              	.LASF512:
 17207 1471 484E5054 		.ascii	"HNPTXSTS\000"
 17207      58535453 
 17207      00
 17208              	.LASF444:
 17209 147a 636F6E66 		.ascii	"configuration\000"
 17209      69677572 
 17209      6174696F 
 17209      6E00
 17210              	.LASF460:
 17211 1488 5553425F 		.ascii	"USB_EP0_OUT_WAITING_STS\000"
 17211      4550305F 
 17211      4F55545F 
 17211      57414954 
 17211      494E475F 
 17212              	.LASF330:
 17213 14a0 4943555F 		.ascii	"ICU_INPUT_ACTIVE_LOW\000"
 17213      494E5055 
 17213      545F4143 
 17213      54495645 
 17213      5F4C4F57 
 17214              	.LASF223:
 17215 14b5 5F73746D 		.ascii	"_stm32_dma_streams\000"
 17215      33325F64 
 17215      6D615F73 
 17215      74726561 
 17215      6D7300
 17216              	.LASF589:
 17217 14c8 62756666 		.ascii	"buffer\000"
 17217      657200
 17218              	.LASF689:
 17219 14cf 5F676574 		.ascii	"_getdate_err\000"
 17219      64617465 
 17219      5F657272 
 17219      00
 17220              	.LASF332:
 17221 14dc 69637566 		.ascii	"icufreq_t\000"
 17221      7265715F 
 17221      7400
 17222              	.LASF607:
 17223 14e6 5F5F746D 		.ascii	"__tm\000"
 17223      00
 17224              	.LASF494:
 17225 14eb 44545846 		.ascii	"DTXFSTS\000"
 17225      53545300 
 17226              	.LASF285:
 17227 14f3 61646363 		.ascii	"adccallback_t\000"
 17227      616C6C62 
ARM GAS  /tmp/ccQCTkSU.s 			page 321


 17227      61636B5F 
 17227      7400
 17228              	.LASF30:
 17229 1501 636E745F 		.ascii	"cnt_t\000"
 17229      7400
 17230              	.LASF438:
 17231 1507 6570306E 		.ascii	"ep0next\000"
 17231      65787400 
 17232              	.LASF374:
 17233 150f 72786D61 		.ascii	"rxmask\000"
 17233      736B00
 17234              	.LASF488:
 17235 1516 73746D33 		.ascii	"stm32_otg_host_chn_t\000"
 17235      325F6F74 
 17235      675F686F 
 17235      73745F63 
 17235      686E5F74 
 17236              	.LASF456:
 17237 152b 5553425F 		.ascii	"USB_EP0_STP_WAITING\000"
 17237      4550305F 
 17237      5354505F 
 17237      57414954 
 17237      494E4700 
 17238              	.LASF175:
 17239 153f 6F66665F 		.ascii	"off_state\000"
 17239      73746174 
 17239      6500
 17240              	.LASF312:
 17241 1549 7469636B 		.ascii	"ticks\000"
 17241      7300
 17242              	.LASF318:
 17243 154f 4943555F 		.ascii	"ICU_UNINIT\000"
 17243      554E494E 
 17243      495400
 17244              	.LASF698:
 17245 155a 5F696D70 		.ascii	"_impure_ptr\000"
 17245      7572655F 
 17245      70747200 
 17246              	.LASF664:
 17247 1566 5F626C6B 		.ascii	"_blksize\000"
 17247      73697A65 
 17247      00
 17248              	.LASF702:
 17249 156f 73697A65 		.ascii	"size_wo_nul\000"
 17249      5F776F5F 
 17249      6E756C00 
 17250              	.LASF483:
 17251 157b 4843494E 		.ascii	"HCINTMSK\000"
 17251      544D534B 
 17251      00
 17252              	.LASF662:
 17253 1584 5F756275 		.ascii	"_ubuf\000"
 17253      6600
 17254              	.LASF364:
 17255 158a 50574D44 		.ascii	"PWMD12\000"
 17255      313200
 17256              	.LASF256:
ARM GAS  /tmp/ccQCTkSU.s 			page 322


 17257 1591 636F6E66 		.ascii	"config\000"
 17257      696700
 17258              	.LASF685:
 17259 1598 5F6D626C 		.ascii	"_mblen_state\000"
 17259      656E5F73 
 17259      74617465 
 17259      00
 17260              	.LASF245:
 17261 15a5 696F6C69 		.ascii	"ioline_t\000"
 17261      6E655F74 
 17261      00
 17262              	.LASF724:
 17263 15ae 5F5F6C6F 		.ascii	"__locale_t\000"
 17263      63616C65 
 17263      5F7400
 17264              	.LASF411:
 17265 15b9 75617274 		.ascii	"uartflags_t\000"
 17265      666C6167 
 17265      735F7400 
 17266              	.LASF531:
 17267 15c5 44434647 		.ascii	"DCFG\000"
 17267      00
 17268              	.LASF400:
 17269 15ca 55415254 		.ascii	"UART_STOP\000"
 17269      5F53544F 
 17269      5000
 17270              	.LASF322:
 17271 15d4 4943555F 		.ascii	"ICU_ACTIVE\000"
 17271      41435449 
 17271      564500
 17272              	.LASF424:
 17273 15df 7278656E 		.ascii	"rxend_cb\000"
 17273      645F6362 
 17273      00
 17274              	.LASF279:
 17275 15e8 6164635F 		.ascii	"adc_channels_num_t\000"
 17275      6368616E 
 17275      6E656C73 
 17275      5F6E756D 
 17275      5F7400
 17276              	.LASF59:
 17277 15fb 76746675 		.ascii	"vtfunc_t\000"
 17277      6E635F74 
 17277      00
 17278              	.LASF103:
 17279 1604 43414E5F 		.ascii	"CAN_FIFOMailBox_TypeDef\000"
 17279      4649464F 
 17279      4D61696C 
 17279      426F785F 
 17279      54797065 
 17280              	.LASF151:
 17281 161c 77746F62 		.ascii	"wtobjp\000"
 17281      6A7000
 17282              	.LASF593:
 17283 1623 5F66706F 		.ascii	"_fpos_t\000"
 17283      735F7400 
 17284              	.LASF631:
ARM GAS  /tmp/ccQCTkSU.s 			page 323


 17285 162b 5F66696C 		.ascii	"_file\000"
 17285      6500
 17286              	.LASF207:
 17287 1631 6F626A5F 		.ascii	"obj_pool\000"
 17287      706F6F6C 
 17287      00
 17288              	.LASF215:
 17289 163a 63685F66 		.ascii	"ch_factory\000"
 17289      6163746F 
 17289      727900
 17290              	.LASF237:
 17291 1645 715F6E6F 		.ascii	"q_notify\000"
 17291      74696679 
 17291      00
 17292              	.LASF155:
 17293 164e 77746D74 		.ascii	"wtmtxp\000"
 17293      787000
 17294              	.LASF656:
 17295 1655 5F5F7346 		.ascii	"__sFILE\000"
 17295      494C4500 
 17296              	.LASF2:
 17297 165d 646F7562 		.ascii	"double\000"
 17297      6C6500
 17298              	.LASF624:
 17299 1664 5F666E73 		.ascii	"_fns\000"
 17299      00
 17300              	.LASF566:
 17301 1669 5553424F 		.ascii	"USBOutEndpointState\000"
 17301      7574456E 
 17301      64706F69 
 17301      6E745374 
 17301      61746500 
 17302              	.LASF527:
 17303 167d 72657376 		.ascii	"resvd41C\000"
 17303      64343143 
 17303      00
 17304              	.LASF599:
 17305 1686 5F6D6273 		.ascii	"_mbstate_t\000"
 17305      74617465 
 17305      5F7400
 17306              	.LASF718:
 17307 1691 63685F6C 		.ascii	"ch_ltoa\000"
 17307      746F6100 
 17308              	.LASF100:
 17309 1699 52445452 		.ascii	"RDTR\000"
 17309      00
 17310              	.LASF76:
 17311 169e 73797369 		.ascii	"sysinterval_t\000"
 17311      6E746572 
 17311      76616C5F 
 17311      7400
 17312              	.LASF459:
 17313 16ac 5553425F 		.ascii	"USB_EP0_IN_SENDING_STS\000"
 17313      4550305F 
 17313      494E5F53 
 17313      454E4449 
 17313      4E475F53 
ARM GAS  /tmp/ccQCTkSU.s 			page 324


 17314              	.LASF246:
 17315 16c3 5F70616C 		.ascii	"_pal_events\000"
 17315      5F657665 
 17315      6E747300 
 17316              	.LASF464:
 17317 16cf 5553425F 		.ascii	"USB_EVENT_RESET\000"
 17317      4556454E 
 17317      545F5245 
 17317      53455400 
 17318              	.LASF187:
 17319 16df 77666C61 		.ascii	"wflags\000"
 17319      677300
 17320              	.LASF427:
 17321 16e6 73706565 		.ascii	"speed\000"
 17321      6400
 17322              	.LASF57:
 17323 16ec 63685F72 		.ascii	"ch_ready_list\000"
 17323      65616479 
 17323      5F6C6973 
 17323      7400
 17324              	.LASF423:
 17325 16fa 7478656E 		.ascii	"txend2_cb\000"
 17325      64325F63 
 17325      6200
 17326              	.LASF12:
 17327 1704 5F5F696E 		.ascii	"__int32_t\000"
 17327      7433325F 
 17327      7400
 17328              	.LASF14:
 17329 170e 5F5F7569 		.ascii	"__uint32_t\000"
 17329      6E743332 
 17329      5F7400
 17330              	.LASF180:
 17331 1719 63686465 		.ascii	"chdebug_t\000"
 17331      6275675F 
 17331      7400
 17332              	.LASF326:
 17333 1723 77636372 		.ascii	"wccrp\000"
 17333      7000
 17334              	.LASF68:
 17335 1729 63685F73 		.ascii	"ch_system_debug\000"
 17335      79737465 
 17335      6D5F6465 
 17335      62756700 
 17336              	.LASF538:
 17337 1739 4441494E 		.ascii	"DAINTMSK\000"
 17337      544D534B 
 17337      00
 17338              	.LASF232:
 17339 1742 715F636F 		.ascii	"q_counter\000"
 17339      756E7465 
 17339      7200
 17340              	.LASF621:
 17341 174c 5F69735F 		.ascii	"_is_cxa\000"
 17341      63786100 
 17342              	.LASF319:
 17343 1754 4943555F 		.ascii	"ICU_STOP\000"
ARM GAS  /tmp/ccQCTkSU.s 			page 325


 17343      53544F50 
 17343      00
 17344              	.LASF220:
 17345 175d 73656C66 		.ascii	"selfindex\000"
 17345      696E6465 
 17345      7800
 17346              	.LASF182:
 17347 1767 6D757465 		.ascii	"mutex_t\000"
 17347      785F7400 
 17348              	.LASF681:
 17349 176f 5F703573 		.ascii	"_p5s\000"
 17349      00
 17350              	.LASF711:
 17351 1774 77696474 		.ascii	"width\000"
 17351      6800
 17352              	.LASF709:
 17353 177a 66696C6C 		.ascii	"filler\000"
 17353      657200
 17354              	.LASF107:
 17355 1781 52455345 		.ascii	"RESERVED0\000"
 17355      52564544 
 17355      3000
 17356              	.LASF110:
 17357 178b 52455345 		.ascii	"RESERVED1\000"
 17357      52564544 
 17357      3100
 17358              	.LASF112:
 17359 1795 52455345 		.ascii	"RESERVED2\000"
 17359      52564544 
 17359      3200
 17360              	.LASF114:
 17361 179f 52455345 		.ascii	"RESERVED3\000"
 17361      52564544 
 17361      3300
 17362              	.LASF116:
 17363 17a9 52455345 		.ascii	"RESERVED4\000"
 17363      52564544 
 17363      3400
 17364              	.LASF118:
 17365 17b3 52455345 		.ascii	"RESERVED5\000"
 17365      52564544 
 17365      3500
 17366              	.LASF577:
 17367 17bd 55534245 		.ascii	"USBEndpointConfig\000"
 17367      6E64706F 
 17367      696E7443 
 17367      6F6E6669 
 17367      6700
 17368              	.LASF152:
 17369 17cf 77747472 		.ascii	"wttrp\000"
 17369      7000
 17370              	.LASF295:
 17371 17d5 72787175 		.ascii	"rxqueue\000"
 17371      65756500 
 17372              	.LASF529:
 17373 17dd 72657376 		.ascii	"resvd444\000"
 17373      64343434 
ARM GAS  /tmp/ccQCTkSU.s 			page 326


 17373      00
 17374              	.LASF699:
 17375 17e6 5F676C6F 		.ascii	"_global_impure_ptr\000"
 17375      62616C5F 
 17375      696D7075 
 17375      72655F70 
 17375      747200
 17376              	.LASF259:
 17377 17f9 67727070 		.ascii	"grpp\000"
 17377      00
 17378              	.LASF211:
 17379 17fe 6D62785F 		.ascii	"mbx_list\000"
 17379      6C697374 
 17379      00
 17380              	.LASF171:
 17381 1807 6F66665F 		.ascii	"off_newer\000"
 17381      6E657765 
 17381      7200
 17382              	.LASF146:
 17383 1811 73746D33 		.ascii	"stm32_tim_t\000"
 17383      325F7469 
 17383      6D5F7400 
 17384              	.LASF297:
 17385 181d 7478656D 		.ascii	"txempty_cb\000"
 17385      7074795F 
 17385      636200
 17386              	.LASF33:
 17387 1828 71756575 		.ascii	"queue\000"
 17387      6500
 17388              	.LASF447:
 17389 182e 706D6E65 		.ascii	"pmnext\000"
 17389      787400
 17390              	.LASF714:
 17391 1835 746D7062 		.ascii	"tmpbuf\000"
 17391      756600
 17392              	.LASF77:
 17393 183c 49544D5F 		.ascii	"ITM_RxBuffer\000"
 17393      52784275 
 17393      66666572 
 17393      00
 17394              	.LASF334:
 17395 1849 4943555F 		.ascii	"ICU_CHANNEL_2\000"
 17395      4348414E 
 17395      4E454C5F 
 17395      3200
 17396              	.LASF0:
 17397 1857 6C6F6E67 		.ascii	"long long unsigned int\000"
 17397      206C6F6E 
 17397      6720756E 
 17397      7369676E 
 17397      65642069 
 17398              	.LASF147:
 17399 186e 6F666673 		.ascii	"offset\000"
 17399      657400
 17400              	.LASF192:
 17401 1875 6E657874 		.ascii	"nextmem\000"
 17401      6D656D00 
ARM GAS  /tmp/ccQCTkSU.s 			page 327


 17402              	.LASF426:
 17403 187d 72786572 		.ascii	"rxerr_cb\000"
 17403      725F6362 
 17403      00
 17404              	.LASF121:
 17405 1886 4E445452 		.ascii	"NDTR\000"
 17405      00
 17406              	.LASF645:
 17407 188b 5F67616D 		.ascii	"_gamma_signgam\000"
 17407      6D615F73 
 17407      69676E67 
 17407      616D00
 17408              	.LASF491:
 17409 189a 44494550 		.ascii	"DIEPINT\000"
 17409      494E5400 
 17410              	.LASF323:
 17411 18a2 69637573 		.ascii	"icustate_t\000"
 17411      74617465 
 17411      5F7400
 17412              	.LASF130:
 17413 18ad 5350495F 		.ascii	"SPI_TypeDef\000"
 17413      54797065 
 17413      44656600 
 17414              	.LASF137:
 17415 18b9 534D4352 		.ascii	"SMCR\000"
 17415      00
 17416              	.LASF168:
 17417 18be 74687265 		.ascii	"threadsize\000"
 17417      61647369 
 17417      7A6500
 17418              	.LASF61:
 17419 18c9 63685F76 		.ascii	"ch_virtual_timer\000"
 17419      69727475 
 17419      616C5F74 
 17419      696D6572 
 17419      00
 17420              	.LASF156:
 17421 18da 65776D61 		.ascii	"ewmask\000"
 17421      736B00
 17422              	.LASF188:
 17423 18e1 6576656E 		.ascii	"event_source\000"
 17423      745F736F 
 17423      75726365 
 17423      00
 17424              	.LASF301:
 17425 18ee 43414E44 		.ascii	"CAND1\000"
 17425      3100
 17426              	.LASF113:
 17427 18f4 46533152 		.ascii	"FS1R\000"
 17427      00
 17428              	.LASF24:
 17429 18f9 74737461 		.ascii	"tstate_t\000"
 17429      74655F74 
 17429      00
 17430              	.LASF386:
 17431 1902 53504944 		.ascii	"SPIDriver\000"
 17431      72697665 
ARM GAS  /tmp/ccQCTkSU.s 			page 328


 17431      7200
 17432              	.LASF537:
 17433 190c 4441494E 		.ascii	"DAINT\000"
 17433      5400
 17434              	.LASF392:
 17435 1912 53504943 		.ascii	"SPIConfig\000"
 17435      6F6E6669 
 17435      6700
 17436              	.LASF642:
 17437 191c 5F756E73 		.ascii	"_unspecified_locale_info\000"
 17437      70656369 
 17437      66696564 
 17437      5F6C6F63 
 17437      616C655F 
 17438              	.LASF697:
 17439 1935 5F5F7366 		.ascii	"__sf_fake_stderr\000"
 17439      5F66616B 
 17439      655F7374 
 17439      64657272 
 17439      00
 17440              	.LASF433:
 17441 1946 7472616E 		.ascii	"transmitting\000"
 17441      736D6974 
 17441      74696E67 
 17441      00
 17442              	.LASF353:
 17443 1953 6368616E 		.ascii	"channels\000"
 17443      6E656C73 
 17443      00
 17444              	.LASF641:
 17445 195c 5F5F7364 		.ascii	"__sdidinit\000"
 17445      6964696E 
 17445      697400
 17446              	.LASF369:
 17447 1967 53657269 		.ascii	"SerialDriver\000"
 17447      616C4472 
 17447      69766572 
 17447      00
 17448              	.LASF91:
 17449 1974 4A445231 		.ascii	"JDR1\000"
 17449      00
 17450              	.LASF92:
 17451 1979 4A445232 		.ascii	"JDR2\000"
 17451      00
 17452              	.LASF93:
 17453 197e 4A445233 		.ascii	"JDR3\000"
 17453      00
 17454              	.LASF94:
 17455 1983 4A445234 		.ascii	"JDR4\000"
 17455      00
 17456              	.LASF499:
 17457 1988 444F4550 		.ascii	"DOEPTSIZ\000"
 17457      5453495A 
 17457      00
 17458              	.LASF586:
 17459 1991 5F5F6170 		.ascii	"__ap\000"
 17459      00
ARM GAS  /tmp/ccQCTkSU.s 			page 329


 17460              	.LASF209:
 17461 1996 73656D5F 		.ascii	"sem_list\000"
 17461      6C697374 
 17461      00
 17462              	.LASF249:
 17463 199f 4144435F 		.ascii	"ADC_READY\000"
 17463      52454144 
 17463      5900
 17464              	.LASF173:
 17465 19a9 6F66665F 		.ascii	"off_name\000"
 17465      6E616D65 
 17465      00
 17466              	.LASF410:
 17467 19b2 75617274 		.ascii	"uartrxstate_t\000"
 17467      72787374 
 17467      6174655F 
 17467      7400
 17468              	.LASF600:
 17469 19c0 5F666C6F 		.ascii	"_flock_t\000"
 17469      636B5F74 
 17469      00
 17470              	.LASF64:
 17471 19c9 76697274 		.ascii	"virtual_timers_list_t\000"
 17471      75616C5F 
 17471      74696D65 
 17471      72735F6C 
 17471      6973745F 
 17472              	.LASF696:
 17473 19df 5F5F7366 		.ascii	"__sf_fake_stdout\000"
 17473      5F66616B 
 17473      655F7374 
 17473      646F7574 
 17473      00
 17474              	.LASF406:
 17475 19f0 75617274 		.ascii	"uarttxstate_t\000"
 17475      74787374 
 17475      6174655F 
 17475      7400
 17476              	.LASF454:
 17477 19fe 5553425F 		.ascii	"USB_SUSPENDED\000"
 17477      53555350 
 17477      454E4445 
 17477      4400
 17478              	.LASF505:
 17479 1a0c 47525354 		.ascii	"GRSTCTL\000"
 17479      43544C00 
 17480              	.LASF269:
 17481 1a14 63697263 		.ascii	"circular\000"
 17481      756C6172 
 17481      00
 17482              	.LASF703:
 17483 1a1d 72657476 		.ascii	"retval\000"
 17483      616C00
 17484              	.LASF530:
 17485 1a24 72657376 		.ascii	"resvd700\000"
 17485      64373030 
 17485      00
ARM GAS  /tmp/ccQCTkSU.s 			page 330


 17486              	.LASF128:
 17487 1a2d 49325343 		.ascii	"I2SCFGR\000"
 17487      46475200 
 17488              	.LASF378:
 17489 1a35 77726974 		.ascii	"writet\000"
 17489      657400
 17490              	.LASF3:
 17491 1a3c 6C6F6E67 		.ascii	"long long int\000"
 17491      206C6F6E 
 17491      6720696E 
 17491      7400
 17492              	.LASF517:
 17493 1a4a 48505458 		.ascii	"HPTXFSIZ\000"
 17493      4653495A 
 17493      00
 17494              	.LASF668:
 17495 1a53 5F666C61 		.ascii	"_flags2\000"
 17495      67733200 
 17496              	.LASF331:
 17497 1a5b 6963756D 		.ascii	"icumode_t\000"
 17497      6F64655F 
 17497      7400
 17498              	.LASF283:
 17499 1a65 61646365 		.ascii	"adcerror_t\000"
 17499      72726F72 
 17499      5F7400
 17500              	.LASF579:
 17501 1a70 6765745F 		.ascii	"get_descriptor_cb\000"
 17501      64657363 
 17501      72697074 
 17501      6F725F63 
 17501      6200
 17502              	.LASF643:
 17503 1a82 5F6C6F63 		.ascii	"_locale\000"
 17503      616C6500 
 17504              	.LASF29:
 17505 1a8a 6576656E 		.ascii	"eventflags_t\000"
 17505      74666C61 
 17505      67735F74 
 17505      00
 17506              	.LASF382:
 17507 1a97 5350495F 		.ascii	"SPI_READY\000"
 17507      52454144 
 17507      5900
 17508              	.LASF457:
 17509 1aa1 5553425F 		.ascii	"USB_EP0_IN_TX\000"
 17509      4550305F 
 17509      494E5F54 
 17509      5800
 17510              	.LASF553:
 17511 1aaf 4649464F 		.ascii	"FIFO\000"
 17511      00
 17512              	.LASF109:
 17513 1ab4 73464946 		.ascii	"sFIFOMailBox\000"
 17513      4F4D6169 
 17513      6C426F78 
 17513      00
ARM GAS  /tmp/ccQCTkSU.s 			page 331


 17514              	.LASF79:
 17515 1ac1 41484250 		.ascii	"AHBPrescTable\000"
 17515      72657363 
 17515      5461626C 
 17515      6500
 17516              	.LASF721:
 17517 1acf 474E5520 		.ascii	"GNU C11 7.3.1 20180622 (release) [ARM/embedded-7-br"
 17517      43313120 
 17517      372E332E 
 17517      31203230 
 17517      31383036 
 17518 1b02 616E6368 		.ascii	"anch revision 261907] -mcpu=cortex-m4 -mthumb -mflo"
 17518      20726576 
 17518      6973696F 
 17518      6E203236 
 17518      31393037 
 17519 1b35 61742D61 		.ascii	"at-abi=hard -mfpu=fpv4-sp-d16 -ggdb -O3 -std=c11 -f"
 17519      62693D68 
 17519      61726420 
 17519      2D6D6670 
 17519      753D6670 
 17520 1b68 6F6D6974 		.ascii	"omit-frame-pointer -ffunction-sections -fdata-secti"
 17520      2D667261 
 17520      6D652D70 
 17520      6F696E74 
 17520      6572202D 
 17521 1b9b 6F6E7320 		.ascii	"ons -fno-common\000"
 17521      2D666E6F 
 17521      2D636F6D 
 17521      6D6F6E00 
 17522              	.LASF532:
 17523 1bab 4443544C 		.ascii	"DCTL\000"
 17523      00
 17524              	.LASF561:
 17525 1bb0 74786275 		.ascii	"txbuf\000"
 17525      6600
 17526              	.LASF551:
 17527 1bb6 50434743 		.ascii	"PCGCCTL\000"
 17527      43544C00 
 17528              	.LASF469:
 17529 1bbe 5553425F 		.ascii	"USB_EVENT_WAKEUP\000"
 17529      4556454E 
 17529      545F5741 
 17529      4B455550 
 17529      00
 17530              	.LASF576:
 17531 1bcf 73657475 		.ascii	"setup_buf\000"
 17531      705F6275 
 17531      6600
 17532              	.LASF272:
 17533 1bd9 6572726F 		.ascii	"error_cb\000"
 17533      725F6362 
 17533      00
 17534              	.LASF224:
 17535 1be2 42617365 		.ascii	"BaseSequentialStreamVMT\000"
 17535      53657175 
 17535      656E7469 
ARM GAS  /tmp/ccQCTkSU.s 			page 332


 17535      616C5374 
 17535      7265616D 
 17536              	.LASF48:
 17537 1bfa 74687265 		.ascii	"thread_reference_t\000"
 17537      61645F72 
 17537      65666572 
 17537      656E6365 
 17537      5F7400
 17538              	.LASF434:
 17539 1c0d 72656365 		.ascii	"receiving\000"
 17539      6976696E 
 17539      6700
 17540              	.LASF669:
 17541 1c17 5F5F4649 		.ascii	"__FILE\000"
 17541      4C4500
 17542              	.LASF337:
 17543 1c1e 66726571 		.ascii	"frequency\000"
 17543      75656E63 
 17543      7900
 17544              	.LASF393:
 17545 1c28 68616C5F 		.ascii	"hal_spi_config\000"
 17545      7370695F 
 17545      636F6E66 
 17545      696700
 17546              	.LASF148:
 17547 1c37 746D5F63 		.ascii	"tm_calibration_t\000"
 17547      616C6962 
 17547      72617469 
 17547      6F6E5F74 
 17547      00
 17548              	.LASF573:
 17549 1c48 696E5F73 		.ascii	"in_state\000"
 17549      74617465 
 17549      00
 17550              	.LASF131:
 17551 1c51 47545052 		.ascii	"GTPR\000"
 17551      00
 17552              	.LASF165:
 17553 1c56 76657273 		.ascii	"version\000"
 17553      696F6E00 
 17554              	.LASF186:
 17555 1c5e 6576656E 		.ascii	"events\000"
 17555      747300
 17556              	.LASF401:
 17557 1c65 55415254 		.ascii	"UART_READY\000"
 17557      5F524541 
 17557      445900
 17558              	.LASF139:
 17559 1c70 43434D52 		.ascii	"CCMR1\000"
 17559      3100
 17560              	.LASF140:
 17561 1c76 43434D52 		.ascii	"CCMR2\000"
 17561      3200
 17562              	.LASF144:
 17563 1c7c 43434D52 		.ascii	"CCMR3\000"
 17563      3300
 17564              	.LASF1:
ARM GAS  /tmp/ccQCTkSU.s 			page 333


 17565 1c82 756E7369 		.ascii	"unsigned int\000"
 17565      676E6564 
 17565      20696E74 
 17565      00
 17566              	.LASF276:
 17567 1c8f 73717232 		.ascii	"sqr2\000"
 17567      00
 17568              	.LASF277:
 17569 1c94 73717233 		.ascii	"sqr3\000"
 17569      00
 17570              	.LASF648:
 17571 1c99 5F723438 		.ascii	"_r48\000"
 17571      00
 17572              	.LASF521:
 17573 1c9e 48464952 		.ascii	"HFIR\000"
 17573      00
 17574              	.LASF449:
 17575 1ca3 5553425F 		.ascii	"USB_UNINIT\000"
 17575      554E494E 
 17575      495400
 17576              	.LASF216:
 17577 1cae 73747265 		.ascii	"stream\000"
 17577      616D00
 17578              	.LASF218:
 17579 1cb5 64756D6D 		.ascii	"dummy\000"
 17579      7900
 17580              	.LASF712:
 17581 1cbb 69735F6C 		.ascii	"is_long\000"
 17581      6F6E6700 
 17582              	.LASF675:
 17583 1cc3 5F6D756C 		.ascii	"_mult\000"
 17583      7400
 17584              	.LASF9:
 17585 1cc9 73686F72 		.ascii	"short int\000"
 17585      7420696E 
 17585      7400
 17586              	.LASF475:
 17587 1cd3 75736263 		.ascii	"usbcallback_t\000"
 17587      616C6C62 
 17587      61636B5F 
 17587      7400
 17588              	.LASF200:
 17589 1ce1 6D656D6F 		.ascii	"memory_pool_t\000"
 17589      72795F70 
 17589      6F6F6C5F 
 17589      7400
 17590              	.LASF658:
 17591 1cef 5F726561 		.ascii	"_read\000"
 17591      6400
 17592              	.LASF504:
 17593 1cf5 47555342 		.ascii	"GUSBCFG\000"
 17593      43464700 
 17594              	.LASF55:
 17595 1cfd 70726576 		.ascii	"prev\000"
 17595      00
 17596              	.LASF413:
 17597 1d02 74787374 		.ascii	"txstate\000"
ARM GAS  /tmp/ccQCTkSU.s 			page 334


 17597      61746500 
 17598              	.LASF241:
 17599 1d0a 6F757470 		.ascii	"output_queue_t\000"
 17599      75745F71 
 17599      75657565 
 17599      5F7400
 17600              	.LASF673:
 17601 1d19 5F72616E 		.ascii	"_rand48\000"
 17601      64343800 
 17602              	.LASF554:
 17603 1d21 73746D33 		.ascii	"stm32_otg_t\000"
 17603      325F6F74 
 17603      675F7400 
 17604              	.LASF472:
 17605 1d2d 75645F73 		.ascii	"ud_size\000"
 17605      697A6500 
 17606              	.LASF46:
 17607 1d35 7265616C 		.ascii	"realprio\000"
 17607      7072696F 
 17607      00
 17608              	.LASF431:
 17609 1d3e 55415254 		.ascii	"UARTD8\000"
 17609      443800
 17610              	.LASF571:
 17611 1d45 696E5F6D 		.ascii	"in_maxsize\000"
 17611      61787369 
 17611      7A6500
 17612              	.LASF585:
 17613 1d50 5F5F7661 		.ascii	"__va_list\000"
 17613      5F6C6973 
 17613      7400
 17614              	.LASF405:
 17615 1d5a 55415254 		.ascii	"UART_TX_COMPLETE\000"
 17615      5F54585F 
 17615      434F4D50 
 17615      4C455445 
 17615      00
 17616              	.LASF40:
 17617 1d6b 666C6167 		.ascii	"flags\000"
 17617      7300
 17618              	.LASF51:
 17619 1d71 63685F74 		.ascii	"ch_threads_list\000"
 17619      68726561 
 17619      64735F6C 
 17619      69737400 
 17620              	.LASF367:
 17621 1d81 53445F52 		.ascii	"SD_READY\000"
 17621      45414459 
 17621      00
 17622              	.LASF455:
 17623 1d8a 75736273 		.ascii	"usbstate_t\000"
 17623      74617465 
 17623      5F7400
 17624              		.ident	"GCC: (GNU Tools for Arm Embedded Processors 7-2018-q3-update) 7.3.1 20180622 (release) [AR
ARM GAS  /tmp/ccQCTkSU.s 			page 335


DEFINED SYMBOLS
                            *ABS*:0000000000000000 chprintf.c
     /tmp/ccQCTkSU.s:29     .text.ftoa:0000000000000000 $t
     /tmp/ccQCTkSU.s:37     .text.ftoa:0000000000000000 ftoa
     /tmp/ccQCTkSU.s:467    .text.ftoa:0000000000000258 $d
     /tmp/ccQCTkSU.s:475    .text.ftoa:000000000000026c $t
     /tmp/ccQCTkSU.s:1260   .text.ftoa:0000000000000680 $d
     /tmp/ccQCTkSU.s:1269   .text.chvprintf:0000000000000000 $t
     /tmp/ccQCTkSU.s:1277   .text.chvprintf:0000000000000000 chvprintf
     /tmp/ccQCTkSU.s:1426   .text.chvprintf:00000000000000ac $d
     /tmp/ccQCTkSU.s:1480   .text.chvprintf:0000000000000116 $t
     /tmp/ccQCTkSU.s:1520   .text.chvprintf:000000000000014c $d
     /tmp/ccQCTkSU.s:1574   .text.chvprintf:00000000000001b6 $t
     /tmp/ccQCTkSU.s:2251   .text.chvprintf:000000000000052c $d
     /tmp/ccQCTkSU.s:2257   .text.chvprintf:0000000000000534 $t
     /tmp/ccQCTkSU.s:2387   .text.chvprintf:00000000000005d0 $d
     /tmp/ccQCTkSU.s:2393   .text.chprintf:0000000000000000 $t
     /tmp/ccQCTkSU.s:2401   .text.chprintf:0000000000000000 chprintf
     /tmp/ccQCTkSU.s:2443   .text.chsnprintf:0000000000000000 $t
     /tmp/ccQCTkSU.s:2451   .text.chsnprintf:0000000000000000 chsnprintf
     /tmp/ccQCTkSU.s:2575   .text.chvsnprintf:0000000000000000 $t
     /tmp/ccQCTkSU.s:2583   .text.chvsnprintf:0000000000000000 chvsnprintf
     /tmp/ccQCTkSU.s:2669   .bss.f.10757:0000000000000000 $d
     /tmp/ccQCTkSU.s:2673   .bss.f.10757:0000000000000000 f.10757
     /tmp/ccQCTkSU.s:2676   .rodata.chvprintf.str1.4:0000000000000000 $d
     /tmp/ccQCTkSU.s:2680   .rodata.pow10:0000000000000000 $d
     /tmp/ccQCTkSU.s:2684   .rodata.pow10:0000000000000000 pow10

UNDEFINED SYMBOLS
__aeabi_dcmpun
__aeabi_dcmple
__aeabi_dcmplt
__aeabi_dcmpeq
__aeabi_dcmpge
__aeabi_ddiv
__aeabi_dmul
__aeabi_d2iz
__aeabi_i2d
__aeabi_dsub
__aeabi_ui2d
msObjectInit
