ARM GAS  /tmp/ccLxO412.s 			page 1


   1              		.cpu cortex-m4
   2              		.eabi_attribute 27, 1
   3              		.eabi_attribute 28, 1
   4              		.eabi_attribute 20, 1
   5              		.eabi_attribute 21, 1
   6              		.eabi_attribute 23, 3
   7              		.eabi_attribute 24, 1
   8              		.eabi_attribute 25, 1
   9              		.eabi_attribute 26, 1
  10              		.eabi_attribute 30, 2
  11              		.eabi_attribute 34, 1
  12              		.eabi_attribute 18, 4
  13              		.file	"chprintf.c"
  14              		.text
  15              	.Ltext0:
  16              		.cfi_sections	.debug_frame
  17              		.global	__aeabi_dcmpun
  18              		.global	__aeabi_dcmple
  19              		.global	__aeabi_dcmplt
  20              		.global	__aeabi_dcmpeq
  21              		.global	__aeabi_dcmpge
  22              		.global	__aeabi_ddiv
  23              		.global	__aeabi_dmul
  24              		.global	__aeabi_d2iz
  25              		.global	__aeabi_i2d
  26              		.global	__aeabi_dsub
  27              		.global	__aeabi_ui2d
  28              		.section	.text.ftoa,"ax",%progbits
  29              		.align	1
  30              		.p2align 2,,3
  31              		.global	ftoa
  32              		.syntax unified
  33              		.thumb
  34              		.thumb_func
  35              		.fpu fpv4-sp-d16
  36              		.type	ftoa, %function
  37              	ftoa:
  38              	.LFB329:
  39              		.file 1 "./RM18A-ChibiOS18-Core/chibios/os/hal/lib/streams/chprintf.c"
  40              		.loc 1 124 0
  41              		.cfi_startproc
  42              		@ args = 0, pretend = 0, frame = 16
  43              		@ frame_needed = 0, uses_anonymous_args = 0
  44              	.LVL0:
  45 0000 2DE9F04F 		push	{r4, r5, r6, r7, r8, r9, r10, fp, lr}
  46              		.cfi_def_cfa_offset 36
  47              		.cfi_offset 4, -36
  48              		.cfi_offset 5, -32
  49              		.cfi_offset 6, -28
  50              		.cfi_offset 7, -24
  51              		.cfi_offset 8, -20
  52              		.cfi_offset 9, -16
  53              		.cfi_offset 10, -12
  54              		.cfi_offset 11, -8
  55              		.cfi_offset 14, -4
  56 0004 59EC108B 		vmov	r8, r9, d0
  57 0008 85B0     		sub	sp, sp, #20
ARM GAS  /tmp/ccLxO412.s 			page 2


  58              		.cfi_def_cfa_offset 56
  59              		.loc 1 124 0
  60 000a 0546     		mov	r5, r0
  61 000c 8B46     		mov	fp, r1
  62              		.loc 1 125 0
  63 000e 10EE102A 		vmov	r2, s0	@ int
  64 0012 4B46     		mov	r3, r9
  65 0014 10EE100A 		vmov	r0, s0	@ int
  66              	.LVL1:
  67 0018 4946     		mov	r1, r9
  68              	.LVL2:
  69 001a FFF7FEFF 		bl	__aeabi_dcmpun
  70              	.LVL3:
  71 001e 0028     		cmp	r0, #0
  72 0020 40F0E182 		bne	.L193
  73              		.loc 1 132 0
  74 0024 29F00047 		bic	r7, r9, #-2147483648
  75 0028 4046     		mov	r0, r8
  76 002a 3946     		mov	r1, r7
  77 002c 4FF0FF32 		mov	r2, #-1
  78 0030 894B     		ldr	r3, .L197
  79 0032 FFF7FEFF 		bl	__aeabi_dcmpun
  80              	.LVL4:
  81 0036 E0B9     		cbnz	r0, .L5
  82 0038 4046     		mov	r0, r8
  83 003a 3946     		mov	r1, r7
  84 003c 4FF0FF32 		mov	r2, #-1
  85 0040 854B     		ldr	r3, .L197
  86 0042 FFF7FEFF 		bl	__aeabi_dcmple
  87              	.LVL5:
  88 0046 A0B9     		cbnz	r0, .L5
  89              		.loc 1 134 0
  90 0048 4046     		mov	r0, r8
  91 004a 4946     		mov	r1, r9
  92 004c 0022     		movs	r2, #0
  93 004e 0023     		movs	r3, #0
  94 0050 FFF7FEFF 		bl	__aeabi_dcmplt
  95              	.LVL6:
  96 0054 10B1     		cbz	r0, .L6
  97              	.LVL7:
  98              		.loc 1 135 0
  99 0056 2D23     		movs	r3, #45
 100 0058 2B70     		strb	r3, [r5]
 101 005a 0135     		adds	r5, r5, #1
 102              	.LVL8:
 103              	.L6:
 104              		.loc 1 136 0
 105 005c 4921     		movs	r1, #73
 106              		.loc 1 137 0
 107 005e 4E22     		movs	r2, #78
 108              		.loc 1 138 0
 109 0060 4623     		movs	r3, #70
 110              		.loc 1 136 0
 111 0062 2970     		strb	r1, [r5]
 112              	.LVL9:
 113              		.loc 1 137 0
 114 0064 6A70     		strb	r2, [r5, #1]
ARM GAS  /tmp/ccLxO412.s 			page 3


 115              		.loc 1 138 0
 116 0066 AB70     		strb	r3, [r5, #2]
 117 0068 EE1C     		adds	r6, r5, #3
 118              	.LVL10:
 119              	.L1:
 120              		.loc 1 202 0
 121 006a 3046     		mov	r0, r6
 122 006c 05B0     		add	sp, sp, #20
 123              		.cfi_remember_state
 124              		.cfi_def_cfa_offset 36
 125              		@ sp needed
 126 006e BDE8F08F 		pop	{r4, r5, r6, r7, r8, r9, r10, fp, pc}
 127              	.LVL11:
 128              	.L5:
 129              		.cfi_restore_state
 130              	.LBB38:
 131              	.LBB39:
 132              		.loc 1 143 0
 133 0072 0022     		movs	r2, #0
 134 0074 0023     		movs	r3, #0
 135 0076 4046     		mov	r0, r8
 136 0078 4946     		mov	r1, r9
 137 007a FFF7FEFF 		bl	__aeabi_dcmpeq
 138              	.LVL12:
 139 007e 0BF1FF3A 		add	r10, fp, #-1
 140 0082 0446     		mov	r4, r0
 141 0084 0028     		cmp	r0, #0
 142 0086 40F0F881 		bne	.L188
 143              		.loc 1 145 0
 144 008a 0022     		movs	r2, #0
 145 008c 734B     		ldr	r3, .L197+4
 146 008e 4046     		mov	r0, r8
 147 0090 4946     		mov	r1, r9
 148 0092 FFF7FEFF 		bl	__aeabi_dcmpge
 149              	.LVL13:
 150 0096 0028     		cmp	r0, #0
 151 0098 00F0BD82 		beq	.L194
 152              		.loc 1 147 0
 153 009c 6F4F     		ldr	r7, .L197+4
 154 009e 0026     		movs	r6, #0
 155              	.LVL14:
 156              	.L10:
 157 00a0 4046     		mov	r0, r8
 158 00a2 4946     		mov	r1, r9
 159 00a4 3246     		mov	r2, r6
 160 00a6 3B46     		mov	r3, r7
 161 00a8 FFF7FEFF 		bl	__aeabi_ddiv
 162              	.LVL15:
 163              		.loc 1 145 0
 164 00ac 3246     		mov	r2, r6
 165 00ae 3B46     		mov	r3, r7
 166              		.loc 1 147 0
 167 00b0 8046     		mov	r8, r0
 168              	.LVL16:
 169 00b2 8946     		mov	r9, r1
 170              	.LVL17:
 171              		.loc 1 148 0
ARM GAS  /tmp/ccLxO412.s 			page 4


 172 00b4 0134     		adds	r4, r4, #1
 173              	.LVL18:
 174              		.loc 1 145 0
 175 00b6 FFF7FEFF 		bl	__aeabi_dcmpge
 176              	.LVL19:
 177 00ba 0028     		cmp	r0, #0
 178 00bc F0D1     		bne	.L10
 179              	.LVL20:
 180              	.L11:
 181              		.loc 1 150 0
 182 00be 0022     		movs	r2, #0
 183 00c0 674B     		ldr	r3, .L197+8
 184 00c2 4046     		mov	r0, r8
 185 00c4 4946     		mov	r1, r9
 186 00c6 FFF7FEFF 		bl	__aeabi_dcmplt
 187              	.LVL21:
 188 00ca 80B1     		cbz	r0, .L13
 189              		.loc 1 152 0
 190 00cc 634F     		ldr	r7, .L197+4
 191 00ce 0026     		movs	r6, #0
 192              	.L15:
 193 00d0 4046     		mov	r0, r8
 194 00d2 4946     		mov	r1, r9
 195 00d4 3246     		mov	r2, r6
 196 00d6 3B46     		mov	r3, r7
 197 00d8 FFF7FEFF 		bl	__aeabi_dmul
 198              	.LVL22:
 199              		.loc 1 150 0
 200 00dc 0022     		movs	r2, #0
 201 00de 604B     		ldr	r3, .L197+8
 202              		.loc 1 152 0
 203 00e0 8046     		mov	r8, r0
 204              	.LVL23:
 205 00e2 8946     		mov	r9, r1
 206              	.LVL24:
 207              		.loc 1 153 0
 208 00e4 013C     		subs	r4, r4, #1
 209              	.LVL25:
 210              		.loc 1 150 0
 211 00e6 FFF7FEFF 		bl	__aeabi_dcmplt
 212              	.LVL26:
 213 00ea 0028     		cmp	r0, #0
 214 00ec F0D1     		bne	.L15
 215              	.LVL27:
 216              	.L13:
 217              		.loc 1 158 0
 218 00ee BAF1090F 		cmp	r10, #9
 219 00f2 28BF     		it	cs
 220 00f4 4FF0090B 		movcs	fp, #9
 221              	.LVL28:
 222 00f8 4046     		mov	r0, r8
 223 00fa 4946     		mov	r1, r9
 224 00fc FFF7FEFF 		bl	__aeabi_d2iz
 225              	.LVL29:
 226              		.loc 1 160 0
 227 0100 A345     		cmp	fp, r4
 228 0102 00F2C081 		bhi	.L12
ARM GAS  /tmp/ccLxO412.s 			page 5


 229              	.LVL30:
 230              	.LBB40:
 231              	.LBB41:
 232              	.LBB42:
 233              		.loc 1 69 0
 234 0106 05F10B0A 		add	r10, r5, #11
 235              	.LVL31:
 236 010a 5246     		mov	r2, r10
 237              		.loc 1 59 0
 238 010c 0146     		mov	r1, r0
 239              		.loc 1 72 0
 240 010e 554E     		ldr	r6, .L197+12
 241 0110 00E0     		b	.L20
 242              	.LVL32:
 243              	.L62:
 244              		.loc 1 78 0
 245 0112 1A46     		mov	r2, r3
 246              	.LVL33:
 247              	.L20:
 248              		.loc 1 72 0
 249 0114 A6FB0173 		umull	r7, r3, r6, r1
 250 0118 DB08     		lsrs	r3, r3, #3
 251 011a 03EB830C 		add	ip, r3, r3, lsl #2
 252 011e 1F46     		mov	r7, r3
 253 0120 A1EB4C03 		sub	r3, r1, ip, lsl #1
 254              	.LVL34:
 255              		.loc 1 73 0
 256 0124 3033     		adds	r3, r3, #48
 257              	.LVL35:
 258              		.loc 1 76 0
 259 0126 02F8013C 		strb	r3, [r2, #-1]
 260              		.loc 1 78 0
 261 012a 3946     		mov	r1, r7
 262              	.LVL36:
 263              		.loc 1 76 0
 264 012c 531E     		subs	r3, r2, #1
 265              	.LVL37:
 266              		.loc 1 78 0
 267 012e 002F     		cmp	r7, #0
 268 0130 EFD1     		bne	.L62
 269 0132 D61C     		adds	r6, r2, #3
 270 0134 291D     		adds	r1, r5, #4
 271              	.LVL38:
 272 0136 8B42     		cmp	r3, r1
 273 0138 38BF     		it	cc
 274 013a B542     		cmpcc	r5, r6
 275              		.loc 1 80 0
 276 013c AAEB030A 		sub	r10, r10, r3
 277              	.LVL39:
 278 0140 0393     		str	r3, [sp, #12]
 279 0142 C0F05782 		bcc	.L21
 280 0146 BAF10B0F 		cmp	r10, #11
 281 014a 40F25382 		bls	.L21
 282 014e 6942     		negs	r1, r5
 283 0150 01F00301 		and	r1, r1, #3
 284 0154 0AF1FF37 		add	r7, r10, #-1
 285              	.LVL40:
ARM GAS  /tmp/ccLxO412.s 			page 6


 286 0158 CE1C     		adds	r6, r1, #3
 287 015a B742     		cmp	r7, r6
 288 015c 0297     		str	r7, [sp, #8]
 289 015e 0097     		str	r7, [sp]
 290 0160 C0F06982 		bcc	.L63
 291 0164 0029     		cmp	r1, #0
 292 0166 00F05282 		beq	.L64
 293              		.loc 1 82 0
 294 016a 1E78     		ldrb	r6, [r3]	@ zero_extendqisi2
 295 016c 2E70     		strb	r6, [r5]
 296 016e 0129     		cmp	r1, #1
 297 0170 05F10106 		add	r6, r5, #1
 298 0174 0196     		str	r6, [sp, #4]
 299              	.LVL41:
 300 0176 12D0     		beq	.L23
 301              	.LVL42:
 302 0178 5E78     		ldrb	r6, [r3, #1]	@ zero_extendqisi2
 303              	.LVL43:
 304 017a 6E70     		strb	r6, [r5, #1]
 305 017c AE1C     		adds	r6, r5, #2
 306 017e 0196     		str	r6, [sp, #4]
 307              	.LVL44:
 308 0180 0329     		cmp	r1, #3
 309              		.loc 1 83 0
 310 0182 AAF10206 		sub	r6, r10, #2
 311              		.loc 1 82 0
 312 0186 02F10102 		add	r2, r2, #1
 313              	.LVL45:
 314              		.loc 1 83 0
 315 018a 0096     		str	r6, [sp]
 316 018c 07D1     		bne	.L23
 317              	.LVL46:
 318              		.loc 1 82 0
 319 018e EE1C     		adds	r6, r5, #3
 320              	.LVL47:
 321 0190 9A78     		ldrb	r2, [r3, #2]	@ zero_extendqisi2
 322 0192 0196     		str	r6, [sp, #4]
 323              	.LVL48:
 324              		.loc 1 83 0
 325 0194 AAF10306 		sub	r6, r10, #3
 326              		.loc 1 82 0
 327 0198 AA70     		strb	r2, [r5, #2]
 328              		.loc 1 83 0
 329 019a 0096     		str	r6, [sp]
 330              	.LVL49:
 331              		.loc 1 82 0
 332 019c DA1C     		adds	r2, r3, #3
 333              	.LVL50:
 334              	.L23:
 335 019e AAEB010E 		sub	lr, r10, r1
 336 01a2 0B44     		add	r3, r3, r1
 337 01a4 4FEA9E0C 		lsr	ip, lr, #2
 338 01a8 2944     		add	r1, r1, r5
 339              		.loc 1 80 0
 340 01aa 0026     		movs	r6, #0
 341              	.L25:
 342 01ac 0136     		adds	r6, r6, #1
ARM GAS  /tmp/ccLxO412.s 			page 7


 343              		.loc 1 82 0
 344 01ae 53F8047B 		ldr	r7, [r3], #4	@ unaligned
 345 01b2 41F8047B 		str	r7, [r1], #4
 346 01b6 B445     		cmp	ip, r6
 347 01b8 F8D8     		bhi	.L25
 348 01ba 019B     		ldr	r3, [sp, #4]
 349 01bc 2EF00301 		bic	r1, lr, #3
 350 01c0 0B44     		add	r3, r3, r1
 351 01c2 1E46     		mov	r6, r3
 352 01c4 009B     		ldr	r3, [sp]
 353 01c6 8E45     		cmp	lr, r1
 354 01c8 A3EB0107 		sub	r7, r3, r1
 355 01cc 02EB0103 		add	r3, r2, r1
 356 01d0 15D0     		beq	.L28
 357              	.L22:
 358              	.LVL51:
 359 01d2 1A78     		ldrb	r2, [r3]	@ zero_extendqisi2
 360 01d4 3270     		strb	r2, [r6]
 361              	.LVL52:
 362              		.loc 1 83 0
 363 01d6 012F     		cmp	r7, #1
 364 01d8 11D0     		beq	.L28
 365              	.LVL53:
 366              		.loc 1 82 0
 367 01da 5A78     		ldrb	r2, [r3, #1]	@ zero_extendqisi2
 368 01dc 7270     		strb	r2, [r6, #1]
 369              	.LVL54:
 370              		.loc 1 83 0
 371 01de 022F     		cmp	r7, #2
 372 01e0 0DD0     		beq	.L28
 373              	.LVL55:
 374              		.loc 1 82 0
 375 01e2 9A78     		ldrb	r2, [r3, #2]	@ zero_extendqisi2
 376 01e4 B270     		strb	r2, [r6, #2]
 377              	.LVL56:
 378              		.loc 1 83 0
 379 01e6 032F     		cmp	r7, #3
 380 01e8 09D0     		beq	.L28
 381              	.LVL57:
 382              		.loc 1 82 0
 383 01ea DA78     		ldrb	r2, [r3, #3]	@ zero_extendqisi2
 384 01ec F270     		strb	r2, [r6, #3]
 385              	.LVL58:
 386              		.loc 1 83 0
 387 01ee 042F     		cmp	r7, #4
 388 01f0 05D0     		beq	.L28
 389              	.LVL59:
 390              		.loc 1 82 0
 391 01f2 1A79     		ldrb	r2, [r3, #4]	@ zero_extendqisi2
 392 01f4 3271     		strb	r2, [r6, #4]
 393              	.LVL60:
 394              		.loc 1 83 0
 395 01f6 052F     		cmp	r7, #5
 396 01f8 01D0     		beq	.L28
 397              	.LVL61:
 398              		.loc 1 82 0
 399 01fa 5B79     		ldrb	r3, [r3, #5]	@ zero_extendqisi2
ARM GAS  /tmp/ccLxO412.s 			page 8


 400              	.LVL62:
 401 01fc 7371     		strb	r3, [r6, #5]
 402              	.LVL63:
 403              	.L28:
 404 01fe 029A     		ldr	r2, [sp, #8]
 405              	.LBE42:
 406              	.LBE41:
 407              		.loc 1 182 0
 408 0200 194B     		ldr	r3, .L197+16
 409 0202 ABF10207 		sub	r7, fp, #2
 410 0206 2A44     		add	r2, r2, r5
 411 0208 53F82760 		ldr	r6, [r3, r7, lsl #2]
 412 020c 9346     		mov	fp, r2
 413              		.loc 1 184 0
 414 020e FFF7FEFF 		bl	__aeabi_i2d
 415              	.LVL64:
 416 0212 0246     		mov	r2, r0
 417 0214 0B46     		mov	r3, r1
 418 0216 4046     		mov	r0, r8
 419 0218 4946     		mov	r1, r9
 420 021a FFF7FEFF 		bl	__aeabi_dsub
 421              	.LVL65:
 422 021e 8046     		mov	r8, r0
 423              	.LVL66:
 424 0220 3046     		mov	r0, r6
 425 0222 8946     		mov	r9, r1
 426 0224 FFF7FEFF 		bl	__aeabi_ui2d
 427              	.LVL67:
 428 0228 0B46     		mov	r3, r1
 429 022a 0246     		mov	r2, r0
 430 022c 4946     		mov	r1, r9
 431 022e 4046     		mov	r0, r8
 432 0230 FFF7FEFF 		bl	__aeabi_dmul
 433              	.LVL68:
 434 0234 FFF7FEFF 		bl	__aeabi_d2iz
 435              	.LVL69:
 436              		.loc 1 185 0
 437 0238 0A49     		ldr	r1, .L197+12
 438 023a AA44     		add	r10, r10, r5
 439              	.LVL70:
 440 023c A1FB0636 		umull	r3, r6, r1, r6
 441              	.LVL71:
 442 0240 F608     		lsrs	r6, r6, #3
 443              	.LVL72:
 444              		.loc 1 183 0
 445 0242 4FF02E03 		mov	r3, #46
 446              	.LBB45:
 447              	.LBB46:
 448              		.loc 1 69 0
 449 0246 0BF10D02 		add	r2, fp, #13
 450              	.LBE46:
 451              	.LBE45:
 452              		.loc 1 183 0
 453 024a 8AF80030 		strb	r3, [r10]
 454              		.loc 1 185 0
 455 024e 08BF     		it	eq
 456 0250 0646     		moveq	r6, r0
ARM GAS  /tmp/ccLxO412.s 			page 9


 457              	.LVL73:
 458              	.LBB52:
 459              	.LBB47:
 460              		.loc 1 69 0
 461 0252 1746     		mov	r7, r2
 462              	.LVL74:
 463 0254 0BE0     		b	.L30
 464              	.L198:
 465 0256 00BF     		.align	2
 466              	.L197:
 467 0258 FFFFEF7F 		.word	2146435071
 468 025c 00002440 		.word	1076101120
 469 0260 0000F03F 		.word	1072693248
 470 0264 CDCCCCCC 		.word	-858993459
 471 0268 00000000 		.word	.LANCHOR0
 472              	.LVL75:
 473              	.L66:
 474              		.loc 1 78 0
 475 026c 1F46     		mov	r7, r3
 476              	.LVL76:
 477              	.L30:
 478              		.loc 1 72 0
 479 026e A1FB00C3 		umull	ip, r3, r1, r0
 480 0272 DB08     		lsrs	r3, r3, #3
 481 0274 03EB830E 		add	lr, r3, r3, lsl #2
 482 0278 9C46     		mov	ip, r3
 483 027a A0EB4E03 		sub	r3, r0, lr, lsl #1
 484              	.LVL77:
 485              		.loc 1 78 0
 486 027e A1FB0606 		umull	r0, r6, r1, r6
 487              	.LVL78:
 488              		.loc 1 73 0
 489 0282 3033     		adds	r3, r3, #48
 490              	.LVL79:
 491              		.loc 1 78 0
 492 0284 F608     		lsrs	r6, r6, #3
 493              		.loc 1 76 0
 494 0286 07F8013C 		strb	r3, [r7, #-1]
 495              		.loc 1 77 0
 496 028a 6046     		mov	r0, ip
 497              		.loc 1 76 0
 498 028c 07F1FF33 		add	r3, r7, #-1
 499              	.LVL80:
 500              		.loc 1 78 0
 501 0290 ECD1     		bne	.L66
 502 0292 0399     		ldr	r1, [sp, #12]
 503              	.LVL81:
 504 0294 691A     		subs	r1, r5, r1
 505 0296 01F10C0C 		add	ip, r1, #12
 506 029a 1031     		adds	r1, r1, #16
 507 029c 2944     		add	r1, r1, r5
 508 029e 05EB0C0E 		add	lr, r5, ip
 509 02a2 FE1C     		adds	r6, r7, #3
 510              		.loc 1 80 0
 511 02a4 D21A     		subs	r2, r2, r3
 512 02a6 B645     		cmp	lr, r6
 513 02a8 38BF     		it	cc
ARM GAS  /tmp/ccLxO412.s 			page 10


 514 02aa 8B42     		cmpcc	r3, r1
 515 02ac 9146     		mov	r9, r2
 516              	.LBE47:
 517              	.LBE52:
 518              		.loc 1 183 0
 519 02ae 0BF10200 		add	r0, fp, #2
 520              	.LVL82:
 521 02b2 C0F0CD81 		bcc	.L31
 522 02b6 0B2A     		cmp	r2, #11
 523 02b8 40F2CA81 		bls	.L31
 524 02bc 5942     		negs	r1, r3
 525 02be 01F00301 		and	r1, r1, #3
 526 02c2 CE1C     		adds	r6, r1, #3
 527 02c4 02F1FF3E 		add	lr, r2, #-1
 528 02c8 B645     		cmp	lr, r6
 529 02ca C0F0D781 		bcc	.L67
 530 02ce 0029     		cmp	r1, #0
 531 02d0 00F0CC81 		beq	.L68
 532              	.LVL83:
 533              	.LBB53:
 534              	.LBB48:
 535              		.loc 1 82 0
 536 02d4 1E78     		ldrb	r6, [r3]	@ zero_extendqisi2
 537 02d6 8BF80260 		strb	r6, [fp, #2]
 538 02da 0129     		cmp	r1, #1
 539 02dc 0BF10306 		add	r6, fp, #3
 540              	.LVL84:
 541 02e0 12D0     		beq	.L33
 542              	.LVL85:
 543 02e2 5E78     		ldrb	r6, [r3, #1]	@ zero_extendqisi2
 544              	.LVL86:
 545 02e4 8BF80360 		strb	r6, [fp, #3]
 546 02e8 0329     		cmp	r1, #3
 547 02ea 07F10107 		add	r7, r7, #1
 548              	.LVL87:
 549 02ee 0BF10406 		add	r6, fp, #4
 550              	.LVL88:
 551              		.loc 1 83 0
 552 02f2 A2F1020E 		sub	lr, r2, #2
 553              	.LVL89:
 554 02f6 07D1     		bne	.L33
 555              	.LVL90:
 556              		.loc 1 82 0
 557 02f8 9E78     		ldrb	r6, [r3, #2]	@ zero_extendqisi2
 558              	.LVL91:
 559 02fa 8BF80460 		strb	r6, [fp, #4]
 560 02fe DF1C     		adds	r7, r3, #3
 561              	.LVL92:
 562 0300 0BF10506 		add	r6, fp, #5
 563              		.loc 1 83 0
 564 0304 A2F1030E 		sub	lr, r2, #3
 565              	.LVL93:
 566              	.L33:
 567 0308 8C44     		add	ip, ip, r1
 568 030a A2EB0108 		sub	r8, r2, r1
 569 030e 6544     		add	r5, r5, ip
 570              	.LVL94:
ARM GAS  /tmp/ccLxO412.s 			page 11


 571 0310 0B44     		add	r3, r3, r1
 572 0312 4FEA9809 		lsr	r9, r8, #2
 573              	.LBE48:
 574              	.LBE53:
 575              		.loc 1 183 0
 576 0316 0021     		movs	r1, #0
 577 0318 9446     		mov	ip, r2
 578              	.L35:
 579 031a 0131     		adds	r1, r1, #1
 580              	.LBB54:
 581              	.LBB49:
 582              		.loc 1 82 0
 583 031c 53F8042B 		ldr	r2, [r3], #4
 584 0320 45F8042B 		str	r2, [r5], #4	@ unaligned
 585 0324 8945     		cmp	r9, r1
 586 0326 F8D8     		bhi	.L35
 587 0328 28F00301 		bic	r1, r8, #3
 588 032c 8845     		cmp	r8, r1
 589 032e 6246     		mov	r2, ip
 590 0330 0E44     		add	r6, r6, r1
 591 0332 AEEB0109 		sub	r9, lr, r1
 592 0336 07EB0103 		add	r3, r7, r1
 593 033a 1AD0     		beq	.L38
 594              	.L32:
 595              	.LVL95:
 596 033c 1978     		ldrb	r1, [r3]	@ zero_extendqisi2
 597 033e 3170     		strb	r1, [r6]
 598              		.loc 1 83 0
 599 0340 B9F1010F 		cmp	r9, #1
 600 0344 15D0     		beq	.L38
 601              	.LVL96:
 602              		.loc 1 82 0
 603 0346 5978     		ldrb	r1, [r3, #1]	@ zero_extendqisi2
 604 0348 7170     		strb	r1, [r6, #1]
 605              		.loc 1 83 0
 606 034a B9F1020F 		cmp	r9, #2
 607 034e 10D0     		beq	.L38
 608              	.LVL97:
 609              		.loc 1 82 0
 610 0350 9978     		ldrb	r1, [r3, #2]	@ zero_extendqisi2
 611 0352 B170     		strb	r1, [r6, #2]
 612              		.loc 1 83 0
 613 0354 B9F1030F 		cmp	r9, #3
 614 0358 0BD0     		beq	.L38
 615              	.LVL98:
 616              		.loc 1 82 0
 617 035a D978     		ldrb	r1, [r3, #3]	@ zero_extendqisi2
 618 035c F170     		strb	r1, [r6, #3]
 619              		.loc 1 83 0
 620 035e B9F1040F 		cmp	r9, #4
 621 0362 06D0     		beq	.L38
 622              	.LVL99:
 623              		.loc 1 82 0
 624 0364 1979     		ldrb	r1, [r3, #4]	@ zero_extendqisi2
 625 0366 3171     		strb	r1, [r6, #4]
 626              		.loc 1 83 0
 627 0368 B9F1050F 		cmp	r9, #5
ARM GAS  /tmp/ccLxO412.s 			page 12


 628 036c 01D0     		beq	.L38
 629              	.LVL100:
 630              		.loc 1 82 0
 631 036e 5B79     		ldrb	r3, [r3, #5]	@ zero_extendqisi2
 632              	.LVL101:
 633 0370 7371     		strb	r3, [r6, #5]
 634              	.LVL102:
 635              	.L38:
 636              	.LBE49:
 637              	.LBE54:
 638              		.loc 1 188 0
 639 0372 4523     		movs	r3, #69
 640              		.loc 1 189 0
 641 0374 002C     		cmp	r4, #0
 642              		.loc 1 188 0
 643 0376 8354     		strb	r3, [r0, r2]
 644 0378 1044     		add	r0, r0, r2
 645              	.LVL103:
 646              		.loc 1 189 0
 647 037a C0F2B080 		blt	.L39
 648              		.loc 1 191 0
 649 037e 2B23     		movs	r3, #43
 650              	.LBB55:
 651              	.LBB56:
 652              		.loc 1 69 0
 653 0380 00F10D0C 		add	ip, r0, #13
 654              	.LBE56:
 655              	.LBE55:
 656              		.loc 1 191 0
 657 0384 4370     		strb	r3, [r0, #1]
 658              	.LBB61:
 659              	.LBB57:
 660              		.loc 1 69 0
 661 0386 6546     		mov	r5, ip
 662              	.LBE57:
 663              	.LBE61:
 664              		.loc 1 191 0
 665 0388 861C     		adds	r6, r0, #2
 666              	.LVL104:
 667              	.LBB62:
 668              	.LBB58:
 669              		.loc 1 72 0
 670 038a BD4F     		ldr	r7, .L199
 671 038c 00E0     		b	.L40
 672              	.LVL105:
 673              	.L69:
 674              		.loc 1 78 0
 675 038e 1D46     		mov	r5, r3
 676              	.LVL106:
 677              	.L40:
 678              		.loc 1 72 0
 679 0390 A7FB0423 		umull	r2, r3, r7, r4
 680 0394 DB08     		lsrs	r3, r3, #3
 681 0396 03EB8301 		add	r1, r3, r3, lsl #2
 682 039a 1A46     		mov	r2, r3
 683 039c A4EB4103 		sub	r3, r4, r1, lsl #1
 684              	.LVL107:
ARM GAS  /tmp/ccLxO412.s 			page 13


 685              		.loc 1 73 0
 686 03a0 3033     		adds	r3, r3, #48
 687              	.LVL108:
 688              		.loc 1 76 0
 689 03a2 05F8013C 		strb	r3, [r5, #-1]
 690              		.loc 1 78 0
 691 03a6 1446     		mov	r4, r2
 692              		.loc 1 76 0
 693 03a8 6B1E     		subs	r3, r5, #1
 694              	.LVL109:
 695              		.loc 1 78 0
 696 03aa 002A     		cmp	r2, #0
 697 03ac EFD1     		bne	.L69
 698 03ae E91C     		adds	r1, r5, #3
 699 03b0 821D     		adds	r2, r0, #6
 700              	.LVL110:
 701              		.loc 1 80 0
 702 03b2 ACEB0304 		sub	r4, ip, r3
 703              	.LVL111:
 704 03b6 9342     		cmp	r3, r2
 705 03b8 38BF     		it	cc
 706 03ba 8E42     		cmpcc	r6, r1
 707 03bc A446     		mov	ip, r4
 708 03be C0F02C81 		bcc	.L41
 709 03c2 0B2C     		cmp	r4, #11
 710 03c4 40F22981 		bls	.L41
 711 03c8 5A42     		negs	r2, r3
 712 03ca 02F00302 		and	r2, r2, #3
 713 03ce D11C     		adds	r1, r2, #3
 714 03d0 04F1FF3E 		add	lr, r4, #-1
 715 03d4 7145     		cmp	r1, lr
 716 03d6 00F24D81 		bhi	.L70
 717 03da 002A     		cmp	r2, #0
 718 03dc 00F02781 		beq	.L71
 719              		.loc 1 82 0
 720 03e0 1978     		ldrb	r1, [r3]	@ zero_extendqisi2
 721 03e2 8170     		strb	r1, [r0, #2]
 722 03e4 012A     		cmp	r2, #1
 723 03e6 00F10307 		add	r7, r0, #3
 724              	.LVL112:
 725 03ea 0FD0     		beq	.L43
 726              	.LVL113:
 727 03ec 5978     		ldrb	r1, [r3, #1]	@ zero_extendqisi2
 728 03ee C170     		strb	r1, [r0, #3]
 729 03f0 032A     		cmp	r2, #3
 730 03f2 05F10105 		add	r5, r5, #1
 731              	.LVL114:
 732 03f6 00F10407 		add	r7, r0, #4
 733              	.LVL115:
 734              		.loc 1 83 0
 735 03fa A4F1020E 		sub	lr, r4, #2
 736              	.LVL116:
 737 03fe 05D1     		bne	.L43
 738              	.LVL117:
 739              		.loc 1 82 0
 740 0400 9978     		ldrb	r1, [r3, #2]	@ zero_extendqisi2
 741 0402 0171     		strb	r1, [r0, #4]
ARM GAS  /tmp/ccLxO412.s 			page 14


 742 0404 471D     		adds	r7, r0, #5
 743              	.LVL118:
 744 0406 DD1C     		adds	r5, r3, #3
 745              	.LVL119:
 746              		.loc 1 83 0
 747 0408 A4F1030E 		sub	lr, r4, #3
 748              	.LVL120:
 749              	.L43:
 750 040c A4EB0208 		sub	r8, r4, r2
 751 0410 1344     		add	r3, r3, r2
 752 0412 4FEA980C 		lsr	ip, r8, #2
 753 0416 3244     		add	r2, r2, r6
 754              	.LBE58:
 755              	.LBE62:
 756              		.loc 1 191 0
 757 0418 0021     		movs	r1, #0
 758              	.L45:
 759 041a 0131     		adds	r1, r1, #1
 760              	.LBB63:
 761              	.LBB59:
 762              		.loc 1 82 0
 763 041c 53F8040B 		ldr	r0, [r3], #4
 764 0420 42F8040B 		str	r0, [r2], #4	@ unaligned
 765 0424 8C45     		cmp	ip, r1
 766 0426 F8D8     		bhi	.L45
 767 0428 28F00302 		bic	r2, r8, #3
 768 042c 4245     		cmp	r2, r8
 769 042e 1744     		add	r7, r7, r2
 770 0430 AEEB020C 		sub	ip, lr, r2
 771 0434 05EB0203 		add	r3, r5, r2
 772 0438 1AD0     		beq	.L48
 773              	.L42:
 774              	.LVL121:
 775 043a 1A78     		ldrb	r2, [r3]	@ zero_extendqisi2
 776 043c 3A70     		strb	r2, [r7]
 777              		.loc 1 83 0
 778 043e BCF1010F 		cmp	ip, #1
 779 0442 15D0     		beq	.L48
 780              	.LVL122:
 781              		.loc 1 82 0
 782 0444 5A78     		ldrb	r2, [r3, #1]	@ zero_extendqisi2
 783 0446 7A70     		strb	r2, [r7, #1]
 784              		.loc 1 83 0
 785 0448 BCF1020F 		cmp	ip, #2
 786 044c 10D0     		beq	.L48
 787              	.LVL123:
 788              		.loc 1 82 0
 789 044e 9A78     		ldrb	r2, [r3, #2]	@ zero_extendqisi2
 790 0450 BA70     		strb	r2, [r7, #2]
 791              		.loc 1 83 0
 792 0452 BCF1030F 		cmp	ip, #3
 793 0456 0BD0     		beq	.L48
 794              	.LVL124:
 795              		.loc 1 82 0
 796 0458 DA78     		ldrb	r2, [r3, #3]	@ zero_extendqisi2
 797 045a FA70     		strb	r2, [r7, #3]
 798              		.loc 1 83 0
ARM GAS  /tmp/ccLxO412.s 			page 15


 799 045c BCF1040F 		cmp	ip, #4
 800 0460 06D0     		beq	.L48
 801              	.LVL125:
 802              		.loc 1 82 0
 803 0462 1A79     		ldrb	r2, [r3, #4]	@ zero_extendqisi2
 804 0464 3A71     		strb	r2, [r7, #4]
 805              		.loc 1 83 0
 806 0466 BCF1050F 		cmp	ip, #5
 807 046a 01D0     		beq	.L48
 808              	.LVL126:
 809              		.loc 1 82 0
 810 046c 5B79     		ldrb	r3, [r3, #5]	@ zero_extendqisi2
 811              	.LVL127:
 812 046e 7B71     		strb	r3, [r7, #5]
 813              	.LVL128:
 814              	.L48:
 815 0470 2644     		add	r6, r6, r4
 816              	.LVL129:
 817              	.L196:
 818              	.LBE59:
 819              	.LBE63:
 820              	.LBE40:
 821              	.LBE39:
 822              	.LBE38:
 823              		.loc 1 202 0
 824 0472 3046     		mov	r0, r6
 825 0474 05B0     		add	sp, sp, #20
 826              		.cfi_remember_state
 827              		.cfi_def_cfa_offset 36
 828              		@ sp needed
 829 0476 BDE8F08F 		pop	{r4, r5, r6, r7, r8, r9, r10, fp, pc}
 830              	.LVL130:
 831              	.L188:
 832              		.cfi_restore_state
 833              	.LBB86:
 834              	.LBB84:
 835              		.loc 1 142 0
 836 047a BAF1080F 		cmp	r10, #8
 837 047e 88BF     		it	hi
 838 0480 4FF0090B 		movhi	fp, #9
 839              	.LVL131:
 840 0484 0024     		movs	r4, #0
 841              	.LVL132:
 842              	.L12:
 843 0486 5F46     		mov	r7, fp
 844 0488 E41B     		subs	r4, r4, r7
 845              		.loc 1 169 0
 846 048a 4FF0000A 		mov	r10, #0
 847              	.LVL133:
 848 048e DFF8F4B1 		ldr	fp, .L199+4
 849 0492 18E0     		b	.L19
 850              	.LVL134:
 851              	.L195:
 852              		.loc 1 166 0
 853 0494 012F     		cmp	r7, #1
 854 0496 3FF4E8AD 		beq	.L1
 855              		.loc 1 167 0
ARM GAS  /tmp/ccLxO412.s 			page 16


 856 049a 4FF02E03 		mov	r3, #46
 857 049e 6B70     		strb	r3, [r5, #1]
 858 04a0 AE1C     		adds	r6, r5, #2
 859              	.LVL135:
 860              	.L18:
 861              		.loc 1 168 0
 862 04a2 FFF7FEFF 		bl	__aeabi_i2d
 863              	.LVL136:
 864 04a6 0246     		mov	r2, r0
 865 04a8 0B46     		mov	r3, r1
 866 04aa 4046     		mov	r0, r8
 867 04ac 4946     		mov	r1, r9
 868 04ae FFF7FEFF 		bl	__aeabi_dsub
 869              	.LVL137:
 870              		.loc 1 169 0
 871 04b2 5246     		mov	r2, r10
 872 04b4 5B46     		mov	r3, fp
 873 04b6 FFF7FEFF 		bl	__aeabi_dmul
 874              	.LVL138:
 875              		.loc 1 163 0
 876 04ba 013F     		subs	r7, r7, #1
 877              	.LVL139:
 878              		.loc 1 169 0
 879 04bc 8046     		mov	r8, r0
 880 04be 8946     		mov	r9, r1
 881              	.LVL140:
 882              		.loc 1 163 0
 883 04c0 3FF4D3AD 		beq	.L1
 884 04c4 3546     		mov	r5, r6
 885              	.LVL141:
 886              	.L19:
 887              		.loc 1 165 0
 888 04c6 4046     		mov	r0, r8
 889 04c8 4946     		mov	r1, r9
 890 04ca FFF7FEFF 		bl	__aeabi_d2iz
 891              	.LVL142:
 892 04ce 0346     		mov	r3, r0
 893              	.LVL143:
 894 04d0 3033     		adds	r3, r3, #48
 895              		.loc 1 166 0
 896 04d2 FC42     		cmn	r4, r7
 897              		.loc 1 165 0
 898 04d4 2B70     		strb	r3, [r5]
 899 04d6 05F10106 		add	r6, r5, #1
 900              	.LVL144:
 901              		.loc 1 166 0
 902 04da E2D1     		bne	.L18
 903 04dc DAE7     		b	.L195
 904              	.LVL145:
 905              	.L39:
 906              	.LBB81:
 907              		.loc 1 196 0
 908 04de 2D23     		movs	r3, #45
 909              	.LBB64:
 910              	.LBB65:
 911              		.loc 1 69 0
 912 04e0 00F10D0C 		add	ip, r0, #13
ARM GAS  /tmp/ccLxO412.s 			page 17


 913              	.LBE65:
 914              	.LBE64:
 915              		.loc 1 197 0
 916 04e4 6442     		negs	r4, r4
 917              		.loc 1 196 0
 918 04e6 4370     		strb	r3, [r0, #1]
 919              	.LBB71:
 920              	.LBB66:
 921              		.loc 1 69 0
 922 04e8 6546     		mov	r5, ip
 923              	.LBE66:
 924              	.LBE71:
 925              		.loc 1 196 0
 926 04ea 861C     		adds	r6, r0, #2
 927              	.LVL146:
 928              	.LBB72:
 929              	.LBB67:
 930              		.loc 1 72 0
 931 04ec 644F     		ldr	r7, .L199
 932 04ee 00E0     		b	.L49
 933              	.LVL147:
 934              	.L72:
 935              		.loc 1 78 0
 936 04f0 1D46     		mov	r5, r3
 937              	.LVL148:
 938              	.L49:
 939              		.loc 1 72 0
 940 04f2 A7FB0423 		umull	r2, r3, r7, r4
 941 04f6 DB08     		lsrs	r3, r3, #3
 942 04f8 03EB8301 		add	r1, r3, r3, lsl #2
 943 04fc 1A46     		mov	r2, r3
 944 04fe A4EB4103 		sub	r3, r4, r1, lsl #1
 945              	.LVL149:
 946              		.loc 1 73 0
 947 0502 3033     		adds	r3, r3, #48
 948              	.LVL150:
 949              		.loc 1 76 0
 950 0504 05F8013C 		strb	r3, [r5, #-1]
 951              		.loc 1 78 0
 952 0508 1446     		mov	r4, r2
 953              	.LVL151:
 954              		.loc 1 76 0
 955 050a 6B1E     		subs	r3, r5, #1
 956              	.LVL152:
 957              		.loc 1 78 0
 958 050c 002A     		cmp	r2, #0
 959 050e EFD1     		bne	.L72
 960 0510 E91C     		adds	r1, r5, #3
 961 0512 821D     		adds	r2, r0, #6
 962              	.LVL153:
 963              		.loc 1 80 0
 964 0514 ACEB0304 		sub	r4, ip, r3
 965              	.LVL154:
 966 0518 9342     		cmp	r3, r2
 967 051a 38BF     		it	cc
 968 051c 8E42     		cmpcc	r6, r1
 969 051e 2746     		mov	r7, r4
ARM GAS  /tmp/ccLxO412.s 			page 18


 970              	.LVL155:
 971 0520 C0F08C80 		bcc	.L50
 972 0524 0B2C     		cmp	r4, #11
 973 0526 40F28980 		bls	.L50
 974 052a 5A42     		negs	r2, r3
 975 052c 02F00302 		and	r2, r2, #3
 976 0530 D11C     		adds	r1, r2, #3
 977 0532 04F1FF3E 		add	lr, r4, #-1
 978 0536 7145     		cmp	r1, lr
 979 0538 00F29E80 		bhi	.L73
 980 053c 002A     		cmp	r2, #0
 981 053e 00F09180 		beq	.L74
 982              		.loc 1 82 0
 983 0542 1978     		ldrb	r1, [r3]	@ zero_extendqisi2
 984 0544 8170     		strb	r1, [r0, #2]
 985 0546 012A     		cmp	r2, #1
 986 0548 00F1030C 		add	ip, r0, #3
 987              	.LVL156:
 988 054c 10D0     		beq	.L52
 989              	.LVL157:
 990 054e 5978     		ldrb	r1, [r3, #1]	@ zero_extendqisi2
 991 0550 C170     		strb	r1, [r0, #3]
 992 0552 032A     		cmp	r2, #3
 993 0554 05F10105 		add	r5, r5, #1
 994              	.LVL158:
 995 0558 00F1040C 		add	ip, r0, #4
 996              	.LVL159:
 997              		.loc 1 83 0
 998 055c A4F1020E 		sub	lr, r4, #2
 999              	.LVL160:
 1000 0560 06D1     		bne	.L52
 1001              	.LVL161:
 1002              		.loc 1 82 0
 1003 0562 9978     		ldrb	r1, [r3, #2]	@ zero_extendqisi2
 1004 0564 0171     		strb	r1, [r0, #4]
 1005 0566 00F1050C 		add	ip, r0, #5
 1006              	.LVL162:
 1007 056a DD1C     		adds	r5, r3, #3
 1008              	.LVL163:
 1009              		.loc 1 83 0
 1010 056c A4F1030E 		sub	lr, r4, #3
 1011              	.LVL164:
 1012              	.L52:
 1013 0570 A4EB0208 		sub	r8, r4, r2
 1014 0574 1344     		add	r3, r3, r2
 1015 0576 4FEA9807 		lsr	r7, r8, #2
 1016 057a 3244     		add	r2, r2, r6
 1017              	.LBE67:
 1018              	.LBE72:
 1019              		.loc 1 196 0
 1020 057c 0021     		movs	r1, #0
 1021              	.L54:
 1022 057e 0131     		adds	r1, r1, #1
 1023              	.LBB73:
 1024              	.LBB68:
 1025              		.loc 1 82 0
 1026 0580 53F8040B 		ldr	r0, [r3], #4
ARM GAS  /tmp/ccLxO412.s 			page 19


 1027 0584 42F8040B 		str	r0, [r2], #4	@ unaligned
 1028 0588 8F42     		cmp	r7, r1
 1029 058a F8D8     		bhi	.L54
 1030 058c 28F00302 		bic	r2, r8, #3
 1031 0590 4245     		cmp	r2, r8
 1032 0592 9444     		add	ip, ip, r2
 1033 0594 AEEB0207 		sub	r7, lr, r2
 1034 0598 05EB0203 		add	r3, r5, r2
 1035 059c 3FF468AF 		beq	.L48
 1036              	.L51:
 1037              	.LVL165:
 1038 05a0 1A78     		ldrb	r2, [r3]	@ zero_extendqisi2
 1039 05a2 8CF80020 		strb	r2, [ip]
 1040              		.loc 1 83 0
 1041 05a6 012F     		cmp	r7, #1
 1042 05a8 3FF462AF 		beq	.L48
 1043              	.LVL166:
 1044              		.loc 1 82 0
 1045 05ac 5A78     		ldrb	r2, [r3, #1]	@ zero_extendqisi2
 1046 05ae 8CF80120 		strb	r2, [ip, #1]
 1047              		.loc 1 83 0
 1048 05b2 022F     		cmp	r7, #2
 1049 05b4 3FF45CAF 		beq	.L48
 1050              	.LVL167:
 1051              		.loc 1 82 0
 1052 05b8 9A78     		ldrb	r2, [r3, #2]	@ zero_extendqisi2
 1053 05ba 8CF80220 		strb	r2, [ip, #2]
 1054              		.loc 1 83 0
 1055 05be 032F     		cmp	r7, #3
 1056 05c0 3FF456AF 		beq	.L48
 1057              	.LVL168:
 1058              		.loc 1 82 0
 1059 05c4 DA78     		ldrb	r2, [r3, #3]	@ zero_extendqisi2
 1060 05c6 8CF80320 		strb	r2, [ip, #3]
 1061              		.loc 1 83 0
 1062 05ca 042F     		cmp	r7, #4
 1063 05cc 3FF450AF 		beq	.L48
 1064              	.LVL169:
 1065              		.loc 1 82 0
 1066 05d0 1A79     		ldrb	r2, [r3, #4]	@ zero_extendqisi2
 1067 05d2 8CF80420 		strb	r2, [ip, #4]
 1068              		.loc 1 83 0
 1069 05d6 052F     		cmp	r7, #5
 1070 05d8 3FF44AAF 		beq	.L48
 1071              	.LVL170:
 1072              		.loc 1 82 0
 1073 05dc 5B79     		ldrb	r3, [r3, #5]	@ zero_extendqisi2
 1074              	.LVL171:
 1075 05de 8CF80530 		strb	r3, [ip, #5]
 1076 05e2 2644     		add	r6, r6, r4
 1077              	.LVL172:
 1078 05e4 45E7     		b	.L196
 1079              	.LVL173:
 1080              	.L193:
 1081              	.LBE68:
 1082              	.LBE73:
 1083              	.LBE81:
ARM GAS  /tmp/ccLxO412.s 			page 20


 1084              	.LBE84:
 1085              	.LBE86:
 1086              		.loc 1 127 0
 1087 05e6 4E23     		movs	r3, #78
 1088              		.loc 1 128 0
 1089 05e8 4122     		movs	r2, #65
 1090              		.loc 1 127 0
 1091 05ea 2B70     		strb	r3, [r5]
 1092              	.LVL174:
 1093              		.loc 1 129 0
 1094 05ec AB70     		strb	r3, [r5, #2]
 1095              		.loc 1 128 0
 1096 05ee 6A70     		strb	r2, [r5, #1]
 1097              		.loc 1 129 0
 1098 05f0 EE1C     		adds	r6, r5, #3
 1099              	.LVL175:
 1100              		.loc 1 130 0
 1101 05f2 3AE5     		b	.L1
 1102              	.LVL176:
 1103              	.L21:
 1104 05f4 6A1E     		subs	r2, r5, #1
 1105 05f6 03EB0A06 		add	r6, r3, r10
 1106              	.LVL177:
 1107              	.L27:
 1108              	.LBB87:
 1109              	.LBB85:
 1110              	.LBB82:
 1111              	.LBB74:
 1112              	.LBB43:
 1113              		.loc 1 82 0
 1114 05fa 13F8011B 		ldrb	r1, [r3], #1	@ zero_extendqisi2
 1115              	.LVL178:
 1116 05fe 02F8011F 		strb	r1, [r2, #1]!
 1117              		.loc 1 83 0
 1118 0602 B342     		cmp	r3, r6
 1119 0604 F9D1     		bne	.L27
 1120 0606 0AF1FF33 		add	r3, r10, #-1
 1121              	.LVL179:
 1122 060a 0293     		str	r3, [sp, #8]
 1123 060c F7E5     		b	.L28
 1124              	.LVL180:
 1125              	.L64:
 1126              		.loc 1 80 0
 1127 060e 1A46     		mov	r2, r3
 1128 0610 CDE900A5 		strd	r10, r5, [sp]
 1129 0614 C3E5     		b	.L23
 1130              	.LVL181:
 1131              	.L194:
 1132              	.LBE43:
 1133              	.LBE74:
 1134              	.LBE82:
 1135              		.loc 1 142 0
 1136 0616 0446     		mov	r4, r0
 1137 0618 51E5     		b	.L11
 1138              	.LVL182:
 1139              	.L41:
 1140 061a 421C     		adds	r2, r0, #1
ARM GAS  /tmp/ccLxO412.s 			page 21


 1141 061c 1819     		adds	r0, r3, r4
 1142              	.LVL183:
 1143              	.L47:
 1144              	.LBB83:
 1145              	.LBB75:
 1146              	.LBB60:
 1147              		.loc 1 82 0
 1148 061e 13F8011B 		ldrb	r1, [r3], #1	@ zero_extendqisi2
 1149              	.LVL184:
 1150 0622 02F8011F 		strb	r1, [r2, #1]!
 1151              		.loc 1 83 0
 1152 0626 8342     		cmp	r3, r0
 1153 0628 F9D1     		bne	.L47
 1154 062a 2644     		add	r6, r6, r4
 1155              	.LVL185:
 1156 062c 21E7     		b	.L196
 1157              	.LVL186:
 1158              	.L71:
 1159              		.loc 1 80 0
 1160 062e 1D46     		mov	r5, r3
 1161 0630 A646     		mov	lr, r4
 1162              	.LBE60:
 1163              	.LBE75:
 1164              		.loc 1 191 0
 1165 0632 3746     		mov	r7, r6
 1166              	.LVL187:
 1167 0634 EAE6     		b	.L43
 1168              	.LVL188:
 1169              	.L63:
 1170              	.LBB76:
 1171              	.LBB44:
 1172              		.loc 1 80 0
 1173 0636 5746     		mov	r7, r10
 1174 0638 2E46     		mov	r6, r5
 1175 063a CAE5     		b	.L22
 1176              	.LVL189:
 1177              	.L50:
 1178 063c 421C     		adds	r2, r0, #1
 1179 063e 1819     		adds	r0, r3, r4
 1180              	.LVL190:
 1181              	.L57:
 1182              	.LBE44:
 1183              	.LBE76:
 1184              	.LBB77:
 1185              	.LBB69:
 1186              		.loc 1 82 0
 1187 0640 13F8011B 		ldrb	r1, [r3], #1	@ zero_extendqisi2
 1188              	.LVL191:
 1189 0644 02F8011F 		strb	r1, [r2, #1]!
 1190              		.loc 1 83 0
 1191 0648 8342     		cmp	r3, r0
 1192 064a F9D1     		bne	.L57
 1193 064c 2644     		add	r6, r6, r4
 1194              	.LVL192:
 1195 064e 10E7     		b	.L196
 1196              	.LVL193:
 1197              	.L31:
ARM GAS  /tmp/ccLxO412.s 			page 22


 1198 0650 0BF1010B 		add	fp, fp, #1
 1199              	.LVL194:
 1200 0654 9D18     		adds	r5, r3, r2
 1201              	.LVL195:
 1202              	.L37:
 1203              	.LBE69:
 1204              	.LBE77:
 1205              	.LBB78:
 1206              	.LBB50:
 1207              		.loc 1 82 0
 1208 0656 13F8011B 		ldrb	r1, [r3], #1	@ zero_extendqisi2
 1209              	.LVL196:
 1210 065a 0BF8011F 		strb	r1, [fp, #1]!
 1211              		.loc 1 83 0
 1212 065e AB42     		cmp	r3, r5
 1213 0660 F9D1     		bne	.L37
 1214 0662 86E6     		b	.L38
 1215              	.LVL197:
 1216              	.L74:
 1217              	.LBE50:
 1218              	.LBE78:
 1219              	.LBB79:
 1220              	.LBB70:
 1221              		.loc 1 80 0
 1222 0664 1D46     		mov	r5, r3
 1223 0666 A646     		mov	lr, r4
 1224              	.LBE70:
 1225              	.LBE79:
 1226              		.loc 1 196 0
 1227 0668 B446     		mov	ip, r6
 1228 066a 81E7     		b	.L52
 1229              	.LVL198:
 1230              	.L68:
 1231              	.LBB80:
 1232              	.LBB51:
 1233              		.loc 1 80 0
 1234 066c 1F46     		mov	r7, r3
 1235 066e 9646     		mov	lr, r2
 1236              	.LBE51:
 1237              	.LBE80:
 1238              		.loc 1 183 0
 1239 0670 0646     		mov	r6, r0
 1240 0672 49E6     		b	.L33
 1241              	.LVL199:
 1242              	.L70:
 1243              		.loc 1 191 0
 1244 0674 3746     		mov	r7, r6
 1245              	.LVL200:
 1246 0676 E0E6     		b	.L42
 1247              	.LVL201:
 1248              	.L73:
 1249              		.loc 1 196 0
 1250 0678 B446     		mov	ip, r6
 1251 067a 91E7     		b	.L51
 1252              	.LVL202:
 1253              	.L67:
 1254              		.loc 1 183 0
ARM GAS  /tmp/ccLxO412.s 			page 23


 1255 067c 0646     		mov	r6, r0
 1256 067e 5DE6     		b	.L32
 1257              	.L200:
 1258              		.align	2
 1259              	.L199:
 1260 0680 CDCCCCCC 		.word	-858993459
 1261 0684 00002440 		.word	1076101120
 1262              	.LBE83:
 1263              	.LBE85:
 1264              	.LBE87:
 1265              		.cfi_endproc
 1266              	.LFE329:
 1267              		.size	ftoa, .-ftoa
 1268              		.section	.text.chvprintf,"ax",%progbits
 1269              		.align	1
 1270              		.p2align 2,,3
 1271              		.global	chvprintf
 1272              		.syntax unified
 1273              		.thumb
 1274              		.thumb_func
 1275              		.fpu fpv4-sp-d16
 1276              		.type	chvprintf, %function
 1277              	chvprintf:
 1278              	.LFB330:
 1279              		.loc 1 233 0
 1280              		.cfi_startproc
 1281              		@ args = 0, pretend = 0, frame = 48
 1282              		@ frame_needed = 0, uses_anonymous_args = 0
 1283              	.LVL203:
 1284 0000 2DE9F04F 		push	{r4, r5, r6, r7, r8, r9, r10, fp, lr}
 1285              		.cfi_def_cfa_offset 36
 1286              		.cfi_offset 4, -36
 1287              		.cfi_offset 5, -32
 1288              		.cfi_offset 6, -28
 1289              		.cfi_offset 7, -24
 1290              		.cfi_offset 8, -20
 1291              		.cfi_offset 9, -16
 1292              		.cfi_offset 10, -12
 1293              		.cfi_offset 11, -8
 1294              		.cfi_offset 14, -4
 1295 0004 0546     		mov	r5, r0
 1296 0006 8DB0     		sub	sp, sp, #52
 1297              		.cfi_def_cfa_offset 88
 1298              		.loc 1 233 0
 1299 0008 8B46     		mov	fp, r1
 1300 000a 9146     		mov	r9, r2
 1301              	.LVL204:
 1302              		.loc 1 236 0
 1303 000c 4FF0000A 		mov	r10, #0
 1304              	.LVL205:
 1305              	.L202:
 1306              		.loc 1 247 0
 1307 0010 9BF80010 		ldrb	r1, [fp]	@ zero_extendqisi2
 1308 0014 0BF10102 		add	r2, fp, #1
 1309              	.LVL206:
 1310              		.loc 1 248 0
 1311 0018 71B1     		cbz	r1, .L343
ARM GAS  /tmp/ccLxO412.s 			page 24


 1312              	.LVL207:
 1313              	.L355:
 1314              		.loc 1 250 0
 1315 001a 2529     		cmp	r1, #37
 1316 001c 10D0     		beq	.L204
 1317              		.loc 1 252 0
 1318 001e 2B68     		ldr	r3, [r5]
 1319              		.loc 1 247 0
 1320 0020 9346     		mov	fp, r2
 1321              		.loc 1 252 0
 1322 0022 DB68     		ldr	r3, [r3, #12]
 1323 0024 2846     		mov	r0, r5
 1324 0026 9847     		blx	r3
 1325              	.LVL208:
 1326              		.loc 1 247 0
 1327 0028 9BF80010 		ldrb	r1, [fp]	@ zero_extendqisi2
 1328              		.loc 1 253 0
 1329 002c 0AF1010A 		add	r10, r10, #1
 1330              	.LVL209:
 1331              		.loc 1 247 0
 1332 0030 0BF10102 		add	r2, fp, #1
 1333              	.LVL210:
 1334              		.loc 1 248 0
 1335 0034 0029     		cmp	r1, #0
 1336 0036 F0D1     		bne	.L355
 1337              	.L343:
 1338              		.loc 1 405 0
 1339 0038 5046     		mov	r0, r10
 1340 003a 0DB0     		add	sp, sp, #52
 1341              		.cfi_remember_state
 1342              		.cfi_def_cfa_offset 36
 1343              		@ sp needed
 1344 003c BDE8F08F 		pop	{r4, r5, r6, r7, r8, r9, r10, fp, pc}
 1345              	.LVL211:
 1346              	.L204:
 1347              		.cfi_restore_state
 1348              		.loc 1 259 0
 1349 0040 9BF80170 		ldrb	r7, [fp, #1]	@ zero_extendqisi2
 1350 0044 2D2F     		cmp	r7, #45
 1351 0046 03BF     		ittte	eq
 1352 0048 9BF80270 		ldrbeq	r7, [fp, #2]	@ zero_extendqisi2
 1353              		.loc 1 261 0
 1354 004c 0BF10202 		addeq	r2, fp, #2
 1355              	.LVL212:
 1356              		.loc 1 262 0
 1357 0050 0123     		moveq	r3, #1
 1358              		.loc 1 258 0
 1359 0052 0023     		movne	r3, #0
 1360              		.loc 1 265 0
 1361 0054 302F     		cmp	r7, #48
 1362              		.loc 1 258 0
 1363 0056 0193     		str	r3, [sp, #4]
 1364              	.LVL213:
 1365 0058 0CBF     		ite	eq
 1366 005a 0132     		addeq	r2, r2, #1
 1367              	.LVL214:
 1368              		.loc 1 264 0
ARM GAS  /tmp/ccLxO412.s 			page 25


 1369 005c 2027     		movne	r7, #32
 1370              	.LVL215:
 1371              		.loc 1 270 0
 1372 005e 0024     		movs	r4, #0
 1373 0060 05E0     		b	.L210
 1374              	.LVL216:
 1375              	.L356:
 1376              		.loc 1 277 0
 1377 0062 99F80030 		ldrb	r3, [r9]	@ zero_extendqisi2
 1378              	.LVL217:
 1379 0066 09F10409 		add	r9, r9, #4
 1380              	.LVL218:
 1381              	.L208:
 1382              		.loc 1 280 0
 1383 006a 03EB4004 		add	r4, r3, r0, lsl #1
 1384              	.LVL219:
 1385              	.L210:
 1386              		.loc 1 273 0
 1387 006e 12F8011B 		ldrb	r1, [r2], #1	@ zero_extendqisi2
 1388              	.LVL220:
 1389              		.loc 1 274 0
 1390 0072 A1F13003 		sub	r3, r1, #48
 1391 0076 DBB2     		uxtb	r3, r3
 1392 0078 092B     		cmp	r3, #9
 1393              		.loc 1 280 0
 1394 007a 04EB8400 		add	r0, r4, r4, lsl #2
 1395              		.loc 1 274 0
 1396 007e F4D9     		bls	.L208
 1397              		.loc 1 276 0
 1398 0080 2A29     		cmp	r1, #42
 1399 0082 EED0     		beq	.L356
 1400              	.LVL221:
 1401              		.loc 1 283 0
 1402 0084 2E29     		cmp	r1, #46
 1403              		.loc 1 282 0
 1404 0086 4FF00008 		mov	r8, #0
 1405              		.loc 1 283 0
 1406 008a 4AD0     		beq	.L213
 1407              	.LVL222:
 1408              	.L211:
 1409              		.loc 1 299 0
 1410 008c 01F0DF03 		and	r3, r1, #223
 1411 0090 4C2B     		cmp	r3, #76
 1412 0092 02F1010B 		add	fp, r2, #1
 1413 0096 50D0     		beq	.L357
 1414              		.loc 1 306 0
 1415 0098 A1F14103 		sub	r3, r1, #65
 1416              		.loc 1 309 0
 1417 009c A1F14400 		sub	r0, r1, #68
 1418              		.loc 1 306 0
 1419 00a0 DBB2     		uxtb	r3, r3
 1420              	.LVL223:
 1421              		.loc 1 309 0
 1422 00a2 3428     		cmp	r0, #52
 1423 00a4 00F27681 		bhi	.L274
 1424 00a8 DFE810F0 		tbh	[pc, r0, lsl #1]
 1425              	.L219:
ARM GAS  /tmp/ccLxO412.s 			page 26


 1426 00ac 3502     		.2byte	(.L218-.L219)/2
 1427 00ae 7401     		.2byte	(.L274-.L219)/2
 1428 00b0 7401     		.2byte	(.L274-.L219)/2
 1429 00b2 7401     		.2byte	(.L274-.L219)/2
 1430 00b4 7401     		.2byte	(.L274-.L219)/2
 1431 00b6 3502     		.2byte	(.L218-.L219)/2
 1432 00b8 7401     		.2byte	(.L274-.L219)/2
 1433 00ba 7401     		.2byte	(.L274-.L219)/2
 1434 00bc 7401     		.2byte	(.L274-.L219)/2
 1435 00be 7401     		.2byte	(.L274-.L219)/2
 1436 00c0 7401     		.2byte	(.L274-.L219)/2
 1437 00c2 7101     		.2byte	(.L275-.L219)/2
 1438 00c4 7401     		.2byte	(.L274-.L219)/2
 1439 00c6 7401     		.2byte	(.L274-.L219)/2
 1440 00c8 7401     		.2byte	(.L274-.L219)/2
 1441 00ca 7401     		.2byte	(.L274-.L219)/2
 1442 00cc 7401     		.2byte	(.L274-.L219)/2
 1443 00ce 1901     		.2byte	(.L276-.L219)/2
 1444 00d0 7401     		.2byte	(.L274-.L219)/2
 1445 00d2 7401     		.2byte	(.L274-.L219)/2
 1446 00d4 4402     		.2byte	(.L277-.L219)/2
 1447 00d6 7401     		.2byte	(.L274-.L219)/2
 1448 00d8 7401     		.2byte	(.L274-.L219)/2
 1449 00da 7401     		.2byte	(.L274-.L219)/2
 1450 00dc 7401     		.2byte	(.L274-.L219)/2
 1451 00de 7401     		.2byte	(.L274-.L219)/2
 1452 00e0 7401     		.2byte	(.L274-.L219)/2
 1453 00e2 7401     		.2byte	(.L274-.L219)/2
 1454 00e4 7401     		.2byte	(.L274-.L219)/2
 1455 00e6 7401     		.2byte	(.L274-.L219)/2
 1456 00e8 7401     		.2byte	(.L274-.L219)/2
 1457 00ea CC00     		.2byte	(.L278-.L219)/2
 1458 00ec 3502     		.2byte	(.L218-.L219)/2
 1459 00ee 7401     		.2byte	(.L274-.L219)/2
 1460 00f0 AA00     		.2byte	(.L279-.L219)/2
 1461 00f2 7401     		.2byte	(.L274-.L219)/2
 1462 00f4 7401     		.2byte	(.L274-.L219)/2
 1463 00f6 3502     		.2byte	(.L218-.L219)/2
 1464 00f8 7401     		.2byte	(.L274-.L219)/2
 1465 00fa 7401     		.2byte	(.L274-.L219)/2
 1466 00fc 7401     		.2byte	(.L274-.L219)/2
 1467 00fe 7401     		.2byte	(.L274-.L219)/2
 1468 0100 7401     		.2byte	(.L274-.L219)/2
 1469 0102 7101     		.2byte	(.L275-.L219)/2
 1470 0104 7401     		.2byte	(.L274-.L219)/2
 1471 0106 7401     		.2byte	(.L274-.L219)/2
 1472 0108 7401     		.2byte	(.L274-.L219)/2
 1473 010a 8800     		.2byte	(.L280-.L219)/2
 1474 010c 7401     		.2byte	(.L274-.L219)/2
 1475 010e 1901     		.2byte	(.L276-.L219)/2
 1476 0110 7401     		.2byte	(.L274-.L219)/2
 1477 0112 7401     		.2byte	(.L274-.L219)/2
 1478 0114 4402     		.2byte	(.L277-.L219)/2
 1479              	.LVL224:
 1480              		.p2align 1
 1481              	.L358:
 1482              		.loc 1 291 0
ARM GAS  /tmp/ccLxO412.s 			page 27


 1483 0116 99F80030 		ldrb	r3, [r9]	@ zero_extendqisi2
 1484              	.LVL225:
 1485 011a 09F10409 		add	r9, r9, #4
 1486              	.LVL226:
 1487              	.L212:
 1488              		.loc 1 295 0
 1489 011e 03EB4008 		add	r8, r3, r0, lsl #1
 1490              	.LVL227:
 1491              	.L213:
 1492              		.loc 1 287 0
 1493 0122 12F8011B 		ldrb	r1, [r2], #1	@ zero_extendqisi2
 1494              	.LVL228:
 1495              		.loc 1 288 0
 1496 0126 A1F13003 		sub	r3, r1, #48
 1497 012a DBB2     		uxtb	r3, r3
 1498 012c 092B     		cmp	r3, #9
 1499              		.loc 1 294 0
 1500 012e 08EB8800 		add	r0, r8, r8, lsl #2
 1501              		.loc 1 288 0
 1502 0132 F4D9     		bls	.L212
 1503              		.loc 1 290 0
 1504 0134 2A29     		cmp	r1, #42
 1505 0136 EED0     		beq	.L358
 1506 0138 A8E7     		b	.L211
 1507              	.LVL229:
 1508              	.L357:
 1509              		.loc 1 302 0
 1510 013a 1378     		ldrb	r3, [r2]	@ zero_extendqisi2
 1511 013c DBB3     		cbz	r3, .L359
 1512              	.L215:
 1513              	.LVL230:
 1514              		.loc 1 309 0
 1515 013e A3F14402 		sub	r2, r3, #68
 1516 0142 342A     		cmp	r2, #52
 1517 0144 00F22881 		bhi	.L217
 1518 0148 DFE812F0 		tbh	[pc, r2, lsl #1]
 1519              	.L268:
 1520 014c 4C01     		.2byte	(.L309-.L268)/2
 1521 014e 2601     		.2byte	(.L217-.L268)/2
 1522 0150 2601     		.2byte	(.L217-.L268)/2
 1523 0152 2601     		.2byte	(.L217-.L268)/2
 1524 0154 2601     		.2byte	(.L217-.L268)/2
 1525 0156 4C01     		.2byte	(.L309-.L268)/2
 1526 0158 2601     		.2byte	(.L217-.L268)/2
 1527 015a 2601     		.2byte	(.L217-.L268)/2
 1528 015c 2601     		.2byte	(.L217-.L268)/2
 1529 015e 2601     		.2byte	(.L217-.L268)/2
 1530 0160 2601     		.2byte	(.L217-.L268)/2
 1531 0162 2201     		.2byte	(.L220-.L268)/2
 1532 0164 2601     		.2byte	(.L217-.L268)/2
 1533 0166 2601     		.2byte	(.L217-.L268)/2
 1534 0168 2601     		.2byte	(.L217-.L268)/2
 1535 016a 2601     		.2byte	(.L217-.L268)/2
 1536 016c 2601     		.2byte	(.L217-.L268)/2
 1537 016e CA00     		.2byte	(.L221-.L268)/2
 1538 0170 2601     		.2byte	(.L217-.L268)/2
 1539 0172 2601     		.2byte	(.L217-.L268)/2
ARM GAS  /tmp/ccLxO412.s 			page 28


 1540 0174 4A01     		.2byte	(.L291-.L268)/2
 1541 0176 2601     		.2byte	(.L217-.L268)/2
 1542 0178 2601     		.2byte	(.L217-.L268)/2
 1543 017a 2601     		.2byte	(.L217-.L268)/2
 1544 017c 2601     		.2byte	(.L217-.L268)/2
 1545 017e 2601     		.2byte	(.L217-.L268)/2
 1546 0180 2601     		.2byte	(.L217-.L268)/2
 1547 0182 2601     		.2byte	(.L217-.L268)/2
 1548 0184 2601     		.2byte	(.L217-.L268)/2
 1549 0186 2601     		.2byte	(.L217-.L268)/2
 1550 0188 2601     		.2byte	(.L217-.L268)/2
 1551 018a 7D00     		.2byte	(.L223-.L268)/2
 1552 018c 4C01     		.2byte	(.L309-.L268)/2
 1553 018e 2601     		.2byte	(.L217-.L268)/2
 1554 0190 5B00     		.2byte	(.L224-.L268)/2
 1555 0192 2601     		.2byte	(.L217-.L268)/2
 1556 0194 2601     		.2byte	(.L217-.L268)/2
 1557 0196 4C01     		.2byte	(.L309-.L268)/2
 1558 0198 2601     		.2byte	(.L217-.L268)/2
 1559 019a 2601     		.2byte	(.L217-.L268)/2
 1560 019c 2601     		.2byte	(.L217-.L268)/2
 1561 019e 2601     		.2byte	(.L217-.L268)/2
 1562 01a0 2601     		.2byte	(.L217-.L268)/2
 1563 01a2 2201     		.2byte	(.L220-.L268)/2
 1564 01a4 2601     		.2byte	(.L217-.L268)/2
 1565 01a6 2601     		.2byte	(.L217-.L268)/2
 1566 01a8 2601     		.2byte	(.L217-.L268)/2
 1567 01aa 3900     		.2byte	(.L225-.L268)/2
 1568 01ac 2601     		.2byte	(.L217-.L268)/2
 1569 01ae CA00     		.2byte	(.L221-.L268)/2
 1570 01b0 2601     		.2byte	(.L217-.L268)/2
 1571 01b2 2601     		.2byte	(.L217-.L268)/2
 1572 01b4 4A01     		.2byte	(.L291-.L268)/2
 1573              	.LVL231:
 1574              		.p2align 1
 1575              	.L359:
 1576              		.loc 1 302 0
 1577 01b6 0B46     		mov	r3, r1
 1578 01b8 9346     		mov	fp, r2
 1579 01ba C0E7     		b	.L215
 1580              	.LVL232:
 1581              	.L280:
 1582              		.loc 1 309 0
 1583 01bc 9346     		mov	fp, r2
 1584              	.LVL233:
 1585              	.L225:
 1586              	.LBB88:
 1587              		.loc 1 317 0
 1588 01be D9F80060 		ldr	r6, [r9]
 1589 01c2 09F10409 		add	r9, r9, #4
 1590              	.LVL234:
 1591 01c6 002E     		cmp	r6, #0
 1592 01c8 00F0C781 		beq	.L227
 1593              	.LVL235:
 1594 01cc 3378     		ldrb	r3, [r6]	@ zero_extendqisi2
 1595 01ce 3146     		mov	r1, r6
 1596              		.loc 1 319 0
ARM GAS  /tmp/ccLxO412.s 			page 29


 1597 01d0 B8F1000F 		cmp	r8, #0
 1598 01d4 40F0D481 		bne	.L360
 1599              	.LVL236:
 1600              		.loc 1 321 0
 1601 01d8 002B     		cmp	r3, #0
 1602 01da 00F0F381 		beq	.L361
 1603              	.LVL237:
 1604              	.L353:
 1605 01de 47F6FE78 		movw	r8, #32766
 1606              	.L269:
 1607              		.loc 1 321 0 is_stmt 0 discriminator 4
 1608 01e2 3346     		mov	r3, r6
 1609 01e4 02E0     		b	.L231
 1610              	.LVL238:
 1611              	.L230:
 1612              		.loc 1 321 0 discriminator 3
 1613 01e6 B8F10108 		subs	r8, r8, #1
 1614              	.LVL239:
 1615 01ea 03D4     		bmi	.L354
 1616              	.LVL240:
 1617              	.L231:
 1618              		.loc 1 321 0 discriminator 4
 1619 01ec 13F8012F 		ldrb	r2, [r3, #1]!	@ zero_extendqisi2
 1620              	.LVL241:
 1621 01f0 002A     		cmp	r2, #0
 1622 01f2 F8D1     		bne	.L230
 1623              	.LVL242:
 1624              	.L354:
 1625 01f4 5B1A     		subs	r3, r3, r1
 1626              	.LVL243:
 1627 01f6 E41A     		subs	r4, r4, r3
 1628              	.LVL244:
 1629 01f8 013B     		subs	r3, r3, #1
 1630 01fa 0093     		str	r3, [sp]
 1631              		.loc 1 316 0 is_stmt 1
 1632 01fc 2027     		movs	r7, #32
 1633 01fe 2DE0     		b	.L226
 1634              	.LVL245:
 1635              	.L279:
 1636              	.LBE88:
 1637              		.loc 1 309 0
 1638 0200 9346     		mov	fp, r2
 1639              	.LVL246:
 1640              	.L224:
 1641              	.LBB107:
 1642              		.loc 1 342 0
 1643 0202 09F10709 		add	r9, r9, #7
 1644              	.LVL247:
 1645 0206 29F00709 		bic	r9, r9, #7
 1646              	.LVL248:
 1647 020a D9E90023 		ldrd	r2, [r9]
 1648 020e C74E     		ldr	r6, .L367
 1649 0210 C6E90023 		strd	r2, [r6]
 1650              		.loc 1 343 0
 1651 0214 0022     		movs	r2, #0
 1652 0216 D6E90001 		ldrd	r0, [r6]
 1653 021a 0023     		movs	r3, #0
ARM GAS  /tmp/ccLxO412.s 			page 30


 1654              		.loc 1 342 0
 1655 021c 09F10809 		add	r9, r9, #8
 1656              	.LVL249:
 1657              		.loc 1 343 0
 1658 0220 FFF7FEFF 		bl	__aeabi_dcmplt
 1659              	.LVL250:
 1660 0224 0028     		cmp	r0, #0
 1661 0226 40F08881 		bne	.L362
 1662              	.LBE107:
 1663              		.loc 1 256 0
 1664 022a 06A8     		add	r0, sp, #24
 1665              	.LVL251:
 1666              	.L244:
 1667              	.LBB108:
 1668              		.loc 1 348 0
 1669 022c 96ED000B 		vldr.64	d0, [r6]
 1670 0230 4146     		mov	r1, r8
 1671 0232 FFF7FEFF 		bl	ftoa
 1672              	.LVL252:
 1673 0236 06AB     		add	r3, sp, #24
 1674              	.LVL253:
 1675 0238 C01A     		subs	r0, r0, r3
 1676              	.LVL254:
 1677 023a 431E     		subs	r3, r0, #1
 1678              	.LVL255:
 1679 023c 241A     		subs	r4, r4, r0
 1680              	.LVL256:
 1681 023e 0093     		str	r3, [sp]
 1682              	.LBE108:
 1683              		.loc 1 257 0
 1684 0240 06AE     		add	r6, sp, #24
 1685              	.LVL257:
 1686              	.LBB109:
 1687              		.loc 1 349 0
 1688 0242 0BE0     		b	.L226
 1689              	.LVL258:
 1690              	.L278:
 1691              	.LBE109:
 1692              		.loc 1 309 0
 1693 0244 9346     		mov	fp, r2
 1694              	.LVL259:
 1695              	.L223:
 1696              	.LBB110:
 1697              		.loc 1 313 0
 1698 0246 0CAE     		add	r6, sp, #48
 1699 0248 D9F80030 		ldr	r3, [r9]
 1700 024c 06F8183D 		strb	r3, [r6, #-24]!
 1701              		.loc 1 314 0
 1702 0250 0023     		movs	r3, #0
 1703 0252 013C     		subs	r4, r4, #1
 1704              	.LVL260:
 1705              		.loc 1 313 0
 1706 0254 09F10409 		add	r9, r9, #4
 1707              	.LVL261:
 1708              		.loc 1 314 0
 1709 0258 0093     		str	r3, [sp]
 1710              		.loc 1 312 0
ARM GAS  /tmp/ccLxO412.s 			page 31


 1711 025a 2027     		movs	r7, #32
 1712              	.LVL262:
 1713              	.L226:
 1714              	.LBE110:
 1715              		.loc 1 374 0
 1716 025c 002C     		cmp	r4, #0
 1717 025e C0F29080 		blt	.L363
 1718              	.LVL263:
 1719              	.L256:
 1720              		.loc 1 376 0
 1721 0262 019B     		ldr	r3, [sp, #4]
 1722 0264 002B     		cmp	r3, #0
 1723 0266 40F0A580 		bne	.L259
 1724              		.loc 1 377 0
 1725 026a 6342     		negs	r3, r4
 1726              	.LVL264:
 1727              		.loc 1 378 0
 1728 026c 002C     		cmp	r4, #0
 1729 026e 00F0A080 		beq	.L288
 1730              		.loc 1 380 0
 1731 0272 3178     		ldrb	r1, [r6]	@ zero_extendqisi2
 1732 0274 2A68     		ldr	r2, [r5]
 1733 0276 2D29     		cmp	r1, #45
 1734 0278 D268     		ldr	r2, [r2, #12]
 1735 027a 00F0A080 		beq	.L364
 1736              	.L351:
 1737 027e 9846     		mov	r8, r3
 1738 0280 01E0     		b	.L262
 1739              	.LVL265:
 1740              	.L365:
 1741 0282 2B68     		ldr	r3, [r5]
 1742 0284 DA68     		ldr	r2, [r3, #12]
 1743              	.LVL266:
 1744              	.L262:
 1745              		.loc 1 388 0 discriminator 1
 1746 0286 3946     		mov	r1, r7
 1747 0288 2846     		mov	r0, r5
 1748 028a 9047     		blx	r2
 1749              	.LVL267:
 1750              		.loc 1 390 0 discriminator 1
 1751 028c 18F10108 		adds	r8, r8, #1
 1752              	.LVL268:
 1753 0290 F7D1     		bne	.L365
 1754              		.loc 1 392 0
 1755 0292 009A     		ldr	r2, [sp]
 1756 0294 002A     		cmp	r2, #0
 1757 0296 4346     		mov	r3, r8
 1758 0298 A244     		add	r10, r10, r4
 1759              	.LVL269:
 1760 029a FFF6B9AE 		blt	.L202
 1761 029e 1C46     		mov	r4, r3
 1762              	.LVL270:
 1763              	.L265:
 1764              		.loc 1 377 0
 1765 02a0 DDF80080 		ldr	r8, [sp]
 1766              	.LVL271:
 1767              	.L263:
ARM GAS  /tmp/ccLxO412.s 			page 32


 1768              		.loc 1 394 0
 1769 02a4 2B68     		ldr	r3, [r5]
 1770 02a6 16F8011B 		ldrb	r1, [r6], #1	@ zero_extendqisi2
 1771              	.LVL272:
 1772 02aa DB68     		ldr	r3, [r3, #12]
 1773              		.loc 1 392 0
 1774 02ac 08F1FF38 		add	r8, r8, #-1
 1775              	.LVL273:
 1776              		.loc 1 394 0
 1777 02b0 2846     		mov	r0, r5
 1778 02b2 9847     		blx	r3
 1779              	.LVL274:
 1780              		.loc 1 392 0
 1781 02b4 B8F1FF3F 		cmp	r8, #-1
 1782 02b8 F4D1     		bne	.L263
 1783 02ba 009B     		ldr	r3, [sp]
 1784 02bc 0AF1010A 		add	r10, r10, #1
 1785 02c0 5344     		add	r3, r3, r10
 1786 02c2 9A46     		mov	r10, r3
 1787              	.LVL275:
 1788              	.L264:
 1789              		.loc 1 398 0
 1790 02c4 002C     		cmp	r4, #0
 1791 02c6 3FF4A3AE 		beq	.L202
 1792 02ca 2646     		mov	r6, r4
 1793              	.LVL276:
 1794              	.L266:
 1795              		.loc 1 400 0
 1796 02cc 2B68     		ldr	r3, [r5]
 1797 02ce 3946     		mov	r1, r7
 1798 02d0 DB68     		ldr	r3, [r3, #12]
 1799 02d2 2846     		mov	r0, r5
 1800 02d4 9847     		blx	r3
 1801              	.LVL277:
 1802              		.loc 1 398 0
 1803 02d6 013E     		subs	r6, r6, #1
 1804              	.LVL278:
 1805 02d8 F8D1     		bne	.L266
 1806 02da A244     		add	r10, r10, r4
 1807 02dc 98E6     		b	.L202
 1808              	.LVL279:
 1809              	.L276:
 1810              		.loc 1 309 0
 1811 02de 9346     		mov	fp, r2
 1812              	.LVL280:
 1813              	.L221:
 1814              	.LBB111:
 1815              		.loc 1 358 0
 1816 02e0 0A26     		movs	r6, #10
 1817              	.LVL281:
 1818              	.L222:
 1819              	.LBB89:
 1820              	.LBB90:
 1821              	.LBB91:
 1822              		.loc 1 69 0
 1823 02e2 0DF12300 		add	r0, sp, #35
 1824 02e6 59F8042B 		ldr	r2, [r9], #4
ARM GAS  /tmp/ccLxO412.s 			page 33


 1825              	.LVL282:
 1826 02ea 0346     		mov	r3, r0
 1827              	.L246:
 1828              	.LVL283:
 1829              		.loc 1 72 0
 1830 02ec B2FBF6F1 		udiv	r1, r2, r6
 1831 02f0 06FB1122 		mls	r2, r6, r1, r2
 1832              	.LVL284:
 1833              		.loc 1 73 0
 1834 02f4 02F1300C 		add	ip, r2, #48
 1835              	.LVL285:
 1836              		.loc 1 74 0
 1837 02f8 BCF1390F 		cmp	ip, #57
 1838              		.loc 1 75 0
 1839 02fc 02F13702 		add	r2, r2, #55
 1840              		.loc 1 74 0
 1841 0300 51DD     		ble	.L247
 1842              		.loc 1 76 0
 1843 0302 03F8012D 		strb	r2, [r3, #-1]!
 1844              	.LVL286:
 1845              		.loc 1 78 0
 1846 0306 0A46     		mov	r2, r1
 1847 0308 0029     		cmp	r1, #0
 1848 030a EFD1     		bne	.L246
 1849              	.LVL287:
 1850              	.L249:
 1851 030c 1A1D     		adds	r2, r3, #4
 1852 030e 07A9     		add	r1, sp, #28
 1853              	.LVL288:
 1854 0310 06AE     		add	r6, sp, #24
 1855              	.LVL289:
 1856 0312 8B42     		cmp	r3, r1
 1857 0314 38BF     		it	cc
 1858 0316 9642     		cmpcc	r6, r2
 1859              		.loc 1 80 0
 1860 0318 A0EB030C 		sub	ip, r0, r3
 1861              	.LVL290:
 1862 031c C0F02681 		bcc	.L250
 1863 0320 BCF1080F 		cmp	ip, #8
 1864 0324 40F22281 		bls	.L250
 1865 0328 0CF1FF38 		add	r8, ip, #-1
 1866              	.LVL291:
 1867 032c B8F1020F 		cmp	r8, #2
 1868 0330 40F23481 		bls	.L287
 1869 0334 4FEA9C0E 		lsr	lr, ip, #2
 1870 0338 1846     		mov	r0, r3
 1871 033a 0022     		movs	r2, #0
 1872 033c 3146     		mov	r1, r6
 1873              	.LVL292:
 1874              	.L252:
 1875 033e 0132     		adds	r2, r2, #1
 1876              		.loc 1 82 0
 1877 0340 50F8046B 		ldr	r6, [r0], #4	@ unaligned
 1878 0344 41F8046B 		str	r6, [r1], #4
 1879 0348 7245     		cmp	r2, lr
 1880 034a F8D3     		bcc	.L252
 1881 034c 2CF00302 		bic	r2, ip, #3
ARM GAS  /tmp/ccLxO412.s 			page 34


 1882 0350 06A9     		add	r1, sp, #24
 1883              	.LVL293:
 1884 0352 6245     		cmp	r2, ip
 1885 0354 1344     		add	r3, r3, r2
 1886 0356 1144     		add	r1, r1, r2
 1887              	.LVL294:
 1888 0358 ACEB0200 		sub	r0, ip, r2
 1889 035c 09D0     		beq	.L255
 1890              	.L251:
 1891              	.LVL295:
 1892 035e 1A78     		ldrb	r2, [r3]	@ zero_extendqisi2
 1893 0360 0A70     		strb	r2, [r1]
 1894              	.LVL296:
 1895              		.loc 1 83 0
 1896 0362 0128     		cmp	r0, #1
 1897 0364 05D0     		beq	.L255
 1898              	.LVL297:
 1899              		.loc 1 82 0
 1900 0366 5A78     		ldrb	r2, [r3, #1]	@ zero_extendqisi2
 1901 0368 4A70     		strb	r2, [r1, #1]
 1902              	.LVL298:
 1903              		.loc 1 83 0
 1904 036a 0228     		cmp	r0, #2
 1905 036c 01D0     		beq	.L255
 1906              	.LVL299:
 1907              		.loc 1 82 0
 1908 036e 9B78     		ldrb	r3, [r3, #2]	@ zero_extendqisi2
 1909              	.LVL300:
 1910 0370 8B70     		strb	r3, [r1, #2]
 1911              	.LVL301:
 1912              	.L255:
 1913 0372 A4EB0C04 		sub	r4, r4, ip
 1914              	.LVL302:
 1915              	.LBE91:
 1916              	.LBE90:
 1917              	.LBE89:
 1918              	.LBE111:
 1919              		.loc 1 374 0
 1920 0376 002C     		cmp	r4, #0
 1921 0378 CDF80080 		str	r8, [sp]
 1922              		.loc 1 257 0
 1923 037c 06AE     		add	r6, sp, #24
 1924              	.LVL303:
 1925              		.loc 1 374 0
 1926 037e BFF670AF 		bge	.L256
 1927              	.L363:
 1928              	.LVL304:
 1929              		.loc 1 392 0
 1930 0382 009B     		ldr	r3, [sp]
 1931 0384 002B     		cmp	r3, #0
 1932 0386 FFF643AE 		blt	.L202
 1933              		.loc 1 375 0
 1934 038a 0024     		movs	r4, #0
 1935 038c 88E7     		b	.L265
 1936              	.LVL305:
 1937              	.L275:
 1938              		.loc 1 309 0
ARM GAS  /tmp/ccLxO412.s 			page 35


 1939 038e 9346     		mov	fp, r2
 1940              	.LVL306:
 1941              	.L220:
 1942              	.LBB112:
 1943              		.loc 1 359 0
 1944 0390 0826     		movs	r6, #8
 1945 0392 A6E7     		b	.L222
 1946              	.LVL307:
 1947              	.L274:
 1948              	.LBE112:
 1949              		.loc 1 309 0
 1950 0394 0B46     		mov	r3, r1
 1951              	.LVL308:
 1952 0396 9346     		mov	fp, r2
 1953              	.LVL309:
 1954              	.L217:
 1955              	.LBB113:
 1956              		.loc 1 370 0
 1957 0398 0CAE     		add	r6, sp, #48
 1958 039a 013C     		subs	r4, r4, #1
 1959              	.LVL310:
 1960 039c 06F8183D 		strb	r3, [r6, #-24]!
 1961              		.loc 1 371 0
 1962 03a0 0023     		movs	r3, #0
 1963              	.LVL311:
 1964 03a2 0093     		str	r3, [sp]
 1965 03a4 5AE7     		b	.L226
 1966              	.LVL312:
 1967              	.L247:
 1968              	.LBB98:
 1969              	.LBB95:
 1970              	.LBB92:
 1971              		.loc 1 76 0
 1972 03a6 03F801CD 		strb	ip, [r3, #-1]!
 1973              	.LVL313:
 1974              		.loc 1 78 0
 1975 03aa 0A46     		mov	r2, r1
 1976 03ac 0029     		cmp	r1, #0
 1977 03ae 9DD1     		bne	.L246
 1978 03b0 ACE7     		b	.L249
 1979              	.LVL314:
 1980              	.L288:
 1981              	.LBE92:
 1982              	.LBE95:
 1983              	.LBE98:
 1984              	.LBE113:
 1985              		.loc 1 377 0
 1986 03b2 1C46     		mov	r4, r3
 1987              	.LVL315:
 1988              	.L259:
 1989              		.loc 1 392 0
 1990 03b4 009B     		ldr	r3, [sp]
 1991 03b6 002B     		cmp	r3, #0
 1992 03b8 BFF672AF 		bge	.L265
 1993 03bc 82E7     		b	.L264
 1994              	.LVL316:
 1995              	.L364:
ARM GAS  /tmp/ccLxO412.s 			page 36


 1996              		.loc 1 380 0 discriminator 1
 1997 03be 302F     		cmp	r7, #48
 1998 03c0 7FF45DAF 		bne	.L351
 1999              		.loc 1 382 0
 2000 03c4 2846     		mov	r0, r5
 2001 03c6 0193     		str	r3, [sp, #4]
 2002              	.LVL317:
 2003 03c8 9047     		blx	r2
 2004              	.LVL318:
 2005 03ca 009B     		ldr	r3, [sp]
 2006 03cc 2A68     		ldr	r2, [r5]
 2007 03ce 013B     		subs	r3, r3, #1
 2008 03d0 0093     		str	r3, [sp]
 2009 03d2 019B     		ldr	r3, [sp, #4]
 2010 03d4 D268     		ldr	r2, [r2, #12]
 2011 03d6 0AF1010A 		add	r10, r10, #1
 2012              	.LVL319:
 2013 03da 0136     		adds	r6, r6, #1
 2014              	.LVL320:
 2015 03dc 9846     		mov	r8, r3
 2016 03de 52E7     		b	.L262
 2017              	.LVL321:
 2018              	.L291:
 2019              		.loc 1 309 0
 2020 03e0 1026     		movs	r6, #16
 2021 03e2 7EE7     		b	.L222
 2022              	.L309:
 2023 03e4 09F10400 		add	r0, r9, #4
 2024              	.LVL322:
 2025              	.L233:
 2026              	.LBB114:
 2027              		.loc 1 329 0
 2028 03e8 D9F80010 		ldr	r1, [r9]
 2029 03ec 8146     		mov	r9, r0
 2030              	.LVL323:
 2031              	.L232:
 2032              		.loc 1 332 0
 2033 03ee 0029     		cmp	r1, #0
 2034 03f0 C0F2CD80 		blt	.L366
 2035              	.LBE114:
 2036              		.loc 1 256 0
 2037 03f4 0DF11808 		add	r8, sp, #24
 2038              	.LVL324:
 2039              	.L234:
 2040              	.LBB115:
 2041              	.LBB99:
 2042              	.LBB100:
 2043              	.LBB101:
 2044              		.loc 1 69 0
 2045 03f8 08F10B0C 		add	ip, r8, #11
 2046              	.LVL325:
 2047 03fc 6246     		mov	r2, ip
 2048              		.loc 1 72 0
 2049 03fe 4C4E     		ldr	r6, .L367+4
 2050 0400 00E0     		b	.L235
 2051              	.LVL326:
 2052              	.L283:
ARM GAS  /tmp/ccLxO412.s 			page 37


 2053              		.loc 1 78 0
 2054 0402 1A46     		mov	r2, r3
 2055              	.LVL327:
 2056              	.L235:
 2057              		.loc 1 72 0
 2058 0404 A6FB0103 		umull	r0, r3, r6, r1
 2059 0408 DB08     		lsrs	r3, r3, #3
 2060 040a 03EB830E 		add	lr, r3, r3, lsl #2
 2061 040e 1846     		mov	r0, r3
 2062 0410 A1EB4E03 		sub	r3, r1, lr, lsl #1
 2063              	.LVL328:
 2064              		.loc 1 73 0
 2065 0414 3033     		adds	r3, r3, #48
 2066              	.LVL329:
 2067              		.loc 1 76 0
 2068 0416 02F8013C 		strb	r3, [r2, #-1]
 2069              		.loc 1 78 0
 2070 041a 0146     		mov	r1, r0
 2071              	.LVL330:
 2072              		.loc 1 76 0
 2073 041c 531E     		subs	r3, r2, #1
 2074              	.LVL331:
 2075              		.loc 1 78 0
 2076 041e 0028     		cmp	r0, #0
 2077 0420 EFD1     		bne	.L283
 2078              		.loc 1 80 0
 2079 0422 ACEB0300 		sub	r0, ip, r3
 2080              	.LVL332:
 2081 0426 0646     		mov	r6, r0
 2082 0428 0090     		str	r0, [sp]
 2083              	.LVL333:
 2084 042a 08F10401 		add	r1, r8, #4
 2085              	.LVL334:
 2086 042e D01C     		adds	r0, r2, #3
 2087              	.LVL335:
 2088 0430 8B42     		cmp	r3, r1
 2089 0432 38BF     		it	cc
 2090 0434 8045     		cmpcc	r8, r0
 2091 0436 C0F0B480 		bcc	.L236
 2092 043a 0B2E     		cmp	r6, #11
 2093 043c 40F2B180 		bls	.L236
 2094 0440 5942     		negs	r1, r3
 2095 0442 01F00301 		and	r1, r1, #3
 2096 0446 06F1FF3E 		add	lr, r6, #-1
 2097 044a 01F1030C 		add	ip, r1, #3
 2098 044e F445     		cmp	ip, lr
 2099 0450 CDF808E0 		str	lr, [sp, #8]
 2100 0454 00F2B480 		bhi	.L284
 2101 0458 0029     		cmp	r1, #0
 2102 045a 00F0AD80 		beq	.L285
 2103              		.loc 1 82 0
 2104 045e 1878     		ldrb	r0, [r3]	@ zero_extendqisi2
 2105 0460 88F80000 		strb	r0, [r8]
 2106 0464 08F10106 		add	r6, r8, #1
 2107              	.LVL336:
 2108 0468 0129     		cmp	r1, #1
 2109 046a 0396     		str	r6, [sp, #12]
ARM GAS  /tmp/ccLxO412.s 			page 38


 2110              	.LVL337:
 2111 046c 16D0     		beq	.L238
 2112              	.LVL338:
 2113 046e 5878     		ldrb	r0, [r3, #1]	@ zero_extendqisi2
 2114 0470 88F80100 		strb	r0, [r8, #1]
 2115              		.loc 1 83 0
 2116 0474 0098     		ldr	r0, [sp]
 2117              		.loc 1 82 0
 2118 0476 08F10206 		add	r6, r8, #2
 2119              	.LVL339:
 2120 047a 0396     		str	r6, [sp, #12]
 2121              	.LVL340:
 2122 047c 0329     		cmp	r1, #3
 2123              		.loc 1 83 0
 2124 047e A0F10206 		sub	r6, r0, #2
 2125              		.loc 1 82 0
 2126 0482 02F10102 		add	r2, r2, #1
 2127              	.LVL341:
 2128              		.loc 1 83 0
 2129 0486 0296     		str	r6, [sp, #8]
 2130 0488 08D1     		bne	.L238
 2131              	.LVL342:
 2132              		.loc 1 82 0
 2133 048a 9A78     		ldrb	r2, [r3, #2]	@ zero_extendqisi2
 2134 048c 88F80220 		strb	r2, [r8, #2]
 2135 0490 08F10306 		add	r6, r8, #3
 2136              	.LVL343:
 2137              		.loc 1 83 0
 2138 0494 0338     		subs	r0, r0, #3
 2139              		.loc 1 82 0
 2140 0496 DA1C     		adds	r2, r3, #3
 2141              	.LVL344:
 2142 0498 0396     		str	r6, [sp, #12]
 2143              	.LVL345:
 2144              		.loc 1 83 0
 2145 049a 0290     		str	r0, [sp, #8]
 2146              	.LVL346:
 2147              	.L238:
 2148 049c 0098     		ldr	r0, [sp]
 2149 049e A0EB010E 		sub	lr, r0, r1
 2150 04a2 0B44     		add	r3, r3, r1
 2151 04a4 4FEA9E0C 		lsr	ip, lr, #2
 2152 04a8 4144     		add	r1, r1, r8
 2153              		.loc 1 80 0
 2154 04aa 0020     		movs	r0, #0
 2155              	.L240:
 2156 04ac 0130     		adds	r0, r0, #1
 2157              		.loc 1 82 0
 2158 04ae 53F8046B 		ldr	r6, [r3], #4
 2159 04b2 41F8046B 		str	r6, [r1], #4	@ unaligned
 2160 04b6 8445     		cmp	ip, r0
 2161 04b8 F8D8     		bhi	.L240
 2162 04ba 039B     		ldr	r3, [sp, #12]
 2163 04bc 2EF00300 		bic	r0, lr, #3
 2164 04c0 0344     		add	r3, r3, r0
 2165 04c2 1946     		mov	r1, r3
 2166 04c4 029B     		ldr	r3, [sp, #8]
ARM GAS  /tmp/ccLxO412.s 			page 39


 2167 04c6 7045     		cmp	r0, lr
 2168 04c8 A3EB0006 		sub	r6, r3, r0
 2169 04cc 02EB0003 		add	r3, r2, r0
 2170 04d0 15D0     		beq	.L243
 2171              	.L237:
 2172              	.LVL347:
 2173 04d2 1A78     		ldrb	r2, [r3]	@ zero_extendqisi2
 2174 04d4 0A70     		strb	r2, [r1]
 2175              		.loc 1 83 0
 2176 04d6 012E     		cmp	r6, #1
 2177 04d8 11D0     		beq	.L243
 2178              	.LVL348:
 2179              		.loc 1 82 0
 2180 04da 5A78     		ldrb	r2, [r3, #1]	@ zero_extendqisi2
 2181 04dc 4A70     		strb	r2, [r1, #1]
 2182              		.loc 1 83 0
 2183 04de 022E     		cmp	r6, #2
 2184 04e0 0DD0     		beq	.L243
 2185              	.LVL349:
 2186              		.loc 1 82 0
 2187 04e2 9A78     		ldrb	r2, [r3, #2]	@ zero_extendqisi2
 2188 04e4 8A70     		strb	r2, [r1, #2]
 2189              		.loc 1 83 0
 2190 04e6 032E     		cmp	r6, #3
 2191 04e8 09D0     		beq	.L243
 2192              	.LVL350:
 2193              		.loc 1 82 0
 2194 04ea DA78     		ldrb	r2, [r3, #3]	@ zero_extendqisi2
 2195 04ec CA70     		strb	r2, [r1, #3]
 2196              		.loc 1 83 0
 2197 04ee 042E     		cmp	r6, #4
 2198 04f0 05D0     		beq	.L243
 2199              	.LVL351:
 2200              		.loc 1 82 0
 2201 04f2 1A79     		ldrb	r2, [r3, #4]	@ zero_extendqisi2
 2202 04f4 0A71     		strb	r2, [r1, #4]
 2203              		.loc 1 83 0
 2204 04f6 052E     		cmp	r6, #5
 2205 04f8 01D0     		beq	.L243
 2206              	.LVL352:
 2207              		.loc 1 82 0
 2208 04fa 5B79     		ldrb	r3, [r3, #5]	@ zero_extendqisi2
 2209              	.LVL353:
 2210 04fc 4B71     		strb	r3, [r1, #5]
 2211              	.LVL354:
 2212              	.L243:
 2213 04fe 009B     		ldr	r3, [sp]
 2214 0500 9844     		add	r8, r8, r3
 2215              	.LVL355:
 2216 0502 06AB     		add	r3, sp, #24
 2217              	.LVL356:
 2218 0504 A8EB0308 		sub	r8, r8, r3
 2219 0508 08F1FF33 		add	r3, r8, #-1
 2220              	.LVL357:
 2221 050c A4EB0804 		sub	r4, r4, r8
 2222              	.LVL358:
 2223 0510 0093     		str	r3, [sp]
ARM GAS  /tmp/ccLxO412.s 			page 40


 2224              	.LBE101:
 2225              	.LBE100:
 2226              	.LBE99:
 2227              	.LBE115:
 2228              		.loc 1 257 0
 2229 0512 06AE     		add	r6, sp, #24
 2230              	.LVL359:
 2231 0514 A2E6     		b	.L226
 2232              	.LVL360:
 2233              	.L218:
 2234 0516 4846     		mov	r0, r9
 2235              	.LBB116:
 2236              		.loc 1 328 0
 2237 0518 192B     		cmp	r3, #25
 2238 051a 50F8041B 		ldr	r1, [r0], #4
 2239              	.LVL361:
 2240 051e 9346     		mov	fp, r2
 2241              		.loc 1 331 0
 2242 0520 88BF     		it	hi
 2243 0522 8146     		movhi	r9, r0
 2244              	.LVL362:
 2245              		.loc 1 328 0
 2246 0524 3FF663AF 		bhi	.L232
 2247 0528 5EE7     		b	.L233
 2248              	.L368:
 2249 052a 00BF     		.align	2
 2250              	.L367:
 2251 052c 00000000 		.word	.LANCHOR1
 2252 0530 CDCCCCCC 		.word	-858993459
 2253              	.LVL363:
 2254              	.L277:
 2255              	.LBE116:
 2256              		.loc 1 309 0
 2257 0534 9346     		mov	fp, r2
 2258 0536 1026     		movs	r6, #16
 2259 0538 D3E6     		b	.L222
 2260              	.LVL364:
 2261              	.L362:
 2262              	.LBB117:
 2263              		.loc 1 346 0
 2264 053a D6E90023 		ldrd	r2, [r6]
 2265 053e 03F10043 		add	r3, r3, #-2147483648
 2266 0542 0593     		str	r3, [sp, #20]
 2267 0544 0492     		str	r2, [sp, #16]
 2268 0546 9DED047B 		vldr.64	d7, [sp, #16]
 2269              		.loc 1 345 0
 2270 054a 2D23     		movs	r3, #45
 2271              		.loc 1 346 0
 2272 054c 86ED007B 		vstr.64	d7, [r6]
 2273              		.loc 1 345 0
 2274 0550 8DF81830 		strb	r3, [sp, #24]
 2275 0554 0DF11900 		add	r0, sp, #25
 2276              	.LVL365:
 2277 0558 68E6     		b	.L244
 2278              	.LVL366:
 2279              	.L227:
 2280 055a 1D49     		ldr	r1, .L369
ARM GAS  /tmp/ccLxO412.s 			page 41


 2281              		.loc 1 319 0
 2282 055c 0E46     		mov	r6, r1
 2283 055e B8F1000F 		cmp	r8, #0
 2284 0562 3FF43CAE 		beq	.L353
 2285              	.LVL367:
 2286              	.L270:
 2287              		.loc 1 321 0
 2288 0566 08F1FF38 		add	r8, r8, #-1
 2289              	.LVL368:
 2290 056a 3AE6     		b	.L269
 2291              	.LVL369:
 2292              	.L250:
 2293 056c 06AA     		add	r2, sp, #24
 2294              	.LVL370:
 2295              	.L254:
 2296              	.LBB104:
 2297              	.LBB96:
 2298              	.LBB93:
 2299              		.loc 1 82 0
 2300 056e 13F8011B 		ldrb	r1, [r3], #1	@ zero_extendqisi2
 2301              	.LVL371:
 2302 0572 02F8011B 		strb	r1, [r2], #1
 2303              		.loc 1 83 0
 2304 0576 8342     		cmp	r3, r0
 2305 0578 F9D1     		bne	.L254
 2306 057a 0CF1FF38 		add	r8, ip, #-1
 2307              	.LVL372:
 2308 057e F8E6     		b	.L255
 2309              	.LVL373:
 2310              	.L360:
 2311              	.LBE93:
 2312              	.LBE96:
 2313              	.LBE104:
 2314              		.loc 1 321 0
 2315 0580 002B     		cmp	r3, #0
 2316 0582 F0D1     		bne	.L270
 2317 0584 4FF0FF33 		mov	r3, #-1
 2318 0588 0093     		str	r3, [sp]
 2319              		.loc 1 316 0
 2320 058a 2027     		movs	r7, #32
 2321 058c 66E6     		b	.L226
 2322              	.LVL374:
 2323              	.L366:
 2324              		.loc 1 334 0
 2325 058e 2D23     		movs	r3, #45
 2326              		.loc 1 335 0
 2327 0590 4942     		negs	r1, r1
 2328              	.LVL375:
 2329              		.loc 1 334 0
 2330 0592 8DF81830 		strb	r3, [sp, #24]
 2331 0596 0DF11908 		add	r8, sp, #25
 2332              	.LVL376:
 2333 059a 2DE7     		b	.L234
 2334              	.LVL377:
 2335              	.L287:
 2336              	.LBB105:
 2337              	.LBB97:
ARM GAS  /tmp/ccLxO412.s 			page 42


 2338              	.LBB94:
 2339              		.loc 1 80 0
 2340 059c 6046     		mov	r0, ip
 2341 059e 06A9     		add	r1, sp, #24
 2342 05a0 DDE6     		b	.L251
 2343              	.LVL378:
 2344              	.L236:
 2345 05a2 0099     		ldr	r1, [sp]
 2346 05a4 08F1FF32 		add	r2, r8, #-1
 2347 05a8 5818     		adds	r0, r3, r1
 2348              	.LVL379:
 2349              	.L242:
 2350              	.LBE94:
 2351              	.LBE97:
 2352              	.LBE105:
 2353              	.LBB106:
 2354              	.LBB103:
 2355              	.LBB102:
 2356              		.loc 1 82 0
 2357 05aa 13F8011B 		ldrb	r1, [r3], #1	@ zero_extendqisi2
 2358              	.LVL380:
 2359 05ae 02F8011F 		strb	r1, [r2, #1]!
 2360              		.loc 1 83 0
 2361 05b2 9842     		cmp	r0, r3
 2362 05b4 F9D1     		bne	.L242
 2363 05b6 A2E7     		b	.L243
 2364              	.LVL381:
 2365              	.L285:
 2366              		.loc 1 80 0
 2367 05b8 1A46     		mov	r2, r3
 2368 05ba CDE90268 		strd	r6, r8, [sp, #8]
 2369 05be 6DE7     		b	.L238
 2370              	.L284:
 2371 05c0 4146     		mov	r1, r8
 2372 05c2 86E7     		b	.L237
 2373              	.LVL382:
 2374              	.L361:
 2375              	.LBE102:
 2376              	.LBE103:
 2377              	.LBE106:
 2378              		.loc 1 321 0
 2379 05c4 4FF0FF33 		mov	r3, #-1
 2380 05c8 0093     		str	r3, [sp]
 2381              		.loc 1 316 0
 2382 05ca 2027     		movs	r7, #32
 2383 05cc 49E6     		b	.L256
 2384              	.L370:
 2385 05ce 00BF     		.align	2
 2386              	.L369:
 2387 05d0 00000000 		.word	.LC0
 2388              	.LBE117:
 2389              		.cfi_endproc
 2390              	.LFE330:
 2391              		.size	chvprintf, .-chvprintf
 2392              		.section	.text.chprintf,"ax",%progbits
 2393              		.align	1
 2394              		.p2align 2,,3
ARM GAS  /tmp/ccLxO412.s 			page 43


 2395              		.global	chprintf
 2396              		.syntax unified
 2397              		.thumb
 2398              		.thumb_func
 2399              		.fpu fpv4-sp-d16
 2400              		.type	chprintf, %function
 2401              	chprintf:
 2402              	.LFB331:
 2403              		.loc 1 433 0
 2404              		.cfi_startproc
 2405              		@ args = 4, pretend = 12, frame = 8
 2406              		@ frame_needed = 0, uses_anonymous_args = 1
 2407              	.LVL383:
 2408 0000 0EB4     		push	{r1, r2, r3}
 2409              		.cfi_def_cfa_offset 12
 2410              		.cfi_offset 1, -12
 2411              		.cfi_offset 2, -8
 2412              		.cfi_offset 3, -4
 2413 0002 00B5     		push	{lr}
 2414              		.cfi_def_cfa_offset 16
 2415              		.cfi_offset 14, -16
 2416 0004 82B0     		sub	sp, sp, #8
 2417              		.cfi_def_cfa_offset 24
 2418              		.loc 1 433 0
 2419 0006 03AA     		add	r2, sp, #12
 2420 0008 52F8041B 		ldr	r1, [r2], #4
 2421              		.loc 1 437 0
 2422 000c 0192     		str	r2, [sp, #4]
 2423              		.loc 1 438 0
 2424 000e FFF7FEFF 		bl	chvprintf
 2425              	.LVL384:
 2426              		.loc 1 442 0
 2427 0012 02B0     		add	sp, sp, #8
 2428              		.cfi_def_cfa_offset 16
 2429              		@ sp needed
 2430 0014 5DF804EB 		ldr	lr, [sp], #4
 2431              		.cfi_restore 14
 2432              		.cfi_def_cfa_offset 12
 2433 0018 03B0     		add	sp, sp, #12
 2434              		.cfi_restore 3
 2435              		.cfi_restore 2
 2436              		.cfi_restore 1
 2437              		.cfi_def_cfa_offset 0
 2438 001a 7047     		bx	lr
 2439              		.cfi_endproc
 2440              	.LFE331:
 2441              		.size	chprintf, .-chprintf
 2442              		.section	.text.chsnprintf,"ax",%progbits
 2443              		.align	1
 2444              		.p2align 2,,3
 2445              		.global	chsnprintf
 2446              		.syntax unified
 2447              		.thumb
 2448              		.thumb_func
 2449              		.fpu fpv4-sp-d16
 2450              		.type	chsnprintf, %function
 2451              	chsnprintf:
ARM GAS  /tmp/ccLxO412.s 			page 44


 2452              	.LFB332:
 2453              		.loc 1 472 0
 2454              		.cfi_startproc
 2455              		@ args = 4, pretend = 8, frame = 24
 2456              		@ frame_needed = 0, uses_anonymous_args = 1
 2457              	.LVL385:
 2458 0000 0CB4     		push	{r2, r3}
 2459              		.cfi_def_cfa_offset 8
 2460              		.cfi_offset 2, -8
 2461              		.cfi_offset 3, -4
 2462 0002 F0B5     		push	{r4, r5, r6, r7, lr}
 2463              		.cfi_def_cfa_offset 28
 2464              		.cfi_offset 4, -28
 2465              		.cfi_offset 5, -24
 2466              		.cfi_offset 6, -20
 2467              		.cfi_offset 7, -16
 2468              		.cfi_offset 14, -12
 2469 0004 87B0     		sub	sp, sp, #28
 2470              		.cfi_def_cfa_offset 56
 2471              		.loc 1 472 0
 2472 0006 0CAC     		add	r4, sp, #48
 2473 0008 0646     		mov	r6, r0
 2474 000a 54F8047B 		ldr	r7, [r4], #4
 2475              		.loc 1 477 0
 2476 000e 0094     		str	r4, [sp]
 2477              	.LVL386:
 2478              	.LBB120:
 2479              	.LBB121:
 2480              		.loc 1 520 0
 2481 0010 0D46     		mov	r5, r1
 2482 0012 A1B1     		cbz	r1, .L374
 2483              	.LVL387:
 2484              		.loc 1 527 0
 2485 0014 0023     		movs	r3, #0
 2486 0016 4A1E     		subs	r2, r1, #1
 2487              	.LVL388:
 2488 0018 01A8     		add	r0, sp, #4
 2489              	.LVL389:
 2490 001a 3146     		mov	r1, r6
 2491              	.LVL390:
 2492 001c FFF7FEFF 		bl	msObjectInit
 2493              	.LVL391:
 2494              		.loc 1 531 0
 2495 0020 2246     		mov	r2, r4
 2496 0022 3946     		mov	r1, r7
 2497 0024 01A8     		add	r0, sp, #4
 2498              	.LVL392:
 2499 0026 FFF7FEFF 		bl	chvprintf
 2500              	.LVL393:
 2501              		.loc 1 534 0
 2502 002a 049B     		ldr	r3, [sp, #16]
 2503 002c 9D42     		cmp	r5, r3
 2504 002e 01D9     		bls	.L373
 2505              		.loc 1 536 0
 2506 0030 0022     		movs	r2, #0
 2507 0032 F254     		strb	r2, [r6, r3]
 2508              	.LVL394:
ARM GAS  /tmp/ccLxO412.s 			page 45


 2509              	.L373:
 2510              	.LBE121:
 2511              	.LBE120:
 2512              		.loc 1 483 0
 2513 0034 07B0     		add	sp, sp, #28
 2514              		.cfi_remember_state
 2515              		.cfi_def_cfa_offset 28
 2516              		@ sp needed
 2517 0036 BDE8F040 		pop	{r4, r5, r6, r7, lr}
 2518              		.cfi_restore 14
 2519              		.cfi_restore 7
 2520              		.cfi_restore 6
 2521              		.cfi_restore 5
 2522              		.cfi_restore 4
 2523              		.cfi_def_cfa_offset 8
 2524              	.LVL395:
 2525 003a 02B0     		add	sp, sp, #8
 2526              		.cfi_restore 3
 2527              		.cfi_restore 2
 2528              		.cfi_def_cfa_offset 0
 2529 003c 7047     		bx	lr
 2530              	.LVL396:
 2531              	.L374:
 2532              		.cfi_restore_state
 2533              	.LBB123:
 2534              	.LBB122:
 2535              		.loc 1 527 0
 2536 003e 0146     		mov	r1, r0
 2537              	.LVL397:
 2538 0040 2B46     		mov	r3, r5
 2539 0042 01A8     		add	r0, sp, #4
 2540              	.LVL398:
 2541 0044 2A46     		mov	r2, r5
 2542 0046 FFF7FEFF 		bl	msObjectInit
 2543              	.LVL399:
 2544              		.loc 1 531 0
 2545 004a 2246     		mov	r2, r4
 2546 004c 3946     		mov	r1, r7
 2547 004e 01A8     		add	r0, sp, #4
 2548              	.LVL400:
 2549 0050 FFF7FEFF 		bl	chvprintf
 2550              	.LVL401:
 2551              	.LBE122:
 2552              	.LBE123:
 2553              		.loc 1 483 0
 2554 0054 07B0     		add	sp, sp, #28
 2555              		.cfi_def_cfa_offset 28
 2556              		@ sp needed
 2557 0056 BDE8F040 		pop	{r4, r5, r6, r7, lr}
 2558              		.cfi_restore 14
 2559              		.cfi_restore 7
 2560              		.cfi_restore 6
 2561              		.cfi_restore 5
 2562              		.cfi_restore 4
 2563              		.cfi_def_cfa_offset 8
 2564              	.LVL402:
 2565 005a 02B0     		add	sp, sp, #8
ARM GAS  /tmp/ccLxO412.s 			page 46


 2566              		.cfi_restore 3
 2567              		.cfi_restore 2
 2568              		.cfi_def_cfa_offset 0
 2569              	.LVL403:
 2570 005c 7047     		bx	lr
 2571              		.cfi_endproc
 2572              	.LFE332:
 2573              		.size	chsnprintf, .-chsnprintf
 2574 005e 00BF     		.section	.text.chvsnprintf,"ax",%progbits
 2575              		.align	1
 2576              		.p2align 2,,3
 2577              		.global	chvsnprintf
 2578              		.syntax unified
 2579              		.thumb
 2580              		.thumb_func
 2581              		.fpu fpv4-sp-d16
 2582              		.type	chvsnprintf, %function
 2583              	chvsnprintf:
 2584              	.LFB333:
 2585              		.loc 1 514 0
 2586              		.cfi_startproc
 2587              		@ args = 0, pretend = 0, frame = 24
 2588              		@ frame_needed = 0, uses_anonymous_args = 0
 2589              	.LVL404:
 2590 0000 F0B5     		push	{r4, r5, r6, r7, lr}
 2591              		.cfi_def_cfa_offset 20
 2592              		.cfi_offset 4, -20
 2593              		.cfi_offset 5, -16
 2594              		.cfi_offset 6, -12
 2595              		.cfi_offset 7, -8
 2596              		.cfi_offset 14, -4
 2597 0002 0546     		mov	r5, r0
 2598 0004 87B0     		sub	sp, sp, #28
 2599              		.cfi_def_cfa_offset 48
 2600              		.loc 1 514 0
 2601 0006 1646     		mov	r6, r2
 2602 0008 1F46     		mov	r7, r3
 2603              		.loc 1 520 0
 2604 000a 0C46     		mov	r4, r1
 2605 000c 89B1     		cbz	r1, .L378
 2606              	.LVL405:
 2607              		.loc 1 527 0
 2608 000e 0023     		movs	r3, #0
 2609              	.LVL406:
 2610 0010 4A1E     		subs	r2, r1, #1
 2611              	.LVL407:
 2612 0012 01A8     		add	r0, sp, #4
 2613              	.LVL408:
 2614 0014 2946     		mov	r1, r5
 2615              	.LVL409:
 2616 0016 FFF7FEFF 		bl	msObjectInit
 2617              	.LVL410:
 2618              		.loc 1 531 0
 2619 001a 3A46     		mov	r2, r7
 2620 001c 3146     		mov	r1, r6
 2621 001e 01A8     		add	r0, sp, #4
 2622              	.LVL411:
ARM GAS  /tmp/ccLxO412.s 			page 47


 2623 0020 FFF7FEFF 		bl	chvprintf
 2624              	.LVL412:
 2625              		.loc 1 534 0
 2626 0024 049B     		ldr	r3, [sp, #16]
 2627 0026 A342     		cmp	r3, r4
 2628 0028 01D2     		bcs	.L377
 2629              		.loc 1 536 0
 2630 002a 0022     		movs	r2, #0
 2631 002c EA54     		strb	r2, [r5, r3]
 2632              	.L377:
 2633              		.loc 1 541 0
 2634 002e 07B0     		add	sp, sp, #28
 2635              		.cfi_remember_state
 2636              		.cfi_def_cfa_offset 20
 2637              		@ sp needed
 2638 0030 F0BD     		pop	{r4, r5, r6, r7, pc}
 2639              	.LVL413:
 2640              	.L378:
 2641              		.cfi_restore_state
 2642              		.loc 1 527 0
 2643 0032 0146     		mov	r1, r0
 2644              	.LVL414:
 2645 0034 2346     		mov	r3, r4
 2646              	.LVL415:
 2647 0036 01A8     		add	r0, sp, #4
 2648              	.LVL416:
 2649 0038 2246     		mov	r2, r4
 2650              	.LVL417:
 2651 003a FFF7FEFF 		bl	msObjectInit
 2652              	.LVL418:
 2653              		.loc 1 531 0
 2654 003e 3A46     		mov	r2, r7
 2655 0040 3146     		mov	r1, r6
 2656 0042 01A8     		add	r0, sp, #4
 2657              	.LVL419:
 2658 0044 FFF7FEFF 		bl	chvprintf
 2659              	.LVL420:
 2660              		.loc 1 541 0
 2661 0048 07B0     		add	sp, sp, #28
 2662              		.cfi_def_cfa_offset 20
 2663              		@ sp needed
 2664 004a F0BD     		pop	{r4, r5, r6, r7, pc}
 2665              		.cfi_endproc
 2666              	.LFE333:
 2667              		.size	chvsnprintf, .-chvsnprintf
 2668              		.section	.bss.f.10683,"aw",%nobits
 2669              		.align	3
 2670              		.set	.LANCHOR1,. + 0
 2671              		.type	f.10683, %object
 2672              		.size	f.10683, 8
 2673              	f.10683:
 2674 0000 00000000 		.space	8
 2674      00000000 
 2675              		.section	.rodata.chvprintf.str1.4,"aMS",%progbits,1
 2676              		.align	2
 2677              	.LC0:
 2678 0000 286E756C 		.ascii	"(null)\000"
ARM GAS  /tmp/ccLxO412.s 			page 48


 2678      6C2900
 2679              		.section	.rodata.pow10,"a",%progbits
 2680              		.align	2
 2681              		.set	.LANCHOR0,. + 0
 2682              		.type	pow10, %object
 2683              		.size	pow10, 36
 2684              	pow10:
 2685 0000 0A000000 		.word	10
 2686 0004 64000000 		.word	100
 2687 0008 E8030000 		.word	1000
 2688 000c 10270000 		.word	10000
 2689 0010 A0860100 		.word	100000
 2690 0014 40420F00 		.word	1000000
 2691 0018 80969800 		.word	10000000
 2692 001c 00E1F505 		.word	100000000
 2693 0020 00CA9A3B 		.word	1000000000
 2694              		.text
 2695              	.Letext0:
 2696              		.file 2 "/usr/lib/gcc/arm-none-eabi/7.3.1/include/stddef.h"
 2697              		.file 3 "/usr/arm-none-eabi/include/machine/_default_types.h"
 2698              		.file 4 "/usr/arm-none-eabi/include/sys/_stdint.h"
 2699              		.file 5 "./RM18A-ChibiOS18-Core/chibios/os/common/ports/ARMCMx/compilers/GCC/chtypes.h"
 2700              		.file 6 "./RM18A-ChibiOS18-Core/chibios/os/rt/include/chsystypes.h"
 2701              		.file 7 "./RM18A-ChibiOS18-Core/chibios/os/rt/include/chschd.h"
 2702              		.file 8 "./RM18A-ChibiOS18-Core/chibios/os/rt/include/chtime.h"
 2703              		.file 9 "./RM18A-ChibiOS18-Core/chibios/os/common/ext/ARM/CMSIS/Core/Include/core_cm4.h"
 2704              		.file 10 "./RM18A-ChibiOS18-Core/chibios/os/common/ext/ST/STM32F4xx/system_stm32f4xx.h"
 2705              		.file 11 "./RM18A-ChibiOS18-Core/chibios/os/common/ext/ST/STM32F4xx/stm32f427xx.h"
 2706              		.file 12 "./RM18A-ChibiOS18-Core/chibios/os/common/ports/ARMCMx/chcore.h"
 2707              		.file 13 "./RM18A-ChibiOS18-Core/chibios/os/common/ports/ARMCMx/chcore_v7m.h"
 2708              		.file 14 "./RM18A-ChibiOS18-Core/chibios/os/hal/ports/STM32/LLD/TIMv1/stm32_tim.h"
 2709              		.file 15 "./RM18A-ChibiOS18-Core/chibios/os/rt/include/chtm.h"
 2710              		.file 16 "./RM18A-ChibiOS18-Core/chibios/os/rt/include/chsem.h"
 2711              		.file 17 "./RM18A-ChibiOS18-Core/chibios/os/rt/include/chmtx.h"
 2712              		.file 18 "./RM18A-ChibiOS18-Core/chibios/os/rt/include/chsys.h"
 2713              		.file 19 "./RM18A-ChibiOS18-Core/chibios/os/rt/include/chregistry.h"
 2714              		.file 20 "./RM18A-ChibiOS18-Core/chibios/os/rt/include/chevents.h"
 2715              		.file 21 "./RM18A-ChibiOS18-Core/chibios/os/oslib/include/chmemcore.h"
 2716              		.file 22 "./RM18A-ChibiOS18-Core/chibios/os/oslib/include/chmempools.h"
 2717              		.file 23 "./RM18A-ChibiOS18-Core/chibios/os/oslib/include/chfactory.h"
 2718              		.file 24 "./RM18A-ChibiOS18-Core/chibios/os/hal/ports/STM32/LLD/DMAv2/stm32_dma.h"
 2719              		.file 25 "./RM18A-ChibiOS18-Core/chibios/os/hal/include/hal_streams.h"
 2720              		.file 26 "./RM18A-ChibiOS18-Core/chibios/os/hal/include/hal_queues.h"
 2721              		.file 27 "./RM18A-ChibiOS18-Core/chibios/os/hal/include/hal_pal.h"
 2722              		.file 28 "./RM18A-ChibiOS18-Core/chibios/os/hal/ports/STM32/LLD/GPIOv2/hal_pal_lld.h"
 2723              		.file 29 "./RM18A-ChibiOS18-Core/chibios/os/hal/include/hal_adc.h"
 2724              		.file 30 "./RM18A-ChibiOS18-Core/chibios/os/hal/ports/STM32/LLD/ADCv2/hal_adc_lld.h"
 2725              		.file 31 "./RM18A-ChibiOS18-Core/chibios/os/hal/include/hal_can.h"
 2726              		.file 32 "./RM18A-ChibiOS18-Core/chibios/os/hal/ports/STM32/LLD/CANv1/hal_can_lld.h"
 2727              		.file 33 "./RM18A-ChibiOS18-Core/chibios/os/hal/include/hal_i2c.h"
 2728              		.file 34 "./RM18A-ChibiOS18-Core/chibios/os/hal/ports/STM32/LLD/I2Cv1/hal_i2c_lld.h"
 2729              		.file 35 "./RM18A-ChibiOS18-Core/chibios/os/hal/include/hal_pwm.h"
 2730              		.file 36 "./RM18A-ChibiOS18-Core/chibios/os/hal/ports/STM32/LLD/TIMv1/hal_pwm_lld.h"
 2731              		.file 37 "./RM18A-ChibiOS18-Core/chibios/os/hal/include/hal_serial.h"
 2732              		.file 38 "./RM18A-ChibiOS18-Core/chibios/os/hal/ports/STM32/LLD/USARTv1/hal_serial_lld.h"
 2733              		.file 39 "./RM18A-ChibiOS18-Core/chibios/os/hal/include/hal_spi.h"
 2734              		.file 40 "./RM18A-ChibiOS18-Core/chibios/os/hal/ports/STM32/LLD/SPIv1/hal_spi_lld.h"
ARM GAS  /tmp/ccLxO412.s 			page 49


 2735              		.file 41 "./RM18A-ChibiOS18-Core/chibios/os/hal/include/hal_uart.h"
 2736              		.file 42 "./RM18A-ChibiOS18-Core/chibios/os/hal/ports/STM32/LLD/USARTv1/hal_uart_lld.h"
 2737              		.file 43 "./RM18A-ChibiOS18-Core/chibios/os/hal/include/hal_usb.h"
 2738              		.file 44 "./RM18A-ChibiOS18-Core/chibios/os/hal/ports/STM32/LLD/OTGv1/hal_usb_lld.h"
 2739              		.file 45 "./RM18A-ChibiOS18-Core/chibios/os/hal/ports/STM32/LLD/OTGv1/stm32_otg.h"
 2740              		.file 46 "/usr/lib/gcc/arm-none-eabi/7.3.1/include/stdarg.h"
 2741              		.file 47 "<built-in>"
 2742              		.file 48 "./RM18A-ChibiOS18-Core/chibios/os/hal/lib/streams/memstreams.h"
 2743              		.file 49 "/usr/arm-none-eabi/include/sys/lock.h"
 2744              		.file 50 "/usr/arm-none-eabi/include/sys/_types.h"
 2745              		.file 51 "/usr/arm-none-eabi/include/sys/reent.h"