ARM GAS  /tmp/cctdBWgX.s 			page 1


   1              		.cpu cortex-m4
   2              		.eabi_attribute 27, 1
   3              		.eabi_attribute 28, 1
   4              		.eabi_attribute 20, 1
   5              		.eabi_attribute 21, 1
   6              		.eabi_attribute 23, 3
   7              		.eabi_attribute 24, 1
   8              		.eabi_attribute 25, 1
   9              		.eabi_attribute 26, 1
  10              		.eabi_attribute 30, 2
  11              		.eabi_attribute 34, 1
  12              		.eabi_attribute 18, 4
  13              		.file	"chregistry.c"
  14              		.text
  15              	.Ltext0:
  16              		.cfi_sections	.debug_frame
  17              		.section	.text.chRegFirstThread,"ax",%progbits
  18              		.align	1
  19              		.p2align 2,,3
  20              		.global	chRegFirstThread
  21              		.syntax unified
  22              		.thumb
  23              		.thumb_func
  24              		.fpu fpv4-sp-d16
  25              		.type	chRegFirstThread, %function
  26              	chRegFirstThread:
  27              	.LFB294:
  28              		.file 1 "./RM18A-ChibiOS18-Core/chibios/os/rt/src/chregistry.c"
  29              		.loc 1 134 0
  30              		.cfi_startproc
  31              		@ args = 0, pretend = 0, frame = 0
  32              		@ frame_needed = 0, uses_anonymous_args = 0
  33              		@ link register save eliminated.
  34              	.LVL0:
  35              	.LBB104:
  36              	.LBB105:
  37              	.LBB106:
  38              	.LBB107:
  39              		.file 2 "./RM18A-ChibiOS18-Core/chibios/os/common/ext/ARM/CMSIS/Core/Include/cmsis_gcc.h"
  40              		.loc 2 493 0
  41 0000 2023     		movs	r3, #32
  42              		.syntax unified
  43              	@ 493 "./RM18A-ChibiOS18-Core/chibios/os/common/ext/ARM/CMSIS/Core/Include/cmsis_gcc.h" 1
  44 0002 83F31188 		MSR basepri, r3
  45              	@ 0 "" 2
  46              	.LVL1:
  47              		.thumb
  48              		.syntax unified
  49              	.LBE107:
  50              	.LBE106:
  51              	.LBE105:
  52              	.LBE104:
  53              		.loc 1 138 0
  54 0006 054B     		ldr	r3, .L3
  55 0008 1869     		ldr	r0, [r3, #16]
  56              	.LVL2:
  57              		.loc 1 140 0
ARM GAS  /tmp/cctdBWgX.s 			page 2


  58 000a 90F82230 		ldrb	r3, [r0, #34]	@ zero_extendqisi2
  59 000e 0133     		adds	r3, r3, #1
  60 0010 80F82230 		strb	r3, [r0, #34]
  61              	.LVL3:
  62              	.LBB108:
  63              	.LBB109:
  64              	.LBB110:
  65              	.LBB111:
  66              	.LBB112:
  67              		.loc 2 493 0
  68 0014 0023     		movs	r3, #0
  69              		.syntax unified
  70              	@ 493 "./RM18A-ChibiOS18-Core/chibios/os/common/ext/ARM/CMSIS/Core/Include/cmsis_gcc.h" 1
  71 0016 83F31188 		MSR basepri, r3
  72              	@ 0 "" 2
  73              	.LVL4:
  74              		.thumb
  75              		.syntax unified
  76              	.LBE112:
  77              	.LBE111:
  78              	.LBE110:
  79              	.LBE109:
  80              	.LBE108:
  81              		.loc 1 145 0
  82 001a 7047     		bx	lr
  83              	.L4:
  84              		.align	2
  85              	.L3:
  86 001c 00000000 		.word	ch
  87              		.cfi_endproc
  88              	.LFE294:
  89              		.size	chRegFirstThread, .-chRegFirstThread
  90              		.section	.text.chRegNextThread,"ax",%progbits
  91              		.align	1
  92              		.p2align 2,,3
  93              		.global	chRegNextThread
  94              		.syntax unified
  95              		.thumb
  96              		.thumb_func
  97              		.fpu fpv4-sp-d16
  98              		.type	chRegNextThread, %function
  99              	chRegNextThread:
 100              	.LFB295:
 101              		.loc 1 158 0
 102              		.cfi_startproc
 103              		@ args = 0, pretend = 0, frame = 0
 104              		@ frame_needed = 0, uses_anonymous_args = 0
 105              	.LVL5:
 106 0000 10B5     		push	{r4, lr}
 107              		.cfi_def_cfa_offset 8
 108              		.cfi_offset 4, -8
 109              		.cfi_offset 14, -4
 110              	.LBB113:
 111              	.LBB114:
 112              	.LBB115:
 113              	.LBB116:
 114              		.loc 2 493 0
ARM GAS  /tmp/cctdBWgX.s 			page 3


 115 0002 2023     		movs	r3, #32
 116              		.syntax unified
 117              	@ 493 "./RM18A-ChibiOS18-Core/chibios/os/common/ext/ARM/CMSIS/Core/Include/cmsis_gcc.h" 1
 118 0004 83F31188 		MSR basepri, r3
 119              	@ 0 "" 2
 120              	.LVL6:
 121              		.thumb
 122              		.syntax unified
 123              	.LBE116:
 124              	.LBE115:
 125              	.LBE114:
 126              	.LBE113:
 127              		.loc 1 164 0
 128 0008 084B     		ldr	r3, .L9
 129              		.loc 1 162 0
 130 000a 0469     		ldr	r4, [r0, #16]
 131              	.LVL7:
 132              		.loc 1 164 0
 133 000c 9C42     		cmp	r4, r3
 134              		.loc 1 171 0
 135 000e 1DBF     		ittte	ne
 136 0010 94F82230 		ldrbne	r3, [r4, #34]	@ zero_extendqisi2
 137 0014 0133     		addne	r3, r3, #1
 138 0016 84F82230 		strbne	r3, [r4, #34]
 139              		.loc 1 166 0
 140 001a 0024     		moveq	r4, #0
 141              	.LVL8:
 142              	.LBB117:
 143              	.LBB118:
 144              	.LBB119:
 145              	.LBB120:
 146              	.LBB121:
 147              		.loc 2 493 0
 148 001c 0023     		movs	r3, #0
 149              		.syntax unified
 150              	@ 493 "./RM18A-ChibiOS18-Core/chibios/os/common/ext/ARM/CMSIS/Core/Include/cmsis_gcc.h" 1
 151 001e 83F31188 		MSR basepri, r3
 152              	@ 0 "" 2
 153              	.LVL9:
 154              		.thumb
 155              		.syntax unified
 156              	.LBE121:
 157              	.LBE120:
 158              	.LBE119:
 159              	.LBE118:
 160              	.LBE117:
 161              		.loc 1 176 0
 162 0022 FFF7FEFF 		bl	chThdRelease
 163              	.LVL10:
 164              		.loc 1 180 0
 165 0026 2046     		mov	r0, r4
 166 0028 10BD     		pop	{r4, pc}
 167              	.LVL11:
 168              	.L10:
 169 002a 00BF     		.align	2
 170              	.L9:
 171 002c 00000000 		.word	ch
ARM GAS  /tmp/cctdBWgX.s 			page 4


 172              		.cfi_endproc
 173              	.LFE295:
 174              		.size	chRegNextThread, .-chRegNextThread
 175              		.section	.text.chRegFindThreadByName,"ax",%progbits
 176              		.align	1
 177              		.p2align 2,,3
 178              		.global	chRegFindThreadByName
 179              		.syntax unified
 180              		.thumb
 181              		.thumb_func
 182              		.fpu fpv4-sp-d16
 183              		.type	chRegFindThreadByName, %function
 184              	chRegFindThreadByName:
 185              	.LFB296:
 186              		.loc 1 194 0
 187              		.cfi_startproc
 188              		@ args = 0, pretend = 0, frame = 0
 189              		@ frame_needed = 0, uses_anonymous_args = 0
 190              	.LVL12:
 191 0000 2DE9F843 		push	{r3, r4, r5, r6, r7, r8, r9, lr}
 192              		.cfi_def_cfa_offset 32
 193              		.cfi_offset 3, -32
 194              		.cfi_offset 4, -28
 195              		.cfi_offset 5, -24
 196              		.cfi_offset 6, -20
 197              		.cfi_offset 7, -16
 198              		.cfi_offset 8, -12
 199              		.cfi_offset 9, -8
 200              		.cfi_offset 14, -4
 201              		.loc 1 194 0
 202 0004 8146     		mov	r9, r0
 203              	.LBB122:
 204              	.LBB123:
 205              	.LBB124:
 206              	.LBB125:
 207              	.LBB126:
 208              	.LBB127:
 209              		.loc 2 493 0
 210 0006 2026     		movs	r6, #32
 211              		.syntax unified
 212              	@ 493 "./RM18A-ChibiOS18-Core/chibios/os/common/ext/ARM/CMSIS/Core/Include/cmsis_gcc.h" 1
 213 0008 86F31188 		MSR basepri, r6
 214              	@ 0 "" 2
 215              	.LVL13:
 216              		.thumb
 217              		.syntax unified
 218              	.LBE127:
 219              	.LBE126:
 220              	.LBE125:
 221              	.LBE124:
 222              		.loc 1 138 0
 223 000c DFF86480 		ldr	r8, .L21
 224 0010 D8F81040 		ldr	r4, [r8, #16]
 225              	.LVL14:
 226              		.loc 1 140 0
 227 0014 94F82230 		ldrb	r3, [r4, #34]	@ zero_extendqisi2
 228 0018 0133     		adds	r3, r3, #1
ARM GAS  /tmp/cctdBWgX.s 			page 5


 229 001a 84F82230 		strb	r3, [r4, #34]
 230              	.LVL15:
 231              	.LBB128:
 232              	.LBB129:
 233              	.LBB130:
 234              	.LBB131:
 235              	.LBB132:
 236              		.loc 2 493 0
 237 001e 0027     		movs	r7, #0
 238              		.syntax unified
 239              	@ 493 "./RM18A-ChibiOS18-Core/chibios/os/common/ext/ARM/CMSIS/Core/Include/cmsis_gcc.h" 1
 240 0020 87F31188 		MSR basepri, r7
 241              	@ 0 "" 2
 242              	.LVL16:
 243              		.thumb
 244              		.syntax unified
 245              	.LBE132:
 246              	.LBE131:
 247              	.LBE130:
 248              	.LBE129:
 249              	.LBE128:
 250              	.LBE123:
 251              	.LBE122:
 252              		.loc 1 200 0
 253 0024 4946     		mov	r1, r9
 254 0026 A069     		ldr	r0, [r4, #24]
 255              	.LVL17:
 256 0028 FFF7FEFF 		bl	strcmp
 257              	.LVL18:
 258 002c A8B1     		cbz	r0, .L11
 259              	.L20:
 260              	.LBB133:
 261              	.LBB134:
 262              	.LBB135:
 263              	.LBB136:
 264              	.LBB137:
 265              	.LBB138:
 266              		.loc 2 493 0
 267              		.syntax unified
 268              	@ 493 "./RM18A-ChibiOS18-Core/chibios/os/common/ext/ARM/CMSIS/Core/Include/cmsis_gcc.h" 1
 269 002e 86F31188 		MSR basepri, r6
 270              	@ 0 "" 2
 271              	.LVL19:
 272              		.thumb
 273              		.syntax unified
 274              	.LBE138:
 275              	.LBE137:
 276              	.LBE136:
 277              	.LBE135:
 278              		.loc 1 162 0
 279 0032 2569     		ldr	r5, [r4, #16]
 280              	.LVL20:
 281              		.loc 1 164 0
 282 0034 4545     		cmp	r5, r8
 283 0036 13D0     		beq	.L19
 284              		.loc 1 171 0
 285 0038 95F82230 		ldrb	r3, [r5, #34]	@ zero_extendqisi2
ARM GAS  /tmp/cctdBWgX.s 			page 6


 286 003c 0133     		adds	r3, r3, #1
 287 003e 85F82230 		strb	r3, [r5, #34]
 288              	.LVL21:
 289              	.LBB139:
 290              	.LBB140:
 291              	.LBB141:
 292              	.LBB142:
 293              	.LBB143:
 294              		.loc 2 493 0
 295              		.syntax unified
 296              	@ 493 "./RM18A-ChibiOS18-Core/chibios/os/common/ext/ARM/CMSIS/Core/Include/cmsis_gcc.h" 1
 297 0042 87F31188 		MSR basepri, r7
 298              	@ 0 "" 2
 299              	.LVL22:
 300              		.thumb
 301              		.syntax unified
 302              	.LBE143:
 303              	.LBE142:
 304              	.LBE141:
 305              	.LBE140:
 306              	.LBE139:
 307              		.loc 1 176 0
 308 0046 2046     		mov	r0, r4
 309 0048 2C46     		mov	r4, r5
 310              	.LVL23:
 311 004a FFF7FEFF 		bl	chThdRelease
 312              	.LVL24:
 313              	.LBE134:
 314              	.LBE133:
 315              		.loc 1 200 0
 316 004e 4946     		mov	r1, r9
 317 0050 A069     		ldr	r0, [r4, #24]
 318 0052 FFF7FEFF 		bl	strcmp
 319              	.LVL25:
 320 0056 0028     		cmp	r0, #0
 321 0058 E9D1     		bne	.L20
 322              	.LVL26:
 323              	.L11:
 324              		.loc 1 207 0
 325 005a 2046     		mov	r0, r4
 326 005c BDE8F883 		pop	{r3, r4, r5, r6, r7, r8, r9, pc}
 327              	.LVL27:
 328              	.L19:
 329              	.LBB151:
 330              	.LBB149:
 331              	.LBB148:
 332              	.LBB147:
 333              	.LBB146:
 334              	.LBB145:
 335              	.LBB144:
 336              		.loc 2 493 0
 337 0060 0025     		movs	r5, #0
 338              		.syntax unified
 339              	@ 493 "./RM18A-ChibiOS18-Core/chibios/os/common/ext/ARM/CMSIS/Core/Include/cmsis_gcc.h" 1
 340 0062 85F31188 		MSR basepri, r5
 341              	@ 0 "" 2
 342              	.LVL28:
ARM GAS  /tmp/cctdBWgX.s 			page 7


 343              		.thumb
 344              		.syntax unified
 345              	.LBE144:
 346              	.LBE145:
 347              	.LBE146:
 348              	.LBE147:
 349              	.LBE148:
 350              		.loc 1 176 0
 351 0066 2046     		mov	r0, r4
 352              	.LBE149:
 353              	.LBE151:
 354              		.loc 1 206 0
 355 0068 2C46     		mov	r4, r5
 356              	.LVL29:
 357              	.LBB152:
 358              	.LBB150:
 359              		.loc 1 176 0
 360 006a FFF7FEFF 		bl	chThdRelease
 361              	.LVL30:
 362              	.LBE150:
 363              	.LBE152:
 364              		.loc 1 207 0
 365 006e 2046     		mov	r0, r4
 366 0070 BDE8F883 		pop	{r3, r4, r5, r6, r7, r8, r9, pc}
 367              	.LVL31:
 368              	.L22:
 369              		.align	2
 370              	.L21:
 371 0074 00000000 		.word	ch
 372              		.cfi_endproc
 373              	.LFE296:
 374              		.size	chRegFindThreadByName, .-chRegFindThreadByName
 375              		.section	.text.chRegFindThreadByPointer,"ax",%progbits
 376              		.align	1
 377              		.p2align 2,,3
 378              		.global	chRegFindThreadByPointer
 379              		.syntax unified
 380              		.thumb
 381              		.thumb_func
 382              		.fpu fpv4-sp-d16
 383              		.type	chRegFindThreadByPointer, %function
 384              	chRegFindThreadByPointer:
 385              	.LFB297:
 386              		.loc 1 221 0
 387              		.cfi_startproc
 388              		@ args = 0, pretend = 0, frame = 0
 389              		@ frame_needed = 0, uses_anonymous_args = 0
 390              	.LVL32:
 391 0000 2DE9F041 		push	{r4, r5, r6, r7, r8, lr}
 392              		.cfi_def_cfa_offset 24
 393              		.cfi_offset 4, -24
 394              		.cfi_offset 5, -20
 395              		.cfi_offset 6, -16
 396              		.cfi_offset 7, -12
 397              		.cfi_offset 8, -8
 398              		.cfi_offset 14, -4
 399              		.loc 1 221 0
ARM GAS  /tmp/cctdBWgX.s 			page 8


 400 0004 0546     		mov	r5, r0
 401              	.LBB153:
 402              	.LBB154:
 403              	.LBB155:
 404              	.LBB156:
 405              	.LBB157:
 406              	.LBB158:
 407              		.loc 2 493 0
 408 0006 2026     		movs	r6, #32
 409              		.syntax unified
 410              	@ 493 "./RM18A-ChibiOS18-Core/chibios/os/common/ext/ARM/CMSIS/Core/Include/cmsis_gcc.h" 1
 411 0008 86F31188 		MSR basepri, r6
 412              	@ 0 "" 2
 413              	.LVL33:
 414              		.thumb
 415              		.syntax unified
 416              	.LBE158:
 417              	.LBE157:
 418              	.LBE156:
 419              	.LBE155:
 420              		.loc 1 138 0
 421 000c DFF86480 		ldr	r8, .L32
 422 0010 D8F81000 		ldr	r0, [r8, #16]
 423              	.LVL34:
 424              		.loc 1 140 0
 425 0014 90F82230 		ldrb	r3, [r0, #34]	@ zero_extendqisi2
 426 0018 0133     		adds	r3, r3, #1
 427 001a 80F82230 		strb	r3, [r0, #34]
 428              	.LVL35:
 429              	.LBB159:
 430              	.LBB160:
 431              	.LBB161:
 432              	.LBB162:
 433              	.LBB163:
 434              		.loc 2 493 0
 435 001e 0027     		movs	r7, #0
 436              		.syntax unified
 437              	@ 493 "./RM18A-ChibiOS18-Core/chibios/os/common/ext/ARM/CMSIS/Core/Include/cmsis_gcc.h" 1
 438 0020 87F31188 		MSR basepri, r7
 439              	@ 0 "" 2
 440              	.LVL36:
 441              		.thumb
 442              		.syntax unified
 443              	.LBE163:
 444              	.LBE162:
 445              	.LBE161:
 446              	.LBE160:
 447              	.LBE159:
 448              	.LBE154:
 449              	.LBE153:
 450              		.loc 1 227 0
 451 0024 8542     		cmp	r5, r0
 452 0026 1FD0     		beq	.L23
 453              	.LVL37:
 454              	.LBB164:
 455              	.LBB165:
 456              	.LBB166:
ARM GAS  /tmp/cctdBWgX.s 			page 9


 457              	.LBB167:
 458              	.LBB168:
 459              	.LBB169:
 460              		.loc 2 493 0
 461              		.syntax unified
 462              	@ 493 "./RM18A-ChibiOS18-Core/chibios/os/common/ext/ARM/CMSIS/Core/Include/cmsis_gcc.h" 1
 463 0028 86F31188 		MSR basepri, r6
 464              	@ 0 "" 2
 465              	.LVL38:
 466              		.thumb
 467              		.syntax unified
 468              	.LBE169:
 469              	.LBE168:
 470              	.LBE167:
 471              	.LBE166:
 472              		.loc 1 162 0
 473 002c 0469     		ldr	r4, [r0, #16]
 474              	.LVL39:
 475              		.loc 1 164 0
 476 002e 4445     		cmp	r4, r8
 477 0030 12D0     		beq	.L28
 478              	.LVL40:
 479              	.L26:
 480              		.loc 1 171 0
 481 0032 94F82230 		ldrb	r3, [r4, #34]	@ zero_extendqisi2
 482 0036 0133     		adds	r3, r3, #1
 483 0038 84F82230 		strb	r3, [r4, #34]
 484              	.LVL41:
 485              	.LBB173:
 486              	.LBB174:
 487              	.LBB175:
 488              	.LBB176:
 489              	.LBB177:
 490              		.loc 2 493 0
 491              		.syntax unified
 492              	@ 493 "./RM18A-ChibiOS18-Core/chibios/os/common/ext/ARM/CMSIS/Core/Include/cmsis_gcc.h" 1
 493 003c 87F31188 		MSR basepri, r7
 494              	@ 0 "" 2
 495              	.LVL42:
 496              		.thumb
 497              		.syntax unified
 498              	.LBE177:
 499              	.LBE176:
 500              	.LBE175:
 501              	.LBE174:
 502              	.LBE173:
 503              		.loc 1 176 0
 504 0040 FFF7FEFF 		bl	chThdRelease
 505              	.LVL43:
 506              	.LBE165:
 507              	.LBE164:
 508              		.loc 1 227 0
 509 0044 A542     		cmp	r5, r4
 510 0046 11D0     		beq	.L31
 511              	.LBB185:
 512              	.LBB184:
 513              	.LBB182:
ARM GAS  /tmp/cctdBWgX.s 			page 10


 514              	.LBB172:
 515              	.LBB171:
 516              	.LBB170:
 517              		.loc 2 493 0
 518              		.syntax unified
 519              	@ 493 "./RM18A-ChibiOS18-Core/chibios/os/common/ext/ARM/CMSIS/Core/Include/cmsis_gcc.h" 1
 520 0048 86F31188 		MSR basepri, r6
 521              	@ 0 "" 2
 522              	.LVL44:
 523              		.thumb
 524              		.syntax unified
 525              	.LBE170:
 526              	.LBE171:
 527              	.LBE172:
 528              	.LBE182:
 529              		.loc 1 162 0
 530 004c 2369     		ldr	r3, [r4, #16]
 531              	.LVL45:
 532              		.loc 1 164 0
 533 004e 4345     		cmp	r3, r8
 534 0050 2046     		mov	r0, r4
 535 0052 02D0     		beq	.L25
 536 0054 1C46     		mov	r4, r3
 537              	.LVL46:
 538 0056 ECE7     		b	.L26
 539              	.LVL47:
 540              	.L28:
 541 0058 0446     		mov	r4, r0
 542              	.LVL48:
 543              	.L25:
 544              	.LBB183:
 545              	.LBB181:
 546              	.LBB180:
 547              	.LBB179:
 548              	.LBB178:
 549              		.loc 2 493 0
 550 005a 0025     		movs	r5, #0
 551              	.LVL49:
 552              		.syntax unified
 553              	@ 493 "./RM18A-ChibiOS18-Core/chibios/os/common/ext/ARM/CMSIS/Core/Include/cmsis_gcc.h" 1
 554 005c 85F31188 		MSR basepri, r5
 555              	@ 0 "" 2
 556              	.LVL50:
 557              		.thumb
 558              		.syntax unified
 559              	.LBE178:
 560              	.LBE179:
 561              	.LBE180:
 562              	.LBE181:
 563              	.LBE183:
 564              		.loc 1 176 0
 565 0060 2046     		mov	r0, r4
 566              	.LVL51:
 567 0062 FFF7FEFF 		bl	chThdRelease
 568              	.LVL52:
 569              	.LBE184:
 570              	.LBE185:
ARM GAS  /tmp/cctdBWgX.s 			page 11


 571              		.loc 1 233 0
 572 0066 2846     		mov	r0, r5
 573              	.L23:
 574              		.loc 1 234 0
 575 0068 BDE8F081 		pop	{r4, r5, r6, r7, r8, pc}
 576              	.LVL53:
 577              	.L31:
 578 006c 2846     		mov	r0, r5
 579 006e BDE8F081 		pop	{r4, r5, r6, r7, r8, pc}
 580              	.LVL54:
 581              	.L33:
 582 0072 00BF     		.align	2
 583              	.L32:
 584 0074 00000000 		.word	ch
 585              		.cfi_endproc
 586              	.LFE297:
 587              		.size	chRegFindThreadByPointer, .-chRegFindThreadByPointer
 588              		.section	.text.chRegFindThreadByWorkingArea,"ax",%progbits
 589              		.align	1
 590              		.p2align 2,,3
 591              		.global	chRegFindThreadByWorkingArea
 592              		.syntax unified
 593              		.thumb
 594              		.thumb_func
 595              		.fpu fpv4-sp-d16
 596              		.type	chRegFindThreadByWorkingArea, %function
 597              	chRegFindThreadByWorkingArea:
 598              	.LFB298:
 599              		.loc 1 250 0
 600              		.cfi_startproc
 601              		@ args = 0, pretend = 0, frame = 0
 602              		@ frame_needed = 0, uses_anonymous_args = 0
 603              	.LVL55:
 604 0000 2DE9F041 		push	{r4, r5, r6, r7, r8, lr}
 605              		.cfi_def_cfa_offset 24
 606              		.cfi_offset 4, -24
 607              		.cfi_offset 5, -20
 608              		.cfi_offset 6, -16
 609              		.cfi_offset 7, -12
 610              		.cfi_offset 8, -8
 611              		.cfi_offset 14, -4
 612              		.loc 1 250 0
 613 0004 0646     		mov	r6, r0
 614              	.LBB186:
 615              	.LBB187:
 616              	.LBB188:
 617              	.LBB189:
 618              	.LBB190:
 619              	.LBB191:
 620              		.loc 2 493 0
 621 0006 2025     		movs	r5, #32
 622              		.syntax unified
 623              	@ 493 "./RM18A-ChibiOS18-Core/chibios/os/common/ext/ARM/CMSIS/Core/Include/cmsis_gcc.h" 1
 624 0008 85F31188 		MSR basepri, r5
 625              	@ 0 "" 2
 626              	.LVL56:
 627              		.thumb
ARM GAS  /tmp/cctdBWgX.s 			page 12


 628              		.syntax unified
 629              	.LBE191:
 630              	.LBE190:
 631              	.LBE189:
 632              	.LBE188:
 633              		.loc 1 138 0
 634 000c DFF86880 		ldr	r8, .L43
 635 0010 D8F81000 		ldr	r0, [r8, #16]
 636              	.LVL57:
 637              		.loc 1 140 0
 638 0014 90F82230 		ldrb	r3, [r0, #34]	@ zero_extendqisi2
 639 0018 0133     		adds	r3, r3, #1
 640 001a 80F82230 		strb	r3, [r0, #34]
 641              	.LVL58:
 642              	.LBB192:
 643              	.LBB193:
 644              	.LBB194:
 645              	.LBB195:
 646              	.LBB196:
 647              		.loc 2 493 0
 648 001e 0027     		movs	r7, #0
 649              		.syntax unified
 650              	@ 493 "./RM18A-ChibiOS18-Core/chibios/os/common/ext/ARM/CMSIS/Core/Include/cmsis_gcc.h" 1
 651 0020 87F31188 		MSR basepri, r7
 652              	@ 0 "" 2
 653              	.LVL59:
 654              		.thumb
 655              		.syntax unified
 656              	.LBE196:
 657              	.LBE195:
 658              	.LBE194:
 659              	.LBE193:
 660              	.LBE192:
 661              	.LBE187:
 662              	.LBE186:
 663              		.loc 1 256 0
 664 0024 C369     		ldr	r3, [r0, #28]
 665 0026 9E42     		cmp	r6, r3
 666 0028 23D0     		beq	.L39
 667              	.LVL60:
 668              	.LBB197:
 669              	.LBB198:
 670              	.LBB199:
 671              	.LBB200:
 672              	.LBB201:
 673              	.LBB202:
 674              		.loc 2 493 0
 675              		.syntax unified
 676              	@ 493 "./RM18A-ChibiOS18-Core/chibios/os/common/ext/ARM/CMSIS/Core/Include/cmsis_gcc.h" 1
 677 002a 85F31188 		MSR basepri, r5
 678              	@ 0 "" 2
 679              	.LVL61:
 680              		.thumb
 681              		.syntax unified
 682              	.LBE202:
 683              	.LBE201:
 684              	.LBE200:
ARM GAS  /tmp/cctdBWgX.s 			page 13


 685              	.LBE199:
 686              		.loc 1 162 0
 687 002e 0469     		ldr	r4, [r0, #16]
 688              	.LVL62:
 689              		.loc 1 164 0
 690 0030 4445     		cmp	r4, r8
 691 0032 13D0     		beq	.L40
 692              	.LVL63:
 693              	.L37:
 694              		.loc 1 171 0
 695 0034 94F82230 		ldrb	r3, [r4, #34]	@ zero_extendqisi2
 696 0038 0133     		adds	r3, r3, #1
 697 003a 84F82230 		strb	r3, [r4, #34]
 698              	.LVL64:
 699              	.LBB206:
 700              	.LBB207:
 701              	.LBB208:
 702              	.LBB209:
 703              	.LBB210:
 704              		.loc 2 493 0
 705              		.syntax unified
 706              	@ 493 "./RM18A-ChibiOS18-Core/chibios/os/common/ext/ARM/CMSIS/Core/Include/cmsis_gcc.h" 1
 707 003e 87F31188 		MSR basepri, r7
 708              	@ 0 "" 2
 709              	.LVL65:
 710              		.thumb
 711              		.syntax unified
 712              	.LBE210:
 713              	.LBE209:
 714              	.LBE208:
 715              	.LBE207:
 716              	.LBE206:
 717              		.loc 1 176 0
 718 0042 FFF7FEFF 		bl	chThdRelease
 719              	.LVL66:
 720              	.LBE198:
 721              	.LBE197:
 722              		.loc 1 256 0
 723 0046 E369     		ldr	r3, [r4, #28]
 724 0048 9E42     		cmp	r6, r3
 725 004a 0FD0     		beq	.L34
 726              	.LBB218:
 727              	.LBB217:
 728              	.LBB215:
 729              	.LBB205:
 730              	.LBB204:
 731              	.LBB203:
 732              		.loc 2 493 0
 733              		.syntax unified
 734              	@ 493 "./RM18A-ChibiOS18-Core/chibios/os/common/ext/ARM/CMSIS/Core/Include/cmsis_gcc.h" 1
 735 004c 85F31188 		MSR basepri, r5
 736              	@ 0 "" 2
 737              	.LVL67:
 738              		.thumb
 739              		.syntax unified
 740              	.LBE203:
 741              	.LBE204:
ARM GAS  /tmp/cctdBWgX.s 			page 14


 742              	.LBE205:
 743              	.LBE215:
 744              		.loc 1 162 0
 745 0050 2369     		ldr	r3, [r4, #16]
 746              	.LVL68:
 747              		.loc 1 164 0
 748 0052 4345     		cmp	r3, r8
 749 0054 2046     		mov	r0, r4
 750 0056 02D0     		beq	.L36
 751 0058 1C46     		mov	r4, r3
 752              	.LVL69:
 753 005a EBE7     		b	.L37
 754              	.LVL70:
 755              	.L40:
 756 005c 0446     		mov	r4, r0
 757              	.LVL71:
 758              	.L36:
 759              	.LBB216:
 760              	.LBB214:
 761              	.LBB213:
 762              	.LBB212:
 763              	.LBB211:
 764              		.loc 2 493 0
 765 005e 0025     		movs	r5, #0
 766              		.syntax unified
 767              	@ 493 "./RM18A-ChibiOS18-Core/chibios/os/common/ext/ARM/CMSIS/Core/Include/cmsis_gcc.h" 1
 768 0060 85F31188 		MSR basepri, r5
 769              	@ 0 "" 2
 770              	.LVL72:
 771              		.thumb
 772              		.syntax unified
 773              	.LBE211:
 774              	.LBE212:
 775              	.LBE213:
 776              	.LBE214:
 777              	.LBE216:
 778              		.loc 1 176 0
 779 0064 2046     		mov	r0, r4
 780              	.LVL73:
 781 0066 FFF7FEFF 		bl	chThdRelease
 782              	.LVL74:
 783              	.LBE217:
 784              	.LBE218:
 785              		.loc 1 262 0
 786 006a 2C46     		mov	r4, r5
 787              	.LVL75:
 788              	.L34:
 789              		.loc 1 263 0
 790 006c 2046     		mov	r0, r4
 791 006e BDE8F081 		pop	{r4, r5, r6, r7, r8, pc}
 792              	.LVL76:
 793              	.L39:
 794              		.loc 1 256 0
 795 0072 0446     		mov	r4, r0
 796 0074 FAE7     		b	.L34
 797              	.L44:
 798 0076 00BF     		.align	2
ARM GAS  /tmp/cctdBWgX.s 			page 15


 799              	.L43:
 800 0078 00000000 		.word	ch
 801              		.cfi_endproc
 802              	.LFE298:
 803              		.size	chRegFindThreadByWorkingArea, .-chRegFindThreadByWorkingArea
 804              		.global	ch_debug
 805              		.section	.rodata.ch_debug,"a",%progbits
 806              		.align	2
 807              		.type	ch_debug, %object
 808              		.size	ch_debug, 22
 809              	ch_debug:
 810 0000 6D       		.byte	109
 811 0001 61       		.byte	97
 812 0002 69       		.byte	105
 813 0003 6E       		.byte	110
 814 0004 00       		.byte	0
 815 0005 16       		.byte	22
 816 0006 0030     		.short	12288
 817 0008 04       		.byte	4
 818 0009 04       		.byte	4
 819 000a 44       		.byte	68
 820 000b 08       		.byte	8
 821 000c 0C       		.byte	12
 822 000d 10       		.byte	16
 823 000e 14       		.byte	20
 824 000f 18       		.byte	24
 825 0010 1C       		.byte	28
 826 0011 20       		.byte	32
 827 0012 21       		.byte	33
 828 0013 22       		.byte	34
 829 0014 00       		.byte	0
 830 0015 00       		.byte	0
 831              		.text
 832              	.Letext0:
 833              		.file 3 "/usr/lib/gcc/arm-none-eabi/7.3.1/include/stddef.h"
 834              		.file 4 "/usr/arm-none-eabi/include/machine/_default_types.h"
 835              		.file 5 "/usr/arm-none-eabi/include/sys/lock.h"
 836              		.file 6 "/usr/arm-none-eabi/include/sys/_types.h"
 837              		.file 7 "/usr/arm-none-eabi/include/sys/reent.h"
 838              		.file 8 "/usr/arm-none-eabi/include/sys/_stdint.h"
 839              		.file 9 "./RM18A-ChibiOS18-Core/chibios/os/common/ports/ARMCMx/compilers/GCC/chtypes.h"
 840              		.file 10 "./RM18A-ChibiOS18-Core/chibios/os/rt/include/chsystypes.h"
 841              		.file 11 "./RM18A-ChibiOS18-Core/chibios/os/rt/include/chschd.h"
 842              		.file 12 "./RM18A-ChibiOS18-Core/chibios/os/rt/include/chtime.h"
 843              		.file 13 "./RM18A-ChibiOS18-Core/chibios/os/common/ext/ARM/CMSIS/Core/Include/core_cm4.h"
 844              		.file 14 "./RM18A-ChibiOS18-Core/chibios/os/common/ext/ST/STM32F4xx/system_stm32f4xx.h"
 845              		.file 15 "./RM18A-ChibiOS18-Core/chibios/os/common/ports/ARMCMx/chcore.h"
 846              		.file 16 "./RM18A-ChibiOS18-Core/chibios/os/common/ports/ARMCMx/chcore_v7m.h"
 847              		.file 17 "./RM18A-ChibiOS18-Core/chibios/os/rt/include/chtm.h"
 848              		.file 18 "./RM18A-ChibiOS18-Core/chibios/os/rt/include/chsem.h"
 849              		.file 19 "./RM18A-ChibiOS18-Core/chibios/os/rt/include/chmtx.h"
 850              		.file 20 "./RM18A-ChibiOS18-Core/chibios/os/rt/include/chsys.h"
 851              		.file 21 "./RM18A-ChibiOS18-Core/chibios/os/rt/include/chregistry.h"
 852              		.file 22 "./RM18A-ChibiOS18-Core/chibios/os/oslib/include/chmemcore.h"
 853              		.file 23 "./RM18A-ChibiOS18-Core/chibios/os/oslib/include/chmempools.h"
 854              		.file 24 "./RM18A-ChibiOS18-Core/chibios/os/oslib/include/chfactory.h"
 855              		.file 25 "./RM18A-ChibiOS18-Core/chibios/os/rt/include/chthreads.h"
ARM GAS  /tmp/cctdBWgX.s 			page 16


 856              		.file 26 "/usr/arm-none-eabi/include/string.h"