ARM GAS  /tmp/cclUEX3Y.s 			page 1


   1              		.cpu cortex-m4
   2              		.eabi_attribute 27, 1
   3              		.eabi_attribute 28, 1
   4              		.eabi_attribute 20, 1
   5              		.eabi_attribute 21, 1
   6              		.eabi_attribute 23, 3
   7              		.eabi_attribute 24, 1
   8              		.eabi_attribute 25, 1
   9              		.eabi_attribute 26, 1
  10              		.eabi_attribute 30, 2
  11              		.eabi_attribute 34, 1
  12              		.eabi_attribute 18, 4
  13              		.file	"chschd.c"
  14              		.text
  15              	.Ltext0:
  16              		.cfi_sections	.debug_frame
  17              		.section	.text.wakeup,"ax",%progbits
  18              		.align	1
  19              		.p2align 2,,3
  20              		.syntax unified
  21              		.thumb
  22              		.thumb_func
  23              		.fpu fpv4-sp-d16
  24              		.type	wakeup, %function
  25              	wakeup:
  26              	.LFB298:
  27              		.file 1 "./RM18A-ChibiOS18-Core/chibios/os/rt/src/chschd.c"
  28              		.loc 1 319 0
  29              		.cfi_startproc
  30              		@ args = 0, pretend = 0, frame = 0
  31              		@ frame_needed = 0, uses_anonymous_args = 0
  32              		@ link register save eliminated.
  33              	.LVL0:
  34              	.LBB133:
  35              	.LBB134:
  36              	.LBB135:
  37              	.LBB136:
  38              	.LBB137:
  39              		.file 2 "./RM18A-ChibiOS18-Core/chibios/os/common/ext/ARM/CMSIS/Core/Include/cmsis_gcc.h"
  40              		.loc 2 493 0
  41 0000 2023     		movs	r3, #32
  42              		.syntax unified
  43              	@ 493 "./RM18A-ChibiOS18-Core/chibios/os/common/ext/ARM/CMSIS/Core/Include/cmsis_gcc.h" 1
  44 0002 83F31188 		MSR basepri, r3
  45              	@ 0 "" 2
  46              	.LVL1:
  47              		.thumb
  48              		.syntax unified
  49              	.LBE137:
  50              	.LBE136:
  51              	.LBE135:
  52              	.LBE134:
  53              	.LBE133:
  54              		.loc 1 323 0
  55 0006 90F82030 		ldrb	r3, [r0, #32]	@ zero_extendqisi2
  56 000a 072B     		cmp	r3, #7
  57 000c 0ED8     		bhi	.L2
ARM GAS  /tmp/cclUEX3Y.s 			page 2


  58 000e DFE803F0 		tbb	[pc, r3]
  59              	.L4:
  60 0012 29       		.byte	(.L3-.L4)/2
  61 0013 0D       		.byte	(.L2-.L4)/2
  62 0014 0D       		.byte	(.L2-.L4)/2
  63 0015 25       		.byte	(.L5-.L4)/2
  64 0016 08       		.byte	(.L6-.L4)/2
  65 0017 04       		.byte	(.L7-.L4)/2
  66 0018 0D       		.byte	(.L2-.L4)/2
  67 0019 08       		.byte	(.L6-.L4)/2
  68              		.p2align 1
  69              	.L7:
  70              		.loc 1 334 0
  71 001a 426A     		ldr	r2, [r0, #36]
  72              	.LVL2:
  73              	.LBB138:
  74              	.LBB139:
  75              		.file 3 "./RM18A-ChibiOS18-Core/chibios/os/rt/include/chsem.h"
  76              		.loc 3 138 0
  77 001c 9368     		ldr	r3, [r2, #8]
  78 001e 0133     		adds	r3, r3, #1
  79 0020 9360     		str	r3, [r2, #8]
  80              	.LVL3:
  81              	.L6:
  82              	.LBE139:
  83              	.LBE138:
  84              	.LBB140:
  85              	.LBB141:
  86              		.file 4 "./RM18A-ChibiOS18-Core/chibios/os/rt/include/chschd.h"
  87              		.loc 4 626 0
  88 0022 D0E90023 		ldrd	r2, r3, [r0]
  89 0026 1A60     		str	r2, [r3]
  90              		.loc 4 627 0
  91 0028 0268     		ldr	r2, [r0]
  92 002a 5360     		str	r3, [r2, #4]
  93              	.LVL4:
  94              	.L2:
  95              	.LBE141:
  96              	.LBE140:
  97              		.loc 1 319 0
  98 002c 10B4     		push	{r4}
  99              		.cfi_def_cfa_offset 4
 100              		.cfi_offset 4, -4
 101              	.LBB142:
 102              	.LBB143:
 103              		.loc 1 227 0
 104 002e 0022     		movs	r2, #0
 105              	.LBE143:
 106              	.LBE142:
 107              		.loc 1 349 0
 108 0030 4FF0FF34 		mov	r4, #-1
 109              	.LBB145:
 110              	.LBB146:
 111              	.LBB147:
 112              	.LBB148:
 113              		.loc 1 231 0
 114 0034 8168     		ldr	r1, [r0, #8]
ARM GAS  /tmp/cclUEX3Y.s 			page 3


 115              		.loc 1 228 0
 116 0036 0D4B     		ldr	r3, .L15
 117              	.LBE148:
 118              	.LBE147:
 119              	.LBE146:
 120              	.LBE145:
 121              		.loc 1 349 0
 122 0038 4462     		str	r4, [r0, #36]
 123              	.LVL5:
 124              	.LBB164:
 125              	.LBB144:
 126              		.loc 1 227 0
 127 003a 80F82020 		strb	r2, [r0, #32]
 128              	.LVL6:
 129              	.L9:
 130              	.LBE144:
 131              	.LBE164:
 132              	.LBB165:
 133              	.LBB163:
 134              	.LBB151:
 135              	.LBB149:
 136              		.loc 1 230 0
 137 003e 1B68     		ldr	r3, [r3]
 138              	.LVL7:
 139              		.loc 1 231 0
 140 0040 9A68     		ldr	r2, [r3, #8]
 141 0042 8A42     		cmp	r2, r1
 142 0044 FBD2     		bcs	.L9
 143              		.loc 1 234 0
 144 0046 5A68     		ldr	r2, [r3, #4]
 145              	.LBE149:
 146              	.LBE151:
 147              	.LBB152:
 148              	.LBB153:
 149              	.LBB154:
 150              	.LBB155:
 151              	.LBB156:
 152              		.loc 2 493 0
 153 0048 0021     		movs	r1, #0
 154              	.LBE156:
 155              	.LBE155:
 156              	.LBE154:
 157              	.LBE153:
 158              	.LBE152:
 159              	.LBB161:
 160              	.LBB150:
 161              		.loc 1 234 0
 162 004a C0E90032 		strd	r3, r2, [r0]
 163              		.loc 1 235 0
 164 004e 1060     		str	r0, [r2]
 165              		.loc 1 236 0
 166 0050 5860     		str	r0, [r3, #4]
 167              	.LVL8:
 168              	.LBE150:
 169              	.LBE161:
 170              	.LBB162:
 171              	.LBB160:
ARM GAS  /tmp/cclUEX3Y.s 			page 4


 172              	.LBB159:
 173              	.LBB158:
 174              	.LBB157:
 175              		.loc 2 493 0
 176              		.syntax unified
 177              	@ 493 "./RM18A-ChibiOS18-Core/chibios/os/common/ext/ARM/CMSIS/Core/Include/cmsis_gcc.h" 1
 178 0052 81F31188 		MSR basepri, r1
 179              	@ 0 "" 2
 180              	.LVL9:
 181              		.thumb
 182              		.syntax unified
 183              	.LBE157:
 184              	.LBE158:
 185              	.LBE159:
 186              	.LBE160:
 187              	.LBE162:
 188              	.LBE163:
 189              	.LBE165:
 190              		.loc 1 352 0
 191 0056 5DF8044B 		ldr	r4, [sp], #4
 192              		.cfi_restore 4
 193              		.cfi_def_cfa_offset 0
 194 005a 7047     		bx	lr
 195              	.LVL10:
 196              	.L5:
 197              		.loc 1 330 0
 198 005c 436A     		ldr	r3, [r0, #36]
 199 005e 0022     		movs	r2, #0
 200 0060 1A60     		str	r2, [r3]
 201              		.loc 1 331 0
 202 0062 E3E7     		b	.L2
 203              	.L3:
 204              	.LVL11:
 205              	.LBB166:
 206              	.LBB167:
 207              	.LBB168:
 208              	.LBB169:
 209              	.LBB170:
 210              		.loc 2 493 0
 211 0064 0023     		movs	r3, #0
 212              		.syntax unified
 213              	@ 493 "./RM18A-ChibiOS18-Core/chibios/os/common/ext/ARM/CMSIS/Core/Include/cmsis_gcc.h" 1
 214 0066 83F31188 		MSR basepri, r3
 215              	@ 0 "" 2
 216              	.LVL12:
 217              		.thumb
 218              		.syntax unified
 219 006a 7047     		bx	lr
 220              	.L16:
 221              		.align	2
 222              	.L15:
 223 006c 00000000 		.word	.LANCHOR0
 224              	.LBE170:
 225              	.LBE169:
 226              	.LBE168:
 227              	.LBE167:
 228              	.LBE166:
ARM GAS  /tmp/cclUEX3Y.s 			page 5


 229              		.cfi_endproc
 230              	.LFE298:
 231              		.size	wakeup, .-wakeup
 232              		.section	.text._scheduler_init,"ax",%progbits
 233              		.align	1
 234              		.p2align 2,,3
 235              		.global	_scheduler_init
 236              		.syntax unified
 237              		.thumb
 238              		.thumb_func
 239              		.fpu fpv4-sp-d16
 240              		.type	_scheduler_init, %function
 241              	_scheduler_init:
 242              	.LFB294:
 243              		.loc 1 65 0
 244              		.cfi_startproc
 245              		@ args = 0, pretend = 0, frame = 0
 246              		@ frame_needed = 0, uses_anonymous_args = 0
 247              		@ link register save eliminated.
 248              	.LVL13:
 249              	.LBB171:
 250              	.LBB172:
 251              		.loc 4 539 0
 252 0000 034B     		ldr	r3, .L18
 253              	.LBE172:
 254              	.LBE171:
 255              		.loc 1 68 0
 256 0002 0022     		movs	r2, #0
 257              	.LBB174:
 258              	.LBB173:
 259              		.loc 4 540 0
 260 0004 C3E90033 		strd	r3, r3, [r3]
 261              	.LVL14:
 262              	.LBE173:
 263              	.LBE174:
 264              		.loc 1 71 0
 265 0008 C3E90433 		strd	r3, r3, [r3, #16]
 266              		.loc 1 68 0
 267 000c 9A60     		str	r2, [r3, #8]
 268              		.loc 1 73 0
 269 000e 7047     		bx	lr
 270              	.L19:
 271              		.align	2
 272              	.L18:
 273 0010 00000000 		.word	.LANCHOR0
 274              		.cfi_endproc
 275              	.LFE294:
 276              		.size	_scheduler_init, .-_scheduler_init
 277              		.section	.text.chSchReadyI,"ax",%progbits
 278              		.align	1
 279              		.p2align 2,,3
 280              		.global	chSchReadyI
 281              		.syntax unified
 282              		.thumb
 283              		.thumb_func
 284              		.fpu fpv4-sp-d16
 285              		.type	chSchReadyI, %function
ARM GAS  /tmp/cclUEX3Y.s 			page 6


 286              	chSchReadyI:
 287              	.LFB295:
 288              		.loc 1 218 0
 289              		.cfi_startproc
 290              		@ args = 0, pretend = 0, frame = 0
 291              		@ frame_needed = 0, uses_anonymous_args = 0
 292              		@ link register save eliminated.
 293              	.LVL15:
 294              		.loc 1 218 0
 295 0000 0146     		mov	r1, r0
 296              		.loc 1 227 0
 297 0002 0022     		movs	r2, #0
 298              		.loc 1 228 0
 299 0004 074B     		ldr	r3, .L23
 300              		.loc 1 231 0
 301 0006 8068     		ldr	r0, [r0, #8]
 302              	.LVL16:
 303              		.loc 1 227 0
 304 0008 81F82020 		strb	r2, [r1, #32]
 305              	.LVL17:
 306              	.L21:
 307              		.loc 1 230 0 discriminator 1
 308 000c 1B68     		ldr	r3, [r3]
 309              	.LVL18:
 310              		.loc 1 231 0 discriminator 1
 311 000e 9A68     		ldr	r2, [r3, #8]
 312 0010 8242     		cmp	r2, r0
 313 0012 FBD2     		bcs	.L21
 314              		.loc 1 234 0
 315 0014 5A68     		ldr	r2, [r3, #4]
 316              		.loc 1 239 0
 317 0016 0846     		mov	r0, r1
 318              		.loc 1 234 0
 319 0018 C1E90032 		strd	r3, r2, [r1]
 320              		.loc 1 235 0
 321 001c 1160     		str	r1, [r2]
 322              		.loc 1 236 0
 323 001e 5960     		str	r1, [r3, #4]
 324              		.loc 1 239 0
 325 0020 7047     		bx	lr
 326              	.L24:
 327 0022 00BF     		.align	2
 328              	.L23:
 329 0024 00000000 		.word	.LANCHOR0
 330              		.cfi_endproc
 331              	.LFE295:
 332              		.size	chSchReadyI, .-chSchReadyI
 333              		.section	.text.chSchReadyAheadI,"ax",%progbits
 334              		.align	1
 335              		.p2align 2,,3
 336              		.global	chSchReadyAheadI
 337              		.syntax unified
 338              		.thumb
 339              		.thumb_func
 340              		.fpu fpv4-sp-d16
 341              		.type	chSchReadyAheadI, %function
 342              	chSchReadyAheadI:
ARM GAS  /tmp/cclUEX3Y.s 			page 7


 343              	.LFB296:
 344              		.loc 1 257 0
 345              		.cfi_startproc
 346              		@ args = 0, pretend = 0, frame = 0
 347              		@ frame_needed = 0, uses_anonymous_args = 0
 348              		@ link register save eliminated.
 349              	.LVL19:
 350              		.loc 1 257 0
 351 0000 0146     		mov	r1, r0
 352              		.loc 1 266 0
 353 0002 0022     		movs	r2, #0
 354              		.loc 1 267 0
 355 0004 074B     		ldr	r3, .L28
 356              		.loc 1 270 0
 357 0006 8068     		ldr	r0, [r0, #8]
 358              	.LVL20:
 359              		.loc 1 266 0
 360 0008 81F82020 		strb	r2, [r1, #32]
 361              	.LVL21:
 362              	.L26:
 363              		.loc 1 269 0 discriminator 1
 364 000c 1B68     		ldr	r3, [r3]
 365              	.LVL22:
 366              		.loc 1 270 0 discriminator 1
 367 000e 9A68     		ldr	r2, [r3, #8]
 368 0010 8242     		cmp	r2, r0
 369 0012 FBD8     		bhi	.L26
 370              		.loc 1 273 0
 371 0014 5A68     		ldr	r2, [r3, #4]
 372              		.loc 1 278 0
 373 0016 0846     		mov	r0, r1
 374              		.loc 1 273 0
 375 0018 C1E90032 		strd	r3, r2, [r1]
 376              		.loc 1 274 0
 377 001c 1160     		str	r1, [r2]
 378              		.loc 1 275 0
 379 001e 5960     		str	r1, [r3, #4]
 380              		.loc 1 278 0
 381 0020 7047     		bx	lr
 382              	.L29:
 383 0022 00BF     		.align	2
 384              	.L28:
 385 0024 00000000 		.word	.LANCHOR0
 386              		.cfi_endproc
 387              	.LFE296:
 388              		.size	chSchReadyAheadI, .-chSchReadyAheadI
 389              		.section	.text.chSchGoSleepS,"ax",%progbits
 390              		.align	1
 391              		.p2align 2,,3
 392              		.global	chSchGoSleepS
 393              		.syntax unified
 394              		.thumb
 395              		.thumb_func
 396              		.fpu fpv4-sp-d16
 397              		.type	chSchGoSleepS, %function
 398              	chSchGoSleepS:
 399              	.LFB297:
ARM GAS  /tmp/cclUEX3Y.s 			page 8


 400              		.loc 1 289 0
 401              		.cfi_startproc
 402              		@ args = 0, pretend = 0, frame = 0
 403              		@ frame_needed = 0, uses_anonymous_args = 0
 404              		@ link register save eliminated.
 405              	.LVL23:
 406              		.loc 1 290 0
 407 0000 084B     		ldr	r3, .L32
 408 0002 9969     		ldr	r1, [r3, #24]
 409              	.LVL24:
 410              	.LBB177:
 411              	.LBB178:
 412              		.loc 4 607 0
 413 0004 1A68     		ldr	r2, [r3]
 414              	.LBE178:
 415              	.LBE177:
 416              		.loc 1 289 0
 417 0006 10B4     		push	{r4}
 418              		.cfi_def_cfa_offset 4
 419              		.cfi_offset 4, -4
 420              		.loc 1 295 0
 421 0008 81F82000 		strb	r0, [r1, #32]
 422              	.LVL25:
 423              	.LBB181:
 424              	.LBB179:
 425              		.loc 4 609 0
 426 000c 1068     		ldr	r0, [r2]
 427              	.LVL26:
 428 000e 1860     		str	r0, [r3]
 429              	.LBE179:
 430              	.LBE181:
 431              		.loc 1 305 0
 432 0010 0124     		movs	r4, #1
 433              	.LBB182:
 434              	.LBB180:
 435              		.loc 4 610 0
 436 0012 4360     		str	r3, [r0, #4]
 437              	.LVL27:
 438              	.LBE180:
 439              	.LBE182:
 440              		.loc 1 305 0
 441 0014 82F82040 		strb	r4, [r2, #32]
 442              		.loc 1 313 0
 443 0018 1046     		mov	r0, r2
 444              		.loc 1 314 0
 445 001a 5DF8044B 		ldr	r4, [sp], #4
 446              		.cfi_restore 4
 447              		.cfi_def_cfa_offset 0
 448              		.loc 1 304 0
 449 001e 9A61     		str	r2, [r3, #24]
 450              		.loc 1 313 0
 451 0020 FFF7FEBF 		b	_port_switch
 452              	.LVL28:
 453              	.L33:
 454              		.align	2
 455              	.L32:
 456 0024 00000000 		.word	.LANCHOR0
ARM GAS  /tmp/cclUEX3Y.s 			page 9


 457              		.cfi_endproc
 458              	.LFE297:
 459              		.size	chSchGoSleepS, .-chSchGoSleepS
 460              		.section	.text.chSchGoSleepTimeoutS,"ax",%progbits
 461              		.align	1
 462              		.p2align 2,,3
 463              		.global	chSchGoSleepTimeoutS
 464              		.syntax unified
 465              		.thumb
 466              		.thumb_func
 467              		.fpu fpv4-sp-d16
 468              		.type	chSchGoSleepTimeoutS, %function
 469              	chSchGoSleepTimeoutS:
 470              	.LFB299:
 471              		.loc 1 375 0
 472              		.cfi_startproc
 473              		@ args = 0, pretend = 0, frame = 24
 474              		@ frame_needed = 0, uses_anonymous_args = 0
 475              	.LVL29:
 476 0000 30B5     		push	{r4, r5, lr}
 477              		.cfi_def_cfa_offset 12
 478              		.cfi_offset 4, -12
 479              		.cfi_offset 5, -8
 480              		.cfi_offset 14, -4
 481 0002 194C     		ldr	r4, .L42
 482              		.loc 1 379 0
 483 0004 4A1C     		adds	r2, r1, #1
 484              		.loc 1 375 0
 485 0006 87B0     		sub	sp, sp, #28
 486              		.cfi_def_cfa_offset 40
 487              		.loc 1 375 0
 488 0008 0546     		mov	r5, r0
 489 000a A369     		ldr	r3, [r4, #24]
 490              		.loc 1 379 0
 491 000c 1AD0     		beq	.L35
 492              	.LBB192:
 493              		.loc 1 382 0
 494 000e 01A8     		add	r0, sp, #4
 495              	.LVL30:
 496 0010 164A     		ldr	r2, .L42+4
 497 0012 FFF7FEFF 		bl	chVTDoSetI
 498              	.LVL31:
 499              	.LBB193:
 500              	.LBB194:
 501              		.loc 1 290 0
 502 0016 A169     		ldr	r1, [r4, #24]
 503              	.LVL32:
 504              	.LBB195:
 505              	.LBB196:
 506              		.loc 4 607 0
 507 0018 2368     		ldr	r3, [r4]
 508              	.LBE196:
 509              	.LBE195:
 510              		.loc 1 295 0
 511 001a 81F82050 		strb	r5, [r1, #32]
 512              	.LVL33:
 513              	.LBB199:
ARM GAS  /tmp/cclUEX3Y.s 			page 10


 514              	.LBB197:
 515              		.loc 4 609 0
 516 001e 1A68     		ldr	r2, [r3]
 517 0020 2260     		str	r2, [r4]
 518              	.LBE197:
 519              	.LBE199:
 520              		.loc 1 305 0
 521 0022 0125     		movs	r5, #1
 522              	.LVL34:
 523              	.LBB200:
 524              	.LBB198:
 525              		.loc 4 610 0
 526 0024 5460     		str	r4, [r2, #4]
 527              	.LVL35:
 528              	.LBE198:
 529              	.LBE200:
 530              		.loc 1 313 0
 531 0026 1846     		mov	r0, r3
 532              		.loc 1 305 0
 533 0028 83F82050 		strb	r5, [r3, #32]
 534              		.loc 1 304 0
 535 002c A361     		str	r3, [r4, #24]
 536              		.loc 1 313 0
 537 002e FFF7FEFF 		bl	_port_switch
 538              	.LVL36:
 539              	.LBE194:
 540              	.LBE193:
 541              		.loc 1 384 0
 542 0032 049B     		ldr	r3, [sp, #16]
 543 0034 13B1     		cbz	r3, .L37
 544              		.loc 1 385 0
 545 0036 01A8     		add	r0, sp, #4
 546              	.LVL37:
 547 0038 FFF7FEFF 		bl	chVTDoResetI
 548              	.LVL38:
 549              	.L37:
 550              	.LBE192:
 551              		.loc 1 392 0
 552 003c A369     		ldr	r3, [r4, #24]
 553              		.loc 1 393 0
 554 003e 586A     		ldr	r0, [r3, #36]
 555 0040 07B0     		add	sp, sp, #28
 556              		.cfi_remember_state
 557              		.cfi_def_cfa_offset 12
 558              		@ sp needed
 559 0042 30BD     		pop	{r4, r5, pc}
 560              	.LVL39:
 561              	.L35:
 562              		.cfi_restore_state
 563              	.LBB201:
 564              	.LBB202:
 565              	.LBB203:
 566              	.LBB204:
 567              		.loc 4 607 0
 568 0044 2268     		ldr	r2, [r4]
 569              	.LBE204:
 570              	.LBE203:
ARM GAS  /tmp/cclUEX3Y.s 			page 11


 571              		.loc 1 295 0
 572 0046 83F82000 		strb	r0, [r3, #32]
 573              	.LVL40:
 574              	.LBB207:
 575              	.LBB205:
 576              		.loc 4 609 0
 577 004a 1068     		ldr	r0, [r2]
 578              	.LVL41:
 579 004c 2060     		str	r0, [r4]
 580              	.LBE205:
 581              	.LBE207:
 582              		.loc 1 305 0
 583 004e 0125     		movs	r5, #1
 584              	.LBB208:
 585              	.LBB206:
 586              		.loc 4 610 0
 587 0050 4460     		str	r4, [r0, #4]
 588              	.LVL42:
 589              	.LBE206:
 590              	.LBE208:
 591              		.loc 1 313 0
 592 0052 1946     		mov	r1, r3
 593              	.LVL43:
 594 0054 1046     		mov	r0, r2
 595              		.loc 1 305 0
 596 0056 82F82050 		strb	r5, [r2, #32]
 597              		.loc 1 304 0
 598 005a A261     		str	r2, [r4, #24]
 599              	.LVL44:
 600              		.loc 1 313 0
 601 005c FFF7FEFF 		bl	_port_switch
 602              	.LVL45:
 603              	.LBE202:
 604              	.LBE201:
 605              		.loc 1 392 0
 606 0060 A369     		ldr	r3, [r4, #24]
 607              		.loc 1 393 0
 608 0062 586A     		ldr	r0, [r3, #36]
 609 0064 07B0     		add	sp, sp, #28
 610              		.cfi_def_cfa_offset 12
 611              		@ sp needed
 612 0066 30BD     		pop	{r4, r5, pc}
 613              	.L43:
 614              		.align	2
 615              	.L42:
 616 0068 00000000 		.word	.LANCHOR0
 617 006c 00000000 		.word	wakeup
 618              		.cfi_endproc
 619              	.LFE299:
 620              		.size	chSchGoSleepTimeoutS, .-chSchGoSleepTimeoutS
 621              		.section	.text.chSchWakeupS,"ax",%progbits
 622              		.align	1
 623              		.p2align 2,,3
 624              		.global	chSchWakeupS
 625              		.syntax unified
 626              		.thumb
 627              		.thumb_func
ARM GAS  /tmp/cclUEX3Y.s 			page 12


 628              		.fpu fpv4-sp-d16
 629              		.type	chSchWakeupS, %function
 630              	chSchWakeupS:
 631              	.LFB300:
 632              		.loc 1 412 0
 633              		.cfi_startproc
 634              		@ args = 0, pretend = 0, frame = 0
 635              		@ frame_needed = 0, uses_anonymous_args = 0
 636              		@ link register save eliminated.
 637              	.LVL46:
 638              		.loc 1 413 0
 639 0000 164B     		ldr	r3, .L53
 640              		.loc 1 412 0
 641 0002 70B4     		push	{r4, r5, r6}
 642              		.cfi_def_cfa_offset 12
 643              		.cfi_offset 4, -12
 644              		.cfi_offset 5, -8
 645              		.cfi_offset 6, -4
 646              		.loc 1 413 0
 647 0004 9E69     		ldr	r6, [r3, #24]
 648              	.LVL47:
 649              		.loc 1 429 0
 650 0006 8568     		ldr	r5, [r0, #8]
 651              		.loc 1 412 0
 652 0008 0446     		mov	r4, r0
 653              		.loc 1 429 0
 654 000a B068     		ldr	r0, [r6, #8]
 655              	.LVL48:
 656              		.loc 1 423 0
 657 000c 6162     		str	r1, [r4, #36]
 658              		.loc 1 429 0
 659 000e 8542     		cmp	r5, r0
 660              	.LBB209:
 661              	.LBB210:
 662              		.loc 1 227 0
 663 0010 4FF00002 		mov	r2, #0
 664              	.LBE210:
 665              	.LBE209:
 666              		.loc 1 429 0
 667 0014 0CD8     		bhi	.L45
 668              	.LVL49:
 669              	.LBB212:
 670              	.LBB211:
 671              		.loc 1 227 0
 672 0016 84F82020 		strb	r2, [r4, #32]
 673              	.LVL50:
 674              	.L46:
 675              		.loc 1 230 0
 676 001a 1B68     		ldr	r3, [r3]
 677              	.LVL51:
 678              		.loc 1 231 0
 679 001c 9A68     		ldr	r2, [r3, #8]
 680 001e 9542     		cmp	r5, r2
 681 0020 FBD9     		bls	.L46
 682              		.loc 1 234 0
 683 0022 5A68     		ldr	r2, [r3, #4]
 684 0024 C4E90032 		strd	r3, r2, [r4]
ARM GAS  /tmp/cclUEX3Y.s 			page 13


 685              		.loc 1 235 0
 686 0028 1460     		str	r4, [r2]
 687              		.loc 1 236 0
 688 002a 5C60     		str	r4, [r3, #4]
 689              	.LBE211:
 690              	.LBE212:
 691              		.loc 1 447 0
 692 002c 70BC     		pop	{r4, r5, r6}
 693              		.cfi_remember_state
 694              		.cfi_restore 6
 695              		.cfi_restore 5
 696              		.cfi_restore 4
 697              		.cfi_def_cfa_offset 0
 698              	.LVL52:
 699 002e 7047     		bx	lr
 700              	.LVL53:
 701              	.L45:
 702              		.cfi_restore_state
 703              	.LBB213:
 704              	.LBB214:
 705              		.loc 1 227 0
 706 0030 86F82020 		strb	r2, [r6, #32]
 707              	.LVL54:
 708              		.loc 1 228 0
 709 0034 1A46     		mov	r2, r3
 710              	.LVL55:
 711              	.L48:
 712              		.loc 1 230 0
 713 0036 1268     		ldr	r2, [r2]
 714              	.LVL56:
 715              		.loc 1 231 0
 716 0038 9168     		ldr	r1, [r2, #8]
 717 003a 8842     		cmp	r0, r1
 718 003c FBD9     		bls	.L48
 719              		.loc 1 234 0
 720 003e 5168     		ldr	r1, [r2, #4]
 721 0040 7160     		str	r1, [r6, #4]
 722              	.LBE214:
 723              	.LBE213:
 724              		.loc 1 442 0
 725 0042 0120     		movs	r0, #1
 726              	.LBB216:
 727              	.LBB215:
 728              		.loc 1 233 0
 729 0044 3260     		str	r2, [r6]
 730              		.loc 1 235 0
 731 0046 0E60     		str	r6, [r1]
 732              		.loc 1 236 0
 733 0048 5660     		str	r6, [r2, #4]
 734              	.LVL57:
 735              	.LBE215:
 736              	.LBE216:
 737              		.loc 1 442 0
 738 004a 84F82000 		strb	r0, [r4, #32]
 739              		.loc 1 445 0
 740 004e 3146     		mov	r1, r6
 741 0050 2046     		mov	r0, r4
ARM GAS  /tmp/cclUEX3Y.s 			page 14


 742              		.loc 1 441 0
 743 0052 9C61     		str	r4, [r3, #24]
 744              		.loc 1 447 0
 745 0054 70BC     		pop	{r4, r5, r6}
 746              		.cfi_restore 6
 747              		.cfi_restore 5
 748              		.cfi_restore 4
 749              		.cfi_def_cfa_offset 0
 750              	.LVL58:
 751              		.loc 1 445 0
 752 0056 FFF7FEBF 		b	_port_switch
 753              	.LVL59:
 754              	.L54:
 755 005a 00BF     		.align	2
 756              	.L53:
 757 005c 00000000 		.word	.LANCHOR0
 758              		.cfi_endproc
 759              	.LFE300:
 760              		.size	chSchWakeupS, .-chSchWakeupS
 761              		.section	.text.chSchRescheduleS,"ax",%progbits
 762              		.align	1
 763              		.p2align 2,,3
 764              		.global	chSchRescheduleS
 765              		.syntax unified
 766              		.thumb
 767              		.thumb_func
 768              		.fpu fpv4-sp-d16
 769              		.type	chSchRescheduleS, %function
 770              	chSchRescheduleS:
 771              	.LFB301:
 772              		.loc 1 456 0
 773              		.cfi_startproc
 774              		@ args = 0, pretend = 0, frame = 0
 775              		@ frame_needed = 0, uses_anonymous_args = 0
 776              		@ link register save eliminated.
 777              	.LBB225:
 778              	.LBB226:
 779              		.loc 4 648 0
 780 0000 104B     		ldr	r3, .L61
 781              	.LBE226:
 782              	.LBE225:
 783              		.loc 1 456 0
 784 0002 30B4     		push	{r4, r5}
 785              		.cfi_def_cfa_offset 8
 786              		.cfi_offset 4, -8
 787              		.cfi_offset 5, -4
 788              	.LBB229:
 789              	.LBB227:
 790              		.loc 4 648 0
 791 0004 1868     		ldr	r0, [r3]
 792 0006 9C69     		ldr	r4, [r3, #24]
 793              	.LBE227:
 794              	.LBE229:
 795              		.loc 1 460 0
 796 0008 8268     		ldr	r2, [r0, #8]
 797              	.LBB230:
 798              	.LBB228:
ARM GAS  /tmp/cclUEX3Y.s 			page 15


 799              		.loc 4 648 0
 800 000a A168     		ldr	r1, [r4, #8]
 801              	.LBE228:
 802              	.LBE230:
 803              		.loc 1 460 0
 804 000c 8A42     		cmp	r2, r1
 805 000e 01D8     		bhi	.L60
 806              		.loc 1 463 0
 807 0010 30BC     		pop	{r4, r5}
 808              		.cfi_remember_state
 809              		.cfi_restore 5
 810              		.cfi_restore 4
 811              		.cfi_def_cfa_offset 0
 812 0012 7047     		bx	lr
 813              	.L60:
 814              		.cfi_restore_state
 815              	.LVL60:
 816              	.LBB231:
 817              	.LBB232:
 818              	.LBB233:
 819              	.LBB234:
 820              		.loc 4 609 0
 821 0014 0268     		ldr	r2, [r0]
 822 0016 1A60     		str	r2, [r3]
 823              		.loc 4 610 0
 824 0018 5360     		str	r3, [r2, #4]
 825              	.LVL61:
 826              	.LBE234:
 827              	.LBE233:
 828              		.loc 1 545 0
 829 001a 0125     		movs	r5, #1
 830              	.LBB235:
 831              	.LBB236:
 832              		.loc 1 266 0
 833 001c 0022     		movs	r2, #0
 834              	.LBE236:
 835              	.LBE235:
 836              		.loc 1 545 0
 837 001e 80F82050 		strb	r5, [r0, #32]
 838              	.LVL62:
 839              		.loc 1 544 0
 840 0022 9861     		str	r0, [r3, #24]
 841              	.LBB239:
 842              	.LBB237:
 843              		.loc 1 266 0
 844 0024 84F82020 		strb	r2, [r4, #32]
 845              	.LVL63:
 846              	.L57:
 847              		.loc 1 269 0
 848 0028 1B68     		ldr	r3, [r3]
 849              	.LVL64:
 850              		.loc 1 270 0
 851 002a 9A68     		ldr	r2, [r3, #8]
 852 002c 9142     		cmp	r1, r2
 853 002e FBD3     		bcc	.L57
 854              		.loc 1 273 0
 855 0030 5A68     		ldr	r2, [r3, #4]
ARM GAS  /tmp/cclUEX3Y.s 			page 16


 856              	.LBE237:
 857              	.LBE239:
 858              		.loc 1 556 0
 859 0032 2146     		mov	r1, r4
 860              	.LBB240:
 861              	.LBB238:
 862              		.loc 1 273 0
 863 0034 C4E90032 		strd	r3, r2, [r4]
 864              		.loc 1 274 0
 865 0038 1460     		str	r4, [r2]
 866              		.loc 1 275 0
 867 003a 5C60     		str	r4, [r3, #4]
 868              	.LVL65:
 869              	.LBE238:
 870              	.LBE240:
 871              	.LBE232:
 872              	.LBE231:
 873              		.loc 1 463 0
 874 003c 30BC     		pop	{r4, r5}
 875              		.cfi_restore 5
 876              		.cfi_restore 4
 877              		.cfi_def_cfa_offset 0
 878              	.LBB242:
 879              	.LBB241:
 880              		.loc 1 556 0
 881 003e FFF7FEBF 		b	_port_switch
 882              	.LVL66:
 883              	.L62:
 884 0042 00BF     		.align	2
 885              	.L61:
 886 0044 00000000 		.word	.LANCHOR0
 887              	.LBE241:
 888              	.LBE242:
 889              		.cfi_endproc
 890              	.LFE301:
 891              		.size	chSchRescheduleS, .-chSchRescheduleS
 892              		.section	.text.chSchIsPreemptionRequired,"ax",%progbits
 893              		.align	1
 894              		.p2align 2,,3
 895              		.global	chSchIsPreemptionRequired
 896              		.syntax unified
 897              		.thumb
 898              		.thumb_func
 899              		.fpu fpv4-sp-d16
 900              		.type	chSchIsPreemptionRequired, %function
 901              	chSchIsPreemptionRequired:
 902              	.LFB302:
 903              		.loc 1 479 0
 904              		.cfi_startproc
 905              		@ args = 0, pretend = 0, frame = 0
 906              		@ frame_needed = 0, uses_anonymous_args = 0
 907              		@ link register save eliminated.
 908              	.LVL67:
 909              		.loc 1 480 0
 910 0000 044B     		ldr	r3, .L64
 911 0002 1A68     		ldr	r2, [r3]
 912              		.loc 1 481 0
ARM GAS  /tmp/cclUEX3Y.s 			page 17


 913 0004 9B69     		ldr	r3, [r3, #24]
 914              		.loc 1 492 0
 915 0006 9068     		ldr	r0, [r2, #8]
 916 0008 9B68     		ldr	r3, [r3, #8]
 917              		.loc 1 494 0
 918 000a 9842     		cmp	r0, r3
 919 000c 94BF     		ite	ls
 920 000e 0020     		movls	r0, #0
 921 0010 0120     		movhi	r0, #1
 922 0012 7047     		bx	lr
 923              	.L65:
 924              		.align	2
 925              	.L64:
 926 0014 00000000 		.word	.LANCHOR0
 927              		.cfi_endproc
 928              	.LFE302:
 929              		.size	chSchIsPreemptionRequired, .-chSchIsPreemptionRequired
 930              		.section	.text.chSchDoRescheduleBehind,"ax",%progbits
 931              		.align	1
 932              		.p2align 2,,3
 933              		.global	chSchDoRescheduleBehind
 934              		.syntax unified
 935              		.thumb
 936              		.thumb_func
 937              		.fpu fpv4-sp-d16
 938              		.type	chSchDoRescheduleBehind, %function
 939              	chSchDoRescheduleBehind:
 940              	.LFB303:
 941              		.loc 1 507 0
 942              		.cfi_startproc
 943              		@ args = 0, pretend = 0, frame = 0
 944              		@ frame_needed = 0, uses_anonymous_args = 0
 945              		@ link register save eliminated.
 946              		.loc 1 508 0
 947 0000 0E4B     		ldr	r3, .L70
 948              	.LBB243:
 949              	.LBB244:
 950              		.loc 4 607 0
 951 0002 1868     		ldr	r0, [r3]
 952              		.loc 4 609 0
 953 0004 0268     		ldr	r2, [r0]
 954              	.LBE244:
 955              	.LBE243:
 956              		.loc 1 507 0
 957 0006 10B4     		push	{r4}
 958              		.cfi_def_cfa_offset 4
 959              		.cfi_offset 4, -4
 960              		.loc 1 512 0
 961 0008 0121     		movs	r1, #1
 962              		.loc 1 508 0
 963 000a 9C69     		ldr	r4, [r3, #24]
 964              	.LVL68:
 965              	.LBB246:
 966              	.LBB245:
 967              		.loc 4 609 0
 968 000c 1A60     		str	r2, [r3]
 969              		.loc 4 610 0
ARM GAS  /tmp/cclUEX3Y.s 			page 18


 970 000e 5360     		str	r3, [r2, #4]
 971              	.LVL69:
 972              	.LBE245:
 973              	.LBE246:
 974              		.loc 1 512 0
 975 0010 80F82010 		strb	r1, [r0, #32]
 976              	.LBB247:
 977              	.LBB248:
 978              		.loc 1 227 0
 979 0014 0022     		movs	r2, #0
 980              	.LBE248:
 981              	.LBE247:
 982              		.loc 1 515 0
 983 0016 A168     		ldr	r1, [r4, #8]
 984              	.LVL70:
 985              	.LBB252:
 986              	.LBB249:
 987              		.loc 1 227 0
 988 0018 84F82020 		strb	r2, [r4, #32]
 989              	.LVL71:
 990              	.LBE249:
 991              	.LBE252:
 992              		.loc 1 511 0
 993 001c 9861     		str	r0, [r3, #24]
 994              	.LVL72:
 995              	.L67:
 996              	.LBB253:
 997              	.LBB250:
 998              		.loc 1 230 0
 999 001e 1B68     		ldr	r3, [r3]
 1000              	.LVL73:
 1001              		.loc 1 231 0
 1002 0020 9A68     		ldr	r2, [r3, #8]
 1003 0022 9142     		cmp	r1, r2
 1004 0024 FBD9     		bls	.L67
 1005              		.loc 1 234 0
 1006 0026 5A68     		ldr	r2, [r3, #4]
 1007              	.LBE250:
 1008              	.LBE253:
 1009              		.loc 1 528 0
 1010 0028 2146     		mov	r1, r4
 1011              	.LBB254:
 1012              	.LBB251:
 1013              		.loc 1 234 0
 1014 002a C4E90032 		strd	r3, r2, [r4]
 1015              		.loc 1 235 0
 1016 002e 1460     		str	r4, [r2]
 1017              		.loc 1 236 0
 1018 0030 5C60     		str	r4, [r3, #4]
 1019              	.LVL74:
 1020              	.LBE251:
 1021              	.LBE254:
 1022              		.loc 1 529 0
 1023 0032 5DF8044B 		ldr	r4, [sp], #4
 1024              		.cfi_restore 4
 1025              		.cfi_def_cfa_offset 0
 1026              		.loc 1 528 0
ARM GAS  /tmp/cclUEX3Y.s 			page 19


 1027 0036 FFF7FEBF 		b	_port_switch
 1028              	.LVL75:
 1029              	.L71:
 1030 003a 00BF     		.align	2
 1031              	.L70:
 1032 003c 00000000 		.word	.LANCHOR0
 1033              		.cfi_endproc
 1034              	.LFE303:
 1035              		.size	chSchDoRescheduleBehind, .-chSchDoRescheduleBehind
 1036              		.section	.text.chSchDoRescheduleAhead,"ax",%progbits
 1037              		.align	1
 1038              		.p2align 2,,3
 1039              		.global	chSchDoRescheduleAhead
 1040              		.syntax unified
 1041              		.thumb
 1042              		.thumb_func
 1043              		.fpu fpv4-sp-d16
 1044              		.type	chSchDoRescheduleAhead, %function
 1045              	chSchDoRescheduleAhead:
 1046              	.LFB304:
 1047              		.loc 1 540 0
 1048              		.cfi_startproc
 1049              		@ args = 0, pretend = 0, frame = 0
 1050              		@ frame_needed = 0, uses_anonymous_args = 0
 1051              		@ link register save eliminated.
 1052              		.loc 1 541 0
 1053 0000 0E4B     		ldr	r3, .L76
 1054              	.LBB259:
 1055              	.LBB260:
 1056              		.loc 4 607 0
 1057 0002 1868     		ldr	r0, [r3]
 1058              		.loc 4 609 0
 1059 0004 0268     		ldr	r2, [r0]
 1060              	.LBE260:
 1061              	.LBE259:
 1062              		.loc 1 540 0
 1063 0006 10B4     		push	{r4}
 1064              		.cfi_def_cfa_offset 4
 1065              		.cfi_offset 4, -4
 1066              		.loc 1 545 0
 1067 0008 0121     		movs	r1, #1
 1068              		.loc 1 541 0
 1069 000a 9C69     		ldr	r4, [r3, #24]
 1070              	.LVL76:
 1071              	.LBB262:
 1072              	.LBB261:
 1073              		.loc 4 609 0
 1074 000c 1A60     		str	r2, [r3]
 1075              		.loc 4 610 0
 1076 000e 5360     		str	r3, [r2, #4]
 1077              	.LVL77:
 1078              	.LBE261:
 1079              	.LBE262:
 1080              		.loc 1 545 0
 1081 0010 80F82010 		strb	r1, [r0, #32]
 1082              	.LBB263:
 1083              	.LBB264:
ARM GAS  /tmp/cclUEX3Y.s 			page 20


 1084              		.loc 1 266 0
 1085 0014 0022     		movs	r2, #0
 1086              	.LBE264:
 1087              	.LBE263:
 1088              		.loc 1 548 0
 1089 0016 A168     		ldr	r1, [r4, #8]
 1090              	.LVL78:
 1091              	.LBB268:
 1092              	.LBB265:
 1093              		.loc 1 266 0
 1094 0018 84F82020 		strb	r2, [r4, #32]
 1095              	.LVL79:
 1096              	.LBE265:
 1097              	.LBE268:
 1098              		.loc 1 544 0
 1099 001c 9861     		str	r0, [r3, #24]
 1100              	.LVL80:
 1101              	.L73:
 1102              	.LBB269:
 1103              	.LBB266:
 1104              		.loc 1 269 0
 1105 001e 1B68     		ldr	r3, [r3]
 1106              	.LVL81:
 1107              		.loc 1 270 0
 1108 0020 9A68     		ldr	r2, [r3, #8]
 1109 0022 9142     		cmp	r1, r2
 1110 0024 FBD3     		bcc	.L73
 1111              		.loc 1 273 0
 1112 0026 5A68     		ldr	r2, [r3, #4]
 1113              	.LBE266:
 1114              	.LBE269:
 1115              		.loc 1 556 0
 1116 0028 2146     		mov	r1, r4
 1117              	.LBB270:
 1118              	.LBB267:
 1119              		.loc 1 273 0
 1120 002a C4E90032 		strd	r3, r2, [r4]
 1121              		.loc 1 274 0
 1122 002e 1460     		str	r4, [r2]
 1123              		.loc 1 275 0
 1124 0030 5C60     		str	r4, [r3, #4]
 1125              	.LVL82:
 1126              	.LBE267:
 1127              	.LBE270:
 1128              		.loc 1 557 0
 1129 0032 5DF8044B 		ldr	r4, [sp], #4
 1130              		.cfi_restore 4
 1131              		.cfi_def_cfa_offset 0
 1132              		.loc 1 556 0
 1133 0036 FFF7FEBF 		b	_port_switch
 1134              	.LVL83:
 1135              	.L77:
 1136 003a 00BF     		.align	2
 1137              	.L76:
 1138 003c 00000000 		.word	.LANCHOR0
 1139              		.cfi_endproc
 1140              	.LFE304:
ARM GAS  /tmp/cclUEX3Y.s 			page 21


 1141              		.size	chSchDoRescheduleAhead, .-chSchDoRescheduleAhead
 1142              		.section	.text.chSchDoReschedule,"ax",%progbits
 1143              		.align	1
 1144              		.p2align 2,,3
 1145              		.global	chSchDoReschedule
 1146              		.syntax unified
 1147              		.thumb
 1148              		.thumb_func
 1149              		.fpu fpv4-sp-d16
 1150              		.type	chSchDoReschedule, %function
 1151              	chSchDoReschedule:
 1152              	.LFB310:
 1153              		.cfi_startproc
 1154              		@ args = 0, pretend = 0, frame = 0
 1155              		@ frame_needed = 0, uses_anonymous_args = 0
 1156              		@ link register save eliminated.
 1157 0000 0E4B     		ldr	r3, .L82
 1158 0002 1868     		ldr	r0, [r3]
 1159 0004 0268     		ldr	r2, [r0]
 1160 0006 10B4     		push	{r4}
 1161              		.cfi_def_cfa_offset 4
 1162              		.cfi_offset 4, -4
 1163 0008 0121     		movs	r1, #1
 1164 000a 9C69     		ldr	r4, [r3, #24]
 1165 000c 1A60     		str	r2, [r3]
 1166 000e 5360     		str	r3, [r2, #4]
 1167 0010 80F82010 		strb	r1, [r0, #32]
 1168 0014 0022     		movs	r2, #0
 1169 0016 A168     		ldr	r1, [r4, #8]
 1170 0018 84F82020 		strb	r2, [r4, #32]
 1171 001c 9861     		str	r0, [r3, #24]
 1172              	.L79:
 1173 001e 1B68     		ldr	r3, [r3]
 1174 0020 9A68     		ldr	r2, [r3, #8]
 1175 0022 9142     		cmp	r1, r2
 1176 0024 FBD3     		bcc	.L79
 1177 0026 5A68     		ldr	r2, [r3, #4]
 1178 0028 2146     		mov	r1, r4
 1179 002a C4E90032 		strd	r3, r2, [r4]
 1180 002e 1460     		str	r4, [r2]
 1181 0030 5C60     		str	r4, [r3, #4]
 1182 0032 5DF8044B 		ldr	r4, [sp], #4
 1183              		.cfi_restore 4
 1184              		.cfi_def_cfa_offset 0
 1185 0036 FFF7FEBF 		b	_port_switch
 1186              	.L83:
 1187 003a 00BF     		.align	2
 1188              	.L82:
 1189 003c 00000000 		.word	.LANCHOR0
 1190              		.cfi_endproc
 1191              	.LFE310:
 1192              		.size	chSchDoReschedule, .-chSchDoReschedule
 1193              		.global	ch
 1194              		.section	.bss.ch,"aw",%nobits
 1195              		.align	2
 1196              		.set	.LANCHOR0,. + 0
 1197              		.type	ch, %object
ARM GAS  /tmp/cclUEX3Y.s 			page 22


 1198              		.size	ch, 120
 1199              	ch:
 1200 0000 00000000 		.space	120
 1200      00000000 
 1200      00000000 
 1200      00000000 
 1200      00000000 
 1201              		.text
 1202              	.Letext0:
 1203              		.file 5 "/usr/lib/gcc/arm-none-eabi/7.3.1/include/stddef.h"
 1204              		.file 6 "/usr/arm-none-eabi/include/machine/_default_types.h"
 1205              		.file 7 "/usr/arm-none-eabi/include/sys/_stdint.h"
 1206              		.file 8 "./RM18A-ChibiOS18-Core/chibios/os/common/ports/ARMCMx/compilers/GCC/chtypes.h"
 1207              		.file 9 "./RM18A-ChibiOS18-Core/chibios/os/rt/include/chsystypes.h"
 1208              		.file 10 "./RM18A-ChibiOS18-Core/chibios/os/rt/include/chtime.h"
 1209              		.file 11 "./RM18A-ChibiOS18-Core/chibios/os/common/ext/ARM/CMSIS/Core/Include/core_cm4.h"
 1210              		.file 12 "./RM18A-ChibiOS18-Core/chibios/os/common/ext/ST/STM32F4xx/system_stm32f4xx.h"
 1211              		.file 13 "./RM18A-ChibiOS18-Core/chibios/os/common/ports/ARMCMx/chcore.h"
 1212              		.file 14 "./RM18A-ChibiOS18-Core/chibios/os/common/ports/ARMCMx/chcore_v7m.h"
 1213              		.file 15 "./RM18A-ChibiOS18-Core/chibios/os/rt/include/chtm.h"
 1214              		.file 16 "./RM18A-ChibiOS18-Core/chibios/os/rt/include/chmtx.h"
 1215              		.file 17 "./RM18A-ChibiOS18-Core/chibios/os/rt/include/chsys.h"
 1216              		.file 18 "./RM18A-ChibiOS18-Core/chibios/os/rt/include/chregistry.h"
 1217              		.file 19 "./RM18A-ChibiOS18-Core/chibios/os/oslib/include/chmemcore.h"
 1218              		.file 20 "./RM18A-ChibiOS18-Core/chibios/os/oslib/include/chmempools.h"
 1219              		.file 21 "./RM18A-ChibiOS18-Core/chibios/os/oslib/include/chfactory.h"
 1220              		.file 22 "./RM18A-ChibiOS18-Core/chibios/os/rt/include/chvt.h"