ARM GAS  /tmp/ccTzG1nP.s 			page 1


   1              		.cpu cortex-m4
   2              		.eabi_attribute 27, 1
   3              		.eabi_attribute 28, 1
   4              		.eabi_attribute 20, 1
   5              		.eabi_attribute 21, 1
   6              		.eabi_attribute 23, 3
   7              		.eabi_attribute 24, 1
   8              		.eabi_attribute 25, 1
   9              		.eabi_attribute 26, 1
  10              		.eabi_attribute 30, 2
  11              		.eabi_attribute 34, 1
  12              		.eabi_attribute 18, 4
  13              		.file	"chsem.c"
  14              		.text
  15              	.Ltext0:
  16              		.cfi_sections	.debug_frame
  17              		.section	.text.chSemObjectInit,"ax",%progbits
  18              		.align	1
  19              		.p2align 2,,3
  20              		.global	chSemObjectInit
  21              		.syntax unified
  22              		.thumb
  23              		.thumb_func
  24              		.fpu fpv4-sp-d16
  25              		.type	chSemObjectInit, %function
  26              	chSemObjectInit:
  27              	.LFB294:
  28              		.file 1 "./RM18A-ChibiOS18-Core/chibios/os/rt/src/chsem.c"
  29              		.loc 1 97 0
  30              		.cfi_startproc
  31              		@ args = 0, pretend = 0, frame = 0
  32              		@ frame_needed = 0, uses_anonymous_args = 0
  33              		@ link register save eliminated.
  34              	.LVL0:
  35              	.LBB92:
  36              	.LBB93:
  37              		.file 2 "./RM18A-ChibiOS18-Core/chibios/os/rt/include/chschd.h"
  38              		.loc 2 540 0
  39 0000 C0E90000 		strd	r0, r0, [r0]
  40              	.LVL1:
  41              	.LBE93:
  42              	.LBE92:
  43              		.loc 1 102 0
  44 0004 8160     		str	r1, [r0, #8]
  45              		.loc 1 103 0
  46 0006 7047     		bx	lr
  47              		.cfi_endproc
  48              	.LFE294:
  49              		.size	chSemObjectInit, .-chSemObjectInit
  50              		.section	.text.chSemReset,"ax",%progbits
  51              		.align	1
  52              		.p2align 2,,3
  53              		.global	chSemReset
  54              		.syntax unified
  55              		.thumb
  56              		.thumb_func
  57              		.fpu fpv4-sp-d16
ARM GAS  /tmp/ccTzG1nP.s 			page 2


  58              		.type	chSemReset, %function
  59              	chSemReset:
  60              	.LFB295:
  61              		.loc 1 120 0
  62              		.cfi_startproc
  63              		@ args = 0, pretend = 0, frame = 0
  64              		@ frame_needed = 0, uses_anonymous_args = 0
  65              	.LVL2:
  66 0000 70B5     		push	{r4, r5, r6, lr}
  67              		.cfi_def_cfa_offset 16
  68              		.cfi_offset 4, -16
  69              		.cfi_offset 5, -12
  70              		.cfi_offset 6, -8
  71              		.cfi_offset 14, -4
  72              	.LBB107:
  73              	.LBB108:
  74              	.LBB109:
  75              	.LBB110:
  76              		.file 3 "./RM18A-ChibiOS18-Core/chibios/os/common/ext/ARM/CMSIS/Core/Include/cmsis_gcc.h"
  77              		.loc 3 493 0
  78 0002 2023     		movs	r3, #32
  79              		.syntax unified
  80              	@ 493 "./RM18A-ChibiOS18-Core/chibios/os/common/ext/ARM/CMSIS/Core/Include/cmsis_gcc.h" 1
  81 0004 83F31188 		MSR basepri, r3
  82              	@ 0 "" 2
  83              	.LVL3:
  84              		.thumb
  85              		.syntax unified
  86              	.LBE110:
  87              	.LBE109:
  88              	.LBE108:
  89              	.LBE107:
  90              	.LBB111:
  91              	.LBB112:
  92              		.loc 1 156 0
  93 0008 8468     		ldr	r4, [r0, #8]
  94              	.LVL4:
  95              		.loc 1 157 0
  96 000a 8160     		str	r1, [r0, #8]
  97              		.loc 1 158 0
  98 000c 0134     		adds	r4, r4, #1
  99              	.LVL5:
 100 000e 002C     		cmp	r4, #0
 101 0010 0CDC     		bgt	.L4
 102 0012 0546     		mov	r5, r0
 103              		.loc 1 159 0
 104 0014 6FF00106 		mvn	r6, #1
 105              	.LVL6:
 106              	.L5:
 107              	.LBB113:
 108              	.LBB114:
 109              		.loc 2 616 0
 110 0018 6868     		ldr	r0, [r5, #4]
 111              	.LVL7:
 112              		.loc 2 618 0
 113 001a 4368     		ldr	r3, [r0, #4]
 114 001c 6B60     		str	r3, [r5, #4]
ARM GAS  /tmp/ccTzG1nP.s 			page 3


 115              		.loc 2 619 0
 116 001e 1D60     		str	r5, [r3]
 117              	.LVL8:
 118              	.LBE114:
 119              	.LBE113:
 120              		.loc 1 159 0
 121 0020 FFF7FEFF 		bl	chSchReadyI
 122              	.LVL9:
 123              		.loc 1 158 0
 124 0024 0134     		adds	r4, r4, #1
 125              	.LVL10:
 126 0026 012C     		cmp	r4, #1
 127              		.loc 1 159 0
 128 0028 4662     		str	r6, [r0, #36]
 129              	.LVL11:
 130              		.loc 1 158 0
 131 002a F5D1     		bne	.L5
 132              	.LVL12:
 133              	.L4:
 134              	.LBE112:
 135              	.LBE111:
 136              		.loc 1 124 0
 137 002c FFF7FEFF 		bl	chSchRescheduleS
 138              	.LVL13:
 139              	.LBB115:
 140              	.LBB116:
 141              	.LBB117:
 142              	.LBB118:
 143              	.LBB119:
 144              		.loc 3 493 0
 145 0030 0023     		movs	r3, #0
 146              		.syntax unified
 147              	@ 493 "./RM18A-ChibiOS18-Core/chibios/os/common/ext/ARM/CMSIS/Core/Include/cmsis_gcc.h" 1
 148 0032 83F31188 		MSR basepri, r3
 149              	@ 0 "" 2
 150              	.LVL14:
 151              		.thumb
 152              		.syntax unified
 153              	.LBE119:
 154              	.LBE118:
 155              	.LBE117:
 156              	.LBE116:
 157              	.LBE115:
 158              		.loc 1 126 0
 159 0036 70BD     		pop	{r4, r5, r6, pc}
 160              		.cfi_endproc
 161              	.LFE295:
 162              		.size	chSemReset, .-chSemReset
 163              		.section	.text.chSemResetI,"ax",%progbits
 164              		.align	1
 165              		.p2align 2,,3
 166              		.global	chSemResetI
 167              		.syntax unified
 168              		.thumb
 169              		.thumb_func
 170              		.fpu fpv4-sp-d16
 171              		.type	chSemResetI, %function
ARM GAS  /tmp/ccTzG1nP.s 			page 4


 172              	chSemResetI:
 173              	.LFB296:
 174              		.loc 1 147 0
 175              		.cfi_startproc
 176              		@ args = 0, pretend = 0, frame = 0
 177              		@ frame_needed = 0, uses_anonymous_args = 0
 178              	.LVL15:
 179 0000 70B5     		push	{r4, r5, r6, lr}
 180              		.cfi_def_cfa_offset 16
 181              		.cfi_offset 4, -16
 182              		.cfi_offset 5, -12
 183              		.cfi_offset 6, -8
 184              		.cfi_offset 14, -4
 185              		.loc 1 156 0
 186 0002 8568     		ldr	r5, [r0, #8]
 187              	.LVL16:
 188              		.loc 1 157 0
 189 0004 8160     		str	r1, [r0, #8]
 190              		.loc 1 158 0
 191 0006 0135     		adds	r5, r5, #1
 192              	.LVL17:
 193 0008 002D     		cmp	r5, #0
 194 000a 0CDC     		bgt	.L8
 195 000c 0446     		mov	r4, r0
 196              		.loc 1 159 0
 197 000e 6FF00106 		mvn	r6, #1
 198              	.LVL18:
 199              	.L10:
 200              	.LBB120:
 201              	.LBB121:
 202              		.loc 2 616 0
 203 0012 6068     		ldr	r0, [r4, #4]
 204              	.LVL19:
 205              		.loc 2 618 0
 206 0014 4368     		ldr	r3, [r0, #4]
 207 0016 6360     		str	r3, [r4, #4]
 208              		.loc 2 619 0
 209 0018 1C60     		str	r4, [r3]
 210              	.LVL20:
 211              	.LBE121:
 212              	.LBE120:
 213              		.loc 1 159 0
 214 001a FFF7FEFF 		bl	chSchReadyI
 215              	.LVL21:
 216              		.loc 1 158 0
 217 001e 0135     		adds	r5, r5, #1
 218              	.LVL22:
 219 0020 012D     		cmp	r5, #1
 220              		.loc 1 159 0
 221 0022 4662     		str	r6, [r0, #36]
 222              	.LVL23:
 223              		.loc 1 158 0
 224 0024 F5D1     		bne	.L10
 225              	.LVL24:
 226              	.L8:
 227              		.loc 1 161 0
 228 0026 70BD     		pop	{r4, r5, r6, pc}
ARM GAS  /tmp/ccTzG1nP.s 			page 5


 229              		.cfi_endproc
 230              	.LFE296:
 231              		.size	chSemResetI, .-chSemResetI
 232              		.section	.text.chSemWait,"ax",%progbits
 233              		.align	1
 234              		.p2align 2,,3
 235              		.global	chSemWait
 236              		.syntax unified
 237              		.thumb
 238              		.thumb_func
 239              		.fpu fpv4-sp-d16
 240              		.type	chSemWait, %function
 241              	chSemWait:
 242              	.LFB297:
 243              		.loc 1 175 0
 244              		.cfi_startproc
 245              		@ args = 0, pretend = 0, frame = 0
 246              		@ frame_needed = 0, uses_anonymous_args = 0
 247              	.LVL25:
 248              	.LBB137:
 249              	.LBB138:
 250              	.LBB139:
 251              	.LBB140:
 252              		.loc 3 493 0
 253 0000 2023     		movs	r3, #32
 254              		.syntax unified
 255              	@ 493 "./RM18A-ChibiOS18-Core/chibios/os/common/ext/ARM/CMSIS/Core/Include/cmsis_gcc.h" 1
 256 0002 83F31188 		MSR basepri, r3
 257              	@ 0 "" 2
 258              	.LVL26:
 259              		.thumb
 260              		.syntax unified
 261              	.LBE140:
 262              	.LBE139:
 263              	.LBE138:
 264              	.LBE137:
 265              	.LBB141:
 266              	.LBB142:
 267              		.loc 1 205 0
 268 0006 8368     		ldr	r3, [r0, #8]
 269 0008 013B     		subs	r3, r3, #1
 270 000a 002B     		cmp	r3, #0
 271 000c 8360     		str	r3, [r0, #8]
 272 000e 04DB     		blt	.L20
 273              		.loc 1 213 0
 274 0010 0020     		movs	r0, #0
 275              	.LVL27:
 276              	.LBE142:
 277              	.LBE141:
 278              	.LBB152:
 279              	.LBB153:
 280              	.LBB154:
 281              	.LBB155:
 282              	.LBB156:
 283              		.loc 3 493 0
 284 0012 0023     		movs	r3, #0
 285              		.syntax unified
ARM GAS  /tmp/ccTzG1nP.s 			page 6


 286              	@ 493 "./RM18A-ChibiOS18-Core/chibios/os/common/ext/ARM/CMSIS/Core/Include/cmsis_gcc.h" 1
 287 0014 83F31188 		MSR basepri, r3
 288              	@ 0 "" 2
 289              	.LVL28:
 290              		.thumb
 291              		.syntax unified
 292              	.LBE156:
 293              	.LBE155:
 294              	.LBE154:
 295              	.LBE153:
 296              	.LBE152:
 297              		.loc 1 183 0
 298 0018 7047     		bx	lr
 299              	.LVL29:
 300              	.L20:
 301              		.loc 1 175 0
 302 001a 10B5     		push	{r4, lr}
 303              		.cfi_def_cfa_offset 8
 304              		.cfi_offset 4, -8
 305              		.cfi_offset 14, -4
 306              	.LBB161:
 307              	.LBB151:
 308              	.LBB143:
 309              	.LBB144:
 310              		.loc 1 206 0
 311 001c 084C     		ldr	r4, .L21
 312              	.LBB145:
 313              	.LBB146:
 314              		.loc 2 601 0
 315 001e 4168     		ldr	r1, [r0, #4]
 316              	.LBE146:
 317              	.LBE145:
 318              		.loc 1 206 0
 319 0020 A269     		ldr	r2, [r4, #24]
 320 0022 0346     		mov	r3, r0
 321              	.LVL30:
 322 0024 5362     		str	r3, [r2, #36]
 323              	.LVL31:
 324              	.LBB149:
 325              	.LBB147:
 326              		.loc 2 601 0
 327 0026 C2E90031 		strd	r3, r1, [r2]
 328              	.LBE147:
 329              	.LBE149:
 330              		.loc 1 208 0
 331 002a 0520     		movs	r0, #5
 332              	.LVL32:
 333              	.LBB150:
 334              	.LBB148:
 335              		.loc 2 602 0
 336 002c 0A60     		str	r2, [r1]
 337              		.loc 2 603 0
 338 002e 5A60     		str	r2, [r3, #4]
 339              	.LVL33:
 340              	.LBE148:
 341              	.LBE150:
 342              		.loc 1 208 0
ARM GAS  /tmp/ccTzG1nP.s 			page 7


 343 0030 FFF7FEFF 		bl	chSchGoSleepS
 344              	.LVL34:
 345              		.loc 1 210 0
 346 0034 A369     		ldr	r3, [r4, #24]
 347 0036 586A     		ldr	r0, [r3, #36]
 348              	.LVL35:
 349              	.LBE144:
 350              	.LBE143:
 351              	.LBE151:
 352              	.LBE161:
 353              	.LBB162:
 354              	.LBB160:
 355              	.LBB159:
 356              	.LBB158:
 357              	.LBB157:
 358              		.loc 3 493 0
 359 0038 0023     		movs	r3, #0
 360              		.syntax unified
 361              	@ 493 "./RM18A-ChibiOS18-Core/chibios/os/common/ext/ARM/CMSIS/Core/Include/cmsis_gcc.h" 1
 362 003a 83F31188 		MSR basepri, r3
 363              	@ 0 "" 2
 364              	.LVL36:
 365              		.thumb
 366              		.syntax unified
 367              	.LBE157:
 368              	.LBE158:
 369              	.LBE159:
 370              	.LBE160:
 371              	.LBE162:
 372              		.loc 1 183 0
 373 003e 10BD     		pop	{r4, pc}
 374              	.L22:
 375              		.align	2
 376              	.L21:
 377 0040 00000000 		.word	ch
 378              		.cfi_endproc
 379              	.LFE297:
 380              		.size	chSemWait, .-chSemWait
 381              		.section	.text.chSemWaitS,"ax",%progbits
 382              		.align	1
 383              		.p2align 2,,3
 384              		.global	chSemWaitS
 385              		.syntax unified
 386              		.thumb
 387              		.thumb_func
 388              		.fpu fpv4-sp-d16
 389              		.type	chSemWaitS, %function
 390              	chSemWaitS:
 391              	.LFB298:
 392              		.loc 1 197 0
 393              		.cfi_startproc
 394              		@ args = 0, pretend = 0, frame = 0
 395              		@ frame_needed = 0, uses_anonymous_args = 0
 396              	.LVL37:
 397              		.loc 1 205 0
 398 0000 8368     		ldr	r3, [r0, #8]
 399 0002 013B     		subs	r3, r3, #1
ARM GAS  /tmp/ccTzG1nP.s 			page 8


 400 0004 002B     		cmp	r3, #0
 401 0006 8360     		str	r3, [r0, #8]
 402 0008 01DB     		blt	.L30
 403              		.loc 1 213 0
 404 000a 0020     		movs	r0, #0
 405              	.LVL38:
 406              		.loc 1 214 0
 407 000c 7047     		bx	lr
 408              	.LVL39:
 409              	.L30:
 410              		.loc 1 197 0
 411 000e 10B5     		push	{r4, lr}
 412              		.cfi_def_cfa_offset 8
 413              		.cfi_offset 4, -8
 414              		.cfi_offset 14, -4
 415              	.LBB167:
 416              	.LBB168:
 417              		.loc 1 206 0
 418 0010 074C     		ldr	r4, .L31
 419              	.LBB169:
 420              	.LBB170:
 421              		.loc 2 601 0
 422 0012 4168     		ldr	r1, [r0, #4]
 423              	.LBE170:
 424              	.LBE169:
 425              		.loc 1 206 0
 426 0014 A269     		ldr	r2, [r4, #24]
 427 0016 0346     		mov	r3, r0
 428              	.LVL40:
 429 0018 5362     		str	r3, [r2, #36]
 430              	.LVL41:
 431              	.LBB173:
 432              	.LBB171:
 433              		.loc 2 601 0
 434 001a C2E90031 		strd	r3, r1, [r2]
 435              	.LBE171:
 436              	.LBE173:
 437              		.loc 1 208 0
 438 001e 0520     		movs	r0, #5
 439              	.LVL42:
 440              	.LBB174:
 441              	.LBB172:
 442              		.loc 2 602 0
 443 0020 0A60     		str	r2, [r1]
 444              		.loc 2 603 0
 445 0022 5A60     		str	r2, [r3, #4]
 446              	.LVL43:
 447              	.LBE172:
 448              	.LBE174:
 449              		.loc 1 208 0
 450 0024 FFF7FEFF 		bl	chSchGoSleepS
 451              	.LVL44:
 452              		.loc 1 210 0
 453 0028 A369     		ldr	r3, [r4, #24]
 454 002a 586A     		ldr	r0, [r3, #36]
 455              	.LVL45:
 456              	.LBE168:
ARM GAS  /tmp/ccTzG1nP.s 			page 9


 457              	.LBE167:
 458              		.loc 1 214 0
 459 002c 10BD     		pop	{r4, pc}
 460              	.L32:
 461 002e 00BF     		.align	2
 462              	.L31:
 463 0030 00000000 		.word	ch
 464              		.cfi_endproc
 465              	.LFE298:
 466              		.size	chSemWaitS, .-chSemWaitS
 467              		.section	.text.chSemWaitTimeout,"ax",%progbits
 468              		.align	1
 469              		.p2align 2,,3
 470              		.global	chSemWaitTimeout
 471              		.syntax unified
 472              		.thumb
 473              		.thumb_func
 474              		.fpu fpv4-sp-d16
 475              		.type	chSemWaitTimeout, %function
 476              	chSemWaitTimeout:
 477              	.LFB299:
 478              		.loc 1 235 0
 479              		.cfi_startproc
 480              		@ args = 0, pretend = 0, frame = 0
 481              		@ frame_needed = 0, uses_anonymous_args = 0
 482              	.LVL46:
 483              	.LBB190:
 484              	.LBB191:
 485              	.LBB192:
 486              	.LBB193:
 487              		.loc 3 493 0
 488 0000 2023     		movs	r3, #32
 489              		.syntax unified
 490              	@ 493 "./RM18A-ChibiOS18-Core/chibios/os/common/ext/ARM/CMSIS/Core/Include/cmsis_gcc.h" 1
 491 0002 83F31188 		MSR basepri, r3
 492              	@ 0 "" 2
 493              	.LVL47:
 494              		.thumb
 495              		.syntax unified
 496              	.LBE193:
 497              	.LBE192:
 498              	.LBE191:
 499              	.LBE190:
 500              	.LBB194:
 501              	.LBB195:
 502              		.loc 1 272 0
 503 0006 8268     		ldr	r2, [r0, #8]
 504 0008 531E     		subs	r3, r2, #1
 505 000a 002B     		cmp	r3, #0
 506 000c 8360     		str	r3, [r0, #8]
 507 000e 04DB     		blt	.L41
 508              		.loc 1 284 0
 509 0010 0020     		movs	r0, #0
 510              	.LVL48:
 511              	.LBE195:
 512              	.LBE194:
 513              	.LBB206:
ARM GAS  /tmp/ccTzG1nP.s 			page 10


 514              	.LBB207:
 515              	.LBB208:
 516              	.LBB209:
 517              	.LBB210:
 518              		.loc 3 493 0
 519 0012 0023     		movs	r3, #0
 520              		.syntax unified
 521              	@ 493 "./RM18A-ChibiOS18-Core/chibios/os/common/ext/ARM/CMSIS/Core/Include/cmsis_gcc.h" 1
 522 0014 83F31188 		MSR basepri, r3
 523              	@ 0 "" 2
 524              	.LVL49:
 525              		.thumb
 526              		.syntax unified
 527              	.LBE210:
 528              	.LBE209:
 529              	.LBE208:
 530              	.LBE207:
 531              	.LBE206:
 532              		.loc 1 243 0
 533 0018 7047     		bx	lr
 534              	.LVL50:
 535              	.L41:
 536              		.loc 1 235 0
 537 001a 10B5     		push	{r4, lr}
 538              		.cfi_def_cfa_offset 8
 539              		.cfi_offset 4, -8
 540              		.cfi_offset 14, -4
 541              	.LBB215:
 542              	.LBB204:
 543              		.loc 1 273 0
 544 001c 79B1     		cbz	r1, .L42
 545              	.LBB196:
 546              	.LBB197:
 547              		.loc 1 278 0
 548 001e 0A4A     		ldr	r2, .L43
 549              	.LBB198:
 550              	.LBB199:
 551              		.loc 2 601 0
 552 0020 4468     		ldr	r4, [r0, #4]
 553              	.LBE199:
 554              	.LBE198:
 555              		.loc 1 278 0
 556 0022 9269     		ldr	r2, [r2, #24]
 557 0024 0346     		mov	r3, r0
 558              	.LVL51:
 559 0026 5362     		str	r3, [r2, #36]
 560              	.LVL52:
 561              	.LBB202:
 562              	.LBB200:
 563              		.loc 2 601 0
 564 0028 C2E90034 		strd	r3, r4, [r2]
 565              	.LBE200:
 566              	.LBE202:
 567              		.loc 1 281 0
 568 002c 0520     		movs	r0, #5
 569              	.LVL53:
 570              	.LBB203:
ARM GAS  /tmp/ccTzG1nP.s 			page 11


 571              	.LBB201:
 572              		.loc 2 602 0
 573 002e 2260     		str	r2, [r4]
 574              		.loc 2 603 0
 575 0030 5A60     		str	r2, [r3, #4]
 576              	.LVL54:
 577              	.LBE201:
 578              	.LBE203:
 579              		.loc 1 281 0
 580 0032 FFF7FEFF 		bl	chSchGoSleepTimeoutS
 581              	.LVL55:
 582              	.L34:
 583              	.LBE197:
 584              	.LBE196:
 585              	.LBE204:
 586              	.LBE215:
 587              	.LBB216:
 588              	.LBB214:
 589              	.LBB213:
 590              	.LBB212:
 591              	.LBB211:
 592              		.loc 3 493 0
 593 0036 0023     		movs	r3, #0
 594              		.syntax unified
 595              	@ 493 "./RM18A-ChibiOS18-Core/chibios/os/common/ext/ARM/CMSIS/Core/Include/cmsis_gcc.h" 1
 596 0038 83F31188 		MSR basepri, r3
 597              	@ 0 "" 2
 598              	.LVL56:
 599              		.thumb
 600              		.syntax unified
 601              	.LBE211:
 602              	.LBE212:
 603              	.LBE213:
 604              	.LBE214:
 605              	.LBE216:
 606              		.loc 1 243 0
 607 003c 10BD     		pop	{r4, pc}
 608              	.LVL57:
 609              	.L42:
 610              	.LBB217:
 611              	.LBB205:
 612              		.loc 1 274 0
 613 003e 8260     		str	r2, [r0, #8]
 614              		.loc 1 276 0
 615 0040 4FF0FF30 		mov	r0, #-1
 616              	.LVL58:
 617 0044 F7E7     		b	.L34
 618              	.L44:
 619 0046 00BF     		.align	2
 620              	.L43:
 621 0048 00000000 		.word	ch
 622              	.LBE205:
 623              	.LBE217:
 624              		.cfi_endproc
 625              	.LFE299:
 626              		.size	chSemWaitTimeout, .-chSemWaitTimeout
 627              		.section	.text.chSemWaitTimeoutS,"ax",%progbits
ARM GAS  /tmp/ccTzG1nP.s 			page 12


 628              		.align	1
 629              		.p2align 2,,3
 630              		.global	chSemWaitTimeoutS
 631              		.syntax unified
 632              		.thumb
 633              		.thumb_func
 634              		.fpu fpv4-sp-d16
 635              		.type	chSemWaitTimeoutS, %function
 636              	chSemWaitTimeoutS:
 637              	.LFB300:
 638              		.loc 1 264 0
 639              		.cfi_startproc
 640              		@ args = 0, pretend = 0, frame = 0
 641              		@ frame_needed = 0, uses_anonymous_args = 0
 642              		@ link register save eliminated.
 643              	.LVL59:
 644 0000 0346     		mov	r3, r0
 645              		.loc 1 272 0
 646 0002 8068     		ldr	r0, [r0, #8]
 647              	.LVL60:
 648 0004 421E     		subs	r2, r0, #1
 649 0006 002A     		cmp	r2, #0
 650 0008 9A60     		str	r2, [r3, #8]
 651 000a 01DB     		blt	.L53
 652              		.loc 1 284 0
 653 000c 0020     		movs	r0, #0
 654              		.loc 1 285 0
 655 000e 7047     		bx	lr
 656              	.L53:
 657              		.loc 1 264 0
 658 0010 10B4     		push	{r4}
 659              		.cfi_def_cfa_offset 4
 660              		.cfi_offset 4, -4
 661              		.loc 1 273 0
 662 0012 61B1     		cbz	r1, .L54
 663              	.LVL61:
 664              	.LBB222:
 665              	.LBB223:
 666              		.loc 1 278 0
 667 0014 094A     		ldr	r2, .L55
 668              	.LBB224:
 669              	.LBB225:
 670              		.loc 2 601 0
 671 0016 5C68     		ldr	r4, [r3, #4]
 672              	.LBE225:
 673              	.LBE224:
 674              		.loc 1 278 0
 675 0018 9269     		ldr	r2, [r2, #24]
 676              		.loc 1 281 0
 677 001a 0520     		movs	r0, #5
 678              	.LBB228:
 679              	.LBB226:
 680              		.loc 2 601 0
 681 001c C2E90034 		strd	r3, r4, [r2]
 682              	.LBE226:
 683              	.LBE228:
 684              		.loc 1 278 0
ARM GAS  /tmp/ccTzG1nP.s 			page 13


 685 0020 5362     		str	r3, [r2, #36]
 686              	.LVL62:
 687              	.LBB229:
 688              	.LBB227:
 689              		.loc 2 602 0
 690 0022 2260     		str	r2, [r4]
 691              		.loc 2 603 0
 692 0024 5A60     		str	r2, [r3, #4]
 693              	.LVL63:
 694              	.LBE227:
 695              	.LBE229:
 696              	.LBE223:
 697              	.LBE222:
 698              		.loc 1 285 0
 699 0026 5DF8044B 		ldr	r4, [sp], #4
 700              		.cfi_remember_state
 701              		.cfi_restore 4
 702              		.cfi_def_cfa_offset 0
 703              	.LBB231:
 704              	.LBB230:
 705              		.loc 1 281 0
 706 002a FFF7FEBF 		b	chSchGoSleepTimeoutS
 707              	.LVL64:
 708              	.L54:
 709              		.cfi_restore_state
 710              	.LBE230:
 711              	.LBE231:
 712              		.loc 1 274 0
 713 002e 9860     		str	r0, [r3, #8]
 714              		.loc 1 285 0
 715 0030 5DF8044B 		ldr	r4, [sp], #4
 716              		.cfi_restore 4
 717              		.cfi_def_cfa_offset 0
 718              		.loc 1 276 0
 719 0034 4FF0FF30 		mov	r0, #-1
 720              		.loc 1 285 0
 721 0038 7047     		bx	lr
 722              	.L56:
 723 003a 00BF     		.align	2
 724              	.L55:
 725 003c 00000000 		.word	ch
 726              		.cfi_endproc
 727              	.LFE300:
 728              		.size	chSemWaitTimeoutS, .-chSemWaitTimeoutS
 729              		.section	.text.chSemSignal,"ax",%progbits
 730              		.align	1
 731              		.p2align 2,,3
 732              		.global	chSemSignal
 733              		.syntax unified
 734              		.thumb
 735              		.thumb_func
 736              		.fpu fpv4-sp-d16
 737              		.type	chSemSignal, %function
 738              	chSemSignal:
 739              	.LFB301:
 740              		.loc 1 294 0
 741              		.cfi_startproc
ARM GAS  /tmp/ccTzG1nP.s 			page 14


 742              		@ args = 0, pretend = 0, frame = 0
 743              		@ frame_needed = 0, uses_anonymous_args = 0
 744              	.LVL65:
 745 0000 08B5     		push	{r3, lr}
 746              		.cfi_def_cfa_offset 8
 747              		.cfi_offset 3, -8
 748              		.cfi_offset 14, -4
 749              	.LBB232:
 750              	.LBB233:
 751              	.LBB234:
 752              	.LBB235:
 753              		.loc 3 493 0
 754 0002 2023     		movs	r3, #32
 755              		.syntax unified
 756              	@ 493 "./RM18A-ChibiOS18-Core/chibios/os/common/ext/ARM/CMSIS/Core/Include/cmsis_gcc.h" 1
 757 0004 83F31188 		MSR basepri, r3
 758              	@ 0 "" 2
 759              	.LVL66:
 760              		.thumb
 761              		.syntax unified
 762              	.LBE235:
 763              	.LBE234:
 764              	.LBE233:
 765              	.LBE232:
 766              		.loc 1 302 0
 767 0008 8368     		ldr	r3, [r0, #8]
 768 000a 0133     		adds	r3, r3, #1
 769 000c 002B     		cmp	r3, #0
 770 000e 8360     		str	r3, [r0, #8]
 771 0010 03DD     		ble	.L60
 772              	.LVL67:
 773              	.LBB236:
 774              	.LBB237:
 775              	.LBB238:
 776              	.LBB239:
 777              	.LBB240:
 778              		.loc 3 493 0
 779 0012 0023     		movs	r3, #0
 780              		.syntax unified
 781              	@ 493 "./RM18A-ChibiOS18-Core/chibios/os/common/ext/ARM/CMSIS/Core/Include/cmsis_gcc.h" 1
 782 0014 83F31188 		MSR basepri, r3
 783              	@ 0 "" 2
 784              	.LVL68:
 785              		.thumb
 786              		.syntax unified
 787              	.LBE240:
 788              	.LBE239:
 789              	.LBE238:
 790              	.LBE237:
 791              	.LBE236:
 792              		.loc 1 306 0
 793 0018 08BD     		pop	{r3, pc}
 794              	.L60:
 795 001a 0346     		mov	r3, r0
 796              	.LVL69:
 797              	.LBB245:
 798              	.LBB246:
ARM GAS  /tmp/ccTzG1nP.s 			page 15


 799              		.loc 2 607 0
 800 001c 0068     		ldr	r0, [r0]
 801              	.LVL70:
 802              		.loc 2 609 0
 803 001e 0268     		ldr	r2, [r0]
 804 0020 1A60     		str	r2, [r3]
 805              	.LBE246:
 806              	.LBE245:
 807              		.loc 1 303 0
 808 0022 0021     		movs	r1, #0
 809              	.LBB248:
 810              	.LBB247:
 811              		.loc 2 610 0
 812 0024 5360     		str	r3, [r2, #4]
 813              	.LVL71:
 814              	.LBE247:
 815              	.LBE248:
 816              		.loc 1 303 0
 817 0026 FFF7FEFF 		bl	chSchWakeupS
 818              	.LVL72:
 819              	.LBB249:
 820              	.LBB244:
 821              	.LBB243:
 822              	.LBB242:
 823              	.LBB241:
 824              		.loc 3 493 0
 825 002a 0023     		movs	r3, #0
 826              		.syntax unified
 827              	@ 493 "./RM18A-ChibiOS18-Core/chibios/os/common/ext/ARM/CMSIS/Core/Include/cmsis_gcc.h" 1
 828 002c 83F31188 		MSR basepri, r3
 829              	@ 0 "" 2
 830              	.LVL73:
 831              		.thumb
 832              		.syntax unified
 833              	.LBE241:
 834              	.LBE242:
 835              	.LBE243:
 836              	.LBE244:
 837              	.LBE249:
 838              		.loc 1 306 0
 839 0030 08BD     		pop	{r3, pc}
 840              		.cfi_endproc
 841              	.LFE301:
 842              		.size	chSemSignal, .-chSemSignal
 843 0032 00BF     		.section	.text.chSemSignalI,"ax",%progbits
 844              		.align	1
 845              		.p2align 2,,3
 846              		.global	chSemSignalI
 847              		.syntax unified
 848              		.thumb
 849              		.thumb_func
 850              		.fpu fpv4-sp-d16
 851              		.type	chSemSignalI, %function
 852              	chSemSignalI:
 853              	.LFB302:
 854              		.loc 1 319 0
 855              		.cfi_startproc
ARM GAS  /tmp/ccTzG1nP.s 			page 16


 856              		@ args = 0, pretend = 0, frame = 0
 857              		@ frame_needed = 0, uses_anonymous_args = 0
 858              		@ link register save eliminated.
 859              	.LVL74:
 860              		.loc 1 327 0
 861 0000 8368     		ldr	r3, [r0, #8]
 862 0002 0133     		adds	r3, r3, #1
 863 0004 002B     		cmp	r3, #0
 864 0006 8360     		str	r3, [r0, #8]
 865 0008 00DD     		ble	.L63
 866              		.loc 1 334 0
 867 000a 7047     		bx	lr
 868              	.L63:
 869              	.LVL75:
 870              	.LBB250:
 871              	.LBB251:
 872              	.LBB252:
 873              		.loc 2 607 0
 874 000c 0368     		ldr	r3, [r0]
 875              	.LVL76:
 876              		.loc 2 609 0
 877 000e 1A68     		ldr	r2, [r3]
 878 0010 0260     		str	r2, [r0]
 879              	.LBE252:
 880              	.LBE251:
 881              		.loc 1 331 0
 882 0012 0021     		movs	r1, #0
 883              	.LBB254:
 884              	.LBB253:
 885              		.loc 2 610 0
 886 0014 5060     		str	r0, [r2, #4]
 887              	.LVL77:
 888              	.LBE253:
 889              	.LBE254:
 890              		.loc 1 332 0
 891 0016 1846     		mov	r0, r3
 892              	.LVL78:
 893              		.loc 1 331 0
 894 0018 5962     		str	r1, [r3, #36]
 895              		.loc 1 332 0
 896 001a FFF7FEBF 		b	chSchReadyI
 897              	.LVL79:
 898              	.LBE250:
 899              		.cfi_endproc
 900              	.LFE302:
 901              		.size	chSemSignalI, .-chSemSignalI
 902 001e 00BF     		.section	.text.chSemAddCounterI,"ax",%progbits
 903              		.align	1
 904              		.p2align 2,,3
 905              		.global	chSemAddCounterI
 906              		.syntax unified
 907              		.thumb
 908              		.thumb_func
 909              		.fpu fpv4-sp-d16
 910              		.type	chSemAddCounterI, %function
 911              	chSemAddCounterI:
 912              	.LFB303:
ARM GAS  /tmp/ccTzG1nP.s 			page 17


 913              		.loc 1 349 0
 914              		.cfi_startproc
 915              		@ args = 0, pretend = 0, frame = 0
 916              		@ frame_needed = 0, uses_anonymous_args = 0
 917              	.LVL80:
 918 0000 70B5     		push	{r4, r5, r6, lr}
 919              		.cfi_def_cfa_offset 16
 920              		.cfi_offset 4, -16
 921              		.cfi_offset 5, -12
 922              		.cfi_offset 6, -8
 923              		.cfi_offset 14, -4
 924              		.loc 1 357 0
 925 0002 0C1E     		subs	r4, r1, #0
 926 0004 12DD     		ble	.L64
 927 0006 0546     		mov	r5, r0
 928              		.loc 1 359 0
 929 0008 0026     		movs	r6, #0
 930 000a 01E0     		b	.L67
 931              	.LVL81:
 932              	.L66:
 933              		.loc 1 357 0
 934 000c 013C     		subs	r4, r4, #1
 935              	.LVL82:
 936 000e 0DD0     		beq	.L64
 937              	.LVL83:
 938              	.L67:
 939              		.loc 1 358 0
 940 0010 AB68     		ldr	r3, [r5, #8]
 941 0012 0133     		adds	r3, r3, #1
 942 0014 002B     		cmp	r3, #0
 943 0016 AB60     		str	r3, [r5, #8]
 944 0018 F8DC     		bgt	.L66
 945              	.LVL84:
 946              	.LBB255:
 947              	.LBB256:
 948              		.loc 2 607 0
 949 001a 2868     		ldr	r0, [r5]
 950              	.LVL85:
 951              		.loc 2 609 0
 952 001c 0368     		ldr	r3, [r0]
 953 001e 2B60     		str	r3, [r5]
 954              		.loc 2 610 0
 955 0020 5D60     		str	r5, [r3, #4]
 956              	.LVL86:
 957              	.LBE256:
 958              	.LBE255:
 959              		.loc 1 359 0
 960 0022 FFF7FEFF 		bl	chSchReadyI
 961              	.LVL87:
 962              		.loc 1 357 0
 963 0026 013C     		subs	r4, r4, #1
 964              	.LVL88:
 965              		.loc 1 359 0
 966 0028 4662     		str	r6, [r0, #36]
 967              	.LVL89:
 968              		.loc 1 357 0
 969 002a F1D1     		bne	.L67
ARM GAS  /tmp/ccTzG1nP.s 			page 18


 970              	.LVL90:
 971              	.L64:
 972              		.loc 1 363 0
 973 002c 70BD     		pop	{r4, r5, r6, pc}
 974              		.cfi_endproc
 975              	.LFE303:
 976              		.size	chSemAddCounterI, .-chSemAddCounterI
 977 002e 00BF     		.section	.text.chSemSignalWait,"ax",%progbits
 978              		.align	1
 979              		.p2align 2,,3
 980              		.global	chSemSignalWait
 981              		.syntax unified
 982              		.thumb
 983              		.thumb_func
 984              		.fpu fpv4-sp-d16
 985              		.type	chSemSignalWait, %function
 986              	chSemSignalWait:
 987              	.LFB304:
 988              		.loc 1 378 0
 989              		.cfi_startproc
 990              		@ args = 0, pretend = 0, frame = 0
 991              		@ frame_needed = 0, uses_anonymous_args = 0
 992              	.LVL91:
 993 0000 38B5     		push	{r3, r4, r5, lr}
 994              		.cfi_def_cfa_offset 16
 995              		.cfi_offset 3, -16
 996              		.cfi_offset 4, -12
 997              		.cfi_offset 5, -8
 998              		.cfi_offset 14, -4
 999              		.loc 1 378 0
 1000 0002 0C46     		mov	r4, r1
 1001              	.LBB257:
 1002              	.LBB258:
 1003              	.LBB259:
 1004              	.LBB260:
 1005              		.loc 3 493 0
 1006 0004 2023     		movs	r3, #32
 1007              		.syntax unified
 1008              	@ 493 "./RM18A-ChibiOS18-Core/chibios/os/common/ext/ARM/CMSIS/Core/Include/cmsis_gcc.h" 1
 1009 0006 83F31188 		MSR basepri, r3
 1010              	@ 0 "" 2
 1011              	.LVL92:
 1012              		.thumb
 1013              		.syntax unified
 1014              	.LBE260:
 1015              	.LBE259:
 1016              	.LBE258:
 1017              	.LBE257:
 1018              		.loc 1 390 0
 1019 000a 8368     		ldr	r3, [r0, #8]
 1020 000c 0133     		adds	r3, r3, #1
 1021 000e 002B     		cmp	r3, #0
 1022 0010 8360     		str	r3, [r0, #8]
 1023 0012 1BDD     		ble	.L75
 1024              	.LVL93:
 1025              	.L71:
 1026              		.loc 1 393 0
ARM GAS  /tmp/ccTzG1nP.s 			page 19


 1027 0014 A368     		ldr	r3, [r4, #8]
 1028 0016 013B     		subs	r3, r3, #1
 1029 0018 002B     		cmp	r3, #0
 1030 001a A360     		str	r3, [r4, #8]
 1031 001c 06DB     		blt	.L76
 1032              		.loc 1 401 0
 1033 001e FFF7FEFF 		bl	chSchRescheduleS
 1034              	.LVL94:
 1035              		.loc 1 402 0
 1036 0022 0020     		movs	r0, #0
 1037              	.LVL95:
 1038              	.LBB261:
 1039              	.LBB262:
 1040              	.LBB263:
 1041              	.LBB264:
 1042              	.LBB265:
 1043              		.loc 3 493 0
 1044 0024 0023     		movs	r3, #0
 1045              		.syntax unified
 1046              	@ 493 "./RM18A-ChibiOS18-Core/chibios/os/common/ext/ARM/CMSIS/Core/Include/cmsis_gcc.h" 1
 1047 0026 83F31188 		MSR basepri, r3
 1048              	@ 0 "" 2
 1049              	.LVL96:
 1050              		.thumb
 1051              		.syntax unified
 1052              	.LBE265:
 1053              	.LBE264:
 1054              	.LBE263:
 1055              	.LBE262:
 1056              	.LBE261:
 1057              		.loc 1 407 0
 1058 002a 38BD     		pop	{r3, r4, r5, pc}
 1059              	.LVL97:
 1060              	.L76:
 1061              	.LBB270:
 1062              		.loc 1 394 0
 1063 002c 0C4A     		ldr	r2, .L77
 1064              	.LBB271:
 1065              	.LBB272:
 1066              		.loc 2 601 0
 1067 002e 6368     		ldr	r3, [r4, #4]
 1068              	.LBE272:
 1069              	.LBE271:
 1070              		.loc 1 394 0
 1071 0030 9569     		ldr	r5, [r2, #24]
 1072              	.LVL98:
 1073              		.loc 1 397 0
 1074 0032 0520     		movs	r0, #5
 1075              	.LBB274:
 1076              	.LBB273:
 1077              		.loc 2 601 0
 1078 0034 C5E90043 		strd	r4, r3, [r5]
 1079              		.loc 2 602 0
 1080 0038 1D60     		str	r5, [r3]
 1081              		.loc 2 603 0
 1082 003a 6560     		str	r5, [r4, #4]
 1083              	.LVL99:
ARM GAS  /tmp/ccTzG1nP.s 			page 20


 1084              	.LBE273:
 1085              	.LBE274:
 1086              		.loc 1 396 0
 1087 003c 6C62     		str	r4, [r5, #36]
 1088              		.loc 1 397 0
 1089 003e FFF7FEFF 		bl	chSchGoSleepS
 1090              	.LVL100:
 1091              		.loc 1 398 0
 1092 0042 686A     		ldr	r0, [r5, #36]
 1093              	.LVL101:
 1094              	.LBE270:
 1095              	.LBB275:
 1096              	.LBB269:
 1097              	.LBB268:
 1098              	.LBB267:
 1099              	.LBB266:
 1100              		.loc 3 493 0
 1101 0044 0023     		movs	r3, #0
 1102              		.syntax unified
 1103              	@ 493 "./RM18A-ChibiOS18-Core/chibios/os/common/ext/ARM/CMSIS/Core/Include/cmsis_gcc.h" 1
 1104 0046 83F31188 		MSR basepri, r3
 1105              	@ 0 "" 2
 1106              	.LVL102:
 1107              		.thumb
 1108              		.syntax unified
 1109              	.LBE266:
 1110              	.LBE267:
 1111              	.LBE268:
 1112              	.LBE269:
 1113              	.LBE275:
 1114              		.loc 1 407 0
 1115 004a 38BD     		pop	{r3, r4, r5, pc}
 1116              	.LVL103:
 1117              	.L75:
 1118 004c 0246     		mov	r2, r0
 1119              	.LVL104:
 1120              	.LBB276:
 1121              	.LBB277:
 1122              		.loc 2 607 0
 1123 004e 0068     		ldr	r0, [r0]
 1124              	.LVL105:
 1125              		.loc 2 609 0
 1126 0050 0368     		ldr	r3, [r0]
 1127 0052 1360     		str	r3, [r2]
 1128              		.loc 2 610 0
 1129 0054 5A60     		str	r2, [r3, #4]
 1130              	.LVL106:
 1131              	.LBE277:
 1132              	.LBE276:
 1133              		.loc 1 391 0
 1134 0056 FFF7FEFF 		bl	chSchReadyI
 1135              	.LVL107:
 1136 005a 0023     		movs	r3, #0
 1137 005c 4362     		str	r3, [r0, #36]
 1138 005e D9E7     		b	.L71
 1139              	.L78:
 1140              		.align	2
ARM GAS  /tmp/ccTzG1nP.s 			page 21


 1141              	.L77:
 1142 0060 00000000 		.word	ch
 1143              		.cfi_endproc
 1144              	.LFE304:
 1145              		.size	chSemSignalWait, .-chSemSignalWait
 1146              		.text
 1147              	.Letext0:
 1148              		.file 4 "/usr/lib/gcc/arm-none-eabi/7.3.1/include/stddef.h"
 1149              		.file 5 "/usr/arm-none-eabi/include/machine/_default_types.h"
 1150              		.file 6 "/usr/arm-none-eabi/include/sys/_stdint.h"
 1151              		.file 7 "./RM18A-ChibiOS18-Core/chibios/os/common/ports/ARMCMx/compilers/GCC/chtypes.h"
 1152              		.file 8 "./RM18A-ChibiOS18-Core/chibios/os/rt/include/chsystypes.h"
 1153              		.file 9 "./RM18A-ChibiOS18-Core/chibios/os/rt/include/chtime.h"
 1154              		.file 10 "./RM18A-ChibiOS18-Core/chibios/os/common/ext/ARM/CMSIS/Core/Include/core_cm4.h"
 1155              		.file 11 "./RM18A-ChibiOS18-Core/chibios/os/common/ext/ST/STM32F4xx/system_stm32f4xx.h"
 1156              		.file 12 "./RM18A-ChibiOS18-Core/chibios/os/common/ports/ARMCMx/chcore.h"
 1157              		.file 13 "./RM18A-ChibiOS18-Core/chibios/os/common/ports/ARMCMx/chcore_v7m.h"
 1158              		.file 14 "./RM18A-ChibiOS18-Core/chibios/os/rt/include/chtm.h"
 1159              		.file 15 "./RM18A-ChibiOS18-Core/chibios/os/rt/include/chsem.h"
 1160              		.file 16 "./RM18A-ChibiOS18-Core/chibios/os/rt/include/chmtx.h"
 1161              		.file 17 "./RM18A-ChibiOS18-Core/chibios/os/rt/include/chsys.h"
 1162              		.file 18 "./RM18A-ChibiOS18-Core/chibios/os/rt/include/chregistry.h"
 1163              		.file 19 "./RM18A-ChibiOS18-Core/chibios/os/oslib/include/chmemcore.h"
 1164              		.file 20 "./RM18A-ChibiOS18-Core/chibios/os/oslib/include/chmempools.h"
 1165              		.file 21 "./RM18A-ChibiOS18-Core/chibios/os/oslib/include/chfactory.h"