ARM GAS  /tmp/cctpEyJf.s 			page 1


   1              		.cpu cortex-m4
   2              		.eabi_attribute 27, 1
   3              		.eabi_attribute 28, 1
   4              		.eabi_attribute 20, 1
   5              		.eabi_attribute 21, 1
   6              		.eabi_attribute 23, 3
   7              		.eabi_attribute 24, 1
   8              		.eabi_attribute 25, 1
   9              		.eabi_attribute 26, 1
  10              		.eabi_attribute 30, 2
  11              		.eabi_attribute 34, 1
  12              		.eabi_attribute 18, 4
  13              		.file	"chsys.c"
  14              		.text
  15              	.Ltext0:
  16              		.cfi_sections	.debug_frame
  17              		.section	.text._idle_thread,"ax",%progbits
  18              		.align	1
  19              		.p2align 2,,3
  20              		.syntax unified
  21              		.thumb
  22              		.thumb_func
  23              		.fpu fpv4-sp-d16
  24              		.type	_idle_thread, %function
  25              	_idle_thread:
  26              	.LFB294:
  27              		.file 1 "./RM18A-ChibiOS18-Core/chibios/os/rt/src/chsys.c"
  28              		.loc 1 72 0
  29              		.cfi_startproc
  30              		@ Volatile: function does not return.
  31              		@ args = 0, pretend = 0, frame = 0
  32              		@ frame_needed = 0, uses_anonymous_args = 0
  33              		@ link register save eliminated.
  34              	.LVL0:
  35              	.L2:
  36 0000 FEE7     		b	.L2
  37              		.cfi_endproc
  38              	.LFE294:
  39              		.size	_idle_thread, .-_idle_thread
  40 0002 00BF     		.section	.text.chSysInit,"ax",%progbits
  41              		.align	1
  42              		.p2align 2,,3
  43              		.global	chSysInit
  44              		.syntax unified
  45              		.thumb
  46              		.thumb_func
  47              		.fpu fpv4-sp-d16
  48              		.type	chSysInit, %function
  49              	chSysInit:
  50              	.LFB295:
  51              		.loc 1 100 0
  52              		.cfi_startproc
  53              		@ args = 0, pretend = 0, frame = 0
  54              		@ frame_needed = 0, uses_anonymous_args = 0
  55              		.loc 1 100 0
  56 0000 F8B5     		push	{r3, r4, r5, r6, r7, lr}
  57              		.cfi_def_cfa_offset 24
ARM GAS  /tmp/cctpEyJf.s 			page 2


  58              		.cfi_offset 3, -24
  59              		.cfi_offset 4, -20
  60              		.cfi_offset 5, -16
  61              		.cfi_offset 6, -12
  62              		.cfi_offset 7, -8
  63              		.cfi_offset 14, -4
  64              		.loc 1 103 0
  65 0002 204C     		ldr	r4, .L8
  66 0004 2378     		ldrb	r3, [r4]	@ zero_extendqisi2
  67 0006 03B1     		cbz	r3, .L7
  68              		.loc 1 188 0
  69 0008 F8BD     		pop	{r3, r4, r5, r6, r7, pc}
  70              	.L7:
  71 000a 03F0FF05 		and	r5, r3, #255
  72              		.loc 1 105 0
  73 000e FFF7FEFF 		bl	_scheduler_init
  74              	.LVL1:
  75              		.loc 1 106 0
  76 0012 FFF7FEFF 		bl	_vt_init
  77              	.LVL2:
  78              		.loc 1 114 0
  79 0016 FFF7FEFF 		bl	_tm_init
  80              	.LVL3:
  81              		.loc 1 117 0
  82 001a FFF7FEFF 		bl	_core_init
  83              	.LVL4:
  84              		.loc 1 120 0
  85 001e FFF7FEFF 		bl	_heap_init
  86              	.LVL5:
  87              		.loc 1 123 0
  88 0022 FFF7FEFF 		bl	_factory_init
  89              	.LVL6:
  90              		.loc 1 132 0
  91 0026 8022     		movs	r2, #128
  92 0028 1749     		ldr	r1, .L8+4
  93 002a 1848     		ldr	r0, .L8+8
  94 002c FFF7FEFF 		bl	_thread_init
  95              	.LVL7:
  96              		.loc 1 153 0
  97 0030 0126     		movs	r6, #1
  98              	.LBB156:
  99              	.LBB157:
 100              	.LBB158:
 101              	.LBB159:
 102              		.file 2 "./RM18A-ChibiOS18-Core/chibios/os/common/ext/ARM/CMSIS/Core/Include/core_cm4.h"
 103              		.loc 2 1662 0
 104 0032 174B     		ldr	r3, .L8+12
 105              	.LBE159:
 106              	.LBE158:
 107              	.LBE157:
 108              	.LBE156:
 109              		.loc 1 153 0
 110 0034 80F82060 		strb	r6, [r0, #32]
 111              	.LVL8:
 112              	.LBB180:
 113              	.LBB176:
 114              	.LBB164:
ARM GAS  /tmp/cctpEyJf.s 			page 3


 115              	.LBB160:
 116              		.loc 2 1662 0
 117 0038 D968     		ldr	r1, [r3, #12]
 118              	.LVL9:
 119              		.loc 2 1664 0
 120 003a 164A     		ldr	r2, .L8+16
 121              	.LBE160:
 122              	.LBE164:
 123              	.LBE176:
 124              	.LBE180:
 125              		.loc 1 149 0
 126 003c C561     		str	r5, [r0, #28]
 127              	.LBB181:
 128              	.LBB177:
 129              	.LBB165:
 130              	.LBB161:
 131              		.loc 2 1663 0
 132 003e 4FF6FF07 		movw	r7, #63743
 133 0042 3940     		ands	r1, r1, r7
 134              	.LVL10:
 135              	.LBE161:
 136              	.LBE165:
 137              		.file 3 "./RM18A-ChibiOS18-Core/chibios/os/common/ports/ARMCMx/chcore_v7m.h"
 138              		.loc 3 520 0
 139 0044 07F16047 		add	r7, r7, #-536870912
 140              	.LBB166:
 141              	.LBB162:
 142              		.loc 2 1664 0
 143 0048 0A43     		orrs	r2, r2, r1
 144              	.LVL11:
 145              	.LBE162:
 146              	.LBE166:
 147              		.loc 3 520 0
 148 004a A7F60F37 		subw	r7, r7, #2831
 149              	.LBB167:
 150              	.LBB163:
 151              		.loc 2 1667 0
 152 004e DA60     		str	r2, [r3, #12]
 153              	.LVL12:
 154              	.LBE163:
 155              	.LBE167:
 156              		.loc 3 520 0
 157 0050 FA68     		ldr	r2, [r7, #12]
 158              		.loc 3 524 0
 159 0052 1149     		ldr	r1, .L8+20
 160              	.LBE177:
 161              	.LBE181:
 162              		.loc 1 132 0
 163 0054 DFF848C0 		ldr	ip, .L8+28
 164              	.LBB182:
 165              	.LBB178:
 166              		.loc 3 520 0
 167 0058 42F08072 		orr	r2, r2, #16777216
 168 005c FA60     		str	r2, [r7, #12]
 169              		.loc 3 524 0
 170 005e 0A68     		ldr	r2, [r1]
 171              	.LBE178:
ARM GAS  /tmp/cctpEyJf.s 			page 4


 172              	.LBE182:
 173              		.loc 1 132 0
 174 0060 CCF81800 		str	r0, [ip, #24]
 175              	.LBB183:
 176              	.LBB179:
 177              		.loc 3 524 0
 178 0064 3243     		orrs	r2, r2, r6
 179 0066 0A60     		str	r2, [r1]
 180              	.LVL13:
 181              	.LBB168:
 182              	.LBB169:
 183              		.loc 2 1824 0
 184 0068 1020     		movs	r0, #16
 185              	.LBE169:
 186              	.LBE168:
 187              	.LBB171:
 188              	.LBB172:
 189 006a 2022     		movs	r2, #32
 190              	.LBE172:
 191              	.LBE171:
 192              	.LBB174:
 193              	.LBB170:
 194 006c D877     		strb	r0, [r3, #31]
 195              	.LVL14:
 196              	.LBE170:
 197              	.LBE174:
 198              	.LBB175:
 199              	.LBB173:
 200 006e 83F82220 		strb	r2, [r3, #34]
 201              	.LVL15:
 202              	.LBE173:
 203              	.LBE175:
 204              	.LBE179:
 205              	.LBE183:
 206              	.LBB184:
 207              	.LBB185:
 208              	.LBB186:
 209              	.LBB187:
 210              		.file 4 "./RM18A-ChibiOS18-Core/chibios/os/common/ext/ARM/CMSIS/Core/Include/cmsis_gcc.h"
 211              		.loc 4 493 0
 212              		.syntax unified
 213              	@ 493 "./RM18A-ChibiOS18-Core/chibios/os/common/ext/ARM/CMSIS/Core/Include/cmsis_gcc.h" 1
 214 0072 85F31188 		MSR basepri, r5
 215              	@ 0 "" 2
 216              	.LVL16:
 217              		.thumb
 218              		.syntax unified
 219              	.LBE187:
 220              	.LBE186:
 221              	.LBB188:
 222              	.LBB189:
 223              		.loc 4 131 0
 224              		.syntax unified
 225              	@ 131 "./RM18A-ChibiOS18-Core/chibios/os/common/ext/ARM/CMSIS/Core/Include/cmsis_gcc.h" 1
 226 0076 62B6     		cpsie i
 227              	@ 0 "" 2
 228              		.thumb
ARM GAS  /tmp/cctpEyJf.s 			page 5


 229              		.syntax unified
 230              	.LBE189:
 231              	.LBE188:
 232              	.LBE185:
 233              	.LBE184:
 234              	.LBB190:
 235              		.loc 1 184 0
 236 0078 0848     		ldr	r0, .L8+24
 237 007a FFF7FEFF 		bl	chThdCreate
 238              	.LVL17:
 239              	.LBE190:
 240              		.loc 1 187 0
 241 007e 2670     		strb	r6, [r4]
 242              		.loc 1 188 0
 243 0080 F8BD     		pop	{r3, r4, r5, r6, r7, pc}
 244              	.L9:
 245 0082 00BF     		.align	2
 246              	.L8:
 247 0084 00000000 		.word	.LANCHOR0
 248 0088 00000000 		.word	ch_debug
 249 008c 30000000 		.word	ch+48
 250 0090 00ED00E0 		.word	-536810240
 251 0094 0003FA05 		.word	100270848
 252 0098 001000E0 		.word	-536866816
 253 009c 00000000 		.word	.LANCHOR1
 254 00a0 00000000 		.word	ch
 255              		.cfi_endproc
 256              	.LFE295:
 257              		.size	chSysInit, .-chSysInit
 258              		.section	.text.chSysHalt,"ax",%progbits
 259              		.align	1
 260              		.p2align 2,,3
 261              		.global	chSysHalt
 262              		.syntax unified
 263              		.thumb
 264              		.thumb_func
 265              		.fpu fpv4-sp-d16
 266              		.type	chSysHalt, %function
 267              	chSysHalt:
 268              	.LFB296:
 269              		.loc 1 202 0
 270              		.cfi_startproc
 271              		@ Volatile: function does not return.
 272              		@ args = 0, pretend = 0, frame = 0
 273              		@ frame_needed = 0, uses_anonymous_args = 0
 274              		@ link register save eliminated.
 275              	.LVL18:
 276              	.LBB191:
 277              	.LBB192:
 278              	.LBB193:
 279              		.loc 4 142 0
 280              		.syntax unified
 281              	@ 142 "./RM18A-ChibiOS18-Core/chibios/os/common/ext/ARM/CMSIS/Core/Include/cmsis_gcc.h" 1
 282 0000 72B6     		cpsid i
 283              	@ 0 "" 2
 284              		.thumb
 285              		.syntax unified
ARM GAS  /tmp/cctpEyJf.s 			page 6


 286              	.LBE193:
 287              	.LBE192:
 288              	.LBE191:
 289              		.loc 1 210 0
 290 0002 014B     		ldr	r3, .L12
 291 0004 D862     		str	r0, [r3, #44]
 292              	.L11:
 293 0006 FEE7     		b	.L11
 294              	.L13:
 295              		.align	2
 296              	.L12:
 297 0008 00000000 		.word	ch
 298              		.cfi_endproc
 299              	.LFE296:
 300              		.size	chSysHalt, .-chSysHalt
 301              		.section	.text.chSysIntegrityCheckI,"ax",%progbits
 302              		.align	1
 303              		.p2align 2,,3
 304              		.global	chSysIntegrityCheckI
 305              		.syntax unified
 306              		.thumb
 307              		.thumb_func
 308              		.fpu fpv4-sp-d16
 309              		.type	chSysIntegrityCheckI, %function
 310              	chSysIntegrityCheckI:
 311              	.LFB297:
 312              		.loc 1 244 0
 313              		.cfi_startproc
 314              		@ args = 0, pretend = 0, frame = 0
 315              		@ frame_needed = 0, uses_anonymous_args = 0
 316              		@ link register save eliminated.
 317              	.LVL19:
 318              		.loc 1 250 0
 319 0000 C207     		lsls	r2, r0, #31
 320              		.loc 1 244 0
 321 0002 10B4     		push	{r4}
 322              		.cfi_def_cfa_offset 4
 323              		.cfi_offset 4, -4
 324              		.loc 1 250 0
 325 0004 12D5     		bpl	.L15
 326              	.LVL20:
 327              	.LBB194:
 328              		.loc 1 255 0
 329 0006 2A4B     		ldr	r3, .L58
 330 0008 D3E90014 		ldrd	r1, r4, [r3]
 331              		.loc 1 256 0
 332 000c 9942     		cmp	r1, r3
 333 000e 43D0     		beq	.L16
 334              		.loc 1 254 0
 335 0010 0022     		movs	r2, #0
 336              	.LVL21:
 337              	.L17:
 338              		.loc 1 258 0
 339 0012 0968     		ldr	r1, [r1]
 340              	.LVL22:
 341              		.loc 1 256 0
 342 0014 9942     		cmp	r1, r3
ARM GAS  /tmp/cctpEyJf.s 			page 7


 343              		.loc 1 257 0
 344 0016 02F10102 		add	r2, r2, #1
 345              	.LVL23:
 346              		.loc 1 256 0
 347 001a FAD1     		bne	.L17
 348              	.LVL24:
 349              		.loc 1 263 0
 350 001c 8C42     		cmp	r4, r1
 351 001e 37D0     		beq	.L41
 352              	.LVL25:
 353              	.L21:
 354              		.loc 1 265 0
 355 0020 6468     		ldr	r4, [r4, #4]
 356              	.LVL26:
 357              		.loc 1 263 0
 358 0022 9C42     		cmp	r4, r3
 359              		.loc 1 264 0
 360 0024 02F1FF32 		add	r2, r2, #-1
 361              	.LVL27:
 362              		.loc 1 263 0
 363 0028 FAD1     		bne	.L21
 364              		.loc 1 269 0
 365 002a 8ABB     		cbnz	r2, .L41
 366              	.LVL28:
 367              	.L15:
 368              	.LBE194:
 369              		.loc 1 275 0
 370 002c 8307     		lsls	r3, r0, #30
 371 002e 13D5     		bpl	.L22
 372              	.LVL29:
 373              	.LBB195:
 374              		.loc 1 280 0
 375 0030 1F4C     		ldr	r4, .L58
 376 0032 D4E90721 		ldrd	r2, r1, [r4, #28]
 377              		.loc 1 281 0
 378 0036 1C34     		adds	r4, r4, #28
 379 0038 A242     		cmp	r2, r4
 380 003a 31D0     		beq	.L23
 381              		.loc 1 279 0
 382 003c 0023     		movs	r3, #0
 383              	.LVL30:
 384              	.L24:
 385              		.loc 1 283 0
 386 003e 1268     		ldr	r2, [r2]
 387              	.LVL31:
 388              		.loc 1 281 0
 389 0040 A242     		cmp	r2, r4
 390              		.loc 1 282 0
 391 0042 03F10103 		add	r3, r3, #1
 392              	.LVL32:
 393              		.loc 1 281 0
 394 0046 FAD1     		bne	.L24
 395              	.LVL33:
 396              		.loc 1 288 0
 397 0048 9142     		cmp	r1, r2
 398 004a 21D0     		beq	.L41
 399              	.LVL34:
ARM GAS  /tmp/cctpEyJf.s 			page 8


 400              	.L27:
 401              		.loc 1 290 0
 402 004c 4968     		ldr	r1, [r1, #4]
 403              	.LVL35:
 404              		.loc 1 288 0
 405 004e A142     		cmp	r1, r4
 406              		.loc 1 289 0
 407 0050 03F1FF33 		add	r3, r3, #-1
 408              	.LVL36:
 409              		.loc 1 288 0
 410 0054 FAD1     		bne	.L27
 411              		.loc 1 294 0
 412 0056 DBB9     		cbnz	r3, .L41
 413              	.LVL37:
 414              	.L22:
 415              	.LBE195:
 416              		.loc 1 300 0
 417 0058 10F00400 		ands	r0, r0, #4
 418              	.LVL38:
 419 005c 15D0     		beq	.L20
 420              	.LVL39:
 421              	.LBB196:
 422              		.loc 1 305 0
 423 005e 144B     		ldr	r3, .L58
 424 0060 D3E90421 		ldrd	r2, r1, [r3, #16]
 425              		.loc 1 306 0
 426 0064 9A42     		cmp	r2, r3
 427              		.loc 1 304 0
 428 0066 4FF00000 		mov	r0, #0
 429              		.loc 1 306 0
 430 006a 1DD0     		beq	.L28
 431              	.LVL40:
 432              	.L29:
 433              		.loc 1 308 0
 434 006c 1269     		ldr	r2, [r2, #16]
 435              	.LVL41:
 436              		.loc 1 306 0
 437 006e 9A42     		cmp	r2, r3
 438              		.loc 1 307 0
 439 0070 00F10100 		add	r0, r0, #1
 440              	.LVL42:
 441              		.loc 1 306 0
 442 0074 FAD1     		bne	.L29
 443              	.LVL43:
 444              		.loc 1 313 0
 445 0076 9142     		cmp	r1, r2
 446 0078 0AD0     		beq	.L41
 447              	.LVL44:
 448              	.L32:
 449              		.loc 1 315 0
 450 007a 4969     		ldr	r1, [r1, #20]
 451              	.LVL45:
 452              		.loc 1 313 0
 453 007c 9942     		cmp	r1, r3
 454              		.loc 1 314 0
 455 007e 00F1FF30 		add	r0, r0, #-1
 456              	.LVL46:
ARM GAS  /tmp/cctpEyJf.s 			page 9


 457              		.loc 1 313 0
 458 0082 FAD1     		bne	.L32
 459              		.loc 1 319 0
 460 0084 0030     		adds	r0, r0, #0
 461 0086 18BF     		it	ne
 462 0088 0120     		movne	r0, #1
 463              	.LVL47:
 464              	.L20:
 465              	.LBE196:
 466              		.loc 1 332 0
 467 008a 5DF8044B 		ldr	r4, [sp], #4
 468              		.cfi_remember_state
 469              		.cfi_restore 4
 470              		.cfi_def_cfa_offset 0
 471 008e 7047     		bx	lr
 472              	.L41:
 473              		.cfi_restore_state
 474              	.LBB197:
 475              		.loc 1 270 0
 476 0090 0120     		movs	r0, #1
 477              	.LBE197:
 478              		.loc 1 332 0
 479 0092 5DF8044B 		ldr	r4, [sp], #4
 480              		.cfi_remember_state
 481              		.cfi_restore 4
 482              		.cfi_def_cfa_offset 0
 483 0096 7047     		bx	lr
 484              	.LVL48:
 485              	.L16:
 486              		.cfi_restore_state
 487              	.LBB198:
 488              		.loc 1 263 0
 489 0098 9C42     		cmp	r4, r3
 490 009a C7D0     		beq	.L15
 491              		.loc 1 254 0
 492 009c 0022     		movs	r2, #0
 493 009e BFE7     		b	.L21
 494              	.LVL49:
 495              	.L23:
 496              	.LBE198:
 497              	.LBB199:
 498              		.loc 1 288 0
 499 00a0 A142     		cmp	r1, r4
 500 00a2 D9D0     		beq	.L22
 501              		.loc 1 279 0
 502 00a4 0023     		movs	r3, #0
 503 00a6 D1E7     		b	.L27
 504              	.LVL50:
 505              	.L28:
 506              	.LBE199:
 507              	.LBB200:
 508              		.loc 1 313 0
 509 00a8 9142     		cmp	r1, r2
 510 00aa E6D1     		bne	.L32
 511 00ac EDE7     		b	.L20
 512              	.L59:
 513 00ae 00BF     		.align	2
ARM GAS  /tmp/cctpEyJf.s 			page 10


 514              	.L58:
 515 00b0 00000000 		.word	ch
 516              	.LBE200:
 517              		.cfi_endproc
 518              	.LFE297:
 519              		.size	chSysIntegrityCheckI, .-chSysIntegrityCheckI
 520              		.section	.text.chSysTimerHandlerI,"ax",%progbits
 521              		.align	1
 522              		.p2align 2,,3
 523              		.global	chSysTimerHandlerI
 524              		.syntax unified
 525              		.thumb
 526              		.thumb_func
 527              		.fpu fpv4-sp-d16
 528              		.type	chSysTimerHandlerI, %function
 529              	chSysTimerHandlerI:
 530              	.LFB298:
 531              		.loc 1 345 0
 532              		.cfi_startproc
 533              		@ args = 0, pretend = 0, frame = 0
 534              		@ frame_needed = 0, uses_anonymous_args = 0
 535 0000 2DE9F84F 		push	{r3, r4, r5, r6, r7, r8, r9, r10, fp, lr}
 536              		.cfi_def_cfa_offset 40
 537              		.cfi_offset 3, -40
 538              		.cfi_offset 4, -36
 539              		.cfi_offset 5, -32
 540              		.cfi_offset 6, -28
 541              		.cfi_offset 7, -24
 542              		.cfi_offset 8, -20
 543              		.cfi_offset 9, -16
 544              		.cfi_offset 10, -12
 545              		.cfi_offset 11, -8
 546              		.cfi_offset 14, -4
 547              	.LBB226:
 548              	.LBB227:
 549              		.file 5 "./RM18A-ChibiOS18-Core/chibios/os/rt/include/chvt.h"
 550              		.loc 5 399 0
 551 0004 1D4D     		ldr	r5, .L70
 552 0006 AA46     		mov	r10, r5
 553              	.LBB228:
 554              	.LBB229:
 555              	.LBB230:
 556              	.LBB231:
 557              		.file 6 "./RM18A-ChibiOS18-Core/chibios/os/hal/ports/STM32/LLD/TIMv1/hal_st_lld.h"
 558              		.loc 6 147 0
 559 0008 4FF08048 		mov	r8, #1073741824
 560              	.LBE231:
 561              	.LBE230:
 562              	.LBE229:
 563              	.LBE228:
 564              		.loc 5 399 0
 565 000c 5AF81C4F 		ldr	r4, [r10, #28]!
 566              	.LVL51:
 567 0010 A368     		ldr	r3, [r4, #8]
 568              	.LBB235:
 569              	.LBB236:
 570              	.LBB237:
ARM GAS  /tmp/cctpEyJf.s 			page 11


 571              	.LBB238:
 572              	.LBB239:
 573              	.LBB240:
 574              		.loc 4 493 0
 575 0012 2027     		movs	r7, #32
 576              	.L65:
 577              	.LBE240:
 578              	.LBE239:
 579              	.LBE238:
 580              	.LBE237:
 581              	.LBE236:
 582              	.LBE235:
 583              	.LBB253:
 584              	.LBB234:
 585              	.LBB233:
 586              	.LBB232:
 587              		.loc 6 147 0
 588 0014 D8F82400 		ldr	r0, [r8, #36]
 589              	.LBE232:
 590              	.LBE233:
 591              	.LBE234:
 592              	.LBE253:
 593              		.loc 5 404 0
 594 0018 AA6A     		ldr	r2, [r5, #40]
 595              	.LVL52:
 596              	.LBB254:
 597              	.LBB255:
 598              		.file 7 "./RM18A-ChibiOS18-Core/chibios/os/rt/include/chtime.h"
 599              		.loc 7 464 0
 600 001a A0EB0209 		sub	r9, r0, r2
 601              	.LVL53:
 602              	.LBE255:
 603              	.LBE254:
 604              		.loc 5 409 0
 605 001e 9945     		cmp	r9, r3
 606 0020 1CD3     		bcc	.L61
 607              	.LBB256:
 608              		.loc 5 424 0
 609 0022 0026     		movs	r6, #0
 610 0024 0AE0     		b	.L66
 611              	.LVL54:
 612              	.L62:
 613              	.LBB245:
 614              	.LBB246:
 615              	.LBB247:
 616              	.LBB248:
 617              	.LBB249:
 618              		.loc 4 493 0
 619              		.syntax unified
 620              	@ 493 "./RM18A-ChibiOS18-Core/chibios/os/common/ext/ARM/CMSIS/Core/Include/cmsis_gcc.h" 1
 621 0026 86F31188 		MSR basepri, r6
 622              	@ 0 "" 2
 623              	.LVL55:
 624              		.thumb
 625              		.syntax unified
 626              	.LBE249:
 627              	.LBE248:
ARM GAS  /tmp/cctpEyJf.s 			page 12


 628              	.LBE247:
 629              	.LBE246:
 630              	.LBE245:
 631              		.loc 5 433 0
 632 002a 2069     		ldr	r0, [r4, #16]
 633 002c D847     		blx	fp
 634              	.LVL56:
 635              	.LBB250:
 636              	.LBB244:
 637              	.LBB243:
 638              	.LBB242:
 639              	.LBB241:
 640              		.loc 4 493 0
 641              		.syntax unified
 642              	@ 493 "./RM18A-ChibiOS18-Core/chibios/os/common/ext/ARM/CMSIS/Core/Include/cmsis_gcc.h" 1
 643 002e 87F31188 		MSR basepri, r7
 644              	@ 0 "" 2
 645              	.LVL57:
 646              		.thumb
 647              		.syntax unified
 648              	.LBE241:
 649              	.LBE242:
 650              	.LBE243:
 651              	.LBE244:
 652              	.LBE250:
 653              		.loc 5 437 0
 654 0032 EC69     		ldr	r4, [r5, #28]
 655              	.LVL58:
 656              	.LBE256:
 657              		.loc 5 439 0
 658 0034 A368     		ldr	r3, [r4, #8]
 659 0036 9945     		cmp	r9, r3
 660 0038 ECD3     		bcc	.L65
 661 003a AA6A     		ldr	r2, [r5, #40]
 662              	.LVL59:
 663              	.L66:
 664              	.LBB257:
 665              		.loc 5 421 0
 666 003c 2168     		ldr	r1, [r4]
 667              		.loc 5 423 0
 668 003e D4F80CB0 		ldr	fp, [r4, #12]
 669              		.loc 5 418 0
 670 0042 1A44     		add	r2, r2, r3
 671              		.loc 5 427 0
 672 0044 5145     		cmp	r1, r10
 673              		.loc 5 418 0
 674 0046 AA62     		str	r2, [r5, #40]
 675              		.loc 5 419 0
 676 0048 A9EB0309 		sub	r9, r9, r3
 677              	.LVL60:
 678              		.loc 5 421 0
 679 004c C1F804A0 		str	r10, [r1, #4]
 680              		.loc 5 422 0
 681 0050 E961     		str	r1, [r5, #28]
 682              		.loc 5 424 0
 683 0052 E660     		str	r6, [r4, #12]
 684              		.loc 5 427 0
ARM GAS  /tmp/cctpEyJf.s 			page 13


 685 0054 E7D1     		bne	.L62
 686              	.LBB251:
 687              	.LBB252:
 688              		.file 8 "./RM18A-ChibiOS18-Core/chibios/os/common/ports/ARMCMx/chcore_timer.h"
 689              		.loc 8 83 0
 690 0056 FFF7FEFF 		bl	stStopAlarm
 691              	.LVL61:
 692 005a E4E7     		b	.L62
 693              	.LVL62:
 694              	.L61:
 695              	.LBE252:
 696              	.LBE251:
 697              	.LBE257:
 698              		.loc 5 443 0
 699 005c 5445     		cmp	r4, r10
 700 005e 0BD0     		beq	.L60
 701              		.loc 5 450 0
 702 0060 A3EB0903 		sub	r3, r3, r9
 703              		.loc 5 449 0
 704 0064 A862     		str	r0, [r5, #40]
 705              	.LBB258:
 706              	.LBB259:
 707              		.loc 8 95 0
 708 0066 022B     		cmp	r3, #2
 709 0068 2CBF     		ite	cs
 710 006a C018     		addcs	r0, r0, r3
 711 006c 0230     		addcc	r0, r0, #2
 712              	.LBE259:
 713              	.LBE258:
 714              		.loc 5 450 0
 715 006e A360     		str	r3, [r4, #8]
 716              	.LVL63:
 717              	.LBE227:
 718              	.LBE226:
 719              		.loc 1 361 0
 720 0070 BDE8F84F 		pop	{r3, r4, r5, r6, r7, r8, r9, r10, fp, lr}
 721              		.cfi_remember_state
 722              		.cfi_restore 14
 723              		.cfi_restore 11
 724              		.cfi_restore 10
 725              		.cfi_restore 9
 726              		.cfi_restore 8
 727              		.cfi_restore 7
 728              		.cfi_restore 6
 729              		.cfi_restore 5
 730              		.cfi_restore 4
 731              		.cfi_restore 3
 732              		.cfi_def_cfa_offset 0
 733              	.LVL64:
 734              	.LBB263:
 735              	.LBB262:
 736              	.LBB261:
 737              	.LBB260:
 738              		.loc 8 95 0
 739 0074 FFF7FEBF 		b	stSetAlarm
 740              	.LVL65:
 741              	.L60:
ARM GAS  /tmp/cctpEyJf.s 			page 14


 742              		.cfi_restore_state
 743              	.LBE260:
 744              	.LBE261:
 745              	.LBE262:
 746              	.LBE263:
 747              		.loc 1 361 0
 748 0078 BDE8F88F 		pop	{r3, r4, r5, r6, r7, r8, r9, r10, fp, pc}
 749              	.LVL66:
 750              	.L71:
 751              		.align	2
 752              	.L70:
 753 007c 00000000 		.word	ch
 754              		.cfi_endproc
 755              	.LFE298:
 756              		.size	chSysTimerHandlerI, .-chSysTimerHandlerI
 757              		.section	.text.chSysGetStatusAndLockX,"ax",%progbits
 758              		.align	1
 759              		.p2align 2,,3
 760              		.global	chSysGetStatusAndLockX
 761              		.syntax unified
 762              		.thumb
 763              		.thumb_func
 764              		.fpu fpv4-sp-d16
 765              		.type	chSysGetStatusAndLockX, %function
 766              	chSysGetStatusAndLockX:
 767              	.LFB299:
 768              		.loc 1 376 0
 769              		.cfi_startproc
 770              		@ args = 0, pretend = 0, frame = 0
 771              		@ frame_needed = 0, uses_anonymous_args = 0
 772              		@ link register save eliminated.
 773              	.LBB264:
 774              	.LBB265:
 775              	.LBB266:
 776              	.LBB267:
 777              		.loc 4 465 0
 778              		.syntax unified
 779              	@ 465 "./RM18A-ChibiOS18-Core/chibios/os/common/ext/ARM/CMSIS/Core/Include/cmsis_gcc.h" 1
 780 0000 EFF31180 		MRS r0, basepri
 781              	@ 0 "" 2
 782              		.thumb
 783              		.syntax unified
 784              	.LBE267:
 785              	.LBE266:
 786              	.LBE265:
 787              	.LBE264:
 788              		.loc 1 379 0
 789 0004 20B9     		cbnz	r0, .L72
 790              	.LBB268:
 791              	.LBB269:
 792              	.LBB270:
 793              	.LBB271:
 794              		.loc 4 209 0
 795              		.syntax unified
 796              	@ 209 "./RM18A-ChibiOS18-Core/chibios/os/common/ext/ARM/CMSIS/Core/Include/cmsis_gcc.h" 1
 797 0006 EFF30583 		MRS r3, ipsr
 798              	@ 0 "" 2
ARM GAS  /tmp/cctpEyJf.s 			page 15


 799              	.LVL67:
 800              		.thumb
 801              		.syntax unified
 802              	.LBE271:
 803              	.LBE270:
 804              	.LBE269:
 805              	.LBE268:
 806              	.LBB272:
 807              	.LBB273:
 808              	.LBB274:
 809              	.LBB275:
 810              		.loc 4 493 0
 811 000a 2023     		movs	r3, #32
 812              		.syntax unified
 813              	@ 493 "./RM18A-ChibiOS18-Core/chibios/os/common/ext/ARM/CMSIS/Core/Include/cmsis_gcc.h" 1
 814 000c 83F31188 		MSR basepri, r3
 815              	@ 0 "" 2
 816              	.LVL68:
 817              		.thumb
 818              		.syntax unified
 819              	.L72:
 820              	.LBE275:
 821              	.LBE274:
 822              	.LBE273:
 823              	.LBE272:
 824              		.loc 1 388 0
 825 0010 7047     		bx	lr
 826              		.cfi_endproc
 827              	.LFE299:
 828              		.size	chSysGetStatusAndLockX, .-chSysGetStatusAndLockX
 829 0012 00BF     		.section	.text.chSysRestoreStatusX,"ax",%progbits
 830              		.align	1
 831              		.p2align 2,,3
 832              		.global	chSysRestoreStatusX
 833              		.syntax unified
 834              		.thumb
 835              		.thumb_func
 836              		.fpu fpv4-sp-d16
 837              		.type	chSysRestoreStatusX, %function
 838              	chSysRestoreStatusX:
 839              	.LFB300:
 840              		.loc 1 399 0
 841              		.cfi_startproc
 842              		@ args = 0, pretend = 0, frame = 0
 843              		@ frame_needed = 0, uses_anonymous_args = 0
 844              	.LVL69:
 845              		.loc 1 401 0
 846 0000 40B9     		cbnz	r0, .L79
 847              		.loc 1 399 0
 848 0002 10B5     		push	{r4, lr}
 849              		.cfi_def_cfa_offset 8
 850              		.cfi_offset 4, -8
 851              		.cfi_offset 14, -4
 852              	.LBB276:
 853              	.LBB277:
 854              	.LBB278:
 855              	.LBB279:
ARM GAS  /tmp/cctpEyJf.s 			page 16


 856              		.loc 4 209 0
 857              		.syntax unified
 858              	@ 209 "./RM18A-ChibiOS18-Core/chibios/os/common/ext/ARM/CMSIS/Core/Include/cmsis_gcc.h" 1
 859 0004 EFF30584 		MRS r4, ipsr
 860              	@ 0 "" 2
 861              		.thumb
 862              		.syntax unified
 863              	.LBE279:
 864              	.LBE278:
 865              		.loc 3 594 0
 866 0008 C4F30804 		ubfx	r4, r4, #0, #9
 867              	.LBE277:
 868              	.LBE276:
 869              		.loc 1 402 0
 870 000c 1CB1     		cbz	r4, .L77
 871              	.LVL70:
 872              	.LBB280:
 873              	.LBB281:
 874              	.LBB282:
 875              	.LBB283:
 876              	.LBB284:
 877              		.loc 4 493 0
 878              		.syntax unified
 879              	@ 493 "./RM18A-ChibiOS18-Core/chibios/os/common/ext/ARM/CMSIS/Core/Include/cmsis_gcc.h" 1
 880 000e 80F31188 		MSR basepri, r0
 881              	@ 0 "" 2
 882              	.LVL71:
 883              		.thumb
 884              		.syntax unified
 885              	.LBE284:
 886              	.LBE283:
 887              	.LBE282:
 888              	.LBE281:
 889              	.LBE280:
 890              		.loc 1 410 0
 891 0012 10BD     		pop	{r4, pc}
 892              	.L79:
 893              		.cfi_def_cfa_offset 0
 894              		.cfi_restore 4
 895              		.cfi_restore 14
 896 0014 7047     		bx	lr
 897              	.L77:
 898              		.cfi_def_cfa_offset 8
 899              		.cfi_offset 4, -8
 900              		.cfi_offset 14, -4
 901              		.loc 1 406 0
 902 0016 FFF7FEFF 		bl	chSchRescheduleS
 903              	.LVL72:
 904              	.LBB285:
 905              	.LBB286:
 906              	.LBB287:
 907              	.LBB288:
 908              	.LBB289:
 909              		.loc 4 493 0
 910              		.syntax unified
 911              	@ 493 "./RM18A-ChibiOS18-Core/chibios/os/common/ext/ARM/CMSIS/Core/Include/cmsis_gcc.h" 1
 912 001a 84F31188 		MSR basepri, r4
ARM GAS  /tmp/cctpEyJf.s 			page 17


 913              	@ 0 "" 2
 914              	.LVL73:
 915              		.thumb
 916              		.syntax unified
 917              	.LBE289:
 918              	.LBE288:
 919              	.LBE287:
 920              	.LBE286:
 921              	.LBE285:
 922              		.loc 1 410 0
 923 001e 10BD     		pop	{r4, pc}
 924              		.cfi_endproc
 925              	.LFE300:
 926              		.size	chSysRestoreStatusX, .-chSysRestoreStatusX
 927              		.section	.text.chSysIsCounterWithinX,"ax",%progbits
 928              		.align	1
 929              		.p2align 2,,3
 930              		.global	chSysIsCounterWithinX
 931              		.syntax unified
 932              		.thumb
 933              		.thumb_func
 934              		.fpu fpv4-sp-d16
 935              		.type	chSysIsCounterWithinX, %function
 936              	chSysIsCounterWithinX:
 937              	.LFB301:
 938              		.loc 1 431 0
 939              		.cfi_startproc
 940              		@ args = 0, pretend = 0, frame = 0
 941              		@ frame_needed = 0, uses_anonymous_args = 0
 942              		@ link register save eliminated.
 943              	.LVL74:
 944              		.loc 1 433 0
 945 0000 401A     		subs	r0, r0, r1
 946              	.LVL75:
 947 0002 521A     		subs	r2, r2, r1
 948              	.LVL76:
 949              		.loc 1 434 0
 950 0004 9042     		cmp	r0, r2
 951 0006 2CBF     		ite	cs
 952 0008 0020     		movcs	r0, #0
 953 000a 0120     		movcc	r0, #1
 954 000c 7047     		bx	lr
 955              		.cfi_endproc
 956              	.LFE301:
 957              		.size	chSysIsCounterWithinX, .-chSysIsCounterWithinX
 958 000e 00BF     		.section	.text.chSysPolledDelayX,"ax",%progbits
 959              		.align	1
 960              		.p2align 2,,3
 961              		.global	chSysPolledDelayX
 962              		.syntax unified
 963              		.thumb
 964              		.thumb_func
 965              		.fpu fpv4-sp-d16
 966              		.type	chSysPolledDelayX, %function
 967              	chSysPolledDelayX:
 968              	.LFB302:
 969              		.loc 1 447 0
ARM GAS  /tmp/cctpEyJf.s 			page 18


 970              		.cfi_startproc
 971              		@ args = 0, pretend = 0, frame = 0
 972              		@ frame_needed = 0, uses_anonymous_args = 0
 973              		@ link register save eliminated.
 974              	.LVL77:
 975              	.LBB290:
 976              	.LBB291:
 977              		.loc 3 716 0
 978 0000 034A     		ldr	r2, .L86
 979 0002 5168     		ldr	r1, [r2, #4]
 980              	.LVL78:
 981              	.L84:
 982              	.LBE291:
 983              	.LBE290:
 984              	.LBB292:
 985              	.LBB293:
 986              		.loc 3 716 0 is_stmt 0 discriminator 1
 987 0004 5368     		ldr	r3, [r2, #4]
 988              	.LBE293:
 989              	.LBE292:
 990              	.LBB294:
 991              	.LBB295:
 992              		.loc 1 433 0 is_stmt 1 discriminator 1
 993 0006 5B1A     		subs	r3, r3, r1
 994              	.LBE295:
 995              	.LBE294:
 996              		.loc 1 451 0 discriminator 1
 997 0008 9842     		cmp	r0, r3
 998 000a FBD8     		bhi	.L84
 999              		.loc 1 453 0
 1000 000c 7047     		bx	lr
 1001              	.L87:
 1002 000e 00BF     		.align	2
 1003              	.L86:
 1004 0010 001000E0 		.word	-536866816
 1005              		.cfi_endproc
 1006              	.LFE302:
 1007              		.size	chSysPolledDelayX, .-chSysPolledDelayX
 1008              		.global	ch_idle_thread_wa
 1009              		.section	.bss.ch_idle_thread_wa,"aw",%nobits
 1010              		.align	3
 1011              		.type	ch_idle_thread_wa, %object
 1012              		.size	ch_idle_thread_wa, 352
 1013              	ch_idle_thread_wa:
 1014 0000 00000000 		.space	352
 1014      00000000 
 1014      00000000 
 1014      00000000 
 1014      00000000 
 1015              		.section	.bss.started.8235,"aw",%nobits
 1016              		.set	.LANCHOR0,. + 0
 1017              		.type	started.8235, %object
 1018              		.size	started.8235, 1
 1019              	started.8235:
 1020 0000 00       		.space	1
 1021              		.section	.rodata.idle_descriptor.8236,"a",%progbits
 1022              		.align	2
ARM GAS  /tmp/cctpEyJf.s 			page 19


 1023              		.set	.LANCHOR1,. + 0
 1024              		.type	idle_descriptor.8236, %object
 1025              		.size	idle_descriptor.8236, 24
 1026              	idle_descriptor.8236:
 1027 0000 00000000 		.word	.LC0
 1028 0004 00000000 		.word	ch_idle_thread_wa
 1029 0008 60010000 		.word	ch_idle_thread_wa+352
 1030 000c 01000000 		.word	1
 1031 0010 00000000 		.word	_idle_thread
 1032 0014 00000000 		.word	0
 1033              		.section	.rodata.str1.4,"aMS",%progbits,1
 1034              		.align	2
 1035              	.LC0:
 1036 0000 69646C65 		.ascii	"idle\000"
 1036      00
 1037              		.text
 1038              	.Letext0:
 1039              		.file 9 "/usr/lib/gcc/arm-none-eabi/7.3.1/include/stddef.h"
 1040              		.file 10 "/usr/arm-none-eabi/include/machine/_default_types.h"
 1041              		.file 11 "/usr/arm-none-eabi/include/sys/_stdint.h"
 1042              		.file 12 "./RM18A-ChibiOS18-Core/chibios/os/common/ports/ARMCMx/compilers/GCC/chtypes.h"
 1043              		.file 13 "./RM18A-ChibiOS18-Core/chibios/os/rt/include/chsystypes.h"
 1044              		.file 14 "./RM18A-ChibiOS18-Core/chibios/os/rt/include/chschd.h"
 1045              		.file 15 "./RM18A-ChibiOS18-Core/chibios/os/common/ext/ST/STM32F4xx/stm32f427xx.h"
 1046              		.file 16 "./RM18A-ChibiOS18-Core/chibios/os/common/ext/ST/STM32F4xx/system_stm32f4xx.h"
 1047              		.file 17 "./RM18A-ChibiOS18-Core/chibios/os/common/ports/ARMCMx/chcore.h"
 1048              		.file 18 "./RM18A-ChibiOS18-Core/chibios/os/hal/ports/STM32/LLD/TIMv1/stm32_tim.h"
 1049              		.file 19 "./RM18A-ChibiOS18-Core/chibios/os/rt/include/chtm.h"
 1050              		.file 20 "./RM18A-ChibiOS18-Core/chibios/os/rt/include/chsem.h"
 1051              		.file 21 "./RM18A-ChibiOS18-Core/chibios/os/rt/include/chmtx.h"
 1052              		.file 22 "./RM18A-ChibiOS18-Core/chibios/os/rt/include/chsys.h"
 1053              		.file 23 "./RM18A-ChibiOS18-Core/chibios/os/rt/include/chthreads.h"
 1054              		.file 24 "./RM18A-ChibiOS18-Core/chibios/os/rt/include/chregistry.h"
 1055              		.file 25 "./RM18A-ChibiOS18-Core/chibios/os/oslib/include/chmemcore.h"
 1056              		.file 26 "./RM18A-ChibiOS18-Core/chibios/os/oslib/include/chmempools.h"
 1057              		.file 27 "./RM18A-ChibiOS18-Core/chibios/os/oslib/include/chfactory.h"
 1058              		.file 28 "./RM18A-ChibiOS18-Core/chibios/os/hal/include/hal_st.h"
 1059              		.file 29 "./RM18A-ChibiOS18-Core/chibios/os/oslib/include/chmemheaps.h"