ARM GAS  /tmp/ccXxJuLU.s 			page 1


   1              		.cpu cortex-m4
   2              		.eabi_attribute 27, 1
   3              		.eabi_attribute 28, 1
   4              		.eabi_attribute 20, 1
   5              		.eabi_attribute 21, 1
   6              		.eabi_attribute 23, 3
   7              		.eabi_attribute 24, 1
   8              		.eabi_attribute 25, 1
   9              		.eabi_attribute 26, 1
  10              		.eabi_attribute 30, 2
  11              		.eabi_attribute 34, 1
  12              		.eabi_attribute 18, 4
  13              		.file	"chvt.c"
  14              		.text
  15              	.Ltext0:
  16              		.cfi_sections	.debug_frame
  17              		.section	.text._vt_init,"ax",%progbits
  18              		.align	1
  19              		.p2align 2,,3
  20              		.global	_vt_init
  21              		.syntax unified
  22              		.thumb
  23              		.thumb_func
  24              		.fpu fpv4-sp-d16
  25              		.type	_vt_init, %function
  26              	_vt_init:
  27              	.LFB294:
  28              		.file 1 "./RM18A-ChibiOS18-Core/chibios/os/rt/src/chvt.c"
  29              		.loc 1 61 0
  30              		.cfi_startproc
  31              		@ args = 0, pretend = 0, frame = 0
  32              		@ frame_needed = 0, uses_anonymous_args = 0
  33              		@ link register save eliminated.
  34              		.loc 1 63 0
  35 0000 054B     		ldr	r3, .L3
  36              		.loc 1 65 0
  37 0002 4FF0FF30 		mov	r0, #-1
  38              		.loc 1 69 0
  39 0006 0021     		movs	r1, #0
  40              		.loc 1 63 0
  41 0008 03F11C02 		add	r2, r3, #28
  42              		.loc 1 69 0
  43 000c C3E90901 		strd	r0, r1, [r3, #36]
  44              		.loc 1 64 0
  45 0010 C3E90722 		strd	r2, r2, [r3, #28]
  46              		.loc 1 71 0
  47 0014 7047     		bx	lr
  48              	.L4:
  49 0016 00BF     		.align	2
  50              	.L3:
  51 0018 00000000 		.word	ch
  52              		.cfi_endproc
  53              	.LFE294:
  54              		.size	_vt_init, .-_vt_init
  55              		.section	.text.chVTDoSetI,"ax",%progbits
  56              		.align	1
  57              		.p2align 2,,3
ARM GAS  /tmp/ccXxJuLU.s 			page 2


  58              		.global	chVTDoSetI
  59              		.syntax unified
  60              		.thumb
  61              		.thumb_func
  62              		.fpu fpv4-sp-d16
  63              		.type	chVTDoSetI, %function
  64              	chVTDoSetI:
  65              	.LFB295:
  66              		.loc 1 96 0
  67              		.cfi_startproc
  68              		@ args = 0, pretend = 0, frame = 0
  69              		@ frame_needed = 0, uses_anonymous_args = 0
  70              	.LVL0:
  71 0000 F8B5     		push	{r3, r4, r5, r6, r7, lr}
  72              		.cfi_def_cfa_offset 24
  73              		.cfi_offset 3, -24
  74              		.cfi_offset 4, -20
  75              		.cfi_offset 5, -16
  76              		.cfi_offset 6, -12
  77              		.cfi_offset 7, -8
  78              		.cfi_offset 14, -4
  79              	.LBB40:
  80              		.loc 1 117 0
  81 0002 1F4F     		ldr	r7, .L19
  82 0004 BC46     		mov	ip, r7
  83 0006 0229     		cmp	r1, #2
  84 0008 5CF81C5F 		ldr	r5, [ip, #28]!
  85              	.LBE40:
  86              		.loc 1 103 0
  87 000c 0361     		str	r3, [r0, #16]
  88              	.LBB58:
  89              	.LBB41:
  90              	.LBB42:
  91              	.LBB43:
  92              	.LBB44:
  93              		.file 2 "./RM18A-ChibiOS18-Core/chibios/os/hal/ports/STM32/LLD/TIMv1/hal_st_lld.h"
  94              		.loc 2 147 0
  95 000e 4FF08043 		mov	r3, #1073741824
  96              	.LVL1:
  97 0012 38BF     		it	cc
  98 0014 0221     		movcc	r1, #2
  99              	.LVL2:
 100              	.LBE44:
 101              	.LBE43:
 102              	.LBE42:
 103              	.LBE41:
 104              		.loc 1 117 0
 105 0016 6545     		cmp	r5, ip
 106              	.LBE58:
 107              		.loc 1 96 0
 108 0018 0646     		mov	r6, r0
 109              		.loc 1 104 0
 110 001a C260     		str	r2, [r0, #12]
 111              	.LBB59:
 112              	.LBB48:
 113              	.LBB47:
 114              	.LBB46:
ARM GAS  /tmp/ccXxJuLU.s 			page 3


 115              	.LBB45:
 116              		.loc 2 147 0
 117 001c 5C6A     		ldr	r4, [r3, #36]
 118              	.LVL3:
 119              	.LBE45:
 120              	.LBE46:
 121              	.LBE47:
 122              	.LBE48:
 123              		.loc 1 117 0
 124 001e 1ED0     		beq	.L16
 125              	.LVL4:
 126              		.loc 1 146 0
 127 0020 B86A     		ldr	r0, [r7, #40]
 128              	.LVL5:
 129 0022 AB68     		ldr	r3, [r5, #8]
 130              	.LBB49:
 131              	.LBB50:
 132              		.file 3 "./RM18A-ChibiOS18-Core/chibios/os/rt/include/chtime.h"
 133              		.loc 3 464 0
 134 0024 241A     		subs	r4, r4, r0
 135 0026 6418     		adds	r4, r4, r1
 136              	.LVL6:
 137              	.LBE50:
 138              	.LBE49:
 139              		.loc 1 148 0
 140 0028 15D2     		bcs	.L17
 141              		.loc 1 155 0
 142 002a 9C42     		cmp	r4, r3
 143 002c 22D3     		bcc	.L18
 144              	.LVL7:
 145              	.L10:
 146              	.LBE59:
 147              		.loc 1 180 0
 148 002e A342     		cmp	r3, r4
 149 0030 04D2     		bcs	.L12
 150              	.L11:
 151              		.loc 1 185 0
 152 0032 2D68     		ldr	r5, [r5]
 153              	.LVL8:
 154              		.loc 1 184 0
 155 0034 E41A     		subs	r4, r4, r3
 156              	.LVL9:
 157              		.loc 1 180 0
 158 0036 AB68     		ldr	r3, [r5, #8]
 159 0038 A342     		cmp	r3, r4
 160 003a FAD3     		bcc	.L11
 161              	.L12:
 162              		.loc 1 190 0
 163 003c 6B68     		ldr	r3, [r5, #4]
 164 003e C6E90053 		strd	r5, r3, [r6]
 165              		.loc 1 191 0
 166 0042 1E60     		str	r6, [r3]
 167              		.loc 1 192 0
 168 0044 6E60     		str	r6, [r5, #4]
 169              		.loc 1 193 0
 170 0046 B460     		str	r4, [r6, #8]
 171              		.loc 1 196 0
ARM GAS  /tmp/ccXxJuLU.s 			page 4


 172 0048 AB68     		ldr	r3, [r5, #8]
 173              		.loc 1 200 0
 174 004a 4FF0FF32 		mov	r2, #-1
 175              		.loc 1 196 0
 176 004e 1C1B     		subs	r4, r3, r4
 177              	.LVL10:
 178 0050 AC60     		str	r4, [r5, #8]
 179              	.LVL11:
 180              		.loc 1 200 0
 181 0052 7A62     		str	r2, [r7, #36]
 182              		.loc 1 201 0
 183 0054 F8BD     		pop	{r3, r4, r5, r6, r7, pc}
 184              	.LVL12:
 185              	.L17:
 186              	.LBB60:
 187              		.loc 1 153 0
 188 0056 2D68     		ldr	r5, [r5]
 189              	.LVL13:
 190              		.loc 1 152 0
 191 0058 E41A     		subs	r4, r4, r3
 192              	.LVL14:
 193 005a AB68     		ldr	r3, [r5, #8]
 194 005c E7E7     		b	.L10
 195              	.LVL15:
 196              	.L16:
 197              		.loc 1 123 0
 198 005e C7E90700 		strd	r0, r0, [r7, #28]
 199              		.loc 1 121 0
 200 0062 BC62     		str	r4, [r7, #40]
 201              	.LBB51:
 202              	.LBB52:
 203              		.file 4 "./RM18A-ChibiOS18-Core/chibios/os/common/ports/ARMCMx/chcore_timer.h"
 204              		.loc 4 73 0
 205 0064 6018     		adds	r0, r4, r1
 206              	.LVL16:
 207              	.LBE52:
 208              	.LBE51:
 209              		.loc 1 125 0
 210 0066 C6E90055 		strd	r5, r5, [r6]
 211              		.loc 1 126 0
 212 006a B160     		str	r1, [r6, #8]
 213              	.LBE60:
 214              		.loc 1 201 0
 215 006c BDE8F840 		pop	{r3, r4, r5, r6, r7, lr}
 216              		.cfi_remember_state
 217              		.cfi_restore 14
 218              		.cfi_restore 7
 219              		.cfi_restore 6
 220              		.cfi_restore 5
 221              		.cfi_restore 4
 222              		.cfi_restore 3
 223              		.cfi_def_cfa_offset 0
 224              	.LVL17:
 225              	.LBB61:
 226              	.LBB54:
 227              	.LBB53:
 228              		.loc 4 73 0
ARM GAS  /tmp/ccXxJuLU.s 			page 5


 229 0070 FFF7FEBF 		b	stStartAlarm
 230              	.LVL18:
 231              	.L18:
 232              		.cfi_restore_state
 233              	.LBE53:
 234              	.LBE54:
 235              	.LBB55:
 236              	.LBB56:
 237              	.LBB57:
 238              		.loc 4 95 0
 239 0074 2044     		add	r0, r0, r4
 240 0076 FFF7FEFF 		bl	stSetAlarm
 241              	.LVL19:
 242 007a AB68     		ldr	r3, [r5, #8]
 243 007c D7E7     		b	.L10
 244              	.L20:
 245 007e 00BF     		.align	2
 246              	.L19:
 247 0080 00000000 		.word	ch
 248              	.LBE57:
 249              	.LBE56:
 250              	.LBE55:
 251              	.LBE61:
 252              		.cfi_endproc
 253              	.LFE295:
 254              		.size	chVTDoSetI, .-chVTDoSetI
 255              		.section	.text.chVTDoResetI,"ax",%progbits
 256              		.align	1
 257              		.p2align 2,,3
 258              		.global	chVTDoResetI
 259              		.syntax unified
 260              		.thumb
 261              		.thumb_func
 262              		.fpu fpv4-sp-d16
 263              		.type	chVTDoResetI, %function
 264              	chVTDoResetI:
 265              	.LFB296:
 266              		.loc 1 211 0
 267              		.cfi_startproc
 268              		@ args = 0, pretend = 0, frame = 0
 269              		@ frame_needed = 0, uses_anonymous_args = 0
 270              		@ link register save eliminated.
 271              	.LVL20:
 272              		.loc 1 235 0
 273 0000 1B4B     		ldr	r3, .L30
 274 0002 DA69     		ldr	r2, [r3, #28]
 275 0004 8242     		cmp	r2, r0
 276              		.loc 1 211 0
 277 0006 10B4     		push	{r4}
 278              		.cfi_def_cfa_offset 4
 279              		.cfi_offset 4, -4
 280              		.loc 1 235 0
 281 0008 10D0     		beq	.L22
 282              		.loc 1 237 0
 283 000a D0E90021 		ldrd	r2, r1, [r0]
 284 000e 0A60     		str	r2, [r1]
 285              		.loc 1 238 0
ARM GAS  /tmp/ccXxJuLU.s 			page 6


 286 0010 0268     		ldr	r2, [r0]
 287              		.loc 1 242 0
 288 0012 1C33     		adds	r3, r3, #28
 289              		.loc 1 239 0
 290 0014 0024     		movs	r4, #0
 291              		.loc 1 242 0
 292 0016 9A42     		cmp	r2, r3
 293              		.loc 1 238 0
 294 0018 5160     		str	r1, [r2, #4]
 295              		.loc 1 239 0
 296 001a C460     		str	r4, [r0, #12]
 297              		.loc 1 242 0
 298 001c 03D0     		beq	.L21
 299              		.loc 1 243 0
 300 001e 8168     		ldr	r1, [r0, #8]
 301 0020 9368     		ldr	r3, [r2, #8]
 302 0022 0B44     		add	r3, r3, r1
 303 0024 9360     		str	r3, [r2, #8]
 304              	.LVL21:
 305              	.L21:
 306              		.loc 1 297 0
 307 0026 5DF8044B 		ldr	r4, [sp], #4
 308              		.cfi_remember_state
 309              		.cfi_restore 4
 310              		.cfi_def_cfa_offset 0
 311 002a 7047     		bx	lr
 312              	.LVL22:
 313              	.L22:
 314              		.cfi_restore_state
 315              		.loc 1 249 0
 316 002c 1846     		mov	r0, r3
 317              	.LVL23:
 318 002e 1168     		ldr	r1, [r2]
 319 0030 40F81C1F 		str	r1, [r0, #28]!
 320              		.loc 1 251 0
 321 0034 0024     		movs	r4, #0
 322              		.loc 1 254 0
 323 0036 8142     		cmp	r1, r0
 324              		.loc 1 250 0
 325 0038 4860     		str	r0, [r1, #4]
 326              		.loc 1 251 0
 327 003a D460     		str	r4, [r2, #12]
 328              		.loc 1 254 0
 329 003c 13D0     		beq	.L29
 330              		.loc 1 261 0
 331 003e 9468     		ldr	r4, [r2, #8]
 332 0040 8A68     		ldr	r2, [r1, #8]
 333              		.loc 1 270 0
 334 0042 986A     		ldr	r0, [r3, #40]
 335              		.loc 1 261 0
 336 0044 1444     		add	r4, r4, r2
 337              	.LBB62:
 338              	.LBB63:
 339              	.LBB64:
 340              	.LBB65:
 341              		.loc 2 147 0
 342 0046 4FF08042 		mov	r2, #1073741824
ARM GAS  /tmp/ccXxJuLU.s 			page 7


 343              	.LBE65:
 344              	.LBE64:
 345              	.LBE63:
 346              	.LBE62:
 347              		.loc 1 261 0
 348 004a 8C60     		str	r4, [r1, #8]
 349              	.LBB69:
 350              	.LBB68:
 351              	.LBB67:
 352              	.LBB66:
 353              		.loc 2 147 0
 354 004c 526A     		ldr	r2, [r2, #36]
 355              	.LVL24:
 356              	.LBE66:
 357              	.LBE67:
 358              	.LBE68:
 359              	.LBE69:
 360              	.LBB70:
 361              	.LBB71:
 362              		.loc 3 464 0
 363 004e 121A     		subs	r2, r2, r0
 364              	.LVL25:
 365              	.LBE71:
 366              	.LBE70:
 367              		.loc 1 274 0
 368 0050 9442     		cmp	r4, r2
 369 0052 E8D9     		bls	.L21
 370              	.LVL26:
 371              		.loc 1 279 0
 372 0054 A11A     		subs	r1, r4, r2
 373              	.LVL27:
 374              		.loc 1 283 0
 375 0056 0129     		cmp	r1, #1
 376              		.loc 1 284 0
 377 0058 98BF     		it	ls
 378 005a 941C     		addls	r4, r2, #2
 379              	.LVL28:
 380              	.LBB72:
 381              	.LBB73:
 382              		.loc 4 95 0
 383 005c 2044     		add	r0, r0, r4
 384              	.LBE73:
 385              	.LBE72:
 386              		.loc 1 297 0
 387 005e 5DF8044B 		ldr	r4, [sp], #4
 388              		.cfi_remember_state
 389              		.cfi_restore 4
 390              		.cfi_def_cfa_offset 0
 391              	.LVL29:
 392              	.LBB75:
 393              	.LBB74:
 394              		.loc 4 95 0
 395 0062 FFF7FEBF 		b	stSetAlarm
 396              	.LVL30:
 397              	.L29:
 398              		.cfi_restore_state
 399              	.LBE74:
ARM GAS  /tmp/ccXxJuLU.s 			page 8


 400              	.LBE75:
 401              		.loc 1 297 0
 402 0066 5DF8044B 		ldr	r4, [sp], #4
 403              		.cfi_restore 4
 404              		.cfi_def_cfa_offset 0
 405              	.LBB76:
 406              	.LBB77:
 407              		.loc 4 83 0
 408 006a FFF7FEBF 		b	stStopAlarm
 409              	.LVL31:
 410              	.L31:
 411 006e 00BF     		.align	2
 412              	.L30:
 413 0070 00000000 		.word	ch
 414              	.LBE77:
 415              	.LBE76:
 416              		.cfi_endproc
 417              	.LFE296:
 418              		.size	chVTDoResetI, .-chVTDoResetI
 419              		.text
 420              	.Letext0:
 421              		.file 5 "/usr/lib/gcc/arm-none-eabi/7.3.1/include/stddef.h"
 422              		.file 6 "/usr/arm-none-eabi/include/machine/_default_types.h"
 423              		.file 7 "/usr/arm-none-eabi/include/sys/_stdint.h"
 424              		.file 8 "./RM18A-ChibiOS18-Core/chibios/os/common/ports/ARMCMx/compilers/GCC/chtypes.h"
 425              		.file 9 "./RM18A-ChibiOS18-Core/chibios/os/rt/include/chsystypes.h"
 426              		.file 10 "./RM18A-ChibiOS18-Core/chibios/os/rt/include/chschd.h"
 427              		.file 11 "./RM18A-ChibiOS18-Core/chibios/os/common/ext/ARM/CMSIS/Core/Include/core_cm4.h"
 428              		.file 12 "./RM18A-ChibiOS18-Core/chibios/os/common/ext/ST/STM32F4xx/system_stm32f4xx.h"
 429              		.file 13 "./RM18A-ChibiOS18-Core/chibios/os/common/ports/ARMCMx/chcore.h"
 430              		.file 14 "./RM18A-ChibiOS18-Core/chibios/os/common/ports/ARMCMx/chcore_v7m.h"
 431              		.file 15 "./RM18A-ChibiOS18-Core/chibios/os/hal/ports/STM32/LLD/TIMv1/stm32_tim.h"
 432              		.file 16 "./RM18A-ChibiOS18-Core/chibios/os/rt/include/chtm.h"
 433              		.file 17 "./RM18A-ChibiOS18-Core/chibios/os/rt/include/chsem.h"
 434              		.file 18 "./RM18A-ChibiOS18-Core/chibios/os/rt/include/chmtx.h"
 435              		.file 19 "./RM18A-ChibiOS18-Core/chibios/os/rt/include/chsys.h"
 436              		.file 20 "./RM18A-ChibiOS18-Core/chibios/os/rt/include/chregistry.h"
 437              		.file 21 "./RM18A-ChibiOS18-Core/chibios/os/oslib/include/chmemcore.h"
 438              		.file 22 "./RM18A-ChibiOS18-Core/chibios/os/oslib/include/chmempools.h"
 439              		.file 23 "./RM18A-ChibiOS18-Core/chibios/os/oslib/include/chfactory.h"
 440              		.file 24 "./RM18A-ChibiOS18-Core/chibios/os/rt/include/chvt.h"
 441              		.file 25 "./RM18A-ChibiOS18-Core/chibios/os/hal/include/hal_st.h"