ARM GAS  /tmp/ccZcdE8U.s 			page 1


   1              		.cpu cortex-m4
   2              		.eabi_attribute 27, 1
   3              		.eabi_attribute 28, 1
   4              		.eabi_attribute 20, 1
   5              		.eabi_attribute 21, 1
   6              		.eabi_attribute 23, 3
   7              		.eabi_attribute 24, 1
   8              		.eabi_attribute 25, 1
   9              		.eabi_attribute 26, 1
  10              		.eabi_attribute 30, 2
  11              		.eabi_attribute 34, 1
  12              		.eabi_attribute 18, 4
  13              		.file	"CRC.c"
  14              		.text
  15              	.Ltext0:
  16              		.cfi_sections	.debug_frame
  17              		.section	.text.CRC32_accumulate,"ax",%progbits
  18              		.align	1
  19              		.p2align 2,,3
  20              		.global	CRC32_accumulate
  21              		.syntax unified
  22              		.thumb
  23              		.thumb_func
  24              		.fpu fpv4-sp-d16
  25              		.type	CRC32_accumulate, %function
  26              	CRC32_accumulate:
  27              	.LFB330:
  28              		.file 1 "./RM18A-ChibiOS18-Core/src/peripherals/CRC.c"
  29              		.loc 1 26 0
  30              		.cfi_startproc
  31              		@ args = 0, pretend = 0, frame = 8
  32              		@ frame_needed = 0, uses_anonymous_args = 0
  33              	.LVL0:
  34 0000 30B5     		push	{r4, r5, lr}
  35              		.cfi_def_cfa_offset 12
  36              		.cfi_offset 4, -12
  37              		.cfi_offset 5, -8
  38              		.cfi_offset 14, -4
  39              		.loc 1 28 0
  40 0002 8D08     		lsrs	r5, r1, #2
  41              		.loc 1 26 0
  42 0004 83B0     		sub	sp, sp, #12
  43              		.cfi_def_cfa_offset 24
  44              		.loc 1 28 0
  45 0006 0BD0     		beq	.L2
  46 0008 021F     		subs	r2, r0, #4
  47              		.loc 1 30 0
  48 000a 104C     		ldr	r4, .L14
  49 000c 02EB8505 		add	r5, r2, r5, lsl #2
  50              	.LVL1:
  51              	.L3:
  52              	.LBB7:
  53              	.LBB8:
  54              		.file 2 "./RM18A-ChibiOS18-Core/chibios/os/common/ext/ARM/CMSIS/Core/Include/cmsis_gcc.h"
  55              		.loc 2 988 0 discriminator 3
  56 0010 52F8043F 		ldr	r3, [r2, #4]!
  57              	.LVL2:
ARM GAS  /tmp/ccZcdE8U.s 			page 2


  58              		.syntax unified
  59              	@ 988 "./RM18A-ChibiOS18-Core/chibios/os/common/ext/ARM/CMSIS/Core/Include/cmsis_gcc.h" 1
  60 0014 93FAA3F3 		rbit r3, r3
  61              	@ 0 "" 2
  62              	.LVL3:
  63              		.thumb
  64              		.syntax unified
  65              	.LBE8:
  66              	.LBE7:
  67              		.loc 1 30 0 discriminator 3
  68 0018 2360     		str	r3, [r4]
  69              		.loc 1 28 0 discriminator 3
  70 001a AA42     		cmp	r2, r5
  71              		.loc 1 31 0 discriminator 3
  72 001c 2368     		ldr	r3, [r4]
  73              		.loc 1 28 0 discriminator 3
  74 001e F7D1     		bne	.L3
  75              	.L2:
  76              	.LVL4:
  77              		.loc 1 34 0
  78 0020 11F00302 		ands	r2, r1, #3
  79              	.LVL5:
  80 0024 0FD0     		beq	.L1
  81 0026 0346     		mov	r3, r0
  82              	.LBB9:
  83              		.loc 1 36 0
  84 0028 02A8     		add	r0, sp, #8
  85              	.LVL6:
  86 002a 0024     		movs	r4, #0
  87              		.loc 1 37 0
  88 002c 21F00301 		bic	r1, r1, #3
  89              	.LVL7:
  90 0030 1944     		add	r1, r1, r3
  91              		.loc 1 36 0
  92 0032 40F8044D 		str	r4, [r0, #-4]!
  93              		.loc 1 37 0
  94 0036 FFF7FEFF 		bl	memcpy
  95              	.LVL8:
  96              	.LBB10:
  97              	.LBB11:
  98              		.loc 2 988 0
  99 003a 019B     		ldr	r3, [sp, #4]
 100              		.syntax unified
 101              	@ 988 "./RM18A-ChibiOS18-Core/chibios/os/common/ext/ARM/CMSIS/Core/Include/cmsis_gcc.h" 1
 102 003c 93FAA3F3 		rbit r3, r3
 103              	@ 0 "" 2
 104              	.LVL9:
 105              		.thumb
 106              		.syntax unified
 107              	.LBE11:
 108              	.LBE10:
 109              		.loc 1 38 0
 110 0040 024A     		ldr	r2, .L14
 111 0042 1360     		str	r3, [r2]
 112              		.loc 1 39 0
 113 0044 1368     		ldr	r3, [r2]
 114              	.L1:
ARM GAS  /tmp/ccZcdE8U.s 			page 3


 115              	.LBE9:
 116              		.loc 1 41 0
 117 0046 03B0     		add	sp, sp, #12
 118              		.cfi_def_cfa_offset 12
 119              		@ sp needed
 120 0048 30BD     		pop	{r4, r5, pc}
 121              	.L15:
 122 004a 00BF     		.align	2
 123              	.L14:
 124 004c 00300240 		.word	1073885184
 125              		.cfi_endproc
 126              	.LFE330:
 127              		.size	CRC32_accumulate, .-CRC32_accumulate
 128              		.text
 129              	.Letext0:
 130              		.file 3 "/usr/lib/gcc/arm-none-eabi/7.3.1/include/stddef.h"
 131              		.file 4 "/usr/arm-none-eabi/include/machine/_default_types.h"
 132              		.file 5 "/usr/arm-none-eabi/include/sys/_stdint.h"
 133              		.file 6 "./RM18A-ChibiOS18-Core/chibios/os/common/ports/ARMCMx/compilers/GCC/chtypes.h"
 134              		.file 7 "./RM18A-ChibiOS18-Core/chibios/os/rt/include/chsystypes.h"
 135              		.file 8 "./RM18A-ChibiOS18-Core/chibios/os/rt/include/chschd.h"
 136              		.file 9 "./RM18A-ChibiOS18-Core/chibios/os/rt/include/chtime.h"
 137              		.file 10 "./RM18A-ChibiOS18-Core/chibios/os/common/ext/ARM/CMSIS/Core/Include/core_cm4.h"
 138              		.file 11 "./RM18A-ChibiOS18-Core/chibios/os/common/ext/ST/STM32F4xx/system_stm32f4xx.h"
 139              		.file 12 "./RM18A-ChibiOS18-Core/chibios/os/common/ext/ST/STM32F4xx/stm32f427xx.h"
 140              		.file 13 "./RM18A-ChibiOS18-Core/chibios/os/common/ports/ARMCMx/chcore.h"
 141              		.file 14 "./RM18A-ChibiOS18-Core/chibios/os/common/ports/ARMCMx/chcore_v7m.h"
 142              		.file 15 "./RM18A-ChibiOS18-Core/chibios/os/hal/ports/STM32/LLD/TIMv1/stm32_tim.h"
 143              		.file 16 "./RM18A-ChibiOS18-Core/chibios/os/rt/include/chtm.h"
 144              		.file 17 "./RM18A-ChibiOS18-Core/chibios/os/rt/include/chsem.h"
 145              		.file 18 "./RM18A-ChibiOS18-Core/chibios/os/rt/include/chmtx.h"
 146              		.file 19 "./RM18A-ChibiOS18-Core/chibios/os/rt/include/chsys.h"
 147              		.file 20 "./RM18A-ChibiOS18-Core/chibios/os/rt/include/chregistry.h"
 148              		.file 21 "./RM18A-ChibiOS18-Core/chibios/os/rt/include/chevents.h"
 149              		.file 22 "./RM18A-ChibiOS18-Core/chibios/os/oslib/include/chmemcore.h"
 150              		.file 23 "./RM18A-ChibiOS18-Core/chibios/os/oslib/include/chmempools.h"
 151              		.file 24 "./RM18A-ChibiOS18-Core/chibios/os/oslib/include/chfactory.h"
 152              		.file 25 "./RM18A-ChibiOS18-Core/chibios/os/hal/ports/STM32/LLD/DMAv2/stm32_dma.h"
 153              		.file 26 "./RM18A-ChibiOS18-Core/chibios/os/hal/include/hal_queues.h"
 154              		.file 27 "./RM18A-ChibiOS18-Core/chibios/os/hal/include/hal_pal.h"
 155              		.file 28 "./RM18A-ChibiOS18-Core/chibios/os/hal/ports/STM32/LLD/GPIOv2/hal_pal_lld.h"
 156              		.file 29 "./RM18A-ChibiOS18-Core/chibios/os/hal/include/hal_adc.h"
 157              		.file 30 "./RM18A-ChibiOS18-Core/chibios/os/hal/ports/STM32/LLD/ADCv2/hal_adc_lld.h"
 158              		.file 31 "./RM18A-ChibiOS18-Core/chibios/os/hal/include/hal_can.h"
 159              		.file 32 "./RM18A-ChibiOS18-Core/chibios/os/hal/ports/STM32/LLD/CANv1/hal_can_lld.h"
 160              		.file 33 "./RM18A-ChibiOS18-Core/chibios/os/hal/include/hal_i2c.h"
 161              		.file 34 "./RM18A-ChibiOS18-Core/chibios/os/hal/lib/fallback/I2C/hal_i2c_lld.h"
 162              		.file 35 "./RM18A-ChibiOS18-Core/chibios/os/hal/include/hal_icu.h"
 163              		.file 36 "./RM18A-ChibiOS18-Core/chibios/os/hal/ports/STM32/LLD/TIMv1/hal_icu_lld.h"
 164              		.file 37 "./RM18A-ChibiOS18-Core/chibios/os/hal/include/hal_pwm.h"
 165              		.file 38 "./RM18A-ChibiOS18-Core/chibios/os/hal/ports/STM32/LLD/TIMv1/hal_pwm_lld.h"
 166              		.file 39 "./RM18A-ChibiOS18-Core/chibios/os/hal/include/hal_serial.h"
 167              		.file 40 "./RM18A-ChibiOS18-Core/chibios/os/hal/ports/STM32/LLD/USARTv1/hal_serial_lld.h"
 168              		.file 41 "./RM18A-ChibiOS18-Core/chibios/os/hal/include/hal_spi.h"
 169              		.file 42 "./RM18A-ChibiOS18-Core/chibios/os/hal/ports/STM32/LLD/SPIv1/hal_spi_lld.h"
 170              		.file 43 "./RM18A-ChibiOS18-Core/chibios/os/hal/include/hal_uart.h"
 171              		.file 44 "./RM18A-ChibiOS18-Core/chibios/os/hal/ports/STM32/LLD/USARTv1/hal_uart_lld.h"
ARM GAS  /tmp/ccZcdE8U.s 			page 4


 172              		.file 45 "./RM18A-ChibiOS18-Core/chibios/os/hal/include/hal_usb.h"
 173              		.file 46 "./RM18A-ChibiOS18-Core/chibios/os/hal/ports/STM32/LLD/OTGv1/hal_usb_lld.h"
 174              		.file 47 "./RM18A-ChibiOS18-Core/chibios/os/hal/ports/STM32/LLD/OTGv1/stm32_otg.h"
 175              		.file 48 "/usr/arm-none-eabi/include/sys/lock.h"
 176              		.file 49 "/usr/arm-none-eabi/include/sys/_types.h"
 177              		.file 50 "/usr/arm-none-eabi/include/sys/reent.h"
 178              		.file 51 "<built-in>"