ARM GAS  /tmp/cclU3Lzp.s 			page 1


   1              		.cpu cortex-m4
   2              		.eabi_attribute 27, 1
   3              		.eabi_attribute 28, 1
   4              		.eabi_attribute 20, 1
   5              		.eabi_attribute 21, 1
   6              		.eabi_attribute 23, 3
   7              		.eabi_attribute 24, 1
   8              		.eabi_attribute 25, 1
   9              		.eabi_attribute 26, 1
  10              		.eabi_attribute 30, 2
  11              		.eabi_attribute 34, 1
  12              		.eabi_attribute 18, 4
  13              		.file	"crt1.c"
  14              		.text
  15              	.Ltext0:
  16              		.cfi_sections	.debug_frame
  17              		.section	.text.__core_init,"ax",%progbits
  18              		.align	1
  19              		.p2align 2,,3
  20              		.weak	__core_init
  21              		.syntax unified
  22              		.thumb
  23              		.thumb_func
  24              		.fpu fpv4-sp-d16
  25              		.type	__core_init, %function
  26              	__core_init:
  27              	.LFB130:
  28              		.file 1 "./RM18A-ChibiOS18-Core/chibios/os/common/startup/ARMCMx/compilers/GCC/crt1.c"
  29              		.loc 1 137 0
  30              		.cfi_startproc
  31              		@ args = 0, pretend = 0, frame = 0
  32              		@ frame_needed = 0, uses_anonymous_args = 0
  33              		@ link register save eliminated.
  34              		.loc 1 143 0
  35 0000 7047     		bx	lr
  36              		.cfi_endproc
  37              	.LFE130:
  38              		.size	__core_init, .-__core_init
  39 0002 00BF     		.section	.text.__early_init,"ax",%progbits
  40              		.align	1
  41              		.p2align 2,,3
  42              		.weak	__early_init
  43              		.syntax unified
  44              		.thumb
  45              		.thumb_func
  46              		.fpu fpv4-sp-d16
  47              		.type	__early_init, %function
  48              	__early_init:
  49              	.LFB136:
  50              		.cfi_startproc
  51              		@ args = 0, pretend = 0, frame = 0
  52              		@ frame_needed = 0, uses_anonymous_args = 0
  53              		@ link register save eliminated.
  54 0000 7047     		bx	lr
  55              		.cfi_endproc
  56              	.LFE136:
  57              		.size	__early_init, .-__early_init
ARM GAS  /tmp/cclU3Lzp.s 			page 2


  58 0002 00BF     		.section	.text.__late_init,"ax",%progbits
  59              		.align	1
  60              		.p2align 2,,3
  61              		.weak	__late_init
  62              		.syntax unified
  63              		.thumb
  64              		.thumb_func
  65              		.fpu fpv4-sp-d16
  66              		.type	__late_init, %function
  67              	__late_init:
  68              	.LFB138:
  69              		.cfi_startproc
  70              		@ args = 0, pretend = 0, frame = 0
  71              		@ frame_needed = 0, uses_anonymous_args = 0
  72              		@ link register save eliminated.
  73 0000 7047     		bx	lr
  74              		.cfi_endproc
  75              	.LFE138:
  76              		.size	__late_init, .-__late_init
  77 0002 00BF     		.section	.text.__default_exit,"ax",%progbits
  78              		.align	1
  79              		.p2align 2,,3
  80              		.weak	__default_exit
  81              		.syntax unified
  82              		.thumb
  83              		.thumb_func
  84              		.fpu fpv4-sp-d16
  85              		.type	__default_exit, %function
  86              	__default_exit:
  87              	.LFB133:
  88              		.loc 1 183 0
  89              		.cfi_startproc
  90              		@ Volatile: function does not return.
  91              		@ args = 0, pretend = 0, frame = 0
  92              		@ frame_needed = 0, uses_anonymous_args = 0
  93              		@ link register save eliminated.
  94              	.L6:
  95 0000 FEE7     		b	.L6
  96              		.cfi_endproc
  97              	.LFE133:
  98              		.size	__default_exit, .-__default_exit
  99 0002 00BF     		.section	.text.__init_ram_areas,"ax",%progbits
 100              		.align	1
 101              		.p2align 2,,3
 102              		.global	__init_ram_areas
 103              		.syntax unified
 104              		.thumb
 105              		.thumb_func
 106              		.fpu fpv4-sp-d16
 107              		.type	__init_ram_areas, %function
 108              	__init_ram_areas:
 109              	.LFB134:
 110              		.loc 1 193 0
 111              		.cfi_startproc
 112              		@ args = 0, pretend = 0, frame = 0
 113              		@ frame_needed = 0, uses_anonymous_args = 0
 114              	.LVL0:
ARM GAS  /tmp/cclU3Lzp.s 			page 3


 115              		.loc 1 193 0
 116 0000 70B5     		push	{r4, r5, r6, lr}
 117              		.cfi_def_cfa_offset 16
 118              		.cfi_offset 4, -16
 119              		.cfi_offset 5, -12
 120              		.cfi_offset 6, -8
 121              		.cfi_offset 14, -4
 122 0002 134D     		ldr	r5, .L15
 123 0004 05F18006 		add	r6, r5, #128
 124              	.LVL1:
 125              	.L11:
 126              	.LBB2:
 127              		.loc 1 202 0
 128 0008 55E90304 		ldrd	r0, r4, [r5, #-12]
 129 000c A042     		cmp	r0, r4
 130              		.loc 1 198 0
 131 000e 55F8102C 		ldr	r2, [r5, #-16]
 132              	.LVL2:
 133              		.loc 1 202 0
 134 0012 0DD2     		bcs	.L8
 135 0014 043A     		subs	r2, r2, #4
 136              	.LVL3:
 137 0016 0346     		mov	r3, r0
 138              	.LVL4:
 139              	.L9:
 140              		.loc 1 203 0
 141 0018 52F8041F 		ldr	r1, [r2, #4]!
 142              	.LVL5:
 143 001c 43F8041B 		str	r1, [r3], #4
 144              	.LVL6:
 145              		.loc 1 202 0
 146 0020 A342     		cmp	r3, r4
 147 0022 F9D3     		bcc	.L9
 148 0024 C343     		mvns	r3, r0
 149              	.LVL7:
 150 0026 1C44     		add	r4, r4, r3
 151 0028 24F00304 		bic	r4, r4, #3
 152 002c 0434     		adds	r4, r4, #4
 153 002e 2044     		add	r0, r0, r4
 154              	.LVL8:
 155              	.L8:
 156              		.loc 1 209 0
 157 0030 55F8043C 		ldr	r3, [r5, #-4]
 158 0034 8342     		cmp	r3, r0
 159 0036 07D9     		bls	.L10
 160              		.loc 1 210 0
 161 0038 C243     		mvns	r2, r0
 162 003a 1A44     		add	r2, r2, r3
 163 003c 22F00302 		bic	r2, r2, #3
 164 0040 0432     		adds	r2, r2, #4
 165 0042 0021     		movs	r1, #0
 166 0044 FFF7FEFF 		bl	memset
 167              	.LVL9:
 168              	.L10:
 169 0048 1035     		adds	r5, r5, #16
 170              	.LVL10:
 171              	.LBE2:
ARM GAS  /tmp/cclU3Lzp.s 			page 4


 172              		.loc 1 215 0
 173 004a B542     		cmp	r5, r6
 174 004c DCD1     		bne	.L11
 175              		.loc 1 217 0
 176 004e 70BD     		pop	{r4, r5, r6, pc}
 177              	.LVL11:
 178              	.L16:
 179              		.align	2
 180              	.L15:
 181 0050 10000000 		.word	.LANCHOR0+16
 182              		.cfi_endproc
 183              	.LFE134:
 184              		.size	__init_ram_areas, .-__init_ram_areas
 185              		.section	.rodata.ram_areas,"a",%progbits
 186              		.align	2
 187              		.set	.LANCHOR0,. + 0
 188              		.type	ram_areas, %object
 189              		.size	ram_areas, 128
 190              	ram_areas:
 191 0000 00000000 		.word	__ram0_init_text__
 192 0004 00000000 		.word	__ram0_init__
 193 0008 00000000 		.word	__ram0_clear__
 194 000c 00000000 		.word	__ram0_noinit__
 195 0010 00000000 		.word	__ram1_init_text__
 196 0014 00000000 		.word	__ram1_init__
 197 0018 00000000 		.word	__ram1_clear__
 198 001c 00000000 		.word	__ram1_noinit__
 199 0020 00000000 		.word	__ram2_init_text__
 200 0024 00000000 		.word	__ram2_init__
 201 0028 00000000 		.word	__ram2_clear__
 202 002c 00000000 		.word	__ram2_noinit__
 203 0030 00000000 		.word	__ram3_init_text__
 204 0034 00000000 		.word	__ram3_init__
 205 0038 00000000 		.word	__ram3_clear__
 206 003c 00000000 		.word	__ram3_noinit__
 207 0040 00000000 		.word	__ram4_init_text__
 208 0044 00000000 		.word	__ram4_init__
 209 0048 00000000 		.word	__ram4_clear__
 210 004c 00000000 		.word	__ram4_noinit__
 211 0050 00000000 		.word	__ram5_init_text__
 212 0054 00000000 		.word	__ram5_init__
 213 0058 00000000 		.word	__ram5_clear__
 214 005c 00000000 		.word	__ram5_noinit__
 215 0060 00000000 		.word	__ram6_init_text__
 216 0064 00000000 		.word	__ram6_init__
 217 0068 00000000 		.word	__ram6_clear__
 218 006c 00000000 		.word	__ram6_noinit__
 219 0070 00000000 		.word	__ram7_init_text__
 220 0074 00000000 		.word	__ram7_init__
 221 0078 00000000 		.word	__ram7_clear__
 222 007c 00000000 		.word	__ram7_noinit__
 223              		.text
 224              	.Letext0:
 225              		.file 2 "/usr/arm-none-eabi/include/machine/_default_types.h"
 226              		.file 3 "/usr/arm-none-eabi/include/sys/_stdint.h"
 227              		.file 4 "./RM18A-ChibiOS18-Core/chibios/os/common/ext/ARM/CMSIS/Core/Include/core_cm4.h"
 228              		.file 5 "./RM18A-ChibiOS18-Core/chibios/os/common/ext/ST/STM32F4xx/system_stm32f4xx.h"
ARM GAS  /tmp/cclU3Lzp.s 			page 5


 229              		.file 6 "<built-in>"