ARM GAS  /tmp/cc1FDi4j.s 			page 1


   1              		.cpu cortex-m4
   2              		.eabi_attribute 27, 1
   3              		.eabi_attribute 28, 1
   4              		.eabi_attribute 20, 1
   5              		.eabi_attribute 21, 1
   6              		.eabi_attribute 23, 3
   7              		.eabi_attribute 24, 1
   8              		.eabi_attribute 25, 1
   9              		.eabi_attribute 26, 1
  10              		.eabi_attribute 30, 2
  11              		.eabi_attribute 34, 1
  12              		.eabi_attribute 18, 4
  13              		.file	"DR16.c"
  14              		.text
  15              	.Ltext0:
  16              		.cfi_sections	.debug_frame
  17              		.section	.text.DR16_disconnect_cb,"ax",%progbits
  18              		.align	1
  19              		.p2align 2,,3
  20              		.weak	DR16_disconnect_cb
  21              		.syntax unified
  22              		.thumb
  23              		.thumb_func
  24              		.fpu fpv4-sp-d16
  25              		.type	DR16_disconnect_cb, %function
  26              	DR16_disconnect_cb:
  27              	.LFB335:
  28              		.cfi_startproc
  29              		@ args = 0, pretend = 0, frame = 0
  30              		@ frame_needed = 0, uses_anonymous_args = 0
  31              		@ link register save eliminated.
  32 0000 7047     		bx	lr
  33              		.cfi_endproc
  34              	.LFE335:
  35              		.size	DR16_disconnect_cb, .-DR16_disconnect_cb
  36 0002 00BF     		.section	.text.DR16_resetValue,"ax",%progbits
  37              		.align	1
  38              		.p2align 2,,3
  39              		.global	DR16_resetValue
  40              		.syntax unified
  41              		.thumb
  42              		.thumb_func
  43              		.fpu fpv4-sp-d16
  44              		.type	DR16_resetValue, %function
  45              	DR16_resetValue:
  46              	.LFB329:
  47              		.file 1 "./RM18A-ChibiOS18-Core/src/ext_hw/DR16.c"
  48              		.loc 1 122 0
  49              		.cfi_startproc
  50              		@ args = 0, pretend = 0, frame = 0
  51              		@ frame_needed = 0, uses_anonymous_args = 0
  52              		@ link register save eliminated.
  53              		.loc 1 123 0
  54 0000 054B     		ldr	r3, .L4
  55 0002 4FF48062 		mov	r2, #1024
  56              		.loc 1 127 0
  57 0006 0021     		movs	r1, #0
ARM GAS  /tmp/cc1FDi4j.s 			page 2


  58              		.loc 1 123 0
  59 0008 1A80     		strh	r2, [r3]	@ movhi
  60              		.loc 1 124 0
  61 000a 5A80     		strh	r2, [r3, #2]	@ movhi
  62              		.loc 1 125 0
  63 000c 9A80     		strh	r2, [r3, #4]	@ movhi
  64              		.loc 1 126 0
  65 000e DA80     		strh	r2, [r3, #6]	@ movhi
  66              		.loc 1 127 0
  67 0010 1974     		strb	r1, [r3, #16]
  68              		.loc 1 128 0
  69 0012 5974     		strb	r1, [r3, #17]
  70              		.loc 1 129 0
  71 0014 5982     		strh	r1, [r3, #18]	@ movhi
  72              		.loc 1 130 0
  73 0016 7047     		bx	lr
  74              	.L5:
  75              		.align	2
  76              	.L4:
  77 0018 00000000 		.word	.LANCHOR0
  78              		.cfi_endproc
  79              	.LFE329:
  80              		.size	DR16_resetValue, .-DR16_resetValue
  81              		.section	.text.DR16_onReceiveProcess,"ax",%progbits
  82              		.align	1
  83              		.p2align 2,,3
  84              		.weak	DR16_onReceiveProcess
  85              		.syntax unified
  86              		.thumb
  87              		.thumb_func
  88              		.fpu fpv4-sp-d16
  89              		.type	DR16_onReceiveProcess, %function
  90              	DR16_onReceiveProcess:
  91              	.LFB331:
  92              		.loc 1 182 0
  93              		.cfi_startproc
  94              		@ args = 0, pretend = 0, frame = 0
  95              		@ frame_needed = 0, uses_anonymous_args = 0
  96              		@ link register save eliminated.
  97              		.loc 1 182 0
  98 0000 7047     		bx	lr
  99              		.cfi_endproc
 100              	.LFE331:
 101              		.size	DR16_onReceiveProcess, .-DR16_onReceiveProcess
 102 0002 00BF     		.section	.text.DR16RxThd,"ax",%progbits
 103              		.align	1
 104              		.p2align 2,,3
 105              		.syntax unified
 106              		.thumb
 107              		.thumb_func
 108              		.fpu fpv4-sp-d16
 109              		.type	DR16RxThd, %function
 110              	DR16RxThd:
 111              	.LFB330:
 112              		.loc 1 141 0
 113              		.cfi_startproc
 114              		@ args = 0, pretend = 0, frame = 8
ARM GAS  /tmp/cc1FDi4j.s 			page 3


 115              		@ frame_needed = 0, uses_anonymous_args = 0
 116              	.LVL0:
 117 0000 2DE9F043 		push	{r4, r5, r6, r7, r8, r9, lr}
 118              		.cfi_def_cfa_offset 28
 119              		.cfi_offset 4, -28
 120              		.cfi_offset 5, -24
 121              		.cfi_offset 6, -20
 122              		.cfi_offset 7, -16
 123              		.cfi_offset 8, -12
 124              		.cfi_offset 9, -8
 125              		.cfi_offset 14, -4
 126              	.LBB85:
 127              	.LBB86:
 128              		.file 2 "./RM18A-ChibiOS18-Core/chibios/os/rt/include/chregistry.h"
 129              		.loc 2 136 0
 130 0004 DFF82881 		ldr	r8, .L16+28
 131 0008 424B     		ldr	r3, .L16
 132 000a D8F81800 		ldr	r0, [r8, #24]
 133              	.LVL1:
 134              	.LBE86:
 135              	.LBE85:
 136              		.loc 1 151 0
 137 000e 424C     		ldr	r4, .L16+4
 138              	.LBB88:
 139              	.LBB87:
 140              		.loc 2 136 0
 141 0010 8361     		str	r3, [r0, #24]
 142              	.LBE87:
 143              	.LBE88:
 144              		.loc 1 141 0
 145 0012 83B0     		sub	sp, sp, #12
 146              		.cfi_def_cfa_offset 40
 147              		.loc 1 151 0
 148 0014 414F     		ldr	r7, .L16+8
 149              		.loc 1 165 0
 150 0016 424E     		ldr	r6, .L16+12
 151 0018 14E0     		b	.L8
 152              	.L9:
 153 001a 3368     		ldr	r3, [r6]
 154 001c 0133     		adds	r3, r3, #1
 155              		.loc 1 166 0
 156 001e 0E2B     		cmp	r3, #14
 157              		.loc 1 165 0
 158 0020 3360     		str	r3, [r6]
 159              		.loc 1 166 0
 160 0022 6FD8     		bhi	.L14
 161              	.L11:
 162              	.LBB89:
 163              	.LBB90:
 164              		.loc 1 123 0
 165 0024 3F4B     		ldr	r3, .L16+16
 166 0026 4FF48062 		mov	r2, #1024
 167              		.loc 1 127 0
 168 002a 0021     		movs	r1, #0
 169              	.LBE90:
 170              	.LBE89:
 171              		.loc 1 172 0
ARM GAS  /tmp/cc1FDi4j.s 			page 4


 172 002c 4620     		movs	r0, #70
 173              	.LBB92:
 174              	.LBB91:
 175              		.loc 1 123 0
 176 002e 1A80     		strh	r2, [r3]	@ movhi
 177              		.loc 1 124 0
 178 0030 5A80     		strh	r2, [r3, #2]	@ movhi
 179              		.loc 1 125 0
 180 0032 9A80     		strh	r2, [r3, #4]	@ movhi
 181              		.loc 1 126 0
 182 0034 DA80     		strh	r2, [r3, #6]	@ movhi
 183              		.loc 1 127 0
 184 0036 1974     		strb	r1, [r3, #16]
 185              		.loc 1 128 0
 186 0038 5974     		strb	r1, [r3, #17]
 187              		.loc 1 129 0
 188 003a 5982     		strh	r1, [r3, #18]	@ movhi
 189              	.LBE91:
 190              	.LBE92:
 191              		.loc 1 172 0
 192 003c FFF7FEFF 		bl	chThdSleep
 193              	.LVL2:
 194              	.L10:
 195 0040 D8F81800 		ldr	r0, [r8, #24]
 196              	.L8:
 197              		.loc 1 147 0
 198 0044 90F82150 		ldrb	r5, [r0, #33]	@ zero_extendqisi2
 199              		.loc 1 151 0
 200 0048 334A     		ldr	r2, .L16+4
 201              		.loc 1 147 0
 202 004a 15F00405 		ands	r5, r5, #4
 203              		.loc 1 149 0
 204 004e 02A9     		add	r1, sp, #8
 205 0050 4FF0120C 		mov	ip, #18
 206              		.loc 1 151 0
 207 0054 4FF06403 		mov	r3, #100
 208 0058 3846     		mov	r0, r7
 209              		.loc 1 147 0
 210 005a 58D1     		bne	.L15
 211              		.loc 1 149 0
 212 005c 41F804CD 		str	ip, [r1, #-4]!
 213              		.loc 1 151 0
 214 0060 FFF7FEFF 		bl	uartReceiveTimeout
 215              	.LVL3:
 216              		.loc 1 150 0
 217 0064 8146     		mov	r9, r0
 218 0066 0028     		cmp	r0, #0
 219 0068 D7D1     		bne	.L9
 220              		.loc 1 157 0
 221 006a 2F4A     		ldr	r2, .L16+20
 222              	.LBB93:
 223              	.LBB94:
 224              		.loc 1 103 0
 225 006c 2D4B     		ldr	r3, .L16+16
 226              	.LBE94:
 227              	.LBE93:
 228              		.loc 1 157 0
ARM GAS  /tmp/cc1FDi4j.s 			page 5


 229 006e 0121     		movs	r1, #1
 230 0070 1170     		strb	r1, [r2]
 231              	.LBB96:
 232              	.LBB95:
 233              		.loc 1 103 0
 234 0072 2278     		ldrb	r2, [r4]	@ zero_extendqisi2
 235 0074 6178     		ldrb	r1, [r4, #1]	@ zero_extendqisi2
 236 0076 01F00701 		and	r1, r1, #7
 237 007a 42EA0122 		orr	r2, r2, r1, lsl #8
 238 007e 1A80     		strh	r2, [r3]	@ movhi
 239              		.loc 1 104 0
 240 0080 6178     		ldrb	r1, [r4, #1]	@ zero_extendqisi2
 241 0082 A278     		ldrb	r2, [r4, #2]	@ zero_extendqisi2
 242 0084 02F03F02 		and	r2, r2, #63
 243 0088 5201     		lsls	r2, r2, #5
 244 008a 42EAD102 		orr	r2, r2, r1, lsr #3
 245 008e 5A80     		strh	r2, [r3, #2]	@ movhi
 246              		.loc 1 105 0
 247 0090 A178     		ldrb	r1, [r4, #2]	@ zero_extendqisi2
 248 0092 E078     		ldrb	r0, [r4, #3]	@ zero_extendqisi2
 249 0094 2279     		ldrb	r2, [r4, #4]	@ zero_extendqisi2
 250 0096 02F00102 		and	r2, r2, #1
 251 009a 9202     		lsls	r2, r2, #10
 252 009c 42EA8002 		orr	r2, r2, r0, lsl #2
 253 00a0 42EA9112 		orr	r2, r2, r1, lsr #6
 254 00a4 9A80     		strh	r2, [r3, #4]	@ movhi
 255              		.loc 1 106 0
 256 00a6 2179     		ldrb	r1, [r4, #4]	@ zero_extendqisi2
 257 00a8 6279     		ldrb	r2, [r4, #5]	@ zero_extendqisi2
 258 00aa 02F00F02 		and	r2, r2, #15
 259 00ae D201     		lsls	r2, r2, #7
 260 00b0 42EA5102 		orr	r2, r2, r1, lsr #1
 261 00b4 DA80     		strh	r2, [r3, #6]	@ movhi
 262              		.loc 1 107 0
 263 00b6 6279     		ldrb	r2, [r4, #5]	@ zero_extendqisi2
 264 00b8 C2F30112 		ubfx	r2, r2, #4, #2
 265 00bc 1A72     		strb	r2, [r3, #8]
 266              		.loc 1 108 0
 267 00be 6279     		ldrb	r2, [r4, #5]	@ zero_extendqisi2
 268 00c0 C2F38112 		ubfx	r2, r2, #6, #2
 269 00c4 5A72     		strb	r2, [r3, #9]
 270              		.loc 1 109 0
 271 00c6 227B     		ldrb	r2, [r4, #12]	@ zero_extendqisi2
 272 00c8 D2B2     		uxtb	r2, r2
 273 00ca 1A74     		strb	r2, [r3, #16]
 274              		.loc 1 110 0
 275 00cc 627B     		ldrb	r2, [r4, #13]	@ zero_extendqisi2
 276 00ce D2B2     		uxtb	r2, r2
 277 00d0 5A74     		strb	r2, [r3, #17]
 278              		.loc 1 111 0
 279 00d2 E288     		ldrh	r2, [r4, #6]
 280 00d4 5A81     		strh	r2, [r3, #10]	@ movhi
 281              		.loc 1 112 0
 282 00d6 2289     		ldrh	r2, [r4, #8]
 283 00d8 9A81     		strh	r2, [r3, #12]	@ movhi
 284              		.loc 1 113 0
 285 00da 6289     		ldrh	r2, [r4, #10]
ARM GAS  /tmp/cc1FDi4j.s 			page 6


 286 00dc DA81     		strh	r2, [r3, #14]	@ movhi
 287              		.loc 1 114 0
 288 00de E289     		ldrh	r2, [r4, #14]
 289 00e0 92B2     		uxth	r2, r2
 290 00e2 5A82     		strh	r2, [r3, #18]	@ movhi
 291              	.LBE95:
 292              	.LBE96:
 293              		.loc 1 159 0
 294 00e4 FFF7FEFF 		bl	DR16_onReceiveProcess
 295              	.LVL4:
 296              	.LBB97:
 297              	.LBB98:
 298              	.LBB99:
 299              	.LBB100:
 300              	.LBB101:
 301              	.LBB102:
 302              		.file 3 "./RM18A-ChibiOS18-Core/chibios/os/common/ext/ARM/CMSIS/Core/Include/cmsis_gcc.h"
 303              		.loc 3 493 0
 304 00e8 2023     		movs	r3, #32
 305              		.syntax unified
 306              	@ 493 "./RM18A-ChibiOS18-Core/chibios/os/common/ext/ARM/CMSIS/Core/Include/cmsis_gcc.h" 1
 307 00ea 83F31188 		MSR basepri, r3
 308              	@ 0 "" 2
 309              	.LVL5:
 310              		.thumb
 311              		.syntax unified
 312              	.LBE102:
 313              	.LBE101:
 314              	.LBE100:
 315              	.LBE99:
 316              	.LBB103:
 317              	.LBB104:
 318              	.LBB105:
 319              	.LBB106:
 320              		.file 4 "./RM18A-ChibiOS18-Core/chibios/os/hal/ports/STM32/LLD/TIMv1/hal_st_lld.h"
 321              		.loc 4 147 0
 322 00ee 4FF08043 		mov	r3, #1073741824
 323 00f2 5A6A     		ldr	r2, [r3, #36]
 324              	.LVL6:
 325              	.LBE106:
 326              	.LBE105:
 327              	.LBE104:
 328              	.LBE103:
 329              	.LBB107:
 330              	.LBB108:
 331              	.LBB109:
 332              	.LBB110:
 333              	.LBB111:
 334              		.loc 3 493 0
 335              		.syntax unified
 336              	@ 493 "./RM18A-ChibiOS18-Core/chibios/os/common/ext/ARM/CMSIS/Core/Include/cmsis_gcc.h" 1
 337 00f4 89F31188 		MSR basepri, r9
 338              	@ 0 "" 2
 339              	.LVL7:
 340              		.thumb
 341              		.syntax unified
 342              	.LBE111:
ARM GAS  /tmp/cc1FDi4j.s 			page 7


 343              	.LBE110:
 344              	.LBE109:
 345              	.LBE108:
 346              	.LBE107:
 347              	.LBE98:
 348              	.LBE97:
 349              		.loc 1 160 0
 350 00f8 0C4B     		ldr	r3, .L16+24
 351              		.loc 1 161 0
 352 00fa 4620     		movs	r0, #70
 353              		.loc 1 160 0
 354 00fc 1A60     		str	r2, [r3]
 355              		.loc 1 161 0
 356 00fe FFF7FEFF 		bl	chThdSleep
 357              	.LVL8:
 358 0102 9DE7     		b	.L10
 359              	.L14:
 360              		.loc 1 168 0
 361 0104 084B     		ldr	r3, .L16+20
 362 0106 1D70     		strb	r5, [r3]
 363              		.loc 1 169 0
 364 0108 FFF7FEFF 		bl	DR16_disconnect_cb
 365              	.LVL9:
 366 010c 8AE7     		b	.L11
 367              	.L15:
 368              		.loc 1 175 0
 369 010e 03B0     		add	sp, sp, #12
 370              		.cfi_def_cfa_offset 28
 371              		@ sp needed
 372 0110 BDE8F083 		pop	{r4, r5, r6, r7, r8, r9, pc}
 373              	.L17:
 374              		.align	2
 375              	.L16:
 376 0114 00000000 		.word	.LC0
 377 0118 00000000 		.word	.LANCHOR1
 378 011c 00000000 		.word	UARTD1
 379 0120 00000000 		.word	.LANCHOR4
 380 0124 00000000 		.word	.LANCHOR0
 381 0128 00000000 		.word	.LANCHOR2
 382 012c 00000000 		.word	.LANCHOR3
 383 0130 00000000 		.word	ch
 384              		.cfi_endproc
 385              	.LFE330:
 386              		.size	DR16RxThd, .-DR16RxThd
 387              		.section	.text.DR16_initDBus,"ax",%progbits
 388              		.align	1
 389              		.p2align 2,,3
 390              		.global	DR16_initDBus
 391              		.syntax unified
 392              		.thumb
 393              		.thumb_func
 394              		.fpu fpv4-sp-d16
 395              		.type	DR16_initDBus, %function
 396              	DR16_initDBus:
 397              	.LFB332:
 398              		.loc 1 189 0
 399              		.cfi_startproc
ARM GAS  /tmp/cc1FDi4j.s 			page 8


 400              		@ args = 0, pretend = 0, frame = 0
 401              		@ frame_needed = 0, uses_anonymous_args = 0
 402 0000 10B5     		push	{r4, lr}
 403              		.cfi_def_cfa_offset 8
 404              		.cfi_offset 4, -8
 405              		.cfi_offset 14, -4
 406              		.loc 1 197 0
 407 0002 054C     		ldr	r4, .L20
 408 0004 0549     		ldr	r1, .L20+4
 409 0006 2046     		mov	r0, r4
 410 0008 FFF7FEFF 		bl	uartStart
 411              	.LVL10:
 412              		.loc 1 198 0
 413 000c 206A     		ldr	r0, [r4, #32]
 414              		.loc 1 199 0
 415 000e BDE81040 		pop	{r4, lr}
 416              		.cfi_restore 14
 417              		.cfi_restore 4
 418              		.cfi_def_cfa_offset 0
 419              		.loc 1 198 0
 420 0012 FFF7FEBF 		b	dmaStreamFree
 421              	.LVL11:
 422              	.L21:
 423 0016 00BF     		.align	2
 424              	.L20:
 425 0018 00000000 		.word	UARTD1
 426 001c 00000000 		.word	.LANCHOR5
 427              		.cfi_endproc
 428              	.LFE332:
 429              		.size	DR16_initDBus, .-DR16_initDBus
 430              		.section	.text.DR16_start,"ax",%progbits
 431              		.align	1
 432              		.p2align 2,,3
 433              		.global	DR16_start
 434              		.syntax unified
 435              		.thumb
 436              		.thumb_func
 437              		.fpu fpv4-sp-d16
 438              		.type	DR16_start, %function
 439              	DR16_start:
 440              	.LFB333:
 441              		.loc 1 207 0
 442              		.cfi_startproc
 443              		@ args = 0, pretend = 0, frame = 0
 444              		@ frame_needed = 0, uses_anonymous_args = 0
 445 0000 30B5     		push	{r4, r5, lr}
 446              		.cfi_def_cfa_offset 12
 447              		.cfi_offset 4, -12
 448              		.cfi_offset 5, -8
 449              		.cfi_offset 14, -4
 450              	.LBB114:
 451              	.LBB115:
 452              		.loc 1 197 0
 453 0002 0C4C     		ldr	r4, .L26
 454 0004 0C49     		ldr	r1, .L26+4
 455              	.LBE115:
 456              	.LBE114:
ARM GAS  /tmp/cc1FDi4j.s 			page 9


 457              		.loc 1 209 0
 458 0006 0D4D     		ldr	r5, .L26+8
 459              		.loc 1 207 0
 460 0008 83B0     		sub	sp, sp, #12
 461              		.cfi_def_cfa_offset 24
 462              	.LBB117:
 463              	.LBB116:
 464              		.loc 1 197 0
 465 000a 2046     		mov	r0, r4
 466 000c FFF7FEFF 		bl	uartStart
 467              	.LVL12:
 468              		.loc 1 198 0
 469 0010 206A     		ldr	r0, [r4, #32]
 470 0012 FFF7FEFF 		bl	dmaStreamFree
 471              	.LVL13:
 472              	.LBE116:
 473              	.LBE117:
 474              		.loc 1 209 0
 475 0016 2B68     		ldr	r3, [r5]
 476 0018 0BB1     		cbz	r3, .L25
 477              		.loc 1 215 0
 478 001a 03B0     		add	sp, sp, #12
 479              		.cfi_remember_state
 480              		.cfi_def_cfa_offset 12
 481              		@ sp needed
 482 001c 30BD     		pop	{r4, r5, pc}
 483              	.L25:
 484              		.cfi_restore_state
 485              		.loc 1 210 0
 486 001e 0093     		str	r3, [sp]
 487 0020 8722     		movs	r2, #135
 488 0022 074B     		ldr	r3, .L26+12
 489 0024 0748     		ldr	r0, .L26+16
 490 0026 4FF41471 		mov	r1, #592
 491 002a FFF7FEFF 		bl	chThdCreateStatic
 492              	.LVL14:
 493 002e 2860     		str	r0, [r5]
 494              		.loc 1 215 0
 495 0030 03B0     		add	sp, sp, #12
 496              		.cfi_def_cfa_offset 12
 497              		@ sp needed
 498 0032 30BD     		pop	{r4, r5, pc}
 499              	.L27:
 500              		.align	2
 501              	.L26:
 502 0034 00000000 		.word	UARTD1
 503 0038 00000000 		.word	.LANCHOR5
 504 003c 00000000 		.word	.LANCHOR6
 505 0040 00000000 		.word	DR16RxThd
 506 0044 00000000 		.word	.LANCHOR7
 507              		.cfi_endproc
 508              	.LFE333:
 509              		.size	DR16_start, .-DR16_start
 510              		.global	g_DR16_isConnected
 511              		.global	g_DR16_RC_Value
 512              		.section	.bss.DR16RxThd_wa,"aw",%nobits
 513              		.align	3
ARM GAS  /tmp/cc1FDi4j.s 			page 10


 514              		.set	.LANCHOR7,. + 0
 515              		.type	DR16RxThd_wa, %object
 516              		.size	DR16RxThd_wa, 592
 517              	DR16RxThd_wa:
 518 0000 00000000 		.space	592
 518      00000000 
 518      00000000 
 518      00000000 
 518      00000000 
 519              		.section	.bss.DR16_lastReceive,"aw",%nobits
 520              		.align	2
 521              		.set	.LANCHOR3,. + 0
 522              		.type	DR16_lastReceive, %object
 523              		.size	DR16_lastReceive, 4
 524              	DR16_lastReceive:
 525 0000 00000000 		.space	4
 526              		.section	.bss.DR16_receiverThread,"aw",%nobits
 527              		.align	2
 528              		.set	.LANCHOR6,. + 0
 529              		.type	DR16_receiverThread, %object
 530              		.size	DR16_receiverThread, 4
 531              	DR16_receiverThread:
 532 0000 00000000 		.space	4
 533              		.section	.bss.failcount.10123,"aw",%nobits
 534              		.align	2
 535              		.set	.LANCHOR4,. + 0
 536              		.type	failcount.10123, %object
 537              		.size	failcount.10123, 4
 538              	failcount.10123:
 539 0000 00000000 		.space	4
 540              		.section	.bss.g_DR16_RC_Value,"aw",%nobits
 541              		.align	2
 542              		.set	.LANCHOR0,. + 0
 543              		.type	g_DR16_RC_Value, %object
 544              		.size	g_DR16_RC_Value, 20
 545              	g_DR16_RC_Value:
 546 0000 00000000 		.space	20
 546      00000000 
 546      00000000 
 546      00000000 
 546      00000000 
 547              		.section	.bss.g_DR16_isConnected,"aw",%nobits
 548              		.set	.LANCHOR2,. + 0
 549              		.type	g_DR16_isConnected, %object
 550              		.size	g_DR16_isConnected, 1
 551              	g_DR16_isConnected:
 552 0000 00       		.space	1
 553              		.section	.bss.rxbuf,"aw",%nobits
 554              		.align	2
 555              		.set	.LANCHOR1,. + 0
 556              		.type	rxbuf, %object
 557              		.size	rxbuf, 18
 558              	rxbuf:
 559 0000 00000000 		.space	18
 559      00000000 
 559      00000000 
 559      00000000 
ARM GAS  /tmp/cc1FDi4j.s 			page 11


 559      0000
 560              		.section	.rodata.DR16RxThd.str1.4,"aMS",%progbits,1
 561              		.align	2
 562              	.LC0:
 563 0000 44523136 		.ascii	"DR16RxThd\000"
 563      52785468 
 563      6400
 564              		.section	.rodata.s_DR16_UART_Config.10134,"a",%progbits
 565              		.align	2
 566              		.set	.LANCHOR5,. + 0
 567              		.type	s_DR16_UART_Config.10134, %object
 568              		.size	s_DR16_UART_Config.10134, 32
 569              	s_DR16_UART_Config.10134:
 570 0000 00000000 		.word	0
 571 0004 00000000 		.word	0
 572 0008 00000000 		.word	0
 573 000c 00000000 		.word	0
 574 0010 00000000 		.word	0
 575 0014 A0860100 		.word	100000
 576 0018 0014     		.short	5120
 577 001a 2000     		.short	32
 578 001c 0000     		.short	0
 579 001e 0000     		.space	2
 580              		.text
 581              	.Letext0:
 582              		.file 5 "/usr/lib/gcc/arm-none-eabi/7.3.1/include/stddef.h"
 583              		.file 6 "/usr/arm-none-eabi/include/machine/_default_types.h"
 584              		.file 7 "/usr/arm-none-eabi/include/sys/_stdint.h"
 585              		.file 8 "./RM18A-ChibiOS18-Core/chibios/os/common/ports/ARMCMx/compilers/GCC/chtypes.h"
 586              		.file 9 "./RM18A-ChibiOS18-Core/chibios/os/rt/include/chsystypes.h"
 587              		.file 10 "./RM18A-ChibiOS18-Core/chibios/os/rt/include/chschd.h"
 588              		.file 11 "./RM18A-ChibiOS18-Core/chibios/os/rt/include/chtime.h"
 589              		.file 12 "./RM18A-ChibiOS18-Core/chibios/os/common/ext/ARM/CMSIS/Core/Include/core_cm4.h"
 590              		.file 13 "./RM18A-ChibiOS18-Core/chibios/os/common/ext/ST/STM32F4xx/system_stm32f4xx.h"
 591              		.file 14 "./RM18A-ChibiOS18-Core/chibios/os/common/ext/ST/STM32F4xx/stm32f427xx.h"
 592              		.file 15 "./RM18A-ChibiOS18-Core/chibios/os/common/ports/ARMCMx/chcore.h"
 593              		.file 16 "./RM18A-ChibiOS18-Core/chibios/os/common/ports/ARMCMx/chcore_v7m.h"
 594              		.file 17 "./RM18A-ChibiOS18-Core/chibios/os/hal/ports/STM32/LLD/TIMv1/stm32_tim.h"
 595              		.file 18 "./RM18A-ChibiOS18-Core/chibios/os/rt/include/chtm.h"
 596              		.file 19 "./RM18A-ChibiOS18-Core/chibios/os/rt/include/chsem.h"
 597              		.file 20 "./RM18A-ChibiOS18-Core/chibios/os/rt/include/chmtx.h"
 598              		.file 21 "./RM18A-ChibiOS18-Core/chibios/os/rt/include/chsys.h"
 599              		.file 22 "./RM18A-ChibiOS18-Core/chibios/os/rt/include/chevents.h"
 600              		.file 23 "./RM18A-ChibiOS18-Core/chibios/os/oslib/include/chmemcore.h"
 601              		.file 24 "./RM18A-ChibiOS18-Core/chibios/os/oslib/include/chmempools.h"
 602              		.file 25 "./RM18A-ChibiOS18-Core/chibios/os/oslib/include/chfactory.h"
 603              		.file 26 "./RM18A-ChibiOS18-Core/chibios/os/hal/ports/STM32/LLD/DMAv2/stm32_dma.h"
 604              		.file 27 "./RM18A-ChibiOS18-Core/chibios/os/hal/include/hal_queues.h"
 605              		.file 28 "./RM18A-ChibiOS18-Core/chibios/os/hal/include/hal_pal.h"
 606              		.file 29 "./RM18A-ChibiOS18-Core/chibios/os/hal/ports/STM32/LLD/GPIOv2/hal_pal_lld.h"
 607              		.file 30 "./RM18A-ChibiOS18-Core/chibios/os/hal/include/hal_adc.h"
 608              		.file 31 "./RM18A-ChibiOS18-Core/chibios/os/hal/ports/STM32/LLD/ADCv2/hal_adc_lld.h"
 609              		.file 32 "./RM18A-ChibiOS18-Core/chibios/os/hal/include/hal_can.h"
 610              		.file 33 "./RM18A-ChibiOS18-Core/chibios/os/hal/ports/STM32/LLD/CANv1/hal_can_lld.h"
 611              		.file 34 "./RM18A-ChibiOS18-Core/chibios/os/hal/include/hal_i2c.h"
 612              		.file 35 "./RM18A-ChibiOS18-Core/chibios/os/hal/lib/fallback/I2C/hal_i2c_lld.h"
 613              		.file 36 "./RM18A-ChibiOS18-Core/chibios/os/hal/include/hal_icu.h"
ARM GAS  /tmp/cc1FDi4j.s 			page 12


 614              		.file 37 "./RM18A-ChibiOS18-Core/chibios/os/hal/ports/STM32/LLD/TIMv1/hal_icu_lld.h"
 615              		.file 38 "./RM18A-ChibiOS18-Core/chibios/os/hal/include/hal_pwm.h"
 616              		.file 39 "./RM18A-ChibiOS18-Core/chibios/os/hal/ports/STM32/LLD/TIMv1/hal_pwm_lld.h"
 617              		.file 40 "./RM18A-ChibiOS18-Core/chibios/os/hal/include/hal_serial.h"
 618              		.file 41 "./RM18A-ChibiOS18-Core/chibios/os/hal/ports/STM32/LLD/USARTv1/hal_serial_lld.h"
 619              		.file 42 "./RM18A-ChibiOS18-Core/chibios/os/hal/include/hal_spi.h"
 620              		.file 43 "./RM18A-ChibiOS18-Core/chibios/os/hal/ports/STM32/LLD/SPIv1/hal_spi_lld.h"
 621              		.file 44 "./RM18A-ChibiOS18-Core/chibios/os/hal/include/hal_uart.h"
 622              		.file 45 "./RM18A-ChibiOS18-Core/chibios/os/hal/ports/STM32/LLD/USARTv1/hal_uart_lld.h"
 623              		.file 46 "./RM18A-ChibiOS18-Core/chibios/os/hal/include/hal_usb.h"
 624              		.file 47 "./RM18A-ChibiOS18-Core/chibios/os/hal/ports/STM32/LLD/OTGv1/hal_usb_lld.h"
 625              		.file 48 "./RM18A-ChibiOS18-Core/chibios/os/hal/ports/STM32/LLD/OTGv1/stm32_otg.h"
 626              		.file 49 "./RM18A-ChibiOS18-Core/src/ext_hw/DR16.h"
 627              		.file 50 "./RM18A-ChibiOS18-Core/chibios/os/rt/include/chvt.h"
 628              		.file 51 "./RM18A-ChibiOS18-Core/chibios/os/rt/include/chthreads.h"
 629              		.file 52 "./RM18A-ChibiOS18-Core/chibios/os/common/ports/ARMCMx/chcore_timer.h"