ARM GAS  /tmp/ccbPff0O.s 			page 1


   1              		.cpu cortex-m4
   2              		.eabi_attribute 27, 1
   3              		.eabi_attribute 28, 1
   4              		.eabi_attribute 20, 1
   5              		.eabi_attribute 21, 1
   6              		.eabi_attribute 23, 3
   7              		.eabi_attribute 24, 1
   8              		.eabi_attribute 25, 1
   9              		.eabi_attribute 26, 1
  10              		.eabi_attribute 30, 2
  11              		.eabi_attribute 34, 1
  12              		.eabi_attribute 18, 4
  13              		.file	"flash.c"
  14              		.text
  15              	.Ltext0:
  16              		.cfi_sections	.debug_frame
  17              		.section	.text.Flash_SectorSize,"ax",%progbits
  18              		.align	1
  19              		.p2align 2,,3
  20              		.global	Flash_SectorSize
  21              		.syntax unified
  22              		.thumb
  23              		.thumb_func
  24              		.fpu fpv4-sp-d16
  25              		.type	Flash_SectorSize, %function
  26              	Flash_SectorSize:
  27              	.LFB327:
  28              		.file 1 "./RM18A-ChibiOS18-Core/src/peripherals/flash.c"
  29              		.loc 1 34 0
  30              		.cfi_startproc
  31              		@ args = 0, pretend = 0, frame = 0
  32              		@ frame_needed = 0, uses_anonymous_args = 0
  33              		@ link register save eliminated.
  34              	.LVL0:
  35              		.loc 1 35 0
  36 0000 A0F10C03 		sub	r3, r0, #12
  37 0004 0B2B     		cmp	r3, #11
  38 0006 98BF     		it	ls
  39 0008 1846     		movls	r0, r3
  40              	.LVL1:
  41              		.loc 1 37 0
  42 000a 0328     		cmp	r0, #3
  43 000c 08D9     		bls	.L4
  44              		.loc 1 39 0
  45 000e 0428     		cmp	r0, #4
  46 0010 09D0     		beq	.L5
  47              		.loc 1 41 0
  48 0012 0538     		subs	r0, r0, #5
  49              	.LVL2:
  50              		.loc 1 43 0
  51 0014 0728     		cmp	r0, #7
  52 0016 34BF     		ite	cc
  53 0018 4FF40030 		movcc	r0, #131072
  54              	.LVL3:
  55 001c 0020     		movcs	r0, #0
  56 001e 7047     		bx	lr
  57              	.LVL4:
ARM GAS  /tmp/ccbPff0O.s 			page 2


  58              	.L4:
  59              		.loc 1 38 0
  60 0020 4FF48040 		mov	r0, #16384
  61              	.LVL5:
  62 0024 7047     		bx	lr
  63              	.LVL6:
  64              	.L5:
  65              		.loc 1 40 0
  66 0026 4FF48030 		mov	r0, #65536
  67              	.LVL7:
  68              		.loc 1 44 0
  69 002a 7047     		bx	lr
  70              		.cfi_endproc
  71              	.LFE327:
  72              		.size	Flash_SectorSize, .-Flash_SectorSize
  73              		.section	.text.Flash_SectorBegin,"ax",%progbits
  74              		.align	1
  75              		.p2align 2,,3
  76              		.global	Flash_SectorBegin
  77              		.syntax unified
  78              		.thumb
  79              		.thumb_func
  80              		.fpu fpv4-sp-d16
  81              		.type	Flash_SectorBegin, %function
  82              	Flash_SectorBegin:
  83              	.LFB328:
  84              		.loc 1 52 0
  85              		.cfi_startproc
  86              		@ args = 0, pretend = 0, frame = 0
  87              		@ frame_needed = 0, uses_anonymous_args = 0
  88              		@ link register save eliminated.
  89              	.LVL8:
  90              		.loc 1 53 0
  91 0000 1728     		cmp	r0, #23
  92 0002 26D8     		bhi	.L15
  93              	.LVL9:
  94 0004 0346     		mov	r3, r0
  95              	.LBB111:
  96              	.LBB112:
  97              		.loc 1 56 0
  98 0006 08B3     		cbz	r0, .L16
  99 0008 A0F10D02 		sub	r2, r0, #13
 100              	.LBE112:
 101              	.LBE111:
 102              		.loc 1 52 0
 103 000c 10B4     		push	{r4}
 104              		.cfi_def_cfa_offset 4
 105              		.cfi_offset 4, -4
 106              	.LBB119:
 107              	.LBB117:
 108              		.loc 1 55 0
 109 000e 4FF00060 		mov	r0, #134217728
 110              	.LVL10:
 111 0012 09E0     		b	.L14
 112              	.LVL11:
 113              	.L24:
 114              	.LBB113:
ARM GAS  /tmp/ccbPff0O.s 			page 3


 115              	.LBB114:
 116              		.loc 1 39 0
 117 0014 0429     		cmp	r1, #4
 118              		.loc 1 41 0
 119 0016 A1F10504 		sub	r4, r1, #5
 120              		.loc 1 39 0
 121 001a 14D0     		beq	.L12
 122              		.loc 1 41 0
 123 001c 062C     		cmp	r4, #6
 124 001e 01D8     		bhi	.L13
 125 0020 00F50030 		add	r0, r0, #131072
 126              	.LVL12:
 127              	.L13:
 128 0024 013A     		subs	r2, r2, #1
 129              	.LBE114:
 130              	.LBE113:
 131              		.loc 1 56 0
 132 0026 5BB1     		cbz	r3, .L23
 133              	.L14:
 134              	.LVL13:
 135              		.loc 1 58 0
 136 0028 013B     		subs	r3, r3, #1
 137              	.LVL14:
 138 002a 0B2A     		cmp	r2, #11
 139 002c 94BF     		ite	ls
 140 002e 1146     		movls	r1, r2
 141 0030 1946     		movhi	r1, r3
 142              	.LVL15:
 143              	.LBB116:
 144              	.LBB115:
 145              		.loc 1 37 0
 146 0032 0329     		cmp	r1, #3
 147 0034 EED8     		bhi	.L24
 148 0036 00F58040 		add	r0, r0, #16384
 149              	.LVL16:
 150 003a 013A     		subs	r2, r2, #1
 151              	.LBE115:
 152              	.LBE116:
 153              		.loc 1 56 0
 154 003c 002B     		cmp	r3, #0
 155 003e F3D1     		bne	.L14
 156              	.L23:
 157              	.LBE117:
 158              	.LBE119:
 159              		.loc 1 62 0
 160 0040 5DF8044B 		ldr	r4, [sp], #4
 161              		.cfi_remember_state
 162              		.cfi_restore 4
 163              		.cfi_def_cfa_offset 0
 164 0044 7047     		bx	lr
 165              	.LVL17:
 166              	.L12:
 167              		.cfi_restore_state
 168 0046 00F58030 		add	r0, r0, #65536
 169              	.LVL18:
 170 004a EBE7     		b	.L13
 171              	.LVL19:
ARM GAS  /tmp/ccbPff0O.s 			page 4


 172              	.L16:
 173              		.cfi_def_cfa_offset 0
 174              		.cfi_restore 4
 175              	.LBB120:
 176              	.LBB118:
 177              		.loc 1 55 0
 178 004c 4FF00060 		mov	r0, #134217728
 179              	.LVL20:
 180              	.LBE118:
 181              	.LBE120:
 182              		.loc 1 62 0
 183 0050 7047     		bx	lr
 184              	.LVL21:
 185              	.L15:
 186              		.loc 1 54 0
 187 0052 0020     		movs	r0, #0
 188              	.LVL22:
 189 0054 7047     		bx	lr
 190              		.cfi_endproc
 191              	.LFE328:
 192              		.size	Flash_SectorBegin, .-Flash_SectorBegin
 193 0056 00BF     		.section	.text.flashSectorEnd,"ax",%progbits
 194              		.align	1
 195              		.p2align 2,,3
 196              		.global	flashSectorEnd
 197              		.syntax unified
 198              		.thumb
 199              		.thumb_func
 200              		.fpu fpv4-sp-d16
 201              		.type	flashSectorEnd, %function
 202              	flashSectorEnd:
 203              	.LFB329:
 204              		.loc 1 70 0
 205              		.cfi_startproc
 206              		@ args = 0, pretend = 0, frame = 0
 207              		@ frame_needed = 0, uses_anonymous_args = 0
 208              		@ link register save eliminated.
 209              	.LVL23:
 210              		.loc 1 71 0
 211 0000 421C     		adds	r2, r0, #1
 212              	.LVL24:
 213              	.LBB127:
 214              	.LBB128:
 215              		.loc 1 53 0
 216 0002 172A     		cmp	r2, #23
 217 0004 25D8     		bhi	.L32
 218              	.LVL25:
 219              	.LBB129:
 220              	.LBB130:
 221              		.loc 1 56 0
 222 0006 0AB3     		cbz	r2, .L33
 223 0008 A0F10C03 		sub	r3, r0, #12
 224              	.LBE130:
 225              	.LBE129:
 226              	.LBE128:
 227              	.LBE127:
 228              		.loc 1 70 0
ARM GAS  /tmp/ccbPff0O.s 			page 5


 229 000c 10B4     		push	{r4}
 230              		.cfi_def_cfa_offset 4
 231              		.cfi_offset 4, -4
 232              	.LBB142:
 233              	.LBB139:
 234              	.LBB137:
 235              	.LBB135:
 236              		.loc 1 55 0
 237 000e 4FF00060 		mov	r0, #134217728
 238              	.LVL26:
 239 0012 09E0     		b	.L31
 240              	.LVL27:
 241              	.L41:
 242              	.LBB131:
 243              	.LBB132:
 244              		.loc 1 39 0
 245 0014 0429     		cmp	r1, #4
 246              		.loc 1 41 0
 247 0016 A1F10504 		sub	r4, r1, #5
 248              		.loc 1 39 0
 249 001a 14D0     		beq	.L29
 250              		.loc 1 41 0
 251 001c 062C     		cmp	r4, #6
 252 001e 01D8     		bhi	.L30
 253 0020 00F50030 		add	r0, r0, #131072
 254              	.LVL28:
 255              	.L30:
 256 0024 013B     		subs	r3, r3, #1
 257              	.LBE132:
 258              	.LBE131:
 259              		.loc 1 56 0
 260 0026 5AB1     		cbz	r2, .L40
 261              	.L31:
 262              	.LVL29:
 263              		.loc 1 58 0
 264 0028 013A     		subs	r2, r2, #1
 265              	.LVL30:
 266 002a 0B2B     		cmp	r3, #11
 267 002c 94BF     		ite	ls
 268 002e 1946     		movls	r1, r3
 269 0030 1146     		movhi	r1, r2
 270              	.LVL31:
 271              	.LBB134:
 272              	.LBB133:
 273              		.loc 1 37 0
 274 0032 0329     		cmp	r1, #3
 275 0034 EED8     		bhi	.L41
 276 0036 00F58040 		add	r0, r0, #16384
 277              	.LVL32:
 278 003a 013B     		subs	r3, r3, #1
 279              	.LBE133:
 280              	.LBE134:
 281              		.loc 1 56 0
 282 003c 002A     		cmp	r2, #0
 283 003e F3D1     		bne	.L31
 284              	.L40:
 285              	.LBE135:
ARM GAS  /tmp/ccbPff0O.s 			page 6


 286              	.LBE137:
 287              	.LBE139:
 288              	.LBE142:
 289              		.loc 1 72 0
 290 0040 5DF8044B 		ldr	r4, [sp], #4
 291              		.cfi_remember_state
 292              		.cfi_restore 4
 293              		.cfi_def_cfa_offset 0
 294 0044 7047     		bx	lr
 295              	.LVL33:
 296              	.L29:
 297              		.cfi_restore_state
 298 0046 00F58030 		add	r0, r0, #65536
 299              	.LVL34:
 300 004a EBE7     		b	.L30
 301              	.LVL35:
 302              	.L33:
 303              		.cfi_def_cfa_offset 0
 304              		.cfi_restore 4
 305              	.LBB143:
 306              	.LBB140:
 307              	.LBB138:
 308              	.LBB136:
 309              		.loc 1 55 0
 310 004c 4FF00060 		mov	r0, #134217728
 311              	.LVL36:
 312              	.LBE136:
 313              	.LBE138:
 314              	.LBE140:
 315              	.LBE143:
 316              		.loc 1 72 0
 317 0050 7047     		bx	lr
 318              	.LVL37:
 319              	.L32:
 320              	.LBB144:
 321              	.LBB141:
 322              		.loc 1 54 0
 323 0052 0020     		movs	r0, #0
 324              	.LVL38:
 325 0054 7047     		bx	lr
 326              	.LBE141:
 327              	.LBE144:
 328              		.cfi_endproc
 329              	.LFE329:
 330              		.size	flashSectorEnd, .-flashSectorEnd
 331 0056 00BF     		.section	.text.getSectorAt,"ax",%progbits
 332              		.align	1
 333              		.p2align 2,,3
 334              		.global	getSectorAt
 335              		.syntax unified
 336              		.thumb
 337              		.thumb_func
 338              		.fpu fpv4-sp-d16
 339              		.type	getSectorAt, %function
 340              	getSectorAt:
 341              	.LFB330:
 342              		.loc 1 81 0
ARM GAS  /tmp/ccbPff0O.s 			page 7


 343              		.cfi_startproc
 344              		@ args = 0, pretend = 0, frame = 0
 345              		@ frame_needed = 0, uses_anonymous_args = 0
 346              		@ link register save eliminated.
 347              	.LVL39:
 348 0000 F0B4     		push	{r4, r5, r6, r7}
 349              		.cfi_def_cfa_offset 16
 350              		.cfi_offset 4, -16
 351              		.cfi_offset 5, -12
 352              		.cfi_offset 6, -8
 353              		.cfi_offset 7, -4
 354              		.loc 1 81 0
 355 0002 0746     		mov	r7, r0
 356              		.loc 1 82 0
 357 0004 0020     		movs	r0, #0
 358              	.LVL40:
 359              	.L43:
 360              	.LBB153:
 361              	.LBB154:
 362              		.loc 1 71 0
 363 0006 461C     		adds	r6, r0, #1
 364              	.LVL41:
 365              	.LBB155:
 366              	.LBB156:
 367              		.loc 1 53 0
 368 0008 172E     		cmp	r6, #23
 369 000a 1ED8     		bhi	.L44
 370              	.LVL42:
 371              	.LBB157:
 372              	.LBB158:
 373              		.loc 1 56 0
 374 000c 26B3     		cbz	r6, .L51
 375 000e A0F10C02 		sub	r2, r0, #12
 376 0012 3346     		mov	r3, r6
 377              		.loc 1 55 0
 378 0014 4FF00064 		mov	r4, #134217728
 379 0018 03E0     		b	.L50
 380              	.LVL43:
 381              	.L55:
 382 001a 04F58044 		add	r4, r4, #16384
 383              	.LVL44:
 384              	.L48:
 385 001e 013A     		subs	r2, r2, #1
 386              		.loc 1 56 0
 387 0020 8BB1     		cbz	r3, .L45
 388              	.L50:
 389              	.LVL45:
 390              		.loc 1 58 0
 391 0022 013B     		subs	r3, r3, #1
 392              	.LVL46:
 393 0024 0B2A     		cmp	r2, #11
 394 0026 94BF     		ite	ls
 395 0028 1146     		movls	r1, r2
 396 002a 1946     		movhi	r1, r3
 397              	.LVL47:
 398              	.LBB159:
 399              	.LBB160:
ARM GAS  /tmp/ccbPff0O.s 			page 8


 400              		.loc 1 37 0
 401 002c 0329     		cmp	r1, #3
 402 002e F4D9     		bls	.L55
 403              		.loc 1 39 0
 404 0030 0429     		cmp	r1, #4
 405              		.loc 1 41 0
 406 0032 A1F10505 		sub	r5, r1, #5
 407              		.loc 1 39 0
 408 0036 0CD0     		beq	.L56
 409              		.loc 1 41 0
 410 0038 062D     		cmp	r5, #6
 411 003a 98BF     		it	ls
 412 003c 04F50034 		addls	r4, r4, #131072
 413              	.LVL48:
 414 0040 013A     		subs	r2, r2, #1
 415              	.LBE160:
 416              	.LBE159:
 417              		.loc 1 56 0
 418 0042 002B     		cmp	r3, #0
 419 0044 EDD1     		bne	.L50
 420              	.L45:
 421              	.LVL49:
 422              	.LBE158:
 423              	.LBE157:
 424              	.LBE156:
 425              	.LBE155:
 426              	.LBE154:
 427              	.LBE153:
 428              		.loc 1 83 0
 429 0046 A742     		cmp	r7, r4
 430 0048 01D3     		bcc	.L57
 431              	.LVL50:
 432              	.L44:
 433              		.loc 1 81 0
 434 004a 3046     		mov	r0, r6
 435              	.LVL51:
 436 004c DBE7     		b	.L43
 437              	.LVL52:
 438              	.L57:
 439              		.loc 1 86 0
 440 004e F0BC     		pop	{r4, r5, r6, r7}
 441              		.cfi_remember_state
 442              		.cfi_restore 7
 443              		.cfi_restore 6
 444              		.cfi_restore 5
 445              		.cfi_restore 4
 446              		.cfi_def_cfa_offset 0
 447              	.LVL53:
 448 0050 7047     		bx	lr
 449              	.LVL54:
 450              	.L56:
 451              		.cfi_restore_state
 452 0052 04F58034 		add	r4, r4, #65536
 453              	.LVL55:
 454 0056 E2E7     		b	.L48
 455              	.LVL56:
 456              	.L51:
ARM GAS  /tmp/ccbPff0O.s 			page 9


 457              	.LBB166:
 458              	.LBB165:
 459              	.LBB164:
 460              	.LBB163:
 461              	.LBB162:
 462              	.LBB161:
 463              		.loc 1 55 0
 464 0058 4FF00064 		mov	r4, #134217728
 465              	.LVL57:
 466              	.LBE161:
 467              	.LBE162:
 468              	.LBE163:
 469              	.LBE164:
 470              	.LBE165:
 471              	.LBE166:
 472              		.loc 1 83 0
 473 005c A742     		cmp	r7, r4
 474 005e F4D2     		bcs	.L44
 475 0060 F5E7     		b	.L57
 476              		.cfi_endproc
 477              	.LFE330:
 478              		.size	getSectorAt, .-getSectorAt
 479 0062 00BF     		.section	.text.Flash_Unlock,"ax",%progbits
 480              		.align	1
 481              		.p2align 2,,3
 482              		.global	Flash_Unlock
 483              		.syntax unified
 484              		.thumb
 485              		.thumb_func
 486              		.fpu fpv4-sp-d16
 487              		.type	Flash_Unlock, %function
 488              	Flash_Unlock:
 489              	.LFB332:
 490              		.loc 1 102 0
 491              		.cfi_startproc
 492              		@ args = 0, pretend = 0, frame = 0
 493              		@ frame_needed = 0, uses_anonymous_args = 0
 494              		@ link register save eliminated.
 495              		.loc 1 104 0
 496 0000 064B     		ldr	r3, .L62
 497 0002 1A69     		ldr	r2, [r3, #16]
 498 0004 002A     		cmp	r2, #0
 499 0006 01DB     		blt	.L61
 500              		.loc 1 105 0
 501 0008 0120     		movs	r0, #1
 502              		.loc 1 115 0
 503 000a 7047     		bx	lr
 504              	.L61:
 505              	.LBB169:
 506              	.LBB170:
 507              		.loc 1 108 0
 508 000c 0449     		ldr	r1, .L62+4
 509              		.loc 1 109 0
 510 000e 054A     		ldr	r2, .L62+8
 511              		.loc 1 108 0
 512 0010 5960     		str	r1, [r3, #4]
 513              		.loc 1 109 0
ARM GAS  /tmp/ccbPff0O.s 			page 10


 514 0012 5A60     		str	r2, [r3, #4]
 515              		.loc 1 112 0
 516 0014 1869     		ldr	r0, [r3, #16]
 517 0016 C043     		mvns	r0, r0
 518 0018 C00F     		lsrs	r0, r0, #31
 519 001a 7047     		bx	lr
 520              	.L63:
 521              		.align	2
 522              	.L62:
 523 001c 003C0240 		.word	1073888256
 524 0020 23016745 		.word	1164378403
 525 0024 AB89EFCD 		.word	-839939669
 526              	.LBE170:
 527              	.LBE169:
 528              		.cfi_endproc
 529              	.LFE332:
 530              		.size	Flash_Unlock, .-Flash_Unlock
 531              		.section	.text.Flash_SectorErase,"ax",%progbits
 532              		.align	1
 533              		.p2align 2,,3
 534              		.global	Flash_SectorErase
 535              		.syntax unified
 536              		.thumb
 537              		.thumb_func
 538              		.fpu fpv4-sp-d16
 539              		.type	Flash_SectorErase, %function
 540              	Flash_SectorErase:
 541              	.LFB334:
 542              		.loc 1 136 0
 543              		.cfi_startproc
 544              		@ args = 0, pretend = 0, frame = 0
 545              		@ frame_needed = 0, uses_anonymous_args = 0
 546              		@ link register save eliminated.
 547              	.LVL58:
 548              	.LBB191:
 549              	.LBB192:
 550              		.loc 1 104 0
 551 0000 5C4B     		ldr	r3, .L123
 552 0002 1A69     		ldr	r2, [r3, #16]
 553 0004 002A     		cmp	r2, #0
 554 0006 C0F2A380 		blt	.L65
 555              	.L69:
 556              	.LVL59:
 557              	.LBE192:
 558              	.LBE191:
 559              	.LBB196:
 560              	.LBB197:
 561              		.loc 1 53 0
 562 000a 1728     		cmp	r0, #23
 563              	.LBE197:
 564              	.LBE196:
 565              		.loc 1 136 0
 566 000c 30B4     		push	{r4, r5}
 567              		.cfi_def_cfa_offset 8
 568              		.cfi_offset 4, -8
 569              		.cfi_offset 5, -4
 570              	.LBB206:
ARM GAS  /tmp/ccbPff0O.s 			page 11


 571              	.LBB204:
 572              		.loc 1 53 0
 573 000e 1CD8     		bhi	.L87
 574              	.LVL60:
 575              	.LBB198:
 576              	.LBB199:
 577              		.loc 1 56 0
 578 0010 0028     		cmp	r0, #0
 579 0012 00F0AB80 		beq	.L89
 580 0016 A0F10D01 		sub	r1, r0, #13
 581 001a 0346     		mov	r3, r0
 582              		.loc 1 55 0
 583 001c 4FF00062 		mov	r2, #134217728
 584 0020 03E0     		b	.L74
 585              	.LVL61:
 586              	.L120:
 587 0022 02F58042 		add	r2, r2, #16384
 588              	.LVL62:
 589              	.L72:
 590 0026 0139     		subs	r1, r1, #1
 591              		.loc 1 56 0
 592 0028 83B1     		cbz	r3, .L66
 593              	.L74:
 594              	.LVL63:
 595              		.loc 1 58 0
 596 002a 013B     		subs	r3, r3, #1
 597              	.LVL64:
 598 002c 0B29     		cmp	r1, #11
 599 002e 94BF     		ite	ls
 600 0030 0C46     		movls	r4, r1
 601 0032 1C46     		movhi	r4, r3
 602              	.LVL65:
 603              	.LBB200:
 604              	.LBB201:
 605              		.loc 1 37 0
 606 0034 032C     		cmp	r4, #3
 607 0036 F4D9     		bls	.L120
 608              		.loc 1 39 0
 609 0038 042C     		cmp	r4, #4
 610              		.loc 1 41 0
 611 003a A4F10505 		sub	r5, r4, #5
 612              		.loc 1 39 0
 613 003e 70D0     		beq	.L121
 614              		.loc 1 41 0
 615 0040 062D     		cmp	r5, #6
 616 0042 98BF     		it	ls
 617 0044 02F50032 		addls	r2, r2, #131072
 618              	.LVL66:
 619 0048 EDE7     		b	.L72
 620              	.LVL67:
 621              	.L87:
 622              	.LBE201:
 623              	.LBE200:
 624              	.LBE199:
 625              	.LBE198:
 626              		.loc 1 54 0
 627 004a 0022     		movs	r2, #0
ARM GAS  /tmp/ccbPff0O.s 			page 12


 628              	.L66:
 629              	.LVL68:
 630              	.LBE204:
 631              	.LBE206:
 632              	.LBB207:
 633              	.LBB208:
 634              		.loc 1 93 0
 635 004c 4949     		ldr	r1, .L123
 636              	.L75:
 637 004e CB68     		ldr	r3, [r1, #12]
 638 0050 DC03     		lsls	r4, r3, #15
 639 0052 FCD4     		bmi	.L75
 640              	.LBE208:
 641              	.LBE207:
 642              		.loc 1 148 0
 643 0054 0B69     		ldr	r3, [r1, #16]
 644 0056 23F48073 		bic	r3, r3, #256
 645 005a 0B61     		str	r3, [r1, #16]
 646              		.loc 1 149 0
 647 005c 0B69     		ldr	r3, [r1, #16]
 648              		.loc 1 156 0
 649 005e 0B28     		cmp	r0, #11
 650              		.loc 1 149 0
 651 0060 43F40073 		orr	r3, r3, #512
 652 0064 0B61     		str	r3, [r1, #16]
 653 0066 A0F10C04 		sub	r4, r0, #12
 654              		.loc 1 156 0
 655 006a 07D9     		bls	.L76
 656              		.loc 1 158 0
 657 006c 0B69     		ldr	r3, [r1, #16]
 658 006e A0F11805 		sub	r5, r0, #24
 659 0072 43F08003 		orr	r3, r3, #128
 660              		.loc 1 159 0
 661 0076 2046     		mov	r0, r4
 662              	.LVL69:
 663              		.loc 1 158 0
 664 0078 0B61     		str	r3, [r1, #16]
 665              	.LVL70:
 666 007a 2C46     		mov	r4, r5
 667              	.L76:
 668              	.LVL71:
 669              		.loc 1 161 0
 670 007c 3D4B     		ldr	r3, .L123
 671 007e 1969     		ldr	r1, [r3, #16]
 672 0080 21F07801 		bic	r1, r1, #120
 673 0084 1961     		str	r1, [r3, #16]
 674              		.loc 1 162 0
 675 0086 C107     		lsls	r1, r0, #31
 676 0088 03D5     		bpl	.L77
 677              		.loc 1 163 0
 678 008a 1969     		ldr	r1, [r3, #16]
 679 008c 41F00801 		orr	r1, r1, #8
 680 0090 1961     		str	r1, [r3, #16]
 681              	.L77:
 682              		.loc 1 164 0
 683 0092 8307     		lsls	r3, r0, #30
 684 0094 04D5     		bpl	.L78
ARM GAS  /tmp/ccbPff0O.s 			page 13


 685              		.loc 1 165 0
 686 0096 3749     		ldr	r1, .L123
 687 0098 0B69     		ldr	r3, [r1, #16]
 688 009a 43F01003 		orr	r3, r3, #16
 689 009e 0B61     		str	r3, [r1, #16]
 690              	.L78:
 691              		.loc 1 166 0
 692 00a0 4507     		lsls	r5, r0, #29
 693 00a2 04D5     		bpl	.L79
 694              		.loc 1 167 0
 695 00a4 3349     		ldr	r1, .L123
 696 00a6 0B69     		ldr	r3, [r1, #16]
 697 00a8 43F02003 		orr	r3, r3, #32
 698 00ac 0B61     		str	r3, [r1, #16]
 699              	.L79:
 700              		.loc 1 168 0
 701 00ae 0107     		lsls	r1, r0, #28
 702 00b0 04D5     		bpl	.L80
 703              		.loc 1 169 0
 704 00b2 3049     		ldr	r1, .L123
 705 00b4 0B69     		ldr	r3, [r1, #16]
 706 00b6 43F04003 		orr	r3, r3, #64
 707 00ba 0B61     		str	r3, [r1, #16]
 708              	.L80:
 709              		.loc 1 170 0
 710 00bc 2D49     		ldr	r1, .L123
 711 00be 0B69     		ldr	r3, [r1, #16]
 712 00c0 43F00203 		orr	r3, r3, #2
 713 00c4 0B61     		str	r3, [r1, #16]
 714              		.loc 1 171 0
 715 00c6 0B69     		ldr	r3, [r1, #16]
 716 00c8 43F48033 		orr	r3, r3, #65536
 717 00cc 0B61     		str	r3, [r1, #16]
 718              	.L81:
 719              	.LBB209:
 720              	.LBB210:
 721              		.loc 1 93 0
 722 00ce CB68     		ldr	r3, [r1, #12]
 723 00d0 13F48033 		ands	r3, r3, #65536
 724 00d4 FBD1     		bne	.L81
 725              	.LBE210:
 726              	.LBE209:
 727              	.LBB211:
 728              	.LBB212:
 729              		.loc 1 122 0
 730 00d6 0D69     		ldr	r5, [r1, #16]
 731              	.LBE212:
 732              	.LBE211:
 733              	.LBB215:
 734              	.LBB216:
 735              		.loc 1 35 0
 736 00d8 0B2C     		cmp	r4, #11
 737 00da 88BF     		it	hi
 738 00dc 0446     		movhi	r4, r0
 739              	.LBE216:
 740              	.LBE215:
 741              	.LBB221:
ARM GAS  /tmp/ccbPff0O.s 			page 14


 742              	.LBB213:
 743              		.loc 1 122 0
 744 00de 45F00045 		orr	r5, r5, #-2147483648
 745              	.LBE213:
 746              	.LBE221:
 747              	.LBB222:
 748              	.LBB217:
 749              		.loc 1 37 0
 750 00e2 032C     		cmp	r4, #3
 751              	.LBE217:
 752              	.LBE222:
 753              	.LBB223:
 754              	.LBB214:
 755              		.loc 1 122 0
 756 00e4 0D61     		str	r5, [r1, #16]
 757              	.LVL72:
 758              	.LBE214:
 759              	.LBE223:
 760              	.LBB224:
 761              	.LBB218:
 762              		.loc 1 37 0
 763 00e6 11D8     		bhi	.L83
 764              		.loc 1 38 0
 765 00e8 4FF48041 		mov	r1, #16384
 766              	.LVL73:
 767              	.L85:
 768              	.LBE218:
 769              	.LBE224:
 770              	.LBB225:
 771              	.LBB226:
 772              		.loc 1 235 0
 773 00ec 1368     		ldr	r3, [r2]
 774 00ee 0133     		adds	r3, r3, #1
 775 00f0 08D1     		bne	.L98
 776              	.LVL74:
 777              	.L84:
 778              		.loc 1 240 0
 779 00f2 0B1F     		subs	r3, r1, #4
 780              	.LVL75:
 781              		.loc 1 233 0
 782 00f4 032B     		cmp	r3, #3
 783              		.loc 1 239 0
 784 00f6 02F10402 		add	r2, r2, #4
 785              	.LVL76:
 786              		.loc 1 233 0
 787 00fa 15D9     		bls	.L122
 788              		.loc 1 235 0
 789 00fc 1068     		ldr	r0, [r2]
 790 00fe 1946     		mov	r1, r3
 791 0100 431C     		adds	r3, r0, #1
 792              	.LVL77:
 793 0102 F6D0     		beq	.L84
 794              	.LVL78:
 795              	.L98:
 796              	.LBE226:
 797              	.LBE225:
 798              		.loc 1 181 0
ARM GAS  /tmp/ccbPff0O.s 			page 15


 799 0104 6FF00A00 		mvn	r0, #10
 800              		.loc 1 185 0
 801 0108 30BC     		pop	{r4, r5}
 802              		.cfi_remember_state
 803              		.cfi_restore 5
 804              		.cfi_restore 4
 805              		.cfi_def_cfa_offset 0
 806 010a 7047     		bx	lr
 807              	.LVL79:
 808              	.L83:
 809              		.cfi_restore_state
 810              	.LBB228:
 811              	.LBB219:
 812              		.loc 1 39 0
 813 010c 042C     		cmp	r4, #4
 814 010e 2AD0     		beq	.L92
 815              		.loc 1 41 0
 816 0110 053C     		subs	r4, r4, #5
 817              	.LVL80:
 818 0112 062C     		cmp	r4, #6
 819 0114 02D8     		bhi	.L99
 820              		.loc 1 42 0
 821 0116 4FF40031 		mov	r1, #131072
 822 011a E7E7     		b	.L85
 823              	.LVL81:
 824              	.L99:
 825              	.LBE219:
 826              	.LBE228:
 827              		.loc 1 184 0
 828 011c 0020     		movs	r0, #0
 829              		.loc 1 185 0
 830 011e 30BC     		pop	{r4, r5}
 831              		.cfi_remember_state
 832              		.cfi_restore 5
 833              		.cfi_restore 4
 834              		.cfi_def_cfa_offset 0
 835 0120 7047     		bx	lr
 836              	.LVL82:
 837              	.L121:
 838              		.cfi_restore_state
 839 0122 02F58032 		add	r2, r2, #65536
 840              	.LVL83:
 841 0126 7EE7     		b	.L72
 842              	.LVL84:
 843              	.L122:
 844              	.LBB229:
 845              	.LBB227:
 846              		.loc 1 242 0
 847 0128 002B     		cmp	r3, #0
 848 012a F7D0     		beq	.L99
 849              		.loc 1 244 0
 850 012c 1378     		ldrb	r3, [r2]	@ zero_extendqisi2
 851              	.LVL85:
 852 012e FF2B     		cmp	r3, #255
 853 0130 E8D1     		bne	.L98
 854              	.LVL86:
 855              		.loc 1 242 0
ARM GAS  /tmp/ccbPff0O.s 			page 16


 856 0132 4B1F     		subs	r3, r1, #5
 857              	.LVL87:
 858 0134 F2D0     		beq	.L99
 859              		.loc 1 244 0
 860 0136 5378     		ldrb	r3, [r2, #1]	@ zero_extendqisi2
 861              	.LVL88:
 862 0138 FF2B     		cmp	r3, #255
 863 013a E3D1     		bne	.L98
 864              	.LVL89:
 865              		.loc 1 242 0
 866 013c 0629     		cmp	r1, #6
 867 013e EDD0     		beq	.L99
 868              		.loc 1 244 0
 869 0140 9378     		ldrb	r3, [r2, #2]	@ zero_extendqisi2
 870              	.LBE227:
 871              	.LBE229:
 872              		.loc 1 181 0
 873 0142 FF2B     		cmp	r3, #255
 874 0144 0CBF     		ite	eq
 875 0146 0020     		moveq	r0, #0
 876 0148 6FF00A00 		mvnne	r0, #10
 877              		.loc 1 185 0
 878 014c 30BC     		pop	{r4, r5}
 879              		.cfi_restore 5
 880              		.cfi_restore 4
 881              		.cfi_def_cfa_offset 0
 882 014e 7047     		bx	lr
 883              	.LVL90:
 884              	.L65:
 885              	.LBB230:
 886              	.LBB195:
 887              	.LBB193:
 888              	.LBB194:
 889              		.loc 1 108 0
 890 0150 0949     		ldr	r1, .L123+4
 891              		.loc 1 109 0
 892 0152 0A4A     		ldr	r2, .L123+8
 893              		.loc 1 108 0
 894 0154 5960     		str	r1, [r3, #4]
 895              		.loc 1 109 0
 896 0156 5A60     		str	r2, [r3, #4]
 897              		.loc 1 112 0
 898 0158 1B69     		ldr	r3, [r3, #16]
 899 015a 002B     		cmp	r3, #0
 900 015c BFF655AF 		bge	.L69
 901              	.LBE194:
 902              	.LBE193:
 903              	.LBE195:
 904              	.LBE230:
 905              		.loc 1 139 0
 906 0160 4FF0FF30 		mov	r0, #-1
 907              	.LVL91:
 908              		.loc 1 185 0
 909 0164 7047     		bx	lr
 910              	.LVL92:
 911              	.L92:
 912              		.cfi_def_cfa_offset 8
ARM GAS  /tmp/ccbPff0O.s 			page 17


 913              		.cfi_offset 4, -8
 914              		.cfi_offset 5, -4
 915              	.LBB231:
 916              	.LBB220:
 917              		.loc 1 40 0
 918 0166 4FF48031 		mov	r1, #65536
 919 016a BFE7     		b	.L85
 920              	.LVL93:
 921              	.L89:
 922              	.LBE220:
 923              	.LBE231:
 924              	.LBB232:
 925              	.LBB205:
 926              	.LBB203:
 927              	.LBB202:
 928              		.loc 1 55 0
 929 016c 4FF00062 		mov	r2, #134217728
 930 0170 6CE7     		b	.L66
 931              	.L124:
 932 0172 00BF     		.align	2
 933              	.L123:
 934 0174 003C0240 		.word	1073888256
 935 0178 23016745 		.word	1164378403
 936 017c AB89EFCD 		.word	-839939669
 937              	.LBE202:
 938              	.LBE203:
 939              	.LBE205:
 940              	.LBE232:
 941              		.cfi_endproc
 942              	.LFE334:
 943              		.size	Flash_SectorErase, .-Flash_SectorErase
 944              		.section	.text.Flash_Erase,"ax",%progbits
 945              		.align	1
 946              		.p2align 2,,3
 947              		.global	Flash_Erase
 948              		.syntax unified
 949              		.thumb
 950              		.thumb_func
 951              		.fpu fpv4-sp-d16
 952              		.type	Flash_Erase, %function
 953              	Flash_Erase:
 954              	.LFB335:
 955              		.loc 1 202 0
 956              		.cfi_startproc
 957              		@ args = 0, pretend = 0, frame = 0
 958              		@ frame_needed = 0, uses_anonymous_args = 0
 959              	.LVL94:
 960              		.loc 1 203 0
 961 0000 0029     		cmp	r1, #0
 962 0002 55D0     		beq	.L152
 963              		.loc 1 202 0
 964 0004 2DE9F843 		push	{r3, r4, r5, r6, r7, r8, r9, lr}
 965              		.cfi_def_cfa_offset 32
 966              		.cfi_offset 3, -32
 967              		.cfi_offset 4, -28
 968              		.cfi_offset 5, -24
 969              		.cfi_offset 6, -20
ARM GAS  /tmp/ccbPff0O.s 			page 18


 970              		.cfi_offset 7, -16
 971              		.cfi_offset 8, -12
 972              		.cfi_offset 9, -8
 973              		.cfi_offset 14, -4
 974 0008 8946     		mov	r9, r1
 975              	.LVL95:
 976              	.L126:
 977              	.LBB246:
 978              	.LBB247:
 979              	.LBB248:
 980              		.loc 1 82 0
 981 000a 4FF00008 		mov	r8, #0
 982              	.L138:
 983              	.LVL96:
 984              	.LBB249:
 985              	.LBB250:
 986              		.loc 1 71 0
 987 000e 08F10107 		add	r7, r8, #1
 988              	.LVL97:
 989              	.LBB251:
 990              	.LBB252:
 991              		.loc 1 53 0
 992 0012 172F     		cmp	r7, #23
 993 0014 1FD8     		bhi	.L128
 994              	.LVL98:
 995              	.LBB253:
 996              	.LBB254:
 997              		.loc 1 56 0
 998 0016 002F     		cmp	r7, #0
 999 0018 3BD0     		beq	.L140
 1000 001a A8F10C02 		sub	r2, r8, #12
 1001 001e 3B46     		mov	r3, r7
 1002              		.loc 1 55 0
 1003 0020 4FF00065 		mov	r5, #134217728
 1004 0024 03E0     		b	.L134
 1005              	.LVL99:
 1006              	.L153:
 1007 0026 05F58045 		add	r5, r5, #16384
 1008              	.LVL100:
 1009              	.L132:
 1010 002a 013A     		subs	r2, r2, #1
 1011              		.loc 1 56 0
 1012 002c 8BB1     		cbz	r3, .L129
 1013              	.L134:
 1014              	.LVL101:
 1015              		.loc 1 58 0
 1016 002e 013B     		subs	r3, r3, #1
 1017              	.LVL102:
 1018 0030 0B2A     		cmp	r2, #11
 1019 0032 94BF     		ite	ls
 1020 0034 1446     		movls	r4, r2
 1021 0036 1C46     		movhi	r4, r3
 1022              	.LVL103:
 1023              	.LBB255:
 1024              	.LBB256:
 1025              		.loc 1 37 0
 1026 0038 032C     		cmp	r4, #3
ARM GAS  /tmp/ccbPff0O.s 			page 19


 1027 003a F4D9     		bls	.L153
 1028              		.loc 1 39 0
 1029 003c 042C     		cmp	r4, #4
 1030              		.loc 1 41 0
 1031 003e A4F10506 		sub	r6, r4, #5
 1032              		.loc 1 39 0
 1033 0042 23D0     		beq	.L154
 1034              		.loc 1 41 0
 1035 0044 062E     		cmp	r6, #6
 1036 0046 98BF     		it	ls
 1037 0048 05F50035 		addls	r5, r5, #131072
 1038              	.LVL104:
 1039 004c 013A     		subs	r2, r2, #1
 1040              	.LBE256:
 1041              	.LBE255:
 1042              		.loc 1 56 0
 1043 004e 002B     		cmp	r3, #0
 1044 0050 EDD1     		bne	.L134
 1045              	.L129:
 1046              	.LVL105:
 1047              	.LBE254:
 1048              	.LBE253:
 1049              	.LBE252:
 1050              	.LBE251:
 1051              	.LBE250:
 1052              	.LBE249:
 1053              		.loc 1 83 0
 1054 0052 8542     		cmp	r5, r0
 1055 0054 01D8     		bhi	.L155
 1056              	.LVL106:
 1057              	.L128:
 1058              	.LBE248:
 1059              	.LBE247:
 1060              	.LBE246:
 1061              		.loc 1 202 0
 1062 0056 B846     		mov	r8, r7
 1063              	.LVL107:
 1064 0058 D9E7     		b	.L138
 1065              	.LVL108:
 1066              	.L155:
 1067              	.LBB271:
 1068              		.loc 1 206 0
 1069 005a 4046     		mov	r0, r8
 1070              	.LVL109:
 1071 005c FFF7FEFF 		bl	Flash_SectorErase
 1072              	.LVL110:
 1073              		.loc 1 207 0
 1074 0060 08BB     		cbnz	r0, .L125
 1075              	.LVL111:
 1076              	.LBB264:
 1077              	.LBB265:
 1078              		.loc 1 35 0
 1079 0062 A8F10C03 		sub	r3, r8, #12
 1080 0066 0B2B     		cmp	r3, #11
 1081 0068 88BF     		it	hi
 1082 006a 4346     		movhi	r3, r8
 1083              	.LVL112:
ARM GAS  /tmp/ccbPff0O.s 			page 20


 1084              		.loc 1 37 0
 1085 006c 032B     		cmp	r3, #3
 1086 006e 15D9     		bls	.L142
 1087              		.loc 1 39 0
 1088 0070 042B     		cmp	r3, #4
 1089 0072 1AD0     		beq	.L143
 1090              		.loc 1 41 0
 1091 0074 053B     		subs	r3, r3, #5
 1092              	.LVL113:
 1093              		.loc 1 42 0
 1094 0076 062B     		cmp	r3, #6
 1095 0078 8CBF     		ite	hi
 1096 007a 0023     		movhi	r3, #0
 1097              	.LVL114:
 1098 007c 4FF40033 		movls	r3, #131072
 1099              	.L137:
 1100              	.LVL115:
 1101              	.LBE265:
 1102              	.LBE264:
 1103              		.loc 1 211 0
 1104 0080 9945     		cmp	r9, r3
 1105 0082 0FD9     		bls	.L156
 1106              	.L147:
 1107              		.loc 1 214 0
 1108 0084 A9EB0309 		sub	r9, r9, r3
 1109              	.LVL116:
 1110 0088 2846     		mov	r0, r5
 1111              	.LVL117:
 1112 008a BEE7     		b	.L126
 1113              	.LVL118:
 1114              	.L154:
 1115 008c 05F58035 		add	r5, r5, #65536
 1116              	.LVL119:
 1117 0090 CBE7     		b	.L132
 1118              	.LVL120:
 1119              	.L140:
 1120              	.LBB268:
 1121              	.LBB263:
 1122              	.LBB262:
 1123              	.LBB261:
 1124              	.LBB260:
 1125              	.LBB259:
 1126              	.LBB258:
 1127              	.LBB257:
 1128              		.loc 1 55 0
 1129 0092 4FF00065 		mov	r5, #134217728
 1130              	.LVL121:
 1131              	.LBE257:
 1132              	.LBE258:
 1133              	.LBE259:
 1134              	.LBE260:
 1135              	.LBE261:
 1136              	.LBE262:
 1137              		.loc 1 83 0
 1138 0096 8542     		cmp	r5, r0
 1139 0098 DDD9     		bls	.L128
 1140 009a DEE7     		b	.L155
ARM GAS  /tmp/ccbPff0O.s 			page 21


 1141              	.LVL122:
 1142              	.L142:
 1143              	.LBE263:
 1144              	.LBE268:
 1145              	.LBB269:
 1146              	.LBB266:
 1147              		.loc 1 38 0
 1148 009c 4FF48043 		mov	r3, #16384
 1149              	.LVL123:
 1150              	.LBE266:
 1151              	.LBE269:
 1152              		.loc 1 211 0
 1153 00a0 9945     		cmp	r9, r3
 1154 00a2 EFD8     		bhi	.L147
 1155              	.L156:
 1156              	.LBE271:
 1157              		.loc 1 217 0
 1158 00a4 0020     		movs	r0, #0
 1159              	.LVL124:
 1160              	.L125:
 1161              		.loc 1 218 0
 1162 00a6 BDE8F883 		pop	{r3, r4, r5, r6, r7, r8, r9, pc}
 1163              	.LVL125:
 1164              	.L143:
 1165              	.LBB272:
 1166              	.LBB270:
 1167              	.LBB267:
 1168              		.loc 1 40 0
 1169 00aa 4FF48033 		mov	r3, #65536
 1170              	.LVL126:
 1171 00ae E7E7     		b	.L137
 1172              	.LVL127:
 1173              	.L152:
 1174              		.cfi_def_cfa_offset 0
 1175              		.cfi_restore 3
 1176              		.cfi_restore 4
 1177              		.cfi_restore 5
 1178              		.cfi_restore 6
 1179              		.cfi_restore 7
 1180              		.cfi_restore 8
 1181              		.cfi_restore 9
 1182              		.cfi_restore 14
 1183              	.LBE267:
 1184              	.LBE270:
 1185              	.LBE272:
 1186              		.loc 1 217 0
 1187 00b0 0020     		movs	r0, #0
 1188              	.LVL128:
 1189              		.loc 1 218 0
 1190 00b2 7047     		bx	lr
 1191              		.cfi_endproc
 1192              	.LFE335:
 1193              		.size	Flash_Erase, .-Flash_Erase
 1194              		.section	.text.Flash_IsErased,"ax",%progbits
 1195              		.align	1
 1196              		.p2align 2,,3
 1197              		.global	Flash_IsErased
ARM GAS  /tmp/ccbPff0O.s 			page 22


 1198              		.syntax unified
 1199              		.thumb
 1200              		.thumb_func
 1201              		.fpu fpv4-sp-d16
 1202              		.type	Flash_IsErased, %function
 1203              	Flash_IsErased:
 1204              	.LFB336:
 1205              		.loc 1 229 0
 1206              		.cfi_startproc
 1207              		@ args = 0, pretend = 0, frame = 0
 1208              		@ frame_needed = 0, uses_anonymous_args = 0
 1209              		@ link register save eliminated.
 1210              	.LVL129:
 1211 0000 04E0     		b	.L169
 1212              	.L161:
 1213              		.loc 1 235 0
 1214 0002 0368     		ldr	r3, [r0]
 1215 0004 0133     		adds	r3, r3, #1
 1216 0006 15D1     		bne	.L167
 1217              		.loc 1 240 0
 1218 0008 0439     		subs	r1, r1, #4
 1219              	.LVL130:
 1220              		.loc 1 239 0
 1221 000a 0430     		adds	r0, r0, #4
 1222              	.LVL131:
 1223              	.L169:
 1224              		.loc 1 233 0
 1225 000c 0329     		cmp	r1, #3
 1226 000e F8D8     		bhi	.L161
 1227              		.loc 1 242 0
 1228 0010 91B1     		cbz	r1, .L168
 1229              		.loc 1 244 0
 1230 0012 0378     		ldrb	r3, [r0]	@ zero_extendqisi2
 1231 0014 FF2B     		cmp	r3, #255
 1232 0016 0DD1     		bne	.L167
 1233              	.LVL132:
 1234              		.loc 1 242 0
 1235 0018 0129     		cmp	r1, #1
 1236 001a 0DD0     		beq	.L168
 1237              		.loc 1 244 0
 1238 001c 4378     		ldrb	r3, [r0, #1]	@ zero_extendqisi2
 1239 001e FF2B     		cmp	r3, #255
 1240 0020 08D1     		bne	.L167
 1241              	.LVL133:
 1242              		.loc 1 242 0
 1243 0022 0229     		cmp	r1, #2
 1244 0024 08D0     		beq	.L168
 1245              		.loc 1 244 0
 1246 0026 8078     		ldrb	r0, [r0, #2]	@ zero_extendqisi2
 1247              	.LVL134:
 1248 0028 A0F1FF00 		sub	r0, #255
 1249 002c B0FA80F0 		clz	r0, r0
 1250 0030 4009     		lsrs	r0, r0, #5
 1251 0032 7047     		bx	lr
 1252              	.LVL135:
 1253              	.L167:
 1254              		.loc 1 237 0
ARM GAS  /tmp/ccbPff0O.s 			page 23


 1255 0034 0020     		movs	r0, #0
 1256 0036 7047     		bx	lr
 1257              	.L168:
 1258              		.loc 1 250 0
 1259 0038 0120     		movs	r0, #1
 1260              		.loc 1 251 0
 1261 003a 7047     		bx	lr
 1262              		.cfi_endproc
 1263              	.LFE336:
 1264              		.size	Flash_IsErased, .-Flash_IsErased
 1265              		.section	.text.Flash_Compare,"ax",%progbits
 1266              		.align	1
 1267              		.p2align 2,,3
 1268              		.global	Flash_Compare
 1269              		.syntax unified
 1270              		.thumb
 1271              		.thumb_func
 1272              		.fpu fpv4-sp-d16
 1273              		.type	Flash_Compare, %function
 1274              	Flash_Compare:
 1275              	.LFB337:
 1276              		.loc 1 254 0
 1277              		.cfi_startproc
 1278              		@ args = 0, pretend = 0, frame = 0
 1279              		@ frame_needed = 0, uses_anonymous_args = 0
 1280              		@ link register save eliminated.
 1281              	.LVL136:
 1282              		.loc 1 257 0
 1283 0000 032A     		cmp	r2, #3
 1284              		.loc 1 254 0
 1285 0002 10B4     		push	{r4}
 1286              		.cfi_def_cfa_offset 4
 1287              		.cfi_offset 4, -4
 1288              		.loc 1 257 0
 1289 0004 11D9     		bls	.L171
 1290              		.loc 1 259 0
 1291 0006 0468     		ldr	r4, [r0]
 1292 0008 0B68     		ldr	r3, [r1]
 1293 000a 9C42     		cmp	r4, r3
 1294 000c 23D1     		bne	.L180
 1295 000e 0B1D     		adds	r3, r1, #4
 1296 0010 03E0     		b	.L173
 1297              	.L174:
 1298 0012 0968     		ldr	r1, [r1]
 1299              	.LVL137:
 1300 0014 0468     		ldr	r4, [r0]
 1301 0016 8C42     		cmp	r4, r1
 1302 0018 1DD1     		bne	.L180
 1303              	.LVL138:
 1304              	.L173:
 1305              		.loc 1 263 0
 1306 001a 043A     		subs	r2, r2, #4
 1307              	.LVL139:
 1308              		.loc 1 257 0
 1309 001c 032A     		cmp	r2, #3
 1310              		.loc 1 262 0
 1311 001e 1946     		mov	r1, r3
ARM GAS  /tmp/ccbPff0O.s 			page 24


 1312              		.loc 1 261 0
 1313 0020 00F10400 		add	r0, r0, #4
 1314              	.LVL140:
 1315 0024 03F10403 		add	r3, r3, #4
 1316              		.loc 1 257 0
 1317 0028 F3D8     		bhi	.L174
 1318              	.L171:
 1319              		.loc 1 265 0
 1320 002a C2B1     		cbz	r2, .L181
 1321              		.loc 1 267 0
 1322 002c 0378     		ldrb	r3, [r0]	@ zero_extendqisi2
 1323 002e 0C78     		ldrb	r4, [r1]	@ zero_extendqisi2
 1324 0030 9C42     		cmp	r4, r3
 1325 0032 10D1     		bne	.L180
 1326              	.LVL141:
 1327              		.loc 1 265 0
 1328 0034 012A     		cmp	r2, #1
 1329 0036 12D0     		beq	.L181
 1330              		.loc 1 267 0
 1331 0038 4378     		ldrb	r3, [r0, #1]	@ zero_extendqisi2
 1332 003a 4C78     		ldrb	r4, [r1, #1]	@ zero_extendqisi2
 1333 003c 9C42     		cmp	r4, r3
 1334 003e 0AD1     		bne	.L180
 1335              	.LVL142:
 1336              		.loc 1 265 0
 1337 0040 022A     		cmp	r2, #2
 1338 0042 0CD0     		beq	.L181
 1339              		.loc 1 267 0
 1340 0044 8378     		ldrb	r3, [r0, #2]	@ zero_extendqisi2
 1341 0046 8878     		ldrb	r0, [r1, #2]	@ zero_extendqisi2
 1342              	.LVL143:
 1343              		.loc 1 275 0
 1344 0048 5DF8044B 		ldr	r4, [sp], #4
 1345              		.cfi_remember_state
 1346              		.cfi_restore 4
 1347              		.cfi_def_cfa_offset 0
 1348              		.loc 1 267 0
 1349 004c C01A     		subs	r0, r0, r3
 1350 004e B0FA80F0 		clz	r0, r0
 1351 0052 4009     		lsrs	r0, r0, #5
 1352              		.loc 1 275 0
 1353 0054 7047     		bx	lr
 1354              	.LVL144:
 1355              	.L180:
 1356              		.cfi_restore_state
 1357              		.loc 1 260 0
 1358 0056 0020     		movs	r0, #0
 1359              		.loc 1 275 0
 1360 0058 5DF8044B 		ldr	r4, [sp], #4
 1361              		.cfi_remember_state
 1362              		.cfi_restore 4
 1363              		.cfi_def_cfa_offset 0
 1364 005c 7047     		bx	lr
 1365              	.L181:
 1366              		.cfi_restore_state
 1367              		.loc 1 274 0
 1368 005e 0120     		movs	r0, #1
ARM GAS  /tmp/ccbPff0O.s 			page 25


 1369              		.loc 1 275 0
 1370 0060 5DF8044B 		ldr	r4, [sp], #4
 1371              		.cfi_restore 4
 1372              		.cfi_def_cfa_offset 0
 1373 0064 7047     		bx	lr
 1374              		.cfi_endproc
 1375              	.LFE337:
 1376              		.size	Flash_Compare, .-Flash_Compare
 1377 0066 00BF     		.section	.text.Flash_Read,"ax",%progbits
 1378              		.align	1
 1379              		.p2align 2,,3
 1380              		.global	Flash_Read
 1381              		.syntax unified
 1382              		.thumb
 1383              		.thumb_func
 1384              		.fpu fpv4-sp-d16
 1385              		.type	Flash_Read, %function
 1386              	Flash_Read:
 1387              	.LFB338:
 1388              		.loc 1 278 0
 1389              		.cfi_startproc
 1390              		@ args = 0, pretend = 0, frame = 0
 1391              		@ frame_needed = 0, uses_anonymous_args = 0
 1392              	.LVL145:
 1393 0000 08B5     		push	{r3, lr}
 1394              		.cfi_def_cfa_offset 8
 1395              		.cfi_offset 3, -8
 1396              		.cfi_offset 14, -4
 1397              		.loc 1 278 0
 1398 0002 0B46     		mov	r3, r1
 1399              		.loc 1 279 0
 1400 0004 0146     		mov	r1, r0
 1401              	.LVL146:
 1402 0006 1846     		mov	r0, r3
 1403              	.LVL147:
 1404 0008 FFF7FEFF 		bl	memcpy
 1405              	.LVL148:
 1406              		.loc 1 281 0
 1407 000c 0020     		movs	r0, #0
 1408 000e 08BD     		pop	{r3, pc}
 1409              		.cfi_endproc
 1410              	.LFE338:
 1411              		.size	Flash_Read, .-Flash_Read
 1412              		.section	.text.Flash_Write,"ax",%progbits
 1413              		.align	1
 1414              		.p2align 2,,3
 1415              		.global	Flash_Write
 1416              		.syntax unified
 1417              		.thumb
 1418              		.thumb_func
 1419              		.fpu fpv4-sp-d16
 1420              		.type	Flash_Write, %function
 1421              	Flash_Write:
 1422              	.LFB340:
 1423              		.loc 1 314 0
 1424              		.cfi_startproc
 1425              		@ args = 0, pretend = 0, frame = 8
ARM GAS  /tmp/ccbPff0O.s 			page 26


 1426              		@ frame_needed = 0, uses_anonymous_args = 0
 1427              	.LVL149:
 1428 0000 2DE9F041 		push	{r4, r5, r6, r7, r8, lr}
 1429              		.cfi_def_cfa_offset 24
 1430              		.cfi_offset 4, -24
 1431              		.cfi_offset 5, -20
 1432              		.cfi_offset 6, -16
 1433              		.cfi_offset 7, -12
 1434              		.cfi_offset 8, -8
 1435              		.cfi_offset 14, -4
 1436              	.LBB301:
 1437              	.LBB302:
 1438              		.loc 1 104 0
 1439 0004 434B     		ldr	r3, .L218
 1440 0006 1F69     		ldr	r7, [r3, #16]
 1441 0008 002F     		cmp	r7, #0
 1442              	.LBE302:
 1443              	.LBE301:
 1444              		.loc 1 314 0
 1445 000a 82B0     		sub	sp, sp, #8
 1446              		.cfi_def_cfa_offset 32
 1447              		.loc 1 314 0
 1448 000c 0446     		mov	r4, r0
 1449 000e 0E46     		mov	r6, r1
 1450 0010 1546     		mov	r5, r2
 1451              	.LBB307:
 1452              	.LBB305:
 1453              		.loc 1 104 0
 1454 0012 74DB     		blt	.L186
 1455              	.LVL150:
 1456              	.L189:
 1457              	.LBE305:
 1458              	.LBE307:
 1459              	.LBB308:
 1460              	.LBB309:
 1461              		.loc 1 93 0
 1462 0014 3F4A     		ldr	r2, .L218
 1463              	.L187:
 1464 0016 D368     		ldr	r3, [r2, #12]
 1465 0018 D903     		lsls	r1, r3, #15
 1466 001a FCD4     		bmi	.L187
 1467              	.LVL151:
 1468              	.LBE309:
 1469              	.LBE308:
 1470              		.loc 1 323 0
 1471 001c 1369     		ldr	r3, [r2, #16]
 1472 001e 23F48073 		bic	r3, r3, #256
 1473 0022 1361     		str	r3, [r2, #16]
 1474              		.loc 1 324 0
 1475 0024 1369     		ldr	r3, [r2, #16]
 1476 0026 43F40073 		orr	r3, r3, #512
 1477 002a 1361     		str	r3, [r2, #16]
 1478              		.loc 1 328 0
 1479 002c 14F00303 		ands	r3, r4, #3
 1480              	.LVL152:
 1481 0030 22D0     		beq	.L190
 1482              	.LBB310:
ARM GAS  /tmp/ccbPff0O.s 			page 27


 1483              		.loc 1 334 0
 1484 0032 24F00308 		bic	r8, r4, #3
 1485              	.LVL153:
 1486              		.loc 1 337 0
 1487 0036 02A8     		add	r0, sp, #8
 1488              	.LVL154:
 1489              		.loc 1 340 0
 1490 0038 C3F10407 		rsb	r7, r3, #4
 1491              	.LVL155:
 1492              		.loc 1 337 0
 1493 003c D8F80020 		ldr	r2, [r8]
 1494 0040 40F8042D 		str	r2, [r0, #-4]!
 1495 0044 AF42     		cmp	r7, r5
 1496 0046 28BF     		it	cs
 1497 0048 2F46     		movcs	r7, r5
 1498              	.LVL156:
 1499              		.loc 1 345 0
 1500 004a 3A46     		mov	r2, r7
 1501 004c 1844     		add	r0, r0, r3
 1502 004e 3146     		mov	r1, r6
 1503 0050 FFF7FEFF 		bl	memcpy
 1504              	.LVL157:
 1505              		.loc 1 348 0
 1506 0054 0198     		ldr	r0, [sp, #4]
 1507              	.LVL158:
 1508              	.LBB311:
 1509              	.LBB312:
 1510              	.LBB313:
 1511              	.LBB314:
 1512              		.loc 1 93 0
 1513 0056 2F4A     		ldr	r2, .L218
 1514              	.L191:
 1515 0058 D368     		ldr	r3, [r2, #12]
 1516 005a DB03     		lsls	r3, r3, #15
 1517 005c FCD4     		bmi	.L191
 1518              	.LBE314:
 1519              	.LBE313:
 1520              		.loc 1 294 0
 1521 005e 1369     		ldr	r3, [r2, #16]
 1522              	.LBB315:
 1523              	.LBB316:
 1524              		.loc 1 93 0
 1525 0060 2C49     		ldr	r1, .L218
 1526              	.LBE316:
 1527              	.LBE315:
 1528              		.loc 1 294 0
 1529 0062 43F00103 		orr	r3, r3, #1
 1530 0066 1361     		str	r3, [r2, #16]
 1531              		.loc 1 297 0
 1532 0068 C8F80000 		str	r0, [r8]
 1533              	.LVL159:
 1534              	.L192:
 1535              	.LBB318:
 1536              	.LBB317:
 1537              		.loc 1 93 0
 1538 006c CB68     		ldr	r3, [r1, #12]
 1539 006e D803     		lsls	r0, r3, #15
ARM GAS  /tmp/ccbPff0O.s 			page 28


 1540 0070 FCD4     		bmi	.L192
 1541              	.LVL160:
 1542              	.LBE317:
 1543              	.LBE318:
 1544              	.LBE312:
 1545              	.LBE311:
 1546              		.loc 1 351 0
 1547 0072 3C44     		add	r4, r4, r7
 1548              	.LVL161:
 1549              		.loc 1 352 0
 1550 0074 3E44     		add	r6, r6, r7
 1551              	.LVL162:
 1552              		.loc 1 353 0
 1553 0076 ED1B     		subs	r5, r5, r7
 1554              	.LVL163:
 1555              	.L190:
 1556              	.LBE310:
 1557              		.loc 1 359 0
 1558 0078 032D     		cmp	r5, #3
 1559 007a 1FD9     		bls	.L196
 1560 007c A5F1040C 		sub	ip, r5, #4
 1561 0080 4FEA9C0C 		lsr	ip, ip, #2
 1562              	.LBB319:
 1563              	.LBB320:
 1564              	.LBB321:
 1565              	.LBB322:
 1566              		.loc 1 93 0
 1567 0084 234B     		ldr	r3, .L218
 1568 0086 06EB8C0E 		add	lr, r6, ip, lsl #2
 1569 008a 311F     		subs	r1, r6, #4
 1570 008c 201F     		subs	r0, r4, #4
 1571              	.LVL164:
 1572              	.L195:
 1573              	.LBE322:
 1574              	.LBE321:
 1575              	.LBE320:
 1576              	.LBE319:
 1577              		.loc 1 361 0
 1578 008e 51F8047F 		ldr	r7, [r1, #4]!
 1579              	.LVL165:
 1580              	.L193:
 1581              	.LBB328:
 1582              	.LBB327:
 1583              	.LBB324:
 1584              	.LBB323:
 1585              		.loc 1 93 0
 1586 0092 DA68     		ldr	r2, [r3, #12]
 1587 0094 D203     		lsls	r2, r2, #15
 1588 0096 FCD4     		bmi	.L193
 1589              	.LBE323:
 1590              	.LBE324:
 1591              		.loc 1 294 0
 1592 0098 1A69     		ldr	r2, [r3, #16]
 1593 009a 42F00102 		orr	r2, r2, #1
 1594 009e 1A61     		str	r2, [r3, #16]
 1595              		.loc 1 297 0
 1596 00a0 40F8047F 		str	r7, [r0, #4]!
ARM GAS  /tmp/ccbPff0O.s 			page 29


 1597              	.LVL166:
 1598              	.L194:
 1599              	.LBB325:
 1600              	.LBB326:
 1601              		.loc 1 93 0
 1602 00a4 DA68     		ldr	r2, [r3, #12]
 1603 00a6 D703     		lsls	r7, r2, #15
 1604 00a8 FCD4     		bmi	.L194
 1605              	.LVL167:
 1606              	.LBE326:
 1607              	.LBE325:
 1608              	.LBE327:
 1609              	.LBE328:
 1610              		.loc 1 359 0
 1611 00aa 7145     		cmp	r1, lr
 1612 00ac EFD1     		bne	.L195
 1613 00ae 0CF10103 		add	r3, ip, #1
 1614 00b2 9B00     		lsls	r3, r3, #2
 1615 00b4 1C44     		add	r4, r4, r3
 1616 00b6 1E44     		add	r6, r6, r3
 1617 00b8 05F00305 		and	r5, r5, #3
 1618              	.LVL168:
 1619              	.L196:
 1620              		.loc 1 371 0
 1621 00bc 45B9     		cbnz	r5, .L217
 1622              	.L198:
 1623              	.LBB329:
 1624              	.LBB330:
 1625              		.loc 1 122 0
 1626 00be 154A     		ldr	r2, .L218
 1627 00c0 1369     		ldr	r3, [r2, #16]
 1628 00c2 43F00043 		orr	r3, r3, #-2147483648
 1629 00c6 1361     		str	r3, [r2, #16]
 1630              	.LBE330:
 1631              	.LBE329:
 1632              		.loc 1 381 0
 1633 00c8 0020     		movs	r0, #0
 1634              	.LVL169:
 1635              	.L185:
 1636              		.loc 1 382 0
 1637 00ca 02B0     		add	sp, sp, #8
 1638              		.cfi_remember_state
 1639              		.cfi_def_cfa_offset 24
 1640              		@ sp needed
 1641 00cc BDE8F081 		pop	{r4, r5, r6, r7, r8, pc}
 1642              	.LVL170:
 1643              	.L217:
 1644              		.cfi_restore_state
 1645              	.LBB331:
 1646              		.loc 1 373 0
 1647 00d0 02A8     		add	r0, sp, #8
 1648 00d2 2368     		ldr	r3, [r4]
 1649 00d4 40F8043D 		str	r3, [r0, #-4]!
 1650              		.loc 1 374 0
 1651 00d8 2A46     		mov	r2, r5
 1652 00da 3146     		mov	r1, r6
 1653 00dc FFF7FEFF 		bl	memcpy
ARM GAS  /tmp/ccbPff0O.s 			page 30


 1654              	.LVL171:
 1655              		.loc 1 375 0
 1656 00e0 0198     		ldr	r0, [sp, #4]
 1657              	.LVL172:
 1658              	.LBB332:
 1659              	.LBB333:
 1660              	.LBB334:
 1661              	.LBB335:
 1662              		.loc 1 93 0
 1663 00e2 0C4A     		ldr	r2, .L218
 1664              	.L199:
 1665 00e4 D368     		ldr	r3, [r2, #12]
 1666 00e6 D903     		lsls	r1, r3, #15
 1667 00e8 FCD4     		bmi	.L199
 1668              	.LBE335:
 1669              	.LBE334:
 1670              		.loc 1 294 0
 1671 00ea 1369     		ldr	r3, [r2, #16]
 1672              	.LBB336:
 1673              	.LBB337:
 1674              		.loc 1 93 0
 1675 00ec 0949     		ldr	r1, .L218
 1676              	.LBE337:
 1677              	.LBE336:
 1678              		.loc 1 294 0
 1679 00ee 43F00103 		orr	r3, r3, #1
 1680 00f2 1361     		str	r3, [r2, #16]
 1681              		.loc 1 297 0
 1682 00f4 2060     		str	r0, [r4]
 1683              	.L200:
 1684              	.LBB339:
 1685              	.LBB338:
 1686              		.loc 1 93 0
 1687 00f6 CB68     		ldr	r3, [r1, #12]
 1688 00f8 DB03     		lsls	r3, r3, #15
 1689 00fa FCD4     		bmi	.L200
 1690 00fc DFE7     		b	.L198
 1691              	.LVL173:
 1692              	.L186:
 1693              	.LBE338:
 1694              	.LBE339:
 1695              	.LBE333:
 1696              	.LBE332:
 1697              	.LBE331:
 1698              	.LBB340:
 1699              	.LBB306:
 1700              	.LBB303:
 1701              	.LBB304:
 1702              		.loc 1 108 0
 1703 00fe 0649     		ldr	r1, .L218+4
 1704              	.LVL174:
 1705              		.loc 1 109 0
 1706 0100 064A     		ldr	r2, .L218+8
 1707              	.LVL175:
 1708              		.loc 1 108 0
 1709 0102 5960     		str	r1, [r3, #4]
 1710              		.loc 1 109 0
ARM GAS  /tmp/ccbPff0O.s 			page 31


 1711 0104 5A60     		str	r2, [r3, #4]
 1712              		.loc 1 112 0
 1713 0106 1B69     		ldr	r3, [r3, #16]
 1714 0108 002B     		cmp	r3, #0
 1715 010a 83DA     		bge	.L189
 1716              	.LBE304:
 1717              	.LBE303:
 1718              	.LBE306:
 1719              	.LBE340:
 1720              		.loc 1 317 0
 1721 010c 4FF0FF30 		mov	r0, #-1
 1722              	.LVL176:
 1723 0110 DBE7     		b	.L185
 1724              	.L219:
 1725 0112 00BF     		.align	2
 1726              	.L218:
 1727 0114 003C0240 		.word	1073888256
 1728 0118 23016745 		.word	1164378403
 1729 011c AB89EFCD 		.word	-839939669
 1730              		.cfi_endproc
 1731              	.LFE340:
 1732              		.size	Flash_Write, .-Flash_Write
 1733              		.section	.text.Flash_Open,"ax",%progbits
 1734              		.align	1
 1735              		.p2align 2,,3
 1736              		.global	Flash_Open
 1737              		.syntax unified
 1738              		.thumb
 1739              		.thumb_func
 1740              		.fpu fpv4-sp-d16
 1741              		.type	Flash_Open, %function
 1742              	Flash_Open:
 1743              	.LFB341:
 1744              		.loc 1 416 0
 1745              		.cfi_startproc
 1746              		@ args = 0, pretend = 0, frame = 0
 1747              		@ frame_needed = 0, uses_anonymous_args = 0
 1748              	.LVL177:
 1749 0000 38B5     		push	{r3, r4, r5, lr}
 1750              		.cfi_def_cfa_offset 16
 1751              		.cfi_offset 3, -16
 1752              		.cfi_offset 4, -12
 1753              		.cfi_offset 5, -8
 1754              		.cfi_offset 14, -4
 1755              	.LBB351:
 1756              	.LBB352:
 1757              		.loc 1 93 0
 1758 0002 1F4A     		ldr	r2, .L239
 1759              	.L221:
 1760 0004 D368     		ldr	r3, [r2, #12]
 1761 0006 13F48033 		ands	r3, r3, #65536
 1762 000a FBD1     		bne	.L221
 1763              	.LVL178:
 1764              	.LBE352:
 1765              	.LBE351:
 1766              	.LBB353:
 1767              	.LBB354:
ARM GAS  /tmp/ccbPff0O.s 			page 32


 1768              		.loc 1 53 0
 1769 000c 1728     		cmp	r0, #23
 1770 000e 28D8     		bhi	.L222
 1771              	.LVL179:
 1772              	.LBB355:
 1773              	.LBB356:
 1774              		.loc 1 56 0
 1775 0010 70B3     		cbz	r0, .L236
 1776 0012 A0F10D02 		sub	r2, r0, #13
 1777 0016 0346     		mov	r3, r0
 1778              		.loc 1 55 0
 1779 0018 4FF00061 		mov	r1, #134217728
 1780 001c 09E0     		b	.L230
 1781              	.LVL180:
 1782              	.L238:
 1783              	.LBB357:
 1784              	.LBB358:
 1785              		.loc 1 39 0
 1786 001e 042C     		cmp	r4, #4
 1787              		.loc 1 41 0
 1788 0020 A4F10505 		sub	r5, r4, #5
 1789              		.loc 1 39 0
 1790 0024 21D0     		beq	.L228
 1791              		.loc 1 41 0
 1792 0026 062D     		cmp	r5, #6
 1793 0028 01D8     		bhi	.L229
 1794 002a 01F50031 		add	r1, r1, #131072
 1795              	.LVL181:
 1796              	.L229:
 1797 002e 013A     		subs	r2, r2, #1
 1798              	.LBE358:
 1799              	.LBE357:
 1800              		.loc 1 56 0
 1801 0030 5BB1     		cbz	r3, .L237
 1802              	.L230:
 1803              	.LVL182:
 1804              		.loc 1 58 0
 1805 0032 013B     		subs	r3, r3, #1
 1806              	.LVL183:
 1807 0034 0B2A     		cmp	r2, #11
 1808 0036 94BF     		ite	ls
 1809 0038 1446     		movls	r4, r2
 1810 003a 1C46     		movhi	r4, r3
 1811              	.LVL184:
 1812              	.LBB360:
 1813              	.LBB359:
 1814              		.loc 1 37 0
 1815 003c 032C     		cmp	r4, #3
 1816 003e EED8     		bhi	.L238
 1817 0040 01F58041 		add	r1, r1, #16384
 1818              	.LVL185:
 1819 0044 013A     		subs	r2, r2, #1
 1820              	.LBE359:
 1821              	.LBE360:
 1822              		.loc 1 56 0
 1823 0046 002B     		cmp	r3, #0
 1824 0048 F3D1     		bne	.L230
ARM GAS  /tmp/ccbPff0O.s 			page 33


 1825              	.L237:
 1826              	.LVL186:
 1827              	.LBE356:
 1828              	.LBE355:
 1829              	.LBE354:
 1830              	.LBE353:
 1831              		.loc 1 418 0
 1832 004a 0E4B     		ldr	r3, .L239+4
 1833              	.LVL187:
 1834 004c 1960     		str	r1, [r3]
 1835 004e A1B1     		cbz	r1, .L232
 1836              	.L224:
 1837              		.loc 1 423 0
 1838 0050 0D4B     		ldr	r3, .L239+8
 1839 0052 0022     		movs	r2, #0
 1840 0054 1A70     		strb	r2, [r3]
 1841              		.loc 1 424 0
 1842 0056 FFF7FEFF 		bl	Flash_SectorErase
 1843              	.LVL188:
 1844 005a B0FA80F0 		clz	r0, r0
 1845 005e 4009     		lsrs	r0, r0, #5
 1846              		.loc 1 427 0
 1847 0060 38BD     		pop	{r3, r4, r5, pc}
 1848              	.LVL189:
 1849              	.L222:
 1850              		.loc 1 418 0
 1851 0062 084A     		ldr	r2, .L239+4
 1852              		.loc 1 426 0
 1853 0064 1846     		mov	r0, r3
 1854              	.LVL190:
 1855              		.loc 1 418 0
 1856 0066 1360     		str	r3, [r2]
 1857              		.loc 1 427 0
 1858 0068 38BD     		pop	{r3, r4, r5, pc}
 1859              	.LVL191:
 1860              	.L228:
 1861 006a 01F58031 		add	r1, r1, #65536
 1862              	.LVL192:
 1863 006e DEE7     		b	.L229
 1864              	.LVL193:
 1865              	.L236:
 1866              		.loc 1 418 0
 1867 0070 044B     		ldr	r3, .L239+4
 1868 0072 4FF00062 		mov	r2, #134217728
 1869 0076 1A60     		str	r2, [r3]
 1870              	.LVL194:
 1871 0078 EAE7     		b	.L224
 1872              	.LVL195:
 1873              	.L232:
 1874              		.loc 1 426 0
 1875 007a 0846     		mov	r0, r1
 1876              	.LVL196:
 1877              		.loc 1 427 0
 1878 007c 38BD     		pop	{r3, r4, r5, pc}
 1879              	.L240:
 1880 007e 00BF     		.align	2
 1881              	.L239:
ARM GAS  /tmp/ccbPff0O.s 			page 34


 1882 0080 003C0240 		.word	1073888256
 1883 0084 00000000 		.word	.LANCHOR0
 1884 0088 00000000 		.word	.LANCHOR1
 1885              		.cfi_endproc
 1886              	.LFE341:
 1887              		.size	Flash_Open, .-Flash_Open
 1888              		.section	.text.Flash_Append,"ax",%progbits
 1889              		.align	1
 1890              		.p2align 2,,3
 1891              		.global	Flash_Append
 1892              		.syntax unified
 1893              		.thumb
 1894              		.thumb_func
 1895              		.fpu fpv4-sp-d16
 1896              		.type	Flash_Append, %function
 1897              	Flash_Append:
 1898              	.LFB342:
 1899              		.loc 1 440 0
 1900              		.cfi_startproc
 1901              		@ args = 0, pretend = 0, frame = 0
 1902              		@ frame_needed = 0, uses_anonymous_args = 0
 1903              	.LVL197:
 1904              	.LBB379:
 1905              	.LBB380:
 1906              		.loc 1 104 0
 1907 0000 3E4B     		ldr	r3, .L265
 1908 0002 1A69     		ldr	r2, [r3, #16]
 1909 0004 002A     		cmp	r2, #0
 1910              	.LBE380:
 1911              	.LBE379:
 1912              		.loc 1 440 0
 1913 0006 2DE9F047 		push	{r4, r5, r6, r7, r8, r9, r10, lr}
 1914              		.cfi_def_cfa_offset 32
 1915              		.cfi_offset 4, -32
 1916              		.cfi_offset 5, -28
 1917              		.cfi_offset 6, -24
 1918              		.cfi_offset 7, -20
 1919              		.cfi_offset 8, -16
 1920              		.cfi_offset 9, -12
 1921              		.cfi_offset 10, -8
 1922              		.cfi_offset 14, -4
 1923              		.loc 1 440 0
 1924 000a 0446     		mov	r4, r0
 1925 000c 0E46     		mov	r6, r1
 1926              	.LBB385:
 1927              	.LBB383:
 1928              		.loc 1 104 0
 1929 000e 6CDB     		blt	.L242
 1930              	.LVL198:
 1931              	.L245:
 1932              	.LBE383:
 1933              	.LBE385:
 1934              	.LBB386:
 1935              	.LBB387:
 1936              		.loc 1 93 0
 1937 0010 3A4A     		ldr	r2, .L265
 1938              	.L243:
ARM GAS  /tmp/ccbPff0O.s 			page 35


 1939 0012 D368     		ldr	r3, [r2, #12]
 1940 0014 D903     		lsls	r1, r3, #15
 1941 0016 FCD4     		bmi	.L243
 1942              	.LBE387:
 1943              	.LBE386:
 1944              		.loc 1 446 0
 1945 0018 1369     		ldr	r3, [r2, #16]
 1946              		.loc 1 450 0
 1947 001a DFF8F480 		ldr	r8, .L265+20
 1948              		.loc 1 446 0
 1949 001e 23F48073 		bic	r3, r3, #256
 1950 0022 1361     		str	r3, [r2, #16]
 1951              		.loc 1 447 0
 1952 0024 1369     		ldr	r3, [r2, #16]
 1953 0026 43F40073 		orr	r3, r3, #512
 1954 002a 1361     		str	r3, [r2, #16]
 1955              		.loc 1 450 0
 1956 002c 98F80050 		ldrb	r5, [r8]	@ zero_extendqisi2
 1957 0030 15B3     		cbz	r5, .L246
 1958 0032 DFF8D0A0 		ldr	r10, .L265+8
 1959              		.loc 1 452 0
 1960 0036 C5F10409 		rsb	r9, r5, #4
 1961 003a B145     		cmp	r9, r6
 1962 003c 0AEB0500 		add	r0, r10, r5
 1963              	.LVL199:
 1964 0040 49D8     		bhi	.L247
 1965              		.loc 1 458 0
 1966 0042 2F4F     		ldr	r7, .L265+4
 1967              		.loc 1 455 0
 1968 0044 4A46     		mov	r2, r9
 1969 0046 2146     		mov	r1, r4
 1970 0048 FFF7FEFF 		bl	memcpy
 1971              	.LVL200:
 1972              		.loc 1 457 0
 1973 004c 043D     		subs	r5, r5, #4
 1974              		.loc 1 458 0
 1975 004e DAF800C0 		ldr	ip, [r10]
 1976 0052 3868     		ldr	r0, [r7]
 1977              	.LBB388:
 1978              	.LBB389:
 1979              	.LBB390:
 1980              	.LBB391:
 1981              		.loc 1 93 0
 1982 0054 294A     		ldr	r2, .L265
 1983              	.LBE391:
 1984              	.LBE390:
 1985              	.LBE389:
 1986              	.LBE388:
 1987              		.loc 1 457 0
 1988 0056 2E44     		add	r6, r6, r5
 1989              	.LVL201:
 1990              		.loc 1 456 0
 1991 0058 4C44     		add	r4, r4, r9
 1992              	.LVL202:
 1993              	.L248:
 1994              	.LBB399:
 1995              	.LBB398:
ARM GAS  /tmp/ccbPff0O.s 			page 36


 1996              	.LBB393:
 1997              	.LBB392:
 1998              		.loc 1 93 0
 1999 005a D368     		ldr	r3, [r2, #12]
 2000 005c DB03     		lsls	r3, r3, #15
 2001 005e FCD4     		bmi	.L248
 2002              	.LBE392:
 2003              	.LBE393:
 2004              		.loc 1 294 0
 2005 0060 1369     		ldr	r3, [r2, #16]
 2006              	.LBB394:
 2007              	.LBB395:
 2008              		.loc 1 93 0
 2009 0062 2649     		ldr	r1, .L265
 2010              	.LBE395:
 2011              	.LBE394:
 2012              		.loc 1 294 0
 2013 0064 43F00103 		orr	r3, r3, #1
 2014 0068 1361     		str	r3, [r2, #16]
 2015              		.loc 1 297 0
 2016 006a C0F800C0 		str	ip, [r0]
 2017              	.L249:
 2018              	.LBB397:
 2019              	.LBB396:
 2020              		.loc 1 93 0
 2021 006e CB68     		ldr	r3, [r1, #12]
 2022 0070 DD03     		lsls	r5, r3, #15
 2023 0072 FCD4     		bmi	.L249
 2024              	.LVL203:
 2025              	.LBE396:
 2026              	.LBE397:
 2027              	.LBE398:
 2028              	.LBE399:
 2029              		.loc 1 459 0
 2030 0074 0430     		adds	r0, r0, #4
 2031 0076 3860     		str	r0, [r7]
 2032              	.LVL204:
 2033              	.L246:
 2034              		.loc 1 474 0
 2035 0078 26F00305 		bic	r5, r6, #3
 2036 007c 6719     		adds	r7, r4, r5
 2037              	.LVL205:
 2038              		.loc 1 477 0
 2039 007e 06F00306 		and	r6, r6, #3
 2040              	.LVL206:
 2041              		.loc 1 478 0
 2042 0082 3246     		mov	r2, r6
 2043 0084 3946     		mov	r1, r7
 2044 0086 1F48     		ldr	r0, .L265+8
 2045              		.loc 1 477 0
 2046 0088 88F80060 		strb	r6, [r8]
 2047              		.loc 1 478 0
 2048 008c FFF7FEFF 		bl	memcpy
 2049              	.LVL207:
 2050              		.loc 1 481 0
 2051 0090 BC42     		cmp	r4, r7
 2052 0092 1DD0     		beq	.L250
ARM GAS  /tmp/ccbPff0O.s 			page 37


 2053 0094 1A4F     		ldr	r7, .L265+4
 2054              	.LVL208:
 2055              	.LBB400:
 2056              	.LBB401:
 2057              	.LBB402:
 2058              	.LBB403:
 2059              		.loc 1 93 0
 2060 0096 194B     		ldr	r3, .L265
 2061 0098 3E68     		ldr	r6, [r7]
 2062 009a 043D     		subs	r5, r5, #4
 2063              	.LVL209:
 2064 009c 4FEA950C 		lsr	ip, r5, #2
 2065 00a0 301F     		subs	r0, r6, #4
 2066 00a2 2544     		add	r5, r5, r4
 2067              	.LVL210:
 2068 00a4 211F     		subs	r1, r4, #4
 2069              	.LVL211:
 2070              	.L253:
 2071              	.LBE403:
 2072              	.LBE402:
 2073              	.LBE401:
 2074              	.LBE400:
 2075              		.loc 1 483 0
 2076 00a6 51F8044F 		ldr	r4, [r1, #4]!
 2077              	.LVL212:
 2078              	.L251:
 2079              	.LBB409:
 2080              	.LBB408:
 2081              	.LBB405:
 2082              	.LBB404:
 2083              		.loc 1 93 0
 2084 00aa DA68     		ldr	r2, [r3, #12]
 2085 00ac D203     		lsls	r2, r2, #15
 2086 00ae FCD4     		bmi	.L251
 2087              	.LBE404:
 2088              	.LBE405:
 2089              		.loc 1 294 0
 2090 00b0 1A69     		ldr	r2, [r3, #16]
 2091 00b2 42F00102 		orr	r2, r2, #1
 2092 00b6 1A61     		str	r2, [r3, #16]
 2093              		.loc 1 297 0
 2094 00b8 40F8044F 		str	r4, [r0, #4]!
 2095              	.L252:
 2096              	.LBB406:
 2097              	.LBB407:
 2098              		.loc 1 93 0
 2099 00bc DA68     		ldr	r2, [r3, #12]
 2100 00be D203     		lsls	r2, r2, #15
 2101 00c0 FCD4     		bmi	.L252
 2102              	.LVL213:
 2103              	.LBE407:
 2104              	.LBE406:
 2105              	.LBE408:
 2106              	.LBE409:
 2107              		.loc 1 481 0
 2108 00c2 A942     		cmp	r1, r5
 2109 00c4 EFD1     		bne	.L253
ARM GAS  /tmp/ccbPff0O.s 			page 38


 2110 00c6 0CF1010C 		add	ip, ip, #1
 2111 00ca 06EB8C06 		add	r6, r6, ip, lsl #2
 2112 00ce 3E60     		str	r6, [r7]
 2113              	.LVL214:
 2114              	.L250:
 2115              		.loc 1 487 0
 2116 00d0 0120     		movs	r0, #1
 2117              	.L244:
 2118              		.loc 1 488 0
 2119 00d2 BDE8F087 		pop	{r4, r5, r6, r7, r8, r9, r10, pc}
 2120              	.LVL215:
 2121              	.L247:
 2122              		.loc 1 465 0
 2123 00d6 2146     		mov	r1, r4
 2124 00d8 3246     		mov	r2, r6
 2125              		.loc 1 466 0
 2126 00da 3544     		add	r5, r5, r6
 2127              		.loc 1 465 0
 2128 00dc FFF7FEFF 		bl	memcpy
 2129              	.LVL216:
 2130              		.loc 1 466 0
 2131 00e0 88F80050 		strb	r5, [r8]
 2132              		.loc 1 467 0
 2133 00e4 0120     		movs	r0, #1
 2134              		.loc 1 488 0
 2135 00e6 BDE8F087 		pop	{r4, r5, r6, r7, r8, r9, r10, pc}
 2136              	.LVL217:
 2137              	.L242:
 2138              	.LBB410:
 2139              	.LBB384:
 2140              	.LBB381:
 2141              	.LBB382:
 2142              		.loc 1 108 0
 2143 00ea 0749     		ldr	r1, .L265+12
 2144              	.LVL218:
 2145              		.loc 1 109 0
 2146 00ec 074A     		ldr	r2, .L265+16
 2147              		.loc 1 108 0
 2148 00ee 5960     		str	r1, [r3, #4]
 2149              		.loc 1 109 0
 2150 00f0 5A60     		str	r2, [r3, #4]
 2151              		.loc 1 112 0
 2152 00f2 1B69     		ldr	r3, [r3, #16]
 2153 00f4 002B     		cmp	r3, #0
 2154 00f6 8BDA     		bge	.L245
 2155              	.LBE382:
 2156              	.LBE381:
 2157              	.LBE384:
 2158              	.LBE410:
 2159              		.loc 1 442 0
 2160 00f8 0020     		movs	r0, #0
 2161              	.LVL219:
 2162 00fa EAE7     		b	.L244
 2163              	.L266:
 2164              		.align	2
 2165              	.L265:
 2166 00fc 003C0240 		.word	1073888256
ARM GAS  /tmp/ccbPff0O.s 			page 39


 2167 0100 00000000 		.word	.LANCHOR0
 2168 0104 00000000 		.word	.LANCHOR2
 2169 0108 23016745 		.word	1164378403
 2170 010c AB89EFCD 		.word	-839939669
 2171 0110 00000000 		.word	.LANCHOR1
 2172              		.cfi_endproc
 2173              	.LFE342:
 2174              		.size	Flash_Append, .-Flash_Append
 2175              		.section	.text.Flash_Pad,"ax",%progbits
 2176              		.align	1
 2177              		.p2align 2,,3
 2178              		.global	Flash_Pad
 2179              		.syntax unified
 2180              		.thumb
 2181              		.thumb_func
 2182              		.fpu fpv4-sp-d16
 2183              		.type	Flash_Pad, %function
 2184              	Flash_Pad:
 2185              	.LFB343:
 2186              		.loc 1 491 0
 2187              		.cfi_startproc
 2188              		@ args = 0, pretend = 0, frame = 0
 2189              		@ frame_needed = 0, uses_anonymous_args = 0
 2190 0000 70B5     		push	{r4, r5, r6, lr}
 2191              		.cfi_def_cfa_offset 16
 2192              		.cfi_offset 4, -16
 2193              		.cfi_offset 5, -12
 2194              		.cfi_offset 6, -8
 2195              		.cfi_offset 14, -4
 2196              		.loc 1 492 0
 2197 0002 104C     		ldr	r4, .L278
 2198 0004 2078     		ldrb	r0, [r4]	@ zero_extendqisi2
 2199 0006 00B9     		cbnz	r0, .L277
 2200              		.loc 1 499 0
 2201 0008 70BD     		pop	{r4, r5, r6, pc}
 2202              	.L277:
 2203              		.loc 1 494 0
 2204 000a 0F4E     		ldr	r6, .L278+4
 2205              		.loc 1 495 0
 2206 000c 0F4D     		ldr	r5, .L278+8
 2207              		.loc 1 494 0
 2208 000e C0F10402 		rsb	r2, r0, #4
 2209 0012 0021     		movs	r1, #0
 2210 0014 3044     		add	r0, r0, r6
 2211 0016 FFF7FEFF 		bl	memset
 2212              	.LVL220:
 2213              		.loc 1 495 0
 2214 001a 3668     		ldr	r6, [r6]
 2215 001c 2868     		ldr	r0, [r5]
 2216              	.LVL221:
 2217              	.LBB411:
 2218              	.LBB412:
 2219              	.LBB413:
 2220              	.LBB414:
 2221              		.loc 1 93 0
 2222 001e 0C4A     		ldr	r2, .L278+12
 2223              	.L269:
ARM GAS  /tmp/ccbPff0O.s 			page 40


 2224 0020 D368     		ldr	r3, [r2, #12]
 2225 0022 DB03     		lsls	r3, r3, #15
 2226 0024 FCD4     		bmi	.L269
 2227              	.LBE414:
 2228              	.LBE413:
 2229              		.loc 1 294 0
 2230 0026 1369     		ldr	r3, [r2, #16]
 2231              	.LBB415:
 2232              	.LBB416:
 2233              		.loc 1 93 0
 2234 0028 0949     		ldr	r1, .L278+12
 2235              	.LBE416:
 2236              	.LBE415:
 2237              		.loc 1 294 0
 2238 002a 43F00103 		orr	r3, r3, #1
 2239 002e 1361     		str	r3, [r2, #16]
 2240              		.loc 1 297 0
 2241 0030 0660     		str	r6, [r0]
 2242              	.L270:
 2243              	.LBB418:
 2244              	.LBB417:
 2245              		.loc 1 93 0
 2246 0032 CB68     		ldr	r3, [r1, #12]
 2247 0034 13F48033 		ands	r3, r3, #65536
 2248 0038 FBD1     		bne	.L270
 2249              	.LVL222:
 2250              	.LBE417:
 2251              	.LBE418:
 2252              	.LBE412:
 2253              	.LBE411:
 2254              		.loc 1 496 0
 2255 003a 0430     		adds	r0, r0, #4
 2256 003c 2860     		str	r0, [r5]
 2257              		.loc 1 497 0
 2258 003e 2370     		strb	r3, [r4]
 2259              		.loc 1 499 0
 2260 0040 70BD     		pop	{r4, r5, r6, pc}
 2261              	.L279:
 2262 0042 00BF     		.align	2
 2263              	.L278:
 2264 0044 00000000 		.word	.LANCHOR1
 2265 0048 00000000 		.word	.LANCHOR2
 2266 004c 00000000 		.word	.LANCHOR0
 2267 0050 003C0240 		.word	1073888256
 2268              		.cfi_endproc
 2269              	.LFE343:
 2270              		.size	Flash_Pad, .-Flash_Pad
 2271              		.section	.text.Flash_Close,"ax",%progbits
 2272              		.align	1
 2273              		.p2align 2,,3
 2274              		.global	Flash_Close
 2275              		.syntax unified
 2276              		.thumb
 2277              		.thumb_func
 2278              		.fpu fpv4-sp-d16
 2279              		.type	Flash_Close, %function
 2280              	Flash_Close:
ARM GAS  /tmp/ccbPff0O.s 			page 41


 2281              	.LFB344:
 2282              		.loc 1 505 0
 2283              		.cfi_startproc
 2284              		@ args = 0, pretend = 0, frame = 0
 2285              		@ frame_needed = 0, uses_anonymous_args = 0
 2286              		.loc 1 507 0
 2287 0000 174B     		ldr	r3, .L298
 2288 0002 1878     		ldrb	r0, [r3]	@ zero_extendqisi2
 2289 0004 48B9     		cbnz	r0, .L297
 2290              	.LBB419:
 2291              	.LBB420:
 2292              		.loc 1 122 0
 2293 0006 174A     		ldr	r2, .L298+4
 2294 0008 1369     		ldr	r3, [r2, #16]
 2295 000a 43F00043 		orr	r3, r3, #-2147483648
 2296 000e 1361     		str	r3, [r2, #16]
 2297              	.L293:
 2298              	.LBE420:
 2299              	.LBE419:
 2300              	.LBB422:
 2301              	.LBB423:
 2302              		.loc 1 93 0
 2303 0010 D368     		ldr	r3, [r2, #12]
 2304 0012 DB03     		lsls	r3, r3, #15
 2305 0014 FCD4     		bmi	.L293
 2306              	.LBE423:
 2307              	.LBE422:
 2308              		.loc 1 515 0
 2309 0016 0120     		movs	r0, #1
 2310 0018 7047     		bx	lr
 2311              	.L297:
 2312              		.loc 1 505 0
 2313 001a 10B5     		push	{r4, lr}
 2314              		.cfi_def_cfa_offset 8
 2315              		.cfi_offset 4, -8
 2316              		.cfi_offset 14, -4
 2317              		.loc 1 509 0
 2318 001c 124C     		ldr	r4, .L298+8
 2319 001e C0F10402 		rsb	r2, r0, #4
 2320 0022 0021     		movs	r1, #0
 2321 0024 2044     		add	r0, r0, r4
 2322 0026 FFF7FEFF 		bl	memset
 2323              	.LVL223:
 2324              		.loc 1 510 0
 2325 002a 104B     		ldr	r3, .L298+12
 2326 002c 2468     		ldr	r4, [r4]
 2327 002e 1868     		ldr	r0, [r3]
 2328              	.LVL224:
 2329              	.LBB425:
 2330              	.LBB426:
 2331              	.LBB427:
 2332              	.LBB428:
 2333              		.loc 1 93 0
 2334 0030 0C4A     		ldr	r2, .L298+4
 2335              	.L282:
 2336 0032 D368     		ldr	r3, [r2, #12]
 2337 0034 DB03     		lsls	r3, r3, #15
ARM GAS  /tmp/ccbPff0O.s 			page 42


 2338 0036 FCD4     		bmi	.L282
 2339              	.LBE428:
 2340              	.LBE427:
 2341              		.loc 1 294 0
 2342 0038 1369     		ldr	r3, [r2, #16]
 2343              	.LBB429:
 2344              	.LBB430:
 2345              		.loc 1 93 0
 2346 003a 0A49     		ldr	r1, .L298+4
 2347              	.LBE430:
 2348              	.LBE429:
 2349              		.loc 1 294 0
 2350 003c 43F00103 		orr	r3, r3, #1
 2351 0040 1361     		str	r3, [r2, #16]
 2352              		.loc 1 297 0
 2353 0042 0460     		str	r4, [r0]
 2354              	.LVL225:
 2355              	.L283:
 2356              	.LBB432:
 2357              	.LBB431:
 2358              		.loc 1 93 0
 2359 0044 CB68     		ldr	r3, [r1, #12]
 2360 0046 D803     		lsls	r0, r3, #15
 2361 0048 FCD4     		bmi	.L283
 2362              	.LBE431:
 2363              	.LBE432:
 2364              	.LBE426:
 2365              	.LBE425:
 2366              	.LBB433:
 2367              	.LBB421:
 2368              		.loc 1 122 0
 2369 004a 064A     		ldr	r2, .L298+4
 2370 004c 1369     		ldr	r3, [r2, #16]
 2371 004e 43F00043 		orr	r3, r3, #-2147483648
 2372 0052 1361     		str	r3, [r2, #16]
 2373              	.L284:
 2374              	.LBE421:
 2375              	.LBE433:
 2376              	.LBB434:
 2377              	.LBB424:
 2378              		.loc 1 93 0
 2379 0054 D368     		ldr	r3, [r2, #12]
 2380 0056 D903     		lsls	r1, r3, #15
 2381 0058 FCD4     		bmi	.L284
 2382              	.LBE424:
 2383              	.LBE434:
 2384              		.loc 1 515 0
 2385 005a 0120     		movs	r0, #1
 2386 005c 10BD     		pop	{r4, pc}
 2387              	.LVL226:
 2388              	.L299:
 2389 005e 00BF     		.align	2
 2390              	.L298:
 2391 0060 00000000 		.word	.LANCHOR1
 2392 0064 003C0240 		.word	1073888256
 2393 0068 00000000 		.word	.LANCHOR2
 2394 006c 00000000 		.word	.LANCHOR0
ARM GAS  /tmp/ccbPff0O.s 			page 43


 2395              		.cfi_endproc
 2396              	.LFE344:
 2397              		.size	Flash_Close, .-Flash_Close
 2398              		.section	.bss.buf,"aw",%nobits
 2399              		.align	2
 2400              		.set	.LANCHOR2,. + 0
 2401              		.type	buf, %object
 2402              		.size	buf, 4
 2403              	buf:
 2404 0000 00000000 		.space	4
 2405              		.section	.bss.remainBytes,"aw",%nobits
 2406              		.set	.LANCHOR1,. + 0
 2407              		.type	remainBytes, %object
 2408              		.size	remainBytes, 1
 2409              	remainBytes:
 2410 0000 00       		.space	1
 2411              		.section	.bss.toWriteAddr,"aw",%nobits
 2412              		.align	2
 2413              		.set	.LANCHOR0,. + 0
 2414              		.type	toWriteAddr, %object
 2415              		.size	toWriteAddr, 4
 2416              	toWriteAddr:
 2417 0000 00000000 		.space	4
 2418              		.text
 2419              	.Letext0:
 2420              		.file 2 "/usr/lib/gcc/arm-none-eabi/7.3.1/include/stddef.h"
 2421              		.file 3 "/usr/arm-none-eabi/include/machine/_default_types.h"
 2422              		.file 4 "/usr/arm-none-eabi/include/sys/lock.h"
 2423              		.file 5 "/usr/arm-none-eabi/include/sys/_types.h"
 2424              		.file 6 "/usr/arm-none-eabi/include/sys/reent.h"
 2425              		.file 7 "/usr/arm-none-eabi/include/sys/_stdint.h"
 2426              		.file 8 "./RM18A-ChibiOS18-Core/chibios/os/common/ports/ARMCMx/compilers/GCC/chtypes.h"
 2427              		.file 9 "./RM18A-ChibiOS18-Core/chibios/os/rt/include/chsystypes.h"
 2428              		.file 10 "./RM18A-ChibiOS18-Core/chibios/os/rt/include/chschd.h"
 2429              		.file 11 "./RM18A-ChibiOS18-Core/chibios/os/rt/include/chtime.h"
 2430              		.file 12 "./RM18A-ChibiOS18-Core/chibios/os/common/ext/ARM/CMSIS/Core/Include/core_cm4.h"
 2431              		.file 13 "./RM18A-ChibiOS18-Core/chibios/os/common/ext/ST/STM32F4xx/system_stm32f4xx.h"
 2432              		.file 14 "./RM18A-ChibiOS18-Core/chibios/os/common/ext/ST/STM32F4xx/stm32f427xx.h"
 2433              		.file 15 "./RM18A-ChibiOS18-Core/chibios/os/common/ports/ARMCMx/chcore.h"
 2434              		.file 16 "./RM18A-ChibiOS18-Core/chibios/os/common/ports/ARMCMx/chcore_v7m.h"
 2435              		.file 17 "./RM18A-ChibiOS18-Core/chibios/os/hal/ports/STM32/LLD/TIMv1/stm32_tim.h"
 2436              		.file 18 "./RM18A-ChibiOS18-Core/chibios/os/rt/include/chtm.h"
 2437              		.file 19 "./RM18A-ChibiOS18-Core/chibios/os/rt/include/chsem.h"
 2438              		.file 20 "./RM18A-ChibiOS18-Core/chibios/os/rt/include/chmtx.h"
 2439              		.file 21 "./RM18A-ChibiOS18-Core/chibios/os/rt/include/chsys.h"
 2440              		.file 22 "./RM18A-ChibiOS18-Core/chibios/os/rt/include/chregistry.h"
 2441              		.file 23 "./RM18A-ChibiOS18-Core/chibios/os/rt/include/chevents.h"
 2442              		.file 24 "./RM18A-ChibiOS18-Core/chibios/os/oslib/include/chmemcore.h"
 2443              		.file 25 "./RM18A-ChibiOS18-Core/chibios/os/oslib/include/chmempools.h"
 2444              		.file 26 "./RM18A-ChibiOS18-Core/chibios/os/oslib/include/chfactory.h"
 2445              		.file 27 "./RM18A-ChibiOS18-Core/chibios/os/hal/ports/STM32/LLD/DMAv2/stm32_dma.h"
 2446              		.file 28 "./RM18A-ChibiOS18-Core/chibios/os/hal/include/hal_queues.h"
 2447              		.file 29 "./RM18A-ChibiOS18-Core/chibios/os/hal/include/hal_pal.h"
 2448              		.file 30 "./RM18A-ChibiOS18-Core/chibios/os/hal/ports/STM32/LLD/GPIOv2/hal_pal_lld.h"
 2449              		.file 31 "./RM18A-ChibiOS18-Core/chibios/os/hal/include/hal_adc.h"
 2450              		.file 32 "./RM18A-ChibiOS18-Core/chibios/os/hal/ports/STM32/LLD/ADCv2/hal_adc_lld.h"
 2451              		.file 33 "./RM18A-ChibiOS18-Core/chibios/os/hal/include/hal_can.h"
ARM GAS  /tmp/ccbPff0O.s 			page 44


 2452              		.file 34 "./RM18A-ChibiOS18-Core/chibios/os/hal/ports/STM32/LLD/CANv1/hal_can_lld.h"
 2453              		.file 35 "./RM18A-ChibiOS18-Core/chibios/os/hal/include/hal_i2c.h"
 2454              		.file 36 "./RM18A-ChibiOS18-Core/chibios/os/hal/lib/fallback/I2C/hal_i2c_lld.h"
 2455              		.file 37 "./RM18A-ChibiOS18-Core/chibios/os/hal/include/hal_icu.h"
 2456              		.file 38 "./RM18A-ChibiOS18-Core/chibios/os/hal/ports/STM32/LLD/TIMv1/hal_icu_lld.h"
 2457              		.file 39 "./RM18A-ChibiOS18-Core/chibios/os/hal/include/hal_pwm.h"
 2458              		.file 40 "./RM18A-ChibiOS18-Core/chibios/os/hal/ports/STM32/LLD/TIMv1/hal_pwm_lld.h"
 2459              		.file 41 "./RM18A-ChibiOS18-Core/chibios/os/hal/include/hal_serial.h"
 2460              		.file 42 "./RM18A-ChibiOS18-Core/chibios/os/hal/ports/STM32/LLD/USARTv1/hal_serial_lld.h"
 2461              		.file 43 "./RM18A-ChibiOS18-Core/chibios/os/hal/include/hal_spi.h"
 2462              		.file 44 "./RM18A-ChibiOS18-Core/chibios/os/hal/ports/STM32/LLD/SPIv1/hal_spi_lld.h"
 2463              		.file 45 "./RM18A-ChibiOS18-Core/chibios/os/hal/include/hal_uart.h"
 2464              		.file 46 "./RM18A-ChibiOS18-Core/chibios/os/hal/ports/STM32/LLD/USARTv1/hal_uart_lld.h"
 2465              		.file 47 "./RM18A-ChibiOS18-Core/chibios/os/hal/include/hal_usb.h"
 2466              		.file 48 "./RM18A-ChibiOS18-Core/chibios/os/hal/ports/STM32/LLD/OTGv1/hal_usb_lld.h"
 2467              		.file 49 "./RM18A-ChibiOS18-Core/chibios/os/hal/ports/STM32/LLD/OTGv1/stm32_otg.h"
 2468              		.file 50 "./RM18A-ChibiOS18-Core/src/peripherals/flash.h"
 2469              		.file 51 "<built-in>"