ARM GAS  /tmp/cc0NTUrZ.s 			page 1


   1              		.cpu cortex-m4
   2              		.eabi_attribute 27, 1
   3              		.eabi_attribute 28, 1
   4              		.eabi_attribute 20, 1
   5              		.eabi_attribute 21, 1
   6              		.eabi_attribute 23, 3
   7              		.eabi_attribute 24, 1
   8              		.eabi_attribute 25, 1
   9              		.eabi_attribute 26, 1
  10              		.eabi_attribute 30, 2
  11              		.eabi_attribute 34, 1
  12              		.eabi_attribute 18, 4
  13              		.file	"hal_can_lld.c"
  14              		.text
  15              	.Ltext0:
  16              		.cfi_sections	.debug_frame
  17              		.section	.text.Vector8C,"ax",%progbits
  18              		.align	1
  19              		.p2align 2,,3
  20              		.global	Vector8C
  21              		.syntax unified
  22              		.thumb
  23              		.thumb_func
  24              		.fpu fpv4-sp-d16
  25              		.type	Vector8C, %function
  26              	Vector8C:
  27              	.LFB332:
  28              		.file 1 "./RM18A-ChibiOS18-Core/chibios/os/hal/ports/STM32/LLD/CANv1/hal_can_lld.c"
  29              		.loc 1 371 0
  30              		.cfi_startproc
  31              		@ args = 0, pretend = 0, frame = 0
  32              		@ frame_needed = 0, uses_anonymous_args = 0
  33              	.LVL0:
  34              	.LBB137:
  35              	.LBB138:
  36              		.loc 1 202 0
  37 0000 2F4A     		ldr	r2, .L21
  38 0002 916A     		ldr	r1, [r2, #40]
  39 0004 8B68     		ldr	r3, [r1, #8]
  40              	.LVL1:
  41              	.LBE138:
  42              	.LBE137:
  43              		.loc 1 371 0
  44 0006 2DE9F047 		push	{r4, r5, r6, r7, r8, r9, r10, lr}
  45              		.cfi_def_cfa_offset 32
  46              		.cfi_offset 4, -32
  47              		.cfi_offset 5, -28
  48              		.cfi_offset 6, -24
  49              		.cfi_offset 7, -20
  50              		.cfi_offset 8, -16
  51              		.cfi_offset 9, -12
  52              		.cfi_offset 10, -8
  53              		.cfi_offset 14, -4
  54              	.LBB155:
  55              	.LBB153:
  56              		.loc 1 203 0
  57 000a 8B60     		str	r3, [r1, #8]
ARM GAS  /tmp/cc0NTUrZ.s 			page 2


  58              	.LVL2:
  59              		.loc 1 209 0
  60 000c 13F00101 		ands	r1, r3, #1
  61 0010 45D0     		beq	.L6
  62              		.loc 1 210 0
  63 0012 03F00C0C 		and	ip, r3, #12
  64 0016 2B49     		ldr	r1, .L21+4
  65 0018 DFF8C8A0 		ldr	r10, .L21+36
  66 001c DFF8C890 		ldr	r9, .L21+40
  67 0020 294E     		ldr	r6, .L21+8
  68 0022 DFF8C8E0 		ldr	lr, .L21+44
  69 0026 2948     		ldr	r0, .L21+12
  70 0028 294C     		ldr	r4, .L21+16
  71 002a 2A4F     		ldr	r7, .L21+20
  72 002c DFF8C080 		ldr	r8, .L21+48
  73 0030 294D     		ldr	r5, .L21+24
  74 0032 BCF1000F 		cmp	ip, #0
  75 0036 01BF     		itttt	eq
  76 0038 8C46     		moveq	ip, r1
  77 003a 5646     		moveq	r6, r10
  78 003c CE46     		moveq	lr, r9
  79 003e 0520     		moveq	r0, #5
  80 0040 15BF     		itete	ne
  81 0042 4FF4A024 		movne	r4, #327680
  82 0046 0727     		moveq	r7, #7
  83 0048 4FF4E028 		movne	r8, #458752
  84 004c 0325     		moveq	r5, #3
  85 004e 16BF     		itet	ne
  86 0050 4FF4403C 		movne	ip, #196608
  87 0054 0121     		moveq	r1, #1
  88 0056 4FF48031 		movne	r1, #65536
  89              	.L2:
  90              	.LVL3:
  91              		.loc 1 219 0
  92 005a 13F4807F 		tst	r3, #256
  93 005e 05D0     		beq	.L3
  94              		.loc 1 220 0
  95 0060 13F4406F 		tst	r3, #3072
  96 0064 28D0     		beq	.L8
  97 0066 7046     		mov	r0, lr
  98 0068 4446     		mov	r4, r8
  99              		.loc 1 221 0
 100 006a 6146     		mov	r1, ip
 101              	.LVL4:
 102              	.L3:
 103              		.loc 1 229 0
 104 006c DD03     		lsls	r5, r3, #15
 105 006e 04D5     		bpl	.L4
 106              		.loc 1 234 0
 107 0070 13F4402F 		tst	r3, #786432
 108 0074 14BF     		ite	ne
 109 0076 2146     		movne	r1, r4
 110              	.LVL5:
 111 0078 0146     		moveq	r1, r0
 112              	.L4:
 113              	.LVL6:
 114              		.loc 1 239 0
ARM GAS  /tmp/cc0NTUrZ.s 			page 3


 115 007a D369     		ldr	r3, [r2, #28]
 116              	.LVL7:
 117 007c 0BB1     		cbz	r3, .L5
 118 007e 1048     		ldr	r0, .L21
 119 0080 9847     		blx	r3
 120              	.LVL8:
 121              	.L5:
 122              	.LBB139:
 123              	.LBB140:
 124              	.LBB141:
 125              	.LBB142:
 126              	.LBB143:
 127              	.LBB144:
 128              		.file 2 "./RM18A-ChibiOS18-Core/chibios/os/common/ext/ARM/CMSIS/Core/Include/cmsis_gcc.h"
 129              		.loc 2 493 0
 130 0082 2023     		movs	r3, #32
 131              		.syntax unified
 132              	@ 493 "./RM18A-ChibiOS18-Core/chibios/os/common/ext/ARM/CMSIS/Core/Include/cmsis_gcc.h" 1
 133 0084 83F31188 		MSR basepri, r3
 134              	@ 0 "" 2
 135              	.LVL9:
 136              		.thumb
 137              		.syntax unified
 138              	.LBE144:
 139              	.LBE143:
 140              	.LBE142:
 141              	.LBE141:
 142              	.LBE140:
 143              	.LBE139:
 144              	.LBB145:
 145              	.LBB146:
 146              		.file 3 "./RM18A-ChibiOS18-Core/chibios/os/hal/osal/rt/osal.h"
 147              		.loc 3 857 0
 148 0088 0021     		movs	r1, #0
 149 008a 1448     		ldr	r0, .L21+28
 150 008c FFF7FEFF 		bl	chThdDequeueAllI
 151              	.LVL10:
 152              	.LBE146:
 153              	.LBE145:
 154              	.LBB147:
 155              	.LBB148:
 156              	.LBB149:
 157              	.LBB150:
 158              	.LBB151:
 159              	.LBB152:
 160              		.loc 2 493 0
 161 0090 0023     		movs	r3, #0
 162              		.syntax unified
 163              	@ 493 "./RM18A-ChibiOS18-Core/chibios/os/common/ext/ARM/CMSIS/Core/Include/cmsis_gcc.h" 1
 164 0092 83F31188 		MSR basepri, r3
 165              	@ 0 "" 2
 166              	.LVL11:
 167              		.thumb
 168              		.syntax unified
 169              	.LBE152:
 170              	.LBE151:
 171              	.LBE150:
ARM GAS  /tmp/cc0NTUrZ.s 			page 4


 172              	.LBE149:
 173              	.LBE148:
 174              	.LBE147:
 175              	.LBE153:
 176              	.LBE155:
 177              		.loc 1 378 0
 178 0096 BDE8F047 		pop	{r4, r5, r6, r7, r8, r9, r10, lr}
 179              		.cfi_remember_state
 180              		.cfi_restore 14
 181              		.cfi_restore 10
 182              		.cfi_restore 9
 183              		.cfi_restore 8
 184              		.cfi_restore 7
 185              		.cfi_restore 6
 186              		.cfi_restore 5
 187              		.cfi_restore 4
 188              		.cfi_def_cfa_offset 0
 189              		.loc 1 377 0
 190 009a FFF7FEBF 		b	_port_irq_epilogue
 191              	.LVL12:
 192              	.L6:
 193              		.cfi_restore_state
 194              	.LBB156:
 195              	.LBB154:
 196              		.loc 1 209 0
 197 009e 104E     		ldr	r6, .L21+32
 198 00a0 DFF850E0 		ldr	lr, .L21+52
 199 00a4 0420     		movs	r0, #4
 200 00a6 4FF48024 		mov	r4, #262144
 201 00aa 0627     		movs	r7, #6
 202 00ac 4FF4C028 		mov	r8, #393216
 203 00b0 0225     		movs	r5, #2
 204 00b2 4FF4003C 		mov	ip, #131072
 205 00b6 D0E7     		b	.L2
 206              	.LVL13:
 207              	.L8:
 208              		.loc 1 220 0
 209 00b8 3846     		mov	r0, r7
 210 00ba 3446     		mov	r4, r6
 211              		.loc 1 224 0
 212 00bc 2946     		mov	r1, r5
 213              	.LVL14:
 214 00be D5E7     		b	.L3
 215              	.L22:
 216              		.align	2
 217              	.L21:
 218 00c0 00000000 		.word	.LANCHOR0
 219 00c4 01000200 		.word	131073
 220 00c8 02000500 		.word	327682
 221 00cc 04000100 		.word	65540
 222 00d0 01000400 		.word	262145
 223 00d4 06000100 		.word	65542
 224 00d8 02000100 		.word	65538
 225 00dc 08000000 		.word	.LANCHOR0+8
 226 00e0 02000400 		.word	262146
 227 00e4 03000400 		.word	262147
 228 00e8 05000200 		.word	131077
ARM GAS  /tmp/cc0NTUrZ.s 			page 5


 229 00ec 04000300 		.word	196612
 230 00f0 01000600 		.word	393217
 231 00f4 04000200 		.word	131076
 232              	.LBE154:
 233              	.LBE156:
 234              		.cfi_endproc
 235              	.LFE332:
 236              		.size	Vector8C, .-Vector8C
 237              		.section	.text.Vector90,"ax",%progbits
 238              		.align	1
 239              		.p2align 2,,3
 240              		.global	Vector90
 241              		.syntax unified
 242              		.thumb
 243              		.thumb_func
 244              		.fpu fpv4-sp-d16
 245              		.type	Vector90, %function
 246              	Vector90:
 247              	.LFB333:
 248              		.loc 1 385 0
 249              		.cfi_startproc
 250              		@ args = 0, pretend = 0, frame = 0
 251              		@ frame_needed = 0, uses_anonymous_args = 0
 252              	.LVL15:
 253 0000 70B5     		push	{r4, r5, r6, lr}
 254              		.cfi_def_cfa_offset 16
 255              		.cfi_offset 4, -16
 256              		.cfi_offset 5, -12
 257              		.cfi_offset 6, -8
 258              		.cfi_offset 14, -4
 259              	.LBB189:
 260              	.LBB190:
 261              		.loc 1 252 0
 262 0002 124C     		ldr	r4, .L39
 263 0004 A36A     		ldr	r3, [r4, #40]
 264 0006 DD68     		ldr	r5, [r3, #12]
 265              	.LVL16:
 266              		.loc 1 253 0
 267 0008 AA07     		lsls	r2, r5, #30
 268 000a 12D0     		beq	.L24
 269              		.loc 1 255 0
 270 000c 5A69     		ldr	r2, [r3, #20]
 271              		.loc 1 256 0
 272 000e A669     		ldr	r6, [r4, #24]
 273              		.loc 1 255 0
 274 0010 22F00202 		bic	r2, r2, #2
 275 0014 5A61     		str	r2, [r3, #20]
 276              		.loc 1 256 0
 277 0016 16B1     		cbz	r6, .L25
 278 0018 0121     		movs	r1, #1
 279 001a 2046     		mov	r0, r4
 280 001c B047     		blx	r6
 281              	.LVL17:
 282              	.L25:
 283              	.LBB191:
 284              	.LBB192:
 285              	.LBB193:
ARM GAS  /tmp/cc0NTUrZ.s 			page 6


 286              	.LBB194:
 287              	.LBB195:
 288              	.LBB196:
 289              		.loc 2 493 0
 290 001e 2023     		movs	r3, #32
 291              		.syntax unified
 292              	@ 493 "./RM18A-ChibiOS18-Core/chibios/os/common/ext/ARM/CMSIS/Core/Include/cmsis_gcc.h" 1
 293 0020 83F31188 		MSR basepri, r3
 294              	@ 0 "" 2
 295              	.LVL18:
 296              		.thumb
 297              		.syntax unified
 298              	.LBE196:
 299              	.LBE195:
 300              	.LBE194:
 301              	.LBE193:
 302              	.LBE192:
 303              	.LBE191:
 304              	.LBB197:
 305              	.LBB198:
 306              		.loc 3 857 0
 307 0024 0021     		movs	r1, #0
 308 0026 0A48     		ldr	r0, .L39+4
 309 0028 FFF7FEFF 		bl	chThdDequeueAllI
 310              	.LVL19:
 311              	.LBE198:
 312              	.LBE197:
 313              	.LBB199:
 314              	.LBB200:
 315              	.LBB201:
 316              	.LBB202:
 317              	.LBB203:
 318              	.LBB204:
 319              		.loc 2 493 0
 320 002c 0023     		movs	r3, #0
 321              		.syntax unified
 322              	@ 493 "./RM18A-ChibiOS18-Core/chibios/os/common/ext/ARM/CMSIS/Core/Include/cmsis_gcc.h" 1
 323 002e 83F31188 		MSR basepri, r3
 324              	@ 0 "" 2
 325              	.LVL20:
 326              		.thumb
 327              		.syntax unified
 328              	.L24:
 329              	.LBE204:
 330              	.LBE203:
 331              	.LBE202:
 332              	.LBE201:
 333              	.LBE200:
 334              	.LBE199:
 335              		.loc 1 258 0
 336 0032 EB06     		lsls	r3, r5, #27
 337 0034 06D5     		bpl	.L27
 338              	.LVL21:
 339              	.LBB205:
 340              	.LBB206:
 341              		.loc 1 260 0
 342 0036 A26A     		ldr	r2, [r4, #40]
ARM GAS  /tmp/cc0NTUrZ.s 			page 7


 343              		.loc 1 261 0
 344 0038 236A     		ldr	r3, [r4, #32]
 345              		.loc 1 260 0
 346 003a 1021     		movs	r1, #16
 347 003c D160     		str	r1, [r2, #12]
 348              		.loc 1 261 0
 349 003e 0BB1     		cbz	r3, .L27
 350 0040 0248     		ldr	r0, .L39
 351 0042 9847     		blx	r3
 352              	.LVL22:
 353              	.L27:
 354              	.LBE206:
 355              	.LBE205:
 356              	.LBE190:
 357              	.LBE189:
 358              		.loc 1 392 0
 359 0044 BDE87040 		pop	{r4, r5, r6, lr}
 360              		.cfi_restore 14
 361              		.cfi_restore 6
 362              		.cfi_restore 5
 363              		.cfi_restore 4
 364              		.cfi_def_cfa_offset 0
 365              		.loc 1 391 0
 366 0048 FFF7FEBF 		b	_port_irq_epilogue
 367              	.LVL23:
 368              	.L40:
 369              		.align	2
 370              	.L39:
 371 004c 00000000 		.word	.LANCHOR0
 372 0050 10000000 		.word	.LANCHOR0+16
 373              		.cfi_endproc
 374              	.LFE333:
 375              		.size	Vector90, .-Vector90
 376              		.section	.text.Vector94,"ax",%progbits
 377              		.align	1
 378              		.p2align 2,,3
 379              		.global	Vector94
 380              		.syntax unified
 381              		.thumb
 382              		.thumb_func
 383              		.fpu fpv4-sp-d16
 384              		.type	Vector94, %function
 385              	Vector94:
 386              	.LFB334:
 387              		.loc 1 399 0
 388              		.cfi_startproc
 389              		@ args = 0, pretend = 0, frame = 0
 390              		@ frame_needed = 0, uses_anonymous_args = 0
 391              	.LVL24:
 392 0000 70B5     		push	{r4, r5, r6, lr}
 393              		.cfi_def_cfa_offset 16
 394              		.cfi_offset 4, -16
 395              		.cfi_offset 5, -12
 396              		.cfi_offset 6, -8
 397              		.cfi_offset 14, -4
 398              	.LBB239:
 399              	.LBB240:
ARM GAS  /tmp/cc0NTUrZ.s 			page 8


 400              		.loc 1 275 0
 401 0002 124C     		ldr	r4, .L57
 402 0004 A36A     		ldr	r3, [r4, #40]
 403 0006 1D69     		ldr	r5, [r3, #16]
 404              	.LVL25:
 405              		.loc 1 276 0
 406 0008 AA07     		lsls	r2, r5, #30
 407 000a 12D0     		beq	.L42
 408              		.loc 1 278 0
 409 000c 5A69     		ldr	r2, [r3, #20]
 410              		.loc 1 279 0
 411 000e A669     		ldr	r6, [r4, #24]
 412              		.loc 1 278 0
 413 0010 22F01002 		bic	r2, r2, #16
 414 0014 5A61     		str	r2, [r3, #20]
 415              		.loc 1 279 0
 416 0016 16B1     		cbz	r6, .L43
 417 0018 0221     		movs	r1, #2
 418 001a 2046     		mov	r0, r4
 419 001c B047     		blx	r6
 420              	.LVL26:
 421              	.L43:
 422              	.LBB241:
 423              	.LBB242:
 424              	.LBB243:
 425              	.LBB244:
 426              	.LBB245:
 427              	.LBB246:
 428              		.loc 2 493 0
 429 001e 2023     		movs	r3, #32
 430              		.syntax unified
 431              	@ 493 "./RM18A-ChibiOS18-Core/chibios/os/common/ext/ARM/CMSIS/Core/Include/cmsis_gcc.h" 1
 432 0020 83F31188 		MSR basepri, r3
 433              	@ 0 "" 2
 434              	.LVL27:
 435              		.thumb
 436              		.syntax unified
 437              	.LBE246:
 438              	.LBE245:
 439              	.LBE244:
 440              	.LBE243:
 441              	.LBE242:
 442              	.LBE241:
 443              	.LBB247:
 444              	.LBB248:
 445              		.loc 3 857 0
 446 0024 0021     		movs	r1, #0
 447 0026 0A48     		ldr	r0, .L57+4
 448 0028 FFF7FEFF 		bl	chThdDequeueAllI
 449              	.LVL28:
 450              	.LBE248:
 451              	.LBE247:
 452              	.LBB249:
 453              	.LBB250:
 454              	.LBB251:
 455              	.LBB252:
 456              	.LBB253:
ARM GAS  /tmp/cc0NTUrZ.s 			page 9


 457              	.LBB254:
 458              		.loc 2 493 0
 459 002c 0023     		movs	r3, #0
 460              		.syntax unified
 461              	@ 493 "./RM18A-ChibiOS18-Core/chibios/os/common/ext/ARM/CMSIS/Core/Include/cmsis_gcc.h" 1
 462 002e 83F31188 		MSR basepri, r3
 463              	@ 0 "" 2
 464              	.LVL29:
 465              		.thumb
 466              		.syntax unified
 467              	.L42:
 468              	.LBE254:
 469              	.LBE253:
 470              	.LBE252:
 471              	.LBE251:
 472              	.LBE250:
 473              	.LBE249:
 474              		.loc 1 281 0
 475 0032 EB06     		lsls	r3, r5, #27
 476 0034 06D5     		bpl	.L45
 477              	.LVL30:
 478              	.LBB255:
 479              	.LBB256:
 480              		.loc 1 283 0
 481 0036 A26A     		ldr	r2, [r4, #40]
 482              		.loc 1 284 0
 483 0038 236A     		ldr	r3, [r4, #32]
 484              		.loc 1 283 0
 485 003a 1021     		movs	r1, #16
 486 003c 1161     		str	r1, [r2, #16]
 487              		.loc 1 284 0
 488 003e 0BB1     		cbz	r3, .L45
 489 0040 0248     		ldr	r0, .L57
 490 0042 9847     		blx	r3
 491              	.LVL31:
 492              	.L45:
 493              	.LBE256:
 494              	.LBE255:
 495              	.LBE240:
 496              	.LBE239:
 497              		.loc 1 406 0
 498 0044 BDE87040 		pop	{r4, r5, r6, lr}
 499              		.cfi_restore 14
 500              		.cfi_restore 6
 501              		.cfi_restore 5
 502              		.cfi_restore 4
 503              		.cfi_def_cfa_offset 0
 504              		.loc 1 405 0
 505 0048 FFF7FEBF 		b	_port_irq_epilogue
 506              	.LVL32:
 507              	.L58:
 508              		.align	2
 509              	.L57:
 510 004c 00000000 		.word	.LANCHOR0
 511 0050 10000000 		.word	.LANCHOR0+16
 512              		.cfi_endproc
 513              	.LFE334:
ARM GAS  /tmp/cc0NTUrZ.s 			page 10


 514              		.size	Vector94, .-Vector94
 515              		.section	.text.Vector98,"ax",%progbits
 516              		.align	1
 517              		.p2align 2,,3
 518              		.global	Vector98
 519              		.syntax unified
 520              		.thumb
 521              		.thumb_func
 522              		.fpu fpv4-sp-d16
 523              		.type	Vector98, %function
 524              	Vector98:
 525              	.LFB335:
 526              		.loc 1 413 0
 527              		.cfi_startproc
 528              		@ args = 0, pretend = 0, frame = 0
 529              		@ frame_needed = 0, uses_anonymous_args = 0
 530              	.LVL33:
 531 0000 70B5     		push	{r4, r5, r6, lr}
 532              		.cfi_def_cfa_offset 16
 533              		.cfi_offset 4, -16
 534              		.cfi_offset 5, -12
 535              		.cfi_offset 6, -8
 536              		.cfi_offset 14, -4
 537              	.LBB263:
 538              	.LBB264:
 539              		.loc 1 299 0
 540 0002 0F4C     		ldr	r4, .L74
 541 0004 A36A     		ldr	r3, [r4, #40]
 542 0006 5D68     		ldr	r5, [r3, #4]
 543              	.LVL34:
 544              		.loc 1 300 0
 545 0008 5D60     		str	r5, [r3, #4]
 546              		.loc 1 304 0
 547 000a 2A07     		lsls	r2, r5, #28
 548 000c 0AD5     		bpl	.L61
 549              		.loc 1 306 0
 550 000e 1A68     		ldr	r2, [r3]
 551              		.loc 1 307 0
 552 0010 666A     		ldr	r6, [r4, #36]
 553              		.loc 1 306 0
 554 0012 22F00202 		bic	r2, r2, #2
 555              		.loc 1 305 0
 556 0016 0321     		movs	r1, #3
 557 0018 2170     		strb	r1, [r4]
 558              		.loc 1 306 0
 559 001a 1A60     		str	r2, [r3]
 560              		.loc 1 307 0
 561 001c 16B1     		cbz	r6, .L61
 562 001e 0021     		movs	r1, #0
 563 0020 2046     		mov	r0, r4
 564 0022 B047     		blx	r6
 565              	.LVL35:
 566              	.L61:
 567              		.loc 1 311 0
 568 0024 6B07     		lsls	r3, r5, #29
 569 0026 06D5     		bpl	.L63
 570              	.LVL36:
ARM GAS  /tmp/cc0NTUrZ.s 			page 11


 571              	.LBB265:
 572              	.LBB266:
 573              	.LBB267:
 574              		.loc 1 313 0
 575 0028 A26A     		ldr	r2, [r4, #40]
 576              		.loc 1 325 0
 577 002a 236A     		ldr	r3, [r4, #32]
 578              		.loc 1 313 0
 579 002c 9169     		ldr	r1, [r2, #24]
 580              	.LVL37:
 581              		.loc 1 325 0
 582 002e 13B1     		cbz	r3, .L63
 583 0030 0904     		lsls	r1, r1, #16
 584              	.LVL38:
 585 0032 0348     		ldr	r0, .L74
 586 0034 9847     		blx	r3
 587              	.LVL39:
 588              	.L63:
 589              	.LBE267:
 590              	.LBE266:
 591              	.LBE265:
 592              	.LBE264:
 593              	.LBE263:
 594              		.loc 1 420 0
 595 0036 BDE87040 		pop	{r4, r5, r6, lr}
 596              		.cfi_restore 14
 597              		.cfi_restore 6
 598              		.cfi_restore 5
 599              		.cfi_restore 4
 600              		.cfi_def_cfa_offset 0
 601              		.loc 1 419 0
 602 003a FFF7FEBF 		b	_port_irq_epilogue
 603              	.LVL40:
 604              	.L75:
 605 003e 00BF     		.align	2
 606              	.L74:
 607 0040 00000000 		.word	.LANCHOR0
 608              		.cfi_endproc
 609              	.LFE335:
 610              		.size	Vector98, .-Vector98
 611              		.section	.text.Vector13C,"ax",%progbits
 612              		.align	1
 613              		.p2align 2,,3
 614              		.global	Vector13C
 615              		.syntax unified
 616              		.thumb
 617              		.thumb_func
 618              		.fpu fpv4-sp-d16
 619              		.type	Vector13C, %function
 620              	Vector13C:
 621              	.LFB336:
 622              		.loc 1 462 0
 623              		.cfi_startproc
 624              		@ args = 0, pretend = 0, frame = 0
 625              		@ frame_needed = 0, uses_anonymous_args = 0
 626              	.LVL41:
 627              	.LBB284:
ARM GAS  /tmp/cc0NTUrZ.s 			page 12


 628              	.LBB285:
 629              		.loc 1 202 0
 630 0000 2F4A     		ldr	r2, .L95
 631 0002 916A     		ldr	r1, [r2, #40]
 632 0004 8B68     		ldr	r3, [r1, #8]
 633              	.LVL42:
 634              	.LBE285:
 635              	.LBE284:
 636              		.loc 1 462 0
 637 0006 2DE9F047 		push	{r4, r5, r6, r7, r8, r9, r10, lr}
 638              		.cfi_def_cfa_offset 32
 639              		.cfi_offset 4, -32
 640              		.cfi_offset 5, -28
 641              		.cfi_offset 6, -24
 642              		.cfi_offset 7, -20
 643              		.cfi_offset 8, -16
 644              		.cfi_offset 9, -12
 645              		.cfi_offset 10, -8
 646              		.cfi_offset 14, -4
 647              	.LBB302:
 648              	.LBB300:
 649              		.loc 1 203 0
 650 000a 8B60     		str	r3, [r1, #8]
 651              	.LVL43:
 652              		.loc 1 209 0
 653 000c 13F00101 		ands	r1, r3, #1
 654 0010 45D0     		beq	.L81
 655              		.loc 1 210 0
 656 0012 03F00C0C 		and	ip, r3, #12
 657 0016 2B49     		ldr	r1, .L95+4
 658 0018 DFF8C8A0 		ldr	r10, .L95+36
 659 001c DFF8C890 		ldr	r9, .L95+40
 660 0020 294E     		ldr	r6, .L95+8
 661 0022 DFF8C8E0 		ldr	lr, .L95+44
 662 0026 2948     		ldr	r0, .L95+12
 663 0028 294C     		ldr	r4, .L95+16
 664 002a 2A4F     		ldr	r7, .L95+20
 665 002c DFF8C080 		ldr	r8, .L95+48
 666 0030 294D     		ldr	r5, .L95+24
 667 0032 BCF1000F 		cmp	ip, #0
 668 0036 01BF     		itttt	eq
 669 0038 8C46     		moveq	ip, r1
 670 003a 5646     		moveq	r6, r10
 671 003c CE46     		moveq	lr, r9
 672 003e 0520     		moveq	r0, #5
 673 0040 15BF     		itete	ne
 674 0042 4FF4A024 		movne	r4, #327680
 675 0046 0727     		moveq	r7, #7
 676 0048 4FF4E028 		movne	r8, #458752
 677 004c 0325     		moveq	r5, #3
 678 004e 16BF     		itet	ne
 679 0050 4FF4403C 		movne	ip, #196608
 680 0054 0121     		moveq	r1, #1
 681 0056 4FF48031 		movne	r1, #65536
 682              	.L77:
 683              	.LVL44:
 684              		.loc 1 219 0
ARM GAS  /tmp/cc0NTUrZ.s 			page 13


 685 005a 13F4807F 		tst	r3, #256
 686 005e 05D0     		beq	.L78
 687              		.loc 1 220 0
 688 0060 13F4406F 		tst	r3, #3072
 689 0064 28D0     		beq	.L83
 690 0066 7046     		mov	r0, lr
 691 0068 4446     		mov	r4, r8
 692              		.loc 1 221 0
 693 006a 6146     		mov	r1, ip
 694              	.LVL45:
 695              	.L78:
 696              		.loc 1 229 0
 697 006c DD03     		lsls	r5, r3, #15
 698 006e 04D5     		bpl	.L79
 699              		.loc 1 234 0
 700 0070 13F4402F 		tst	r3, #786432
 701 0074 14BF     		ite	ne
 702 0076 2146     		movne	r1, r4
 703              	.LVL46:
 704 0078 0146     		moveq	r1, r0
 705              	.L79:
 706              	.LVL47:
 707              		.loc 1 239 0
 708 007a D369     		ldr	r3, [r2, #28]
 709              	.LVL48:
 710 007c 0BB1     		cbz	r3, .L80
 711 007e 1048     		ldr	r0, .L95
 712 0080 9847     		blx	r3
 713              	.LVL49:
 714              	.L80:
 715              	.LBB286:
 716              	.LBB287:
 717              	.LBB288:
 718              	.LBB289:
 719              	.LBB290:
 720              	.LBB291:
 721              		.loc 2 493 0
 722 0082 2023     		movs	r3, #32
 723              		.syntax unified
 724              	@ 493 "./RM18A-ChibiOS18-Core/chibios/os/common/ext/ARM/CMSIS/Core/Include/cmsis_gcc.h" 1
 725 0084 83F31188 		MSR basepri, r3
 726              	@ 0 "" 2
 727              	.LVL50:
 728              		.thumb
 729              		.syntax unified
 730              	.LBE291:
 731              	.LBE290:
 732              	.LBE289:
 733              	.LBE288:
 734              	.LBE287:
 735              	.LBE286:
 736              	.LBB292:
 737              	.LBB293:
 738              		.loc 3 857 0
 739 0088 0021     		movs	r1, #0
 740 008a 1448     		ldr	r0, .L95+28
 741 008c FFF7FEFF 		bl	chThdDequeueAllI
ARM GAS  /tmp/cc0NTUrZ.s 			page 14


 742              	.LVL51:
 743              	.LBE293:
 744              	.LBE292:
 745              	.LBB294:
 746              	.LBB295:
 747              	.LBB296:
 748              	.LBB297:
 749              	.LBB298:
 750              	.LBB299:
 751              		.loc 2 493 0
 752 0090 0023     		movs	r3, #0
 753              		.syntax unified
 754              	@ 493 "./RM18A-ChibiOS18-Core/chibios/os/common/ext/ARM/CMSIS/Core/Include/cmsis_gcc.h" 1
 755 0092 83F31188 		MSR basepri, r3
 756              	@ 0 "" 2
 757              	.LVL52:
 758              		.thumb
 759              		.syntax unified
 760              	.LBE299:
 761              	.LBE298:
 762              	.LBE297:
 763              	.LBE296:
 764              	.LBE295:
 765              	.LBE294:
 766              	.LBE300:
 767              	.LBE302:
 768              		.loc 1 469 0
 769 0096 BDE8F047 		pop	{r4, r5, r6, r7, r8, r9, r10, lr}
 770              		.cfi_remember_state
 771              		.cfi_restore 14
 772              		.cfi_restore 10
 773              		.cfi_restore 9
 774              		.cfi_restore 8
 775              		.cfi_restore 7
 776              		.cfi_restore 6
 777              		.cfi_restore 5
 778              		.cfi_restore 4
 779              		.cfi_def_cfa_offset 0
 780              		.loc 1 468 0
 781 009a FFF7FEBF 		b	_port_irq_epilogue
 782              	.LVL53:
 783              	.L81:
 784              		.cfi_restore_state
 785              	.LBB303:
 786              	.LBB301:
 787              		.loc 1 209 0
 788 009e 104E     		ldr	r6, .L95+32
 789 00a0 DFF850E0 		ldr	lr, .L95+52
 790 00a4 0420     		movs	r0, #4
 791 00a6 4FF48024 		mov	r4, #262144
 792 00aa 0627     		movs	r7, #6
 793 00ac 4FF4C028 		mov	r8, #393216
 794 00b0 0225     		movs	r5, #2
 795 00b2 4FF4003C 		mov	ip, #131072
 796 00b6 D0E7     		b	.L77
 797              	.LVL54:
 798              	.L83:
ARM GAS  /tmp/cc0NTUrZ.s 			page 15


 799              		.loc 1 220 0
 800 00b8 3846     		mov	r0, r7
 801 00ba 3446     		mov	r4, r6
 802              		.loc 1 224 0
 803 00bc 2946     		mov	r1, r5
 804              	.LVL55:
 805 00be D5E7     		b	.L78
 806              	.L96:
 807              		.align	2
 808              	.L95:
 809 00c0 00000000 		.word	.LANCHOR1
 810 00c4 01000200 		.word	131073
 811 00c8 02000500 		.word	327682
 812 00cc 04000100 		.word	65540
 813 00d0 01000400 		.word	262145
 814 00d4 06000100 		.word	65542
 815 00d8 02000100 		.word	65538
 816 00dc 08000000 		.word	.LANCHOR1+8
 817 00e0 02000400 		.word	262146
 818 00e4 03000400 		.word	262147
 819 00e8 05000200 		.word	131077
 820 00ec 04000300 		.word	196612
 821 00f0 01000600 		.word	393217
 822 00f4 04000200 		.word	131076
 823              	.LBE301:
 824              	.LBE303:
 825              		.cfi_endproc
 826              	.LFE336:
 827              		.size	Vector13C, .-Vector13C
 828              		.section	.text.Vector140,"ax",%progbits
 829              		.align	1
 830              		.p2align 2,,3
 831              		.global	Vector140
 832              		.syntax unified
 833              		.thumb
 834              		.thumb_func
 835              		.fpu fpv4-sp-d16
 836              		.type	Vector140, %function
 837              	Vector140:
 838              	.LFB337:
 839              		.loc 1 476 0
 840              		.cfi_startproc
 841              		@ args = 0, pretend = 0, frame = 0
 842              		@ frame_needed = 0, uses_anonymous_args = 0
 843              	.LVL56:
 844 0000 70B5     		push	{r4, r5, r6, lr}
 845              		.cfi_def_cfa_offset 16
 846              		.cfi_offset 4, -16
 847              		.cfi_offset 5, -12
 848              		.cfi_offset 6, -8
 849              		.cfi_offset 14, -4
 850              	.LBB336:
 851              	.LBB337:
 852              		.loc 1 252 0
 853 0002 124C     		ldr	r4, .L113
 854 0004 A36A     		ldr	r3, [r4, #40]
 855 0006 DD68     		ldr	r5, [r3, #12]
ARM GAS  /tmp/cc0NTUrZ.s 			page 16


 856              	.LVL57:
 857              		.loc 1 253 0
 858 0008 AA07     		lsls	r2, r5, #30
 859 000a 12D0     		beq	.L98
 860              		.loc 1 255 0
 861 000c 5A69     		ldr	r2, [r3, #20]
 862              		.loc 1 256 0
 863 000e A669     		ldr	r6, [r4, #24]
 864              		.loc 1 255 0
 865 0010 22F00202 		bic	r2, r2, #2
 866 0014 5A61     		str	r2, [r3, #20]
 867              		.loc 1 256 0
 868 0016 16B1     		cbz	r6, .L99
 869 0018 0121     		movs	r1, #1
 870 001a 2046     		mov	r0, r4
 871 001c B047     		blx	r6
 872              	.LVL58:
 873              	.L99:
 874              	.LBB338:
 875              	.LBB339:
 876              	.LBB340:
 877              	.LBB341:
 878              	.LBB342:
 879              	.LBB343:
 880              		.loc 2 493 0
 881 001e 2023     		movs	r3, #32
 882              		.syntax unified
 883              	@ 493 "./RM18A-ChibiOS18-Core/chibios/os/common/ext/ARM/CMSIS/Core/Include/cmsis_gcc.h" 1
 884 0020 83F31188 		MSR basepri, r3
 885              	@ 0 "" 2
 886              	.LVL59:
 887              		.thumb
 888              		.syntax unified
 889              	.LBE343:
 890              	.LBE342:
 891              	.LBE341:
 892              	.LBE340:
 893              	.LBE339:
 894              	.LBE338:
 895              	.LBB344:
 896              	.LBB345:
 897              		.loc 3 857 0
 898 0024 0021     		movs	r1, #0
 899 0026 0A48     		ldr	r0, .L113+4
 900 0028 FFF7FEFF 		bl	chThdDequeueAllI
 901              	.LVL60:
 902              	.LBE345:
 903              	.LBE344:
 904              	.LBB346:
 905              	.LBB347:
 906              	.LBB348:
 907              	.LBB349:
 908              	.LBB350:
 909              	.LBB351:
 910              		.loc 2 493 0
 911 002c 0023     		movs	r3, #0
 912              		.syntax unified
ARM GAS  /tmp/cc0NTUrZ.s 			page 17


 913              	@ 493 "./RM18A-ChibiOS18-Core/chibios/os/common/ext/ARM/CMSIS/Core/Include/cmsis_gcc.h" 1
 914 002e 83F31188 		MSR basepri, r3
 915              	@ 0 "" 2
 916              	.LVL61:
 917              		.thumb
 918              		.syntax unified
 919              	.L98:
 920              	.LBE351:
 921              	.LBE350:
 922              	.LBE349:
 923              	.LBE348:
 924              	.LBE347:
 925              	.LBE346:
 926              		.loc 1 258 0
 927 0032 EB06     		lsls	r3, r5, #27
 928 0034 06D5     		bpl	.L101
 929              	.LVL62:
 930              	.LBB352:
 931              	.LBB353:
 932              		.loc 1 260 0
 933 0036 A26A     		ldr	r2, [r4, #40]
 934              		.loc 1 261 0
 935 0038 236A     		ldr	r3, [r4, #32]
 936              		.loc 1 260 0
 937 003a 1021     		movs	r1, #16
 938 003c D160     		str	r1, [r2, #12]
 939              		.loc 1 261 0
 940 003e 0BB1     		cbz	r3, .L101
 941 0040 0248     		ldr	r0, .L113
 942 0042 9847     		blx	r3
 943              	.LVL63:
 944              	.L101:
 945              	.LBE353:
 946              	.LBE352:
 947              	.LBE337:
 948              	.LBE336:
 949              		.loc 1 483 0
 950 0044 BDE87040 		pop	{r4, r5, r6, lr}
 951              		.cfi_restore 14
 952              		.cfi_restore 6
 953              		.cfi_restore 5
 954              		.cfi_restore 4
 955              		.cfi_def_cfa_offset 0
 956              		.loc 1 482 0
 957 0048 FFF7FEBF 		b	_port_irq_epilogue
 958              	.LVL64:
 959              	.L114:
 960              		.align	2
 961              	.L113:
 962 004c 00000000 		.word	.LANCHOR1
 963 0050 10000000 		.word	.LANCHOR1+16
 964              		.cfi_endproc
 965              	.LFE337:
 966              		.size	Vector140, .-Vector140
 967              		.section	.text.Vector144,"ax",%progbits
 968              		.align	1
 969              		.p2align 2,,3
ARM GAS  /tmp/cc0NTUrZ.s 			page 18


 970              		.global	Vector144
 971              		.syntax unified
 972              		.thumb
 973              		.thumb_func
 974              		.fpu fpv4-sp-d16
 975              		.type	Vector144, %function
 976              	Vector144:
 977              	.LFB338:
 978              		.loc 1 490 0
 979              		.cfi_startproc
 980              		@ args = 0, pretend = 0, frame = 0
 981              		@ frame_needed = 0, uses_anonymous_args = 0
 982              	.LVL65:
 983 0000 70B5     		push	{r4, r5, r6, lr}
 984              		.cfi_def_cfa_offset 16
 985              		.cfi_offset 4, -16
 986              		.cfi_offset 5, -12
 987              		.cfi_offset 6, -8
 988              		.cfi_offset 14, -4
 989              	.LBB386:
 990              	.LBB387:
 991              		.loc 1 275 0
 992 0002 124C     		ldr	r4, .L131
 993 0004 A36A     		ldr	r3, [r4, #40]
 994 0006 1D69     		ldr	r5, [r3, #16]
 995              	.LVL66:
 996              		.loc 1 276 0
 997 0008 AA07     		lsls	r2, r5, #30
 998 000a 12D0     		beq	.L116
 999              		.loc 1 278 0
 1000 000c 5A69     		ldr	r2, [r3, #20]
 1001              		.loc 1 279 0
 1002 000e A669     		ldr	r6, [r4, #24]
 1003              		.loc 1 278 0
 1004 0010 22F01002 		bic	r2, r2, #16
 1005 0014 5A61     		str	r2, [r3, #20]
 1006              		.loc 1 279 0
 1007 0016 16B1     		cbz	r6, .L117
 1008 0018 0221     		movs	r1, #2
 1009 001a 2046     		mov	r0, r4
 1010 001c B047     		blx	r6
 1011              	.LVL67:
 1012              	.L117:
 1013              	.LBB388:
 1014              	.LBB389:
 1015              	.LBB390:
 1016              	.LBB391:
 1017              	.LBB392:
 1018              	.LBB393:
 1019              		.loc 2 493 0
 1020 001e 2023     		movs	r3, #32
 1021              		.syntax unified
 1022              	@ 493 "./RM18A-ChibiOS18-Core/chibios/os/common/ext/ARM/CMSIS/Core/Include/cmsis_gcc.h" 1
 1023 0020 83F31188 		MSR basepri, r3
 1024              	@ 0 "" 2
 1025              	.LVL68:
 1026              		.thumb
ARM GAS  /tmp/cc0NTUrZ.s 			page 19


 1027              		.syntax unified
 1028              	.LBE393:
 1029              	.LBE392:
 1030              	.LBE391:
 1031              	.LBE390:
 1032              	.LBE389:
 1033              	.LBE388:
 1034              	.LBB394:
 1035              	.LBB395:
 1036              		.loc 3 857 0
 1037 0024 0021     		movs	r1, #0
 1038 0026 0A48     		ldr	r0, .L131+4
 1039 0028 FFF7FEFF 		bl	chThdDequeueAllI
 1040              	.LVL69:
 1041              	.LBE395:
 1042              	.LBE394:
 1043              	.LBB396:
 1044              	.LBB397:
 1045              	.LBB398:
 1046              	.LBB399:
 1047              	.LBB400:
 1048              	.LBB401:
 1049              		.loc 2 493 0
 1050 002c 0023     		movs	r3, #0
 1051              		.syntax unified
 1052              	@ 493 "./RM18A-ChibiOS18-Core/chibios/os/common/ext/ARM/CMSIS/Core/Include/cmsis_gcc.h" 1
 1053 002e 83F31188 		MSR basepri, r3
 1054              	@ 0 "" 2
 1055              	.LVL70:
 1056              		.thumb
 1057              		.syntax unified
 1058              	.L116:
 1059              	.LBE401:
 1060              	.LBE400:
 1061              	.LBE399:
 1062              	.LBE398:
 1063              	.LBE397:
 1064              	.LBE396:
 1065              		.loc 1 281 0
 1066 0032 EB06     		lsls	r3, r5, #27
 1067 0034 06D5     		bpl	.L119
 1068              	.LVL71:
 1069              	.LBB402:
 1070              	.LBB403:
 1071              		.loc 1 283 0
 1072 0036 A26A     		ldr	r2, [r4, #40]
 1073              		.loc 1 284 0
 1074 0038 236A     		ldr	r3, [r4, #32]
 1075              		.loc 1 283 0
 1076 003a 1021     		movs	r1, #16
 1077 003c 1161     		str	r1, [r2, #16]
 1078              		.loc 1 284 0
 1079 003e 0BB1     		cbz	r3, .L119
 1080 0040 0248     		ldr	r0, .L131
 1081 0042 9847     		blx	r3
 1082              	.LVL72:
 1083              	.L119:
ARM GAS  /tmp/cc0NTUrZ.s 			page 20


 1084              	.LBE403:
 1085              	.LBE402:
 1086              	.LBE387:
 1087              	.LBE386:
 1088              		.loc 1 497 0
 1089 0044 BDE87040 		pop	{r4, r5, r6, lr}
 1090              		.cfi_restore 14
 1091              		.cfi_restore 6
 1092              		.cfi_restore 5
 1093              		.cfi_restore 4
 1094              		.cfi_def_cfa_offset 0
 1095              		.loc 1 496 0
 1096 0048 FFF7FEBF 		b	_port_irq_epilogue
 1097              	.LVL73:
 1098              	.L132:
 1099              		.align	2
 1100              	.L131:
 1101 004c 00000000 		.word	.LANCHOR1
 1102 0050 10000000 		.word	.LANCHOR1+16
 1103              		.cfi_endproc
 1104              	.LFE338:
 1105              		.size	Vector144, .-Vector144
 1106              		.section	.text.Vector148,"ax",%progbits
 1107              		.align	1
 1108              		.p2align 2,,3
 1109              		.global	Vector148
 1110              		.syntax unified
 1111              		.thumb
 1112              		.thumb_func
 1113              		.fpu fpv4-sp-d16
 1114              		.type	Vector148, %function
 1115              	Vector148:
 1116              	.LFB339:
 1117              		.loc 1 504 0
 1118              		.cfi_startproc
 1119              		@ args = 0, pretend = 0, frame = 0
 1120              		@ frame_needed = 0, uses_anonymous_args = 0
 1121              	.LVL74:
 1122 0000 70B5     		push	{r4, r5, r6, lr}
 1123              		.cfi_def_cfa_offset 16
 1124              		.cfi_offset 4, -16
 1125              		.cfi_offset 5, -12
 1126              		.cfi_offset 6, -8
 1127              		.cfi_offset 14, -4
 1128              	.LBB410:
 1129              	.LBB411:
 1130              		.loc 1 299 0
 1131 0002 0F4C     		ldr	r4, .L148
 1132 0004 A36A     		ldr	r3, [r4, #40]
 1133 0006 5D68     		ldr	r5, [r3, #4]
 1134              	.LVL75:
 1135              		.loc 1 300 0
 1136 0008 5D60     		str	r5, [r3, #4]
 1137              		.loc 1 304 0
 1138 000a 2A07     		lsls	r2, r5, #28
 1139 000c 0AD5     		bpl	.L135
 1140              		.loc 1 306 0
ARM GAS  /tmp/cc0NTUrZ.s 			page 21


 1141 000e 1A68     		ldr	r2, [r3]
 1142              		.loc 1 307 0
 1143 0010 666A     		ldr	r6, [r4, #36]
 1144              		.loc 1 306 0
 1145 0012 22F00202 		bic	r2, r2, #2
 1146              		.loc 1 305 0
 1147 0016 0321     		movs	r1, #3
 1148 0018 2170     		strb	r1, [r4]
 1149              		.loc 1 306 0
 1150 001a 1A60     		str	r2, [r3]
 1151              		.loc 1 307 0
 1152 001c 16B1     		cbz	r6, .L135
 1153 001e 0021     		movs	r1, #0
 1154 0020 2046     		mov	r0, r4
 1155 0022 B047     		blx	r6
 1156              	.LVL76:
 1157              	.L135:
 1158              		.loc 1 311 0
 1159 0024 6B07     		lsls	r3, r5, #29
 1160 0026 06D5     		bpl	.L137
 1161              	.LVL77:
 1162              	.LBB412:
 1163              	.LBB413:
 1164              	.LBB414:
 1165              		.loc 1 313 0
 1166 0028 A26A     		ldr	r2, [r4, #40]
 1167              		.loc 1 325 0
 1168 002a 236A     		ldr	r3, [r4, #32]
 1169              		.loc 1 313 0
 1170 002c 9169     		ldr	r1, [r2, #24]
 1171              	.LVL78:
 1172              		.loc 1 325 0
 1173 002e 13B1     		cbz	r3, .L137
 1174 0030 0904     		lsls	r1, r1, #16
 1175              	.LVL79:
 1176 0032 0348     		ldr	r0, .L148
 1177 0034 9847     		blx	r3
 1178              	.LVL80:
 1179              	.L137:
 1180              	.LBE414:
 1181              	.LBE413:
 1182              	.LBE412:
 1183              	.LBE411:
 1184              	.LBE410:
 1185              		.loc 1 511 0
 1186 0036 BDE87040 		pop	{r4, r5, r6, lr}
 1187              		.cfi_restore 14
 1188              		.cfi_restore 6
 1189              		.cfi_restore 5
 1190              		.cfi_restore 4
 1191              		.cfi_def_cfa_offset 0
 1192              		.loc 1 510 0
 1193 003a FFF7FEBF 		b	_port_irq_epilogue
 1194              	.LVL81:
 1195              	.L149:
 1196 003e 00BF     		.align	2
 1197              	.L148:
ARM GAS  /tmp/cc0NTUrZ.s 			page 22


 1198 0040 00000000 		.word	.LANCHOR1
 1199              		.cfi_endproc
 1200              	.LFE339:
 1201              		.size	Vector148, .-Vector148
 1202              		.section	.text.can_lld_init,"ax",%progbits
 1203              		.align	1
 1204              		.p2align 2,,3
 1205              		.global	can_lld_init
 1206              		.syntax unified
 1207              		.thumb
 1208              		.thumb_func
 1209              		.fpu fpv4-sp-d16
 1210              		.type	can_lld_init, %function
 1211              	can_lld_init:
 1212              	.LFB340:
 1213              		.loc 1 615 0
 1214              		.cfi_startproc
 1215              		@ args = 0, pretend = 0, frame = 0
 1216              		@ frame_needed = 0, uses_anonymous_args = 0
 1217 0000 38B5     		push	{r3, r4, r5, lr}
 1218              		.cfi_def_cfa_offset 16
 1219              		.cfi_offset 3, -16
 1220              		.cfi_offset 4, -12
 1221              		.cfi_offset 5, -8
 1222              		.cfi_offset 14, -4
 1223              		.loc 1 619 0
 1224 0002 3B4C     		ldr	r4, .L152
 1225              		.loc 1 633 0
 1226 0004 3B4D     		ldr	r5, .L152+4
 1227              		.loc 1 619 0
 1228 0006 2046     		mov	r0, r4
 1229 0008 FFF7FEFF 		bl	canObjectInit
 1230              	.LVL82:
 1231              		.loc 1 620 0
 1232 000c 3A4B     		ldr	r3, .L152+8
 1233 000e A362     		str	r3, [r4, #40]
 1234              		.loc 1 624 0
 1235 0010 0B21     		movs	r1, #11
 1236 0012 1320     		movs	r0, #19
 1237 0014 FFF7FEFF 		bl	nvicEnableVector
 1238              	.LVL83:
 1239              		.loc 1 625 0
 1240 0018 0B21     		movs	r1, #11
 1241 001a 1420     		movs	r0, #20
 1242 001c FFF7FEFF 		bl	nvicEnableVector
 1243              	.LVL84:
 1244              		.loc 1 626 0
 1245 0020 0B21     		movs	r1, #11
 1246 0022 1520     		movs	r0, #21
 1247 0024 FFF7FEFF 		bl	nvicEnableVector
 1248              	.LVL85:
 1249              		.loc 1 627 0
 1250 0028 0B21     		movs	r1, #11
 1251 002a 1620     		movs	r0, #22
 1252 002c FFF7FEFF 		bl	nvicEnableVector
 1253              	.LVL86:
 1254              		.loc 1 633 0
ARM GAS  /tmp/cc0NTUrZ.s 			page 23


 1255 0030 2846     		mov	r0, r5
 1256 0032 FFF7FEFF 		bl	canObjectInit
 1257              	.LVL87:
 1258              		.loc 1 634 0
 1259 0036 314B     		ldr	r3, .L152+12
 1260 0038 AB62     		str	r3, [r5, #40]
 1261              		.loc 1 638 0
 1262 003a 0B21     		movs	r1, #11
 1263 003c 3F20     		movs	r0, #63
 1264 003e FFF7FEFF 		bl	nvicEnableVector
 1265              	.LVL88:
 1266              		.loc 1 639 0
 1267 0042 0B21     		movs	r1, #11
 1268 0044 4020     		movs	r0, #64
 1269 0046 FFF7FEFF 		bl	nvicEnableVector
 1270              	.LVL89:
 1271              		.loc 1 640 0
 1272 004a 0B21     		movs	r1, #11
 1273 004c 4120     		movs	r0, #65
 1274 004e FFF7FEFF 		bl	nvicEnableVector
 1275              	.LVL90:
 1276              		.loc 1 641 0
 1277 0052 0B21     		movs	r1, #11
 1278 0054 4220     		movs	r0, #66
 1279 0056 FFF7FEFF 		bl	nvicEnableVector
 1280              	.LVL91:
 1281              	.LBB418:
 1282              	.LBB419:
 1283              		.loc 1 95 0
 1284 005a 294A     		ldr	r2, .L152+16
 1285              		.loc 1 97 0
 1286 005c A36A     		ldr	r3, [r4, #40]
 1287              		.loc 1 95 0
 1288 005e 106C     		ldr	r0, [r2, #64]
 1289              		.loc 1 97 0
 1290 0060 284C     		ldr	r4, .L152+20
 1291              		.loc 1 95 0
 1292 0062 40F00070 		orr	r0, r0, #33554432
 1293 0066 1064     		str	r0, [r2, #64]
 1294 0068 106E     		ldr	r0, [r2, #96]
 1295 006a 40F00070 		orr	r0, r0, #33554432
 1296 006e 1066     		str	r0, [r2, #96]
 1297 0070 116E     		ldr	r1, [r2, #96]
 1298              		.loc 1 97 0
 1299 0072 D3F80002 		ldr	r0, [r3, #512]
 1300 0076 2040     		ands	r0, r0, r4
 1301 0078 40F00100 		orr	r0, r0, #1
 1302 007c C3F80002 		str	r0, [r3, #512]
 1303              		.loc 1 98 0
 1304 0080 D3F80012 		ldr	r1, [r3, #512]
 1305 0084 2140     		ands	r1, r1, r4
 1306 0086 41F46061 		orr	r1, r1, #3584
 1307              		.loc 1 155 0
 1308 008a 0020     		movs	r0, #0
 1309              		.loc 1 98 0
 1310 008c 41F00101 		orr	r1, r1, #1
 1311              		.loc 1 165 0
ARM GAS  /tmp/cc0NTUrZ.s 			page 24


 1312 0090 0124     		movs	r4, #1
 1313              		.loc 1 98 0
 1314 0092 C3F80012 		str	r1, [r3, #512]
 1315              		.loc 1 155 0
 1316 0096 C3F84002 		str	r0, [r3, #576]
 1317              		.loc 1 156 0
 1318 009a C3F84402 		str	r0, [r3, #580]
 1319              		.loc 1 159 0
 1320 009e C3F8B002 		str	r0, [r3, #688]
 1321              		.loc 1 160 0
 1322 00a2 C3F8B402 		str	r0, [r3, #692]
 1323              		.loc 1 163 0
 1324 00a6 C3F80402 		str	r0, [r3, #516]
 1325              		.loc 1 164 0
 1326 00aa C3F81402 		str	r0, [r3, #532]
 1327              		.loc 1 165 0
 1328 00ae C3F80C42 		str	r4, [r3, #524]
 1329              		.loc 1 166 0
 1330 00b2 C3F81C42 		str	r4, [r3, #540]
 1331              		.loc 1 169 0
 1332 00b6 D3F80C12 		ldr	r1, [r3, #524]
 1333 00ba 41F48041 		orr	r1, r1, #16384
 1334 00be C3F80C12 		str	r1, [r3, #524]
 1335              		.loc 1 170 0
 1336 00c2 D3F81C12 		ldr	r1, [r3, #540]
 1337 00c6 41F48041 		orr	r1, r1, #16384
 1338 00ca C3F81C12 		str	r1, [r3, #540]
 1339              		.loc 1 174 0
 1340 00ce D3F80012 		ldr	r1, [r3, #512]
 1341 00d2 21F00101 		bic	r1, r1, #1
 1342 00d6 C3F80012 		str	r1, [r3, #512]
 1343              		.loc 1 180 0
 1344 00da 136C     		ldr	r3, [r2, #64]
 1345 00dc 23F00073 		bic	r3, r3, #33554432
 1346 00e0 1364     		str	r3, [r2, #64]
 1347 00e2 136E     		ldr	r3, [r2, #96]
 1348 00e4 23F00073 		bic	r3, r3, #33554432
 1349 00e8 1366     		str	r3, [r2, #96]
 1350 00ea 136E     		ldr	r3, [r2, #96]
 1351              	.LVL92:
 1352              	.LBE419:
 1353              	.LBE418:
 1354              		.loc 1 671 0
 1355 00ec 38BD     		pop	{r3, r4, r5, pc}
 1356              	.L153:
 1357 00ee 00BF     		.align	2
 1358              	.L152:
 1359 00f0 00000000 		.word	.LANCHOR0
 1360 00f4 00000000 		.word	.LANCHOR1
 1361 00f8 00640040 		.word	1073767424
 1362 00fc 00680040 		.word	1073768448
 1363 0100 00380240 		.word	1073887232
 1364 0104 0000FFFF 		.word	-65536
 1365              		.cfi_endproc
 1366              	.LFE340:
 1367              		.size	can_lld_init, .-can_lld_init
 1368              		.section	.text.can_lld_start,"ax",%progbits
ARM GAS  /tmp/cc0NTUrZ.s 			page 25


 1369              		.align	1
 1370              		.p2align 2,,3
 1371              		.global	can_lld_start
 1372              		.syntax unified
 1373              		.thumb
 1374              		.thumb_func
 1375              		.fpu fpv4-sp-d16
 1376              		.type	can_lld_start, %function
 1377              	can_lld_start:
 1378              	.LFB341:
 1379              		.loc 1 680 0
 1380              		.cfi_startproc
 1381              		@ args = 0, pretend = 0, frame = 0
 1382              		@ frame_needed = 0, uses_anonymous_args = 0
 1383              	.LVL93:
 1384              		.loc 1 684 0
 1385 0000 1E4B     		ldr	r3, .L164
 1386 0002 9842     		cmp	r0, r3
 1387              		.loc 1 680 0
 1388 0004 10B5     		push	{r4, lr}
 1389              		.cfi_def_cfa_offset 8
 1390              		.cfi_offset 4, -8
 1391              		.cfi_offset 14, -4
 1392              		.loc 1 680 0
 1393 0006 0446     		mov	r4, r0
 1394              		.loc 1 684 0
 1395 0008 2CD0     		beq	.L162
 1396              		.loc 1 690 0
 1397 000a 1D4B     		ldr	r3, .L164+4
 1398 000c 9842     		cmp	r0, r3
 1399 000e 15D0     		beq	.L163
 1400              	.L156:
 1401              		.loc 1 703 0
 1402 0010 A36A     		ldr	r3, [r4, #40]
 1403 0012 0122     		movs	r2, #1
 1404 0014 1A60     		str	r2, [r3]
 1405              		.loc 1 704 0
 1406 0016 5A68     		ldr	r2, [r3, #4]
 1407 0018 D107     		lsls	r1, r2, #31
 1408 001a 07D4     		bmi	.L157
 1409              	.LVL94:
 1410              	.L158:
 1411              	.LBB420:
 1412              	.LBB421:
 1413              	.LBB422:
 1414              		.file 4 "./RM18A-ChibiOS18-Core/chibios/os/rt/include/chthreads.h"
 1415              		.loc 4 382 0
 1416 001c 0121     		movs	r1, #1
 1417 001e 0820     		movs	r0, #8
 1418 0020 FFF7FEFF 		bl	chSchGoSleepTimeoutS
 1419              	.LVL95:
 1420              	.LBE422:
 1421              	.LBE421:
 1422              	.LBE420:
 1423              		.loc 1 704 0
 1424 0024 A36A     		ldr	r3, [r4, #40]
 1425 0026 5A68     		ldr	r2, [r3, #4]
ARM GAS  /tmp/cc0NTUrZ.s 			page 26


 1426 0028 D207     		lsls	r2, r2, #31
 1427 002a F7D5     		bpl	.L158
 1428              	.LVL96:
 1429              	.L157:
 1430              		.loc 1 706 0
 1431 002c 6268     		ldr	r2, [r4, #4]
 1432              		.loc 1 716 0
 1433 002e 1549     		ldr	r1, .L164+8
 1434              		.loc 1 707 0
 1435 0030 D2E90020 		ldrd	r2, r0, [r2]
 1436              		.loc 1 706 0
 1437 0034 D861     		str	r0, [r3, #28]
 1438              		.loc 1 707 0
 1439 0036 1A60     		str	r2, [r3]
 1440              		.loc 1 716 0
 1441 0038 5961     		str	r1, [r3, #20]
 1442              		.loc 1 721 0
 1443 003a 10BD     		pop	{r4, pc}
 1444              	.LVL97:
 1445              	.L163:
 1446              		.loc 1 691 0
 1447 003c 124B     		ldr	r3, .L164+12
 1448 003e 1A6C     		ldr	r2, [r3, #64]
 1449 0040 42F00072 		orr	r2, r2, #33554432
 1450 0044 1A64     		str	r2, [r3, #64]
 1451 0046 1A6E     		ldr	r2, [r3, #96]
 1452 0048 42F00072 		orr	r2, r2, #33554432
 1453 004c 1A66     		str	r2, [r3, #96]
 1454 004e 1A6E     		ldr	r2, [r3, #96]
 1455              		.loc 1 692 0
 1456 0050 1A6C     		ldr	r2, [r3, #64]
 1457 0052 42F08062 		orr	r2, r2, #67108864
 1458 0056 1A64     		str	r2, [r3, #64]
 1459 0058 1A6E     		ldr	r2, [r3, #96]
 1460 005a 42F08062 		orr	r2, r2, #67108864
 1461 005e 1A66     		str	r2, [r3, #96]
 1462 0060 1B6E     		ldr	r3, [r3, #96]
 1463 0062 D5E7     		b	.L156
 1464              	.L162:
 1465              		.loc 1 685 0
 1466 0064 084B     		ldr	r3, .L164+12
 1467 0066 1A6C     		ldr	r2, [r3, #64]
 1468 0068 42F00072 		orr	r2, r2, #33554432
 1469 006c 1A64     		str	r2, [r3, #64]
 1470 006e 1A6E     		ldr	r2, [r3, #96]
 1471 0070 42F00072 		orr	r2, r2, #33554432
 1472 0074 1A66     		str	r2, [r3, #96]
 1473 0076 1B6E     		ldr	r3, [r3, #96]
 1474 0078 CAE7     		b	.L156
 1475              	.L165:
 1476 007a 00BF     		.align	2
 1477              	.L164:
 1478 007c 00000000 		.word	.LANCHOR0
 1479 0080 00000000 		.word	.LANCHOR1
 1480 0084 5B870100 		.word	100187
 1481 0088 00380240 		.word	1073887232
 1482              		.cfi_endproc
ARM GAS  /tmp/cc0NTUrZ.s 			page 27


 1483              	.LFE341:
 1484              		.size	can_lld_start, .-can_lld_start
 1485              		.section	.text.can_lld_stop,"ax",%progbits
 1486              		.align	1
 1487              		.p2align 2,,3
 1488              		.global	can_lld_stop
 1489              		.syntax unified
 1490              		.thumb
 1491              		.thumb_func
 1492              		.fpu fpv4-sp-d16
 1493              		.type	can_lld_stop, %function
 1494              	can_lld_stop:
 1495              	.LFB342:
 1496              		.loc 1 730 0
 1497              		.cfi_startproc
 1498              		@ args = 0, pretend = 0, frame = 0
 1499              		@ frame_needed = 0, uses_anonymous_args = 0
 1500              		@ link register save eliminated.
 1501              	.LVL98:
 1502              		.loc 1 733 0
 1503 0000 0378     		ldrb	r3, [r0]	@ zero_extendqisi2
 1504 0002 032B     		cmp	r3, #3
 1505 0004 00D0     		beq	.L172
 1506              	.L166:
 1507              		.loc 1 771 0
 1508 0006 7047     		bx	lr
 1509              	.L172:
 1510              		.loc 1 735 0
 1511 0008 1B4B     		ldr	r3, .L174
 1512 000a 9842     		cmp	r0, r3
 1513 000c 20D0     		beq	.L173
 1514              		.loc 1 749 0
 1515 000e 1B4A     		ldr	r2, .L174+4
 1516 0010 9042     		cmp	r0, r2
 1517 0012 F8D1     		bne	.L166
 1518              		.loc 1 750 0
 1519 0014 1A4A     		ldr	r2, .L174+8
 1520              		.loc 1 754 0
 1521 0016 1B78     		ldrb	r3, [r3]	@ zero_extendqisi2
 1522              		.loc 1 750 0
 1523 0018 1A49     		ldr	r1, .L174+12
 1524 001a 1160     		str	r1, [r2]
 1525              		.loc 1 754 0
 1526 001c 012B     		cmp	r3, #1
 1527              		.loc 1 751 0
 1528 001e 4FF00001 		mov	r1, #0
 1529 0022 5161     		str	r1, [r2, #20]
 1530              		.loc 1 754 0
 1531 0024 09D1     		bne	.L171
 1532              		.loc 1 757 0
 1533 0026 184B     		ldr	r3, .L174+16
 1534 0028 1A6C     		ldr	r2, [r3, #64]
 1535 002a 22F00072 		bic	r2, r2, #33554432
 1536 002e 1A64     		str	r2, [r3, #64]
 1537 0030 1A6E     		ldr	r2, [r3, #96]
 1538 0032 22F00072 		bic	r2, r2, #33554432
 1539 0036 1A66     		str	r2, [r3, #96]
ARM GAS  /tmp/cc0NTUrZ.s 			page 28


 1540 0038 1B6E     		ldr	r3, [r3, #96]
 1541              	.L171:
 1542              		.loc 1 759 0
 1543 003a 134B     		ldr	r3, .L174+16
 1544 003c 1A6C     		ldr	r2, [r3, #64]
 1545 003e 22F08062 		bic	r2, r2, #67108864
 1546 0042 1A64     		str	r2, [r3, #64]
 1547 0044 1A6E     		ldr	r2, [r3, #96]
 1548 0046 22F08062 		bic	r2, r2, #67108864
 1549 004a 1A66     		str	r2, [r3, #96]
 1550 004c 1B6E     		ldr	r3, [r3, #96]
 1551              		.loc 1 771 0
 1552 004e 7047     		bx	lr
 1553              	.L173:
 1554              		.loc 1 736 0
 1555 0050 0E4B     		ldr	r3, .L174+20
 1556 0052 0C49     		ldr	r1, .L174+12
 1557              		.loc 1 740 0
 1558 0054 094A     		ldr	r2, .L174+4
 1559              		.loc 1 736 0
 1560 0056 1960     		str	r1, [r3]
 1561              		.loc 1 737 0
 1562 0058 0021     		movs	r1, #0
 1563 005a 5961     		str	r1, [r3, #20]
 1564              		.loc 1 740 0
 1565 005c 1378     		ldrb	r3, [r2]	@ zero_extendqisi2
 1566 005e 012B     		cmp	r3, #1
 1567 0060 D1D1     		bne	.L166
 1568              		.loc 1 743 0
 1569 0062 094B     		ldr	r3, .L174+16
 1570 0064 1A6C     		ldr	r2, [r3, #64]
 1571 0066 22F00072 		bic	r2, r2, #33554432
 1572 006a 1A64     		str	r2, [r3, #64]
 1573 006c 1A6E     		ldr	r2, [r3, #96]
 1574 006e 22F00072 		bic	r2, r2, #33554432
 1575 0072 1A66     		str	r2, [r3, #96]
 1576 0074 1B6E     		ldr	r3, [r3, #96]
 1577 0076 7047     		bx	lr
 1578              	.L175:
 1579              		.align	2
 1580              	.L174:
 1581 0078 00000000 		.word	.LANCHOR0
 1582 007c 00000000 		.word	.LANCHOR1
 1583 0080 00680040 		.word	1073768448
 1584 0084 02000100 		.word	65538
 1585 0088 00380240 		.word	1073887232
 1586 008c 00640040 		.word	1073767424
 1587              		.cfi_endproc
 1588              	.LFE342:
 1589              		.size	can_lld_stop, .-can_lld_stop
 1590              		.section	.text.can_lld_is_tx_empty,"ax",%progbits
 1591              		.align	1
 1592              		.p2align 2,,3
 1593              		.global	can_lld_is_tx_empty
 1594              		.syntax unified
 1595              		.thumb
 1596              		.thumb_func
ARM GAS  /tmp/cc0NTUrZ.s 			page 29


 1597              		.fpu fpv4-sp-d16
 1598              		.type	can_lld_is_tx_empty, %function
 1599              	can_lld_is_tx_empty:
 1600              	.LFB343:
 1601              		.loc 1 785 0
 1602              		.cfi_startproc
 1603              		@ args = 0, pretend = 0, frame = 0
 1604              		@ frame_needed = 0, uses_anonymous_args = 0
 1605              		@ link register save eliminated.
 1606              	.LVL99:
 1607              		.loc 1 787 0
 1608 0000 0329     		cmp	r1, #3
 1609 0002 1AD8     		bhi	.L183
 1610 0004 DFE801F0 		tbb	[pc, r1]
 1611              	.L179:
 1612 0008 11       		.byte	(.L178-.L179)/2
 1613 0009 0C       		.byte	(.L180-.L179)/2
 1614 000a 07       		.byte	(.L181-.L179)/2
 1615 000b 02       		.byte	(.L182-.L179)/2
 1616              		.p2align 1
 1617              	.L182:
 1618              		.loc 1 795 0
 1619 000c 836A     		ldr	r3, [r0, #40]
 1620 000e 9868     		ldr	r0, [r3, #8]
 1621              	.LVL100:
 1622 0010 C0F30070 		ubfx	r0, r0, #28, #1
 1623 0014 7047     		bx	lr
 1624              	.LVL101:
 1625              	.L181:
 1626              		.loc 1 793 0
 1627 0016 836A     		ldr	r3, [r0, #40]
 1628 0018 9868     		ldr	r0, [r3, #8]
 1629              	.LVL102:
 1630 001a C0F3C060 		ubfx	r0, r0, #27, #1
 1631 001e 7047     		bx	lr
 1632              	.LVL103:
 1633              	.L180:
 1634              		.loc 1 791 0
 1635 0020 836A     		ldr	r3, [r0, #40]
 1636 0022 9868     		ldr	r0, [r3, #8]
 1637              	.LVL104:
 1638 0024 C0F38060 		ubfx	r0, r0, #26, #1
 1639 0028 7047     		bx	lr
 1640              	.LVL105:
 1641              	.L178:
 1642              		.loc 1 789 0
 1643 002a 836A     		ldr	r3, [r0, #40]
 1644 002c 9B68     		ldr	r3, [r3, #8]
 1645 002e 13F0E05F 		tst	r3, #469762048
 1646 0032 14BF     		ite	ne
 1647 0034 0120     		movne	r0, #1
 1648              	.LVL106:
 1649 0036 0020     		moveq	r0, #0
 1650 0038 7047     		bx	lr
 1651              	.LVL107:
 1652              	.L183:
 1653              		.loc 1 797 0
ARM GAS  /tmp/cc0NTUrZ.s 			page 30


 1654 003a 0020     		movs	r0, #0
 1655              	.LVL108:
 1656              		.loc 1 799 0
 1657 003c 7047     		bx	lr
 1658              		.cfi_endproc
 1659              	.LFE343:
 1660              		.size	can_lld_is_tx_empty, .-can_lld_is_tx_empty
 1661 003e 00BF     		.section	.text.can_lld_transmit,"ax",%progbits
 1662              		.align	1
 1663              		.p2align 2,,3
 1664              		.global	can_lld_transmit
 1665              		.syntax unified
 1666              		.thumb
 1667              		.thumb_func
 1668              		.fpu fpv4-sp-d16
 1669              		.type	can_lld_transmit, %function
 1670              	can_lld_transmit:
 1671              	.LFB344:
 1672              		.loc 1 812 0
 1673              		.cfi_startproc
 1674              		@ args = 0, pretend = 0, frame = 0
 1675              		@ frame_needed = 0, uses_anonymous_args = 0
 1676              		@ link register save eliminated.
 1677              	.LVL109:
 1678              		.loc 1 817 0
 1679 0000 0329     		cmp	r1, #3
 1680 0002 34D8     		bhi	.L195
 1681 0004 DFE801F0 		tbb	[pc, r1]
 1682              	.L187:
 1683 0008 23       		.byte	(.L186-.L187)/2
 1684 0009 2B       		.byte	(.L188-.L187)/2
 1685 000a 1F       		.byte	(.L189-.L187)/2
 1686 000b 02       		.byte	(.L190-.L187)/2
 1687              		.p2align 1
 1688              	.L190:
 1689              		.loc 1 828 0
 1690 000c 816A     		ldr	r1, [r0, #40]
 1691              	.LVL110:
 1692 000e 01F5D071 		add	r1, r1, #416
 1693              	.LVL111:
 1694              	.L191:
 1695 0012 1078     		ldrb	r0, [r2]	@ zero_extendqisi2
 1696              	.LVL112:
 1697              		.loc 1 812 0
 1698 0014 10B4     		push	{r4}
 1699              		.cfi_def_cfa_offset 4
 1700              		.cfi_offset 4, -4
 1701 0016 C0F30013 		ubfx	r3, r0, #4, #1
 1702              		.loc 1 835 0
 1703 001a 8406     		lsls	r4, r0, #26
 1704 001c 4FEA4303 		lsl	r3, r3, #1
 1705 0020 21D5     		bpl	.L192
 1706              		.loc 1 836 0
 1707 0022 5468     		ldr	r4, [r2, #4]
 1708 0024 43EAC403 		orr	r3, r3, r4, lsl #3
 1709 0028 43F00403 		orr	r3, r3, #4
 1710              	.LVL113:
ARM GAS  /tmp/cc0NTUrZ.s 			page 31


 1711              	.L193:
 1712              		.loc 1 842 0
 1713 002c D2E90242 		ldrd	r4, r2, [r2, #8]
 1714              	.LVL114:
 1715              		.loc 1 840 0
 1716 0030 00F00F00 		and	r0, r0, #15
 1717              		.loc 1 843 0
 1718 0034 43F00103 		orr	r3, r3, #1
 1719              	.LVL115:
 1720              		.loc 1 840 0
 1721 0038 4860     		str	r0, [r1, #4]
 1722              		.loc 1 841 0
 1723 003a 8C60     		str	r4, [r1, #8]
 1724              		.loc 1 842 0
 1725 003c CA60     		str	r2, [r1, #12]
 1726              		.loc 1 844 0
 1727 003e 5DF8044B 		ldr	r4, [sp], #4
 1728              		.cfi_restore 4
 1729              		.cfi_def_cfa_offset 0
 1730              		.loc 1 843 0
 1731 0042 0B60     		str	r3, [r1]
 1732              		.loc 1 844 0
 1733 0044 7047     		bx	lr
 1734              	.LVL116:
 1735              	.L189:
 1736              		.loc 1 825 0
 1737 0046 816A     		ldr	r1, [r0, #40]
 1738              	.LVL117:
 1739 0048 01F5C871 		add	r1, r1, #400
 1740              	.LVL118:
 1741              		.loc 1 826 0
 1742 004c E1E7     		b	.L191
 1743              	.LVL119:
 1744              	.L186:
 1745              		.loc 1 819 0
 1746 004e 816A     		ldr	r1, [r0, #40]
 1747              	.LVL120:
 1748 0050 8B68     		ldr	r3, [r1, #8]
 1749 0052 C3F30163 		ubfx	r3, r3, #24, #2
 1750 0056 1833     		adds	r3, r3, #24
 1751 0058 01EB0311 		add	r1, r1, r3, lsl #4
 1752              	.LVL121:
 1753              		.loc 1 820 0
 1754 005c D9E7     		b	.L191
 1755              	.LVL122:
 1756              	.L188:
 1757              		.loc 1 822 0
 1758 005e 816A     		ldr	r1, [r0, #40]
 1759              	.LVL123:
 1760 0060 01F5C071 		add	r1, r1, #384
 1761              	.LVL124:
 1762              		.loc 1 823 0
 1763 0064 D5E7     		b	.L191
 1764              	.LVL125:
 1765              	.L192:
 1766              		.cfi_def_cfa_offset 4
 1767              		.cfi_offset 4, -4
ARM GAS  /tmp/cc0NTUrZ.s 			page 32


 1768              		.loc 1 839 0
 1769 0066 9488     		ldrh	r4, [r2, #4]
 1770 0068 43EA4453 		orr	r3, r3, r4, lsl #21
 1771              	.LVL126:
 1772 006c DEE7     		b	.L193
 1773              	.LVL127:
 1774              	.L195:
 1775 006e 7047     		bx	lr
 1776              		.cfi_endproc
 1777              	.LFE344:
 1778              		.size	can_lld_transmit, .-can_lld_transmit
 1779              		.section	.text.can_lld_is_rx_nonempty,"ax",%progbits
 1780              		.align	1
 1781              		.p2align 2,,3
 1782              		.global	can_lld_is_rx_nonempty
 1783              		.syntax unified
 1784              		.thumb
 1785              		.thumb_func
 1786              		.fpu fpv4-sp-d16
 1787              		.type	can_lld_is_rx_nonempty, %function
 1788              	can_lld_is_rx_nonempty:
 1789              	.LFB345:
 1790              		.loc 1 858 0
 1791              		.cfi_startproc
 1792              		@ args = 0, pretend = 0, frame = 0
 1793              		@ frame_needed = 0, uses_anonymous_args = 0
 1794              		@ link register save eliminated.
 1795              	.LVL128:
 1796              		.loc 1 860 0
 1797 0000 0129     		cmp	r1, #1
 1798 0002 11D0     		beq	.L199
 1799 0004 0AD3     		bcc	.L200
 1800 0006 0229     		cmp	r1, #2
 1801 0008 06D1     		bne	.L207
 1802              		.loc 1 867 0
 1803 000a 836A     		ldr	r3, [r0, #40]
 1804              	.L206:
 1805 000c 1869     		ldr	r0, [r3, #16]
 1806              	.LVL129:
 1807 000e 10F00300 		ands	r0, r0, #3
 1808 0012 18BF     		it	ne
 1809 0014 0120     		movne	r0, #1
 1810 0016 7047     		bx	lr
 1811              	.LVL130:
 1812              	.L207:
 1813              		.loc 1 869 0
 1814 0018 0020     		movs	r0, #0
 1815              	.LVL131:
 1816              		.loc 1 871 0
 1817 001a 7047     		bx	lr
 1818              	.LVL132:
 1819              	.L200:
 1820              		.loc 1 862 0
 1821 001c 836A     		ldr	r3, [r0, #40]
 1822 001e DA68     		ldr	r2, [r3, #12]
 1823 0020 9207     		lsls	r2, r2, #30
 1824 0022 F3D0     		beq	.L206
ARM GAS  /tmp/cc0NTUrZ.s 			page 33


 1825 0024 0120     		movs	r0, #1
 1826              	.LVL133:
 1827 0026 7047     		bx	lr
 1828              	.LVL134:
 1829              	.L199:
 1830              		.loc 1 865 0
 1831 0028 836A     		ldr	r3, [r0, #40]
 1832 002a D868     		ldr	r0, [r3, #12]
 1833              	.LVL135:
 1834 002c 10F00300 		ands	r0, r0, #3
 1835 0030 18BF     		it	ne
 1836 0032 0120     		movne	r0, #1
 1837 0034 7047     		bx	lr
 1838              		.cfi_endproc
 1839              	.LFE345:
 1840              		.size	can_lld_is_rx_nonempty, .-can_lld_is_rx_nonempty
 1841 0036 00BF     		.section	.text.can_lld_receive,"ax",%progbits
 1842              		.align	1
 1843              		.p2align 2,,3
 1844              		.global	can_lld_receive
 1845              		.syntax unified
 1846              		.thumb
 1847              		.thumb_func
 1848              		.fpu fpv4-sp-d16
 1849              		.type	can_lld_receive, %function
 1850              	can_lld_receive:
 1851              	.LFB346:
 1852              		.loc 1 884 0
 1853              		.cfi_startproc
 1854              		@ args = 0, pretend = 0, frame = 0
 1855              		@ frame_needed = 0, uses_anonymous_args = 0
 1856              		@ link register save eliminated.
 1857              	.LVL136:
 1858 0000 30B4     		push	{r4, r5}
 1859              		.cfi_def_cfa_offset 8
 1860              		.cfi_offset 4, -8
 1861              		.cfi_offset 5, -4
 1862              		.loc 1 887 0
 1863 0002 0029     		cmp	r1, #0
 1864 0004 2FD1     		bne	.L209
 1865              		.loc 1 888 0
 1866 0006 836A     		ldr	r3, [r0, #40]
 1867 0008 D968     		ldr	r1, [r3, #12]
 1868              	.LVL137:
 1869 000a 8807     		lsls	r0, r1, #30
 1870              	.LVL138:
 1871 000c 44D0     		beq	.L219
 1872              	.L210:
 1873              		.loc 1 900 0
 1874 000e D3F8B001 		ldr	r0, [r3, #432]
 1875              	.LVL139:
 1876              		.loc 1 901 0
 1877 0012 D3F8B411 		ldr	r1, [r3, #436]
 1878              	.LVL140:
 1879              		.loc 1 902 0
 1880 0016 D3F8B841 		ldr	r4, [r3, #440]
 1881              		.loc 1 903 0
ARM GAS  /tmp/cc0NTUrZ.s 			page 34


 1882 001a D3F8BC51 		ldr	r5, [r3, #444]
 1883              		.loc 1 902 0
 1884 001e 1461     		str	r4, [r2, #16]
 1885              		.loc 1 906 0
 1886 0020 2024     		movs	r4, #32
 1887              		.loc 1 903 0
 1888 0022 5561     		str	r5, [r2, #20]
 1889              		.loc 1 906 0
 1890 0024 DC60     		str	r4, [r3, #12]
 1891              		.loc 1 910 0
 1892 0026 DC68     		ldr	r4, [r3, #12]
 1893 0028 A507     		lsls	r5, r4, #30
 1894 002a 03D1     		bne	.L215
 1895              		.loc 1 911 0
 1896 002c 5C69     		ldr	r4, [r3, #20]
 1897 002e 44F00204 		orr	r4, r4, #2
 1898 0032 5C61     		str	r4, [r3, #20]
 1899              	.L215:
 1900              		.loc 1 934 0
 1901 0034 1379     		ldrb	r3, [r2, #4]	@ zero_extendqisi2
 1902 0036 4408     		lsrs	r4, r0, #1
 1903 0038 64F30413 		bfi	r3, r4, #4, #1
 1904              		.loc 1 935 0
 1905 003c 8408     		lsrs	r4, r0, #2
 1906 003e 64F34513 		bfi	r3, r4, #5, #1
 1907 0042 1371     		strb	r3, [r2, #4]
 1908              		.loc 1 936 0
 1909 0044 9B06     		lsls	r3, r3, #26
 1910 0046 2BD5     		bpl	.L216
 1911              		.loc 1 937 0
 1912 0048 9368     		ldr	r3, [r2, #8]
 1913 004a C008     		lsrs	r0, r0, #3
 1914              	.LVL141:
 1915 004c 60F31C03 		bfi	r3, r0, #0, #29
 1916 0050 9360     		str	r3, [r2, #8]
 1917              	.L217:
 1918              		.loc 1 940 0
 1919 0052 1379     		ldrb	r3, [r2, #4]	@ zero_extendqisi2
 1920              		.loc 1 941 0
 1921 0054 080A     		lsrs	r0, r1, #8
 1922              		.loc 1 940 0
 1923 0056 61F30303 		bfi	r3, r1, #0, #4
 1924              		.loc 1 942 0
 1925 005a 090C     		lsrs	r1, r1, #16
 1926              	.LVL142:
 1927              		.loc 1 940 0
 1928 005c 1371     		strb	r3, [r2, #4]
 1929              		.loc 1 941 0
 1930 005e 1070     		strb	r0, [r2]
 1931              		.loc 1 942 0
 1932 0060 5180     		strh	r1, [r2, #2]	@ movhi
 1933              	.L208:
 1934              		.loc 1 943 0
 1935 0062 30BC     		pop	{r4, r5}
 1936              		.cfi_remember_state
 1937              		.cfi_restore 5
 1938              		.cfi_restore 4
ARM GAS  /tmp/cc0NTUrZ.s 			page 35


 1939              		.cfi_def_cfa_offset 0
 1940 0064 7047     		bx	lr
 1941              	.LVL143:
 1942              	.L209:
 1943              		.cfi_restore_state
 1944              		.loc 1 897 0
 1945 0066 0129     		cmp	r1, #1
 1946 0068 20D0     		beq	.L213
 1947 006a 0229     		cmp	r1, #2
 1948 006c F9D1     		bne	.L208
 1949 006e 836A     		ldr	r3, [r0, #40]
 1950              	.LVL144:
 1951              	.L211:
 1952              		.loc 1 915 0
 1953 0070 D3F8C001 		ldr	r0, [r3, #448]
 1954              	.LVL145:
 1955              		.loc 1 916 0
 1956 0074 D3F8C411 		ldr	r1, [r3, #452]
 1957              	.LVL146:
 1958              		.loc 1 917 0
 1959 0078 D3F8C841 		ldr	r4, [r3, #456]
 1960              		.loc 1 918 0
 1961 007c D3F8CC51 		ldr	r5, [r3, #460]
 1962              		.loc 1 917 0
 1963 0080 1461     		str	r4, [r2, #16]
 1964              		.loc 1 921 0
 1965 0082 2024     		movs	r4, #32
 1966              		.loc 1 918 0
 1967 0084 5561     		str	r5, [r2, #20]
 1968              		.loc 1 921 0
 1969 0086 1C61     		str	r4, [r3, #16]
 1970              		.loc 1 925 0
 1971 0088 1C69     		ldr	r4, [r3, #16]
 1972 008a A407     		lsls	r4, r4, #30
 1973 008c D2D1     		bne	.L215
 1974              		.loc 1 926 0
 1975 008e 5C69     		ldr	r4, [r3, #20]
 1976 0090 44F01004 		orr	r4, r4, #16
 1977 0094 5C61     		str	r4, [r3, #20]
 1978 0096 CDE7     		b	.L215
 1979              	.LVL147:
 1980              	.L219:
 1981              		.loc 1 890 0
 1982 0098 1969     		ldr	r1, [r3, #16]
 1983 009a 8907     		lsls	r1, r1, #30
 1984 009c E8D1     		bne	.L211
 1985 009e E0E7     		b	.L208
 1986              	.LVL148:
 1987              	.L216:
 1988              		.loc 1 939 0
 1989 00a0 1389     		ldrh	r3, [r2, #8]
 1990 00a2 400D     		lsrs	r0, r0, #21
 1991              	.LVL149:
 1992 00a4 60F30A03 		bfi	r3, r0, #0, #11
 1993 00a8 1381     		strh	r3, [r2, #8]	@ movhi
 1994 00aa D2E7     		b	.L217
 1995              	.LVL150:
ARM GAS  /tmp/cc0NTUrZ.s 			page 36


 1996              	.L213:
 1997 00ac 836A     		ldr	r3, [r0, #40]
 1998 00ae AEE7     		b	.L210
 1999              		.cfi_endproc
 2000              	.LFE346:
 2001              		.size	can_lld_receive, .-can_lld_receive
 2002              		.section	.text.can_lld_sleep,"ax",%progbits
 2003              		.align	1
 2004              		.p2align 2,,3
 2005              		.global	can_lld_sleep
 2006              		.syntax unified
 2007              		.thumb
 2008              		.thumb_func
 2009              		.fpu fpv4-sp-d16
 2010              		.type	can_lld_sleep, %function
 2011              	can_lld_sleep:
 2012              	.LFB347:
 2013              		.loc 1 953 0
 2014              		.cfi_startproc
 2015              		@ args = 0, pretend = 0, frame = 0
 2016              		@ frame_needed = 0, uses_anonymous_args = 0
 2017              		@ link register save eliminated.
 2018              	.LVL151:
 2019              		.loc 1 955 0
 2020 0000 826A     		ldr	r2, [r0, #40]
 2021 0002 1368     		ldr	r3, [r2]
 2022 0004 43F00203 		orr	r3, r3, #2
 2023 0008 1360     		str	r3, [r2]
 2024              		.loc 1 956 0
 2025 000a 7047     		bx	lr
 2026              		.cfi_endproc
 2027              	.LFE347:
 2028              		.size	can_lld_sleep, .-can_lld_sleep
 2029              		.section	.text.can_lld_wakeup,"ax",%progbits
 2030              		.align	1
 2031              		.p2align 2,,3
 2032              		.global	can_lld_wakeup
 2033              		.syntax unified
 2034              		.thumb
 2035              		.thumb_func
 2036              		.fpu fpv4-sp-d16
 2037              		.type	can_lld_wakeup, %function
 2038              	can_lld_wakeup:
 2039              	.LFB348:
 2040              		.loc 1 965 0
 2041              		.cfi_startproc
 2042              		@ args = 0, pretend = 0, frame = 0
 2043              		@ frame_needed = 0, uses_anonymous_args = 0
 2044              		@ link register save eliminated.
 2045              	.LVL152:
 2046              		.loc 1 967 0
 2047 0000 826A     		ldr	r2, [r0, #40]
 2048 0002 1368     		ldr	r3, [r2]
 2049 0004 23F00203 		bic	r3, r3, #2
 2050 0008 1360     		str	r3, [r2]
 2051              		.loc 1 968 0
 2052 000a 7047     		bx	lr
ARM GAS  /tmp/cc0NTUrZ.s 			page 37


 2053              		.cfi_endproc
 2054              	.LFE348:
 2055              		.size	can_lld_wakeup, .-can_lld_wakeup
 2056              		.section	.text.canSTM32SetFilters,"ax",%progbits
 2057              		.align	1
 2058              		.p2align 2,,3
 2059              		.global	canSTM32SetFilters
 2060              		.syntax unified
 2061              		.thumb
 2062              		.thumb_func
 2063              		.fpu fpv4-sp-d16
 2064              		.type	canSTM32SetFilters, %function
 2065              	canSTM32SetFilters:
 2066              	.LFB349:
 2067              		.loc 1 985 0
 2068              		.cfi_startproc
 2069              		@ args = 0, pretend = 0, frame = 0
 2070              		@ frame_needed = 0, uses_anonymous_args = 0
 2071              		@ link register save eliminated.
 2072              	.LVL153:
 2073 0000 F0B4     		push	{r4, r5, r6, r7}
 2074              		.cfi_def_cfa_offset 16
 2075              		.cfi_offset 4, -16
 2076              		.cfi_offset 5, -12
 2077              		.cfi_offset 6, -8
 2078              		.cfi_offset 7, -4
 2079              		.loc 1 1003 0
 2080 0002 4E4C     		ldr	r4, .L244
 2081 0004 A042     		cmp	r0, r4
 2082 0006 01D0     		beq	.L243
 2083              		.loc 1 1012 0
 2084 0008 F0BC     		pop	{r4, r5, r6, r7}
 2085              		.cfi_remember_state
 2086              		.cfi_restore 7
 2087              		.cfi_restore 6
 2088              		.cfi_restore 5
 2089              		.cfi_restore 4
 2090              		.cfi_def_cfa_offset 0
 2091 000a 7047     		bx	lr
 2092              	.L243:
 2093              		.cfi_restore_state
 2094              	.LVL154:
 2095              	.LBB426:
 2096              	.LBB427:
 2097              		.loc 1 95 0
 2098 000c 4C4D     		ldr	r5, .L244+4
 2099              		.loc 1 97 0
 2100 000e 806A     		ldr	r0, [r0, #40]
 2101              	.LVL155:
 2102              		.loc 1 95 0
 2103 0010 2E6C     		ldr	r6, [r5, #64]
 2104              		.loc 1 97 0
 2105 0012 4C4F     		ldr	r7, .L244+8
 2106              		.loc 1 95 0
 2107 0014 46F00076 		orr	r6, r6, #33554432
 2108 0018 2E64     		str	r6, [r5, #64]
 2109 001a 2E6E     		ldr	r6, [r5, #96]
ARM GAS  /tmp/cc0NTUrZ.s 			page 38


 2110 001c 46F00076 		orr	r6, r6, #33554432
 2111 0020 2E66     		str	r6, [r5, #96]
 2112 0022 2C6E     		ldr	r4, [r5, #96]
 2113              		.loc 1 97 0
 2114 0024 D0F80052 		ldr	r5, [r0, #512]
 2115 0028 3D40     		ands	r5, r5, r7
 2116 002a 45F00105 		orr	r5, r5, #1
 2117 002e C0F80052 		str	r5, [r0, #512]
 2118              		.loc 1 98 0
 2119 0032 D0F80042 		ldr	r4, [r0, #512]
 2120 0036 3C40     		ands	r4, r4, r7
 2121 0038 44F00104 		orr	r4, r4, #1
 2122 003c 44EA0124 		orr	r4, r4, r1, lsl #8
 2123 0040 C0F80042 		str	r4, [r0, #512]
 2124              		.loc 1 110 0
 2125 0044 002A     		cmp	r2, #0
 2126 0046 47D0     		beq	.L224
 2127              	.LBB428:
 2128              		.loc 1 114 0
 2129 0048 0024     		movs	r4, #0
 2130 004a C0F81C42 		str	r4, [r0, #540]
 2131              		.loc 1 121 0
 2132 004e 2146     		mov	r1, r4
 2133              	.LVL156:
 2134              		.loc 1 115 0
 2135 0050 C0F80442 		str	r4, [r0, #516]
 2136              		.loc 1 122 0
 2137 0054 2546     		mov	r5, r4
 2138              		.loc 1 116 0
 2139 0056 C0F80C42 		str	r4, [r0, #524]
 2140              		.loc 1 117 0
 2141 005a C0F81442 		str	r4, [r0, #532]
 2142              	.LVL157:
 2143              	.L225:
 2144 005e 00EBC104 		add	r4, r0, r1, lsl #3
 2145              		.loc 1 121 0
 2146 0062 0131     		adds	r1, r1, #1
 2147              	.LVL158:
 2148 0064 1C29     		cmp	r1, #28
 2149              		.loc 1 122 0
 2150 0066 C4F84052 		str	r5, [r4, #576]
 2151              		.loc 1 123 0
 2152 006a C4F84452 		str	r5, [r4, #580]
 2153              		.loc 1 121 0
 2154 006e F6D1     		bne	.L225
 2155 0070 0026     		movs	r6, #0
 2156              		.loc 1 139 0
 2157 0072 0127     		movs	r7, #1
 2158              	.LVL159:
 2159              	.L229:
 2160              		.loc 1 140 0
 2161 0074 9C78     		ldrb	r4, [r3, #2]	@ zero_extendqisi2
 2162              		.loc 1 139 0
 2163 0076 1988     		ldrh	r1, [r3]
 2164              		.loc 1 140 0
 2165 0078 14F0010F 		tst	r4, #1
 2166 007c 00EBC105 		add	r5, r0, r1, lsl #3
ARM GAS  /tmp/cc0NTUrZ.s 			page 39


 2167              		.loc 1 138 0
 2168 0080 06F10106 		add	r6, r6, #1
 2169              	.LVL160:
 2170              		.loc 1 139 0
 2171 0084 07FA01F1 		lsl	r1, r7, r1
 2172              	.LVL161:
 2173              		.loc 1 140 0
 2174 0088 05D0     		beq	.L226
 2175              		.loc 1 141 0
 2176 008a D0F804C2 		ldr	ip, [r0, #516]
 2177 008e 41EA0C0C 		orr	ip, r1, ip
 2178 0092 C0F804C2 		str	ip, [r0, #516]
 2179              	.L226:
 2180              		.loc 1 142 0
 2181 0096 14F0020F 		tst	r4, #2
 2182 009a 05D0     		beq	.L227
 2183              		.loc 1 143 0
 2184 009c D0F80CC2 		ldr	ip, [r0, #524]
 2185 00a0 41EA0C0C 		orr	ip, r1, ip
 2186 00a4 C0F80CC2 		str	ip, [r0, #524]
 2187              	.L227:
 2188              		.loc 1 144 0
 2189 00a8 6407     		lsls	r4, r4, #29
 2190 00aa 04D5     		bpl	.L228
 2191              		.loc 1 145 0
 2192 00ac D0F81442 		ldr	r4, [r0, #532]
 2193 00b0 0C43     		orrs	r4, r4, r1
 2194 00b2 C0F81442 		str	r4, [r0, #532]
 2195              	.L228:
 2196              		.loc 1 146 0
 2197 00b6 5C68     		ldr	r4, [r3, #4]
 2198 00b8 C5F84042 		str	r4, [r5, #576]
 2199              		.loc 1 147 0
 2200 00bc 9C68     		ldr	r4, [r3, #8]
 2201 00be C5F84442 		str	r4, [r5, #580]
 2202              		.loc 1 148 0
 2203 00c2 D0F81C42 		ldr	r4, [r0, #540]
 2204              		.loc 1 138 0
 2205 00c6 B242     		cmp	r2, r6
 2206              		.loc 1 148 0
 2207 00c8 41EA0401 		orr	r1, r1, r4
 2208              	.LVL162:
 2209              		.loc 1 149 0
 2210 00cc 03F10C03 		add	r3, r3, #12
 2211              	.LVL163:
 2212              		.loc 1 148 0
 2213 00d0 C0F81C12 		str	r1, [r0, #540]
 2214              		.loc 1 138 0
 2215 00d4 CED1     		bne	.L229
 2216 00d6 1EE0     		b	.L230
 2217              	.LVL164:
 2218              	.L224:
 2219 00d8 00EBC104 		add	r4, r0, r1, lsl #3
 2220              	.LBE428:
 2221              		.loc 1 165 0
 2222 00dc 0123     		movs	r3, #1
 2223              	.LVL165:
ARM GAS  /tmp/cc0NTUrZ.s 			page 40


 2224              		.loc 1 155 0
 2225 00de C0F84022 		str	r2, [r0, #576]
 2226              		.loc 1 156 0
 2227 00e2 C0F84422 		str	r2, [r0, #580]
 2228              		.loc 1 159 0
 2229 00e6 C4F84022 		str	r2, [r4, #576]
 2230              		.loc 1 160 0
 2231 00ea C4F84422 		str	r2, [r4, #580]
 2232              		.loc 1 163 0
 2233 00ee C0F80422 		str	r2, [r0, #516]
 2234              		.loc 1 164 0
 2235 00f2 C0F81422 		str	r2, [r0, #532]
 2236              		.loc 1 165 0
 2237 00f6 C0F80C32 		str	r3, [r0, #524]
 2238              		.loc 1 166 0
 2239 00fa C0F81C32 		str	r3, [r0, #540]
 2240              		.loc 1 169 0
 2241 00fe D0F80C22 		ldr	r2, [r0, #524]
 2242              	.LVL166:
 2243 0102 03FA01F1 		lsl	r1, r3, r1
 2244              	.LVL167:
 2245 0106 0A43     		orrs	r2, r2, r1
 2246 0108 C0F80C22 		str	r2, [r0, #524]
 2247              		.loc 1 170 0
 2248 010c D0F81C32 		ldr	r3, [r0, #540]
 2249 0110 1943     		orrs	r1, r1, r3
 2250 0112 C0F81C12 		str	r1, [r0, #540]
 2251              	.LVL168:
 2252              	.L230:
 2253              		.loc 1 174 0
 2254 0116 D0F80022 		ldr	r2, [r0, #512]
 2255              		.loc 1 180 0
 2256 011a 094B     		ldr	r3, .L244+4
 2257              		.loc 1 174 0
 2258 011c 22F00102 		bic	r2, r2, #1
 2259 0120 C0F80022 		str	r2, [r0, #512]
 2260              		.loc 1 180 0
 2261 0124 1A6C     		ldr	r2, [r3, #64]
 2262 0126 22F00072 		bic	r2, r2, #33554432
 2263 012a 1A64     		str	r2, [r3, #64]
 2264 012c 1A6E     		ldr	r2, [r3, #96]
 2265 012e 22F00072 		bic	r2, r2, #33554432
 2266 0132 1A66     		str	r2, [r3, #96]
 2267 0134 1B6E     		ldr	r3, [r3, #96]
 2268              	.LBE427:
 2269              	.LBE426:
 2270              		.loc 1 1012 0
 2271 0136 F0BC     		pop	{r4, r5, r6, r7}
 2272              		.cfi_restore 7
 2273              		.cfi_restore 6
 2274              		.cfi_restore 5
 2275              		.cfi_restore 4
 2276              		.cfi_def_cfa_offset 0
 2277 0138 7047     		bx	lr
 2278              	.L245:
 2279 013a 00BF     		.align	2
 2280              	.L244:
ARM GAS  /tmp/cc0NTUrZ.s 			page 41


 2281 013c 00000000 		.word	.LANCHOR0
 2282 0140 00380240 		.word	1073887232
 2283 0144 0000FFFF 		.word	-65536
 2284              		.cfi_endproc
 2285              	.LFE349:
 2286              		.size	canSTM32SetFilters, .-canSTM32SetFilters
 2287              		.global	CAND2
 2288              		.global	CAND1
 2289              		.section	.bss.CAND1,"aw",%nobits
 2290              		.align	2
 2291              		.set	.LANCHOR0,. + 0
 2292              		.type	CAND1, %object
 2293              		.size	CAND1, 44
 2294              	CAND1:
 2295 0000 00000000 		.space	44
 2295      00000000 
 2295      00000000 
 2295      00000000 
 2295      00000000 
 2296              		.section	.bss.CAND2,"aw",%nobits
 2297              		.align	2
 2298              		.set	.LANCHOR1,. + 0
 2299              		.type	CAND2, %object
 2300              		.size	CAND2, 44
 2301              	CAND2:
 2302 0000 00000000 		.space	44
 2302      00000000 
 2302      00000000 
 2302      00000000 
 2302      00000000 
 2303              		.text
 2304              	.Letext0:
 2305              		.file 5 "/usr/lib/gcc/arm-none-eabi/7.3.1/include/stddef.h"
 2306              		.file 6 "/usr/arm-none-eabi/include/machine/_default_types.h"
 2307              		.file 7 "/usr/arm-none-eabi/include/sys/_stdint.h"
 2308              		.file 8 "./RM18A-ChibiOS18-Core/chibios/os/common/ports/ARMCMx/compilers/GCC/chtypes.h"
 2309              		.file 9 "./RM18A-ChibiOS18-Core/chibios/os/rt/include/chsystypes.h"
 2310              		.file 10 "./RM18A-ChibiOS18-Core/chibios/os/rt/include/chschd.h"
 2311              		.file 11 "./RM18A-ChibiOS18-Core/chibios/os/rt/include/chtime.h"
 2312              		.file 12 "./RM18A-ChibiOS18-Core/chibios/os/common/ext/ARM/CMSIS/Core/Include/core_cm4.h"
 2313              		.file 13 "./RM18A-ChibiOS18-Core/chibios/os/common/ext/ST/STM32F4xx/system_stm32f4xx.h"
 2314              		.file 14 "./RM18A-ChibiOS18-Core/chibios/os/common/ext/ST/STM32F4xx/stm32f427xx.h"
 2315              		.file 15 "./RM18A-ChibiOS18-Core/chibios/os/common/ports/ARMCMx/chcore.h"
 2316              		.file 16 "./RM18A-ChibiOS18-Core/chibios/os/common/ports/ARMCMx/chcore_v7m.h"
 2317              		.file 17 "./RM18A-ChibiOS18-Core/chibios/os/hal/ports/STM32/LLD/TIMv1/stm32_tim.h"
 2318              		.file 18 "./RM18A-ChibiOS18-Core/chibios/os/rt/include/chtm.h"
 2319              		.file 19 "./RM18A-ChibiOS18-Core/chibios/os/rt/include/chsem.h"
 2320              		.file 20 "./RM18A-ChibiOS18-Core/chibios/os/rt/include/chmtx.h"
 2321              		.file 21 "./RM18A-ChibiOS18-Core/chibios/os/rt/include/chsys.h"
 2322              		.file 22 "./RM18A-ChibiOS18-Core/chibios/os/rt/include/chregistry.h"
 2323              		.file 23 "./RM18A-ChibiOS18-Core/chibios/os/rt/include/chevents.h"
 2324              		.file 24 "./RM18A-ChibiOS18-Core/chibios/os/oslib/include/chmemcore.h"
 2325              		.file 25 "./RM18A-ChibiOS18-Core/chibios/os/oslib/include/chmempools.h"
 2326              		.file 26 "./RM18A-ChibiOS18-Core/chibios/os/oslib/include/chfactory.h"
 2327              		.file 27 "./RM18A-ChibiOS18-Core/chibios/os/hal/ports/STM32/LLD/DMAv2/stm32_dma.h"
 2328              		.file 28 "./RM18A-ChibiOS18-Core/chibios/os/hal/include/hal_queues.h"
 2329              		.file 29 "./RM18A-ChibiOS18-Core/chibios/os/hal/include/hal_pal.h"
ARM GAS  /tmp/cc0NTUrZ.s 			page 42


 2330              		.file 30 "./RM18A-ChibiOS18-Core/chibios/os/hal/ports/STM32/LLD/GPIOv2/hal_pal_lld.h"
 2331              		.file 31 "./RM18A-ChibiOS18-Core/chibios/os/hal/include/hal_adc.h"
 2332              		.file 32 "./RM18A-ChibiOS18-Core/chibios/os/hal/ports/STM32/LLD/ADCv2/hal_adc_lld.h"
 2333              		.file 33 "./RM18A-ChibiOS18-Core/chibios/os/hal/include/hal_can.h"
 2334              		.file 34 "./RM18A-ChibiOS18-Core/chibios/os/hal/ports/STM32/LLD/CANv1/hal_can_lld.h"
 2335              		.file 35 "./RM18A-ChibiOS18-Core/chibios/os/hal/include/hal_icu.h"
 2336              		.file 36 "./RM18A-ChibiOS18-Core/chibios/os/hal/ports/STM32/LLD/TIMv1/hal_icu_lld.h"
 2337              		.file 37 "./RM18A-ChibiOS18-Core/chibios/os/hal/include/hal_pwm.h"
 2338              		.file 38 "./RM18A-ChibiOS18-Core/chibios/os/hal/ports/STM32/LLD/TIMv1/hal_pwm_lld.h"
 2339              		.file 39 "./RM18A-ChibiOS18-Core/chibios/os/hal/include/hal_serial.h"
 2340              		.file 40 "./RM18A-ChibiOS18-Core/chibios/os/hal/ports/STM32/LLD/USARTv1/hal_serial_lld.h"
 2341              		.file 41 "./RM18A-ChibiOS18-Core/chibios/os/hal/include/hal_spi.h"
 2342              		.file 42 "./RM18A-ChibiOS18-Core/chibios/os/hal/ports/STM32/LLD/SPIv1/hal_spi_lld.h"
 2343              		.file 43 "./RM18A-ChibiOS18-Core/chibios/os/hal/include/hal_uart.h"
 2344              		.file 44 "./RM18A-ChibiOS18-Core/chibios/os/hal/ports/STM32/LLD/USARTv1/hal_uart_lld.h"
 2345              		.file 45 "./RM18A-ChibiOS18-Core/chibios/os/hal/include/hal_usb.h"
 2346              		.file 46 "./RM18A-ChibiOS18-Core/chibios/os/hal/ports/STM32/LLD/OTGv1/hal_usb_lld.h"
 2347              		.file 47 "./RM18A-ChibiOS18-Core/chibios/os/hal/ports/STM32/LLD/OTGv1/stm32_otg.h"
 2348              		.file 48 "./RM18A-ChibiOS18-Core/chibios/os/hal/ports/common/ARMCMx/nvic.h"