ARM GAS  /tmp/ccItri7s.s 			page 1


   1              		.cpu cortex-m4
   2              		.eabi_attribute 27, 1
   3              		.eabi_attribute 28, 1
   4              		.eabi_attribute 20, 1
   5              		.eabi_attribute 21, 1
   6              		.eabi_attribute 23, 3
   7              		.eabi_attribute 24, 1
   8              		.eabi_attribute 25, 1
   9              		.eabi_attribute 26, 1
  10              		.eabi_attribute 30, 2
  11              		.eabi_attribute 34, 1
  12              		.eabi_attribute 18, 4
  13              		.file	"hal_buffers.c"
  14              		.text
  15              	.Ltext0:
  16              		.cfi_sections	.debug_frame
  17              		.section	.text.ibqObjectInit,"ax",%progbits
  18              		.align	1
  19              		.p2align 2,,3
  20              		.global	ibqObjectInit
  21              		.syntax unified
  22              		.thumb
  23              		.thumb_func
  24              		.fpu fpv4-sp-d16
  25              		.type	ibqObjectInit, %function
  26              	ibqObjectInit:
  27              	.LFB327:
  28              		.file 1 "./RM18A-ChibiOS18-Core/chibios/os/hal/src/hal_buffers.c"
  29              		.loc 1 77 0
  30              		.cfi_startproc
  31              		@ args = 12, pretend = 0, frame = 0
  32              		@ frame_needed = 0, uses_anonymous_args = 0
  33              		@ link register save eliminated.
  34              	.LVL0:
  35 0000 70B4     		push	{r4, r5, r6}
  36              		.cfi_def_cfa_offset 12
  37              		.cfi_offset 4, -12
  38              		.cfi_offset 5, -8
  39              		.cfi_offset 6, -4
  40              		.loc 1 77 0
  41 0002 DDE90354 		ldrd	r5, r4, [sp, #12]
  42              		.loc 1 86 0
  43 0006 0433     		adds	r3, r3, #4
  44              	.LVL1:
  45              		.loc 1 82 0
  46 0008 0172     		strb	r1, [r0, #8]
  47              		.loc 1 77 0
  48 000a 0599     		ldr	r1, [sp, #20]
  49              	.LVL2:
  50              		.loc 1 87 0
  51 000c C361     		str	r3, [r0, #28]
  52              		.loc 1 86 0
  53 000e 05FB0326 		mla	r6, r5, r3, r2
  54              		.loc 1 83 0
  55 0012 0023     		movs	r3, #0
  56              	.LVL3:
  57              		.loc 1 86 0
ARM GAS  /tmp/ccItri7s.s 			page 2


  58 0014 8661     		str	r6, [r0, #24]
  59              		.loc 1 88 0
  60 0016 0562     		str	r5, [r0, #32]
  61              		.loc 1 93 0
  62 0018 C0E90C41 		strd	r4, r1, [r0, #48]
  63              	.LBB236:
  64              	.LBB237:
  65              	.LBB238:
  66              	.LBB239:
  67              		.file 2 "./RM18A-ChibiOS18-Core/chibios/os/rt/include/chschd.h"
  68              		.loc 2 540 0
  69 001c C0E90000 		strd	r0, r0, [r0]
  70              	.LVL4:
  71              	.LBE239:
  72              	.LBE238:
  73              	.LBE237:
  74              	.LBE236:
  75              		.loc 1 85 0
  76 0020 C0E90422 		strd	r2, r2, [r0, #16]
  77              		.loc 1 89 0
  78 0024 4262     		str	r2, [r0, #36]
  79              		.loc 1 83 0
  80 0026 C360     		str	r3, [r0, #12]
  81              		.loc 1 91 0
  82 0028 C0E90A33 		strd	r3, r3, [r0, #40]
  83              		.loc 1 94 0
  84 002c 70BC     		pop	{r4, r5, r6}
  85              		.cfi_restore 6
  86              		.cfi_restore 5
  87              		.cfi_restore 4
  88              		.cfi_def_cfa_offset 0
  89              	.LVL5:
  90 002e 7047     		bx	lr
  91              		.cfi_endproc
  92              	.LFE327:
  93              		.size	ibqObjectInit, .-ibqObjectInit
  94              		.section	.text.ibqResetI,"ax",%progbits
  95              		.align	1
  96              		.p2align 2,,3
  97              		.global	ibqResetI
  98              		.syntax unified
  99              		.thumb
 100              		.thumb_func
 101              		.fpu fpv4-sp-d16
 102              		.type	ibqResetI, %function
 103              	ibqResetI:
 104              	.LFB328:
 105              		.loc 1 107 0
 106              		.cfi_startproc
 107              		@ args = 0, pretend = 0, frame = 0
 108              		@ frame_needed = 0, uses_anonymous_args = 0
 109              		@ link register save eliminated.
 110              	.LVL6:
 111              		.loc 1 112 0
 112 0000 416A     		ldr	r1, [r0, #36]
 113              		.loc 1 111 0
 114 0002 0022     		movs	r2, #0
ARM GAS  /tmp/ccItri7s.s 			page 3


 115              		.loc 1 113 0
 116 0004 C0E90411 		strd	r1, r1, [r0, #16]
 117              		.loc 1 111 0
 118 0008 C260     		str	r2, [r0, #12]
 119              		.loc 1 115 0
 120 000a C0E90A22 		strd	r2, r2, [r0, #40]
 121              	.LVL7:
 122              	.LBB240:
 123              	.LBB241:
 124              		.file 3 "./RM18A-ChibiOS18-Core/chibios/os/hal/osal/rt/osal.h"
 125              		.loc 3 857 0
 126 000e 6FF00101 		mvn	r1, #1
 127 0012 FFF7FEBF 		b	chThdDequeueAllI
 128              	.LVL8:
 129              	.LBE241:
 130              	.LBE240:
 131              		.cfi_endproc
 132              	.LFE328:
 133              		.size	ibqResetI, .-ibqResetI
 134 0016 00BF     		.section	.text.ibqGetEmptyBufferI,"ax",%progbits
 135              		.align	1
 136              		.p2align 2,,3
 137              		.global	ibqGetEmptyBufferI
 138              		.syntax unified
 139              		.thumb
 140              		.thumb_func
 141              		.fpu fpv4-sp-d16
 142              		.type	ibqGetEmptyBufferI, %function
 143              	ibqGetEmptyBufferI:
 144              	.LFB329:
 145              		.loc 1 129 0
 146              		.cfi_startproc
 147              		@ args = 0, pretend = 0, frame = 0
 148              		@ frame_needed = 0, uses_anonymous_args = 0
 149              		@ link register save eliminated.
 150              	.LVL9:
 151              		.loc 1 133 0
 152 0000 D0E90432 		ldrd	r3, r2, [r0, #16]
 153 0004 9342     		cmp	r3, r2
 154 0006 01D0     		beq	.L11
 155              	.L6:
 156              		.loc 1 137 0
 157 0008 181D     		adds	r0, r3, #4
 158              	.LVL10:
 159              		.loc 1 138 0
 160 000a 7047     		bx	lr
 161              	.LVL11:
 162              	.L11:
 163              		.loc 1 133 0 discriminator 1
 164 000c C268     		ldr	r2, [r0, #12]
 165 000e 002A     		cmp	r2, #0
 166 0010 FAD0     		beq	.L6
 167              		.loc 1 134 0
 168 0012 0020     		movs	r0, #0
 169              	.LVL12:
 170 0014 7047     		bx	lr
 171              		.cfi_endproc
ARM GAS  /tmp/ccItri7s.s 			page 4


 172              	.LFE329:
 173              		.size	ibqGetEmptyBufferI, .-ibqGetEmptyBufferI
 174 0016 00BF     		.section	.text.ibqPostFullBufferI,"ax",%progbits
 175              		.align	1
 176              		.p2align 2,,3
 177              		.global	ibqPostFullBufferI
 178              		.syntax unified
 179              		.thumb
 180              		.thumb_func
 181              		.fpu fpv4-sp-d16
 182              		.type	ibqPostFullBufferI, %function
 183              	ibqPostFullBufferI:
 184              	.LFB330:
 185              		.loc 1 148 0
 186              		.cfi_startproc
 187              		@ args = 0, pretend = 0, frame = 0
 188              		@ frame_needed = 0, uses_anonymous_args = 0
 189              		@ link register save eliminated.
 190              	.LVL13:
 191              		.loc 1 156 0
 192 0000 0369     		ldr	r3, [r0, #16]
 193              		.loc 1 148 0
 194 0002 10B4     		push	{r4}
 195              		.cfi_def_cfa_offset 4
 196              		.cfi_offset 4, -4
 197              		.loc 1 161 0
 198 0004 8469     		ldr	r4, [r0, #24]
 199              		.loc 1 156 0
 200 0006 1960     		str	r1, [r3]
 201              		.loc 1 160 0
 202 0008 C169     		ldr	r1, [r0, #28]
 203              	.LVL14:
 204              		.loc 1 159 0
 205 000a C268     		ldr	r2, [r0, #12]
 206              		.loc 1 160 0
 207 000c 0B44     		add	r3, r3, r1
 208              	.LVL15:
 209              		.loc 1 161 0
 210 000e A342     		cmp	r3, r4
 211              		.loc 1 160 0
 212 0010 0361     		str	r3, [r0, #16]
 213              	.LVL16:
 214              		.loc 1 159 0
 215 0012 02F10102 		add	r2, r2, #1
 216              		.loc 1 162 0
 217 0016 28BF     		it	cs
 218 0018 436A     		ldrcs	r3, [r0, #36]
 219              		.loc 1 159 0
 220 001a C260     		str	r2, [r0, #12]
 221              		.loc 1 162 0
 222 001c 28BF     		it	cs
 223 001e 0361     		strcs	r3, [r0, #16]
 224              	.LVL17:
 225              	.LBB242:
 226              	.LBB243:
 227              		.loc 3 844 0
 228 0020 0021     		movs	r1, #0
ARM GAS  /tmp/ccItri7s.s 			page 5


 229              	.LBE243:
 230              	.LBE242:
 231              		.loc 1 167 0
 232 0022 5DF8044B 		ldr	r4, [sp], #4
 233              		.cfi_restore 4
 234              		.cfi_def_cfa_offset 0
 235              	.LBB245:
 236              	.LBB244:
 237              		.loc 3 844 0
 238 0026 FFF7FEBF 		b	chThdDequeueNextI
 239              	.LVL18:
 240              	.LBE244:
 241              	.LBE245:
 242              		.cfi_endproc
 243              	.LFE330:
 244              		.size	ibqPostFullBufferI, .-ibqPostFullBufferI
 245 002a 00BF     		.section	.text.ibqGetFullBufferTimeout,"ax",%progbits
 246              		.align	1
 247              		.p2align 2,,3
 248              		.global	ibqGetFullBufferTimeout
 249              		.syntax unified
 250              		.thumb
 251              		.thumb_func
 252              		.fpu fpv4-sp-d16
 253              		.type	ibqGetFullBufferTimeout, %function
 254              	ibqGetFullBufferTimeout:
 255              	.LFB331:
 256              		.loc 1 191 0
 257              		.cfi_startproc
 258              		@ args = 0, pretend = 0, frame = 0
 259              		@ frame_needed = 0, uses_anonymous_args = 0
 260              	.LVL19:
 261 0000 38B5     		push	{r3, r4, r5, lr}
 262              		.cfi_def_cfa_offset 16
 263              		.cfi_offset 3, -16
 264              		.cfi_offset 4, -12
 265              		.cfi_offset 5, -8
 266              		.cfi_offset 14, -4
 267              		.loc 1 191 0
 268 0002 0446     		mov	r4, r0
 269              	.LVL20:
 270 0004 0D46     		mov	r5, r1
 271              	.LBB267:
 272              	.LBB268:
 273              	.LBB269:
 274              	.LBB270:
 275              	.LBB271:
 276              		.file 4 "./RM18A-ChibiOS18-Core/chibios/os/common/ext/ARM/CMSIS/Core/Include/cmsis_gcc.h"
 277              		.loc 4 493 0
 278 0006 2023     		movs	r3, #32
 279              		.syntax unified
 280              	@ 493 "./RM18A-ChibiOS18-Core/chibios/os/common/ext/ARM/CMSIS/Core/Include/cmsis_gcc.h" 1
 281 0008 83F31188 		MSR basepri, r3
 282              	@ 0 "" 2
 283              	.LVL21:
 284              		.thumb
 285              		.syntax unified
ARM GAS  /tmp/ccItri7s.s 			page 6


 286 000c 05E0     		b	.L16
 287              	.LVL22:
 288              	.L18:
 289              	.LBE271:
 290              	.LBE270:
 291              	.LBE269:
 292              	.LBE268:
 293              	.LBE267:
 294              	.LBB272:
 295              	.LBB273:
 296              	.LBB274:
 297              		.loc 1 228 0
 298 000e 237A     		ldrb	r3, [r4, #8]	@ zero_extendqisi2
 299 0010 9BB9     		cbnz	r3, .L19
 300              	.LBB275:
 301              	.LBB276:
 302              		.loc 3 831 0
 303 0012 FFF7FEFF 		bl	chThdEnqueueTimeoutS
 304              	.LVL23:
 305              	.LBE276:
 306              	.LBE275:
 307              		.loc 1 232 0
 308 0016 0028     		cmp	r0, #0
 309 0018 0BDB     		blt	.L17
 310              	.L16:
 311              	.LVL24:
 312              	.LBE274:
 313              		.loc 1 227 0
 314 001a E368     		ldr	r3, [r4, #12]
 315              	.LBB279:
 316              	.LBB278:
 317              	.LBB277:
 318              		.loc 3 831 0
 319 001c 2946     		mov	r1, r5
 320 001e 2046     		mov	r0, r4
 321              	.LBE277:
 322              	.LBE278:
 323              	.LBE279:
 324              		.loc 1 227 0
 325 0020 002B     		cmp	r3, #0
 326 0022 F4D0     		beq	.L18
 327              	.LVL25:
 328              	.LBB280:
 329              	.LBB281:
 330              		.loc 1 240 0
 331 0024 6369     		ldr	r3, [r4, #20]
 332              		.loc 1 241 0
 333 0026 1A68     		ldr	r2, [r3]
 334              		.loc 1 240 0
 335 0028 0433     		adds	r3, r3, #4
 336              		.loc 1 241 0
 337 002a 1A44     		add	r2, r2, r3
 338              		.loc 1 240 0
 339 002c C4E90A32 		strd	r3, r2, [r4, #40]
 340              		.loc 1 241 0
 341 0030 0020     		movs	r0, #0
 342              	.LVL26:
ARM GAS  /tmp/ccItri7s.s 			page 7


 343              	.L17:
 344              	.LBE281:
 345              	.LBE280:
 346              	.LBE273:
 347              	.LBE272:
 348              	.LBB284:
 349              	.LBB285:
 350              	.LBB286:
 351              	.LBB287:
 352              	.LBB288:
 353              	.LBB289:
 354              		.loc 4 493 0
 355 0032 0023     		movs	r3, #0
 356              		.syntax unified
 357              	@ 493 "./RM18A-ChibiOS18-Core/chibios/os/common/ext/ARM/CMSIS/Core/Include/cmsis_gcc.h" 1
 358 0034 83F31188 		MSR basepri, r3
 359              	@ 0 "" 2
 360              	.LVL27:
 361              		.thumb
 362              		.syntax unified
 363              	.LBE289:
 364              	.LBE288:
 365              	.LBE287:
 366              	.LBE286:
 367              	.LBE285:
 368              	.LBE284:
 369              		.loc 1 199 0
 370 0038 38BD     		pop	{r3, r4, r5, pc}
 371              	.LVL28:
 372              	.L19:
 373              	.LBB295:
 374              	.LBB283:
 375              	.LBB282:
 376              		.loc 1 229 0
 377 003a 6FF00100 		mvn	r0, #1
 378              	.LVL29:
 379              	.LBE282:
 380              	.LBE283:
 381              	.LBE295:
 382              	.LBB296:
 383              	.LBB294:
 384              	.LBB293:
 385              	.LBB292:
 386              	.LBB291:
 387              	.LBB290:
 388              		.loc 4 493 0
 389 003e 0023     		movs	r3, #0
 390              		.syntax unified
 391              	@ 493 "./RM18A-ChibiOS18-Core/chibios/os/common/ext/ARM/CMSIS/Core/Include/cmsis_gcc.h" 1
 392 0040 83F31188 		MSR basepri, r3
 393              	@ 0 "" 2
 394              	.LVL30:
 395              		.thumb
 396              		.syntax unified
 397              	.LBE290:
 398              	.LBE291:
 399              	.LBE292:
ARM GAS  /tmp/ccItri7s.s 			page 8


 400              	.LBE293:
 401              	.LBE294:
 402              	.LBE296:
 403              		.loc 1 199 0
 404 0044 38BD     		pop	{r3, r4, r5, pc}
 405              		.cfi_endproc
 406              	.LFE331:
 407              		.size	ibqGetFullBufferTimeout, .-ibqGetFullBufferTimeout
 408 0046 00BF     		.section	.text.ibqGetFullBufferTimeoutS,"ax",%progbits
 409              		.align	1
 410              		.p2align 2,,3
 411              		.global	ibqGetFullBufferTimeoutS
 412              		.syntax unified
 413              		.thumb
 414              		.thumb_func
 415              		.fpu fpv4-sp-d16
 416              		.type	ibqGetFullBufferTimeoutS, %function
 417              	ibqGetFullBufferTimeoutS:
 418              	.LFB332:
 419              		.loc 1 223 0
 420              		.cfi_startproc
 421              		@ args = 0, pretend = 0, frame = 0
 422              		@ frame_needed = 0, uses_anonymous_args = 0
 423              	.LVL31:
 424 0000 38B5     		push	{r3, r4, r5, lr}
 425              		.cfi_def_cfa_offset 16
 426              		.cfi_offset 3, -16
 427              		.cfi_offset 4, -12
 428              		.cfi_offset 5, -8
 429              		.cfi_offset 14, -4
 430              		.loc 1 223 0
 431 0002 0446     		mov	r4, r0
 432 0004 0D46     		mov	r5, r1
 433              		.loc 1 227 0
 434 0006 05E0     		b	.L22
 435              	.LVL32:
 436              	.L24:
 437              	.LBB308:
 438              		.loc 1 228 0
 439 0008 237A     		ldrb	r3, [r4, #8]	@ zero_extendqisi2
 440 000a 83B9     		cbnz	r3, .L25
 441              	.LBB309:
 442              	.LBB310:
 443              		.loc 3 831 0
 444 000c FFF7FEFF 		bl	chThdEnqueueTimeoutS
 445              	.LVL33:
 446              	.LBE310:
 447              	.LBE309:
 448              		.loc 1 232 0
 449 0010 0028     		cmp	r0, #0
 450 0012 0BDB     		blt	.L21
 451              	.L22:
 452              	.LVL34:
 453              	.LBE308:
 454              		.loc 1 227 0
 455 0014 E368     		ldr	r3, [r4, #12]
 456              	.LBB313:
ARM GAS  /tmp/ccItri7s.s 			page 9


 457              	.LBB312:
 458              	.LBB311:
 459              		.loc 3 831 0
 460 0016 2946     		mov	r1, r5
 461 0018 2046     		mov	r0, r4
 462              	.LBE311:
 463              	.LBE312:
 464              	.LBE313:
 465              		.loc 1 227 0
 466 001a 002B     		cmp	r3, #0
 467 001c F4D0     		beq	.L24
 468              	.LVL35:
 469              	.LBB314:
 470              	.LBB315:
 471              		.loc 1 240 0
 472 001e 6369     		ldr	r3, [r4, #20]
 473              		.loc 1 241 0
 474 0020 1A68     		ldr	r2, [r3]
 475              		.loc 1 240 0
 476 0022 0433     		adds	r3, r3, #4
 477              		.loc 1 241 0
 478 0024 1A44     		add	r2, r2, r3
 479              		.loc 1 240 0
 480 0026 C4E90A32 		strd	r3, r2, [r4, #40]
 481              		.loc 1 241 0
 482 002a 0020     		movs	r0, #0
 483              	.LVL36:
 484              	.L21:
 485              	.LBE315:
 486              	.LBE314:
 487              		.loc 1 244 0
 488 002c 38BD     		pop	{r3, r4, r5, pc}
 489              	.LVL37:
 490              	.L25:
 491              	.LBB316:
 492              		.loc 1 229 0
 493 002e 6FF00100 		mvn	r0, #1
 494              	.LVL38:
 495              	.LBE316:
 496              		.loc 1 244 0
 497 0032 38BD     		pop	{r3, r4, r5, pc}
 498              		.cfi_endproc
 499              	.LFE332:
 500              		.size	ibqGetFullBufferTimeoutS, .-ibqGetFullBufferTimeoutS
 501              		.section	.text.ibqReleaseEmptyBuffer,"ax",%progbits
 502              		.align	1
 503              		.p2align 2,,3
 504              		.global	ibqReleaseEmptyBuffer
 505              		.syntax unified
 506              		.thumb
 507              		.thumb_func
 508              		.fpu fpv4-sp-d16
 509              		.type	ibqReleaseEmptyBuffer, %function
 510              	ibqReleaseEmptyBuffer:
 511              	.LFB333:
 512              		.loc 1 254 0
 513              		.cfi_startproc
ARM GAS  /tmp/ccItri7s.s 			page 10


 514              		@ args = 0, pretend = 0, frame = 0
 515              		@ frame_needed = 0, uses_anonymous_args = 0
 516              	.LVL39:
 517 0000 10B5     		push	{r4, lr}
 518              		.cfi_def_cfa_offset 8
 519              		.cfi_offset 4, -8
 520              		.cfi_offset 14, -4
 521              	.LBB317:
 522              	.LBB318:
 523              	.LBB319:
 524              	.LBB320:
 525              	.LBB321:
 526              		.loc 4 493 0
 527 0002 2023     		movs	r3, #32
 528              		.syntax unified
 529              	@ 493 "./RM18A-ChibiOS18-Core/chibios/os/common/ext/ARM/CMSIS/Core/Include/cmsis_gcc.h" 1
 530 0004 83F31188 		MSR basepri, r3
 531              	@ 0 "" 2
 532              	.LVL40:
 533              		.thumb
 534              		.syntax unified
 535              	.LBE321:
 536              	.LBE320:
 537              	.LBE319:
 538              	.LBE318:
 539              	.LBE317:
 540              	.LBB322:
 541              	.LBB323:
 542              		.loc 1 277 0
 543 0008 D0E90614 		ldrd	r1, r4, [r0, #24]
 544              		.loc 1 276 0
 545 000c 4369     		ldr	r3, [r0, #20]
 546              		.loc 1 275 0
 547 000e C268     		ldr	r2, [r0, #12]
 548              		.loc 1 276 0
 549 0010 2344     		add	r3, r3, r4
 550              		.loc 1 277 0
 551 0012 8B42     		cmp	r3, r1
 552              		.loc 1 276 0
 553 0014 4361     		str	r3, [r0, #20]
 554              		.loc 1 278 0
 555 0016 24BF     		itt	cs
 556 0018 436A     		ldrcs	r3, [r0, #36]
 557 001a 4361     		strcs	r3, [r0, #20]
 558              		.loc 1 275 0
 559 001c 013A     		subs	r2, r2, #1
 560              		.loc 1 285 0
 561 001e 036B     		ldr	r3, [r0, #48]
 562              		.loc 1 275 0
 563 0020 C260     		str	r2, [r0, #12]
 564              		.loc 1 282 0
 565 0022 0022     		movs	r2, #0
 566 0024 8262     		str	r2, [r0, #40]
 567              		.loc 1 285 0
 568 0026 03B1     		cbz	r3, .L29
 569              		.loc 1 286 0
 570 0028 9847     		blx	r3
ARM GAS  /tmp/ccItri7s.s 			page 11


 571              	.LVL41:
 572              	.L29:
 573              	.LBE323:
 574              	.LBE322:
 575              	.LBB324:
 576              	.LBB325:
 577              	.LBB326:
 578              	.LBB327:
 579              	.LBB328:
 580              	.LBB329:
 581              		.loc 4 493 0
 582 002a 0023     		movs	r3, #0
 583              		.syntax unified
 584              	@ 493 "./RM18A-ChibiOS18-Core/chibios/os/common/ext/ARM/CMSIS/Core/Include/cmsis_gcc.h" 1
 585 002c 83F31188 		MSR basepri, r3
 586              	@ 0 "" 2
 587              	.LVL42:
 588              		.thumb
 589              		.syntax unified
 590              	.LBE329:
 591              	.LBE328:
 592              	.LBE327:
 593              	.LBE326:
 594              	.LBE325:
 595              	.LBE324:
 596              		.loc 1 259 0
 597 0030 10BD     		pop	{r4, pc}
 598              		.cfi_endproc
 599              	.LFE333:
 600              		.size	ibqReleaseEmptyBuffer, .-ibqReleaseEmptyBuffer
 601 0032 00BF     		.section	.text.ibqReleaseEmptyBufferS,"ax",%progbits
 602              		.align	1
 603              		.p2align 2,,3
 604              		.global	ibqReleaseEmptyBufferS
 605              		.syntax unified
 606              		.thumb
 607              		.thumb_func
 608              		.fpu fpv4-sp-d16
 609              		.type	ibqReleaseEmptyBufferS, %function
 610              	ibqReleaseEmptyBufferS:
 611              	.LFB334:
 612              		.loc 1 269 0
 613              		.cfi_startproc
 614              		@ args = 0, pretend = 0, frame = 0
 615              		@ frame_needed = 0, uses_anonymous_args = 0
 616              		@ link register save eliminated.
 617              	.LVL43:
 618 0000 10B4     		push	{r4}
 619              		.cfi_def_cfa_offset 4
 620              		.cfi_offset 4, -4
 621              		.loc 1 277 0
 622 0002 D0E90614 		ldrd	r1, r4, [r0, #24]
 623              		.loc 1 276 0
 624 0006 4369     		ldr	r3, [r0, #20]
 625              		.loc 1 275 0
 626 0008 C268     		ldr	r2, [r0, #12]
 627              		.loc 1 276 0
ARM GAS  /tmp/ccItri7s.s 			page 12


 628 000a 2344     		add	r3, r3, r4
 629              		.loc 1 277 0
 630 000c 8B42     		cmp	r3, r1
 631              		.loc 1 276 0
 632 000e 4361     		str	r3, [r0, #20]
 633              		.loc 1 278 0
 634 0010 24BF     		itt	cs
 635 0012 436A     		ldrcs	r3, [r0, #36]
 636 0014 4361     		strcs	r3, [r0, #20]
 637              		.loc 1 275 0
 638 0016 013A     		subs	r2, r2, #1
 639              		.loc 1 285 0
 640 0018 036B     		ldr	r3, [r0, #48]
 641              		.loc 1 275 0
 642 001a C260     		str	r2, [r0, #12]
 643              		.loc 1 282 0
 644 001c 0022     		movs	r2, #0
 645 001e 8262     		str	r2, [r0, #40]
 646              		.loc 1 285 0
 647 0020 13B1     		cbz	r3, .L34
 648              		.loc 1 288 0
 649 0022 5DF8044B 		ldr	r4, [sp], #4
 650              		.cfi_remember_state
 651              		.cfi_restore 4
 652              		.cfi_def_cfa_offset 0
 653              		.loc 1 286 0
 654 0026 1847     		bx	r3	@ indirect register sibling call
 655              	.LVL44:
 656              	.L34:
 657              		.cfi_restore_state
 658              		.loc 1 288 0
 659 0028 5DF8044B 		ldr	r4, [sp], #4
 660              		.cfi_restore 4
 661              		.cfi_def_cfa_offset 0
 662 002c 7047     		bx	lr
 663              		.cfi_endproc
 664              	.LFE334:
 665              		.size	ibqReleaseEmptyBufferS, .-ibqReleaseEmptyBufferS
 666 002e 00BF     		.section	.text.ibqGetTimeout,"ax",%progbits
 667              		.align	1
 668              		.p2align 2,,3
 669              		.global	ibqGetTimeout
 670              		.syntax unified
 671              		.thumb
 672              		.thumb_func
 673              		.fpu fpv4-sp-d16
 674              		.type	ibqGetTimeout, %function
 675              	ibqGetTimeout:
 676              	.LFB335:
 677              		.loc 1 309 0
 678              		.cfi_startproc
 679              		@ args = 0, pretend = 0, frame = 0
 680              		@ frame_needed = 0, uses_anonymous_args = 0
 681              	.LVL45:
 682 0000 70B5     		push	{r4, r5, r6, lr}
 683              		.cfi_def_cfa_offset 16
 684              		.cfi_offset 4, -16
ARM GAS  /tmp/ccItri7s.s 			page 13


 685              		.cfi_offset 5, -12
 686              		.cfi_offset 6, -8
 687              		.cfi_offset 14, -4
 688              	.LBB359:
 689              	.LBB360:
 690              	.LBB361:
 691              	.LBB362:
 692              	.LBB363:
 693              		.loc 4 493 0
 694 0002 2023     		movs	r3, #32
 695              	.LBE363:
 696              	.LBE362:
 697              	.LBE361:
 698              	.LBE360:
 699              	.LBE359:
 700              		.loc 1 309 0
 701 0004 0446     		mov	r4, r0
 702              	.LVL46:
 703              	.LBB368:
 704              	.LBB367:
 705              	.LBB366:
 706              	.LBB365:
 707              	.LBB364:
 708              		.loc 4 493 0
 709              		.syntax unified
 710              	@ 493 "./RM18A-ChibiOS18-Core/chibios/os/common/ext/ARM/CMSIS/Core/Include/cmsis_gcc.h" 1
 711 0006 83F31188 		MSR basepri, r3
 712              	@ 0 "" 2
 713              	.LVL47:
 714              		.thumb
 715              		.syntax unified
 716              	.LBE364:
 717              	.LBE365:
 718              	.LBE366:
 719              	.LBE367:
 720              	.LBE368:
 721              		.loc 1 315 0
 722 000a 836A     		ldr	r3, [r0, #40]
 723 000c E3B1     		cbz	r3, .L54
 724 000e C26A     		ldr	r2, [r0, #44]
 725              	.L40:
 726              		.loc 1 324 0
 727 0010 13F8015B 		ldrb	r5, [r3], #1	@ zero_extendqisi2
 728              	.LVL48:
 729              		.loc 1 325 0
 730 0014 A362     		str	r3, [r4, #40]
 731              		.loc 1 329 0
 732 0016 9342     		cmp	r3, r2
 733 0018 11D3     		bcc	.L41
 734              	.LVL49:
 735              	.LBB369:
 736              	.LBB370:
 737              		.loc 1 277 0
 738 001a D4E90610 		ldrd	r1, r0, [r4, #24]
 739              	.LVL50:
 740              		.loc 1 276 0
 741 001e 6369     		ldr	r3, [r4, #20]
ARM GAS  /tmp/ccItri7s.s 			page 14


 742              		.loc 1 275 0
 743 0020 E268     		ldr	r2, [r4, #12]
 744              		.loc 1 276 0
 745 0022 0344     		add	r3, r3, r0
 746              		.loc 1 277 0
 747 0024 8B42     		cmp	r3, r1
 748              		.loc 1 276 0
 749 0026 6361     		str	r3, [r4, #20]
 750              		.loc 1 278 0
 751 0028 24BF     		itt	cs
 752 002a 636A     		ldrcs	r3, [r4, #36]
 753 002c 6361     		strcs	r3, [r4, #20]
 754              		.loc 1 275 0
 755 002e 013A     		subs	r2, r2, #1
 756              		.loc 1 285 0
 757 0030 236B     		ldr	r3, [r4, #48]
 758              		.loc 1 275 0
 759 0032 E260     		str	r2, [r4, #12]
 760              		.loc 1 282 0
 761 0034 0022     		movs	r2, #0
 762 0036 A262     		str	r2, [r4, #40]
 763              		.loc 1 285 0
 764 0038 0BB1     		cbz	r3, .L41
 765              		.loc 1 286 0
 766 003a 2046     		mov	r0, r4
 767 003c 9847     		blx	r3
 768              	.LVL51:
 769              	.L41:
 770              	.LBE370:
 771              	.LBE369:
 772              	.LBB371:
 773              	.LBB372:
 774              	.LBB373:
 775              	.LBB374:
 776              	.LBB375:
 777              	.LBB376:
 778              		.loc 4 493 0
 779 003e 0023     		movs	r3, #0
 780              		.syntax unified
 781              	@ 493 "./RM18A-ChibiOS18-Core/chibios/os/common/ext/ARM/CMSIS/Core/Include/cmsis_gcc.h" 1
 782 0040 83F31188 		MSR basepri, r3
 783              	@ 0 "" 2
 784              	.LVL52:
 785              		.thumb
 786              		.syntax unified
 787              	.LBE376:
 788              	.LBE375:
 789              	.LBE374:
 790              	.LBE373:
 791              	.LBE372:
 792              	.LBE371:
 793              		.loc 1 335 0
 794 0044 2846     		mov	r0, r5
 795 0046 70BD     		pop	{r4, r5, r6, pc}
 796              	.LVL53:
 797              	.L54:
 798 0048 0E46     		mov	r6, r1
ARM GAS  /tmp/ccItri7s.s 			page 15


 799 004a 05E0     		b	.L39
 800              	.LVL54:
 801              	.L42:
 802              	.LBB377:
 803              	.LBB378:
 804              	.LBB379:
 805              		.loc 1 228 0
 806 004c 237A     		ldrb	r3, [r4, #8]	@ zero_extendqisi2
 807 004e 7BB9     		cbnz	r3, .L48
 808              	.LBB380:
 809              	.LBB381:
 810              		.loc 3 831 0
 811 0050 FFF7FEFF 		bl	chThdEnqueueTimeoutS
 812              	.LVL55:
 813              	.LBE381:
 814              	.LBE380:
 815              		.loc 1 232 0
 816 0054 051E     		subs	r5, r0, #0
 817 0056 F2DB     		blt	.L41
 818              	.L39:
 819              	.LVL56:
 820              	.LBE379:
 821              		.loc 1 227 0
 822 0058 E368     		ldr	r3, [r4, #12]
 823              	.LBB384:
 824              	.LBB383:
 825              	.LBB382:
 826              		.loc 3 831 0
 827 005a 3146     		mov	r1, r6
 828 005c 2046     		mov	r0, r4
 829              	.LBE382:
 830              	.LBE383:
 831              	.LBE384:
 832              		.loc 1 227 0
 833 005e 002B     		cmp	r3, #0
 834 0060 F4D0     		beq	.L42
 835              	.LVL57:
 836              	.LBB385:
 837              	.LBB386:
 838              		.loc 1 240 0
 839 0062 6369     		ldr	r3, [r4, #20]
 840              		.loc 1 241 0
 841 0064 1A68     		ldr	r2, [r3]
 842              		.loc 1 240 0
 843 0066 0433     		adds	r3, r3, #4
 844              		.loc 1 241 0
 845 0068 1A44     		add	r2, r2, r3
 846              		.loc 1 240 0
 847 006a C4E90A32 		strd	r3, r2, [r4, #40]
 848 006e CFE7     		b	.L40
 849              	.LVL58:
 850              	.L48:
 851              	.LBE386:
 852              	.LBE385:
 853              	.LBB387:
 854              		.loc 1 229 0
 855 0070 6FF00105 		mvn	r5, #1
ARM GAS  /tmp/ccItri7s.s 			page 16


 856 0074 E3E7     		b	.L41
 857              	.LBE387:
 858              	.LBE378:
 859              	.LBE377:
 860              		.cfi_endproc
 861              	.LFE335:
 862              		.size	ibqGetTimeout, .-ibqGetTimeout
 863 0076 00BF     		.section	.text.ibqReadTimeout,"ax",%progbits
 864              		.align	1
 865              		.p2align 2,,3
 866              		.global	ibqReadTimeout
 867              		.syntax unified
 868              		.thumb
 869              		.thumb_func
 870              		.fpu fpv4-sp-d16
 871              		.type	ibqReadTimeout, %function
 872              	ibqReadTimeout:
 873              	.LFB336:
 874              		.loc 1 359 0
 875              		.cfi_startproc
 876              		@ args = 0, pretend = 0, frame = 0
 877              		@ frame_needed = 0, uses_anonymous_args = 0
 878              	.LVL59:
 879 0000 2DE9F84F 		push	{r3, r4, r5, r6, r7, r8, r9, r10, fp, lr}
 880              		.cfi_def_cfa_offset 40
 881              		.cfi_offset 3, -40
 882              		.cfi_offset 4, -36
 883              		.cfi_offset 5, -32
 884              		.cfi_offset 6, -28
 885              		.cfi_offset 7, -24
 886              		.cfi_offset 8, -20
 887              		.cfi_offset 9, -16
 888              		.cfi_offset 10, -12
 889              		.cfi_offset 11, -8
 890              		.cfi_offset 14, -4
 891              		.loc 1 359 0
 892 0004 0446     		mov	r4, r0
 893 0006 0E46     		mov	r6, r1
 894 0008 1746     		mov	r7, r2
 895 000a 9946     		mov	r9, r3
 896              	.LBB424:
 897              	.LBB425:
 898              	.LBB426:
 899              	.LBB427:
 900              	.LBB428:
 901              		.loc 4 493 0
 902 000c 4FF0200A 		mov	r10, #32
 903              		.syntax unified
 904              	@ 493 "./RM18A-ChibiOS18-Core/chibios/os/common/ext/ARM/CMSIS/Core/Include/cmsis_gcc.h" 1
 905 0010 8AF31188 		MSR basepri, r10
 906              	@ 0 "" 2
 907              	.LVL60:
 908              		.thumb
 909              		.syntax unified
 910              	.LBE428:
 911              	.LBE427:
 912              	.LBE426:
ARM GAS  /tmp/ccItri7s.s 			page 17


 913              	.LBE425:
 914              	.LBE424:
 915              		.loc 1 360 0
 916 0014 0025     		movs	r5, #0
 917              	.LBB429:
 918              	.LBB430:
 919              	.LBB431:
 920              		.loc 1 282 0
 921 0016 A846     		mov	r8, r5
 922              	.LVL61:
 923              	.L69:
 924              	.LBE431:
 925              	.LBE430:
 926              		.loc 1 370 0
 927 0018 A16A     		ldr	r1, [r4, #40]
 928 001a 0029     		cmp	r1, #0
 929 001c 46D0     		beq	.L57
 930 001e E36A     		ldr	r3, [r4, #44]
 931              	.L58:
 932              		.loc 1 385 0
 933 0020 A7EB050B 		sub	fp, r7, r5
 934              		.loc 1 384 0
 935 0024 5B1A     		subs	r3, r3, r1
 936              	.LVL62:
 937 0026 9B45     		cmp	fp, r3
 938 0028 28BF     		it	cs
 939 002a 9B46     		movcs	fp, r3
 940              	.LVL63:
 941              		.loc 1 391 0
 942 002c BBF1400F 		cmp	fp, #64
 943 0030 48D9     		bls	.L61
 944              		.loc 1 393 0
 945 0032 01F14002 		add	r2, r1, #64
 946 0036 3346     		mov	r3, r6
 947              	.LVL64:
 948              	.L62:
 949 0038 D1F800E0 		ldr	lr, [r1]	@ unaligned
 950 003c D1F804C0 		ldr	ip, [r1, #4]	@ unaligned
 951 0040 8868     		ldr	r0, [r1, #8]	@ unaligned
 952 0042 D1F80CB0 		ldr	fp, [r1, #12]	@ unaligned
 953 0046 C3F80CB0 		str	fp, [r3, #12]	@ unaligned
 954 004a 1031     		adds	r1, r1, #16
 955 004c 9142     		cmp	r1, r2
 956 004e C3F800E0 		str	lr, [r3]	@ unaligned
 957 0052 C3F804C0 		str	ip, [r3, #4]	@ unaligned
 958 0056 9860     		str	r0, [r3, #8]	@ unaligned
 959 0058 03F11003 		add	r3, r3, #16
 960 005c ECD1     		bne	.L62
 961              		.loc 1 395 0
 962 005e A36A     		ldr	r3, [r4, #40]
 963 0060 4033     		adds	r3, r3, #64
 964              		.loc 1 394 0
 965 0062 4036     		adds	r6, r6, #64
 966              	.LVL65:
 967              		.loc 1 396 0
 968 0064 4035     		adds	r5, r5, #64
 969              	.LVL66:
ARM GAS  /tmp/ccItri7s.s 			page 18


 970              		.loc 1 395 0
 971 0066 A362     		str	r3, [r4, #40]
 972              	.L63:
 973              		.loc 1 406 0
 974 0068 E26A     		ldr	r2, [r4, #44]
 975 006a 9A42     		cmp	r2, r3
 976 006c 11D8     		bhi	.L65
 977              	.LVL67:
 978              	.LBB433:
 979              	.LBB432:
 980              		.loc 1 277 0
 981 006e D4E90610 		ldrd	r1, r0, [r4, #24]
 982              		.loc 1 276 0
 983 0072 6369     		ldr	r3, [r4, #20]
 984              		.loc 1 275 0
 985 0074 E268     		ldr	r2, [r4, #12]
 986              		.loc 1 282 0
 987 0076 C4F82880 		str	r8, [r4, #40]
 988              		.loc 1 276 0
 989 007a 0344     		add	r3, r3, r0
 990              		.loc 1 277 0
 991 007c 8B42     		cmp	r3, r1
 992              		.loc 1 276 0
 993 007e 6361     		str	r3, [r4, #20]
 994              		.loc 1 278 0
 995 0080 24BF     		itt	cs
 996 0082 636A     		ldrcs	r3, [r4, #36]
 997 0084 6361     		strcs	r3, [r4, #20]
 998              		.loc 1 285 0
 999 0086 236B     		ldr	r3, [r4, #48]
 1000              		.loc 1 275 0
 1001 0088 013A     		subs	r2, r2, #1
 1002 008a E260     		str	r2, [r4, #12]
 1003              		.loc 1 285 0
 1004 008c 0BB1     		cbz	r3, .L65
 1005              		.loc 1 286 0
 1006 008e 2046     		mov	r0, r4
 1007 0090 9847     		blx	r3
 1008              	.LVL68:
 1009              	.L65:
 1010              	.LBE432:
 1011              	.LBE433:
 1012              	.LBB434:
 1013              	.LBB435:
 1014              	.LBB436:
 1015              	.LBB437:
 1016              	.LBB438:
 1017              	.LBB439:
 1018              		.loc 4 493 0
 1019              		.syntax unified
 1020              	@ 493 "./RM18A-ChibiOS18-Core/chibios/os/common/ext/ARM/CMSIS/Core/Include/cmsis_gcc.h" 1
 1021 0092 88F31188 		MSR basepri, r8
 1022              	@ 0 "" 2
 1023              	.LVL69:
 1024              		.thumb
 1025              		.syntax unified
 1026              	.LBE439:
ARM GAS  /tmp/ccItri7s.s 			page 19


 1027              	.LBE438:
 1028              	.LBE437:
 1029              	.LBE436:
 1030              	.LBE435:
 1031              	.LBE434:
 1032              		.loc 1 412 0
 1033 0096 BD42     		cmp	r5, r7
 1034 0098 21D2     		bcs	.L56
 1035              	.LVL70:
 1036              	.LBB440:
 1037              	.LBB441:
 1038              	.LBB442:
 1039              	.LBB443:
 1040              	.LBB444:
 1041              		.loc 4 493 0
 1042              		.syntax unified
 1043              	@ 493 "./RM18A-ChibiOS18-Core/chibios/os/common/ext/ARM/CMSIS/Core/Include/cmsis_gcc.h" 1
 1044 009a 8AF31188 		MSR basepri, r10
 1045              	@ 0 "" 2
 1046              	.LVL71:
 1047              		.thumb
 1048              		.syntax unified
 1049 009e BBE7     		b	.L69
 1050              	.LVL72:
 1051              	.L60:
 1052              	.LBE444:
 1053              	.LBE443:
 1054              	.LBE442:
 1055              	.LBE441:
 1056              	.LBE440:
 1057              	.LBB445:
 1058              	.LBB446:
 1059              	.LBB447:
 1060              	.LBB448:
 1061              		.loc 1 228 0
 1062 00a0 237A     		ldrb	r3, [r4, #8]	@ zero_extendqisi2
 1063 00a2 CBB9     		cbnz	r3, .L59
 1064              	.LBB449:
 1065              	.LBB450:
 1066              		.loc 3 831 0
 1067 00a4 FFF7FEFF 		bl	chThdEnqueueTimeoutS
 1068              	.LVL73:
 1069              	.LBE450:
 1070              	.LBE449:
 1071              		.loc 1 232 0
 1072 00a8 0028     		cmp	r0, #0
 1073 00aa 15DB     		blt	.L59
 1074              	.L57:
 1075              	.LVL74:
 1076              	.LBE448:
 1077              		.loc 1 227 0
 1078 00ac E368     		ldr	r3, [r4, #12]
 1079              	.LBB453:
 1080              	.LBB452:
 1081              	.LBB451:
 1082              		.loc 3 831 0
 1083 00ae 4946     		mov	r1, r9
ARM GAS  /tmp/ccItri7s.s 			page 20


 1084 00b0 2046     		mov	r0, r4
 1085              	.LBE451:
 1086              	.LBE452:
 1087              	.LBE453:
 1088              		.loc 1 227 0
 1089 00b2 002B     		cmp	r3, #0
 1090 00b4 F4D0     		beq	.L60
 1091              	.LVL75:
 1092              	.LBB454:
 1093              	.LBB455:
 1094              		.loc 1 240 0
 1095 00b6 6169     		ldr	r1, [r4, #20]
 1096              	.LVL76:
 1097              		.loc 1 241 0
 1098 00b8 0B68     		ldr	r3, [r1]
 1099              		.loc 1 240 0
 1100 00ba 0431     		adds	r1, r1, #4
 1101              		.loc 1 241 0
 1102 00bc 0B44     		add	r3, r3, r1
 1103              		.loc 1 240 0
 1104 00be C4E90A13 		strd	r1, r3, [r4, #40]
 1105 00c2 ADE7     		b	.L58
 1106              	.LVL77:
 1107              	.L61:
 1108              	.LBE455:
 1109              	.LBE454:
 1110              	.LBE447:
 1111              	.LBE446:
 1112              	.LBE445:
 1113              		.loc 1 399 0
 1114 00c4 3046     		mov	r0, r6
 1115 00c6 5A46     		mov	r2, fp
 1116 00c8 FFF7FEFF 		bl	memcpy
 1117              	.LVL78:
 1118              		.loc 1 401 0
 1119 00cc A36A     		ldr	r3, [r4, #40]
 1120 00ce 5B44     		add	r3, r3, fp
 1121              		.loc 1 402 0
 1122 00d0 5D44     		add	r5, r5, fp
 1123              	.LVL79:
 1124              		.loc 1 400 0
 1125 00d2 5E44     		add	r6, r6, fp
 1126              	.LVL80:
 1127              		.loc 1 401 0
 1128 00d4 A362     		str	r3, [r4, #40]
 1129 00d6 C7E7     		b	.L63
 1130              	.LVL81:
 1131              	.L59:
 1132              	.LBB462:
 1133              	.LBB456:
 1134              	.LBB457:
 1135              	.LBB458:
 1136              	.LBB459:
 1137              	.LBB460:
 1138              	.LBB461:
 1139              		.loc 4 493 0
 1140 00d8 0023     		movs	r3, #0
ARM GAS  /tmp/ccItri7s.s 			page 21


 1141              		.syntax unified
 1142              	@ 493 "./RM18A-ChibiOS18-Core/chibios/os/common/ext/ARM/CMSIS/Core/Include/cmsis_gcc.h" 1
 1143 00da 83F31188 		MSR basepri, r3
 1144              	@ 0 "" 2
 1145              	.LVL82:
 1146              		.thumb
 1147              		.syntax unified
 1148              	.L56:
 1149              	.LBE461:
 1150              	.LBE460:
 1151              	.LBE459:
 1152              	.LBE458:
 1153              	.LBE457:
 1154              	.LBE456:
 1155              	.LBE462:
 1156              	.LBE429:
 1157              		.loc 1 417 0
 1158 00de 2846     		mov	r0, r5
 1159 00e0 BDE8F88F 		pop	{r3, r4, r5, r6, r7, r8, r9, r10, fp, pc}
 1160              		.cfi_endproc
 1161              	.LFE336:
 1162              		.size	ibqReadTimeout, .-ibqReadTimeout
 1163              		.section	.text.obqObjectInit,"ax",%progbits
 1164              		.align	1
 1165              		.p2align 2,,3
 1166              		.global	obqObjectInit
 1167              		.syntax unified
 1168              		.thumb
 1169              		.thumb_func
 1170              		.fpu fpv4-sp-d16
 1171              		.type	obqObjectInit, %function
 1172              	obqObjectInit:
 1173              	.LFB337:
 1174              		.loc 1 433 0
 1175              		.cfi_startproc
 1176              		@ args = 12, pretend = 0, frame = 0
 1177              		@ frame_needed = 0, uses_anonymous_args = 0
 1178              		@ link register save eliminated.
 1179              	.LVL83:
 1180 0000 70B4     		push	{r4, r5, r6}
 1181              		.cfi_def_cfa_offset 12
 1182              		.cfi_offset 4, -12
 1183              		.cfi_offset 5, -8
 1184              		.cfi_offset 6, -4
 1185              		.loc 1 433 0
 1186 0002 DDE90345 		ldrd	r4, r5, [sp, #12]
 1187              		.loc 1 442 0
 1188 0006 0433     		adds	r3, r3, #4
 1189              	.LVL84:
 1190              		.loc 1 438 0
 1191 0008 0172     		strb	r1, [r0, #8]
 1192              		.loc 1 433 0
 1193 000a 0599     		ldr	r1, [sp, #20]
 1194              	.LVL85:
 1195              		.loc 1 443 0
 1196 000c C361     		str	r3, [r0, #28]
 1197              		.loc 1 442 0
ARM GAS  /tmp/ccItri7s.s 			page 22


 1198 000e 04FB0326 		mla	r6, r4, r3, r2
 1199              		.loc 1 446 0
 1200 0012 0023     		movs	r3, #0
 1201              	.LVL86:
 1202              		.loc 1 442 0
 1203 0014 8661     		str	r6, [r0, #24]
 1204              		.loc 1 439 0
 1205 0016 C460     		str	r4, [r0, #12]
 1206              		.loc 1 444 0
 1207 0018 0462     		str	r4, [r0, #32]
 1208              		.loc 1 449 0
 1209 001a C0E90C51 		strd	r5, r1, [r0, #48]
 1210              	.LBB463:
 1211              	.LBB464:
 1212              	.LBB465:
 1213              	.LBB466:
 1214              		.loc 2 540 0
 1215 001e C0E90000 		strd	r0, r0, [r0]
 1216              	.LVL87:
 1217              	.LBE466:
 1218              	.LBE465:
 1219              	.LBE464:
 1220              	.LBE463:
 1221              		.loc 1 441 0
 1222 0022 C0E90422 		strd	r2, r2, [r0, #16]
 1223              		.loc 1 445 0
 1224 0026 4262     		str	r2, [r0, #36]
 1225              		.loc 1 447 0
 1226 0028 C0E90A33 		strd	r3, r3, [r0, #40]
 1227              		.loc 1 450 0
 1228 002c 70BC     		pop	{r4, r5, r6}
 1229              		.cfi_restore 6
 1230              		.cfi_restore 5
 1231              		.cfi_restore 4
 1232              		.cfi_def_cfa_offset 0
 1233              	.LVL88:
 1234 002e 7047     		bx	lr
 1235              		.cfi_endproc
 1236              	.LFE337:
 1237              		.size	obqObjectInit, .-obqObjectInit
 1238              		.section	.text.obqResetI,"ax",%progbits
 1239              		.align	1
 1240              		.p2align 2,,3
 1241              		.global	obqResetI
 1242              		.syntax unified
 1243              		.thumb
 1244              		.thumb_func
 1245              		.fpu fpv4-sp-d16
 1246              		.type	obqResetI, %function
 1247              	obqResetI:
 1248              	.LFB338:
 1249              		.loc 1 463 0
 1250              		.cfi_startproc
 1251              		@ args = 0, pretend = 0, frame = 0
 1252              		@ frame_needed = 0, uses_anonymous_args = 0
 1253              		@ link register save eliminated.
 1254              	.LVL89:
ARM GAS  /tmp/ccItri7s.s 			page 23


 1255 0000 10B4     		push	{r4}
 1256              		.cfi_def_cfa_offset 4
 1257              		.cfi_offset 4, -4
 1258              		.loc 1 468 0
 1259 0002 D0E90841 		ldrd	r4, r1, [r0, #32]
 1260              		.loc 1 470 0
 1261 0006 0022     		movs	r2, #0
 1262              		.loc 1 467 0
 1263 0008 C460     		str	r4, [r0, #12]
 1264              		.loc 1 469 0
 1265 000a C0E90411 		strd	r1, r1, [r0, #16]
 1266              		.loc 1 471 0
 1267 000e C0E90A22 		strd	r2, r2, [r0, #40]
 1268              	.LVL90:
 1269              	.LBB467:
 1270              	.LBB468:
 1271              		.loc 3 857 0
 1272 0012 6FF00101 		mvn	r1, #1
 1273              	.LBE468:
 1274              	.LBE467:
 1275              		.loc 1 473 0
 1276 0016 5DF8044B 		ldr	r4, [sp], #4
 1277              		.cfi_restore 4
 1278              		.cfi_def_cfa_offset 0
 1279              	.LBB470:
 1280              	.LBB469:
 1281              		.loc 3 857 0
 1282 001a FFF7FEBF 		b	chThdDequeueAllI
 1283              	.LVL91:
 1284              	.LBE469:
 1285              	.LBE470:
 1286              		.cfi_endproc
 1287              	.LFE338:
 1288              		.size	obqResetI, .-obqResetI
 1289 001e 00BF     		.section	.text.obqGetFullBufferI,"ax",%progbits
 1290              		.align	1
 1291              		.p2align 2,,3
 1292              		.global	obqGetFullBufferI
 1293              		.syntax unified
 1294              		.thumb
 1295              		.thumb_func
 1296              		.fpu fpv4-sp-d16
 1297              		.type	obqGetFullBufferI, %function
 1298              	obqGetFullBufferI:
 1299              	.LFB339:
 1300              		.loc 1 487 0
 1301              		.cfi_startproc
 1302              		@ args = 0, pretend = 0, frame = 0
 1303              		@ frame_needed = 0, uses_anonymous_args = 0
 1304              		@ link register save eliminated.
 1305              	.LVL92:
 1306              		.loc 1 491 0
 1307 0000 D0E90423 		ldrd	r2, r3, [r0, #16]
 1308 0004 9A42     		cmp	r2, r3
 1309 0006 04D0     		beq	.L87
 1310              	.L82:
 1311              		.loc 1 496 0
ARM GAS  /tmp/ccItri7s.s 			page 24


 1312 0008 1846     		mov	r0, r3
 1313              	.LVL93:
 1314 000a 50F8043B 		ldr	r3, [r0], #4
 1315 000e 0B60     		str	r3, [r1]
 1316              		.loc 1 499 0
 1317 0010 7047     		bx	lr
 1318              	.LVL94:
 1319              	.L87:
 1320              		.loc 1 491 0 discriminator 1
 1321 0012 C268     		ldr	r2, [r0, #12]
 1322 0014 002A     		cmp	r2, #0
 1323 0016 F7D0     		beq	.L82
 1324              		.loc 1 492 0
 1325 0018 0020     		movs	r0, #0
 1326              	.LVL95:
 1327 001a 7047     		bx	lr
 1328              		.cfi_endproc
 1329              	.LFE339:
 1330              		.size	obqGetFullBufferI, .-obqGetFullBufferI
 1331              		.section	.text.obqReleaseEmptyBufferI,"ax",%progbits
 1332              		.align	1
 1333              		.p2align 2,,3
 1334              		.global	obqReleaseEmptyBufferI
 1335              		.syntax unified
 1336              		.thumb
 1337              		.thumb_func
 1338              		.fpu fpv4-sp-d16
 1339              		.type	obqReleaseEmptyBufferI, %function
 1340              	obqReleaseEmptyBufferI:
 1341              	.LFB340:
 1342              		.loc 1 508 0
 1343              		.cfi_startproc
 1344              		@ args = 0, pretend = 0, frame = 0
 1345              		@ frame_needed = 0, uses_anonymous_args = 0
 1346              		@ link register save eliminated.
 1347              	.LVL96:
 1348 0000 10B4     		push	{r4}
 1349              		.cfi_def_cfa_offset 4
 1350              		.cfi_offset 4, -4
 1351              		.loc 1 516 0
 1352 0002 D0E90614 		ldrd	r1, r4, [r0, #24]
 1353              		.loc 1 515 0
 1354 0006 4369     		ldr	r3, [r0, #20]
 1355              		.loc 1 514 0
 1356 0008 C268     		ldr	r2, [r0, #12]
 1357              		.loc 1 515 0
 1358 000a 2344     		add	r3, r3, r4
 1359              		.loc 1 516 0
 1360 000c 8B42     		cmp	r3, r1
 1361              		.loc 1 515 0
 1362 000e 4361     		str	r3, [r0, #20]
 1363              		.loc 1 514 0
 1364 0010 02F10102 		add	r2, r2, #1
 1365              		.loc 1 517 0
 1366 0014 28BF     		it	cs
 1367 0016 436A     		ldrcs	r3, [r0, #36]
 1368              		.loc 1 514 0
ARM GAS  /tmp/ccItri7s.s 			page 25


 1369 0018 C260     		str	r2, [r0, #12]
 1370              		.loc 1 517 0
 1371 001a 28BF     		it	cs
 1372 001c 4361     		strcs	r3, [r0, #20]
 1373              	.LVL97:
 1374              	.LBB471:
 1375              	.LBB472:
 1376              		.loc 3 844 0
 1377 001e 0021     		movs	r1, #0
 1378              	.LBE472:
 1379              	.LBE471:
 1380              		.loc 1 522 0
 1381 0020 5DF8044B 		ldr	r4, [sp], #4
 1382              		.cfi_restore 4
 1383              		.cfi_def_cfa_offset 0
 1384              	.LBB474:
 1385              	.LBB473:
 1386              		.loc 3 844 0
 1387 0024 FFF7FEBF 		b	chThdDequeueNextI
 1388              	.LVL98:
 1389              	.LBE473:
 1390              	.LBE474:
 1391              		.cfi_endproc
 1392              	.LFE340:
 1393              		.size	obqReleaseEmptyBufferI, .-obqReleaseEmptyBufferI
 1394              		.section	.text.obqGetEmptyBufferTimeout,"ax",%progbits
 1395              		.align	1
 1396              		.p2align 2,,3
 1397              		.global	obqGetEmptyBufferTimeout
 1398              		.syntax unified
 1399              		.thumb
 1400              		.thumb_func
 1401              		.fpu fpv4-sp-d16
 1402              		.type	obqGetEmptyBufferTimeout, %function
 1403              	obqGetEmptyBufferTimeout:
 1404              	.LFB341:
 1405              		.loc 1 546 0
 1406              		.cfi_startproc
 1407              		@ args = 0, pretend = 0, frame = 0
 1408              		@ frame_needed = 0, uses_anonymous_args = 0
 1409              	.LVL99:
 1410 0000 38B5     		push	{r3, r4, r5, lr}
 1411              		.cfi_def_cfa_offset 16
 1412              		.cfi_offset 3, -16
 1413              		.cfi_offset 4, -12
 1414              		.cfi_offset 5, -8
 1415              		.cfi_offset 14, -4
 1416              		.loc 1 546 0
 1417 0002 0446     		mov	r4, r0
 1418              	.LVL100:
 1419 0004 0D46     		mov	r5, r1
 1420              	.LBB496:
 1421              	.LBB497:
 1422              	.LBB498:
 1423              	.LBB499:
 1424              	.LBB500:
 1425              		.loc 4 493 0
ARM GAS  /tmp/ccItri7s.s 			page 26


 1426 0006 2023     		movs	r3, #32
 1427              		.syntax unified
 1428              	@ 493 "./RM18A-ChibiOS18-Core/chibios/os/common/ext/ARM/CMSIS/Core/Include/cmsis_gcc.h" 1
 1429 0008 83F31188 		MSR basepri, r3
 1430              	@ 0 "" 2
 1431              	.LVL101:
 1432              		.thumb
 1433              		.syntax unified
 1434 000c 05E0     		b	.L92
 1435              	.LVL102:
 1436              	.L94:
 1437              	.LBE500:
 1438              	.LBE499:
 1439              	.LBE498:
 1440              	.LBE497:
 1441              	.LBE496:
 1442              	.LBB501:
 1443              	.LBB502:
 1444              	.LBB503:
 1445              		.loc 1 583 0
 1446 000e 237A     		ldrb	r3, [r4, #8]	@ zero_extendqisi2
 1447 0010 9BB9     		cbnz	r3, .L95
 1448              	.LBB504:
 1449              	.LBB505:
 1450              		.loc 3 831 0
 1451 0012 FFF7FEFF 		bl	chThdEnqueueTimeoutS
 1452              	.LVL103:
 1453              	.LBE505:
 1454              	.LBE504:
 1455              		.loc 1 587 0
 1456 0016 0028     		cmp	r0, #0
 1457 0018 0BDB     		blt	.L93
 1458              	.L92:
 1459              	.LVL104:
 1460              	.LBE503:
 1461              		.loc 1 582 0
 1462 001a E368     		ldr	r3, [r4, #12]
 1463              	.LBB508:
 1464              	.LBB507:
 1465              	.LBB506:
 1466              		.loc 3 831 0
 1467 001c 2946     		mov	r1, r5
 1468 001e 2046     		mov	r0, r4
 1469              	.LBE506:
 1470              	.LBE507:
 1471              	.LBE508:
 1472              		.loc 1 582 0
 1473 0020 002B     		cmp	r3, #0
 1474 0022 F4D0     		beq	.L94
 1475              	.LVL105:
 1476              	.LBB509:
 1477              	.LBB510:
 1478              		.loc 1 595 0
 1479 0024 2369     		ldr	r3, [r4, #16]
 1480              		.loc 1 596 0
 1481 0026 E169     		ldr	r1, [r4, #28]
 1482              	.LVL106:
ARM GAS  /tmp/ccItri7s.s 			page 27


 1483              		.loc 1 595 0
 1484 0028 1A1D     		adds	r2, r3, #4
 1485              		.loc 1 596 0
 1486 002a 0B44     		add	r3, r3, r1
 1487 002c C4E90A23 		strd	r2, r3, [r4, #40]
 1488              	.LVL107:
 1489 0030 0020     		movs	r0, #0
 1490              	.LVL108:
 1491              	.L93:
 1492              	.LBE510:
 1493              	.LBE509:
 1494              	.LBE502:
 1495              	.LBE501:
 1496              	.LBB513:
 1497              	.LBB514:
 1498              	.LBB515:
 1499              	.LBB516:
 1500              	.LBB517:
 1501              	.LBB518:
 1502              		.loc 4 493 0
 1503 0032 0023     		movs	r3, #0
 1504              		.syntax unified
 1505              	@ 493 "./RM18A-ChibiOS18-Core/chibios/os/common/ext/ARM/CMSIS/Core/Include/cmsis_gcc.h" 1
 1506 0034 83F31188 		MSR basepri, r3
 1507              	@ 0 "" 2
 1508              	.LVL109:
 1509              		.thumb
 1510              		.syntax unified
 1511              	.LBE518:
 1512              	.LBE517:
 1513              	.LBE516:
 1514              	.LBE515:
 1515              	.LBE514:
 1516              	.LBE513:
 1517              		.loc 1 554 0
 1518 0038 38BD     		pop	{r3, r4, r5, pc}
 1519              	.LVL110:
 1520              	.L95:
 1521              	.LBB524:
 1522              	.LBB512:
 1523              	.LBB511:
 1524              		.loc 1 584 0
 1525 003a 6FF00100 		mvn	r0, #1
 1526              	.LVL111:
 1527              	.LBE511:
 1528              	.LBE512:
 1529              	.LBE524:
 1530              	.LBB525:
 1531              	.LBB523:
 1532              	.LBB522:
 1533              	.LBB521:
 1534              	.LBB520:
 1535              	.LBB519:
 1536              		.loc 4 493 0
 1537 003e 0023     		movs	r3, #0
 1538              		.syntax unified
 1539              	@ 493 "./RM18A-ChibiOS18-Core/chibios/os/common/ext/ARM/CMSIS/Core/Include/cmsis_gcc.h" 1
ARM GAS  /tmp/ccItri7s.s 			page 28


 1540 0040 83F31188 		MSR basepri, r3
 1541              	@ 0 "" 2
 1542              	.LVL112:
 1543              		.thumb
 1544              		.syntax unified
 1545              	.LBE519:
 1546              	.LBE520:
 1547              	.LBE521:
 1548              	.LBE522:
 1549              	.LBE523:
 1550              	.LBE525:
 1551              		.loc 1 554 0
 1552 0044 38BD     		pop	{r3, r4, r5, pc}
 1553              		.cfi_endproc
 1554              	.LFE341:
 1555              		.size	obqGetEmptyBufferTimeout, .-obqGetEmptyBufferTimeout
 1556 0046 00BF     		.section	.text.obqGetEmptyBufferTimeoutS,"ax",%progbits
 1557              		.align	1
 1558              		.p2align 2,,3
 1559              		.global	obqGetEmptyBufferTimeoutS
 1560              		.syntax unified
 1561              		.thumb
 1562              		.thumb_func
 1563              		.fpu fpv4-sp-d16
 1564              		.type	obqGetEmptyBufferTimeoutS, %function
 1565              	obqGetEmptyBufferTimeoutS:
 1566              	.LFB342:
 1567              		.loc 1 578 0
 1568              		.cfi_startproc
 1569              		@ args = 0, pretend = 0, frame = 0
 1570              		@ frame_needed = 0, uses_anonymous_args = 0
 1571              	.LVL113:
 1572 0000 38B5     		push	{r3, r4, r5, lr}
 1573              		.cfi_def_cfa_offset 16
 1574              		.cfi_offset 3, -16
 1575              		.cfi_offset 4, -12
 1576              		.cfi_offset 5, -8
 1577              		.cfi_offset 14, -4
 1578              		.loc 1 578 0
 1579 0002 0446     		mov	r4, r0
 1580 0004 0D46     		mov	r5, r1
 1581              		.loc 1 582 0
 1582 0006 05E0     		b	.L98
 1583              	.LVL114:
 1584              	.L100:
 1585              	.LBB537:
 1586              		.loc 1 583 0
 1587 0008 237A     		ldrb	r3, [r4, #8]	@ zero_extendqisi2
 1588 000a 83B9     		cbnz	r3, .L101
 1589              	.LBB538:
 1590              	.LBB539:
 1591              		.loc 3 831 0
 1592 000c FFF7FEFF 		bl	chThdEnqueueTimeoutS
 1593              	.LVL115:
 1594              	.LBE539:
 1595              	.LBE538:
 1596              		.loc 1 587 0
ARM GAS  /tmp/ccItri7s.s 			page 29


 1597 0010 0028     		cmp	r0, #0
 1598 0012 0BDB     		blt	.L97
 1599              	.L98:
 1600              	.LVL116:
 1601              	.LBE537:
 1602              		.loc 1 582 0
 1603 0014 E368     		ldr	r3, [r4, #12]
 1604              	.LBB542:
 1605              	.LBB541:
 1606              	.LBB540:
 1607              		.loc 3 831 0
 1608 0016 2946     		mov	r1, r5
 1609 0018 2046     		mov	r0, r4
 1610              	.LBE540:
 1611              	.LBE541:
 1612              	.LBE542:
 1613              		.loc 1 582 0
 1614 001a 002B     		cmp	r3, #0
 1615 001c F4D0     		beq	.L100
 1616              	.LVL117:
 1617              	.LBB543:
 1618              	.LBB544:
 1619              		.loc 1 595 0
 1620 001e 2369     		ldr	r3, [r4, #16]
 1621              		.loc 1 596 0
 1622 0020 E169     		ldr	r1, [r4, #28]
 1623              	.LVL118:
 1624              		.loc 1 595 0
 1625 0022 1A1D     		adds	r2, r3, #4
 1626              		.loc 1 596 0
 1627 0024 0B44     		add	r3, r3, r1
 1628 0026 C4E90A23 		strd	r2, r3, [r4, #40]
 1629              	.LVL119:
 1630 002a 0020     		movs	r0, #0
 1631              	.LVL120:
 1632              	.L97:
 1633              	.LBE544:
 1634              	.LBE543:
 1635              		.loc 1 599 0
 1636 002c 38BD     		pop	{r3, r4, r5, pc}
 1637              	.LVL121:
 1638              	.L101:
 1639              	.LBB545:
 1640              		.loc 1 584 0
 1641 002e 6FF00100 		mvn	r0, #1
 1642              	.LVL122:
 1643              	.LBE545:
 1644              		.loc 1 599 0
 1645 0032 38BD     		pop	{r3, r4, r5, pc}
 1646              		.cfi_endproc
 1647              	.LFE342:
 1648              		.size	obqGetEmptyBufferTimeoutS, .-obqGetEmptyBufferTimeoutS
 1649              		.section	.text.obqPostFullBuffer,"ax",%progbits
 1650              		.align	1
 1651              		.p2align 2,,3
 1652              		.global	obqPostFullBuffer
 1653              		.syntax unified
ARM GAS  /tmp/ccItri7s.s 			page 30


 1654              		.thumb
 1655              		.thumb_func
 1656              		.fpu fpv4-sp-d16
 1657              		.type	obqPostFullBuffer, %function
 1658              	obqPostFullBuffer:
 1659              	.LFB343:
 1660              		.loc 1 610 0
 1661              		.cfi_startproc
 1662              		@ args = 0, pretend = 0, frame = 0
 1663              		@ frame_needed = 0, uses_anonymous_args = 0
 1664              	.LVL123:
 1665 0000 10B5     		push	{r4, lr}
 1666              		.cfi_def_cfa_offset 8
 1667              		.cfi_offset 4, -8
 1668              		.cfi_offset 14, -4
 1669              	.LBB546:
 1670              	.LBB547:
 1671              	.LBB548:
 1672              	.LBB549:
 1673              	.LBB550:
 1674              		.loc 4 493 0
 1675 0002 2023     		movs	r3, #32
 1676              		.syntax unified
 1677              	@ 493 "./RM18A-ChibiOS18-Core/chibios/os/common/ext/ARM/CMSIS/Core/Include/cmsis_gcc.h" 1
 1678 0004 83F31188 		MSR basepri, r3
 1679              	@ 0 "" 2
 1680              	.LVL124:
 1681              		.thumb
 1682              		.syntax unified
 1683              	.LBE550:
 1684              	.LBE549:
 1685              	.LBE548:
 1686              	.LBE547:
 1687              	.LBE546:
 1688              	.LBB551:
 1689              	.LBB552:
 1690              		.loc 1 633 0
 1691 0008 0369     		ldr	r3, [r0, #16]
 1692              		.loc 1 638 0
 1693 000a 8469     		ldr	r4, [r0, #24]
 1694              		.loc 1 633 0
 1695 000c 1960     		str	r1, [r3]
 1696              		.loc 1 637 0
 1697 000e C169     		ldr	r1, [r0, #28]
 1698              	.LVL125:
 1699              		.loc 1 636 0
 1700 0010 C268     		ldr	r2, [r0, #12]
 1701              		.loc 1 637 0
 1702 0012 0B44     		add	r3, r3, r1
 1703              	.LVL126:
 1704              		.loc 1 638 0
 1705 0014 A342     		cmp	r3, r4
 1706              		.loc 1 637 0
 1707 0016 0361     		str	r3, [r0, #16]
 1708              	.LVL127:
 1709              		.loc 1 639 0
 1710 0018 24BF     		itt	cs
ARM GAS  /tmp/ccItri7s.s 			page 31


 1711 001a 436A     		ldrcs	r3, [r0, #36]
 1712 001c 0361     		strcs	r3, [r0, #16]
 1713              		.loc 1 636 0
 1714 001e 013A     		subs	r2, r2, #1
 1715              		.loc 1 646 0
 1716 0020 036B     		ldr	r3, [r0, #48]
 1717              		.loc 1 636 0
 1718 0022 C260     		str	r2, [r0, #12]
 1719              		.loc 1 643 0
 1720 0024 0022     		movs	r2, #0
 1721 0026 8262     		str	r2, [r0, #40]
 1722              		.loc 1 646 0
 1723 0028 03B1     		cbz	r3, .L105
 1724              		.loc 1 647 0
 1725 002a 9847     		blx	r3
 1726              	.LVL128:
 1727              	.L105:
 1728              	.LBE552:
 1729              	.LBE551:
 1730              	.LBB553:
 1731              	.LBB554:
 1732              	.LBB555:
 1733              	.LBB556:
 1734              	.LBB557:
 1735              	.LBB558:
 1736              		.loc 4 493 0
 1737 002c 0023     		movs	r3, #0
 1738              		.syntax unified
 1739              	@ 493 "./RM18A-ChibiOS18-Core/chibios/os/common/ext/ARM/CMSIS/Core/Include/cmsis_gcc.h" 1
 1740 002e 83F31188 		MSR basepri, r3
 1741              	@ 0 "" 2
 1742              	.LVL129:
 1743              		.thumb
 1744              		.syntax unified
 1745              	.LBE558:
 1746              	.LBE557:
 1747              	.LBE556:
 1748              	.LBE555:
 1749              	.LBE554:
 1750              	.LBE553:
 1751              		.loc 1 615 0
 1752 0032 10BD     		pop	{r4, pc}
 1753              		.cfi_endproc
 1754              	.LFE343:
 1755              		.size	obqPostFullBuffer, .-obqPostFullBuffer
 1756              		.section	.text.obqPostFullBufferS,"ax",%progbits
 1757              		.align	1
 1758              		.p2align 2,,3
 1759              		.global	obqPostFullBufferS
 1760              		.syntax unified
 1761              		.thumb
 1762              		.thumb_func
 1763              		.fpu fpv4-sp-d16
 1764              		.type	obqPostFullBufferS, %function
 1765              	obqPostFullBufferS:
 1766              	.LFB344:
 1767              		.loc 1 626 0
ARM GAS  /tmp/ccItri7s.s 			page 32


 1768              		.cfi_startproc
 1769              		@ args = 0, pretend = 0, frame = 0
 1770              		@ frame_needed = 0, uses_anonymous_args = 0
 1771              		@ link register save eliminated.
 1772              	.LVL130:
 1773              		.loc 1 633 0
 1774 0000 0369     		ldr	r3, [r0, #16]
 1775              		.loc 1 626 0
 1776 0002 10B4     		push	{r4}
 1777              		.cfi_def_cfa_offset 4
 1778              		.cfi_offset 4, -4
 1779              		.loc 1 638 0
 1780 0004 8469     		ldr	r4, [r0, #24]
 1781              		.loc 1 633 0
 1782 0006 1960     		str	r1, [r3]
 1783              		.loc 1 637 0
 1784 0008 C169     		ldr	r1, [r0, #28]
 1785              	.LVL131:
 1786              		.loc 1 636 0
 1787 000a C268     		ldr	r2, [r0, #12]
 1788              		.loc 1 637 0
 1789 000c 0B44     		add	r3, r3, r1
 1790              	.LVL132:
 1791              		.loc 1 638 0
 1792 000e A342     		cmp	r3, r4
 1793              		.loc 1 637 0
 1794 0010 0361     		str	r3, [r0, #16]
 1795              	.LVL133:
 1796              		.loc 1 639 0
 1797 0012 24BF     		itt	cs
 1798 0014 436A     		ldrcs	r3, [r0, #36]
 1799 0016 0361     		strcs	r3, [r0, #16]
 1800              		.loc 1 636 0
 1801 0018 013A     		subs	r2, r2, #1
 1802              		.loc 1 646 0
 1803 001a 036B     		ldr	r3, [r0, #48]
 1804              		.loc 1 636 0
 1805 001c C260     		str	r2, [r0, #12]
 1806              		.loc 1 643 0
 1807 001e 0022     		movs	r2, #0
 1808 0020 8262     		str	r2, [r0, #40]
 1809              		.loc 1 646 0
 1810 0022 13B1     		cbz	r3, .L110
 1811              		.loc 1 649 0
 1812 0024 5DF8044B 		ldr	r4, [sp], #4
 1813              		.cfi_remember_state
 1814              		.cfi_restore 4
 1815              		.cfi_def_cfa_offset 0
 1816              		.loc 1 647 0
 1817 0028 1847     		bx	r3	@ indirect register sibling call
 1818              	.LVL134:
 1819              	.L110:
 1820              		.cfi_restore_state
 1821              		.loc 1 649 0
 1822 002a 5DF8044B 		ldr	r4, [sp], #4
 1823              		.cfi_restore 4
 1824              		.cfi_def_cfa_offset 0
ARM GAS  /tmp/ccItri7s.s 			page 33


 1825 002e 7047     		bx	lr
 1826              		.cfi_endproc
 1827              	.LFE344:
 1828              		.size	obqPostFullBufferS, .-obqPostFullBufferS
 1829              		.section	.text.obqPutTimeout,"ax",%progbits
 1830              		.align	1
 1831              		.p2align 2,,3
 1832              		.global	obqPutTimeout
 1833              		.syntax unified
 1834              		.thumb
 1835              		.thumb_func
 1836              		.fpu fpv4-sp-d16
 1837              		.type	obqPutTimeout, %function
 1838              	obqPutTimeout:
 1839              	.LFB345:
 1840              		.loc 1 672 0
 1841              		.cfi_startproc
 1842              		@ args = 0, pretend = 0, frame = 0
 1843              		@ frame_needed = 0, uses_anonymous_args = 0
 1844              	.LVL135:
 1845 0000 70B5     		push	{r4, r5, r6, lr}
 1846              		.cfi_def_cfa_offset 16
 1847              		.cfi_offset 4, -16
 1848              		.cfi_offset 5, -12
 1849              		.cfi_offset 6, -8
 1850              		.cfi_offset 14, -4
 1851              	.LBB588:
 1852              	.LBB589:
 1853              	.LBB590:
 1854              	.LBB591:
 1855              	.LBB592:
 1856              		.loc 4 493 0
 1857 0002 2023     		movs	r3, #32
 1858              	.LBE592:
 1859              	.LBE591:
 1860              	.LBE590:
 1861              	.LBE589:
 1862              	.LBE588:
 1863              		.loc 1 672 0
 1864 0004 0446     		mov	r4, r0
 1865 0006 0E46     		mov	r6, r1
 1866              	.LVL136:
 1867              	.LBB597:
 1868              	.LBB596:
 1869              	.LBB595:
 1870              	.LBB594:
 1871              	.LBB593:
 1872              		.loc 4 493 0
 1873              		.syntax unified
 1874              	@ 493 "./RM18A-ChibiOS18-Core/chibios/os/common/ext/ARM/CMSIS/Core/Include/cmsis_gcc.h" 1
 1875 0008 83F31188 		MSR basepri, r3
 1876              	@ 0 "" 2
 1877              	.LVL137:
 1878              		.thumb
 1879              		.syntax unified
 1880              	.LBE593:
 1881              	.LBE594:
ARM GAS  /tmp/ccItri7s.s 			page 34


 1882              	.LBE595:
 1883              	.LBE596:
 1884              	.LBE597:
 1885              		.loc 1 678 0
 1886 000c 836A     		ldr	r3, [r0, #40]
 1887 000e FBB1     		cbz	r3, .L131
 1888              	.LVL138:
 1889              	.L116:
 1890              		.loc 1 687 0
 1891 0010 1E70     		strb	r6, [r3]
 1892              		.loc 1 692 0
 1893 0012 D4E90A32 		ldrd	r3, r2, [r4, #40]
 1894              		.loc 1 688 0
 1895 0016 0133     		adds	r3, r3, #1
 1896              		.loc 1 692 0
 1897 0018 9342     		cmp	r3, r2
 1898              		.loc 1 688 0
 1899 001a A362     		str	r3, [r4, #40]
 1900              		.loc 1 692 0
 1901 001c 14D3     		bcc	.L120
 1902              	.LVL139:
 1903              		.loc 1 693 0
 1904 001e E269     		ldr	r2, [r4, #28]
 1905              	.LBB598:
 1906              	.LBB599:
 1907              		.loc 1 633 0
 1908 0020 2369     		ldr	r3, [r4, #16]
 1909              		.loc 1 638 0
 1910 0022 A169     		ldr	r1, [r4, #24]
 1911              	.LBE599:
 1912              	.LBE598:
 1913              		.loc 1 693 0
 1914 0024 043A     		subs	r2, r2, #4
 1915              	.LVL140:
 1916              	.LBB601:
 1917              	.LBB600:
 1918              		.loc 1 633 0
 1919 0026 1A60     		str	r2, [r3]
 1920              		.loc 1 637 0
 1921 0028 E069     		ldr	r0, [r4, #28]
 1922              	.LVL141:
 1923              		.loc 1 636 0
 1924 002a E268     		ldr	r2, [r4, #12]
 1925              	.LVL142:
 1926              		.loc 1 637 0
 1927 002c 0344     		add	r3, r3, r0
 1928              	.LVL143:
 1929              		.loc 1 638 0
 1930 002e 8B42     		cmp	r3, r1
 1931              		.loc 1 637 0
 1932 0030 2361     		str	r3, [r4, #16]
 1933              	.LVL144:
 1934              		.loc 1 639 0
 1935 0032 24BF     		itt	cs
 1936 0034 636A     		ldrcs	r3, [r4, #36]
 1937 0036 2361     		strcs	r3, [r4, #16]
 1938              		.loc 1 636 0
ARM GAS  /tmp/ccItri7s.s 			page 35


 1939 0038 013A     		subs	r2, r2, #1
 1940              		.loc 1 646 0
 1941 003a 236B     		ldr	r3, [r4, #48]
 1942              		.loc 1 636 0
 1943 003c E260     		str	r2, [r4, #12]
 1944              		.loc 1 643 0
 1945 003e 0022     		movs	r2, #0
 1946 0040 A262     		str	r2, [r4, #40]
 1947              		.loc 1 646 0
 1948 0042 0BB1     		cbz	r3, .L120
 1949              		.loc 1 647 0
 1950 0044 2046     		mov	r0, r4
 1951 0046 9847     		blx	r3
 1952              	.LVL145:
 1953              	.L120:
 1954              	.LBE600:
 1955              	.LBE601:
 1956              	.LBB602:
 1957              	.LBB603:
 1958              	.LBB604:
 1959              	.LBB605:
 1960              	.LBB606:
 1961              	.LBB607:
 1962              		.loc 4 493 0
 1963 0048 0020     		movs	r0, #0
 1964              		.syntax unified
 1965              	@ 493 "./RM18A-ChibiOS18-Core/chibios/os/common/ext/ARM/CMSIS/Core/Include/cmsis_gcc.h" 1
 1966 004a 80F31188 		MSR basepri, r0
 1967              	@ 0 "" 2
 1968              	.LVL146:
 1969              		.thumb
 1970              		.syntax unified
 1971              	.LBE607:
 1972              	.LBE606:
 1973              	.LBE605:
 1974              	.LBE604:
 1975              	.LBE603:
 1976              	.LBE602:
 1977              		.loc 1 698 0
 1978 004e 70BD     		pop	{r4, r5, r6, pc}
 1979              	.LVL147:
 1980              	.L131:
 1981 0050 1546     		mov	r5, r2
 1982 0052 05E0     		b	.L115
 1983              	.LVL148:
 1984              	.L118:
 1985              	.LBB608:
 1986              	.LBB609:
 1987              	.LBB610:
 1988              		.loc 1 583 0
 1989 0054 237A     		ldrb	r3, [r4, #8]	@ zero_extendqisi2
 1990 0056 7BB9     		cbnz	r3, .L124
 1991              	.LBB611:
 1992              	.LBB612:
 1993              		.loc 3 831 0
 1994 0058 FFF7FEFF 		bl	chThdEnqueueTimeoutS
 1995              	.LVL149:
ARM GAS  /tmp/ccItri7s.s 			page 36


 1996              	.LBE612:
 1997              	.LBE611:
 1998              		.loc 1 587 0
 1999 005c 0028     		cmp	r0, #0
 2000 005e 0DDB     		blt	.L117
 2001              	.L115:
 2002              	.LVL150:
 2003              	.LBE610:
 2004              		.loc 1 582 0
 2005 0060 E368     		ldr	r3, [r4, #12]
 2006              	.LBB615:
 2007              	.LBB614:
 2008              	.LBB613:
 2009              		.loc 3 831 0
 2010 0062 2946     		mov	r1, r5
 2011 0064 2046     		mov	r0, r4
 2012              	.LBE613:
 2013              	.LBE614:
 2014              	.LBE615:
 2015              		.loc 1 582 0
 2016 0066 002B     		cmp	r3, #0
 2017 0068 F4D0     		beq	.L118
 2018              	.LVL151:
 2019              	.LBB616:
 2020              	.LBB617:
 2021              		.loc 1 595 0
 2022 006a 2269     		ldr	r2, [r4, #16]
 2023              		.loc 1 596 0
 2024 006c E169     		ldr	r1, [r4, #28]
 2025              	.LVL152:
 2026              		.loc 1 595 0
 2027 006e 131D     		adds	r3, r2, #4
 2028              		.loc 1 596 0
 2029 0070 0A44     		add	r2, r2, r1
 2030 0072 C4E90A32 		strd	r3, r2, [r4, #40]
 2031              	.LVL153:
 2032 0076 CBE7     		b	.L116
 2033              	.LVL154:
 2034              	.L124:
 2035              	.LBE617:
 2036              	.LBE616:
 2037              	.LBB618:
 2038              		.loc 1 584 0
 2039 0078 6FF00100 		mvn	r0, #1
 2040              	.LVL155:
 2041              	.L117:
 2042              	.LBE618:
 2043              	.LBE609:
 2044              	.LBE608:
 2045              	.LBB619:
 2046              	.LBB620:
 2047              	.LBB621:
 2048              	.LBB622:
 2049              	.LBB623:
 2050              	.LBB624:
 2051              		.loc 4 493 0
 2052 007c 0023     		movs	r3, #0
ARM GAS  /tmp/ccItri7s.s 			page 37


 2053              		.syntax unified
 2054              	@ 493 "./RM18A-ChibiOS18-Core/chibios/os/common/ext/ARM/CMSIS/Core/Include/cmsis_gcc.h" 1
 2055 007e 83F31188 		MSR basepri, r3
 2056              	@ 0 "" 2
 2057              	.LVL156:
 2058              		.thumb
 2059              		.syntax unified
 2060              	.LBE624:
 2061              	.LBE623:
 2062              	.LBE622:
 2063              	.LBE621:
 2064              	.LBE620:
 2065              	.LBE619:
 2066              		.loc 1 698 0
 2067 0082 70BD     		pop	{r4, r5, r6, pc}
 2068              		.cfi_endproc
 2069              	.LFE345:
 2070              		.size	obqPutTimeout, .-obqPutTimeout
 2071              		.section	.text.obqWriteTimeout,"ax",%progbits
 2072              		.align	1
 2073              		.p2align 2,,3
 2074              		.global	obqWriteTimeout
 2075              		.syntax unified
 2076              		.thumb
 2077              		.thumb_func
 2078              		.fpu fpv4-sp-d16
 2079              		.type	obqWriteTimeout, %function
 2080              	obqWriteTimeout:
 2081              	.LFB346:
 2082              		.loc 1 722 0
 2083              		.cfi_startproc
 2084              		@ args = 0, pretend = 0, frame = 0
 2085              		@ frame_needed = 0, uses_anonymous_args = 0
 2086              	.LVL157:
 2087 0000 2DE9F84F 		push	{r3, r4, r5, r6, r7, r8, r9, r10, fp, lr}
 2088              		.cfi_def_cfa_offset 40
 2089              		.cfi_offset 3, -40
 2090              		.cfi_offset 4, -36
 2091              		.cfi_offset 5, -32
 2092              		.cfi_offset 6, -28
 2093              		.cfi_offset 7, -24
 2094              		.cfi_offset 8, -20
 2095              		.cfi_offset 9, -16
 2096              		.cfi_offset 10, -12
 2097              		.cfi_offset 11, -8
 2098              		.cfi_offset 14, -4
 2099              		.loc 1 722 0
 2100 0004 0446     		mov	r4, r0
 2101 0006 0D46     		mov	r5, r1
 2102 0008 1746     		mov	r7, r2
 2103 000a 9946     		mov	r9, r3
 2104              	.LBB661:
 2105              	.LBB662:
 2106              	.LBB663:
 2107              	.LBB664:
 2108              	.LBB665:
 2109              		.loc 4 493 0
ARM GAS  /tmp/ccItri7s.s 			page 38


 2110 000c 4FF0200A 		mov	r10, #32
 2111              		.syntax unified
 2112              	@ 493 "./RM18A-ChibiOS18-Core/chibios/os/common/ext/ARM/CMSIS/Core/Include/cmsis_gcc.h" 1
 2113 0010 8AF31188 		MSR basepri, r10
 2114              	@ 0 "" 2
 2115              	.LVL158:
 2116              		.thumb
 2117              		.syntax unified
 2118              	.LBE665:
 2119              	.LBE664:
 2120              	.LBE663:
 2121              	.LBE662:
 2122              	.LBE661:
 2123              		.loc 1 723 0
 2124 0014 0026     		movs	r6, #0
 2125              	.LBB666:
 2126              	.LBB667:
 2127              	.LBB668:
 2128              		.loc 1 643 0
 2129 0016 B046     		mov	r8, r6
 2130              	.LVL159:
 2131              	.L145:
 2132              	.LBE668:
 2133              	.LBE667:
 2134              		.loc 1 733 0
 2135 0018 A06A     		ldr	r0, [r4, #40]
 2136 001a 0028     		cmp	r0, #0
 2137 001c 45D0     		beq	.L133
 2138 001e E36A     		ldr	r3, [r4, #44]
 2139              	.L134:
 2140              		.loc 1 748 0
 2141 0020 A7EB060B 		sub	fp, r7, r6
 2142              		.loc 1 747 0
 2143 0024 1B1A     		subs	r3, r3, r0
 2144              	.LVL160:
 2145 0026 9B45     		cmp	fp, r3
 2146 0028 28BF     		it	cs
 2147 002a 9B46     		movcs	fp, r3
 2148              	.LVL161:
 2149              		.loc 1 754 0
 2150 002c BBF1400F 		cmp	fp, #64
 2151 0030 47D9     		bls	.L137
 2152              		.loc 1 756 0
 2153 0032 05F14003 		add	r3, r5, #64
 2154              	.LVL162:
 2155              	.L138:
 2156 0036 D5F800C0 		ldr	ip, [r5]	@ unaligned
 2157 003a 6968     		ldr	r1, [r5, #4]	@ unaligned
 2158 003c AA68     		ldr	r2, [r5, #8]	@ unaligned
 2159 003e D5F80CE0 		ldr	lr, [r5, #12]	@ unaligned
 2160 0042 C0F80CE0 		str	lr, [r0, #12]	@ unaligned
 2161 0046 1035     		adds	r5, r5, #16
 2162 0048 9D42     		cmp	r5, r3
 2163 004a C0F800C0 		str	ip, [r0]	@ unaligned
 2164 004e 4160     		str	r1, [r0, #4]	@ unaligned
 2165 0050 8260     		str	r2, [r0, #8]	@ unaligned
 2166 0052 00F11000 		add	r0, r0, #16
ARM GAS  /tmp/ccItri7s.s 			page 39


 2167 0056 EED1     		bne	.L138
 2168              		.loc 1 758 0
 2169 0058 A36A     		ldr	r3, [r4, #40]
 2170              	.LVL163:
 2171 005a 4033     		adds	r3, r3, #64
 2172              		.loc 1 759 0
 2173 005c 4036     		adds	r6, r6, #64
 2174              	.LVL164:
 2175              		.loc 1 758 0
 2176 005e A362     		str	r3, [r4, #40]
 2177              	.L139:
 2178              	.LVL165:
 2179              		.loc 1 769 0
 2180 0060 E26A     		ldr	r2, [r4, #44]
 2181 0062 9A42     		cmp	r2, r3
 2182 0064 14D8     		bhi	.L141
 2183              	.LVL166:
 2184              		.loc 1 770 0
 2185 0066 E269     		ldr	r2, [r4, #28]
 2186              	.LBB671:
 2187              	.LBB669:
 2188              		.loc 1 633 0
 2189 0068 2369     		ldr	r3, [r4, #16]
 2190              		.loc 1 638 0
 2191 006a A169     		ldr	r1, [r4, #24]
 2192              	.LBE669:
 2193              	.LBE671:
 2194              		.loc 1 770 0
 2195 006c 043A     		subs	r2, r2, #4
 2196              	.LVL167:
 2197              	.LBB672:
 2198              	.LBB670:
 2199              		.loc 1 633 0
 2200 006e 1A60     		str	r2, [r3]
 2201              		.loc 1 637 0
 2202 0070 E069     		ldr	r0, [r4, #28]
 2203              		.loc 1 636 0
 2204 0072 E268     		ldr	r2, [r4, #12]
 2205              	.LVL168:
 2206              		.loc 1 643 0
 2207 0074 C4F82880 		str	r8, [r4, #40]
 2208              		.loc 1 637 0
 2209 0078 0344     		add	r3, r3, r0
 2210              	.LVL169:
 2211              		.loc 1 638 0
 2212 007a 8B42     		cmp	r3, r1
 2213              		.loc 1 637 0
 2214 007c 2361     		str	r3, [r4, #16]
 2215              	.LVL170:
 2216              		.loc 1 639 0
 2217 007e 24BF     		itt	cs
 2218 0080 636A     		ldrcs	r3, [r4, #36]
 2219 0082 2361     		strcs	r3, [r4, #16]
 2220              		.loc 1 646 0
 2221 0084 236B     		ldr	r3, [r4, #48]
 2222              		.loc 1 636 0
 2223 0086 013A     		subs	r2, r2, #1
ARM GAS  /tmp/ccItri7s.s 			page 40


 2224 0088 E260     		str	r2, [r4, #12]
 2225              		.loc 1 646 0
 2226 008a 0BB1     		cbz	r3, .L141
 2227              		.loc 1 647 0
 2228 008c 2046     		mov	r0, r4
 2229 008e 9847     		blx	r3
 2230              	.LVL171:
 2231              	.L141:
 2232              	.LBE670:
 2233              	.LBE672:
 2234              	.LBB673:
 2235              	.LBB674:
 2236              	.LBB675:
 2237              	.LBB676:
 2238              	.LBB677:
 2239              	.LBB678:
 2240              		.loc 4 493 0
 2241              		.syntax unified
 2242              	@ 493 "./RM18A-ChibiOS18-Core/chibios/os/common/ext/ARM/CMSIS/Core/Include/cmsis_gcc.h" 1
 2243 0090 88F31188 		MSR basepri, r8
 2244              	@ 0 "" 2
 2245              	.LVL172:
 2246              		.thumb
 2247              		.syntax unified
 2248              	.LBE678:
 2249              	.LBE677:
 2250              	.LBE676:
 2251              	.LBE675:
 2252              	.LBE674:
 2253              	.LBE673:
 2254              		.loc 1 775 0
 2255 0094 BE42     		cmp	r6, r7
 2256 0096 21D2     		bcs	.L132
 2257              	.LVL173:
 2258              	.LBB679:
 2259              	.LBB680:
 2260              	.LBB681:
 2261              	.LBB682:
 2262              	.LBB683:
 2263              		.loc 4 493 0
 2264              		.syntax unified
 2265              	@ 493 "./RM18A-ChibiOS18-Core/chibios/os/common/ext/ARM/CMSIS/Core/Include/cmsis_gcc.h" 1
 2266 0098 8AF31188 		MSR basepri, r10
 2267              	@ 0 "" 2
 2268              	.LVL174:
 2269              		.thumb
 2270              		.syntax unified
 2271 009c BCE7     		b	.L145
 2272              	.LVL175:
 2273              	.L136:
 2274              	.LBE683:
 2275              	.LBE682:
 2276              	.LBE681:
 2277              	.LBE680:
 2278              	.LBE679:
 2279              	.LBB684:
 2280              	.LBB685:
ARM GAS  /tmp/ccItri7s.s 			page 41


 2281              	.LBB686:
 2282              	.LBB687:
 2283              		.loc 1 583 0
 2284 009e 237A     		ldrb	r3, [r4, #8]	@ zero_extendqisi2
 2285 00a0 CBB9     		cbnz	r3, .L135
 2286              	.LBB688:
 2287              	.LBB689:
 2288              		.loc 3 831 0
 2289 00a2 FFF7FEFF 		bl	chThdEnqueueTimeoutS
 2290              	.LVL176:
 2291              	.LBE689:
 2292              	.LBE688:
 2293              		.loc 1 587 0
 2294 00a6 0028     		cmp	r0, #0
 2295 00a8 15DB     		blt	.L135
 2296              	.L133:
 2297              	.LVL177:
 2298              	.LBE687:
 2299              		.loc 1 582 0
 2300 00aa E368     		ldr	r3, [r4, #12]
 2301              	.LBB692:
 2302              	.LBB691:
 2303              	.LBB690:
 2304              		.loc 3 831 0
 2305 00ac 4946     		mov	r1, r9
 2306 00ae 2046     		mov	r0, r4
 2307              	.LBE690:
 2308              	.LBE691:
 2309              	.LBE692:
 2310              		.loc 1 582 0
 2311 00b0 002B     		cmp	r3, #0
 2312 00b2 F4D0     		beq	.L136
 2313              	.LVL178:
 2314              	.LBB693:
 2315              	.LBB694:
 2316              		.loc 1 595 0
 2317 00b4 2369     		ldr	r3, [r4, #16]
 2318              		.loc 1 596 0
 2319 00b6 E269     		ldr	r2, [r4, #28]
 2320              		.loc 1 595 0
 2321 00b8 181D     		adds	r0, r3, #4
 2322              	.LVL179:
 2323              		.loc 1 596 0
 2324 00ba 1344     		add	r3, r3, r2
 2325 00bc C4E90A03 		strd	r0, r3, [r4, #40]
 2326              	.LVL180:
 2327 00c0 AEE7     		b	.L134
 2328              	.LVL181:
 2329              	.L137:
 2330              	.LBE694:
 2331              	.LBE693:
 2332              	.LBE686:
 2333              	.LBE685:
 2334              	.LBE684:
 2335              		.loc 1 762 0
 2336 00c2 2946     		mov	r1, r5
 2337 00c4 5A46     		mov	r2, fp
ARM GAS  /tmp/ccItri7s.s 			page 42


 2338 00c6 FFF7FEFF 		bl	memcpy
 2339              	.LVL182:
 2340              		.loc 1 764 0
 2341 00ca A36A     		ldr	r3, [r4, #40]
 2342 00cc 5B44     		add	r3, r3, fp
 2343              		.loc 1 765 0
 2344 00ce 5E44     		add	r6, r6, fp
 2345              	.LVL183:
 2346              		.loc 1 763 0
 2347 00d0 5D44     		add	r5, r5, fp
 2348              	.LVL184:
 2349              		.loc 1 764 0
 2350 00d2 A362     		str	r3, [r4, #40]
 2351 00d4 C4E7     		b	.L139
 2352              	.LVL185:
 2353              	.L135:
 2354              	.LBB701:
 2355              	.LBB695:
 2356              	.LBB696:
 2357              	.LBB697:
 2358              	.LBB698:
 2359              	.LBB699:
 2360              	.LBB700:
 2361              		.loc 4 493 0
 2362 00d6 0023     		movs	r3, #0
 2363              		.syntax unified
 2364              	@ 493 "./RM18A-ChibiOS18-Core/chibios/os/common/ext/ARM/CMSIS/Core/Include/cmsis_gcc.h" 1
 2365 00d8 83F31188 		MSR basepri, r3
 2366              	@ 0 "" 2
 2367              	.LVL186:
 2368              		.thumb
 2369              		.syntax unified
 2370              	.L132:
 2371              	.LBE700:
 2372              	.LBE699:
 2373              	.LBE698:
 2374              	.LBE697:
 2375              	.LBE696:
 2376              	.LBE695:
 2377              	.LBE701:
 2378              	.LBE666:
 2379              		.loc 1 780 0
 2380 00dc 3046     		mov	r0, r6
 2381 00de BDE8F88F 		pop	{r3, r4, r5, r6, r7, r8, r9, r10, fp, pc}
 2382              		.cfi_endproc
 2383              	.LFE346:
 2384              		.size	obqWriteTimeout, .-obqWriteTimeout
 2385 00e2 00BF     		.section	.text.obqTryFlushI,"ax",%progbits
 2386              		.align	1
 2387              		.p2align 2,,3
 2388              		.global	obqTryFlushI
 2389              		.syntax unified
 2390              		.thumb
 2391              		.thumb_func
 2392              		.fpu fpv4-sp-d16
 2393              		.type	obqTryFlushI, %function
 2394              	obqTryFlushI:
ARM GAS  /tmp/ccItri7s.s 			page 43


 2395              	.LFB347:
 2396              		.loc 1 795 0
 2397              		.cfi_startproc
 2398              		@ args = 0, pretend = 0, frame = 0
 2399              		@ frame_needed = 0, uses_anonymous_args = 0
 2400              		@ link register save eliminated.
 2401              	.LVL187:
 2402              		.loc 1 801 0
 2403 0000 D0E90423 		ldrd	r2, r3, [r0, #16]
 2404 0004 9A42     		cmp	r2, r3
 2405 0006 01D0     		beq	.L166
 2406              	.L158:
 2407              		.loc 1 822 0
 2408 0008 0020     		movs	r0, #0
 2409              	.LVL188:
 2410 000a 7047     		bx	lr
 2411              	.LVL189:
 2412              	.L166:
 2413              		.loc 1 801 0 discriminator 1
 2414 000c C368     		ldr	r3, [r0, #12]
 2415 000e 002B     		cmp	r3, #0
 2416 0010 FAD0     		beq	.L158
 2417              		.loc 1 801 0 is_stmt 0
 2418 0012 836A     		ldr	r3, [r0, #40]
 2419 0014 002B     		cmp	r3, #0
 2420 0016 F7D0     		beq	.L158
 2421              	.LBB702:
 2422              		.loc 1 802 0 is_stmt 1
 2423 0018 043B     		subs	r3, r3, #4
 2424              	.LVL190:
 2425              		.loc 1 804 0
 2426 001a 9B1A     		subs	r3, r3, r2
 2427              	.LVL191:
 2428 001c F4D0     		beq	.L158
 2429              	.LBE702:
 2430              		.loc 1 795 0
 2431 001e 10B4     		push	{r4}
 2432              		.cfi_def_cfa_offset 4
 2433              		.cfi_offset 4, -4
 2434              	.LBB703:
 2435              		.loc 1 807 0
 2436 0020 1360     		str	r3, [r2]
 2437              		.loc 1 812 0
 2438 0022 D0E90614 		ldrd	r1, r4, [r0, #24]
 2439              		.loc 1 810 0
 2440 0026 C368     		ldr	r3, [r0, #12]
 2441              	.LVL192:
 2442              		.loc 1 811 0
 2443 0028 2244     		add	r2, r2, r4
 2444              	.LVL193:
 2445              		.loc 1 810 0
 2446 002a 013B     		subs	r3, r3, #1
 2447              		.loc 1 812 0
 2448 002c 8A42     		cmp	r2, r1
 2449              		.loc 1 810 0
 2450 002e C360     		str	r3, [r0, #12]
 2451              	.LVL194:
ARM GAS  /tmp/ccItri7s.s 			page 44


 2452              		.loc 1 813 0
 2453 0030 28BF     		it	cs
 2454 0032 436A     		ldrcs	r3, [r0, #36]
 2455              		.loc 1 811 0
 2456 0034 0261     		str	r2, [r0, #16]
 2457              	.LVL195:
 2458              		.loc 1 813 0
 2459 0036 28BF     		it	cs
 2460 0038 0361     		strcs	r3, [r0, #16]
 2461              		.loc 1 817 0
 2462 003a 0023     		movs	r3, #0
 2463 003c 8362     		str	r3, [r0, #40]
 2464              	.LBE703:
 2465              		.loc 1 823 0
 2466 003e 5DF8044B 		ldr	r4, [sp], #4
 2467              		.cfi_restore 4
 2468              		.cfi_def_cfa_offset 0
 2469              	.LBB704:
 2470              		.loc 1 819 0
 2471 0042 0120     		movs	r0, #1
 2472              	.LVL196:
 2473              	.LBE704:
 2474              		.loc 1 823 0
 2475 0044 7047     		bx	lr
 2476              		.cfi_endproc
 2477              	.LFE347:
 2478              		.size	obqTryFlushI, .-obqTryFlushI
 2479 0046 00BF     		.section	.text.obqFlush,"ax",%progbits
 2480              		.align	1
 2481              		.p2align 2,,3
 2482              		.global	obqFlush
 2483              		.syntax unified
 2484              		.thumb
 2485              		.thumb_func
 2486              		.fpu fpv4-sp-d16
 2487              		.type	obqFlush, %function
 2488              	obqFlush:
 2489              	.LFB348:
 2490              		.loc 1 832 0
 2491              		.cfi_startproc
 2492              		@ args = 0, pretend = 0, frame = 0
 2493              		@ frame_needed = 0, uses_anonymous_args = 0
 2494              	.LVL197:
 2495              	.LBB705:
 2496              	.LBB706:
 2497              	.LBB707:
 2498              	.LBB708:
 2499              	.LBB709:
 2500              		.loc 4 493 0
 2501 0000 2023     		movs	r3, #32
 2502              		.syntax unified
 2503              	@ 493 "./RM18A-ChibiOS18-Core/chibios/os/common/ext/ARM/CMSIS/Core/Include/cmsis_gcc.h" 1
 2504 0002 83F31188 		MSR basepri, r3
 2505              	@ 0 "" 2
 2506              	.LVL198:
 2507              		.thumb
 2508              		.syntax unified
ARM GAS  /tmp/ccItri7s.s 			page 45


 2509              	.LBE709:
 2510              	.LBE708:
 2511              	.LBE707:
 2512              	.LBE706:
 2513              	.LBE705:
 2514              		.loc 1 837 0
 2515 0006 836A     		ldr	r3, [r0, #40]
 2516 0008 D3B1     		cbz	r3, .L179
 2517              	.LBB710:
 2518              		.loc 1 838 0
 2519 000a 0269     		ldr	r2, [r0, #16]
 2520 000c 043B     		subs	r3, r3, #4
 2521              	.LVL199:
 2522              		.loc 1 840 0
 2523 000e 9B1A     		subs	r3, r3, r2
 2524              	.LVL200:
 2525 0010 16D0     		beq	.L179
 2526              	.LVL201:
 2527              	.LBE710:
 2528              		.loc 1 832 0
 2529 0012 10B5     		push	{r4, lr}
 2530              		.cfi_def_cfa_offset 8
 2531              		.cfi_offset 4, -8
 2532              		.cfi_offset 14, -4
 2533              	.LBB713:
 2534              	.LBB711:
 2535              	.LBB712:
 2536              		.loc 1 633 0
 2537 0014 1360     		str	r3, [r2]
 2538              		.loc 1 638 0
 2539 0016 D0E90614 		ldrd	r1, r4, [r0, #24]
 2540              		.loc 1 636 0
 2541 001a C368     		ldr	r3, [r0, #12]
 2542              	.LVL202:
 2543              		.loc 1 637 0
 2544 001c 2244     		add	r2, r2, r4
 2545              	.LVL203:
 2546              		.loc 1 636 0
 2547 001e 013B     		subs	r3, r3, #1
 2548              		.loc 1 638 0
 2549 0020 8A42     		cmp	r2, r1
 2550              		.loc 1 636 0
 2551 0022 C360     		str	r3, [r0, #12]
 2552              	.LVL204:
 2553              		.loc 1 639 0
 2554 0024 28BF     		it	cs
 2555 0026 436A     		ldrcs	r3, [r0, #36]
 2556              		.loc 1 637 0
 2557 0028 0261     		str	r2, [r0, #16]
 2558              	.LVL205:
 2559              		.loc 1 639 0
 2560 002a 28BF     		it	cs
 2561 002c 0361     		strcs	r3, [r0, #16]
 2562              		.loc 1 646 0
 2563 002e 036B     		ldr	r3, [r0, #48]
 2564              		.loc 1 643 0
 2565 0030 0022     		movs	r2, #0
ARM GAS  /tmp/ccItri7s.s 			page 46


 2566 0032 8262     		str	r2, [r0, #40]
 2567              		.loc 1 646 0
 2568 0034 03B1     		cbz	r3, .L169
 2569              		.loc 1 647 0
 2570 0036 9847     		blx	r3
 2571              	.LVL206:
 2572              	.L169:
 2573              	.LBE712:
 2574              	.LBE711:
 2575              	.LBE713:
 2576              	.LBB714:
 2577              	.LBB715:
 2578              	.LBB716:
 2579              	.LBB717:
 2580              	.LBB718:
 2581              	.LBB719:
 2582              		.loc 4 493 0
 2583 0038 0023     		movs	r3, #0
 2584              		.syntax unified
 2585              	@ 493 "./RM18A-ChibiOS18-Core/chibios/os/common/ext/ARM/CMSIS/Core/Include/cmsis_gcc.h" 1
 2586 003a 83F31188 		MSR basepri, r3
 2587              	@ 0 "" 2
 2588              	.LVL207:
 2589              		.thumb
 2590              		.syntax unified
 2591              	.LBE719:
 2592              	.LBE718:
 2593              	.LBE717:
 2594              	.LBE716:
 2595              	.LBE715:
 2596              	.LBE714:
 2597              		.loc 1 846 0
 2598 003e 10BD     		pop	{r4, pc}
 2599              	.LVL208:
 2600              	.L179:
 2601              		.cfi_def_cfa_offset 0
 2602              		.cfi_restore 4
 2603              		.cfi_restore 14
 2604              	.LBB725:
 2605              	.LBB724:
 2606              	.LBB723:
 2607              	.LBB722:
 2608              	.LBB721:
 2609              	.LBB720:
 2610              		.loc 4 493 0
 2611 0040 0023     		movs	r3, #0
 2612              		.syntax unified
 2613              	@ 493 "./RM18A-ChibiOS18-Core/chibios/os/common/ext/ARM/CMSIS/Core/Include/cmsis_gcc.h" 1
 2614 0042 83F31188 		MSR basepri, r3
 2615              	@ 0 "" 2
 2616              	.LVL209:
 2617              		.thumb
 2618              		.syntax unified
 2619 0046 7047     		bx	lr
 2620              	.LBE720:
 2621              	.LBE721:
 2622              	.LBE722:
ARM GAS  /tmp/ccItri7s.s 			page 47


 2623              	.LBE723:
 2624              	.LBE724:
 2625              	.LBE725:
 2626              		.cfi_endproc
 2627              	.LFE348:
 2628              		.size	obqFlush, .-obqFlush
 2629              		.text
 2630              	.Letext0:
 2631              		.file 5 "/usr/lib/gcc/arm-none-eabi/7.3.1/include/stddef.h"
 2632              		.file 6 "/usr/arm-none-eabi/include/machine/_default_types.h"
 2633              		.file 7 "/usr/arm-none-eabi/include/sys/lock.h"
 2634              		.file 8 "/usr/arm-none-eabi/include/sys/_types.h"
 2635              		.file 9 "/usr/arm-none-eabi/include/sys/reent.h"
 2636              		.file 10 "/usr/arm-none-eabi/include/sys/_stdint.h"
 2637              		.file 11 "./RM18A-ChibiOS18-Core/chibios/os/common/ports/ARMCMx/compilers/GCC/chtypes.h"
 2638              		.file 12 "./RM18A-ChibiOS18-Core/chibios/os/rt/include/chsystypes.h"
 2639              		.file 13 "./RM18A-ChibiOS18-Core/chibios/os/rt/include/chtime.h"
 2640              		.file 14 "./RM18A-ChibiOS18-Core/chibios/os/common/ext/ARM/CMSIS/Core/Include/core_cm4.h"
 2641              		.file 15 "./RM18A-ChibiOS18-Core/chibios/os/common/ext/ST/STM32F4xx/system_stm32f4xx.h"
 2642              		.file 16 "./RM18A-ChibiOS18-Core/chibios/os/common/ext/ST/STM32F4xx/stm32f427xx.h"
 2643              		.file 17 "./RM18A-ChibiOS18-Core/chibios/os/common/ports/ARMCMx/chcore.h"
 2644              		.file 18 "./RM18A-ChibiOS18-Core/chibios/os/common/ports/ARMCMx/chcore_v7m.h"
 2645              		.file 19 "./RM18A-ChibiOS18-Core/chibios/os/hal/ports/STM32/LLD/TIMv1/stm32_tim.h"
 2646              		.file 20 "./RM18A-ChibiOS18-Core/chibios/os/rt/include/chtm.h"
 2647              		.file 21 "./RM18A-ChibiOS18-Core/chibios/os/rt/include/chsem.h"
 2648              		.file 22 "./RM18A-ChibiOS18-Core/chibios/os/rt/include/chmtx.h"
 2649              		.file 23 "./RM18A-ChibiOS18-Core/chibios/os/rt/include/chsys.h"
 2650              		.file 24 "./RM18A-ChibiOS18-Core/chibios/os/rt/include/chregistry.h"
 2651              		.file 25 "./RM18A-ChibiOS18-Core/chibios/os/rt/include/chevents.h"
 2652              		.file 26 "./RM18A-ChibiOS18-Core/chibios/os/oslib/include/chmemcore.h"
 2653              		.file 27 "./RM18A-ChibiOS18-Core/chibios/os/oslib/include/chmempools.h"
 2654              		.file 28 "./RM18A-ChibiOS18-Core/chibios/os/oslib/include/chfactory.h"
 2655              		.file 29 "./RM18A-ChibiOS18-Core/chibios/os/hal/ports/STM32/LLD/DMAv2/stm32_dma.h"
 2656              		.file 30 "./RM18A-ChibiOS18-Core/chibios/os/hal/include/hal_buffers.h"
 2657              		.file 31 "./RM18A-ChibiOS18-Core/chibios/os/hal/include/hal_queues.h"
 2658              		.file 32 "./RM18A-ChibiOS18-Core/chibios/os/hal/include/hal_pal.h"
 2659              		.file 33 "./RM18A-ChibiOS18-Core/chibios/os/hal/ports/STM32/LLD/GPIOv2/hal_pal_lld.h"
 2660              		.file 34 "./RM18A-ChibiOS18-Core/chibios/os/hal/include/hal_adc.h"
 2661              		.file 35 "./RM18A-ChibiOS18-Core/chibios/os/hal/ports/STM32/LLD/ADCv2/hal_adc_lld.h"
 2662              		.file 36 "./RM18A-ChibiOS18-Core/chibios/os/hal/include/hal_can.h"
 2663              		.file 37 "./RM18A-ChibiOS18-Core/chibios/os/hal/ports/STM32/LLD/CANv1/hal_can_lld.h"
 2664              		.file 38 "./RM18A-ChibiOS18-Core/chibios/os/hal/include/hal_icu.h"
 2665              		.file 39 "./RM18A-ChibiOS18-Core/chibios/os/hal/ports/STM32/LLD/TIMv1/hal_icu_lld.h"
 2666              		.file 40 "./RM18A-ChibiOS18-Core/chibios/os/hal/include/hal_pwm.h"
 2667              		.file 41 "./RM18A-ChibiOS18-Core/chibios/os/hal/ports/STM32/LLD/TIMv1/hal_pwm_lld.h"
 2668              		.file 42 "./RM18A-ChibiOS18-Core/chibios/os/hal/include/hal_serial.h"
 2669              		.file 43 "./RM18A-ChibiOS18-Core/chibios/os/hal/ports/STM32/LLD/USARTv1/hal_serial_lld.h"
 2670              		.file 44 "./RM18A-ChibiOS18-Core/chibios/os/hal/include/hal_spi.h"
 2671              		.file 45 "./RM18A-ChibiOS18-Core/chibios/os/hal/ports/STM32/LLD/SPIv1/hal_spi_lld.h"
 2672              		.file 46 "./RM18A-ChibiOS18-Core/chibios/os/hal/include/hal_uart.h"
 2673              		.file 47 "./RM18A-ChibiOS18-Core/chibios/os/hal/ports/STM32/LLD/USARTv1/hal_uart_lld.h"
 2674              		.file 48 "./RM18A-ChibiOS18-Core/chibios/os/hal/include/hal_usb.h"
 2675              		.file 49 "./RM18A-ChibiOS18-Core/chibios/os/hal/ports/STM32/LLD/OTGv1/hal_usb_lld.h"
 2676              		.file 50 "./RM18A-ChibiOS18-Core/chibios/os/hal/ports/STM32/LLD/OTGv1/stm32_otg.h"
 2677              		.file 51 "./RM18A-ChibiOS18-Core/chibios/os/rt/include/chthreads.h"
 2678              		.file 52 "<built-in>"