ARM GAS  /tmp/ccxvl19p.s 			page 1


   1              		.cpu cortex-m4
   2              		.eabi_attribute 27, 1
   3              		.eabi_attribute 28, 1
   4              		.eabi_attribute 20, 1
   5              		.eabi_attribute 21, 1
   6              		.eabi_attribute 23, 3
   7              		.eabi_attribute 24, 1
   8              		.eabi_attribute 25, 1
   9              		.eabi_attribute 26, 1
  10              		.eabi_attribute 30, 2
  11              		.eabi_attribute 34, 1
  12              		.eabi_attribute 18, 4
  13              		.file	"hal_usb_lld.c"
  14              		.text
  15              	.Ltext0:
  16              		.cfi_sections	.debug_frame
  17              		.section	.text.Vector14C,"ax",%progbits
  18              		.align	1
  19              		.p2align 2,,3
  20              		.global	Vector14C
  21              		.syntax unified
  22              		.thumb
  23              		.thumb_func
  24              		.fpu fpv4-sp-d16
  25              		.type	Vector14C, %function
  26              	Vector14C:
  27              	.LFB342:
  28              		.file 1 "./RM18A-ChibiOS18-Core/chibios/os/hal/ports/STM32/LLD/OTGv1/hal_usb_lld.c"
  29              		.loc 1 674 0
  30              		.cfi_startproc
  31              		@ args = 0, pretend = 0, frame = 16
  32              		@ frame_needed = 0, uses_anonymous_args = 0
  33              	.LVL0:
  34 0000 2DE9F04F 		push	{r4, r5, r6, r7, r8, r9, r10, fp, lr}
  35              		.cfi_def_cfa_offset 36
  36              		.cfi_offset 4, -36
  37              		.cfi_offset 5, -32
  38              		.cfi_offset 6, -28
  39              		.cfi_offset 7, -24
  40              		.cfi_offset 8, -20
  41              		.cfi_offset 9, -16
  42              		.cfi_offset 10, -12
  43              		.cfi_offset 11, -8
  44              		.cfi_offset 14, -4
  45              	.LBB335:
  46              	.LBB336:
  47              		.loc 1 529 0
  48 0004 BA4C     		ldr	r4, .L347
  49 0006 D4F854A0 		ldr	r10, [r4, #84]
  50              	.LVL1:
  51              		.loc 1 532 0
  52 000a DAF81420 		ldr	r2, [r10, #20]
  53              	.LVL2:
  54              		.loc 1 533 0
  55 000e DAF81830 		ldr	r3, [r10, #24]
  56 0012 02EA030B 		and	fp, r2, r3
  57              	.LVL3:
ARM GAS  /tmp/ccxvl19p.s 			page 2


  58              		.loc 1 537 0
  59 0016 1BF48055 		ands	r5, fp, #4096
  60              	.LBE336:
  61              	.LBE335:
  62              		.loc 1 674 0
  63 001a 85B0     		sub	sp, sp, #20
  64              		.cfi_def_cfa_offset 56
  65              	.LBB539:
  66              	.LBB536:
  67              		.loc 1 534 0
  68 001c CAF814B0 		str	fp, [r10, #20]
  69              		.loc 1 537 0
  70 0020 40F05E81 		bne	.L321
  71              		.loc 1 546 0
  72 0024 BBF1000F 		cmp	fp, #0
  73 0028 4CDB     		blt	.L322
  74              		.loc 1 561 0
  75 002a 1BF4006F 		tst	fp, #2048
  76 002e 40F02381 		bne	.L323
  77              	.L6:
  78              		.loc 1 567 0
  79 0032 1BF4005F 		tst	fp, #8192
  80 0036 0ED0     		beq	.L7
  81              	.L337:
  82              		.loc 1 569 0
  83 0038 DAF80838 		ldr	r3, [r10, #2056]
  84 003c 13F0060F 		tst	r3, #6
  85              		.loc 1 570 0
  86 0040 DAF80C30 		ldr	r3, [r10, #12]
  87 0044 23F47053 		bic	r3, r3, #15360
  88 0048 0CBF     		ite	eq
  89 004a 43F41053 		orreq	r3, r3, #9216
  90              		.loc 1 574 0
  91 004e 43F4A053 		orrne	r3, r3, #5120
  92 0052 CAF80C30 		str	r3, [r10, #12]
  93              	.L7:
  94              		.loc 1 580 0
  95 0056 1BF0080F 		tst	fp, #8
  96 005a 04D0     		beq	.L9
  97              		.loc 1 581 0
  98 005c 6368     		ldr	r3, [r4, #4]
  99 005e DB68     		ldr	r3, [r3, #12]
 100 0060 0BB1     		cbz	r3, .L9
 101 0062 A348     		ldr	r0, .L347
 102 0064 9847     		blx	r3
 103              	.LVL4:
 104              	.L9:
 105              		.loc 1 585 0
 106 0066 1BF4801F 		tst	fp, #1048576
 107 006a 79D1     		bne	.L324
 108              		.loc 1 590 0
 109 006c 1BF4001F 		tst	fp, #2097152
 110 0070 40F00A81 		bne	.L325
 111              	.LVL5:
 112              	.L22:
 113              		.loc 1 596 0
 114 0074 1BF0100F 		tst	fp, #16
ARM GAS  /tmp/ccxvl19p.s 			page 3


 115 0078 3BD1     		bne	.L326
 116              	.L28:
 117              		.loc 1 602 0
 118 007a 1BF4002F 		tst	fp, #524288
 119              		.loc 1 601 0
 120 007e DAF81858 		ldr	r5, [r10, #2072]
 121              	.LVL6:
 122              		.loc 1 602 0
 123 0082 0BD0     		beq	.L48
 124              		.loc 1 603 0
 125 0084 E903     		lsls	r1, r5, #15
 126 0086 00F16083 		bmi	.L327
 127              	.L50:
 128              		.loc 1 605 0
 129 008a A903     		lsls	r1, r5, #14
 130 008c 00F13883 		bmi	.L328
 131              	.L58:
 132              		.loc 1 607 0
 133 0090 6903     		lsls	r1, r5, #13
 134 0092 00F11083 		bmi	.L329
 135              	.L62:
 136              		.loc 1 609 0
 137 0096 2903     		lsls	r1, r5, #12
 138 0098 00F18B81 		bmi	.L330
 139              	.L48:
 140              		.loc 1 632 0
 141 009c 1BF4802F 		tst	fp, #262144
 142 00a0 0BD0     		beq	.L3
 143              		.loc 1 633 0
 144 00a2 E907     		lsls	r1, r5, #31
 145 00a4 00F13F82 		bmi	.L331
 146              	.L81:
 147              		.loc 1 635 0
 148 00a8 A907     		lsls	r1, r5, #30
 149 00aa 00F1D981 		bmi	.L332
 150              	.L96:
 151              		.loc 1 637 0
 152 00ae 6907     		lsls	r1, r5, #29
 153 00b0 00F19E82 		bmi	.L333
 154              	.L111:
 155              		.loc 1 639 0
 156 00b4 2D07     		lsls	r5, r5, #28
 157              	.LVL7:
 158 00b6 00F11D81 		bmi	.L334
 159              	.L3:
 160              	.LVL8:
 161              	.LBE536:
 162              	.LBE539:
 163              		.loc 1 681 0
 164 00ba 05B0     		add	sp, sp, #20
 165              		.cfi_remember_state
 166              		.cfi_def_cfa_offset 36
 167              		@ sp needed
 168 00bc BDE8F04F 		pop	{r4, r5, r6, r7, r8, r9, r10, fp, lr}
 169              		.cfi_restore 14
 170              		.cfi_restore 11
 171              		.cfi_restore 10
ARM GAS  /tmp/ccxvl19p.s 			page 4


 172              		.cfi_restore 9
 173              		.cfi_restore 8
 174              		.cfi_restore 7
 175              		.cfi_restore 6
 176              		.cfi_restore 5
 177              		.cfi_restore 4
 178              		.cfi_def_cfa_offset 0
 179              		.loc 1 680 0
 180 00c0 FFF7FEBF 		b	_port_irq_epilogue
 181              	.LVL9:
 182              	.L322:
 183              		.cfi_restore_state
 184              	.LBB540:
 185              	.LBB537:
 186              		.loc 1 549 0
 187 00c4 DAF8003E 		ldr	r3, [r10, #3584]
 188 00c8 9A07     		lsls	r2, r3, #30
 189 00ca 05D0     		beq	.L5
 190              		.loc 1 551 0
 191 00cc DAF8003E 		ldr	r3, [r10, #3584]
 192 00d0 23F00303 		bic	r3, r3, #3
 193 00d4 CAF8003E 		str	r3, [r10, #3584]
 194              	.L5:
 195              		.loc 1 555 0
 196 00d8 DAF80438 		ldr	r3, [r10, #2052]
 197              		.loc 1 557 0
 198 00dc 8448     		ldr	r0, .L347
 199              		.loc 1 555 0
 200 00de 23F00103 		bic	r3, r3, #1
 201 00e2 CAF80438 		str	r3, [r10, #2052]
 202              		.loc 1 557 0
 203 00e6 FFF7FEFF 		bl	_usb_wakeup
 204              	.LVL10:
 205              		.loc 1 561 0
 206 00ea 1BF4006F 		tst	fp, #2048
 207 00ee A0D0     		beq	.L6
 208 00f0 C2E0     		b	.L323
 209              	.LVL11:
 210              	.L326:
 211              	.LBB337:
 212              	.LBB338:
 213              		.loc 1 285 0
 214 00f2 656D     		ldr	r5, [r4, #84]
 215 00f4 2B6A     		ldr	r3, [r5, #32]
 216              	.LVL12:
 217              		.loc 1 291 0
 218 00f6 03F4F011 		and	r1, r3, #1966080
 219 00fa B1F5802F 		cmp	r1, #262144
 220              		.loc 1 288 0
 221 00fe C3F30A12 		ubfx	r2, r3, #4, #11
 222              	.LVL13:
 223              		.loc 1 289 0
 224 0102 03F00F03 		and	r3, r3, #15
 225              	.LVL14:
 226              		.loc 1 291 0
 227 0106 00F07981 		beq	.L29
 228 010a B1F5402F 		cmp	r1, #786432
ARM GAS  /tmp/ccxvl19p.s 			page 5


 229 010e B4D1     		bne	.L28
 230              		.loc 1 293 0
 231 0110 04EB8303 		add	r3, r4, r3, lsl #2
 232              	.LVL15:
 233 0114 DB68     		ldr	r3, [r3, #12]
 234 0116 1E6A     		ldr	r6, [r3, #32]
 235              	.LVL16:
 236              	.LBB339:
 237              	.LBB340:
 238              		.loc 1 262 0
 239 0118 002A     		cmp	r2, #0
 240 011a AED0     		beq	.L28
 241 011c 531E     		subs	r3, r2, #1
 242 011e 072B     		cmp	r3, #7
 243 0120 28BF     		it	cs
 244 0122 0723     		movcs	r3, #7
 245              		.loc 1 259 0
 246 0124 0020     		movs	r0, #0
 247 0126 0133     		adds	r3, r3, #1
 248              		.loc 1 260 0
 249 0128 0146     		mov	r1, r0
 250              		.loc 1 264 0
 251 012a 05F58057 		add	r7, r5, #4096
 252              	.LVL17:
 253              	.L32:
 254              		.loc 1 263 0
 255 012e 11F0030F 		tst	r1, #3
 256 0132 40F08581 		bne	.L33
 257              		.loc 1 264 0
 258 0136 3868     		ldr	r0, [r7]
 259              	.LVL18:
 260              		.loc 1 267 0
 261 0138 06F8010B 		strb	r0, [r6], #1
 262              	.LVL19:
 263              		.loc 1 270 0
 264 013c 0131     		adds	r1, r1, #1
 265              	.LVL20:
 266              		.loc 1 262 0
 267 013e 8B42     		cmp	r3, r1
 268              		.loc 1 268 0
 269 0140 4FEA1020 		lsr	r0, r0, #8
 270              	.LVL21:
 271              		.loc 1 262 0
 272 0144 F3D1     		bne	.L32
 273              	.L35:
 274 0146 9A42     		cmp	r2, r3
 275 0148 97D9     		bls	.L28
 276              		.loc 1 264 0
 277 014a 05F58055 		add	r5, r5, #4096
 278              	.LVL22:
 279              	.L37:
 280              		.loc 1 263 0
 281 014e 13F0030F 		tst	r3, #3
 282              		.loc 1 270 0
 283 0152 03F10103 		add	r3, r3, #1
 284              	.LVL23:
 285              		.loc 1 264 0
ARM GAS  /tmp/ccxvl19p.s 			page 6


 286 0156 08BF     		it	eq
 287 0158 2968     		ldreq	r1, [r5]
 288              		.loc 1 262 0
 289 015a 9A42     		cmp	r2, r3
 290 015c F7D1     		bne	.L37
 291 015e 8CE7     		b	.L28
 292              	.LVL24:
 293              	.L324:
 294              	.LBE340:
 295              	.LBE339:
 296              	.LBE338:
 297              	.LBE337:
 298              	.LBB349:
 299              	.LBB350:
 300              		.loc 1 472 0
 301 0160 D4F85480 		ldr	r8, [r4, #84]
 302              	.LVL25:
 303              		.loc 1 474 0
 304 0164 4FF00009 		mov	r9, #0
 305              		.loc 1 487 0
 306 0168 CDE900AB 		strd	r10, fp, [sp]
 307 016c 09E0     		b	.L21
 308              	.LVL26:
 309              	.L319:
 310 016e 09F1010C 		add	ip, r9, #1
 311              	.LVL27:
 312              	.L17:
 313              		.loc 1 474 0
 314 0172 A36D     		ldr	r3, [r4, #88]
 315 0174 9B68     		ldr	r3, [r3, #8]
 316 0176 5FFA8CF9 		uxtb	r9, ip
 317              	.LVL28:
 318 017a 9945     		cmp	r9, r3
 319 017c 4D46     		mov	r5, r9
 320 017e 00F26881 		bhi	.L335
 321              	.LVL29:
 322              	.L21:
 323 0182 08EB4912 		add	r2, r8, r9, lsl #5
 324              		.loc 1 475 0
 325 0186 D2F80039 		ldr	r3, [r2, #2304]
 326 018a 03F44023 		and	r3, r3, #786432
 327 018e B3F5802F 		cmp	r3, #262144
 328 0192 ECD1     		bne	.L319
 329              		.loc 1 476 0
 330 0194 D2F80039 		ldr	r3, [r2, #2304]
 331              		.loc 1 475 0
 332 0198 002B     		cmp	r3, #0
 333 019a E8DA     		bge	.L319
 334              		.loc 1 479 0
 335 019c D2F80039 		ldr	r3, [r2, #2304]
 336 01a0 43F09043 		orr	r3, r3, #1207959552
 337 01a4 C2F80039 		str	r3, [r2, #2304]
 338              	.L12:
 339              		.loc 1 480 0
 340 01a8 D2F80039 		ldr	r3, [r2, #2304]
 341 01ac 002B     		cmp	r3, #0
 342 01ae FBDB     		blt	.L12
ARM GAS  /tmp/ccxvl19p.s 			page 7


 343              	.LBB351:
 344              	.LBB352:
 345              		.loc 1 183 0
 346 01b0 AD01     		lsls	r5, r5, #6
 347              	.LBE352:
 348              	.LBE351:
 349              		.loc 1 484 0
 350 01b2 626D     		ldr	r2, [r4, #84]
 351              	.LVL30:
 352              	.LBB357:
 353              	.LBB355:
 354              		.loc 1 183 0
 355 01b4 45F02005 		orr	r5, r5, #32
 356 01b8 1561     		str	r5, [r2, #16]
 357              	.L13:
 358              		.loc 1 184 0
 359 01ba 1369     		ldr	r3, [r2, #16]
 360 01bc 9B06     		lsls	r3, r3, #26
 361 01be FCD4     		bmi	.L13
 362              	.LVL31:
 363              	.LBE355:
 364              	.LBE357:
 365              		.loc 1 487 0
 366 01c0 09F10205 		add	r5, r9, #2
 367 01c4 04EB8505 		add	r5, r4, r5, lsl #2
 368              	.LBB358:
 369              	.LBB356:
 370              	.LBB353:
 371              	.LBB354:
 372              		.file 2 "./RM18A-ChibiOS18-Core/chibios/os/hal/osal/rt/osal.h"
 373              		.loc 2 591 0
 374 01c8 1220     		movs	r0, #18
 375 01ca FFF7FEFF 		bl	chSysPolledDelayX
 376              	.LVL32:
 377              	.LBE354:
 378              	.LBE353:
 379              	.LBE356:
 380              	.LBE358:
 381              		.loc 1 487 0
 382 01ce 6B68     		ldr	r3, [r5, #4]
 383 01d0 2189     		ldrh	r1, [r4, #8]
 384 01d2 9E68     		ldr	r6, [r3, #8]
 385 01d4 0122     		movs	r2, #1
 386 01d6 02FA09F2 		lsl	r2, r2, r9
 387 01da 21EA0202 		bic	r2, r1, r2
 388 01de 2281     		strh	r2, [r4, #8]	@ movhi
 389 01e0 1EB1     		cbz	r6, .L14
 390 01e2 4946     		mov	r1, r9
 391 01e4 4248     		ldr	r0, .L347
 392 01e6 B047     		blx	r6
 393              	.LVL33:
 394 01e8 6B68     		ldr	r3, [r5, #4]
 395              	.L14:
 396              	.LBB359:
 397              	.LBB360:
 398              		.loc 1 331 0
 399 01ea D3F814E0 		ldr	lr, [r3, #20]
ARM GAS  /tmp/ccxvl19p.s 			page 8


 400 01ee 626D     		ldr	r2, [r4, #84]
 401 01f0 0292     		str	r2, [sp, #8]
 402 01f2 DEE900A7 		ldrd	r10, r7, [lr]
 403 01f6 5745     		cmp	r7, r10
 404 01f8 28BF     		it	cs
 405 01fa 09F1010C 		addcs	ip, r9, #1
 406 01fe 80F0F882 		bcs	.L15
 407              		.loc 1 345 0
 408 0202 02EB4912 		add	r2, r2, r9, lsl #5
 409              		.loc 1 340 0
 410 0206 B3F810B0 		ldrh	fp, [r3, #16]
 411              		.loc 1 345 0
 412 020a D2F81839 		ldr	r3, [r2, #2328]
 413              		.loc 1 339 0
 414 020e AAEB0700 		sub	r0, r10, r7
 415 0212 5845     		cmp	r0, fp
 416              		.loc 1 345 0
 417 0214 9BB2     		uxth	r3, r3
 418 0216 28BF     		it	cs
 419 0218 5846     		movcs	r0, fp
 420              	.LVL34:
 421 021a B0EB830F 		cmp	r0, r3, lsl #2
 422 021e 09F1010C 		add	ip, r9, #1
 423 0222 A6D8     		bhi	.L17
 424              		.loc 1 351 0
 425 0224 029B     		ldr	r3, [sp, #8]
 426 0226 DEF80860 		ldr	r6, [lr, #8]
 427 022a CDF80C90 		str	r9, [sp, #12]
 428 022e 03EB0C35 		add	r5, r3, ip, lsl #12
 429 0232 9146     		mov	r9, r2
 430              	.LVL35:
 431              	.L16:
 432              	.LBB361:
 433              	.LBB362:
 434              		.loc 1 236 0
 435 0234 3368     		ldr	r3, [r6]
 436 0236 2B60     		str	r3, [r5]
 437              		.loc 1 237 0
 438 0238 0428     		cmp	r0, #4
 439 023a 0AD9     		bls	.L18
 440 023c 421F     		subs	r2, r0, #5
 441 023e 22F00302 		bic	r2, r2, #3
 442 0242 0432     		adds	r2, r2, #4
 443 0244 3244     		add	r2, r2, r6
 444 0246 3346     		mov	r3, r6
 445              	.LVL36:
 446              	.L19:
 447              		.loc 1 236 0
 448 0248 53F8041F 		ldr	r1, [r3, #4]!
 449              	.LVL37:
 450 024c 2960     		str	r1, [r5]
 451              		.loc 1 237 0
 452 024e 9342     		cmp	r3, r2
 453 0250 FAD1     		bne	.L19
 454              	.LVL38:
 455              	.L18:
 456              	.LBE362:
ARM GAS  /tmp/ccxvl19p.s 			page 9


 457              	.LBE361:
 458              		.loc 1 355 0
 459 0252 0744     		add	r7, r7, r0
 460              		.loc 1 354 0
 461 0254 0644     		add	r6, r6, r0
 462              		.loc 1 331 0
 463 0256 5745     		cmp	r7, r10
 464              		.loc 1 355 0
 465 0258 CEE90176 		strd	r7, r6, [lr, #4]
 466              		.loc 1 331 0
 467 025c 80F0C782 		bcs	.L336
 468              		.loc 1 339 0
 469 0260 AAEB0700 		sub	r0, r10, r7
 470              	.LVL39:
 471              		.loc 1 345 0
 472 0264 D9F81839 		ldr	r3, [r9, #2328]
 473 0268 5845     		cmp	r0, fp
 474 026a 9BB2     		uxth	r3, r3
 475 026c 28BF     		it	cs
 476 026e 5846     		movcs	r0, fp
 477              	.LVL40:
 478 0270 B0EB830F 		cmp	r0, r3, lsl #2
 479 0274 DED9     		bls	.L16
 480 0276 7CE7     		b	.L17
 481              	.LVL41:
 482              	.L323:
 483              	.LBE360:
 484              	.LBE359:
 485              	.LBE350:
 486              	.LBE349:
 487              		.loc 1 563 0
 488 0278 1D48     		ldr	r0, .L347
 489 027a FFF7FEFF 		bl	_usb_suspend
 490              	.LVL42:
 491              		.loc 1 567 0
 492 027e 1BF4005F 		tst	fp, #8192
 493 0282 3FF4E8AE 		beq	.L7
 494 0286 D7E6     		b	.L337
 495              	.LVL43:
 496              	.L325:
 497              	.LBB366:
 498              	.LBB367:
 499              		.loc 1 504 0
 500 0288 666D     		ldr	r6, [r4, #84]
 501              	.LVL44:
 502              		.loc 1 516 0
 503 028a DFF86480 		ldr	r8, .L347
 504              		.loc 1 506 0
 505 028e 0025     		movs	r5, #0
 506              		.loc 1 516 0
 507 0290 0127     		movs	r7, #1
 508 0292 06E0     		b	.L26
 509              	.LVL45:
 510              	.L24:
 511              		.loc 1 506 0
 512 0294 A36D     		ldr	r3, [r4, #88]
 513 0296 0135     		adds	r5, r5, #1
ARM GAS  /tmp/ccxvl19p.s 			page 10


 514              	.LVL46:
 515 0298 9B68     		ldr	r3, [r3, #8]
 516 029a EDB2     		uxtb	r5, r5
 517              	.LVL47:
 518 029c 9D42     		cmp	r5, r3
 519 029e 3FF6E9AE 		bhi	.L22
 520              	.LVL48:
 521              	.L26:
 522 02a2 06EB4512 		add	r2, r6, r5, lsl #5
 523              		.loc 1 507 0
 524 02a6 D2F8003B 		ldr	r3, [r2, #2816]
 525 02aa 03F44023 		and	r3, r3, #786432
 526 02ae B3F5802F 		cmp	r3, #262144
 527 02b2 EFD1     		bne	.L24
 528              		.loc 1 508 0
 529 02b4 D2F8003B 		ldr	r3, [r2, #2816]
 530              		.loc 1 507 0
 531 02b8 002B     		cmp	r3, #0
 532 02ba EBDA     		bge	.L24
 533              		.loc 1 516 0
 534 02bc 04EB8503 		add	r3, r4, r5, lsl #2
 535 02c0 6289     		ldrh	r2, [r4, #10]
 536 02c2 D968     		ldr	r1, [r3, #12]
 537 02c4 07FA05F3 		lsl	r3, r7, r5
 538 02c8 D1F80C90 		ldr	r9, [r1, #12]
 539 02cc 22EA0303 		bic	r3, r2, r3
 540 02d0 2946     		mov	r1, r5
 541 02d2 4046     		mov	r0, r8
 542 02d4 6381     		strh	r3, [r4, #10]	@ movhi
 543 02d6 B9F1000F 		cmp	r9, #0
 544 02da DBD0     		beq	.L24
 545 02dc C847     		blx	r9
 546              	.LVL49:
 547 02de D9E7     		b	.L24
 548              	.LVL50:
 549              	.L321:
 550              	.LBE367:
 551              	.LBE366:
 552              		.loc 1 539 0
 553 02e0 2046     		mov	r0, r4
 554 02e2 FFF7FEFF 		bl	_usb_reset
 555              	.LVL51:
 556              	.LBE537:
 557              	.LBE540:
 558              		.loc 1 681 0
 559 02e6 05B0     		add	sp, sp, #20
 560              		.cfi_remember_state
 561              		.cfi_def_cfa_offset 36
 562              		@ sp needed
 563 02e8 BDE8F04F 		pop	{r4, r5, r6, r7, r8, r9, r10, fp, lr}
 564              		.cfi_restore 14
 565              		.cfi_restore 11
 566              		.cfi_restore 10
 567              		.cfi_restore 9
 568              		.cfi_restore 8
 569              		.cfi_restore 7
 570              		.cfi_restore 6
ARM GAS  /tmp/ccxvl19p.s 			page 11


 571              		.cfi_restore 5
 572              		.cfi_restore 4
 573              		.cfi_def_cfa_offset 0
 574              		.loc 1 680 0
 575 02ec FFF7FEBF 		b	_port_irq_epilogue
 576              	.LVL52:
 577              	.L348:
 578              		.align	2
 579              	.L347:
 580 02f0 00000000 		.word	.LANCHOR0
 581              	.LVL53:
 582              	.L334:
 583              		.cfi_restore_state
 584              	.LBB541:
 585              	.LBB538:
 586              	.LBB368:
 587              	.LBB369:
 588              		.loc 1 371 0
 589 02f4 656D     		ldr	r5, [r4, #84]
 590              	.LVL54:
 591              		.loc 1 372 0
 592 02f6 D5F86869 		ldr	r6, [r5, #2408]
 593              	.LVL55:
 594              		.loc 1 374 0
 595 02fa C5F86869 		str	r6, [r5, #2408]
 596              		.loc 1 379 0
 597 02fe F007     		lsls	r0, r6, #31
 598 0300 13D5     		bpl	.L116
 599 0302 D5F81038 		ldr	r3, [r5, #2064]
 600 0306 D907     		lsls	r1, r3, #31
 601 0308 0FD5     		bpl	.L116
 602              	.LBB370:
 603              		.loc 1 381 0
 604 030a A169     		ldr	r1, [r4, #24]
 605 030c 4B69     		ldr	r3, [r1, #20]
 606              	.LVL56:
 607              		.loc 1 383 0
 608 030e 1868     		ldr	r0, [r3]
 609 0310 DA68     		ldr	r2, [r3, #12]
 610 0312 9042     		cmp	r0, r2
 611 0314 C0F09682 		bcc	.L338
 612              		.loc 1 395 0
 613 0318 2389     		ldrh	r3, [r4, #8]
 614              	.LVL57:
 615 031a 8A68     		ldr	r2, [r1, #8]
 616 031c 23F00803 		bic	r3, r3, #8
 617 0320 2381     		strh	r3, [r4, #8]	@ movhi
 618 0322 12B1     		cbz	r2, .L116
 619 0324 0321     		movs	r1, #3
 620              	.LVL58:
 621 0326 B148     		ldr	r0, .L349
 622 0328 9047     		blx	r2
 623              	.LVL59:
 624              	.L116:
 625              	.LBE370:
 626              		.loc 1 398 0
 627 032a 3206     		lsls	r2, r6, #24
ARM GAS  /tmp/ccxvl19p.s 			page 12


 628 032c 7FF5C5AE 		bpl	.L3
 629              		.loc 1 399 0
 630 0330 D5F83438 		ldr	r3, [r5, #2100]
 631              		.loc 1 398 0
 632 0334 1B07     		lsls	r3, r3, #28
 633 0336 7FF5C0AE 		bpl	.L3
 634              	.LBB388:
 635              	.LBB389:
 636              		.loc 1 331 0
 637 033a A369     		ldr	r3, [r4, #24]
 638 033c D4F854C0 		ldr	ip, [r4, #84]
 639 0340 5E69     		ldr	r6, [r3, #20]
 640              	.LVL60:
 641 0342 D6E90075 		ldrd	r7, r5, [r6]
 642              	.LVL61:
 643 0346 AF42     		cmp	r7, r5
 644 0348 40F25D82 		bls	.L123
 645              		.loc 1 340 0
 646 034c B3F810E0 		ldrh	lr, [r3, #16]
 647              		.loc 1 345 0
 648 0350 DCF87839 		ldr	r3, [ip, #2424]
 649              		.loc 1 339 0
 650 0354 791B     		subs	r1, r7, r5
 651              	.LVL62:
 652 0356 7145     		cmp	r1, lr
 653 0358 28BF     		it	cs
 654 035a 7146     		movcs	r1, lr
 655              	.LVL63:
 656              		.loc 1 345 0
 657 035c 9BB2     		uxth	r3, r3
 658 035e B1EB830F 		cmp	r1, r3, lsl #2
 659 0362 3FF6AAAE 		bhi	.L3
 660 0366 B468     		ldr	r4, [r6, #8]
 661 0368 0CF58040 		add	r0, ip, #16384
 662 036c B846     		mov	r8, r7
 663              	.L124:
 664              	.LVL64:
 665              	.LBB390:
 666              	.LBB391:
 667              		.loc 1 236 0
 668 036e 2368     		ldr	r3, [r4]
 669 0370 0360     		str	r3, [r0]
 670              		.loc 1 237 0
 671 0372 0429     		cmp	r1, #4
 672 0374 0AD9     		bls	.L125
 673 0376 4A1F     		subs	r2, r1, #5
 674 0378 22F00302 		bic	r2, r2, #3
 675 037c 0432     		adds	r2, r2, #4
 676 037e 2244     		add	r2, r2, r4
 677 0380 2346     		mov	r3, r4
 678              	.LVL65:
 679              	.L126:
 680              		.loc 1 236 0
 681 0382 53F8047F 		ldr	r7, [r3, #4]!
 682              	.LVL66:
 683 0386 0760     		str	r7, [r0]
 684              		.loc 1 237 0
ARM GAS  /tmp/ccxvl19p.s 			page 13


 685 0388 9342     		cmp	r3, r2
 686 038a FAD1     		bne	.L126
 687              	.LVL67:
 688              	.L125:
 689              	.LBE391:
 690              	.LBE390:
 691              		.loc 1 355 0
 692 038c 0D44     		add	r5, r5, r1
 693              		.loc 1 354 0
 694 038e 0C44     		add	r4, r4, r1
 695              		.loc 1 331 0
 696 0390 A845     		cmp	r8, r5
 697              		.loc 1 355 0
 698 0392 C6E90154 		strd	r5, r4, [r6, #4]
 699              		.loc 1 331 0
 700 0396 40F23682 		bls	.L123
 701              		.loc 1 339 0
 702 039a A8EB0501 		sub	r1, r8, r5
 703              	.LVL68:
 704              		.loc 1 345 0
 705 039e DCF87839 		ldr	r3, [ip, #2424]
 706 03a2 7145     		cmp	r1, lr
 707 03a4 9BB2     		uxth	r3, r3
 708 03a6 28BF     		it	cs
 709 03a8 7146     		movcs	r1, lr
 710              	.LVL69:
 711 03aa B1EB830F 		cmp	r1, r3, lsl #2
 712 03ae DED9     		bls	.L124
 713 03b0 83E6     		b	.L3
 714              	.LVL70:
 715              	.L330:
 716              	.LBE389:
 717              	.LBE388:
 718              	.LBE369:
 719              	.LBE368:
 720              	.LBB399:
 721              	.LBB400:
 722              		.loc 1 414 0
 723 03b2 666D     		ldr	r6, [r4, #84]
 724              	.LVL71:
 725              		.loc 1 415 0
 726 03b4 D6F8687B 		ldr	r7, [r6, #2920]
 727              	.LVL72:
 728              		.loc 1 418 0
 729 03b8 C6F8687B 		str	r7, [r6, #2920]
 730              		.loc 1 420 0
 731 03bc 3A07     		lsls	r2, r7, #28
 732 03be 08D5     		bpl	.L66
 733 03c0 D6F81438 		ldr	r3, [r6, #2068]
 734 03c4 1B07     		lsls	r3, r3, #28
 735 03c6 04D5     		bpl	.L66
 736              		.loc 1 423 0
 737 03c8 A369     		ldr	r3, [r4, #24]
 738 03ca 8848     		ldr	r0, .L349
 739 03cc 5B68     		ldr	r3, [r3, #4]
 740 03ce 0321     		movs	r1, #3
 741 03d0 9847     		blx	r3
ARM GAS  /tmp/ccxvl19p.s 			page 14


 742              	.LVL73:
 743              	.L66:
 744              		.loc 1 426 0
 745 03d2 FF07     		lsls	r7, r7, #31
 746              	.LVL74:
 747 03d4 7FF562AE 		bpl	.L48
 748 03d8 D6F81438 		ldr	r3, [r6, #2068]
 749 03dc D807     		lsls	r0, r3, #31
 750 03de 7FF55DAE 		bpl	.L48
 751              	.LBB401:
 752              		.loc 1 430 0
 753 03e2 A269     		ldr	r2, [r4, #24]
 754              	.LVL75:
 755              		.loc 1 459 0
 756 03e4 6389     		ldrh	r3, [r4, #10]
 757 03e6 D268     		ldr	r2, [r2, #12]
 758              	.LVL76:
 759 03e8 23F00803 		bic	r3, r3, #8
 760 03ec 6381     		strh	r3, [r4, #10]	@ movhi
 761 03ee 002A     		cmp	r2, #0
 762 03f0 3FF454AE 		beq	.L48
 763 03f4 0321     		movs	r1, #3
 764 03f6 7D48     		ldr	r0, .L349
 765 03f8 9047     		blx	r2
 766              	.LVL77:
 767 03fa 4FE6     		b	.L48
 768              	.LVL78:
 769              	.L29:
 770              	.LBE401:
 771              	.LBE400:
 772              	.LBE399:
 773              	.LBB402:
 774              	.LBB347:
 775              		.loc 1 300 0
 776 03fc 981C     		adds	r0, r3, #2
 777 03fe 04EB8003 		add	r3, r4, r0, lsl #2
 778              	.LVL79:
 779 0402 5B68     		ldr	r3, [r3, #4]
 780 0404 9969     		ldr	r1, [r3, #24]
 781              		.loc 1 299 0
 782 0406 D1E90037 		ldrd	r3, r7, [r1]
 783 040a 8E68     		ldr	r6, [r1, #8]
 784 040c DB1B     		subs	r3, r3, r7
 785              	.LVL80:
 786              	.LBB342:
 787              	.LBB343:
 788              		.loc 1 262 0
 789 040e 92B1     		cbz	r2, .L38
 790 0410 002B     		cmp	r3, #0
 791 0412 40F0CC81 		bne	.L339
 792              	.LVL81:
 793              	.L39:
 794              		.loc 1 264 0
 795 0416 05F58055 		add	r5, r5, #4096
 796              	.LVL82:
 797              	.L45:
 798              		.loc 1 263 0
ARM GAS  /tmp/ccxvl19p.s 			page 15


 799 041a 13F0030F 		tst	r3, #3
 800              		.loc 1 270 0
 801 041e 03F10103 		add	r3, r3, #1
 802              	.LVL83:
 803              		.loc 1 264 0
 804 0422 08BF     		it	eq
 805 0424 2968     		ldreq	r1, [r5]
 806              		.loc 1 262 0
 807 0426 9A42     		cmp	r2, r3
 808 0428 F7D8     		bhi	.L45
 809              	.LVL84:
 810              	.L46:
 811 042a 04EB8003 		add	r3, r4, r0, lsl #2
 812              	.LVL85:
 813 042e 5B68     		ldr	r3, [r3, #4]
 814 0430 9969     		ldr	r1, [r3, #24]
 815 0432 D1E90176 		ldrd	r7, r6, [r1, #4]
 816              	.L38:
 817              	.LVL86:
 818              	.LBE343:
 819              	.LBE342:
 820              		.loc 1 304 0
 821 0436 1644     		add	r6, r6, r2
 822              		.loc 1 305 0
 823 0438 3A44     		add	r2, r2, r7
 824              	.LVL87:
 825 043a C1E90126 		strd	r2, r6, [r1, #4]
 826 043e 1CE6     		b	.L28
 827              	.LVL88:
 828              	.L33:
 829              	.LBB345:
 830              	.LBB341:
 831              		.loc 1 270 0
 832 0440 0131     		adds	r1, r1, #1
 833              	.LVL89:
 834              		.loc 1 262 0
 835 0442 9942     		cmp	r1, r3
 836              		.loc 1 267 0
 837 0444 06F8010B 		strb	r0, [r6], #1
 838              	.LVL90:
 839              		.loc 1 268 0
 840 0448 4FEA1020 		lsr	r0, r0, #8
 841              	.LVL91:
 842              		.loc 1 262 0
 843 044c 7FF46FAE 		bne	.L32
 844 0450 79E6     		b	.L35
 845              	.LVL92:
 846              	.L335:
 847 0452 DDE900AB 		ldrd	r10, fp, [sp]
 848              	.LBE341:
 849              	.LBE345:
 850              	.LBE347:
 851              	.LBE402:
 852              		.loc 1 590 0
 853 0456 1BF4001F 		tst	fp, #2097152
 854 045a 3FF40BAE 		beq	.L22
 855 045e 13E7     		b	.L325
ARM GAS  /tmp/ccxvl19p.s 			page 16


 856              	.LVL93:
 857              	.L332:
 858              	.LBB403:
 859              	.LBB404:
 860              		.loc 1 371 0
 861 0460 666D     		ldr	r6, [r4, #84]
 862              	.LVL94:
 863              		.loc 1 372 0
 864 0462 D6F82879 		ldr	r7, [r6, #2344]
 865              	.LVL95:
 866              		.loc 1 374 0
 867 0466 C6F82879 		str	r7, [r6, #2344]
 868              		.loc 1 379 0
 869 046a FA07     		lsls	r2, r7, #31
 870 046c 13D5     		bpl	.L87
 871 046e D6F81038 		ldr	r3, [r6, #2064]
 872 0472 DB07     		lsls	r3, r3, #31
 873 0474 0FD5     		bpl	.L87
 874              	.LBB405:
 875              		.loc 1 381 0
 876 0476 2169     		ldr	r1, [r4, #16]
 877 0478 4B69     		ldr	r3, [r1, #20]
 878              	.LVL96:
 879              		.loc 1 383 0
 880 047a 1868     		ldr	r0, [r3]
 881 047c DA68     		ldr	r2, [r3, #12]
 882 047e 9042     		cmp	r0, r2
 883 0480 C0F08082 		bcc	.L340
 884              		.loc 1 395 0
 885 0484 2389     		ldrh	r3, [r4, #8]
 886              	.LVL97:
 887 0486 8A68     		ldr	r2, [r1, #8]
 888 0488 23F00203 		bic	r3, r3, #2
 889 048c 2381     		strh	r3, [r4, #8]	@ movhi
 890 048e 12B1     		cbz	r2, .L87
 891 0490 0121     		movs	r1, #1
 892              	.LVL98:
 893 0492 5648     		ldr	r0, .L349
 894 0494 9047     		blx	r2
 895              	.LVL99:
 896              	.L87:
 897              	.LBE405:
 898              		.loc 1 398 0
 899 0496 3F06     		lsls	r7, r7, #24
 900              	.LVL100:
 901 0498 7FF509AE 		bpl	.L96
 902              		.loc 1 399 0
 903 049c D6F83438 		ldr	r3, [r6, #2100]
 904              		.loc 1 398 0
 905 04a0 9807     		lsls	r0, r3, #30
 906 04a2 7FF504AE 		bpl	.L96
 907              	.LBB423:
 908              	.LBB424:
 909              		.loc 1 331 0
 910 04a6 2369     		ldr	r3, [r4, #16]
 911 04a8 D4F85480 		ldr	r8, [r4, #84]
 912 04ac D3F814C0 		ldr	ip, [r3, #20]
ARM GAS  /tmp/ccxvl19p.s 			page 17


 913 04b0 DCE900E7 		ldrd	lr, r7, [ip]
 914 04b4 BE45     		cmp	lr, r7
 915 04b6 40F2AE81 		bls	.L94
 916              		.loc 1 340 0
 917 04ba B3F81090 		ldrh	r9, [r3, #16]
 918              		.loc 1 345 0
 919 04be D8F83839 		ldr	r3, [r8, #2360]
 920              		.loc 1 339 0
 921 04c2 AEEB0701 		sub	r1, lr, r7
 922              	.LVL101:
 923 04c6 4945     		cmp	r1, r9
 924 04c8 28BF     		it	cs
 925 04ca 4946     		movcs	r1, r9
 926              	.LVL102:
 927              		.loc 1 345 0
 928 04cc 9BB2     		uxth	r3, r3
 929 04ce B1EB830F 		cmp	r1, r3, lsl #2
 930 04d2 3FF6ECAD 		bhi	.L96
 931 04d6 DCF80860 		ldr	r6, [ip, #8]
 932              	.LVL103:
 933 04da 08F50050 		add	r0, r8, #8192
 934 04de AA46     		mov	r10, r5
 935              	.LVL104:
 936              	.L95:
 937              	.LBB425:
 938              	.LBB426:
 939              		.loc 1 236 0
 940 04e0 3368     		ldr	r3, [r6]
 941 04e2 0360     		str	r3, [r0]
 942              		.loc 1 237 0
 943 04e4 0429     		cmp	r1, #4
 944 04e6 0AD9     		bls	.L97
 945 04e8 4A1F     		subs	r2, r1, #5
 946 04ea 22F00302 		bic	r2, r2, #3
 947 04ee 0432     		adds	r2, r2, #4
 948 04f0 3244     		add	r2, r2, r6
 949 04f2 3346     		mov	r3, r6
 950              	.LVL105:
 951              	.L98:
 952              		.loc 1 236 0
 953 04f4 53F8045F 		ldr	r5, [r3, #4]!
 954              	.LVL106:
 955 04f8 0560     		str	r5, [r0]
 956              		.loc 1 237 0
 957 04fa 9342     		cmp	r3, r2
 958 04fc FAD1     		bne	.L98
 959              	.LVL107:
 960              	.L97:
 961              	.LBE426:
 962              	.LBE425:
 963              		.loc 1 355 0
 964 04fe 0F44     		add	r7, r7, r1
 965              		.loc 1 354 0
 966 0500 0E44     		add	r6, r6, r1
 967              		.loc 1 331 0
 968 0502 7745     		cmp	r7, lr
 969              		.loc 1 355 0
ARM GAS  /tmp/ccxvl19p.s 			page 18


 970 0504 CCE90176 		strd	r7, r6, [ip, #4]
 971              		.loc 1 331 0
 972 0508 80F08481 		bcs	.L341
 973              		.loc 1 339 0
 974 050c AEEB0701 		sub	r1, lr, r7
 975              	.LVL108:
 976              		.loc 1 345 0
 977 0510 D8F83839 		ldr	r3, [r8, #2360]
 978 0514 4945     		cmp	r1, r9
 979 0516 9BB2     		uxth	r3, r3
 980 0518 28BF     		it	cs
 981 051a 4946     		movcs	r1, r9
 982              	.LVL109:
 983 051c B1EB830F 		cmp	r1, r3, lsl #2
 984 0520 DED9     		bls	.L95
 985 0522 5546     		mov	r5, r10
 986 0524 C3E5     		b	.L96
 987              	.LVL110:
 988              	.L331:
 989              	.LBE424:
 990              	.LBE423:
 991              	.LBE404:
 992              	.LBE403:
 993              	.LBB434:
 994              	.LBB435:
 995              		.loc 1 371 0
 996 0526 666D     		ldr	r6, [r4, #84]
 997              	.LVL111:
 998              		.loc 1 372 0
 999 0528 D6F80879 		ldr	r7, [r6, #2312]
 1000              	.LVL112:
 1001              		.loc 1 374 0
 1002 052c C6F80879 		str	r7, [r6, #2312]
 1003              		.loc 1 379 0
 1004 0530 FA07     		lsls	r2, r7, #31
 1005 0532 13D5     		bpl	.L70
 1006 0534 D6F81038 		ldr	r3, [r6, #2064]
 1007 0538 DB07     		lsls	r3, r3, #31
 1008 053a 0FD5     		bpl	.L70
 1009              	.LBB436:
 1010              		.loc 1 381 0
 1011 053c E168     		ldr	r1, [r4, #12]
 1012 053e 4B69     		ldr	r3, [r1, #20]
 1013              	.LVL113:
 1014              		.loc 1 383 0
 1015 0540 1868     		ldr	r0, [r3]
 1016 0542 DA68     		ldr	r2, [r3, #12]
 1017 0544 9042     		cmp	r0, r2
 1018 0546 C0F0E981 		bcc	.L342
 1019              		.loc 1 395 0
 1020 054a 2389     		ldrh	r3, [r4, #8]
 1021              	.LVL114:
 1022 054c 8A68     		ldr	r2, [r1, #8]
 1023 054e 23F00103 		bic	r3, r3, #1
 1024 0552 2381     		strh	r3, [r4, #8]	@ movhi
 1025 0554 12B1     		cbz	r2, .L70
 1026 0556 0021     		movs	r1, #0
ARM GAS  /tmp/ccxvl19p.s 			page 19


 1027              	.LVL115:
 1028 0558 2448     		ldr	r0, .L349
 1029 055a 9047     		blx	r2
 1030              	.LVL116:
 1031              	.L70:
 1032              	.LBE436:
 1033              		.loc 1 398 0
 1034 055c 3F06     		lsls	r7, r7, #24
 1035              	.LVL117:
 1036 055e 7FF5A3AD 		bpl	.L81
 1037              		.loc 1 399 0
 1038 0562 D6F83438 		ldr	r3, [r6, #2100]
 1039              		.loc 1 398 0
 1040 0566 D807     		lsls	r0, r3, #31
 1041 0568 7FF59EAD 		bpl	.L81
 1042              	.LBB454:
 1043              	.LBB455:
 1044              		.loc 1 331 0
 1045 056c E368     		ldr	r3, [r4, #12]
 1046 056e D4F85480 		ldr	r8, [r4, #84]
 1047 0572 D3F814C0 		ldr	ip, [r3, #20]
 1048 0576 DCE900E7 		ldrd	lr, r7, [ip]
 1049 057a 7745     		cmp	r7, lr
 1050 057c 80F05381 		bcs	.L79
 1051              		.loc 1 340 0
 1052 0580 B3F81090 		ldrh	r9, [r3, #16]
 1053              		.loc 1 345 0
 1054 0584 D8F81839 		ldr	r3, [r8, #2328]
 1055              		.loc 1 339 0
 1056 0588 AEEB0701 		sub	r1, lr, r7
 1057              	.LVL118:
 1058 058c 4945     		cmp	r1, r9
 1059 058e 28BF     		it	cs
 1060 0590 4946     		movcs	r1, r9
 1061              	.LVL119:
 1062              		.loc 1 345 0
 1063 0592 9BB2     		uxth	r3, r3
 1064 0594 B1EB830F 		cmp	r1, r3, lsl #2
 1065 0598 3FF686AD 		bhi	.L81
 1066 059c DCF80860 		ldr	r6, [ip, #8]
 1067              	.LVL120:
 1068 05a0 08F58050 		add	r0, r8, #4096
 1069 05a4 AA46     		mov	r10, r5
 1070              	.LVL121:
 1071              	.L80:
 1072              	.LBB456:
 1073              	.LBB457:
 1074              		.loc 1 236 0
 1075 05a6 3368     		ldr	r3, [r6]
 1076 05a8 0360     		str	r3, [r0]
 1077              		.loc 1 237 0
 1078 05aa 0429     		cmp	r1, #4
 1079 05ac 0AD9     		bls	.L82
 1080 05ae 4A1F     		subs	r2, r1, #5
 1081 05b0 22F00302 		bic	r2, r2, #3
 1082 05b4 0432     		adds	r2, r2, #4
 1083 05b6 3244     		add	r2, r2, r6
ARM GAS  /tmp/ccxvl19p.s 			page 20


 1084 05b8 3346     		mov	r3, r6
 1085              	.LVL122:
 1086              	.L83:
 1087              		.loc 1 236 0
 1088 05ba 53F8045F 		ldr	r5, [r3, #4]!
 1089              	.LVL123:
 1090 05be 0560     		str	r5, [r0]
 1091              		.loc 1 237 0
 1092 05c0 9A42     		cmp	r2, r3
 1093 05c2 FAD1     		bne	.L83
 1094              	.LVL124:
 1095              	.L82:
 1096              	.LBE457:
 1097              	.LBE456:
 1098              		.loc 1 355 0
 1099 05c4 0F44     		add	r7, r7, r1
 1100              		.loc 1 354 0
 1101 05c6 0E44     		add	r6, r6, r1
 1102              		.loc 1 331 0
 1103 05c8 7745     		cmp	r7, lr
 1104              		.loc 1 355 0
 1105 05ca CCE90176 		strd	r7, r6, [ip, #4]
 1106              		.loc 1 331 0
 1107 05ce 80F02981 		bcs	.L343
 1108              		.loc 1 339 0
 1109 05d2 AEEB0701 		sub	r1, lr, r7
 1110              	.LVL125:
 1111              		.loc 1 345 0
 1112 05d6 D8F81839 		ldr	r3, [r8, #2328]
 1113 05da 4945     		cmp	r1, r9
 1114 05dc 9BB2     		uxth	r3, r3
 1115 05de 28BF     		it	cs
 1116 05e0 4946     		movcs	r1, r9
 1117              	.LVL126:
 1118 05e2 B1EB830F 		cmp	r1, r3, lsl #2
 1119 05e6 DED9     		bls	.L80
 1120 05e8 5546     		mov	r5, r10
 1121 05ea 5DE5     		b	.L81
 1122              	.L350:
 1123              		.align	2
 1124              	.L349:
 1125 05ec 00000000 		.word	.LANCHOR0
 1126              	.LVL127:
 1127              	.L333:
 1128              	.LBE455:
 1129              	.LBE454:
 1130              	.LBE435:
 1131              	.LBE434:
 1132              	.LBB465:
 1133              	.LBB466:
 1134              		.loc 1 371 0
 1135 05f0 666D     		ldr	r6, [r4, #84]
 1136              	.LVL128:
 1137              		.loc 1 372 0
 1138 05f2 D6F84879 		ldr	r7, [r6, #2376]
 1139              	.LVL129:
 1140              		.loc 1 374 0
ARM GAS  /tmp/ccxvl19p.s 			page 21


 1141 05f6 C6F84879 		str	r7, [r6, #2376]
 1142              		.loc 1 379 0
 1143 05fa FA07     		lsls	r2, r7, #31
 1144 05fc 13D5     		bpl	.L102
 1145 05fe D6F81038 		ldr	r3, [r6, #2064]
 1146 0602 DB07     		lsls	r3, r3, #31
 1147 0604 0FD5     		bpl	.L102
 1148              	.LBB467:
 1149              		.loc 1 381 0
 1150 0606 6169     		ldr	r1, [r4, #20]
 1151 0608 4B69     		ldr	r3, [r1, #20]
 1152              	.LVL130:
 1153              		.loc 1 383 0
 1154 060a 1868     		ldr	r0, [r3]
 1155 060c DA68     		ldr	r2, [r3, #12]
 1156 060e 9042     		cmp	r0, r2
 1157 0610 C0F04D81 		bcc	.L344
 1158              		.loc 1 395 0
 1159 0614 2389     		ldrh	r3, [r4, #8]
 1160              	.LVL131:
 1161 0616 8A68     		ldr	r2, [r1, #8]
 1162 0618 23F00403 		bic	r3, r3, #4
 1163 061c 2381     		strh	r3, [r4, #8]	@ movhi
 1164 061e 12B1     		cbz	r2, .L102
 1165 0620 0221     		movs	r1, #2
 1166              	.LVL132:
 1167 0622 BD48     		ldr	r0, .L351
 1168 0624 9047     		blx	r2
 1169              	.LVL133:
 1170              	.L102:
 1171              	.LBE467:
 1172              		.loc 1 398 0
 1173 0626 3F06     		lsls	r7, r7, #24
 1174              	.LVL134:
 1175 0628 7FF544AD 		bpl	.L111
 1176              		.loc 1 399 0
 1177 062c D6F83438 		ldr	r3, [r6, #2100]
 1178              		.loc 1 398 0
 1179 0630 5E07     		lsls	r6, r3, #29
 1180              	.LVL135:
 1181 0632 7FF53FAD 		bpl	.L111
 1182              	.LBB485:
 1183              	.LBB486:
 1184              		.loc 1 331 0
 1185 0636 6369     		ldr	r3, [r4, #20]
 1186 0638 D4F85480 		ldr	r8, [r4, #84]
 1187 063c D3F814C0 		ldr	ip, [r3, #20]
 1188 0640 DCE900E7 		ldrd	lr, r7, [ip]
 1189 0644 BE45     		cmp	lr, r7
 1190 0646 40F2F680 		bls	.L109
 1191              		.loc 1 340 0
 1192 064a B3F81090 		ldrh	r9, [r3, #16]
 1193              		.loc 1 345 0
 1194 064e D8F85839 		ldr	r3, [r8, #2392]
 1195              		.loc 1 339 0
 1196 0652 AEEB0701 		sub	r1, lr, r7
 1197              	.LVL136:
ARM GAS  /tmp/ccxvl19p.s 			page 22


 1198 0656 4945     		cmp	r1, r9
 1199 0658 28BF     		it	cs
 1200 065a 4946     		movcs	r1, r9
 1201              	.LVL137:
 1202              		.loc 1 345 0
 1203 065c 9BB2     		uxth	r3, r3
 1204 065e B1EB830F 		cmp	r1, r3, lsl #2
 1205 0662 3FF627AD 		bhi	.L111
 1206 0666 DCF80860 		ldr	r6, [ip, #8]
 1207 066a 08F54050 		add	r0, r8, #12288
 1208 066e AA46     		mov	r10, r5
 1209              	.LVL138:
 1210              	.L110:
 1211              	.LBB487:
 1212              	.LBB488:
 1213              		.loc 1 236 0
 1214 0670 3368     		ldr	r3, [r6]
 1215 0672 0360     		str	r3, [r0]
 1216              		.loc 1 237 0
 1217 0674 0429     		cmp	r1, #4
 1218 0676 0AD9     		bls	.L112
 1219 0678 4A1F     		subs	r2, r1, #5
 1220 067a 22F00302 		bic	r2, r2, #3
 1221 067e 0432     		adds	r2, r2, #4
 1222 0680 3244     		add	r2, r2, r6
 1223 0682 3346     		mov	r3, r6
 1224              	.LVL139:
 1225              	.L113:
 1226              		.loc 1 236 0
 1227 0684 53F8045F 		ldr	r5, [r3, #4]!
 1228              	.LVL140:
 1229 0688 0560     		str	r5, [r0]
 1230              		.loc 1 237 0
 1231 068a 9342     		cmp	r3, r2
 1232 068c FAD1     		bne	.L113
 1233              	.LVL141:
 1234              	.L112:
 1235              	.LBE488:
 1236              	.LBE487:
 1237              		.loc 1 355 0
 1238 068e 0F44     		add	r7, r7, r1
 1239              		.loc 1 354 0
 1240 0690 0E44     		add	r6, r6, r1
 1241              		.loc 1 331 0
 1242 0692 7745     		cmp	r7, lr
 1243              		.loc 1 355 0
 1244 0694 CCE90176 		strd	r7, r6, [ip, #4]
 1245              		.loc 1 331 0
 1246 0698 80F0CC80 		bcs	.L345
 1247              		.loc 1 339 0
 1248 069c AEEB0701 		sub	r1, lr, r7
 1249              	.LVL142:
 1250              		.loc 1 345 0
 1251 06a0 D8F85839 		ldr	r3, [r8, #2392]
 1252 06a4 4945     		cmp	r1, r9
 1253 06a6 9BB2     		uxth	r3, r3
 1254 06a8 28BF     		it	cs
ARM GAS  /tmp/ccxvl19p.s 			page 23


 1255 06aa 4946     		movcs	r1, r9
 1256              	.LVL143:
 1257 06ac B1EB830F 		cmp	r1, r3, lsl #2
 1258 06b0 DED9     		bls	.L110
 1259 06b2 5546     		mov	r5, r10
 1260 06b4 FEE4     		b	.L111
 1261              	.LVL144:
 1262              	.L329:
 1263              	.LBE486:
 1264              	.LBE485:
 1265              	.LBE466:
 1266              	.LBE465:
 1267              	.LBB496:
 1268              	.LBB497:
 1269              		.loc 1 414 0
 1270 06b6 666D     		ldr	r6, [r4, #84]
 1271              	.LVL145:
 1272              		.loc 1 415 0
 1273 06b8 D6F8487B 		ldr	r7, [r6, #2888]
 1274              	.LVL146:
 1275              		.loc 1 418 0
 1276 06bc C6F8487B 		str	r7, [r6, #2888]
 1277              		.loc 1 420 0
 1278 06c0 3A07     		lsls	r2, r7, #28
 1279 06c2 08D5     		bpl	.L63
 1280 06c4 D6F81438 		ldr	r3, [r6, #2068]
 1281 06c8 1B07     		lsls	r3, r3, #28
 1282 06ca 04D5     		bpl	.L63
 1283              		.loc 1 423 0
 1284 06cc 6369     		ldr	r3, [r4, #20]
 1285 06ce 9248     		ldr	r0, .L351
 1286 06d0 5B68     		ldr	r3, [r3, #4]
 1287 06d2 0221     		movs	r1, #2
 1288 06d4 9847     		blx	r3
 1289              	.LVL147:
 1290              	.L63:
 1291              		.loc 1 426 0
 1292 06d6 FF07     		lsls	r7, r7, #31
 1293              	.LVL148:
 1294 06d8 7FF5DDAC 		bpl	.L62
 1295 06dc D6F81438 		ldr	r3, [r6, #2068]
 1296 06e0 D807     		lsls	r0, r3, #31
 1297 06e2 7FF5D8AC 		bpl	.L62
 1298              	.LBB498:
 1299              		.loc 1 430 0
 1300 06e6 6269     		ldr	r2, [r4, #20]
 1301              	.LVL149:
 1302              		.loc 1 459 0
 1303 06e8 6389     		ldrh	r3, [r4, #10]
 1304 06ea D268     		ldr	r2, [r2, #12]
 1305              	.LVL150:
 1306 06ec 23F00403 		bic	r3, r3, #4
 1307 06f0 6381     		strh	r3, [r4, #10]	@ movhi
 1308 06f2 002A     		cmp	r2, #0
 1309 06f4 3FF4CFAC 		beq	.L62
 1310 06f8 0221     		movs	r1, #2
 1311 06fa 8748     		ldr	r0, .L351
ARM GAS  /tmp/ccxvl19p.s 			page 24


 1312 06fc 9047     		blx	r2
 1313              	.LVL151:
 1314 06fe CAE4     		b	.L62
 1315              	.LVL152:
 1316              	.L328:
 1317              	.LBE498:
 1318              	.LBE497:
 1319              	.LBE496:
 1320              	.LBB499:
 1321              	.LBB500:
 1322              		.loc 1 414 0
 1323 0700 666D     		ldr	r6, [r4, #84]
 1324              	.LVL153:
 1325              		.loc 1 415 0
 1326 0702 D6F8287B 		ldr	r7, [r6, #2856]
 1327              	.LVL154:
 1328              		.loc 1 418 0
 1329 0706 C6F8287B 		str	r7, [r6, #2856]
 1330              		.loc 1 420 0
 1331 070a 3A07     		lsls	r2, r7, #28
 1332 070c 08D5     		bpl	.L59
 1333 070e D6F81438 		ldr	r3, [r6, #2068]
 1334 0712 1B07     		lsls	r3, r3, #28
 1335 0714 04D5     		bpl	.L59
 1336              		.loc 1 423 0
 1337 0716 2369     		ldr	r3, [r4, #16]
 1338 0718 7F48     		ldr	r0, .L351
 1339 071a 5B68     		ldr	r3, [r3, #4]
 1340 071c 0121     		movs	r1, #1
 1341 071e 9847     		blx	r3
 1342              	.LVL155:
 1343              	.L59:
 1344              		.loc 1 426 0
 1345 0720 FF07     		lsls	r7, r7, #31
 1346              	.LVL156:
 1347 0722 7FF5B5AC 		bpl	.L58
 1348 0726 D6F81438 		ldr	r3, [r6, #2068]
 1349 072a D807     		lsls	r0, r3, #31
 1350 072c 7FF5B0AC 		bpl	.L58
 1351              	.LBB501:
 1352              		.loc 1 430 0
 1353 0730 2269     		ldr	r2, [r4, #16]
 1354              	.LVL157:
 1355              		.loc 1 459 0
 1356 0732 6389     		ldrh	r3, [r4, #10]
 1357 0734 D268     		ldr	r2, [r2, #12]
 1358              	.LVL158:
 1359 0736 23F00203 		bic	r3, r3, #2
 1360 073a 6381     		strh	r3, [r4, #10]	@ movhi
 1361 073c 002A     		cmp	r2, #0
 1362 073e 3FF4A7AC 		beq	.L58
 1363 0742 0121     		movs	r1, #1
 1364 0744 7448     		ldr	r0, .L351
 1365 0746 9047     		blx	r2
 1366              	.LVL159:
 1367 0748 A2E4     		b	.L58
 1368              	.LVL160:
ARM GAS  /tmp/ccxvl19p.s 			page 25


 1369              	.L327:
 1370              	.LBE501:
 1371              	.LBE500:
 1372              	.LBE499:
 1373              	.LBB502:
 1374              	.LBB503:
 1375              		.loc 1 414 0
 1376 074a 666D     		ldr	r6, [r4, #84]
 1377              	.LVL161:
 1378              		.loc 1 415 0
 1379 074c D6F8087B 		ldr	r7, [r6, #2824]
 1380              	.LVL162:
 1381              		.loc 1 418 0
 1382 0750 C6F8087B 		str	r7, [r6, #2824]
 1383              		.loc 1 420 0
 1384 0754 3A07     		lsls	r2, r7, #28
 1385 0756 08D5     		bpl	.L51
 1386 0758 D6F81438 		ldr	r3, [r6, #2068]
 1387 075c 1B07     		lsls	r3, r3, #28
 1388 075e 04D5     		bpl	.L51
 1389              		.loc 1 423 0
 1390 0760 E368     		ldr	r3, [r4, #12]
 1391 0762 6D48     		ldr	r0, .L351
 1392 0764 5B68     		ldr	r3, [r3, #4]
 1393 0766 0021     		movs	r1, #0
 1394 0768 9847     		blx	r3
 1395              	.LVL163:
 1396              	.L51:
 1397              		.loc 1 426 0
 1398 076a FF07     		lsls	r7, r7, #31
 1399              	.LVL164:
 1400 076c 7FF58DAC 		bpl	.L50
 1401 0770 D6F81438 		ldr	r3, [r6, #2068]
 1402 0774 D807     		lsls	r0, r3, #31
 1403 0776 7FF588AC 		bpl	.L50
 1404              	.LBB504:
 1405              		.loc 1 430 0
 1406 077a E268     		ldr	r2, [r4, #12]
 1407 077c 9169     		ldr	r1, [r2, #24]
 1408              	.LVL165:
 1409              		.loc 1 447 0
 1410 077e 508A     		ldrh	r0, [r2, #18]
 1411 0780 4E68     		ldr	r6, [r1, #4]
 1412              	.LVL166:
 1413 0782 B6FBF0F3 		udiv	r3, r6, r0
 1414 0786 00FB1363 		mls	r3, r0, r3, r6
 1415 078a 23B9     		cbnz	r3, .L53
 1416              		.loc 1 448 0
 1417 078c 0E68     		ldr	r6, [r1]
 1418 078e C868     		ldr	r0, [r1, #12]
 1419              		.loc 1 447 0
 1420 0790 8642     		cmp	r6, r0
 1421 0792 C0F06A81 		bcc	.L346
 1422              	.L53:
 1423              		.loc 1 459 0
 1424 0796 6389     		ldrh	r3, [r4, #10]
 1425 0798 D268     		ldr	r2, [r2, #12]
ARM GAS  /tmp/ccxvl19p.s 			page 26


 1426 079a 23F00103 		bic	r3, r3, #1
 1427 079e 6381     		strh	r3, [r4, #10]	@ movhi
 1428 07a0 002A     		cmp	r2, #0
 1429 07a2 3FF472AC 		beq	.L50
 1430 07a6 0021     		movs	r1, #0
 1431              	.LVL167:
 1432 07a8 5B48     		ldr	r0, .L351
 1433 07aa 9047     		blx	r2
 1434              	.LVL168:
 1435 07ac 6DE4     		b	.L50
 1436              	.LVL169:
 1437              	.L339:
 1438 07ae 9342     		cmp	r3, r2
 1439 07b0 28BF     		it	cs
 1440 07b2 1346     		movcs	r3, r2
 1441              	.LVL170:
 1442 07b4 1F46     		mov	r7, r3
 1443              	.LVL171:
 1444              	.LBE504:
 1445              	.LBE503:
 1446              	.LBE502:
 1447              	.LBB521:
 1448              	.LBB348:
 1449              	.LBB346:
 1450              	.LBB344:
 1451              		.loc 1 259 0
 1452 07b6 0023     		movs	r3, #0
 1453              		.loc 1 260 0
 1454 07b8 1946     		mov	r1, r3
 1455              	.LVL172:
 1456              		.loc 1 264 0
 1457 07ba 05F5805C 		add	ip, r5, #4096
 1458              	.LVL173:
 1459              	.L40:
 1460              		.loc 1 263 0
 1461 07be 13F0030F 		tst	r3, #3
 1462 07c2 0CD1     		bne	.L41
 1463              		.loc 1 264 0
 1464 07c4 DCF80010 		ldr	r1, [ip]
 1465              	.LVL174:
 1466              		.loc 1 267 0
 1467 07c8 06F8011B 		strb	r1, [r6], #1
 1468              	.LVL175:
 1469              		.loc 1 270 0
 1470 07cc 0133     		adds	r3, r3, #1
 1471              	.LVL176:
 1472              		.loc 1 262 0
 1473 07ce BB42     		cmp	r3, r7
 1474              		.loc 1 268 0
 1475 07d0 4FEA1121 		lsr	r1, r1, #8
 1476              	.LVL177:
 1477              		.loc 1 262 0
 1478 07d4 F3D3     		bcc	.L40
 1479              	.L43:
 1480 07d6 9A42     		cmp	r2, r3
 1481 07d8 3FF61DAE 		bhi	.L39
 1482 07dc 25E6     		b	.L46
ARM GAS  /tmp/ccxvl19p.s 			page 27


 1483              	.LVL178:
 1484              	.L41:
 1485              		.loc 1 270 0
 1486 07de 0133     		adds	r3, r3, #1
 1487              	.LVL179:
 1488              		.loc 1 262 0
 1489 07e0 BB42     		cmp	r3, r7
 1490              		.loc 1 267 0
 1491 07e2 06F8011B 		strb	r1, [r6], #1
 1492              	.LVL180:
 1493              		.loc 1 268 0
 1494 07e6 4FEA1121 		lsr	r1, r1, #8
 1495              	.LVL181:
 1496              		.loc 1 262 0
 1497 07ea E8D3     		bcc	.L40
 1498 07ec F3E7     		b	.L43
 1499              	.LVL182:
 1500              	.L336:
 1501 07ee DDE90229 		ldrd	r2, r9, [sp, #8]
 1502              	.LVL183:
 1503              	.L15:
 1504              	.LBE344:
 1505              	.LBE346:
 1506              	.LBE348:
 1507              	.LBE521:
 1508              	.LBB522:
 1509              	.LBB365:
 1510              	.LBB364:
 1511              	.LBB363:
 1512              		.loc 1 333 0
 1513 07f2 D2F83438 		ldr	r3, [r2, #2100]
 1514 07f6 0121     		movs	r1, #1
 1515 07f8 01FA09F9 		lsl	r9, r1, r9
 1516 07fc 23EA0903 		bic	r3, r3, r9
 1517 0800 C2F83438 		str	r3, [r2, #2100]
 1518 0804 B5E4     		b	.L17
 1519              	.LVL184:
 1520              	.L123:
 1521              	.LBE363:
 1522              	.LBE364:
 1523              	.LBE365:
 1524              	.LBE522:
 1525              	.LBB523:
 1526              	.LBB396:
 1527              	.LBB393:
 1528              	.LBB392:
 1529 0806 DCF83438 		ldr	r3, [ip, #2100]
 1530 080a 23F00803 		bic	r3, r3, #8
 1531 080e CCF83438 		str	r3, [ip, #2100]
 1532 0812 52E4     		b	.L3
 1533              	.LVL185:
 1534              	.L341:
 1535 0814 5546     		mov	r5, r10
 1536              	.LVL186:
 1537              	.L94:
 1538              	.LBE392:
 1539              	.LBE393:
ARM GAS  /tmp/ccxvl19p.s 			page 28


 1540              	.LBE396:
 1541              	.LBE523:
 1542              	.LBB524:
 1543              	.LBB431:
 1544              	.LBB428:
 1545              	.LBB427:
 1546 0816 D8F83438 		ldr	r3, [r8, #2100]
 1547 081a 23F00203 		bic	r3, r3, #2
 1548 081e C8F83438 		str	r3, [r8, #2100]
 1549 0822 44E4     		b	.L96
 1550              	.LVL187:
 1551              	.L343:
 1552 0824 5546     		mov	r5, r10
 1553              	.LVL188:
 1554              	.L79:
 1555              	.LBE427:
 1556              	.LBE428:
 1557              	.LBE431:
 1558              	.LBE524:
 1559              	.LBB525:
 1560              	.LBB462:
 1561              	.LBB459:
 1562              	.LBB458:
 1563 0826 D8F83438 		ldr	r3, [r8, #2100]
 1564 082a 23F00103 		bic	r3, r3, #1
 1565 082e C8F83438 		str	r3, [r8, #2100]
 1566 0832 39E4     		b	.L81
 1567              	.LVL189:
 1568              	.L345:
 1569 0834 5546     		mov	r5, r10
 1570              	.LVL190:
 1571              	.L109:
 1572              	.LBE458:
 1573              	.LBE459:
 1574              	.LBE462:
 1575              	.LBE525:
 1576              	.LBB526:
 1577              	.LBB493:
 1578              	.LBB490:
 1579              	.LBB489:
 1580 0836 D8F83438 		ldr	r3, [r8, #2100]
 1581 083a 23F00403 		bic	r3, r3, #4
 1582 083e C8F83438 		str	r3, [r8, #2100]
 1583 0842 37E4     		b	.L111
 1584              	.LVL191:
 1585              	.L338:
 1586              	.LBE489:
 1587              	.LBE490:
 1588              	.LBE493:
 1589              	.LBE526:
 1590              	.LBB527:
 1591              	.LBB397:
 1592              	.LBB394:
 1593              		.loc 1 387 0
 1594 0844 121A     		subs	r2, r2, r0
 1595              		.loc 1 388 0
 1596 0846 0021     		movs	r1, #0
ARM GAS  /tmp/ccxvl19p.s 			page 29


 1597 0848 C3E90021 		strd	r2, r1, [r3]
 1598              	.LVL192:
 1599              	.LBB371:
 1600              	.LBB372:
 1601              	.LBB373:
 1602              	.LBB374:
 1603              	.LBB375:
 1604              	.LBB376:
 1605              		.file 3 "./RM18A-ChibiOS18-Core/chibios/os/common/ext/ARM/CMSIS/Core/Include/cmsis_gcc.h"
 1606              		.loc 3 493 0
 1607 084c 2023     		movs	r3, #32
 1608              	.LVL193:
 1609              		.syntax unified
 1610              	@ 493 "./RM18A-ChibiOS18-Core/chibios/os/common/ext/ARM/CMSIS/Core/Include/cmsis_gcc.h" 1
 1611 084e 83F31188 		MSR basepri, r3
 1612              	@ 0 "" 2
 1613              	.LVL194:
 1614              		.thumb
 1615              		.syntax unified
 1616              	.LBE376:
 1617              	.LBE375:
 1618              	.LBE374:
 1619              	.LBE373:
 1620              	.LBE372:
 1621              	.LBE371:
 1622              	.LBB377:
 1623              	.LBB378:
 1624              		.loc 1 1170 0
 1625 0852 A169     		ldr	r1, [r4, #24]
 1626 0854 4B69     		ldr	r3, [r1, #20]
 1627              	.LVL195:
 1628              		.loc 1 1173 0
 1629 0856 1A68     		ldr	r2, [r3]
 1630 0858 DA60     		str	r2, [r3, #12]
 1631              		.loc 1 1174 0
 1632 085a 002A     		cmp	r2, #0
 1633 085c 40F0C580 		bne	.L119
 1634              		.loc 1 1176 0
 1635 0860 636D     		ldr	r3, [r4, #84]
 1636              	.LVL196:
 1637 0862 4FF40022 		mov	r2, #524288
 1638 0866 C3F87029 		str	r2, [r3, #2416]
 1639              	.L120:
 1640              		.loc 1 1191 0
 1641 086a 0A68     		ldr	r2, [r1]
 1642 086c 02F00302 		and	r2, r2, #3
 1643 0870 012A     		cmp	r2, #1
 1644 0872 0CD1     		bne	.L121
 1645              		.loc 1 1193 0
 1646 0874 D3F80828 		ldr	r2, [r3, #2056]
 1647 0878 12F4807F 		tst	r2, #256
 1648              		.loc 1 1194 0
 1649 087c D3F86029 		ldr	r2, [r3, #2400]
 1650 0880 14BF     		ite	ne
 1651 0882 42F08052 		orrne	r2, r2, #268435456
 1652              		.loc 1 1196 0
 1653 0886 42F00052 		orreq	r2, r2, #536870912
ARM GAS  /tmp/ccxvl19p.s 			page 30


 1654 088a C3F86029 		str	r2, [r3, #2400]
 1655              	.L121:
 1656              		.loc 1 1200 0
 1657 088e D3F86029 		ldr	r2, [r3, #2400]
 1658 0892 42F00442 		orr	r2, r2, #-2080374784
 1659 0896 C3F86029 		str	r2, [r3, #2400]
 1660              		.loc 1 1201 0
 1661 089a D3F83428 		ldr	r2, [r3, #2100]
 1662 089e 42F00802 		orr	r2, r2, #8
 1663 08a2 C3F83428 		str	r2, [r3, #2100]
 1664              	.LVL197:
 1665              	.LBE378:
 1666              	.LBE377:
 1667              	.LBB381:
 1668              	.LBB382:
 1669              	.LBB383:
 1670              	.LBB384:
 1671              	.LBB385:
 1672              	.LBB386:
 1673              		.loc 3 493 0
 1674 08a6 0023     		movs	r3, #0
 1675              		.syntax unified
 1676              	@ 493 "./RM18A-ChibiOS18-Core/chibios/os/common/ext/ARM/CMSIS/Core/Include/cmsis_gcc.h" 1
 1677 08a8 83F31188 		MSR basepri, r3
 1678              	@ 0 "" 2
 1679              	.LVL198:
 1680              		.thumb
 1681              		.syntax unified
 1682 08ac 3DE5     		b	.L116
 1683              	.LVL199:
 1684              	.L344:
 1685              	.LBE386:
 1686              	.LBE385:
 1687              	.LBE384:
 1688              	.LBE383:
 1689              	.LBE382:
 1690              	.LBE381:
 1691              	.LBE394:
 1692              	.LBE397:
 1693              	.LBE527:
 1694              	.LBB528:
 1695              	.LBB494:
 1696              	.LBB491:
 1697              		.loc 1 387 0
 1698 08ae 121A     		subs	r2, r2, r0
 1699              		.loc 1 388 0
 1700 08b0 0021     		movs	r1, #0
 1701 08b2 C3E90021 		strd	r2, r1, [r3]
 1702              	.LVL200:
 1703              	.LBB468:
 1704              	.LBB469:
 1705              	.LBB470:
 1706              	.LBB471:
 1707              	.LBB472:
 1708              	.LBB473:
 1709              		.loc 3 493 0
 1710 08b6 2023     		movs	r3, #32
ARM GAS  /tmp/ccxvl19p.s 			page 31


 1711              	.LVL201:
 1712              		.syntax unified
 1713              	@ 493 "./RM18A-ChibiOS18-Core/chibios/os/common/ext/ARM/CMSIS/Core/Include/cmsis_gcc.h" 1
 1714 08b8 83F31188 		MSR basepri, r3
 1715              	@ 0 "" 2
 1716              	.LVL202:
 1717              		.thumb
 1718              		.syntax unified
 1719              	.LBE473:
 1720              	.LBE472:
 1721              	.LBE471:
 1722              	.LBE470:
 1723              	.LBE469:
 1724              	.LBE468:
 1725              	.LBB474:
 1726              	.LBB475:
 1727              		.loc 1 1170 0
 1728 08bc 6169     		ldr	r1, [r4, #20]
 1729 08be 4B69     		ldr	r3, [r1, #20]
 1730              	.LVL203:
 1731              		.loc 1 1173 0
 1732 08c0 1A68     		ldr	r2, [r3]
 1733 08c2 DA60     		str	r2, [r3, #12]
 1734              		.loc 1 1174 0
 1735 08c4 002A     		cmp	r2, #0
 1736 08c6 40F0C180 		bne	.L105
 1737              		.loc 1 1176 0
 1738 08ca 636D     		ldr	r3, [r4, #84]
 1739              	.LVL204:
 1740 08cc 4FF40022 		mov	r2, #524288
 1741 08d0 C3F85029 		str	r2, [r3, #2384]
 1742              	.L106:
 1743              		.loc 1 1191 0
 1744 08d4 0A68     		ldr	r2, [r1]
 1745 08d6 02F00302 		and	r2, r2, #3
 1746 08da 012A     		cmp	r2, #1
 1747 08dc 0CD1     		bne	.L107
 1748              		.loc 1 1193 0
 1749 08de D3F80828 		ldr	r2, [r3, #2056]
 1750 08e2 12F4807F 		tst	r2, #256
 1751              		.loc 1 1194 0
 1752 08e6 D3F84029 		ldr	r2, [r3, #2368]
 1753 08ea 14BF     		ite	ne
 1754 08ec 42F08052 		orrne	r2, r2, #268435456
 1755              		.loc 1 1196 0
 1756 08f0 42F00052 		orreq	r2, r2, #536870912
 1757 08f4 C3F84029 		str	r2, [r3, #2368]
 1758              	.L107:
 1759              		.loc 1 1200 0
 1760 08f8 D3F84029 		ldr	r2, [r3, #2368]
 1761 08fc 42F00442 		orr	r2, r2, #-2080374784
 1762 0900 C3F84029 		str	r2, [r3, #2368]
 1763              		.loc 1 1201 0
 1764 0904 D3F83428 		ldr	r2, [r3, #2100]
 1765 0908 42F00402 		orr	r2, r2, #4
 1766 090c C3F83428 		str	r2, [r3, #2100]
 1767              	.LVL205:
ARM GAS  /tmp/ccxvl19p.s 			page 32


 1768              	.LBE475:
 1769              	.LBE474:
 1770              	.LBB478:
 1771              	.LBB479:
 1772              	.LBB480:
 1773              	.LBB481:
 1774              	.LBB482:
 1775              	.LBB483:
 1776              		.loc 3 493 0
 1777 0910 0023     		movs	r3, #0
 1778              		.syntax unified
 1779              	@ 493 "./RM18A-ChibiOS18-Core/chibios/os/common/ext/ARM/CMSIS/Core/Include/cmsis_gcc.h" 1
 1780 0912 83F31188 		MSR basepri, r3
 1781              	@ 0 "" 2
 1782              	.LVL206:
 1783              		.thumb
 1784              		.syntax unified
 1785 0916 86E6     		b	.L102
 1786              	.L352:
 1787              		.align	2
 1788              	.L351:
 1789 0918 00000000 		.word	.LANCHOR0
 1790              	.LVL207:
 1791              	.L342:
 1792              	.LBE483:
 1793              	.LBE482:
 1794              	.LBE481:
 1795              	.LBE480:
 1796              	.LBE479:
 1797              	.LBE478:
 1798              	.LBE491:
 1799              	.LBE494:
 1800              	.LBE528:
 1801              	.LBB529:
 1802              	.LBB463:
 1803              	.LBB460:
 1804              		.loc 1 387 0
 1805 091c 121A     		subs	r2, r2, r0
 1806              		.loc 1 388 0
 1807 091e 0021     		movs	r1, #0
 1808 0920 C3E90021 		strd	r2, r1, [r3]
 1809              	.LVL208:
 1810              	.LBB437:
 1811              	.LBB438:
 1812              	.LBB439:
 1813              	.LBB440:
 1814              	.LBB441:
 1815              	.LBB442:
 1816              		.loc 3 493 0
 1817 0924 2023     		movs	r3, #32
 1818              	.LVL209:
 1819              		.syntax unified
 1820              	@ 493 "./RM18A-ChibiOS18-Core/chibios/os/common/ext/ARM/CMSIS/Core/Include/cmsis_gcc.h" 1
 1821 0926 83F31188 		MSR basepri, r3
 1822              	@ 0 "" 2
 1823              	.LVL210:
 1824              		.thumb
ARM GAS  /tmp/ccxvl19p.s 			page 33


 1825              		.syntax unified
 1826              	.LBE442:
 1827              	.LBE441:
 1828              	.LBE440:
 1829              	.LBE439:
 1830              	.LBE438:
 1831              	.LBE437:
 1832              	.LBB443:
 1833              	.LBB444:
 1834              		.loc 1 1170 0
 1835 092a E168     		ldr	r1, [r4, #12]
 1836 092c 4B69     		ldr	r3, [r1, #20]
 1837              	.LVL211:
 1838              		.loc 1 1173 0
 1839 092e 1A68     		ldr	r2, [r3]
 1840 0930 DA60     		str	r2, [r3, #12]
 1841              		.loc 1 1174 0
 1842 0932 002A     		cmp	r2, #0
 1843 0934 75D1     		bne	.L73
 1844              		.loc 1 1176 0
 1845 0936 636D     		ldr	r3, [r4, #84]
 1846              	.LVL212:
 1847 0938 4FF40022 		mov	r2, #524288
 1848 093c C3F81029 		str	r2, [r3, #2320]
 1849              	.L74:
 1850              		.loc 1 1191 0
 1851 0940 0A68     		ldr	r2, [r1]
 1852 0942 02F00302 		and	r2, r2, #3
 1853 0946 012A     		cmp	r2, #1
 1854 0948 0CD1     		bne	.L77
 1855              		.loc 1 1193 0
 1856 094a D3F80828 		ldr	r2, [r3, #2056]
 1857 094e 12F4807F 		tst	r2, #256
 1858              		.loc 1 1194 0
 1859 0952 D3F80029 		ldr	r2, [r3, #2304]
 1860 0956 14BF     		ite	ne
 1861 0958 42F08052 		orrne	r2, r2, #268435456
 1862              		.loc 1 1196 0
 1863 095c 42F00052 		orreq	r2, r2, #536870912
 1864 0960 C3F80029 		str	r2, [r3, #2304]
 1865              	.L77:
 1866              		.loc 1 1200 0
 1867 0964 D3F80029 		ldr	r2, [r3, #2304]
 1868 0968 42F00442 		orr	r2, r2, #-2080374784
 1869 096c C3F80029 		str	r2, [r3, #2304]
 1870              		.loc 1 1201 0
 1871 0970 D3F83428 		ldr	r2, [r3, #2100]
 1872 0974 42F00102 		orr	r2, r2, #1
 1873 0978 C3F83428 		str	r2, [r3, #2100]
 1874              	.LVL213:
 1875              	.LBE444:
 1876              	.LBE443:
 1877              	.LBB447:
 1878              	.LBB448:
 1879              	.LBB449:
 1880              	.LBB450:
 1881              	.LBB451:
ARM GAS  /tmp/ccxvl19p.s 			page 34


 1882              	.LBB452:
 1883              		.loc 3 493 0
 1884 097c 0023     		movs	r3, #0
 1885              		.syntax unified
 1886              	@ 493 "./RM18A-ChibiOS18-Core/chibios/os/common/ext/ARM/CMSIS/Core/Include/cmsis_gcc.h" 1
 1887 097e 83F31188 		MSR basepri, r3
 1888              	@ 0 "" 2
 1889              	.LVL214:
 1890              		.thumb
 1891              		.syntax unified
 1892 0982 EBE5     		b	.L70
 1893              	.LVL215:
 1894              	.L340:
 1895              	.LBE452:
 1896              	.LBE451:
 1897              	.LBE450:
 1898              	.LBE449:
 1899              	.LBE448:
 1900              	.LBE447:
 1901              	.LBE460:
 1902              	.LBE463:
 1903              	.LBE529:
 1904              	.LBB530:
 1905              	.LBB432:
 1906              	.LBB429:
 1907              		.loc 1 387 0
 1908 0984 121A     		subs	r2, r2, r0
 1909              		.loc 1 388 0
 1910 0986 0021     		movs	r1, #0
 1911 0988 C3E90021 		strd	r2, r1, [r3]
 1912              	.LVL216:
 1913              	.LBB406:
 1914              	.LBB407:
 1915              	.LBB408:
 1916              	.LBB409:
 1917              	.LBB410:
 1918              	.LBB411:
 1919              		.loc 3 493 0
 1920 098c 2023     		movs	r3, #32
 1921              	.LVL217:
 1922              		.syntax unified
 1923              	@ 493 "./RM18A-ChibiOS18-Core/chibios/os/common/ext/ARM/CMSIS/Core/Include/cmsis_gcc.h" 1
 1924 098e 83F31188 		MSR basepri, r3
 1925              	@ 0 "" 2
 1926              	.LVL218:
 1927              		.thumb
 1928              		.syntax unified
 1929              	.LBE411:
 1930              	.LBE410:
 1931              	.LBE409:
 1932              	.LBE408:
 1933              	.LBE407:
 1934              	.LBE406:
 1935              	.LBB412:
 1936              	.LBB413:
 1937              		.loc 1 1170 0
 1938 0992 2169     		ldr	r1, [r4, #16]
ARM GAS  /tmp/ccxvl19p.s 			page 35


 1939 0994 4B69     		ldr	r3, [r1, #20]
 1940              	.LVL219:
 1941              		.loc 1 1173 0
 1942 0996 1A68     		ldr	r2, [r3]
 1943 0998 DA60     		str	r2, [r3, #12]
 1944              		.loc 1 1174 0
 1945 099a 9ABB     		cbnz	r2, .L90
 1946              		.loc 1 1176 0
 1947 099c 636D     		ldr	r3, [r4, #84]
 1948              	.LVL220:
 1949 099e 4FF40022 		mov	r2, #524288
 1950 09a2 C3F83029 		str	r2, [r3, #2352]
 1951              	.L91:
 1952              		.loc 1 1191 0
 1953 09a6 0A68     		ldr	r2, [r1]
 1954 09a8 02F00302 		and	r2, r2, #3
 1955 09ac 012A     		cmp	r2, #1
 1956 09ae 0CD1     		bne	.L92
 1957              		.loc 1 1193 0
 1958 09b0 D3F80828 		ldr	r2, [r3, #2056]
 1959 09b4 12F4807F 		tst	r2, #256
 1960              		.loc 1 1194 0
 1961 09b8 D3F82029 		ldr	r2, [r3, #2336]
 1962 09bc 14BF     		ite	ne
 1963 09be 42F08052 		orrne	r2, r2, #268435456
 1964              		.loc 1 1196 0
 1965 09c2 42F00052 		orreq	r2, r2, #536870912
 1966 09c6 C3F82029 		str	r2, [r3, #2336]
 1967              	.L92:
 1968              		.loc 1 1200 0
 1969 09ca D3F82029 		ldr	r2, [r3, #2336]
 1970 09ce 42F00442 		orr	r2, r2, #-2080374784
 1971 09d2 C3F82029 		str	r2, [r3, #2336]
 1972              		.loc 1 1201 0
 1973 09d6 D3F83428 		ldr	r2, [r3, #2100]
 1974 09da 42F00202 		orr	r2, r2, #2
 1975 09de C3F83428 		str	r2, [r3, #2100]
 1976              	.LVL221:
 1977              	.LBE413:
 1978              	.LBE412:
 1979              	.LBB416:
 1980              	.LBB417:
 1981              	.LBB418:
 1982              	.LBB419:
 1983              	.LBB420:
 1984              	.LBB421:
 1985              		.loc 3 493 0
 1986 09e2 0023     		movs	r3, #0
 1987              		.syntax unified
 1988              	@ 493 "./RM18A-ChibiOS18-Core/chibios/os/common/ext/ARM/CMSIS/Core/Include/cmsis_gcc.h" 1
 1989 09e4 83F31188 		MSR basepri, r3
 1990              	@ 0 "" 2
 1991              	.LVL222:
 1992              		.thumb
 1993              		.syntax unified
 1994 09e8 55E5     		b	.L87
 1995              	.LVL223:
ARM GAS  /tmp/ccxvl19p.s 			page 36


 1996              	.L119:
 1997              	.LBE421:
 1998              	.LBE420:
 1999              	.LBE419:
 2000              	.LBE418:
 2001              	.LBE417:
 2002              	.LBE416:
 2003              	.LBE429:
 2004              	.LBE432:
 2005              	.LBE530:
 2006              	.LBB531:
 2007              	.LBB398:
 2008              	.LBB395:
 2009              	.LBB387:
 2010              	.LBB380:
 2011              	.LBB379:
 2012              		.loc 1 1183 0
 2013 09ea 0F8A     		ldrh	r7, [r1, #16]
 2014              	.LVL224:
 2015              		.loc 1 1186 0
 2016 09ec 636D     		ldr	r3, [r4, #84]
 2017              	.LVL225:
 2018              		.loc 1 1183 0
 2019 09ee D019     		adds	r0, r2, r7
 2020              		.loc 1 1186 0
 2021 09f0 42F00052 		orr	r2, r2, #536870912
 2022              	.LVL226:
 2023              		.loc 1 1183 0
 2024 09f4 0138     		subs	r0, r0, #1
 2025 09f6 B0FBF7F0 		udiv	r0, r0, r7
 2026              	.LVL227:
 2027              		.loc 1 1186 0
 2028 09fa 42EAC042 		orr	r2, r2, r0, lsl #19
 2029 09fe C3F87029 		str	r2, [r3, #2416]
 2030 0a02 32E7     		b	.L120
 2031              	.LVL228:
 2032              	.L90:
 2033              	.LBE379:
 2034              	.LBE380:
 2035              	.LBE387:
 2036              	.LBE395:
 2037              	.LBE398:
 2038              	.LBE531:
 2039              	.LBB532:
 2040              	.LBB433:
 2041              	.LBB430:
 2042              	.LBB422:
 2043              	.LBB415:
 2044              	.LBB414:
 2045              		.loc 1 1183 0
 2046 0a04 B1F810C0 		ldrh	ip, [r1, #16]
 2047              	.LVL229:
 2048              		.loc 1 1186 0
 2049 0a08 636D     		ldr	r3, [r4, #84]
 2050              	.LVL230:
 2051              		.loc 1 1183 0
 2052 0a0a 02EB0C00 		add	r0, r2, ip
ARM GAS  /tmp/ccxvl19p.s 			page 37


 2053              		.loc 1 1186 0
 2054 0a0e 42F00052 		orr	r2, r2, #536870912
 2055              	.LVL231:
 2056              		.loc 1 1183 0
 2057 0a12 0138     		subs	r0, r0, #1
 2058 0a14 B0FBFCF0 		udiv	r0, r0, ip
 2059              	.LVL232:
 2060              		.loc 1 1186 0
 2061 0a18 42EAC042 		orr	r2, r2, r0, lsl #19
 2062 0a1c C3F83029 		str	r2, [r3, #2352]
 2063 0a20 C1E7     		b	.L91
 2064              	.LVL233:
 2065              	.L73:
 2066              	.LBE414:
 2067              	.LBE415:
 2068              	.LBE422:
 2069              	.LBE430:
 2070              	.LBE433:
 2071              	.LBE532:
 2072              	.LBB533:
 2073              	.LBB464:
 2074              	.LBB461:
 2075              	.LBB453:
 2076              	.LBB446:
 2077              	.LBB445:
 2078              		.loc 1 1179 0
 2079 0a22 402A     		cmp	r2, #64
 2080              		.loc 1 1183 0
 2081 0a24 B1F810E0 		ldrh	lr, [r1, #16]
 2082              		.loc 1 1180 0
 2083 0a28 85BF     		ittet	hi
 2084 0a2a DFF8B8C0 		ldrhi	ip, .L353
 2085 0a2e 4022     		movhi	r2, #64
 2086              	.LVL234:
 2087 0a30 42F0005C 		orrls	ip, r2, #536870912
 2088 0a34 1A60     		strhi	r2, [r3]
 2089              		.loc 1 1183 0
 2090 0a36 0EF1FF30 		add	r0, lr, #-1
 2091              		.loc 1 1186 0
 2092 0a3a 636D     		ldr	r3, [r4, #84]
 2093              	.LVL235:
 2094              		.loc 1 1183 0
 2095 0a3c 0244     		add	r2, r2, r0
 2096              	.LVL236:
 2097 0a3e B2FBFEF2 		udiv	r2, r2, lr
 2098              		.loc 1 1186 0
 2099 0a42 4CEAC242 		orr	r2, ip, r2, lsl #19
 2100 0a46 C3F81029 		str	r2, [r3, #2320]
 2101 0a4a 79E7     		b	.L74
 2102              	.LVL237:
 2103              	.L105:
 2104              	.LBE445:
 2105              	.LBE446:
 2106              	.LBE453:
 2107              	.LBE461:
 2108              	.LBE464:
 2109              	.LBE533:
ARM GAS  /tmp/ccxvl19p.s 			page 38


 2110              	.LBB534:
 2111              	.LBB495:
 2112              	.LBB492:
 2113              	.LBB484:
 2114              	.LBB477:
 2115              	.LBB476:
 2116              		.loc 1 1183 0
 2117 0a4c B1F810C0 		ldrh	ip, [r1, #16]
 2118              	.LVL238:
 2119              		.loc 1 1186 0
 2120 0a50 636D     		ldr	r3, [r4, #84]
 2121              	.LVL239:
 2122              		.loc 1 1183 0
 2123 0a52 02EB0C00 		add	r0, r2, ip
 2124              		.loc 1 1186 0
 2125 0a56 42F00052 		orr	r2, r2, #536870912
 2126              	.LVL240:
 2127              		.loc 1 1183 0
 2128 0a5a 0138     		subs	r0, r0, #1
 2129 0a5c B0FBFCF0 		udiv	r0, r0, ip
 2130              	.LVL241:
 2131              		.loc 1 1186 0
 2132 0a60 42EAC042 		orr	r2, r2, r0, lsl #19
 2133 0a64 C3F85029 		str	r2, [r3, #2384]
 2134 0a68 34E7     		b	.L106
 2135              	.LVL242:
 2136              	.L346:
 2137              	.LBE476:
 2138              	.LBE477:
 2139              	.LBE484:
 2140              	.LBE492:
 2141              	.LBE495:
 2142              	.LBE534:
 2143              	.LBB535:
 2144              	.LBB520:
 2145              	.LBB519:
 2146              		.loc 1 449 0
 2147 0a6a 801B     		subs	r0, r0, r6
 2148              		.loc 1 450 0
 2149 0a6c C1E90003 		strd	r0, r3, [r1]
 2150              	.LVL243:
 2151              	.LBB505:
 2152              	.LBB506:
 2153              	.LBB507:
 2154              	.LBB508:
 2155              	.LBB509:
 2156              	.LBB510:
 2157              		.loc 3 493 0
 2158 0a70 2023     		movs	r3, #32
 2159              		.syntax unified
 2160              	@ 493 "./RM18A-ChibiOS18-Core/chibios/os/common/ext/ARM/CMSIS/Core/Include/cmsis_gcc.h" 1
 2161 0a72 83F31188 		MSR basepri, r3
 2162              	@ 0 "" 2
 2163              	.LVL244:
 2164              		.thumb
 2165              		.syntax unified
 2166              	.LBE510:
ARM GAS  /tmp/ccxvl19p.s 			page 39


 2167              	.LBE509:
 2168              	.LBE508:
 2169              	.LBE507:
 2170              	.LBE506:
 2171              	.LBE505:
 2172              	.LBB511:
 2173              	.LBB512:
 2174              		.loc 1 1128 0
 2175 0a76 E268     		ldr	r2, [r4, #12]
 2176 0a78 9369     		ldr	r3, [r2, #24]
 2177              	.LVL245:
 2178              		.loc 1 1149 0
 2179 0a7a 1668     		ldr	r6, [r2]
 2180              		.loc 1 1131 0
 2181 0a7c 1968     		ldr	r1, [r3]
 2182              	.LVL246:
 2183 0a7e D960     		str	r1, [r3, #12]
 2184              		.loc 1 1132 0
 2185 0a80 4029     		cmp	r1, #64
 2186              		.loc 1 1133 0
 2187 0a82 84BF     		itt	hi
 2188 0a84 4021     		movhi	r1, #64
 2189 0a86 1960     		strhi	r1, [r3]
 2190              		.loc 1 1140 0
 2191 0a88 538A     		ldrh	r3, [r2, #18]
 2192              	.LVL247:
 2193              		.loc 1 1145 0
 2194 0a8a 626D     		ldr	r2, [r4, #84]
 2195              	.LVL248:
 2196              		.loc 1 1140 0
 2197 0a8c 581E     		subs	r0, r3, #1
 2198 0a8e 0144     		add	r1, r1, r0
 2199 0a90 B1FBF3F1 		udiv	r1, r1, r3
 2200              	.LVL249:
 2201              		.loc 1 1142 0
 2202 0a94 01FB03F3 		mul	r3, r1, r3
 2203              	.LVL250:
 2204 0a98 0333     		adds	r3, r3, #3
 2205 0a9a 23F00303 		bic	r3, r3, #3
 2206              	.LVL251:
 2207              		.loc 1 1145 0
 2208 0a9e 43EAC143 		orr	r3, r3, r1, lsl #19
 2209              	.LVL252:
 2210              		.loc 1 1149 0
 2211 0aa2 06F00301 		and	r1, r6, #3
 2212              	.LVL253:
 2213              		.loc 1 1145 0
 2214 0aa6 43F0C043 		orr	r3, r3, #1610612736
 2215              		.loc 1 1149 0
 2216 0aaa 0129     		cmp	r1, #1
 2217              	.LVL254:
 2218              		.loc 1 1145 0
 2219 0aac C2F8103B 		str	r3, [r2, #2832]
 2220              		.loc 1 1149 0
 2221 0ab0 0CD1     		bne	.L55
 2222              		.loc 1 1151 0
 2223 0ab2 D2F80838 		ldr	r3, [r2, #2056]
ARM GAS  /tmp/ccxvl19p.s 			page 40


 2224 0ab6 13F4807F 		tst	r3, #256
 2225              		.loc 1 1152 0
 2226 0aba D2F8003B 		ldr	r3, [r2, #2816]
 2227 0abe 14BF     		ite	ne
 2228 0ac0 43F08053 		orrne	r3, r3, #268435456
 2229              		.loc 1 1154 0
 2230 0ac4 43F00053 		orreq	r3, r3, #536870912
 2231 0ac8 C2F8003B 		str	r3, [r2, #2816]
 2232              	.L55:
 2233              		.loc 1 1158 0
 2234 0acc D2F8003B 		ldr	r3, [r2, #2816]
 2235 0ad0 43F00443 		orr	r3, r3, #-2080374784
 2236 0ad4 C2F8003B 		str	r3, [r2, #2816]
 2237              	.LVL255:
 2238              	.LBE512:
 2239              	.LBE511:
 2240              	.LBB513:
 2241              	.LBB514:
 2242              	.LBB515:
 2243              	.LBB516:
 2244              	.LBB517:
 2245              	.LBB518:
 2246              		.loc 3 493 0
 2247 0ad8 0023     		movs	r3, #0
 2248              		.syntax unified
 2249              	@ 493 "./RM18A-ChibiOS18-Core/chibios/os/common/ext/ARM/CMSIS/Core/Include/cmsis_gcc.h" 1
 2250 0ada 83F31188 		MSR basepri, r3
 2251              	@ 0 "" 2
 2252              	.LVL256:
 2253              		.thumb
 2254              		.syntax unified
 2255 0ade FFF7D4BA 		b	.L50
 2256              	.L354:
 2257 0ae2 00BF     		.align	2
 2258              	.L353:
 2259 0ae4 40000020 		.word	536870976
 2260              	.LBE518:
 2261              	.LBE517:
 2262              	.LBE516:
 2263              	.LBE515:
 2264              	.LBE514:
 2265              	.LBE513:
 2266              	.LBE519:
 2267              	.LBE520:
 2268              	.LBE535:
 2269              	.LBE538:
 2270              	.LBE541:
 2271              		.cfi_endproc
 2272              	.LFE342:
 2273              		.size	Vector14C, .-Vector14C
 2274              		.section	.text.usb_lld_init,"ax",%progbits
 2275              		.align	1
 2276              		.p2align 2,,3
 2277              		.global	usb_lld_init
 2278              		.syntax unified
 2279              		.thumb
 2280              		.thumb_func
ARM GAS  /tmp/ccxvl19p.s 			page 41


 2281              		.fpu fpv4-sp-d16
 2282              		.type	usb_lld_init, %function
 2283              	usb_lld_init:
 2284              	.LFB343:
 2285              		.loc 1 709 0
 2286              		.cfi_startproc
 2287              		@ args = 0, pretend = 0, frame = 0
 2288              		@ frame_needed = 0, uses_anonymous_args = 0
 2289 0000 10B5     		push	{r4, lr}
 2290              		.cfi_def_cfa_offset 8
 2291              		.cfi_offset 4, -8
 2292              		.cfi_offset 14, -4
 2293              		.loc 1 713 0
 2294 0002 054C     		ldr	r4, .L357
 2295 0004 2046     		mov	r0, r4
 2296 0006 FFF7FEFF 		bl	usbObjectInit
 2297              	.LVL257:
 2298              		.loc 1 715 0
 2299 000a 044B     		ldr	r3, .L357+4
 2300              		.loc 1 714 0
 2301 000c 4FF0A042 		mov	r2, #1342177280
 2302              		.loc 1 715 0
 2303 0010 C4E91523 		strd	r2, r3, [r4, #84]
 2304              		.loc 1 724 0
 2305 0014 10BD     		pop	{r4, pc}
 2306              	.L358:
 2307 0016 00BF     		.align	2
 2308              	.L357:
 2309 0018 00000000 		.word	.LANCHOR0
 2310 001c 00000000 		.word	.LANCHOR1
 2311              		.cfi_endproc
 2312              	.LFE343:
 2313              		.size	usb_lld_init, .-usb_lld_init
 2314              		.section	.text.usb_lld_start,"ax",%progbits
 2315              		.align	1
 2316              		.p2align 2,,3
 2317              		.global	usb_lld_start
 2318              		.syntax unified
 2319              		.thumb
 2320              		.thumb_func
 2321              		.fpu fpv4-sp-d16
 2322              		.type	usb_lld_start, %function
 2323              	usb_lld_start:
 2324              	.LFB344:
 2325              		.loc 1 736 0
 2326              		.cfi_startproc
 2327              		@ args = 0, pretend = 0, frame = 0
 2328              		@ frame_needed = 0, uses_anonymous_args = 0
 2329              	.LVL258:
 2330              		.loc 1 739 0
 2331 0000 0378     		ldrb	r3, [r0]	@ zero_extendqisi2
 2332 0002 012B     		cmp	r3, #1
 2333 0004 00D0     		beq	.L418
 2334 0006 7047     		bx	lr
 2335              	.L418:
 2336              		.loc 1 743 0
 2337 0008 A24B     		ldr	r3, .L421
ARM GAS  /tmp/ccxvl19p.s 			page 42


 2338 000a 9842     		cmp	r0, r3
 2339              		.loc 1 736 0
 2340 000c 70B5     		push	{r4, r5, r6, lr}
 2341              		.cfi_def_cfa_offset 16
 2342              		.cfi_offset 4, -16
 2343              		.cfi_offset 5, -12
 2344              		.cfi_offset 6, -8
 2345              		.cfi_offset 14, -4
 2346 000e 0646     		mov	r6, r0
 2347              		.loc 1 737 0
 2348 0010 456D     		ldr	r5, [r0, #84]
 2349              		.loc 1 743 0
 2350 0012 00F02081 		beq	.L419
 2351              		.loc 1 737 0
 2352 0016 2C46     		mov	r4, r5
 2353              	.LVL259:
 2354              	.L361:
 2355              		.loc 1 808 0
 2356 0018 0021     		movs	r1, #0
 2357              		.loc 1 811 0
 2358 001a C022     		movs	r2, #192
 2359              		.loc 1 826 0
 2360 001c 4FF43413 		mov	r3, #2949120
 2361              		.loc 1 808 0
 2362 0020 C5F8001E 		str	r1, [r5, #3584]
 2363              		.loc 1 811 0
 2364 0024 2A60     		str	r2, [r5]
 2365              		.loc 1 826 0
 2366 0026 AB63     		str	r3, [r5, #56]
 2367              	.LVL260:
 2368              	.L362:
 2369              	.LBB550:
 2370              	.LBB551:
 2371              		.loc 1 138 0
 2372 0028 2369     		ldr	r3, [r4, #16]
 2373 002a 002B     		cmp	r3, #0
 2374 002c FCDA     		bge	.L362
 2375              		.loc 1 142 0
 2376 002e 0123     		movs	r3, #1
 2377 0030 2361     		str	r3, [r4, #16]
 2378              	.LVL261:
 2379              	.LBB552:
 2380              	.LBB553:
 2381              		.loc 2 591 0
 2382 0032 0C20     		movs	r0, #12
 2383 0034 FFF7FEFF 		bl	chSysPolledDelayX
 2384              	.LVL262:
 2385              	.L363:
 2386              	.LBE553:
 2387              	.LBE552:
 2388              		.loc 1 144 0
 2389 0038 2369     		ldr	r3, [r4, #16]
 2390 003a DB07     		lsls	r3, r3, #31
 2391 003c FCD4     		bmi	.L363
 2392              	.LVL263:
 2393              	.LBB554:
 2394              	.LBB555:
ARM GAS  /tmp/ccxvl19p.s 			page 43


 2395              		.loc 2 591 0
 2396 003e 1220     		movs	r0, #18
 2397 0040 FFF7FEFF 		bl	chSysPolledDelayX
 2398              	.LVL264:
 2399              	.L364:
 2400              	.LBE555:
 2401              	.LBE554:
 2402              		.loc 1 150 0
 2403 0044 2369     		ldr	r3, [r4, #16]
 2404 0046 002B     		cmp	r3, #0
 2405 0048 FCDA     		bge	.L364
 2406              	.LBE551:
 2407              	.LBE550:
 2408              		.loc 1 836 0
 2409 004a D6E91532 		ldrd	r3, r2, [r6, #84]
 2410              	.LVL265:
 2411              	.LBB556:
 2412              	.LBB557:
 2413              		.loc 1 158 0
 2414 004e 9468     		ldr	r4, [r2, #8]
 2415              		.loc 1 161 0
 2416 0050 4FF0FF31 		mov	r1, #-1
 2417              	.LBE557:
 2418              	.LBE556:
 2419              		.loc 1 833 0
 2420 0054 0022     		movs	r2, #0
 2421 0056 AA60     		str	r2, [r5, #8]
 2422              	.LBB561:
 2423              	.LBB558:
 2424              		.loc 1 159 0
 2425 0058 C3F80029 		str	r2, [r3, #2304]
 2426              		.loc 1 160 0
 2427 005c C3F81029 		str	r2, [r3, #2320]
 2428              		.loc 1 161 0
 2429 0060 C3F80819 		str	r1, [r3, #2312]
 2430              		.loc 1 163 0
 2431 0064 C3F8002B 		str	r2, [r3, #2816]
 2432              		.loc 1 164 0
 2433 0068 C3F8102B 		str	r2, [r3, #2832]
 2434              		.loc 1 165 0
 2435 006c C3F8081B 		str	r1, [r3, #2824]
 2436              	.LVL266:
 2437              		.loc 1 158 0
 2438 0070 002C     		cmp	r4, #0
 2439 0072 00F0D580 		beq	.L365
 2440 0076 012C     		cmp	r4, #1
 2441              		.loc 1 159 0
 2442 0078 C3F82029 		str	r2, [r3, #2336]
 2443              		.loc 1 160 0
 2444 007c C3F83029 		str	r2, [r3, #2352]
 2445              		.loc 1 161 0
 2446 0080 C3F82819 		str	r1, [r3, #2344]
 2447              		.loc 1 163 0
 2448 0084 C3F8202B 		str	r2, [r3, #2848]
 2449              		.loc 1 164 0
 2450 0088 C3F8302B 		str	r2, [r3, #2864]
 2451              		.loc 1 165 0
ARM GAS  /tmp/ccxvl19p.s 			page 44


 2452 008c C3F8281B 		str	r1, [r3, #2856]
 2453              	.LVL267:
 2454              		.loc 1 158 0
 2455 0090 40F2C680 		bls	.L365
 2456 0094 022C     		cmp	r4, #2
 2457              		.loc 1 159 0
 2458 0096 C3F84029 		str	r2, [r3, #2368]
 2459              		.loc 1 160 0
 2460 009a C3F85029 		str	r2, [r3, #2384]
 2461              		.loc 1 161 0
 2462 009e C3F84819 		str	r1, [r3, #2376]
 2463              		.loc 1 163 0
 2464 00a2 C3F8402B 		str	r2, [r3, #2880]
 2465              		.loc 1 164 0
 2466 00a6 C3F8502B 		str	r2, [r3, #2896]
 2467              		.loc 1 165 0
 2468 00aa C3F8481B 		str	r1, [r3, #2888]
 2469              	.LVL268:
 2470              		.loc 1 158 0
 2471 00ae 00F0B780 		beq	.L365
 2472 00b2 032C     		cmp	r4, #3
 2473              		.loc 1 159 0
 2474 00b4 C3F86029 		str	r2, [r3, #2400]
 2475              		.loc 1 160 0
 2476 00b8 C3F87029 		str	r2, [r3, #2416]
 2477              		.loc 1 161 0
 2478 00bc C3F86819 		str	r1, [r3, #2408]
 2479              		.loc 1 163 0
 2480 00c0 C3F8602B 		str	r2, [r3, #2912]
 2481              		.loc 1 164 0
 2482 00c4 C3F8702B 		str	r2, [r3, #2928]
 2483              		.loc 1 165 0
 2484 00c8 C3F8681B 		str	r1, [r3, #2920]
 2485              	.LVL269:
 2486              		.loc 1 158 0
 2487 00cc 00F0A880 		beq	.L365
 2488 00d0 042C     		cmp	r4, #4
 2489              		.loc 1 159 0
 2490 00d2 C3F88029 		str	r2, [r3, #2432]
 2491              		.loc 1 160 0
 2492 00d6 C3F89029 		str	r2, [r3, #2448]
 2493              		.loc 1 161 0
 2494 00da C3F88819 		str	r1, [r3, #2440]
 2495              		.loc 1 163 0
 2496 00de C3F8802B 		str	r2, [r3, #2944]
 2497              		.loc 1 164 0
 2498 00e2 C3F8902B 		str	r2, [r3, #2960]
 2499              		.loc 1 165 0
 2500 00e6 C3F8881B 		str	r1, [r3, #2952]
 2501              	.LVL270:
 2502              		.loc 1 158 0
 2503 00ea 00F09980 		beq	.L365
 2504 00ee 052C     		cmp	r4, #5
 2505              		.loc 1 159 0
 2506 00f0 C3F8A029 		str	r2, [r3, #2464]
 2507              		.loc 1 160 0
 2508 00f4 C3F8B029 		str	r2, [r3, #2480]
ARM GAS  /tmp/ccxvl19p.s 			page 45


 2509              		.loc 1 161 0
 2510 00f8 C3F8A819 		str	r1, [r3, #2472]
 2511              		.loc 1 163 0
 2512 00fc C3F8A02B 		str	r2, [r3, #2976]
 2513              		.loc 1 164 0
 2514 0100 C3F8B02B 		str	r2, [r3, #2992]
 2515              		.loc 1 165 0
 2516 0104 C3F8A81B 		str	r1, [r3, #2984]
 2517              	.LVL271:
 2518              		.loc 1 158 0
 2519 0108 00F08A80 		beq	.L365
 2520 010c 062C     		cmp	r4, #6
 2521              		.loc 1 159 0
 2522 010e C3F8C029 		str	r2, [r3, #2496]
 2523              		.loc 1 160 0
 2524 0112 C3F8D029 		str	r2, [r3, #2512]
 2525              		.loc 1 161 0
 2526 0116 C3F8C819 		str	r1, [r3, #2504]
 2527              		.loc 1 163 0
 2528 011a C3F8C02B 		str	r2, [r3, #3008]
 2529              		.loc 1 164 0
 2530 011e C3F8D02B 		str	r2, [r3, #3024]
 2531              		.loc 1 165 0
 2532 0122 C3F8C81B 		str	r1, [r3, #3016]
 2533              	.LVL272:
 2534              		.loc 1 158 0
 2535 0126 7BD0     		beq	.L365
 2536 0128 072C     		cmp	r4, #7
 2537              		.loc 1 159 0
 2538 012a C3F8E029 		str	r2, [r3, #2528]
 2539              		.loc 1 160 0
 2540 012e C3F8F029 		str	r2, [r3, #2544]
 2541              		.loc 1 161 0
 2542 0132 C3F8E819 		str	r1, [r3, #2536]
 2543              		.loc 1 163 0
 2544 0136 C3F8E02B 		str	r2, [r3, #3040]
 2545              		.loc 1 164 0
 2546 013a C3F8F02B 		str	r2, [r3, #3056]
 2547              		.loc 1 165 0
 2548 013e C3F8E81B 		str	r1, [r3, #3048]
 2549              	.LVL273:
 2550              		.loc 1 158 0
 2551 0142 6DD0     		beq	.L365
 2552 0144 082C     		cmp	r4, #8
 2553              		.loc 1 159 0
 2554 0146 C3F8002A 		str	r2, [r3, #2560]
 2555              		.loc 1 160 0
 2556 014a C3F8102A 		str	r2, [r3, #2576]
 2557              		.loc 1 161 0
 2558 014e C3F8081A 		str	r1, [r3, #2568]
 2559              		.loc 1 163 0
 2560 0152 C3F8002C 		str	r2, [r3, #3072]
 2561              		.loc 1 164 0
 2562 0156 C3F8102C 		str	r2, [r3, #3088]
 2563              		.loc 1 165 0
 2564 015a C3F8081C 		str	r1, [r3, #3080]
 2565              	.LVL274:
ARM GAS  /tmp/ccxvl19p.s 			page 46


 2566              		.loc 1 158 0
 2567 015e 5FD0     		beq	.L365
 2568 0160 092C     		cmp	r4, #9
 2569              		.loc 1 159 0
 2570 0162 C3F8202A 		str	r2, [r3, #2592]
 2571              		.loc 1 160 0
 2572 0166 C3F8302A 		str	r2, [r3, #2608]
 2573              		.loc 1 161 0
 2574 016a C3F8281A 		str	r1, [r3, #2600]
 2575              		.loc 1 163 0
 2576 016e C3F8202C 		str	r2, [r3, #3104]
 2577              		.loc 1 164 0
 2578 0172 C3F8302C 		str	r2, [r3, #3120]
 2579              		.loc 1 165 0
 2580 0176 C3F8281C 		str	r1, [r3, #3112]
 2581              	.LVL275:
 2582              		.loc 1 158 0
 2583 017a 51D0     		beq	.L365
 2584 017c 0A2C     		cmp	r4, #10
 2585              		.loc 1 159 0
 2586 017e C3F8402A 		str	r2, [r3, #2624]
 2587              		.loc 1 160 0
 2588 0182 C3F8502A 		str	r2, [r3, #2640]
 2589              		.loc 1 161 0
 2590 0186 C3F8481A 		str	r1, [r3, #2632]
 2591              		.loc 1 163 0
 2592 018a C3F8402C 		str	r2, [r3, #3136]
 2593              		.loc 1 164 0
 2594 018e C3F8502C 		str	r2, [r3, #3152]
 2595              		.loc 1 165 0
 2596 0192 C3F8481C 		str	r1, [r3, #3144]
 2597              	.LVL276:
 2598              		.loc 1 158 0
 2599 0196 43D0     		beq	.L365
 2600 0198 0B2C     		cmp	r4, #11
 2601              		.loc 1 159 0
 2602 019a C3F8602A 		str	r2, [r3, #2656]
 2603              		.loc 1 160 0
 2604 019e C3F8702A 		str	r2, [r3, #2672]
 2605              		.loc 1 161 0
 2606 01a2 C3F8681A 		str	r1, [r3, #2664]
 2607              		.loc 1 163 0
 2608 01a6 C3F8602C 		str	r2, [r3, #3168]
 2609              		.loc 1 164 0
 2610 01aa C3F8702C 		str	r2, [r3, #3184]
 2611              		.loc 1 165 0
 2612 01ae C3F8681C 		str	r1, [r3, #3176]
 2613              	.LVL277:
 2614              		.loc 1 158 0
 2615 01b2 35D0     		beq	.L365
 2616 01b4 0C2C     		cmp	r4, #12
 2617              		.loc 1 159 0
 2618 01b6 C3F8802A 		str	r2, [r3, #2688]
 2619              		.loc 1 160 0
 2620 01ba C3F8902A 		str	r2, [r3, #2704]
 2621              		.loc 1 161 0
 2622 01be C3F8881A 		str	r1, [r3, #2696]
ARM GAS  /tmp/ccxvl19p.s 			page 47


 2623              		.loc 1 163 0
 2624 01c2 C3F8802C 		str	r2, [r3, #3200]
 2625              		.loc 1 164 0
 2626 01c6 C3F8902C 		str	r2, [r3, #3216]
 2627              		.loc 1 165 0
 2628 01ca C3F8881C 		str	r1, [r3, #3208]
 2629              	.LVL278:
 2630              		.loc 1 158 0
 2631 01ce 27D0     		beq	.L365
 2632 01d0 0D2C     		cmp	r4, #13
 2633              		.loc 1 159 0
 2634 01d2 C3F8A02A 		str	r2, [r3, #2720]
 2635              		.loc 1 160 0
 2636 01d6 C3F8B02A 		str	r2, [r3, #2736]
 2637              		.loc 1 161 0
 2638 01da C3F8A81A 		str	r1, [r3, #2728]
 2639              		.loc 1 163 0
 2640 01de C3F8A02C 		str	r2, [r3, #3232]
 2641              		.loc 1 164 0
 2642 01e2 C3F8B02C 		str	r2, [r3, #3248]
 2643              		.loc 1 165 0
 2644 01e6 C3F8A81C 		str	r1, [r3, #3240]
 2645              	.LVL279:
 2646              		.loc 1 158 0
 2647 01ea 19D0     		beq	.L365
 2648 01ec 0E2C     		cmp	r4, #14
 2649              		.loc 1 159 0
 2650 01ee C3F8C02A 		str	r2, [r3, #2752]
 2651              		.loc 1 160 0
 2652 01f2 C3F8D02A 		str	r2, [r3, #2768]
 2653              		.loc 1 161 0
 2654 01f6 C3F8C81A 		str	r1, [r3, #2760]
 2655              		.loc 1 163 0
 2656 01fa C3F8C02C 		str	r2, [r3, #3264]
 2657              		.loc 1 164 0
 2658 01fe C3F8D02C 		str	r2, [r3, #3280]
 2659              		.loc 1 165 0
 2660 0202 C3F8C81C 		str	r1, [r3, #3272]
 2661              	.LVL280:
 2662              		.loc 1 158 0
 2663 0206 0BD0     		beq	.L365
 2664              		.loc 1 159 0
 2665 0208 C3F8E02A 		str	r2, [r3, #2784]
 2666              		.loc 1 160 0
 2667 020c C3F8F02A 		str	r2, [r3, #2800]
 2668              		.loc 1 161 0
 2669 0210 C3F8E81A 		str	r1, [r3, #2792]
 2670              		.loc 1 163 0
 2671 0214 C3F8E02C 		str	r2, [r3, #3296]
 2672              		.loc 1 164 0
 2673 0218 C3F8F02C 		str	r2, [r3, #3312]
 2674              		.loc 1 165 0
 2675 021c C3F8E81C 		str	r1, [r3, #3304]
 2676              	.LVL281:
 2677              	.L365:
 2678              	.LBE558:
 2679              	.LBE561:
ARM GAS  /tmp/ccxvl19p.s 			page 48


 2680              		.loc 1 843 0
 2681 0220 7268     		ldr	r2, [r6, #4]
 2682 0222 D168     		ldr	r1, [r2, #12]
 2683              	.LBB562:
 2684              	.LBB559:
 2685              		.loc 1 167 0
 2686 0224 4FF00110 		mov	r0, #65537
 2687              	.LBE559:
 2688              	.LBE562:
 2689              		.loc 1 840 0
 2690 0228 0022     		movs	r2, #0
 2691              	.LBB563:
 2692              	.LBB560:
 2693              		.loc 1 167 0
 2694 022a C3F81C08 		str	r0, [r3, #2076]
 2695              	.LVL282:
 2696              	.LBE560:
 2697              	.LBE563:
 2698              		.loc 1 840 0
 2699 022e C5F81028 		str	r2, [r5, #2064]
 2700              		.loc 1 841 0
 2701 0232 C5F81428 		str	r2, [r5, #2068]
 2702              		.loc 1 842 0
 2703 0236 C5F81C28 		str	r2, [r5, #2076]
 2704              		.loc 1 843 0
 2705 023a 49B1     		cbz	r1, .L420
 2706              		.loc 1 848 0
 2707 023c 164B     		ldr	r3, .L421+4
 2708 023e AB61     		str	r3, [r5, #24]
 2709              	.L367:
 2710              		.loc 1 854 0
 2711 0240 4FF0FF33 		mov	r3, #-1
 2712 0244 6B61     		str	r3, [r5, #20]
 2713              		.loc 1 857 0
 2714 0246 AB68     		ldr	r3, [r5, #8]
 2715 0248 43F00103 		orr	r3, r3, #1
 2716 024c AB60     		str	r3, [r5, #8]
 2717              		.loc 1 859 0
 2718 024e 70BD     		pop	{r4, r5, r6, pc}
 2719              	.LVL283:
 2720              	.L420:
 2721              		.loc 1 844 0
 2722 0250 124B     		ldr	r3, .L421+8
 2723 0252 AB61     		str	r3, [r5, #24]
 2724 0254 F4E7     		b	.L367
 2725              	.LVL284:
 2726              	.L419:
 2727              		.loc 1 745 0
 2728 0256 124B     		ldr	r3, .L421+12
 2729 0258 5A6B     		ldr	r2, [r3, #52]
 2730 025a 42F08002 		orr	r2, r2, #128
 2731 025e 5A63     		str	r2, [r3, #52]
 2732 0260 5A6D     		ldr	r2, [r3, #84]
 2733 0262 42F08002 		orr	r2, r2, #128
 2734 0266 5A65     		str	r2, [r3, #84]
 2735 0268 5A6D     		ldr	r2, [r3, #84]
 2736              		.loc 1 746 0
ARM GAS  /tmp/ccxvl19p.s 			page 49


 2737 026a 5A69     		ldr	r2, [r3, #20]
 2738 026c 42F08002 		orr	r2, r2, #128
 2739 0270 5A61     		str	r2, [r3, #20]
 2740 0272 5A69     		ldr	r2, [r3, #20]
 2741 0274 22F08002 		bic	r2, r2, #128
 2742 0278 5A61     		str	r2, [r3, #20]
 2743              		.loc 1 749 0
 2744 027a 0E21     		movs	r1, #14
 2745 027c 4320     		movs	r0, #67
 2746              	.LVL285:
 2747              		.loc 1 746 0
 2748 027e 5B69     		ldr	r3, [r3, #20]
 2749              		.loc 1 749 0
 2750 0280 FFF7FEFF 		bl	nvicEnableVector
 2751              	.LVL286:
 2752              		.loc 1 754 0
 2753 0284 074A     		ldr	r2, .L421+16
 2754              		.loc 1 758 0
 2755 0286 084B     		ldr	r3, .L421+20
 2756              		.loc 1 754 0
 2757 0288 EA60     		str	r2, [r5, #12]
 2758 028a 746D     		ldr	r4, [r6, #84]
 2759              		.loc 1 758 0
 2760 028c C5F80038 		str	r3, [r5, #2048]
 2761 0290 C2E6     		b	.L361
 2762              	.L422:
 2763 0292 00BF     		.align	2
 2764              	.L421:
 2765 0294 00000000 		.word	.LANCHOR0
 2766 0298 083C30C0 		.word	-1070580728
 2767 029c 003C30C0 		.word	-1070580736
 2768 02a0 00380240 		.word	1073887232
 2769 02a4 40140040 		.word	1073747008
 2770 02a8 03002002 		.word	35651587
 2771              		.cfi_endproc
 2772              	.LFE344:
 2773              		.size	usb_lld_start, .-usb_lld_start
 2774              		.section	.text.usb_lld_stop,"ax",%progbits
 2775              		.align	1
 2776              		.p2align 2,,3
 2777              		.global	usb_lld_stop
 2778              		.syntax unified
 2779              		.thumb
 2780              		.thumb_func
 2781              		.fpu fpv4-sp-d16
 2782              		.type	usb_lld_stop, %function
 2783              	usb_lld_stop:
 2784              	.LFB345:
 2785              		.loc 1 868 0
 2786              		.cfi_startproc
 2787              		@ args = 0, pretend = 0, frame = 0
 2788              		@ frame_needed = 0, uses_anonymous_args = 0
 2789              	.LVL287:
 2790              		.loc 1 872 0
 2791 0000 0378     		ldrb	r3, [r0]	@ zero_extendqisi2
 2792 0002 012B     		cmp	r3, #1
 2793 0004 00F0F880 		beq	.L471
ARM GAS  /tmp/ccxvl19p.s 			page 50


 2794              		.loc 1 869 0
 2795 0008 D0E91532 		ldrd	r3, r2, [r0, #84]
 2796              	.LVL288:
 2797              		.loc 1 868 0
 2798 000c 10B5     		push	{r4, lr}
 2799              		.cfi_def_cfa_offset 8
 2800              		.cfi_offset 4, -8
 2801              		.cfi_offset 14, -4
 2802              	.LBB564:
 2803              	.LBB565:
 2804              		.loc 1 158 0
 2805 000e 9468     		ldr	r4, [r2, #8]
 2806              		.loc 1 161 0
 2807 0010 4FF0FF31 		mov	r1, #-1
 2808              		.loc 1 159 0
 2809 0014 0022     		movs	r2, #0
 2810 0016 C3F80029 		str	r2, [r3, #2304]
 2811              		.loc 1 160 0
 2812 001a C3F81029 		str	r2, [r3, #2320]
 2813              		.loc 1 161 0
 2814 001e C3F80819 		str	r1, [r3, #2312]
 2815              		.loc 1 163 0
 2816 0022 C3F8002B 		str	r2, [r3, #2816]
 2817              		.loc 1 164 0
 2818 0026 C3F8102B 		str	r2, [r3, #2832]
 2819              		.loc 1 165 0
 2820 002a C3F8081B 		str	r1, [r3, #2824]
 2821              	.LVL289:
 2822              		.loc 1 158 0
 2823 002e 002C     		cmp	r4, #0
 2824 0030 00F0D580 		beq	.L426
 2825 0034 012C     		cmp	r4, #1
 2826              		.loc 1 159 0
 2827 0036 C3F82029 		str	r2, [r3, #2336]
 2828              		.loc 1 160 0
 2829 003a C3F83029 		str	r2, [r3, #2352]
 2830              		.loc 1 161 0
 2831 003e C3F82819 		str	r1, [r3, #2344]
 2832              		.loc 1 163 0
 2833 0042 C3F8202B 		str	r2, [r3, #2848]
 2834              		.loc 1 164 0
 2835 0046 C3F8302B 		str	r2, [r3, #2864]
 2836              		.loc 1 165 0
 2837 004a C3F8281B 		str	r1, [r3, #2856]
 2838              	.LVL290:
 2839              		.loc 1 158 0
 2840 004e 40F2C680 		bls	.L426
 2841 0052 022C     		cmp	r4, #2
 2842              		.loc 1 159 0
 2843 0054 C3F84029 		str	r2, [r3, #2368]
 2844              		.loc 1 160 0
 2845 0058 C3F85029 		str	r2, [r3, #2384]
 2846              		.loc 1 161 0
 2847 005c C3F84819 		str	r1, [r3, #2376]
 2848              		.loc 1 163 0
 2849 0060 C3F8402B 		str	r2, [r3, #2880]
 2850              		.loc 1 164 0
ARM GAS  /tmp/ccxvl19p.s 			page 51


 2851 0064 C3F8502B 		str	r2, [r3, #2896]
 2852              		.loc 1 165 0
 2853 0068 C3F8481B 		str	r1, [r3, #2888]
 2854              	.LVL291:
 2855              		.loc 1 158 0
 2856 006c 00F0B780 		beq	.L426
 2857 0070 032C     		cmp	r4, #3
 2858              		.loc 1 159 0
 2859 0072 C3F86029 		str	r2, [r3, #2400]
 2860              		.loc 1 160 0
 2861 0076 C3F87029 		str	r2, [r3, #2416]
 2862              		.loc 1 161 0
 2863 007a C3F86819 		str	r1, [r3, #2408]
 2864              		.loc 1 163 0
 2865 007e C3F8602B 		str	r2, [r3, #2912]
 2866              		.loc 1 164 0
 2867 0082 C3F8702B 		str	r2, [r3, #2928]
 2868              		.loc 1 165 0
 2869 0086 C3F8681B 		str	r1, [r3, #2920]
 2870              	.LVL292:
 2871              		.loc 1 158 0
 2872 008a 00F0A880 		beq	.L426
 2873 008e 042C     		cmp	r4, #4
 2874              		.loc 1 159 0
 2875 0090 C3F88029 		str	r2, [r3, #2432]
 2876              		.loc 1 160 0
 2877 0094 C3F89029 		str	r2, [r3, #2448]
 2878              		.loc 1 161 0
 2879 0098 C3F88819 		str	r1, [r3, #2440]
 2880              		.loc 1 163 0
 2881 009c C3F8802B 		str	r2, [r3, #2944]
 2882              		.loc 1 164 0
 2883 00a0 C3F8902B 		str	r2, [r3, #2960]
 2884              		.loc 1 165 0
 2885 00a4 C3F8881B 		str	r1, [r3, #2952]
 2886              	.LVL293:
 2887              		.loc 1 158 0
 2888 00a8 00F09980 		beq	.L426
 2889 00ac 052C     		cmp	r4, #5
 2890              		.loc 1 159 0
 2891 00ae C3F8A029 		str	r2, [r3, #2464]
 2892              		.loc 1 160 0
 2893 00b2 C3F8B029 		str	r2, [r3, #2480]
 2894              		.loc 1 161 0
 2895 00b6 C3F8A819 		str	r1, [r3, #2472]
 2896              		.loc 1 163 0
 2897 00ba C3F8A02B 		str	r2, [r3, #2976]
 2898              		.loc 1 164 0
 2899 00be C3F8B02B 		str	r2, [r3, #2992]
 2900              		.loc 1 165 0
 2901 00c2 C3F8A81B 		str	r1, [r3, #2984]
 2902              	.LVL294:
 2903              		.loc 1 158 0
 2904 00c6 00F08A80 		beq	.L426
 2905 00ca 062C     		cmp	r4, #6
 2906              		.loc 1 159 0
 2907 00cc C3F8C029 		str	r2, [r3, #2496]
ARM GAS  /tmp/ccxvl19p.s 			page 52


 2908              		.loc 1 160 0
 2909 00d0 C3F8D029 		str	r2, [r3, #2512]
 2910              		.loc 1 161 0
 2911 00d4 C3F8C819 		str	r1, [r3, #2504]
 2912              		.loc 1 163 0
 2913 00d8 C3F8C02B 		str	r2, [r3, #3008]
 2914              		.loc 1 164 0
 2915 00dc C3F8D02B 		str	r2, [r3, #3024]
 2916              		.loc 1 165 0
 2917 00e0 C3F8C81B 		str	r1, [r3, #3016]
 2918              	.LVL295:
 2919              		.loc 1 158 0
 2920 00e4 7BD0     		beq	.L426
 2921 00e6 072C     		cmp	r4, #7
 2922              		.loc 1 159 0
 2923 00e8 C3F8E029 		str	r2, [r3, #2528]
 2924              		.loc 1 160 0
 2925 00ec C3F8F029 		str	r2, [r3, #2544]
 2926              		.loc 1 161 0
 2927 00f0 C3F8E819 		str	r1, [r3, #2536]
 2928              		.loc 1 163 0
 2929 00f4 C3F8E02B 		str	r2, [r3, #3040]
 2930              		.loc 1 164 0
 2931 00f8 C3F8F02B 		str	r2, [r3, #3056]
 2932              		.loc 1 165 0
 2933 00fc C3F8E81B 		str	r1, [r3, #3048]
 2934              	.LVL296:
 2935              		.loc 1 158 0
 2936 0100 6DD0     		beq	.L426
 2937 0102 082C     		cmp	r4, #8
 2938              		.loc 1 159 0
 2939 0104 C3F8002A 		str	r2, [r3, #2560]
 2940              		.loc 1 160 0
 2941 0108 C3F8102A 		str	r2, [r3, #2576]
 2942              		.loc 1 161 0
 2943 010c C3F8081A 		str	r1, [r3, #2568]
 2944              		.loc 1 163 0
 2945 0110 C3F8002C 		str	r2, [r3, #3072]
 2946              		.loc 1 164 0
 2947 0114 C3F8102C 		str	r2, [r3, #3088]
 2948              		.loc 1 165 0
 2949 0118 C3F8081C 		str	r1, [r3, #3080]
 2950              	.LVL297:
 2951              		.loc 1 158 0
 2952 011c 5FD0     		beq	.L426
 2953 011e 092C     		cmp	r4, #9
 2954              		.loc 1 159 0
 2955 0120 C3F8202A 		str	r2, [r3, #2592]
 2956              		.loc 1 160 0
 2957 0124 C3F8302A 		str	r2, [r3, #2608]
 2958              		.loc 1 161 0
 2959 0128 C3F8281A 		str	r1, [r3, #2600]
 2960              		.loc 1 163 0
 2961 012c C3F8202C 		str	r2, [r3, #3104]
 2962              		.loc 1 164 0
 2963 0130 C3F8302C 		str	r2, [r3, #3120]
 2964              		.loc 1 165 0
ARM GAS  /tmp/ccxvl19p.s 			page 53


 2965 0134 C3F8281C 		str	r1, [r3, #3112]
 2966              	.LVL298:
 2967              		.loc 1 158 0
 2968 0138 51D0     		beq	.L426
 2969 013a 0A2C     		cmp	r4, #10
 2970              		.loc 1 159 0
 2971 013c C3F8402A 		str	r2, [r3, #2624]
 2972              		.loc 1 160 0
 2973 0140 C3F8502A 		str	r2, [r3, #2640]
 2974              		.loc 1 161 0
 2975 0144 C3F8481A 		str	r1, [r3, #2632]
 2976              		.loc 1 163 0
 2977 0148 C3F8402C 		str	r2, [r3, #3136]
 2978              		.loc 1 164 0
 2979 014c C3F8502C 		str	r2, [r3, #3152]
 2980              		.loc 1 165 0
 2981 0150 C3F8481C 		str	r1, [r3, #3144]
 2982              	.LVL299:
 2983              		.loc 1 158 0
 2984 0154 43D0     		beq	.L426
 2985 0156 0B2C     		cmp	r4, #11
 2986              		.loc 1 159 0
 2987 0158 C3F8602A 		str	r2, [r3, #2656]
 2988              		.loc 1 160 0
 2989 015c C3F8702A 		str	r2, [r3, #2672]
 2990              		.loc 1 161 0
 2991 0160 C3F8681A 		str	r1, [r3, #2664]
 2992              		.loc 1 163 0
 2993 0164 C3F8602C 		str	r2, [r3, #3168]
 2994              		.loc 1 164 0
 2995 0168 C3F8702C 		str	r2, [r3, #3184]
 2996              		.loc 1 165 0
 2997 016c C3F8681C 		str	r1, [r3, #3176]
 2998              	.LVL300:
 2999              		.loc 1 158 0
 3000 0170 35D0     		beq	.L426
 3001 0172 0C2C     		cmp	r4, #12
 3002              		.loc 1 159 0
 3003 0174 C3F8802A 		str	r2, [r3, #2688]
 3004              		.loc 1 160 0
 3005 0178 C3F8902A 		str	r2, [r3, #2704]
 3006              		.loc 1 161 0
 3007 017c C3F8881A 		str	r1, [r3, #2696]
 3008              		.loc 1 163 0
 3009 0180 C3F8802C 		str	r2, [r3, #3200]
 3010              		.loc 1 164 0
 3011 0184 C3F8902C 		str	r2, [r3, #3216]
 3012              		.loc 1 165 0
 3013 0188 C3F8881C 		str	r1, [r3, #3208]
 3014              	.LVL301:
 3015              		.loc 1 158 0
 3016 018c 27D0     		beq	.L426
 3017 018e 0D2C     		cmp	r4, #13
 3018              		.loc 1 159 0
 3019 0190 C3F8A02A 		str	r2, [r3, #2720]
 3020              		.loc 1 160 0
 3021 0194 C3F8B02A 		str	r2, [r3, #2736]
ARM GAS  /tmp/ccxvl19p.s 			page 54


 3022              		.loc 1 161 0
 3023 0198 C3F8A81A 		str	r1, [r3, #2728]
 3024              		.loc 1 163 0
 3025 019c C3F8A02C 		str	r2, [r3, #3232]
 3026              		.loc 1 164 0
 3027 01a0 C3F8B02C 		str	r2, [r3, #3248]
 3028              		.loc 1 165 0
 3029 01a4 C3F8A81C 		str	r1, [r3, #3240]
 3030              	.LVL302:
 3031              		.loc 1 158 0
 3032 01a8 19D0     		beq	.L426
 3033 01aa 0E2C     		cmp	r4, #14
 3034              		.loc 1 159 0
 3035 01ac C3F8C02A 		str	r2, [r3, #2752]
 3036              		.loc 1 160 0
 3037 01b0 C3F8D02A 		str	r2, [r3, #2768]
 3038              		.loc 1 161 0
 3039 01b4 C3F8C81A 		str	r1, [r3, #2760]
 3040              		.loc 1 163 0
 3041 01b8 C3F8C02C 		str	r2, [r3, #3264]
 3042              		.loc 1 164 0
 3043 01bc C3F8D02C 		str	r2, [r3, #3280]
 3044              		.loc 1 165 0
 3045 01c0 C3F8C81C 		str	r1, [r3, #3272]
 3046              	.LVL303:
 3047              		.loc 1 158 0
 3048 01c4 0BD0     		beq	.L426
 3049              		.loc 1 159 0
 3050 01c6 C3F8E02A 		str	r2, [r3, #2784]
 3051              		.loc 1 160 0
 3052 01ca C3F8F02A 		str	r2, [r3, #2800]
 3053              		.loc 1 161 0
 3054 01ce C3F8E81A 		str	r1, [r3, #2792]
 3055              		.loc 1 163 0
 3056 01d2 C3F8E02C 		str	r2, [r3, #3296]
 3057              		.loc 1 164 0
 3058 01d6 C3F8F02C 		str	r2, [r3, #3312]
 3059              		.loc 1 165 0
 3060 01da C3F8E81C 		str	r1, [r3, #3304]
 3061              	.LVL304:
 3062              	.L426:
 3063              	.LBE565:
 3064              	.LBE564:
 3065              		.loc 1 883 0
 3066 01de 0E49     		ldr	r1, .L475
 3067              		.loc 1 878 0
 3068 01e0 0022     		movs	r2, #0
 3069              	.LBB568:
 3070              	.LBB566:
 3071              		.loc 1 167 0
 3072 01e2 4FF00114 		mov	r4, #65537
 3073              	.LBE566:
 3074              	.LBE568:
 3075              		.loc 1 883 0
 3076 01e6 8842     		cmp	r0, r1
 3077              	.LBB569:
 3078              	.LBB567:
ARM GAS  /tmp/ccxvl19p.s 			page 55


 3079              		.loc 1 167 0
 3080 01e8 C3F81C48 		str	r4, [r3, #2076]
 3081              	.LVL305:
 3082              	.LBE567:
 3083              	.LBE569:
 3084              		.loc 1 878 0
 3085 01ec C3F81C28 		str	r2, [r3, #2076]
 3086              		.loc 1 879 0
 3087 01f0 9A60     		str	r2, [r3, #8]
 3088              		.loc 1 880 0
 3089 01f2 9A63     		str	r2, [r3, #56]
 3090              		.loc 1 883 0
 3091 01f4 01D0     		beq	.L474
 3092              		.loc 1 899 0
 3093 01f6 10BD     		pop	{r4, pc}
 3094              	.LVL306:
 3095              	.L471:
 3096              		.cfi_def_cfa_offset 0
 3097              		.cfi_restore 4
 3098              		.cfi_restore 14
 3099 01f8 7047     		bx	lr
 3100              	.LVL307:
 3101              	.L474:
 3102              		.cfi_def_cfa_offset 8
 3103              		.cfi_offset 4, -8
 3104              		.cfi_offset 14, -4
 3105              		.loc 1 884 0
 3106 01fa 4320     		movs	r0, #67
 3107              	.LVL308:
 3108 01fc FFF7FEFF 		bl	nvicDisableVector
 3109              	.LVL309:
 3110              		.loc 1 885 0
 3111 0200 064B     		ldr	r3, .L475+4
 3112 0202 5A6B     		ldr	r2, [r3, #52]
 3113 0204 22F08002 		bic	r2, r2, #128
 3114 0208 5A63     		str	r2, [r3, #52]
 3115 020a 5A6D     		ldr	r2, [r3, #84]
 3116 020c 22F08002 		bic	r2, r2, #128
 3117 0210 5A65     		str	r2, [r3, #84]
 3118 0212 5B6D     		ldr	r3, [r3, #84]
 3119              		.loc 1 899 0
 3120 0214 10BD     		pop	{r4, pc}
 3121              	.L476:
 3122 0216 00BF     		.align	2
 3123              	.L475:
 3124 0218 00000000 		.word	.LANCHOR0
 3125 021c 00380240 		.word	1073887232
 3126              		.cfi_endproc
 3127              	.LFE345:
 3128              		.size	usb_lld_stop, .-usb_lld_stop
 3129              		.section	.text.usb_lld_reset,"ax",%progbits
 3130              		.align	1
 3131              		.p2align 2,,3
 3132              		.global	usb_lld_reset
 3133              		.syntax unified
 3134              		.thumb
 3135              		.thumb_func
ARM GAS  /tmp/ccxvl19p.s 			page 56


 3136              		.fpu fpv4-sp-d16
 3137              		.type	usb_lld_reset, %function
 3138              	usb_lld_reset:
 3139              	.LFB346:
 3140              		.loc 1 908 0
 3141              		.cfi_startproc
 3142              		@ args = 0, pretend = 0, frame = 0
 3143              		@ frame_needed = 0, uses_anonymous_args = 0
 3144              	.LVL310:
 3145 0000 70B5     		push	{r4, r5, r6, lr}
 3146              		.cfi_def_cfa_offset 16
 3147              		.cfi_offset 4, -16
 3148              		.cfi_offset 5, -12
 3149              		.cfi_offset 6, -8
 3150              		.cfi_offset 14, -4
 3151              		.loc 1 910 0
 3152 0002 446D     		ldr	r4, [r0, #84]
 3153              	.LVL311:
 3154              	.LBB570:
 3155              	.LBB571:
 3156              		.loc 1 183 0
 3157 0004 2023     		movs	r3, #32
 3158              	.LBE571:
 3159              	.LBE570:
 3160              		.loc 1 908 0
 3161 0006 0646     		mov	r6, r0
 3162              	.LVL312:
 3163              	.LBB575:
 3164              	.LBB574:
 3165              		.loc 1 183 0
 3166 0008 2361     		str	r3, [r4, #16]
 3167              	.L478:
 3168              		.loc 1 184 0
 3169 000a 2569     		ldr	r5, [r4, #16]
 3170 000c 15F02005 		ands	r5, r5, #32
 3171 0010 FBD1     		bne	.L478
 3172              	.LVL313:
 3173              	.LBB572:
 3174              	.LBB573:
 3175              		.loc 2 591 0
 3176 0012 1220     		movs	r0, #18
 3177              	.LVL314:
 3178 0014 FFF7FEFF 		bl	chSysPolledDelayX
 3179              	.LVL315:
 3180              	.LBE573:
 3181              	.LBE572:
 3182              	.LBE574:
 3183              	.LBE575:
 3184              		.loc 1 920 0
 3185 0018 B06D     		ldr	r0, [r6, #88]
 3186              		.loc 1 916 0
 3187 001a C4F83458 		str	r5, [r4, #2100]
 3188              		.loc 1 920 0
 3189 001e 8168     		ldr	r1, [r0, #8]
 3190              		.loc 1 921 0
 3191 0020 4FF00062 		mov	r2, #134217728
 3192              		.loc 1 923 0
ARM GAS  /tmp/ccxvl19p.s 			page 57


 3193 0024 4FF0FF33 		mov	r3, #-1
 3194              		.loc 1 917 0
 3195 0028 4FF00115 		mov	r5, #65537
 3196 002c C4F81C58 		str	r5, [r4, #2076]
 3197              	.LVL316:
 3198              		.loc 1 921 0
 3199 0030 C4F80029 		str	r2, [r4, #2304]
 3200              		.loc 1 922 0
 3201 0034 C4F8002B 		str	r2, [r4, #2816]
 3202              		.loc 1 923 0
 3203 0038 C4F80839 		str	r3, [r4, #2312]
 3204              		.loc 1 924 0
 3205 003c C4F8083B 		str	r3, [r4, #2824]
 3206              	.LVL317:
 3207              		.loc 1 920 0
 3208 0040 0029     		cmp	r1, #0
 3209 0042 00F09580 		beq	.L479
 3210 0046 0129     		cmp	r1, #1
 3211              		.loc 1 921 0
 3212 0048 C4F82029 		str	r2, [r4, #2336]
 3213              		.loc 1 922 0
 3214 004c C4F8202B 		str	r2, [r4, #2848]
 3215              		.loc 1 923 0
 3216 0050 C4F82839 		str	r3, [r4, #2344]
 3217              		.loc 1 924 0
 3218 0054 C4F8283B 		str	r3, [r4, #2856]
 3219              	.LVL318:
 3220              		.loc 1 920 0
 3221 0058 40F28A80 		bls	.L479
 3222 005c 0229     		cmp	r1, #2
 3223              		.loc 1 921 0
 3224 005e C4F84029 		str	r2, [r4, #2368]
 3225              		.loc 1 922 0
 3226 0062 C4F8402B 		str	r2, [r4, #2880]
 3227              		.loc 1 923 0
 3228 0066 C4F84839 		str	r3, [r4, #2376]
 3229              		.loc 1 924 0
 3230 006a C4F8483B 		str	r3, [r4, #2888]
 3231              	.LVL319:
 3232              		.loc 1 920 0
 3233 006e 7FD0     		beq	.L479
 3234 0070 0329     		cmp	r1, #3
 3235              		.loc 1 921 0
 3236 0072 C4F86029 		str	r2, [r4, #2400]
 3237              		.loc 1 922 0
 3238 0076 C4F8602B 		str	r2, [r4, #2912]
 3239              		.loc 1 923 0
 3240 007a C4F86839 		str	r3, [r4, #2408]
 3241              		.loc 1 924 0
 3242 007e C4F8683B 		str	r3, [r4, #2920]
 3243              	.LVL320:
 3244              		.loc 1 920 0
 3245 0082 75D0     		beq	.L479
 3246 0084 0429     		cmp	r1, #4
 3247              		.loc 1 921 0
 3248 0086 C4F88029 		str	r2, [r4, #2432]
 3249              		.loc 1 922 0
ARM GAS  /tmp/ccxvl19p.s 			page 58


 3250 008a C4F8802B 		str	r2, [r4, #2944]
 3251              		.loc 1 923 0
 3252 008e C4F88839 		str	r3, [r4, #2440]
 3253              		.loc 1 924 0
 3254 0092 C4F8883B 		str	r3, [r4, #2952]
 3255              	.LVL321:
 3256              		.loc 1 920 0
 3257 0096 6BD0     		beq	.L479
 3258 0098 0529     		cmp	r1, #5
 3259              		.loc 1 921 0
 3260 009a C4F8A029 		str	r2, [r4, #2464]
 3261              		.loc 1 922 0
 3262 009e C4F8A02B 		str	r2, [r4, #2976]
 3263              		.loc 1 923 0
 3264 00a2 C4F8A839 		str	r3, [r4, #2472]
 3265              		.loc 1 924 0
 3266 00a6 C4F8A83B 		str	r3, [r4, #2984]
 3267              	.LVL322:
 3268              		.loc 1 920 0
 3269 00aa 61D0     		beq	.L479
 3270 00ac 0629     		cmp	r1, #6
 3271              		.loc 1 921 0
 3272 00ae C4F8C029 		str	r2, [r4, #2496]
 3273              		.loc 1 922 0
 3274 00b2 C4F8C02B 		str	r2, [r4, #3008]
 3275              		.loc 1 923 0
 3276 00b6 C4F8C839 		str	r3, [r4, #2504]
 3277              		.loc 1 924 0
 3278 00ba C4F8C83B 		str	r3, [r4, #3016]
 3279              	.LVL323:
 3280              		.loc 1 920 0
 3281 00be 57D0     		beq	.L479
 3282 00c0 0729     		cmp	r1, #7
 3283              		.loc 1 921 0
 3284 00c2 C4F8E029 		str	r2, [r4, #2528]
 3285              		.loc 1 922 0
 3286 00c6 C4F8E02B 		str	r2, [r4, #3040]
 3287              		.loc 1 923 0
 3288 00ca C4F8E839 		str	r3, [r4, #2536]
 3289              		.loc 1 924 0
 3290 00ce C4F8E83B 		str	r3, [r4, #3048]
 3291              	.LVL324:
 3292              		.loc 1 920 0
 3293 00d2 4DD0     		beq	.L479
 3294 00d4 0829     		cmp	r1, #8
 3295              		.loc 1 921 0
 3296 00d6 C4F8002A 		str	r2, [r4, #2560]
 3297              		.loc 1 922 0
 3298 00da C4F8002C 		str	r2, [r4, #3072]
 3299              		.loc 1 923 0
 3300 00de C4F8083A 		str	r3, [r4, #2568]
 3301              		.loc 1 924 0
 3302 00e2 C4F8083C 		str	r3, [r4, #3080]
 3303              	.LVL325:
 3304              		.loc 1 920 0
 3305 00e6 43D0     		beq	.L479
 3306 00e8 0929     		cmp	r1, #9
ARM GAS  /tmp/ccxvl19p.s 			page 59


 3307              		.loc 1 921 0
 3308 00ea C4F8202A 		str	r2, [r4, #2592]
 3309              		.loc 1 922 0
 3310 00ee C4F8202C 		str	r2, [r4, #3104]
 3311              		.loc 1 923 0
 3312 00f2 C4F8283A 		str	r3, [r4, #2600]
 3313              		.loc 1 924 0
 3314 00f6 C4F8283C 		str	r3, [r4, #3112]
 3315              	.LVL326:
 3316              		.loc 1 920 0
 3317 00fa 39D0     		beq	.L479
 3318 00fc 0A29     		cmp	r1, #10
 3319              		.loc 1 921 0
 3320 00fe C4F8402A 		str	r2, [r4, #2624]
 3321              		.loc 1 922 0
 3322 0102 C4F8402C 		str	r2, [r4, #3136]
 3323              		.loc 1 923 0
 3324 0106 C4F8483A 		str	r3, [r4, #2632]
 3325              		.loc 1 924 0
 3326 010a C4F8483C 		str	r3, [r4, #3144]
 3327              	.LVL327:
 3328              		.loc 1 920 0
 3329 010e 2FD0     		beq	.L479
 3330 0110 0B29     		cmp	r1, #11
 3331              		.loc 1 921 0
 3332 0112 C4F8602A 		str	r2, [r4, #2656]
 3333              		.loc 1 922 0
 3334 0116 C4F8602C 		str	r2, [r4, #3168]
 3335              		.loc 1 923 0
 3336 011a C4F8683A 		str	r3, [r4, #2664]
 3337              		.loc 1 924 0
 3338 011e C4F8683C 		str	r3, [r4, #3176]
 3339              	.LVL328:
 3340              		.loc 1 920 0
 3341 0122 25D0     		beq	.L479
 3342 0124 0C29     		cmp	r1, #12
 3343              		.loc 1 921 0
 3344 0126 C4F8802A 		str	r2, [r4, #2688]
 3345              		.loc 1 922 0
 3346 012a C4F8802C 		str	r2, [r4, #3200]
 3347              		.loc 1 923 0
 3348 012e C4F8883A 		str	r3, [r4, #2696]
 3349              		.loc 1 924 0
 3350 0132 C4F8883C 		str	r3, [r4, #3208]
 3351              	.LVL329:
 3352              		.loc 1 920 0
 3353 0136 1BD0     		beq	.L479
 3354 0138 0D29     		cmp	r1, #13
 3355              		.loc 1 921 0
 3356 013a C4F8A02A 		str	r2, [r4, #2720]
 3357              		.loc 1 922 0
 3358 013e C4F8A02C 		str	r2, [r4, #3232]
 3359              		.loc 1 923 0
 3360 0142 C4F8A83A 		str	r3, [r4, #2728]
 3361              		.loc 1 924 0
 3362 0146 C4F8A83C 		str	r3, [r4, #3240]
 3363              	.LVL330:
ARM GAS  /tmp/ccxvl19p.s 			page 60


 3364              		.loc 1 920 0
 3365 014a 11D0     		beq	.L479
 3366 014c 0E29     		cmp	r1, #14
 3367              		.loc 1 921 0
 3368 014e C4F8C02A 		str	r2, [r4, #2752]
 3369              		.loc 1 922 0
 3370 0152 C4F8C02C 		str	r2, [r4, #3264]
 3371              		.loc 1 923 0
 3372 0156 C4F8C83A 		str	r3, [r4, #2760]
 3373              		.loc 1 924 0
 3374 015a C4F8C83C 		str	r3, [r4, #3272]
 3375              	.LVL331:
 3376              		.loc 1 920 0
 3377 015e 07D0     		beq	.L479
 3378              		.loc 1 921 0 discriminator 3
 3379 0160 C4F8E02A 		str	r2, [r4, #2784]
 3380              		.loc 1 922 0 discriminator 3
 3381 0164 C4F8E02C 		str	r2, [r4, #3296]
 3382              		.loc 1 923 0 discriminator 3
 3383 0168 C4F8E83A 		str	r3, [r4, #2792]
 3384              		.loc 1 924 0 discriminator 3
 3385 016c C4F8E83C 		str	r3, [r4, #3304]
 3386              	.LVL332:
 3387              	.L479:
 3388              	.LBB576:
 3389              	.LBB577:
 3390              		.loc 1 199 0
 3391 0170 0368     		ldr	r3, [r0]
 3392 0172 F365     		str	r3, [r6, #92]
 3393              	.LBE577:
 3394              	.LBE576:
 3395              		.loc 1 931 0
 3396 0174 0368     		ldr	r3, [r0]
 3397              		.loc 1 932 0
 3398 0176 726D     		ldr	r2, [r6, #84]
 3399              	.LVL333:
 3400              		.loc 1 931 0
 3401 0178 6362     		str	r3, [r4, #36]
 3402              	.LBB578:
 3403              	.LBB579:
 3404              		.loc 1 173 0
 3405 017a 1023     		movs	r3, #16
 3406 017c 1361     		str	r3, [r2, #16]
 3407              	.L480:
 3408              		.loc 1 174 0
 3409 017e 1569     		ldr	r5, [r2, #16]
 3410 0180 15F01005 		ands	r5, r5, #16
 3411 0184 FBD1     		bne	.L480
 3412              	.LVL334:
 3413              	.LBB580:
 3414              	.LBB581:
 3415              		.loc 2 591 0
 3416 0186 1220     		movs	r0, #18
 3417 0188 FFF7FEFF 		bl	chSysPolledDelayX
 3418              	.LVL335:
 3419              	.LBE581:
 3420              	.LBE580:
ARM GAS  /tmp/ccxvl19p.s 			page 61


 3421              	.LBE579:
 3422              	.LBE578:
 3423              		.loc 1 935 0
 3424 018c D4F80038 		ldr	r3, [r4, #2048]
 3425              		.loc 1 945 0
 3426 0190 114A     		ldr	r2, .L526
 3427              		.loc 1 943 0
 3428 0192 1249     		ldr	r1, .L526+4
 3429              		.loc 1 935 0
 3430 0194 23F4FE63 		bic	r3, r3, #2032
 3431 0198 C4F80038 		str	r3, [r4, #2048]
 3432              		.loc 1 938 0
 3433 019c A369     		ldr	r3, [r4, #24]
 3434 019e 43F44023 		orr	r3, r3, #786432
 3435 01a2 43F01003 		orr	r3, r3, #16
 3436 01a6 A361     		str	r3, [r4, #24]
 3437              		.loc 1 939 0
 3438 01a8 0923     		movs	r3, #9
 3439 01aa C4F81038 		str	r3, [r4, #2064]
 3440              		.loc 1 940 0
 3441 01ae C4F81438 		str	r3, [r4, #2068]
 3442              		.loc 1 944 0
 3443 01b2 4FF0C043 		mov	r3, #1610612736
 3444              		.loc 1 943 0
 3445 01b6 F160     		str	r1, [r6, #12]
 3446              		.loc 1 944 0
 3447 01b8 C4F8103B 		str	r3, [r4, #2832]
 3448              		.loc 1 945 0
 3449 01bc C4F8002B 		str	r2, [r4, #2816]
 3450              		.loc 1 947 0
 3451 01c0 C4F81059 		str	r5, [r4, #2320]
 3452              		.loc 1 948 0
 3453 01c4 C4F80029 		str	r2, [r4, #2304]
 3454              	.LVL336:
 3455              	.LBB582:
 3456              	.LBB583:
 3457              		.loc 1 213 0
 3458 01c8 F36D     		ldr	r3, [r6, #92]
 3459              	.LVL337:
 3460              		.loc 1 214 0
 3461 01ca 03F11002 		add	r2, r3, #16
 3462              	.LBE583:
 3463              	.LBE582:
 3464              		.loc 1 950 0
 3465 01ce 43F48013 		orr	r3, r3, #1048576
 3466              	.LVL338:
 3467              	.LBB585:
 3468              	.LBB584:
 3469              		.loc 1 214 0
 3470 01d2 F265     		str	r2, [r6, #92]
 3471              	.LVL339:
 3472              	.LBE584:
 3473              	.LBE585:
 3474              		.loc 1 950 0
 3475 01d4 A362     		str	r3, [r4, #40]
 3476              		.loc 1 953 0
 3477 01d6 70BD     		pop	{r4, r5, r6, pc}
ARM GAS  /tmp/ccxvl19p.s 			page 62


 3478              	.LVL340:
 3479              	.L527:
 3480              		.align	2
 3481              	.L526:
 3482 01d8 40800010 		.word	268468288
 3483 01dc 00000000 		.word	.LANCHOR2
 3484              		.cfi_endproc
 3485              	.LFE346:
 3486              		.size	usb_lld_reset, .-usb_lld_reset
 3487              		.section	.text.usb_lld_set_address,"ax",%progbits
 3488              		.align	1
 3489              		.p2align 2,,3
 3490              		.global	usb_lld_set_address
 3491              		.syntax unified
 3492              		.thumb
 3493              		.thumb_func
 3494              		.fpu fpv4-sp-d16
 3495              		.type	usb_lld_set_address, %function
 3496              	usb_lld_set_address:
 3497              	.LFB347:
 3498              		.loc 1 962 0
 3499              		.cfi_startproc
 3500              		@ args = 0, pretend = 0, frame = 0
 3501              		@ frame_needed = 0, uses_anonymous_args = 0
 3502              		@ link register save eliminated.
 3503              	.LVL341:
 3504              		.loc 1 963 0
 3505 0000 426D     		ldr	r2, [r0, #84]
 3506              	.LVL342:
 3507              		.loc 1 965 0
 3508 0002 90F84E10 		ldrb	r1, [r0, #78]	@ zero_extendqisi2
 3509 0006 D2F80038 		ldr	r3, [r2, #2048]
 3510 000a 23F4FE63 		bic	r3, r3, #2032
 3511 000e 43EA0113 		orr	r3, r3, r1, lsl #4
 3512 0012 C2F80038 		str	r3, [r2, #2048]
 3513              		.loc 1 966 0
 3514 0016 7047     		bx	lr
 3515              		.cfi_endproc
 3516              	.LFE347:
 3517              		.size	usb_lld_set_address, .-usb_lld_set_address
 3518              		.section	.text.usb_lld_init_endpoint,"ax",%progbits
 3519              		.align	1
 3520              		.p2align 2,,3
 3521              		.global	usb_lld_init_endpoint
 3522              		.syntax unified
 3523              		.thumb
 3524              		.thumb_func
 3525              		.fpu fpv4-sp-d16
 3526              		.type	usb_lld_init_endpoint, %function
 3527              	usb_lld_init_endpoint:
 3528              	.LFB348:
 3529              		.loc 1 976 0
 3530              		.cfi_startproc
 3531              		@ args = 0, pretend = 0, frame = 0
 3532              		@ frame_needed = 0, uses_anonymous_args = 0
 3533              	.LVL343:
 3534 0000 2DE9F843 		push	{r3, r4, r5, r6, r7, r8, r9, lr}
ARM GAS  /tmp/ccxvl19p.s 			page 63


 3535              		.cfi_def_cfa_offset 32
 3536              		.cfi_offset 3, -32
 3537              		.cfi_offset 4, -28
 3538              		.cfi_offset 5, -24
 3539              		.cfi_offset 6, -20
 3540              		.cfi_offset 7, -16
 3541              		.cfi_offset 8, -12
 3542              		.cfi_offset 9, -8
 3543              		.cfi_offset 14, -4
 3544 0004 0FFA81F8 		sxth	r8, r1
 3545 0008 00EB8807 		add	r7, r0, r8, lsl #2
 3546              		.loc 1 976 0
 3547 000c 0D46     		mov	r5, r1
 3548              	.LVL344:
 3549              		.loc 1 981 0
 3550 000e FB68     		ldr	r3, [r7, #12]
 3551 0010 1A68     		ldr	r2, [r3]
 3552 0012 02F00302 		and	r2, r2, #3
 3553 0016 022A     		cmp	r2, #2
 3554 0018 00F09780 		beq	.L531
 3555 001c 032A     		cmp	r2, #3
 3556 001e 00F09180 		beq	.L532
 3557              		.loc 1 983 0
 3558 0022 4B4C     		ldr	r4, .L545
 3559 0024 4B49     		ldr	r1, .L545+4
 3560              	.LVL345:
 3561 0026 012A     		cmp	r2, #1
 3562 0028 0CBF     		ite	eq
 3563 002a A146     		moveq	r9, r4
 3564 002c 8946     		movne	r9, r1
 3565              	.L533:
 3566              		.loc 1 978 0
 3567 002e 446D     		ldr	r4, [r0, #84]
 3568              	.LVL346:
 3569              		.loc 1 1000 0
 3570 0030 9E69     		ldr	r6, [r3, #24]
 3571              		.loc 1 999 0
 3572 0032 6901     		lsls	r1, r5, #5
 3573 0034 6218     		adds	r2, r4, r1
 3574 0036 4FF0000C 		mov	ip, #0
 3575 003a C2F810CB 		str	ip, [r2, #2832]
 3576 003e 05F11002 		add	r2, r5, #16
 3577 0042 4FF0010C 		mov	ip, #1
 3578 0046 0CFA02F2 		lsl	r2, ip, r2
 3579              		.loc 1 1000 0
 3580 004a 002E     		cmp	r6, #0
 3581 004c 4BD0     		beq	.L534
 3582              		.loc 1 1001 0
 3583 004e B3F812C0 		ldrh	ip, [r3, #18]
 3584 0052 05F15806 		add	r6, r5, #88
 3585 0056 7601     		lsls	r6, r6, #5
 3586 0058 4CEA090C 		orr	ip, ip, r9
 3587 005c 44F806C0 		str	ip, [r4, r6]
 3588              		.loc 1 1002 0
 3589 0060 D4F81C68 		ldr	r6, [r4, #2076]
 3590 0064 3243     		orrs	r2, r2, r6
 3591 0066 C4F81C28 		str	r2, [r4, #2076]
ARM GAS  /tmp/ccxvl19p.s 			page 64


 3592              	.L535:
 3593              		.loc 1 1010 0
 3594 006a 6618     		adds	r6, r4, r1
 3595              		.loc 1 1011 0
 3596 006c D3F814C0 		ldr	ip, [r3, #20]
 3597              		.loc 1 1010 0
 3598 0070 0022     		movs	r2, #0
 3599 0072 A901     		lsls	r1, r5, #6
 3600 0074 C6F81029 		str	r2, [r6, #2320]
 3601 0078 41F02001 		orr	r1, r1, #32
 3602 007c 6A1E     		subs	r2, r5, #1
 3603              		.loc 1 1011 0
 3604 007e BCF1000F 		cmp	ip, #0
 3605 0082 3FD0     		beq	.L536
 3606              		.loc 1 1014 0
 3607 0084 B3F81CC0 		ldrh	ip, [r3, #28]
 3608              		.loc 1 1013 0
 3609 0088 1E8A     		ldrh	r6, [r3, #16]
 3610              		.loc 1 1014 0
 3611 008a BCF1010F 		cmp	ip, #1
 3612              		.loc 1 1013 0
 3613 008e 4FEA9603 		lsr	r3, r6, #2
 3614              	.LVL347:
 3615              		.loc 1 1016 0
 3616 0092 02F14002 		add	r2, r2, #64
 3617              	.LBB586:
 3618              	.LBB587:
 3619              		.loc 1 213 0
 3620 0096 C66D     		ldr	r6, [r0, #92]
 3621              	.LBE587:
 3622              	.LBE586:
 3623              		.loc 1 1015 0
 3624 0098 88BF     		it	hi
 3625 009a 0CFB03F3 		mulhi	r3, ip, r3
 3626              	.LVL348:
 3627              		.loc 1 1016 0
 3628 009e 04EB8202 		add	r2, r4, r2, lsl #2
 3629              	.LBB590:
 3630              	.LBB588:
 3631              		.loc 1 214 0
 3632 00a2 03EB060C 		add	ip, r3, r6
 3633              	.LBE588:
 3634              	.LBE590:
 3635              		.loc 1 1016 0
 3636 00a6 46EA0343 		orr	r3, r6, r3, lsl #16
 3637              	.LVL349:
 3638              	.LBB591:
 3639              	.LBB589:
 3640              		.loc 1 214 0
 3641 00aa C0F85CC0 		str	ip, [r0, #92]
 3642              	.LVL350:
 3643              	.LBE589:
 3644              	.LBE591:
 3645              		.loc 1 1016 0
 3646 00ae 5360     		str	r3, [r2, #4]
 3647              	.LVL351:
 3648              	.LBB592:
ARM GAS  /tmp/ccxvl19p.s 			page 65


 3649              	.LBB593:
 3650              		.loc 1 183 0
 3651 00b0 2161     		str	r1, [r4, #16]
 3652              	.L538:
 3653              		.loc 1 184 0
 3654 00b2 2369     		ldr	r3, [r4, #16]
 3655 00b4 9A06     		lsls	r2, r3, #26
 3656 00b6 FCD4     		bmi	.L538
 3657              	.LVL352:
 3658              	.LBB594:
 3659              	.LBB595:
 3660              		.loc 2 591 0
 3661 00b8 1220     		movs	r0, #18
 3662              	.LVL353:
 3663 00ba FFF7FEFF 		bl	chSysPolledDelayX
 3664              	.LVL354:
 3665              	.LBE595:
 3666              	.LBE594:
 3667              	.LBE593:
 3668              	.LBE592:
 3669              		.loc 1 1022 0
 3670 00be FB68     		ldr	r3, [r7, #12]
 3671 00c0 1A8A     		ldrh	r2, [r3, #16]
 3672              		.loc 1 1020 0
 3673 00c2 05F14803 		add	r3, r5, #72
 3674              		.loc 1 1021 0
 3675 00c6 42EA8552 		orr	r2, r2, r5, lsl #22
 3676              		.loc 1 1020 0
 3677 00ca 5B01     		lsls	r3, r3, #5
 3678              		.loc 1 1021 0
 3679 00cc 42EA0902 		orr	r2, r2, r9
 3680              		.loc 1 1020 0
 3681 00d0 E250     		str	r2, [r4, r3]
 3682              		.loc 1 1023 0
 3683 00d2 0121     		movs	r1, #1
 3684 00d4 D4F81C38 		ldr	r3, [r4, #2076]
 3685 00d8 01FA05F5 		lsl	r5, r1, r5
 3686 00dc 1D43     		orrs	r5, r5, r3
 3687 00de C4F81C58 		str	r5, [r4, #2076]
 3688              		.loc 1 1031 0
 3689 00e2 BDE8F883 		pop	{r3, r4, r5, r6, r7, r8, r9, pc}
 3690              	.LVL355:
 3691              	.L534:
 3692 00e6 04EB481C 		add	ip, r4, r8, lsl #5
 3693              		.loc 1 1005 0
 3694 00ea DCF8006B 		ldr	r6, [ip, #2816]
 3695 00ee 26F40046 		bic	r6, r6, #32768
 3696 00f2 CCF8006B 		str	r6, [ip, #2816]
 3697              		.loc 1 1006 0
 3698 00f6 D4F81C68 		ldr	r6, [r4, #2076]
 3699 00fa 26EA0202 		bic	r2, r6, r2
 3700 00fe C4F81C28 		str	r2, [r4, #2076]
 3701 0102 B2E7     		b	.L535
 3702              	.L536:
 3703              		.loc 1 1026 0
 3704 0104 05F13F03 		add	r3, r5, #63
 3705 0108 04EB8303 		add	r3, r4, r3, lsl #2
ARM GAS  /tmp/ccxvl19p.s 			page 66


 3706 010c 124A     		ldr	r2, .L545+8
 3707 010e 5A60     		str	r2, [r3, #4]
 3708              	.LVL356:
 3709              	.LBB596:
 3710              	.LBB597:
 3711              		.loc 1 183 0
 3712 0110 2161     		str	r1, [r4, #16]
 3713              	.L540:
 3714              		.loc 1 184 0
 3715 0112 2369     		ldr	r3, [r4, #16]
 3716 0114 9B06     		lsls	r3, r3, #26
 3717 0116 FCD4     		bmi	.L540
 3718              	.LVL357:
 3719 0118 04EB4818 		add	r8, r4, r8, lsl #5
 3720              	.LBB598:
 3721              	.LBB599:
 3722              		.loc 2 591 0
 3723 011c 1220     		movs	r0, #18
 3724              	.LVL358:
 3725 011e FFF7FEFF 		bl	chSysPolledDelayX
 3726              	.LVL359:
 3727              	.LBE599:
 3728              	.LBE598:
 3729              	.LBE597:
 3730              	.LBE596:
 3731              		.loc 1 1028 0
 3732 0122 D8F80039 		ldr	r3, [r8, #2304]
 3733 0126 23F40043 		bic	r3, r3, #32768
 3734 012a C8F80039 		str	r3, [r8, #2304]
 3735              		.loc 1 1029 0
 3736 012e D4F81C38 		ldr	r3, [r4, #2076]
 3737 0132 0121     		movs	r1, #1
 3738 0134 01FA05F5 		lsl	r5, r1, r5
 3739 0138 23EA0505 		bic	r5, r3, r5
 3740 013c C4F81C58 		str	r5, [r4, #2076]
 3741              		.loc 1 1031 0
 3742 0140 BDE8F883 		pop	{r3, r4, r5, r6, r7, r8, r9, pc}
 3743              	.LVL360:
 3744              	.L532:
 3745              		.loc 1 992 0
 3746 0144 DFF81490 		ldr	r9, .L545+12
 3747              		.loc 1 993 0
 3748 0148 71E7     		b	.L533
 3749              	.LVL361:
 3750              	.L531:
 3751              		.loc 1 989 0
 3752 014a DFF81490 		ldr	r9, .L545+16
 3753              		.loc 1 990 0
 3754 014e 6EE7     		b	.L533
 3755              	.L546:
 3756              		.align	2
 3757              	.L545:
 3758 0150 00800410 		.word	268730368
 3759 0154 00800010 		.word	268468224
 3760 0158 00040002 		.word	33555456
 3761 015c 00800C10 		.word	269254656
 3762 0160 00800810 		.word	268992512
ARM GAS  /tmp/ccxvl19p.s 			page 67


 3763              		.cfi_endproc
 3764              	.LFE348:
 3765              		.size	usb_lld_init_endpoint, .-usb_lld_init_endpoint
 3766              		.section	.text.usb_lld_disable_endpoints,"ax",%progbits
 3767              		.align	1
 3768              		.p2align 2,,3
 3769              		.global	usb_lld_disable_endpoints
 3770              		.syntax unified
 3771              		.thumb
 3772              		.thumb_func
 3773              		.fpu fpv4-sp-d16
 3774              		.type	usb_lld_disable_endpoints, %function
 3775              	usb_lld_disable_endpoints:
 3776              	.LFB349:
 3777              		.loc 1 1040 0
 3778              		.cfi_startproc
 3779              		@ args = 0, pretend = 0, frame = 0
 3780              		@ frame_needed = 0, uses_anonymous_args = 0
 3781              		@ link register save eliminated.
 3782              	.LVL362:
 3783              		.loc 1 1046 0
 3784 0000 D0E91531 		ldrd	r3, r1, [r0, #84]
 3785              	.LVL363:
 3786              		.loc 1 1040 0
 3787 0004 10B4     		push	{r4}
 3788              		.cfi_def_cfa_offset 4
 3789              		.cfi_offset 4, -4
 3790              	.LBB600:
 3791              	.LBB601:
 3792              		.loc 1 199 0
 3793 0006 0C68     		ldr	r4, [r1]
 3794 0008 C465     		str	r4, [r0, #92]
 3795              	.LBE601:
 3796              	.LBE600:
 3797              	.LBB602:
 3798              	.LBB603:
 3799              		.loc 1 158 0
 3800 000a 8868     		ldr	r0, [r1, #8]
 3801              	.LVL364:
 3802              		.loc 1 159 0
 3803 000c 0022     		movs	r2, #0
 3804              		.loc 1 161 0
 3805 000e 4FF0FF31 		mov	r1, #-1
 3806              		.loc 1 159 0
 3807 0012 C3F80029 		str	r2, [r3, #2304]
 3808              		.loc 1 160 0
 3809 0016 C3F81029 		str	r2, [r3, #2320]
 3810              		.loc 1 161 0
 3811 001a C3F80819 		str	r1, [r3, #2312]
 3812              		.loc 1 163 0
 3813 001e C3F8002B 		str	r2, [r3, #2816]
 3814              		.loc 1 164 0
 3815 0022 C3F8102B 		str	r2, [r3, #2832]
 3816              		.loc 1 165 0
 3817 0026 C3F8081B 		str	r1, [r3, #2824]
 3818              	.LVL365:
 3819              		.loc 1 158 0
ARM GAS  /tmp/ccxvl19p.s 			page 68


 3820 002a 0028     		cmp	r0, #0
 3821 002c 00F0D580 		beq	.L548
 3822 0030 0128     		cmp	r0, #1
 3823              		.loc 1 159 0
 3824 0032 C3F82029 		str	r2, [r3, #2336]
 3825              		.loc 1 160 0
 3826 0036 C3F83029 		str	r2, [r3, #2352]
 3827              		.loc 1 161 0
 3828 003a C3F82819 		str	r1, [r3, #2344]
 3829              		.loc 1 163 0
 3830 003e C3F8202B 		str	r2, [r3, #2848]
 3831              		.loc 1 164 0
 3832 0042 C3F8302B 		str	r2, [r3, #2864]
 3833              		.loc 1 165 0
 3834 0046 C3F8281B 		str	r1, [r3, #2856]
 3835              	.LVL366:
 3836              		.loc 1 158 0
 3837 004a 40F2C680 		bls	.L548
 3838 004e 0228     		cmp	r0, #2
 3839              		.loc 1 159 0
 3840 0050 C3F84029 		str	r2, [r3, #2368]
 3841              		.loc 1 160 0
 3842 0054 C3F85029 		str	r2, [r3, #2384]
 3843              		.loc 1 161 0
 3844 0058 C3F84819 		str	r1, [r3, #2376]
 3845              		.loc 1 163 0
 3846 005c C3F8402B 		str	r2, [r3, #2880]
 3847              		.loc 1 164 0
 3848 0060 C3F8502B 		str	r2, [r3, #2896]
 3849              		.loc 1 165 0
 3850 0064 C3F8481B 		str	r1, [r3, #2888]
 3851              	.LVL367:
 3852              		.loc 1 158 0
 3853 0068 00F0B780 		beq	.L548
 3854 006c 0328     		cmp	r0, #3
 3855              		.loc 1 159 0
 3856 006e C3F86029 		str	r2, [r3, #2400]
 3857              		.loc 1 160 0
 3858 0072 C3F87029 		str	r2, [r3, #2416]
 3859              		.loc 1 161 0
 3860 0076 C3F86819 		str	r1, [r3, #2408]
 3861              		.loc 1 163 0
 3862 007a C3F8602B 		str	r2, [r3, #2912]
 3863              		.loc 1 164 0
 3864 007e C3F8702B 		str	r2, [r3, #2928]
 3865              		.loc 1 165 0
 3866 0082 C3F8681B 		str	r1, [r3, #2920]
 3867              	.LVL368:
 3868              		.loc 1 158 0
 3869 0086 00F0A880 		beq	.L548
 3870 008a 0428     		cmp	r0, #4
 3871              		.loc 1 159 0
 3872 008c C3F88029 		str	r2, [r3, #2432]
 3873              		.loc 1 160 0
 3874 0090 C3F89029 		str	r2, [r3, #2448]
 3875              		.loc 1 161 0
 3876 0094 C3F88819 		str	r1, [r3, #2440]
ARM GAS  /tmp/ccxvl19p.s 			page 69


 3877              		.loc 1 163 0
 3878 0098 C3F8802B 		str	r2, [r3, #2944]
 3879              		.loc 1 164 0
 3880 009c C3F8902B 		str	r2, [r3, #2960]
 3881              		.loc 1 165 0
 3882 00a0 C3F8881B 		str	r1, [r3, #2952]
 3883              	.LVL369:
 3884              		.loc 1 158 0
 3885 00a4 00F09980 		beq	.L548
 3886 00a8 0528     		cmp	r0, #5
 3887              		.loc 1 159 0
 3888 00aa C3F8A029 		str	r2, [r3, #2464]
 3889              		.loc 1 160 0
 3890 00ae C3F8B029 		str	r2, [r3, #2480]
 3891              		.loc 1 161 0
 3892 00b2 C3F8A819 		str	r1, [r3, #2472]
 3893              		.loc 1 163 0
 3894 00b6 C3F8A02B 		str	r2, [r3, #2976]
 3895              		.loc 1 164 0
 3896 00ba C3F8B02B 		str	r2, [r3, #2992]
 3897              		.loc 1 165 0
 3898 00be C3F8A81B 		str	r1, [r3, #2984]
 3899              	.LVL370:
 3900              		.loc 1 158 0
 3901 00c2 00F08A80 		beq	.L548
 3902 00c6 0628     		cmp	r0, #6
 3903              		.loc 1 159 0
 3904 00c8 C3F8C029 		str	r2, [r3, #2496]
 3905              		.loc 1 160 0
 3906 00cc C3F8D029 		str	r2, [r3, #2512]
 3907              		.loc 1 161 0
 3908 00d0 C3F8C819 		str	r1, [r3, #2504]
 3909              		.loc 1 163 0
 3910 00d4 C3F8C02B 		str	r2, [r3, #3008]
 3911              		.loc 1 164 0
 3912 00d8 C3F8D02B 		str	r2, [r3, #3024]
 3913              		.loc 1 165 0
 3914 00dc C3F8C81B 		str	r1, [r3, #3016]
 3915              	.LVL371:
 3916              		.loc 1 158 0
 3917 00e0 7BD0     		beq	.L548
 3918 00e2 0728     		cmp	r0, #7
 3919              		.loc 1 159 0
 3920 00e4 C3F8E029 		str	r2, [r3, #2528]
 3921              		.loc 1 160 0
 3922 00e8 C3F8F029 		str	r2, [r3, #2544]
 3923              		.loc 1 161 0
 3924 00ec C3F8E819 		str	r1, [r3, #2536]
 3925              		.loc 1 163 0
 3926 00f0 C3F8E02B 		str	r2, [r3, #3040]
 3927              		.loc 1 164 0
 3928 00f4 C3F8F02B 		str	r2, [r3, #3056]
 3929              		.loc 1 165 0
 3930 00f8 C3F8E81B 		str	r1, [r3, #3048]
 3931              	.LVL372:
 3932              		.loc 1 158 0
 3933 00fc 6DD0     		beq	.L548
ARM GAS  /tmp/ccxvl19p.s 			page 70


 3934 00fe 0828     		cmp	r0, #8
 3935              		.loc 1 159 0
 3936 0100 C3F8002A 		str	r2, [r3, #2560]
 3937              		.loc 1 160 0
 3938 0104 C3F8102A 		str	r2, [r3, #2576]
 3939              		.loc 1 161 0
 3940 0108 C3F8081A 		str	r1, [r3, #2568]
 3941              		.loc 1 163 0
 3942 010c C3F8002C 		str	r2, [r3, #3072]
 3943              		.loc 1 164 0
 3944 0110 C3F8102C 		str	r2, [r3, #3088]
 3945              		.loc 1 165 0
 3946 0114 C3F8081C 		str	r1, [r3, #3080]
 3947              	.LVL373:
 3948              		.loc 1 158 0
 3949 0118 5FD0     		beq	.L548
 3950 011a 0928     		cmp	r0, #9
 3951              		.loc 1 159 0
 3952 011c C3F8202A 		str	r2, [r3, #2592]
 3953              		.loc 1 160 0
 3954 0120 C3F8302A 		str	r2, [r3, #2608]
 3955              		.loc 1 161 0
 3956 0124 C3F8281A 		str	r1, [r3, #2600]
 3957              		.loc 1 163 0
 3958 0128 C3F8202C 		str	r2, [r3, #3104]
 3959              		.loc 1 164 0
 3960 012c C3F8302C 		str	r2, [r3, #3120]
 3961              		.loc 1 165 0
 3962 0130 C3F8281C 		str	r1, [r3, #3112]
 3963              	.LVL374:
 3964              		.loc 1 158 0
 3965 0134 51D0     		beq	.L548
 3966 0136 0A28     		cmp	r0, #10
 3967              		.loc 1 159 0
 3968 0138 C3F8402A 		str	r2, [r3, #2624]
 3969              		.loc 1 160 0
 3970 013c C3F8502A 		str	r2, [r3, #2640]
 3971              		.loc 1 161 0
 3972 0140 C3F8481A 		str	r1, [r3, #2632]
 3973              		.loc 1 163 0
 3974 0144 C3F8402C 		str	r2, [r3, #3136]
 3975              		.loc 1 164 0
 3976 0148 C3F8502C 		str	r2, [r3, #3152]
 3977              		.loc 1 165 0
 3978 014c C3F8481C 		str	r1, [r3, #3144]
 3979              	.LVL375:
 3980              		.loc 1 158 0
 3981 0150 43D0     		beq	.L548
 3982 0152 0B28     		cmp	r0, #11
 3983              		.loc 1 159 0
 3984 0154 C3F8602A 		str	r2, [r3, #2656]
 3985              		.loc 1 160 0
 3986 0158 C3F8702A 		str	r2, [r3, #2672]
 3987              		.loc 1 161 0
 3988 015c C3F8681A 		str	r1, [r3, #2664]
 3989              		.loc 1 163 0
 3990 0160 C3F8602C 		str	r2, [r3, #3168]
ARM GAS  /tmp/ccxvl19p.s 			page 71


 3991              		.loc 1 164 0
 3992 0164 C3F8702C 		str	r2, [r3, #3184]
 3993              		.loc 1 165 0
 3994 0168 C3F8681C 		str	r1, [r3, #3176]
 3995              	.LVL376:
 3996              		.loc 1 158 0
 3997 016c 35D0     		beq	.L548
 3998 016e 0C28     		cmp	r0, #12
 3999              		.loc 1 159 0
 4000 0170 C3F8802A 		str	r2, [r3, #2688]
 4001              		.loc 1 160 0
 4002 0174 C3F8902A 		str	r2, [r3, #2704]
 4003              		.loc 1 161 0
 4004 0178 C3F8881A 		str	r1, [r3, #2696]
 4005              		.loc 1 163 0
 4006 017c C3F8802C 		str	r2, [r3, #3200]
 4007              		.loc 1 164 0
 4008 0180 C3F8902C 		str	r2, [r3, #3216]
 4009              		.loc 1 165 0
 4010 0184 C3F8881C 		str	r1, [r3, #3208]
 4011              	.LVL377:
 4012              		.loc 1 158 0
 4013 0188 27D0     		beq	.L548
 4014 018a 0D28     		cmp	r0, #13
 4015              		.loc 1 159 0
 4016 018c C3F8A02A 		str	r2, [r3, #2720]
 4017              		.loc 1 160 0
 4018 0190 C3F8B02A 		str	r2, [r3, #2736]
 4019              		.loc 1 161 0
 4020 0194 C3F8A81A 		str	r1, [r3, #2728]
 4021              		.loc 1 163 0
 4022 0198 C3F8A02C 		str	r2, [r3, #3232]
 4023              		.loc 1 164 0
 4024 019c C3F8B02C 		str	r2, [r3, #3248]
 4025              		.loc 1 165 0
 4026 01a0 C3F8A81C 		str	r1, [r3, #3240]
 4027              	.LVL378:
 4028              		.loc 1 158 0
 4029 01a4 19D0     		beq	.L548
 4030 01a6 0E28     		cmp	r0, #14
 4031              		.loc 1 159 0
 4032 01a8 C3F8C02A 		str	r2, [r3, #2752]
 4033              		.loc 1 160 0
 4034 01ac C3F8D02A 		str	r2, [r3, #2768]
 4035              		.loc 1 161 0
 4036 01b0 C3F8C81A 		str	r1, [r3, #2760]
 4037              		.loc 1 163 0
 4038 01b4 C3F8C02C 		str	r2, [r3, #3264]
 4039              		.loc 1 164 0
 4040 01b8 C3F8D02C 		str	r2, [r3, #3280]
 4041              		.loc 1 165 0
 4042 01bc C3F8C81C 		str	r1, [r3, #3272]
 4043              	.LVL379:
 4044              		.loc 1 158 0
 4045 01c0 0BD0     		beq	.L548
 4046              		.loc 1 159 0
 4047 01c2 C3F8E02A 		str	r2, [r3, #2784]
ARM GAS  /tmp/ccxvl19p.s 			page 72


 4048              		.loc 1 160 0
 4049 01c6 C3F8F02A 		str	r2, [r3, #2800]
 4050              		.loc 1 161 0
 4051 01ca C3F8E81A 		str	r1, [r3, #2792]
 4052              		.loc 1 163 0
 4053 01ce C3F8E02C 		str	r2, [r3, #3296]
 4054              		.loc 1 164 0
 4055 01d2 C3F8F02C 		str	r2, [r3, #3312]
 4056              		.loc 1 165 0
 4057 01d6 C3F8E81C 		str	r1, [r3, #3304]
 4058              	.LVL380:
 4059              	.L548:
 4060              		.loc 1 167 0
 4061 01da 4FF00112 		mov	r2, #65537
 4062 01de C3F81C28 		str	r2, [r3, #2076]
 4063              	.LVL381:
 4064              	.LBE603:
 4065              	.LBE602:
 4066              		.loc 1 1047 0
 4067 01e2 5DF8044B 		ldr	r4, [sp], #4
 4068              		.cfi_restore 4
 4069              		.cfi_def_cfa_offset 0
 4070 01e6 7047     		bx	lr
 4071              		.cfi_endproc
 4072              	.LFE349:
 4073              		.size	usb_lld_disable_endpoints, .-usb_lld_disable_endpoints
 4074              		.section	.text.usb_lld_get_status_out,"ax",%progbits
 4075              		.align	1
 4076              		.p2align 2,,3
 4077              		.global	usb_lld_get_status_out
 4078              		.syntax unified
 4079              		.thumb
 4080              		.thumb_func
 4081              		.fpu fpv4-sp-d16
 4082              		.type	usb_lld_get_status_out, %function
 4083              	usb_lld_get_status_out:
 4084              	.LFB350:
 4085              		.loc 1 1061 0
 4086              		.cfi_startproc
 4087              		@ args = 0, pretend = 0, frame = 0
 4088              		@ frame_needed = 0, uses_anonymous_args = 0
 4089              		@ link register save eliminated.
 4090              	.LVL382:
 4091              		.loc 1 1066 0
 4092 0000 5831     		adds	r1, r1, #88
 4093              	.LVL383:
 4094 0002 436D     		ldr	r3, [r0, #84]
 4095 0004 4901     		lsls	r1, r1, #5
 4096 0006 5B58     		ldr	r3, [r3, r1]
 4097              	.LVL384:
 4098              		.loc 1 1067 0
 4099 0008 13F40040 		ands	r0, r3, #32768
 4100              	.LVL385:
 4101 000c 04D0     		beq	.L593
 4102              		.loc 1 1069 0
 4103 000e 13F4001F 		tst	r3, #2097152
 4104              		.loc 1 1071 0
ARM GAS  /tmp/ccxvl19p.s 			page 73


 4105 0012 14BF     		ite	ne
 4106 0014 0120     		movne	r0, #1
 4107 0016 0220     		moveq	r0, #2
 4108              	.L593:
 4109              		.loc 1 1072 0
 4110 0018 7047     		bx	lr
 4111              		.cfi_endproc
 4112              	.LFE350:
 4113              		.size	usb_lld_get_status_out, .-usb_lld_get_status_out
 4114 001a 00BF     		.section	.text.usb_lld_get_status_in,"ax",%progbits
 4115              		.align	1
 4116              		.p2align 2,,3
 4117              		.global	usb_lld_get_status_in
 4118              		.syntax unified
 4119              		.thumb
 4120              		.thumb_func
 4121              		.fpu fpv4-sp-d16
 4122              		.type	usb_lld_get_status_in, %function
 4123              	usb_lld_get_status_in:
 4124              	.LFB351:
 4125              		.loc 1 1086 0
 4126              		.cfi_startproc
 4127              		@ args = 0, pretend = 0, frame = 0
 4128              		@ frame_needed = 0, uses_anonymous_args = 0
 4129              		@ link register save eliminated.
 4130              	.LVL386:
 4131              		.loc 1 1091 0
 4132 0000 4831     		adds	r1, r1, #72
 4133              	.LVL387:
 4134 0002 436D     		ldr	r3, [r0, #84]
 4135 0004 4901     		lsls	r1, r1, #5
 4136 0006 5B58     		ldr	r3, [r3, r1]
 4137              	.LVL388:
 4138              		.loc 1 1092 0
 4139 0008 13F40040 		ands	r0, r3, #32768
 4140              	.LVL389:
 4141 000c 04D0     		beq	.L597
 4142              		.loc 1 1094 0
 4143 000e 13F4001F 		tst	r3, #2097152
 4144              		.loc 1 1096 0
 4145 0012 14BF     		ite	ne
 4146 0014 0120     		movne	r0, #1
 4147 0016 0220     		moveq	r0, #2
 4148              	.L597:
 4149              		.loc 1 1097 0
 4150 0018 7047     		bx	lr
 4151              		.cfi_endproc
 4152              	.LFE351:
 4153              		.size	usb_lld_get_status_in, .-usb_lld_get_status_in
 4154 001a 00BF     		.section	.text.usb_lld_read_setup,"ax",%progbits
 4155              		.align	1
 4156              		.p2align 2,,3
 4157              		.global	usb_lld_read_setup
 4158              		.syntax unified
 4159              		.thumb
 4160              		.thumb_func
 4161              		.fpu fpv4-sp-d16
ARM GAS  /tmp/ccxvl19p.s 			page 74


 4162              		.type	usb_lld_read_setup, %function
 4163              	usb_lld_read_setup:
 4164              	.LFB352:
 4165              		.loc 1 1113 0
 4166              		.cfi_startproc
 4167              		@ args = 0, pretend = 0, frame = 0
 4168              		@ frame_needed = 0, uses_anonymous_args = 0
 4169              		@ link register save eliminated.
 4170              	.LVL390:
 4171              		.loc 1 1115 0
 4172 0000 00EB8101 		add	r1, r0, r1, lsl #2
 4173              	.LVL391:
 4174 0004 CB68     		ldr	r3, [r1, #12]
 4175 0006 1B6A     		ldr	r3, [r3, #32]
 4176 0008 1968     		ldr	r1, [r3]	@ unaligned
 4177 000a 5B68     		ldr	r3, [r3, #4]	@ unaligned
 4178 000c 5360     		str	r3, [r2, #4]	@ unaligned
 4179 000e 1160     		str	r1, [r2]	@ unaligned
 4180              		.loc 1 1116 0
 4181 0010 7047     		bx	lr
 4182              		.cfi_endproc
 4183              	.LFE352:
 4184              		.size	usb_lld_read_setup, .-usb_lld_read_setup
 4185 0012 00BF     		.section	.text.usb_lld_start_out,"ax",%progbits
 4186              		.align	1
 4187              		.p2align 2,,3
 4188              		.global	usb_lld_start_out
 4189              		.syntax unified
 4190              		.thumb
 4191              		.thumb_func
 4192              		.fpu fpv4-sp-d16
 4193              		.type	usb_lld_start_out, %function
 4194              	usb_lld_start_out:
 4195              	.LFB353:
 4196              		.loc 1 1126 0
 4197              		.cfi_startproc
 4198              		@ args = 0, pretend = 0, frame = 0
 4199              		@ frame_needed = 0, uses_anonymous_args = 0
 4200              		@ link register save eliminated.
 4201              	.LVL392:
 4202              		.loc 1 1128 0
 4203 0000 00EB8103 		add	r3, r0, r1, lsl #2
 4204              		.loc 1 1126 0
 4205 0004 30B4     		push	{r4, r5}
 4206              		.cfi_def_cfa_offset 8
 4207              		.cfi_offset 4, -8
 4208              		.cfi_offset 5, -4
 4209              		.loc 1 1128 0
 4210 0006 DD68     		ldr	r5, [r3, #12]
 4211 0008 AB69     		ldr	r3, [r5, #24]
 4212              	.LVL393:
 4213              		.loc 1 1131 0
 4214 000a 1C68     		ldr	r4, [r3]
 4215 000c DC60     		str	r4, [r3, #12]
 4216              		.loc 1 1132 0
 4217 000e 19B9     		cbnz	r1, .L602
 4218              		.loc 1 1132 0 is_stmt 0 discriminator 1
ARM GAS  /tmp/ccxvl19p.s 			page 75


 4219 0010 402C     		cmp	r4, #64
 4220              		.loc 1 1133 0 is_stmt 1 discriminator 1
 4221 0012 84BF     		itt	hi
 4222 0014 4024     		movhi	r4, #64
 4223 0016 1C60     		strhi	r4, [r3]
 4224              	.L602:
 4225              		.loc 1 1140 0
 4226 0018 6B8A     		ldrh	r3, [r5, #18]
 4227              	.LVL394:
 4228              		.loc 1 1145 0
 4229 001a 406D     		ldr	r0, [r0, #84]
 4230              	.LVL395:
 4231              		.loc 1 1149 0
 4232 001c 2D68     		ldr	r5, [r5]
 4233              	.LVL396:
 4234              		.loc 1 1140 0
 4235 001e 5A1E     		subs	r2, r3, #1
 4236 0020 2244     		add	r2, r2, r4
 4237 0022 B2FBF3F2 		udiv	r2, r2, r3
 4238              	.LVL397:
 4239              		.loc 1 1142 0
 4240 0026 02FB03F3 		mul	r3, r2, r3
 4241              	.LVL398:
 4242 002a 0333     		adds	r3, r3, #3
 4243 002c 23F00303 		bic	r3, r3, #3
 4244              	.LVL399:
 4245              		.loc 1 1145 0
 4246 0030 43EAC243 		orr	r3, r3, r2, lsl #19
 4247              	.LVL400:
 4248 0034 00EB4114 		add	r4, r0, r1, lsl #5
 4249              		.loc 1 1149 0
 4250 0038 05F00302 		and	r2, r5, #3
 4251              	.LVL401:
 4252              		.loc 1 1145 0
 4253 003c 43F0C043 		orr	r3, r3, #1610612736
 4254              		.loc 1 1149 0
 4255 0040 012A     		cmp	r2, #1
 4256              		.loc 1 1145 0
 4257 0042 C4F8103B 		str	r3, [r4, #2832]
 4258              		.loc 1 1149 0
 4259 0046 0AD0     		beq	.L606
 4260 0048 09B2     		sxth	r1, r1
 4261              	.LVL402:
 4262              	.L603:
 4263 004a 00EB4111 		add	r1, r0, r1, lsl #5
 4264              		.loc 1 1159 0
 4265 004e 30BC     		pop	{r4, r5}
 4266              		.cfi_remember_state
 4267              		.cfi_restore 5
 4268              		.cfi_restore 4
 4269              		.cfi_def_cfa_offset 0
 4270              		.loc 1 1158 0
 4271 0050 D1F8003B 		ldr	r3, [r1, #2816]
 4272 0054 43F00443 		orr	r3, r3, #-2080374784
 4273 0058 C1F8003B 		str	r3, [r1, #2816]
 4274              		.loc 1 1159 0
 4275 005c 7047     		bx	lr
ARM GAS  /tmp/ccxvl19p.s 			page 76


 4276              	.LVL403:
 4277              	.L606:
 4278              		.cfi_restore_state
 4279 005e 09B2     		sxth	r1, r1
 4280              	.LVL404:
 4281              		.loc 1 1151 0
 4282 0060 D0F80838 		ldr	r3, [r0, #2056]
 4283 0064 00EB4112 		add	r2, r0, r1, lsl #5
 4284 0068 13F4807F 		tst	r3, #256
 4285              		.loc 1 1152 0
 4286 006c D2F8003B 		ldr	r3, [r2, #2816]
 4287 0070 14BF     		ite	ne
 4288 0072 43F08053 		orrne	r3, r3, #268435456
 4289              		.loc 1 1154 0
 4290 0076 43F00053 		orreq	r3, r3, #536870912
 4291 007a C2F8003B 		str	r3, [r2, #2816]
 4292 007e E4E7     		b	.L603
 4293              		.cfi_endproc
 4294              	.LFE353:
 4295              		.size	usb_lld_start_out, .-usb_lld_start_out
 4296              		.section	.text.usb_lld_start_in,"ax",%progbits
 4297              		.align	1
 4298              		.p2align 2,,3
 4299              		.global	usb_lld_start_in
 4300              		.syntax unified
 4301              		.thumb
 4302              		.thumb_func
 4303              		.fpu fpv4-sp-d16
 4304              		.type	usb_lld_start_in, %function
 4305              	usb_lld_start_in:
 4306              	.LFB354:
 4307              		.loc 1 1169 0
 4308              		.cfi_startproc
 4309              		@ args = 0, pretend = 0, frame = 0
 4310              		@ frame_needed = 0, uses_anonymous_args = 0
 4311              		@ link register save eliminated.
 4312              	.LVL405:
 4313              		.loc 1 1170 0
 4314 0000 00EB8103 		add	r3, r0, r1, lsl #2
 4315 0004 426D     		ldr	r2, [r0, #84]
 4316 0006 D868     		ldr	r0, [r3, #12]
 4317              	.LVL406:
 4318              		.loc 1 1169 0
 4319 0008 F0B4     		push	{r4, r5, r6, r7}
 4320              		.cfi_def_cfa_offset 16
 4321              		.cfi_offset 4, -16
 4322              		.cfi_offset 5, -12
 4323              		.cfi_offset 6, -8
 4324              		.cfi_offset 7, -4
 4325              		.loc 1 1170 0
 4326 000a 4469     		ldr	r4, [r0, #20]
 4327              	.LVL407:
 4328              		.loc 1 1173 0
 4329 000c 2368     		ldr	r3, [r4]
 4330 000e E360     		str	r3, [r4, #12]
 4331              		.loc 1 1174 0
 4332 0010 EBB9     		cbnz	r3, .L609
ARM GAS  /tmp/ccxvl19p.s 			page 77


 4333              		.loc 1 1176 0
 4334 0012 02EB4113 		add	r3, r2, r1, lsl #5
 4335 0016 4FF40024 		mov	r4, #524288
 4336              	.LVL408:
 4337 001a C3F81049 		str	r4, [r3, #2320]
 4338              		.loc 1 1191 0
 4339 001e 0368     		ldr	r3, [r0]
 4340 0020 03F00303 		and	r3, r3, #3
 4341 0024 012B     		cmp	r3, #1
 4342 0026 25D0     		beq	.L617
 4343              	.L620:
 4344 0028 08B2     		sxth	r0, r1
 4345              	.LVL409:
 4346              	.L614:
 4347 002a 02EB4010 		add	r0, r2, r0, lsl #5
 4348              		.loc 1 1201 0
 4349 002e 0123     		movs	r3, #1
 4350              		.loc 1 1200 0
 4351 0030 D0F80049 		ldr	r4, [r0, #2304]
 4352 0034 44F00444 		orr	r4, r4, #-2080374784
 4353 0038 C0F80049 		str	r4, [r0, #2304]
 4354              		.loc 1 1201 0
 4355 003c D2F83408 		ldr	r0, [r2, #2100]
 4356 0040 03FA01F1 		lsl	r1, r3, r1
 4357              	.LVL410:
 4358 0044 0143     		orrs	r1, r1, r0
 4359 0046 C2F83418 		str	r1, [r2, #2100]
 4360              		.loc 1 1202 0
 4361 004a F0BC     		pop	{r4, r5, r6, r7}
 4362              		.cfi_remember_state
 4363              		.cfi_restore 7
 4364              		.cfi_restore 6
 4365              		.cfi_restore 5
 4366              		.cfi_restore 4
 4367              		.cfi_def_cfa_offset 0
 4368 004c 7047     		bx	lr
 4369              	.LVL411:
 4370              	.L609:
 4371              		.cfi_restore_state
 4372              	.LBB604:
 4373              		.loc 1 1179 0
 4374 004e 11B3     		cbz	r1, .L611
 4375              	.L619:
 4376 0050 43F00056 		orr	r6, r3, #536870912
 4377              	.L612:
 4378              		.loc 1 1183 0
 4379 0054 078A     		ldrh	r7, [r0, #16]
 4380              	.LVL412:
 4381              		.loc 1 1186 0
 4382 0056 02EB4115 		add	r5, r2, r1, lsl #5
 4383              		.loc 1 1183 0
 4384 005a 7C1E     		subs	r4, r7, #1
 4385              	.LVL413:
 4386 005c 2344     		add	r3, r3, r4
 4387              	.LVL414:
 4388 005e B3FBF7F3 		udiv	r3, r3, r7
 4389              		.loc 1 1186 0
ARM GAS  /tmp/ccxvl19p.s 			page 78


 4390 0062 46EAC343 		orr	r3, r6, r3, lsl #19
 4391 0066 C5F81039 		str	r3, [r5, #2320]
 4392              	.LBE604:
 4393              		.loc 1 1191 0
 4394 006a 0368     		ldr	r3, [r0]
 4395 006c 03F00303 		and	r3, r3, #3
 4396 0070 012B     		cmp	r3, #1
 4397 0072 D9D1     		bne	.L620
 4398              	.L617:
 4399 0074 08B2     		sxth	r0, r1
 4400              	.LVL415:
 4401              		.loc 1 1193 0
 4402 0076 D2F80838 		ldr	r3, [r2, #2056]
 4403 007a 02EB4014 		add	r4, r2, r0, lsl #5
 4404 007e 13F4807F 		tst	r3, #256
 4405              		.loc 1 1194 0
 4406 0082 D4F80039 		ldr	r3, [r4, #2304]
 4407 0086 14BF     		ite	ne
 4408 0088 43F08053 		orrne	r3, r3, #268435456
 4409              		.loc 1 1196 0
 4410 008c 43F00053 		orreq	r3, r3, #536870912
 4411 0090 C4F80039 		str	r3, [r4, #2304]
 4412 0094 C9E7     		b	.L614
 4413              	.LVL416:
 4414              	.L611:
 4415              	.LBB605:
 4416              		.loc 1 1179 0 discriminator 1
 4417 0096 402B     		cmp	r3, #64
 4418 0098 DAD9     		bls	.L619
 4419              		.loc 1 1180 0
 4420 009a 4023     		movs	r3, #64
 4421 009c 014E     		ldr	r6, .L621
 4422 009e 2360     		str	r3, [r4]
 4423 00a0 D8E7     		b	.L612
 4424              	.L622:
 4425 00a2 00BF     		.align	2
 4426              	.L621:
 4427 00a4 40000020 		.word	536870976
 4428              	.LBE605:
 4429              		.cfi_endproc
 4430              	.LFE354:
 4431              		.size	usb_lld_start_in, .-usb_lld_start_in
 4432              		.section	.text.usb_lld_stall_out,"ax",%progbits
 4433              		.align	1
 4434              		.p2align 2,,3
 4435              		.global	usb_lld_stall_out
 4436              		.syntax unified
 4437              		.thumb
 4438              		.thumb_func
 4439              		.fpu fpv4-sp-d16
 4440              		.type	usb_lld_stall_out, %function
 4441              	usb_lld_stall_out:
 4442              	.LFB355:
 4443              		.loc 1 1212 0
 4444              		.cfi_startproc
 4445              		@ args = 0, pretend = 0, frame = 0
 4446              		@ frame_needed = 0, uses_anonymous_args = 0
ARM GAS  /tmp/ccxvl19p.s 			page 79


 4447              		@ link register save eliminated.
 4448              	.LVL417:
 4449 0000 436D     		ldr	r3, [r0, #84]
 4450 0002 03EB4111 		add	r1, r3, r1, lsl #5
 4451              	.LVL418:
 4452              		.loc 1 1214 0
 4453 0006 D1F8003B 		ldr	r3, [r1, #2816]
 4454 000a 43F40013 		orr	r3, r3, #2097152
 4455 000e C1F8003B 		str	r3, [r1, #2816]
 4456              		.loc 1 1215 0
 4457 0012 7047     		bx	lr
 4458              		.cfi_endproc
 4459              	.LFE355:
 4460              		.size	usb_lld_stall_out, .-usb_lld_stall_out
 4461              		.section	.text.usb_lld_stall_in,"ax",%progbits
 4462              		.align	1
 4463              		.p2align 2,,3
 4464              		.global	usb_lld_stall_in
 4465              		.syntax unified
 4466              		.thumb
 4467              		.thumb_func
 4468              		.fpu fpv4-sp-d16
 4469              		.type	usb_lld_stall_in, %function
 4470              	usb_lld_stall_in:
 4471              	.LFB356:
 4472              		.loc 1 1225 0
 4473              		.cfi_startproc
 4474              		@ args = 0, pretend = 0, frame = 0
 4475              		@ frame_needed = 0, uses_anonymous_args = 0
 4476              		@ link register save eliminated.
 4477              	.LVL419:
 4478 0000 436D     		ldr	r3, [r0, #84]
 4479 0002 03EB4111 		add	r1, r3, r1, lsl #5
 4480              	.LVL420:
 4481              		.loc 1 1227 0
 4482 0006 D1F80039 		ldr	r3, [r1, #2304]
 4483 000a 43F40013 		orr	r3, r3, #2097152
 4484 000e C1F80039 		str	r3, [r1, #2304]
 4485              		.loc 1 1228 0
 4486 0012 7047     		bx	lr
 4487              		.cfi_endproc
 4488              	.LFE356:
 4489              		.size	usb_lld_stall_in, .-usb_lld_stall_in
 4490              		.section	.text.usb_lld_clear_out,"ax",%progbits
 4491              		.align	1
 4492              		.p2align 2,,3
 4493              		.global	usb_lld_clear_out
 4494              		.syntax unified
 4495              		.thumb
 4496              		.thumb_func
 4497              		.fpu fpv4-sp-d16
 4498              		.type	usb_lld_clear_out, %function
 4499              	usb_lld_clear_out:
 4500              	.LFB357:
 4501              		.loc 1 1238 0
 4502              		.cfi_startproc
 4503              		@ args = 0, pretend = 0, frame = 0
ARM GAS  /tmp/ccxvl19p.s 			page 80


 4504              		@ frame_needed = 0, uses_anonymous_args = 0
 4505              		@ link register save eliminated.
 4506              	.LVL421:
 4507 0000 436D     		ldr	r3, [r0, #84]
 4508 0002 03EB4111 		add	r1, r3, r1, lsl #5
 4509              	.LVL422:
 4510              		.loc 1 1240 0
 4511 0006 D1F8003B 		ldr	r3, [r1, #2816]
 4512 000a 23F40013 		bic	r3, r3, #2097152
 4513 000e C1F8003B 		str	r3, [r1, #2816]
 4514              		.loc 1 1241 0
 4515 0012 7047     		bx	lr
 4516              		.cfi_endproc
 4517              	.LFE357:
 4518              		.size	usb_lld_clear_out, .-usb_lld_clear_out
 4519              		.section	.text.usb_lld_clear_in,"ax",%progbits
 4520              		.align	1
 4521              		.p2align 2,,3
 4522              		.global	usb_lld_clear_in
 4523              		.syntax unified
 4524              		.thumb
 4525              		.thumb_func
 4526              		.fpu fpv4-sp-d16
 4527              		.type	usb_lld_clear_in, %function
 4528              	usb_lld_clear_in:
 4529              	.LFB358:
 4530              		.loc 1 1251 0
 4531              		.cfi_startproc
 4532              		@ args = 0, pretend = 0, frame = 0
 4533              		@ frame_needed = 0, uses_anonymous_args = 0
 4534              		@ link register save eliminated.
 4535              	.LVL423:
 4536 0000 436D     		ldr	r3, [r0, #84]
 4537 0002 03EB4111 		add	r1, r3, r1, lsl #5
 4538              	.LVL424:
 4539              		.loc 1 1253 0
 4540 0006 D1F80039 		ldr	r3, [r1, #2304]
 4541 000a 23F40013 		bic	r3, r3, #2097152
 4542 000e C1F80039 		str	r3, [r1, #2304]
 4543              		.loc 1 1254 0
 4544 0012 7047     		bx	lr
 4545              		.cfi_endproc
 4546              	.LFE358:
 4547              		.size	usb_lld_clear_in, .-usb_lld_clear_in
 4548              		.global	USBD1
 4549              		.section	.bss.USBD1,"aw",%nobits
 4550              		.align	2
 4551              		.set	.LANCHOR0,. + 0
 4552              		.type	USBD1, %object
 4553              		.size	USBD1, 96
 4554              	USBD1:
 4555 0000 00000000 		.space	96
 4555      00000000 
 4555      00000000 
 4555      00000000 
 4555      00000000 
 4556              		.section	.bss.ep0_state,"aw",%nobits
ARM GAS  /tmp/ccxvl19p.s 			page 81


 4557              		.align	2
 4558              		.type	ep0_state, %object
 4559              		.size	ep0_state, 16
 4560              	ep0_state:
 4561 0000 00000000 		.space	16
 4561      00000000 
 4561      00000000 
 4561      00000000 
 4562              		.section	.bss.ep0setup_buffer,"aw",%nobits
 4563              		.align	2
 4564              		.type	ep0setup_buffer, %object
 4565              		.size	ep0setup_buffer, 8
 4566              	ep0setup_buffer:
 4567 0000 00000000 		.space	8
 4567      00000000 
 4568              		.section	.rodata.ep0config,"a",%progbits
 4569              		.align	2
 4570              		.set	.LANCHOR2,. + 0
 4571              		.type	ep0config, %object
 4572              		.size	ep0config, 36
 4573              	ep0config:
 4574 0000 00000000 		.word	0
 4575 0004 00000000 		.word	_usb_ep0setup
 4576 0008 00000000 		.word	_usb_ep0in
 4577 000c 00000000 		.word	_usb_ep0out
 4578 0010 4000     		.short	64
 4579 0012 4000     		.short	64
 4580 0014 00000000 		.word	ep0_state
 4581 0018 00000000 		.word	ep0_state
 4582 001c 0100     		.short	1
 4583 001e 0000     		.space	2
 4584 0020 00000000 		.word	ep0setup_buffer
 4585              		.section	.rodata.fsparams,"a",%progbits
 4586              		.align	2
 4587              		.set	.LANCHOR1,. + 0
 4588              		.type	fsparams, %object
 4589              		.size	fsparams, 12
 4590              	fsparams:
 4591 0000 80000000 		.word	128
 4592 0004 40010000 		.word	320
 4593 0008 03000000 		.word	3
 4594              		.text
 4595              	.Letext0:
 4596              		.file 4 "/usr/lib/gcc/arm-none-eabi/7.3.1/include/stddef.h"
 4597              		.file 5 "/usr/arm-none-eabi/include/machine/_default_types.h"
 4598              		.file 6 "/usr/arm-none-eabi/include/sys/lock.h"
 4599              		.file 7 "/usr/arm-none-eabi/include/sys/_types.h"
 4600              		.file 8 "/usr/arm-none-eabi/include/sys/reent.h"
 4601              		.file 9 "/usr/arm-none-eabi/include/sys/_stdint.h"
 4602              		.file 10 "./RM18A-ChibiOS18-Core/chibios/os/common/ports/ARMCMx/compilers/GCC/chtypes.h"
 4603              		.file 11 "./RM18A-ChibiOS18-Core/chibios/os/rt/include/chsystypes.h"
 4604              		.file 12 "./RM18A-ChibiOS18-Core/chibios/os/rt/include/chschd.h"
 4605              		.file 13 "./RM18A-ChibiOS18-Core/chibios/os/rt/include/chtime.h"
 4606              		.file 14 "./RM18A-ChibiOS18-Core/chibios/os/common/ext/ARM/CMSIS/Core/Include/core_cm4.h"
 4607              		.file 15 "./RM18A-ChibiOS18-Core/chibios/os/common/ext/ST/STM32F4xx/system_stm32f4xx.h"
 4608              		.file 16 "./RM18A-ChibiOS18-Core/chibios/os/common/ext/ST/STM32F4xx/stm32f427xx.h"
 4609              		.file 17 "./RM18A-ChibiOS18-Core/chibios/os/common/ports/ARMCMx/chcore.h"
ARM GAS  /tmp/ccxvl19p.s 			page 82


 4610              		.file 18 "./RM18A-ChibiOS18-Core/chibios/os/common/ports/ARMCMx/chcore_v7m.h"
 4611              		.file 19 "./RM18A-ChibiOS18-Core/chibios/os/hal/ports/STM32/LLD/TIMv1/stm32_tim.h"
 4612              		.file 20 "./RM18A-ChibiOS18-Core/chibios/os/rt/include/chtm.h"
 4613              		.file 21 "./RM18A-ChibiOS18-Core/chibios/os/rt/include/chsem.h"
 4614              		.file 22 "./RM18A-ChibiOS18-Core/chibios/os/rt/include/chmtx.h"
 4615              		.file 23 "./RM18A-ChibiOS18-Core/chibios/os/rt/include/chsys.h"
 4616              		.file 24 "./RM18A-ChibiOS18-Core/chibios/os/rt/include/chregistry.h"
 4617              		.file 25 "./RM18A-ChibiOS18-Core/chibios/os/rt/include/chevents.h"
 4618              		.file 26 "./RM18A-ChibiOS18-Core/chibios/os/oslib/include/chmemcore.h"
 4619              		.file 27 "./RM18A-ChibiOS18-Core/chibios/os/oslib/include/chmempools.h"
 4620              		.file 28 "./RM18A-ChibiOS18-Core/chibios/os/oslib/include/chfactory.h"
 4621              		.file 29 "./RM18A-ChibiOS18-Core/chibios/os/hal/ports/STM32/LLD/DMAv2/stm32_dma.h"
 4622              		.file 30 "./RM18A-ChibiOS18-Core/chibios/os/hal/include/hal_queues.h"
 4623              		.file 31 "./RM18A-ChibiOS18-Core/chibios/os/hal/include/hal_pal.h"
 4624              		.file 32 "./RM18A-ChibiOS18-Core/chibios/os/hal/ports/STM32/LLD/GPIOv2/hal_pal_lld.h"
 4625              		.file 33 "./RM18A-ChibiOS18-Core/chibios/os/hal/include/hal_adc.h"
 4626              		.file 34 "./RM18A-ChibiOS18-Core/chibios/os/hal/ports/STM32/LLD/ADCv2/hal_adc_lld.h"
 4627              		.file 35 "./RM18A-ChibiOS18-Core/chibios/os/hal/include/hal_can.h"
 4628              		.file 36 "./RM18A-ChibiOS18-Core/chibios/os/hal/ports/STM32/LLD/CANv1/hal_can_lld.h"
 4629              		.file 37 "./RM18A-ChibiOS18-Core/chibios/os/hal/include/hal_i2c.h"
 4630              		.file 38 "./RM18A-ChibiOS18-Core/chibios/os/hal/lib/fallback/I2C/hal_i2c_lld.h"
 4631              		.file 39 "./RM18A-ChibiOS18-Core/chibios/os/hal/include/hal_icu.h"
 4632              		.file 40 "./RM18A-ChibiOS18-Core/chibios/os/hal/ports/STM32/LLD/TIMv1/hal_icu_lld.h"
 4633              		.file 41 "./RM18A-ChibiOS18-Core/chibios/os/hal/include/hal_pwm.h"
 4634              		.file 42 "./RM18A-ChibiOS18-Core/chibios/os/hal/ports/STM32/LLD/TIMv1/hal_pwm_lld.h"
 4635              		.file 43 "./RM18A-ChibiOS18-Core/chibios/os/hal/include/hal_serial.h"
 4636              		.file 44 "./RM18A-ChibiOS18-Core/chibios/os/hal/ports/STM32/LLD/USARTv1/hal_serial_lld.h"
 4637              		.file 45 "./RM18A-ChibiOS18-Core/chibios/os/hal/include/hal_spi.h"
 4638              		.file 46 "./RM18A-ChibiOS18-Core/chibios/os/hal/ports/STM32/LLD/SPIv1/hal_spi_lld.h"
 4639              		.file 47 "./RM18A-ChibiOS18-Core/chibios/os/hal/include/hal_uart.h"
 4640              		.file 48 "./RM18A-ChibiOS18-Core/chibios/os/hal/ports/STM32/LLD/USARTv1/hal_uart_lld.h"
 4641              		.file 49 "./RM18A-ChibiOS18-Core/chibios/os/hal/include/hal_usb.h"
 4642              		.file 50 "./RM18A-ChibiOS18-Core/chibios/os/hal/ports/STM32/LLD/OTGv1/hal_usb_lld.h"
 4643              		.file 51 "./RM18A-ChibiOS18-Core/chibios/os/hal/ports/STM32/LLD/OTGv1/stm32_otg.h"
 4644              		.file 52 "./RM18A-ChibiOS18-Core/chibios/os/hal/ports/common/ARMCMx/nvic.h"