ARM GAS  /tmp/ccumrPWr.s 			page 1


   1              		.cpu cortex-m4
   2              		.eabi_attribute 27, 1
   3              		.eabi_attribute 28, 1
   4              		.eabi_attribute 20, 1
   5              		.eabi_attribute 21, 1
   6              		.eabi_attribute 23, 3
   7              		.eabi_attribute 24, 1
   8              		.eabi_attribute 25, 1
   9              		.eabi_attribute 26, 1
  10              		.eabi_attribute 30, 2
  11              		.eabi_attribute 34, 1
  12              		.eabi_attribute 18, 4
  13              		.file	"hal_pal.c"
  14              		.text
  15              	.Ltext0:
  16              		.cfi_sections	.debug_frame
  17              		.section	.text.palReadBus,"ax",%progbits
  18              		.align	1
  19              		.p2align 2,,3
  20              		.global	palReadBus
  21              		.syntax unified
  22              		.thumb
  23              		.thumb_func
  24              		.fpu fpv4-sp-d16
  25              		.type	palReadBus, %function
  26              	palReadBus:
  27              	.LFB327:
  28              		.file 1 "./RM18A-ChibiOS18-Core/chibios/os/hal/src/hal_pal.c"
  29              		.loc 1 65 0
  30              		.cfi_startproc
  31              		@ args = 0, pretend = 0, frame = 0
  32              		@ frame_needed = 0, uses_anonymous_args = 0
  33              		@ link register save eliminated.
  34              	.LVL0:
  35              		.loc 1 69 0
  36 0000 0368     		ldr	r3, [r0]
  37 0002 8268     		ldr	r2, [r0, #8]
  38 0004 1B69     		ldr	r3, [r3, #16]
  39 0006 4068     		ldr	r0, [r0, #4]
  40              	.LVL1:
  41 0008 D340     		lsrs	r3, r3, r2
  42              		.loc 1 70 0
  43 000a 1840     		ands	r0, r0, r3
  44 000c 7047     		bx	lr
  45              		.cfi_endproc
  46              	.LFE327:
  47              		.size	palReadBus, .-palReadBus
  48 000e 00BF     		.section	.text.palWriteBus,"ax",%progbits
  49              		.align	1
  50              		.p2align 2,,3
  51              		.global	palWriteBus
  52              		.syntax unified
  53              		.thumb
  54              		.thumb_func
  55              		.fpu fpv4-sp-d16
  56              		.type	palWriteBus, %function
  57              	palWriteBus:
ARM GAS  /tmp/ccumrPWr.s 			page 2


  58              	.LFB328:
  59              		.loc 1 90 0
  60              		.cfi_startproc
  61              		@ args = 0, pretend = 0, frame = 0
  62              		@ frame_needed = 0, uses_anonymous_args = 0
  63              		@ link register save eliminated.
  64              	.LVL2:
  65 0000 10B4     		push	{r4}
  66              		.cfi_def_cfa_offset 4
  67              		.cfi_offset 4, -4
  68              	.LBB62:
  69              		.loc 1 94 0
  70 0002 D0E90142 		ldrd	r4, r2, [r0, #4]
  71 0006 24EA0103 		bic	r3, r4, r1
  72 000a 2140     		ands	r1, r1, r4
  73              	.LVL3:
  74 000c 02F11004 		add	r4, r2, #16
  75 0010 A340     		lsls	r3, r3, r4
  76 0012 0068     		ldr	r0, [r0]
  77              	.LVL4:
  78              	.LBE62:
  79              		.loc 1 95 0
  80 0014 5DF8044B 		ldr	r4, [sp], #4
  81              		.cfi_restore 4
  82              		.cfi_def_cfa_offset 0
  83              	.LBB63:
  84              		.loc 1 94 0
  85 0018 9140     		lsls	r1, r1, r2
  86 001a 1943     		orrs	r1, r1, r3
  87              	.LVL5:
  88 001c 8161     		str	r1, [r0, #24]
  89              	.LBE63:
  90              		.loc 1 95 0
  91 001e 7047     		bx	lr
  92              		.cfi_endproc
  93              	.LFE328:
  94              		.size	palWriteBus, .-palWriteBus
  95              		.section	.text.palSetBusMode,"ax",%progbits
  96              		.align	1
  97              		.p2align 2,,3
  98              		.global	palSetBusMode
  99              		.syntax unified
 100              		.thumb
 101              		.thumb_func
 102              		.fpu fpv4-sp-d16
 103              		.type	palSetBusMode, %function
 104              	palSetBusMode:
 105              	.LFB329:
 106              		.loc 1 113 0
 107              		.cfi_startproc
 108              		@ args = 0, pretend = 0, frame = 0
 109              		@ frame_needed = 0, uses_anonymous_args = 0
 110              		@ link register save eliminated.
 111              	.LVL6:
 112              		.loc 1 117 0
 113 0000 0A46     		mov	r2, r1
 114 0002 D0E90113 		ldrd	r1, r3, [r0, #4]
ARM GAS  /tmp/ccumrPWr.s 			page 3


 115              	.LVL7:
 116 0006 0068     		ldr	r0, [r0]
 117              	.LVL8:
 118 0008 9940     		lsls	r1, r1, r3
 119 000a FFF7FEBF 		b	_pal_lld_setgroupmode
 120              	.LVL9:
 121              		.cfi_endproc
 122              	.LFE329:
 123              		.size	palSetBusMode, .-palSetBusMode
 124 000e 00BF     		.section	.text.palSetPadCallbackI,"ax",%progbits
 125              		.align	1
 126              		.p2align 2,,3
 127              		.global	palSetPadCallbackI
 128              		.syntax unified
 129              		.thumb
 130              		.thumb_func
 131              		.fpu fpv4-sp-d16
 132              		.type	palSetPadCallbackI, %function
 133              	palSetPadCallbackI:
 134              	.LFB330:
 135              		.loc 1 132 0
 136              		.cfi_startproc
 137              		@ args = 0, pretend = 0, frame = 0
 138              		@ frame_needed = 0, uses_anonymous_args = 0
 139              		@ link register save eliminated.
 140              	.LVL10:
 141              		.loc 1 135 0
 142 0000 0248     		ldr	r0, .L7
 143              	.LVL11:
 144 0002 00EB0111 		add	r1, r0, r1, lsl #4
 145              	.LVL12:
 146              		.loc 1 136 0
 147 0006 C1E90223 		strd	r2, r3, [r1, #8]
 148              		.loc 1 137 0
 149 000a 7047     		bx	lr
 150              	.L8:
 151              		.align	2
 152              	.L7:
 153 000c 00000000 		.word	_pal_events
 154              		.cfi_endproc
 155              	.LFE330:
 156              		.size	palSetPadCallbackI, .-palSetPadCallbackI
 157              		.section	.text.palSetLineCallbackI,"ax",%progbits
 158              		.align	1
 159              		.p2align 2,,3
 160              		.global	palSetLineCallbackI
 161              		.syntax unified
 162              		.thumb
 163              		.thumb_func
 164              		.fpu fpv4-sp-d16
 165              		.type	palSetLineCallbackI, %function
 166              	palSetLineCallbackI:
 167              	.LFB331:
 168              		.loc 1 148 0
 169              		.cfi_startproc
 170              		@ args = 0, pretend = 0, frame = 0
 171              		@ frame_needed = 0, uses_anonymous_args = 0
ARM GAS  /tmp/ccumrPWr.s 			page 4


 172              		@ link register save eliminated.
 173              	.LVL13:
 174              		.loc 1 151 0
 175 0000 034B     		ldr	r3, .L10
 176              		.loc 1 150 0
 177 0002 00F00F00 		and	r0, r0, #15
 178              	.LVL14:
 179              		.loc 1 151 0
 180 0006 03EB0010 		add	r0, r3, r0, lsl #4
 181              	.LVL15:
 182              		.loc 1 152 0
 183 000a C0E90212 		strd	r1, r2, [r0, #8]
 184              		.loc 1 153 0
 185 000e 7047     		bx	lr
 186              	.L11:
 187              		.align	2
 188              	.L10:
 189 0010 00000000 		.word	_pal_events
 190              		.cfi_endproc
 191              	.LFE331:
 192              		.size	palSetLineCallbackI, .-palSetLineCallbackI
 193              		.section	.text.palWaitPadTimeoutS,"ax",%progbits
 194              		.align	1
 195              		.p2align 2,,3
 196              		.global	palWaitPadTimeoutS
 197              		.syntax unified
 198              		.thumb
 199              		.thumb_func
 200              		.fpu fpv4-sp-d16
 201              		.type	palWaitPadTimeoutS, %function
 202              	palWaitPadTimeoutS:
 203              	.LFB332:
 204              		.loc 1 177 0
 205              		.cfi_startproc
 206              		@ args = 0, pretend = 0, frame = 0
 207              		@ frame_needed = 0, uses_anonymous_args = 0
 208              		@ link register save eliminated.
 209              	.LVL16:
 210              		.loc 1 180 0
 211 0000 0248     		ldr	r0, .L13
 212              	.LVL17:
 213 0002 00EB0110 		add	r0, r0, r1, lsl #4
 214              	.LVL18:
 215              	.LBB64:
 216              	.LBB65:
 217              		.file 2 "./RM18A-ChibiOS18-Core/chibios/os/hal/osal/rt/osal.h"
 218              		.loc 2 831 0
 219 0006 1146     		mov	r1, r2
 220              	.LVL19:
 221 0008 FFF7FEBF 		b	chThdEnqueueTimeoutS
 222              	.LVL20:
 223              	.L14:
 224              		.align	2
 225              	.L13:
 226 000c 00000000 		.word	_pal_events
 227              	.LBE65:
 228              	.LBE64:
ARM GAS  /tmp/ccumrPWr.s 			page 5


 229              		.cfi_endproc
 230              	.LFE332:
 231              		.size	palWaitPadTimeoutS, .-palWaitPadTimeoutS
 232              		.section	.text.palWaitPadTimeout,"ax",%progbits
 233              		.align	1
 234              		.p2align 2,,3
 235              		.global	palWaitPadTimeout
 236              		.syntax unified
 237              		.thumb
 238              		.thumb_func
 239              		.fpu fpv4-sp-d16
 240              		.type	palWaitPadTimeout, %function
 241              	palWaitPadTimeout:
 242              	.LFB333:
 243              		.loc 1 203 0
 244              		.cfi_startproc
 245              		@ args = 0, pretend = 0, frame = 0
 246              		@ frame_needed = 0, uses_anonymous_args = 0
 247              	.LVL21:
 248 0000 08B5     		push	{r3, lr}
 249              		.cfi_def_cfa_offset 8
 250              		.cfi_offset 3, -8
 251              		.cfi_offset 14, -4
 252              		.loc 1 203 0
 253 0002 0846     		mov	r0, r1
 254              	.LVL22:
 255              	.LBB66:
 256              	.LBB67:
 257              	.LBB68:
 258              	.LBB69:
 259              	.LBB70:
 260              		.file 3 "./RM18A-ChibiOS18-Core/chibios/os/common/ext/ARM/CMSIS/Core/Include/cmsis_gcc.h"
 261              		.loc 3 493 0
 262 0004 2023     		movs	r3, #32
 263              		.syntax unified
 264              	@ 493 "./RM18A-ChibiOS18-Core/chibios/os/common/ext/ARM/CMSIS/Core/Include/cmsis_gcc.h" 1
 265 0006 83F31188 		MSR basepri, r3
 266              	@ 0 "" 2
 267              	.LVL23:
 268              		.thumb
 269              		.syntax unified
 270              	.LBE70:
 271              	.LBE69:
 272              	.LBE68:
 273              	.LBE67:
 274              	.LBE66:
 275              	.LBB71:
 276              	.LBB72:
 277              		.loc 1 180 0
 278 000a 054B     		ldr	r3, .L17
 279              	.LBB73:
 280              	.LBB74:
 281              		.loc 2 831 0
 282 000c 1146     		mov	r1, r2
 283              	.LVL24:
 284 000e 03EB0010 		add	r0, r3, r0, lsl #4
 285              	.LVL25:
ARM GAS  /tmp/ccumrPWr.s 			page 6


 286 0012 FFF7FEFF 		bl	chThdEnqueueTimeoutS
 287              	.LVL26:
 288              	.LBE74:
 289              	.LBE73:
 290              	.LBE72:
 291              	.LBE71:
 292              	.LBB75:
 293              	.LBB76:
 294              	.LBB77:
 295              	.LBB78:
 296              	.LBB79:
 297              	.LBB80:
 298              		.loc 3 493 0
 299 0016 0023     		movs	r3, #0
 300              		.syntax unified
 301              	@ 493 "./RM18A-ChibiOS18-Core/chibios/os/common/ext/ARM/CMSIS/Core/Include/cmsis_gcc.h" 1
 302 0018 83F31188 		MSR basepri, r3
 303              	@ 0 "" 2
 304              	.LVL27:
 305              		.thumb
 306              		.syntax unified
 307              	.LBE80:
 308              	.LBE79:
 309              	.LBE78:
 310              	.LBE77:
 311              	.LBE76:
 312              	.LBE75:
 313              		.loc 1 210 0
 314 001c 08BD     		pop	{r3, pc}
 315              	.L18:
 316 001e 00BF     		.align	2
 317              	.L17:
 318 0020 00000000 		.word	_pal_events
 319              		.cfi_endproc
 320              	.LFE333:
 321              		.size	palWaitPadTimeout, .-palWaitPadTimeout
 322              		.section	.text.palWaitLineTimeoutS,"ax",%progbits
 323              		.align	1
 324              		.p2align 2,,3
 325              		.global	palWaitLineTimeoutS
 326              		.syntax unified
 327              		.thumb
 328              		.thumb_func
 329              		.fpu fpv4-sp-d16
 330              		.type	palWaitLineTimeoutS, %function
 331              	palWaitLineTimeoutS:
 332              	.LFB334:
 333              		.loc 1 226 0
 334              		.cfi_startproc
 335              		@ args = 0, pretend = 0, frame = 0
 336              		@ frame_needed = 0, uses_anonymous_args = 0
 337              		@ link register save eliminated.
 338              	.LVL28:
 339              		.loc 1 229 0
 340 0000 034B     		ldr	r3, .L20
 341              		.loc 1 228 0
 342 0002 00F00F00 		and	r0, r0, #15
ARM GAS  /tmp/ccumrPWr.s 			page 7


 343              	.LVL29:
 344              	.LBB81:
 345              	.LBB82:
 346              		.loc 2 831 0
 347 0006 03EB0010 		add	r0, r3, r0, lsl #4
 348              	.LVL30:
 349 000a FFF7FEBF 		b	chThdEnqueueTimeoutS
 350              	.LVL31:
 351              	.L21:
 352 000e 00BF     		.align	2
 353              	.L20:
 354 0010 00000000 		.word	_pal_events
 355              	.LBE82:
 356              	.LBE81:
 357              		.cfi_endproc
 358              	.LFE334:
 359              		.size	palWaitLineTimeoutS, .-palWaitLineTimeoutS
 360              		.section	.text.palWaitLineTimeout,"ax",%progbits
 361              		.align	1
 362              		.p2align 2,,3
 363              		.global	palWaitLineTimeout
 364              		.syntax unified
 365              		.thumb
 366              		.thumb_func
 367              		.fpu fpv4-sp-d16
 368              		.type	palWaitLineTimeout, %function
 369              	palWaitLineTimeout:
 370              	.LFB335:
 371              		.loc 1 245 0
 372              		.cfi_startproc
 373              		@ args = 0, pretend = 0, frame = 0
 374              		@ frame_needed = 0, uses_anonymous_args = 0
 375              	.LVL32:
 376 0000 08B5     		push	{r3, lr}
 377              		.cfi_def_cfa_offset 8
 378              		.cfi_offset 3, -8
 379              		.cfi_offset 14, -4
 380              	.LBB83:
 381              	.LBB84:
 382              	.LBB85:
 383              	.LBB86:
 384              	.LBB87:
 385              		.loc 3 493 0
 386 0002 2023     		movs	r3, #32
 387              		.syntax unified
 388              	@ 493 "./RM18A-ChibiOS18-Core/chibios/os/common/ext/ARM/CMSIS/Core/Include/cmsis_gcc.h" 1
 389 0004 83F31188 		MSR basepri, r3
 390              	@ 0 "" 2
 391              	.LVL33:
 392              		.thumb
 393              		.syntax unified
 394              	.LBE87:
 395              	.LBE86:
 396              	.LBE85:
 397              	.LBE84:
 398              	.LBE83:
 399              	.LBB88:
ARM GAS  /tmp/ccumrPWr.s 			page 8


 400              	.LBB89:
 401              		.loc 1 229 0
 402 0008 054B     		ldr	r3, .L24
 403              		.loc 1 228 0
 404 000a 00F00F00 		and	r0, r0, #15
 405              	.LVL34:
 406              	.LBB90:
 407              	.LBB91:
 408              		.loc 2 831 0
 409 000e 03EB0010 		add	r0, r3, r0, lsl #4
 410              	.LVL35:
 411 0012 FFF7FEFF 		bl	chThdEnqueueTimeoutS
 412              	.LVL36:
 413              	.LBE91:
 414              	.LBE90:
 415              	.LBE89:
 416              	.LBE88:
 417              	.LBB92:
 418              	.LBB93:
 419              	.LBB94:
 420              	.LBB95:
 421              	.LBB96:
 422              	.LBB97:
 423              		.loc 3 493 0
 424 0016 0023     		movs	r3, #0
 425              		.syntax unified
 426              	@ 493 "./RM18A-ChibiOS18-Core/chibios/os/common/ext/ARM/CMSIS/Core/Include/cmsis_gcc.h" 1
 427 0018 83F31188 		MSR basepri, r3
 428              	@ 0 "" 2
 429              	.LVL37:
 430              		.thumb
 431              		.syntax unified
 432              	.LBE97:
 433              	.LBE96:
 434              	.LBE95:
 435              	.LBE94:
 436              	.LBE93:
 437              	.LBE92:
 438              		.loc 1 252 0
 439 001c 08BD     		pop	{r3, pc}
 440              	.L25:
 441 001e 00BF     		.align	2
 442              	.L24:
 443 0020 00000000 		.word	_pal_events
 444              		.cfi_endproc
 445              	.LFE335:
 446              		.size	palWaitLineTimeout, .-palWaitLineTimeout
 447              		.text
 448              	.Letext0:
 449              		.file 4 "/usr/lib/gcc/arm-none-eabi/7.3.1/include/stddef.h"
 450              		.file 5 "/usr/arm-none-eabi/include/machine/_default_types.h"
 451              		.file 6 "/usr/arm-none-eabi/include/sys/_stdint.h"
 452              		.file 7 "/usr/arm-none-eabi/include/stdint.h"
 453              		.file 8 "./RM18A-ChibiOS18-Core/chibios/os/common/ports/ARMCMx/compilers/GCC/chtypes.h"
 454              		.file 9 "./RM18A-ChibiOS18-Core/chibios/os/rt/include/chsystypes.h"
 455              		.file 10 "./RM18A-ChibiOS18-Core/chibios/os/rt/include/chschd.h"
 456              		.file 11 "./RM18A-ChibiOS18-Core/chibios/os/rt/include/chtime.h"
ARM GAS  /tmp/ccumrPWr.s 			page 9


 457              		.file 12 "./RM18A-ChibiOS18-Core/chibios/os/common/ext/ARM/CMSIS/Core/Include/core_cm4.h"
 458              		.file 13 "./RM18A-ChibiOS18-Core/chibios/os/common/ext/ST/STM32F4xx/system_stm32f4xx.h"
 459              		.file 14 "./RM18A-ChibiOS18-Core/chibios/os/common/ext/ST/STM32F4xx/stm32f427xx.h"
 460              		.file 15 "./RM18A-ChibiOS18-Core/chibios/os/common/ports/ARMCMx/chcore.h"
 461              		.file 16 "./RM18A-ChibiOS18-Core/chibios/os/common/ports/ARMCMx/chcore_v7m.h"
 462              		.file 17 "./RM18A-ChibiOS18-Core/chibios/os/hal/ports/STM32/LLD/TIMv1/stm32_tim.h"
 463              		.file 18 "./RM18A-ChibiOS18-Core/chibios/os/rt/include/chtm.h"
 464              		.file 19 "./RM18A-ChibiOS18-Core/chibios/os/rt/include/chsem.h"
 465              		.file 20 "./RM18A-ChibiOS18-Core/chibios/os/rt/include/chmtx.h"
 466              		.file 21 "./RM18A-ChibiOS18-Core/chibios/os/rt/include/chsys.h"
 467              		.file 22 "./RM18A-ChibiOS18-Core/chibios/os/rt/include/chregistry.h"
 468              		.file 23 "./RM18A-ChibiOS18-Core/chibios/os/rt/include/chevents.h"
 469              		.file 24 "./RM18A-ChibiOS18-Core/chibios/os/oslib/include/chmemcore.h"
 470              		.file 25 "./RM18A-ChibiOS18-Core/chibios/os/oslib/include/chmempools.h"
 471              		.file 26 "./RM18A-ChibiOS18-Core/chibios/os/oslib/include/chfactory.h"
 472              		.file 27 "./RM18A-ChibiOS18-Core/chibios/os/hal/ports/STM32/LLD/DMAv2/stm32_dma.h"
 473              		.file 28 "./RM18A-ChibiOS18-Core/chibios/os/hal/include/hal_queues.h"
 474              		.file 29 "./RM18A-ChibiOS18-Core/chibios/os/hal/include/hal_pal.h"
 475              		.file 30 "./RM18A-ChibiOS18-Core/chibios/os/hal/ports/STM32/LLD/GPIOv2/stm32_gpio.h"
 476              		.file 31 "./RM18A-ChibiOS18-Core/chibios/os/hal/ports/STM32/LLD/GPIOv2/hal_pal_lld.h"
 477              		.file 32 "./RM18A-ChibiOS18-Core/chibios/os/hal/include/hal_adc.h"
 478              		.file 33 "./RM18A-ChibiOS18-Core/chibios/os/hal/ports/STM32/LLD/ADCv2/hal_adc_lld.h"
 479              		.file 34 "./RM18A-ChibiOS18-Core/chibios/os/hal/include/hal_can.h"
 480              		.file 35 "./RM18A-ChibiOS18-Core/chibios/os/hal/ports/STM32/LLD/CANv1/hal_can_lld.h"
 481              		.file 36 "./RM18A-ChibiOS18-Core/chibios/os/hal/include/hal_icu.h"
 482              		.file 37 "./RM18A-ChibiOS18-Core/chibios/os/hal/ports/STM32/LLD/TIMv1/hal_icu_lld.h"
 483              		.file 38 "./RM18A-ChibiOS18-Core/chibios/os/hal/include/hal_pwm.h"
 484              		.file 39 "./RM18A-ChibiOS18-Core/chibios/os/hal/ports/STM32/LLD/TIMv1/hal_pwm_lld.h"
 485              		.file 40 "./RM18A-ChibiOS18-Core/chibios/os/hal/include/hal_serial.h"
 486              		.file 41 "./RM18A-ChibiOS18-Core/chibios/os/hal/ports/STM32/LLD/USARTv1/hal_serial_lld.h"
 487              		.file 42 "./RM18A-ChibiOS18-Core/chibios/os/hal/include/hal_spi.h"
 488              		.file 43 "./RM18A-ChibiOS18-Core/chibios/os/hal/ports/STM32/LLD/SPIv1/hal_spi_lld.h"
 489              		.file 44 "./RM18A-ChibiOS18-Core/chibios/os/hal/include/hal_uart.h"
 490              		.file 45 "./RM18A-ChibiOS18-Core/chibios/os/hal/ports/STM32/LLD/USARTv1/hal_uart_lld.h"
 491              		.file 46 "./RM18A-ChibiOS18-Core/chibios/os/hal/include/hal_usb.h"
 492              		.file 47 "./RM18A-ChibiOS18-Core/chibios/os/hal/ports/STM32/LLD/OTGv1/hal_usb_lld.h"
 493              		.file 48 "./RM18A-ChibiOS18-Core/chibios/os/hal/ports/STM32/LLD/OTGv1/stm32_otg.h"
 494              		.file 49 "./RM18A-ChibiOS18-Core/chibios/os/rt/include/chthreads.h"