ARM GAS  /tmp/cctvB5GQ.s 			page 1


   1              		.cpu cortex-m4
   2              		.eabi_attribute 27, 1
   3              		.eabi_attribute 28, 1
   4              		.eabi_attribute 20, 1
   5              		.eabi_attribute 21, 1
   6              		.eabi_attribute 23, 3
   7              		.eabi_attribute 24, 1
   8              		.eabi_attribute 25, 1
   9              		.eabi_attribute 26, 1
  10              		.eabi_attribute 30, 2
  11              		.eabi_attribute 34, 1
  12              		.eabi_attribute 18, 4
  13              		.file	"hal_usb.c"
  14              		.text
  15              	.Ltext0:
  16              		.cfi_sections	.debug_frame
  17              		.section	.text.usbInit,"ax",%progbits
  18              		.align	1
  19              		.p2align 2,,3
  20              		.global	usbInit
  21              		.syntax unified
  22              		.thumb
  23              		.thumb_func
  24              		.fpu fpv4-sp-d16
  25              		.type	usbInit, %function
  26              	usbInit:
  27              	.LFB330:
  28              		.file 1 "./RM18A-ChibiOS18-Core/chibios/os/hal/src/hal_usb.c"
  29              		.loc 1 270 0
  30              		.cfi_startproc
  31              		@ args = 0, pretend = 0, frame = 0
  32              		@ frame_needed = 0, uses_anonymous_args = 0
  33              		@ link register save eliminated.
  34              		.loc 1 272 0
  35 0000 FFF7FEBF 		b	usb_lld_init
  36              	.LVL0:
  37              		.cfi_endproc
  38              	.LFE330:
  39              		.size	usbInit, .-usbInit
  40              		.section	.text.usbObjectInit,"ax",%progbits
  41              		.align	1
  42              		.p2align 2,,3
  43              		.global	usbObjectInit
  44              		.syntax unified
  45              		.thumb
  46              		.thumb_func
  47              		.fpu fpv4-sp-d16
  48              		.type	usbObjectInit, %function
  49              	usbObjectInit:
  50              	.LFB331:
  51              		.loc 1 282 0
  52              		.cfi_startproc
  53              		@ args = 0, pretend = 0, frame = 0
  54              		@ frame_needed = 0, uses_anonymous_args = 0
  55              		@ link register save eliminated.
  56              	.LVL1:
  57              		.loc 1 286 0
ARM GAS  /tmp/cctvB5GQ.s 			page 2


  58 0000 0023     		movs	r3, #0
  59              		.loc 1 285 0
  60 0002 0122     		movs	r2, #1
  61 0004 0270     		strb	r2, [r0]
  62              		.loc 1 286 0
  63 0006 4360     		str	r3, [r0, #4]
  64              	.LVL2:
  65              		.loc 1 288 0
  66 0008 C361     		str	r3, [r0, #28]
  67              		.loc 1 289 0
  68 000a 8362     		str	r3, [r0, #40]
  69              	.LVL3:
  70              		.loc 1 288 0
  71 000c 0362     		str	r3, [r0, #32]
  72              		.loc 1 289 0
  73 000e C362     		str	r3, [r0, #44]
  74              	.LVL4:
  75              		.loc 1 288 0
  76 0010 4362     		str	r3, [r0, #36]
  77              		.loc 1 289 0
  78 0012 0363     		str	r3, [r0, #48]
  79              	.LVL5:
  80              		.loc 1 291 0
  81 0014 8360     		str	r3, [r0, #8]
  82              		.loc 1 293 0
  83 0016 7047     		bx	lr
  84              		.cfi_endproc
  85              	.LFE331:
  86              		.size	usbObjectInit, .-usbObjectInit
  87              		.section	.text.usbStart,"ax",%progbits
  88              		.align	1
  89              		.p2align 2,,3
  90              		.global	usbStart
  91              		.syntax unified
  92              		.thumb
  93              		.thumb_func
  94              		.fpu fpv4-sp-d16
  95              		.type	usbStart, %function
  96              	usbStart:
  97              	.LFB332:
  98              		.loc 1 303 0
  99              		.cfi_startproc
 100              		@ args = 0, pretend = 0, frame = 0
 101              		@ frame_needed = 0, uses_anonymous_args = 0
 102              	.LVL6:
 103 0000 38B5     		push	{r3, r4, r5, lr}
 104              		.cfi_def_cfa_offset 16
 105              		.cfi_offset 3, -16
 106              		.cfi_offset 4, -12
 107              		.cfi_offset 5, -8
 108              		.cfi_offset 14, -4
 109              		.loc 1 303 0
 110 0002 0446     		mov	r4, r0
 111              	.LBB216:
 112              	.LBB217:
 113              	.LBB218:
 114              	.LBB219:
ARM GAS  /tmp/cctvB5GQ.s 			page 3


 115              	.LBB220:
 116              		.file 2 "./RM18A-ChibiOS18-Core/chibios/os/common/ext/ARM/CMSIS/Core/Include/cmsis_gcc.h"
 117              		.loc 2 493 0
 118 0004 2023     		movs	r3, #32
 119              		.syntax unified
 120              	@ 493 "./RM18A-ChibiOS18-Core/chibios/os/common/ext/ARM/CMSIS/Core/Include/cmsis_gcc.h" 1
 121 0006 83F31188 		MSR basepri, r3
 122              	@ 0 "" 2
 123              	.LVL7:
 124              		.thumb
 125              		.syntax unified
 126              	.LBE220:
 127              	.LBE219:
 128              	.LBE218:
 129              	.LBE217:
 130              	.LBE216:
 131              		.loc 1 313 0
 132 000a 0025     		movs	r5, #0
 133              		.loc 1 311 0
 134 000c 4160     		str	r1, [r0, #4]
 135              	.LVL8:
 136              		.loc 1 313 0
 137 000e C0E90355 		strd	r5, r5, [r0, #12]
 138              	.LVL9:
 139 0012 C0E90555 		strd	r5, r5, [r0, #20]
 140              	.LVL10:
 141              		.loc 1 315 0
 142 0016 FFF7FEFF 		bl	usb_lld_start
 143              	.LVL11:
 144              		.loc 1 316 0
 145 001a 0223     		movs	r3, #2
 146 001c 2370     		strb	r3, [r4]
 147              	.LVL12:
 148              	.LBB221:
 149              	.LBB222:
 150              	.LBB223:
 151              	.LBB224:
 152              	.LBB225:
 153              	.LBB226:
 154              		.loc 2 493 0
 155              		.syntax unified
 156              	@ 493 "./RM18A-ChibiOS18-Core/chibios/os/common/ext/ARM/CMSIS/Core/Include/cmsis_gcc.h" 1
 157 001e 85F31188 		MSR basepri, r5
 158              	@ 0 "" 2
 159              	.LVL13:
 160              		.thumb
 161              		.syntax unified
 162              	.LBE226:
 163              	.LBE225:
 164              	.LBE224:
 165              	.LBE223:
 166              	.LBE222:
 167              	.LBE221:
 168              		.loc 1 318 0
 169 0022 38BD     		pop	{r3, r4, r5, pc}
 170              		.cfi_endproc
 171              	.LFE332:
ARM GAS  /tmp/cctvB5GQ.s 			page 4


 172              		.size	usbStart, .-usbStart
 173              		.section	.text.usbStop,"ax",%progbits
 174              		.align	1
 175              		.p2align 2,,3
 176              		.global	usbStop
 177              		.syntax unified
 178              		.thumb
 179              		.thumb_func
 180              		.fpu fpv4-sp-d16
 181              		.type	usbStop, %function
 182              	usbStop:
 183              	.LFB333:
 184              		.loc 1 327 0
 185              		.cfi_startproc
 186              		@ args = 0, pretend = 0, frame = 0
 187              		@ frame_needed = 0, uses_anonymous_args = 0
 188              	.LVL14:
 189 0000 38B5     		push	{r3, r4, r5, lr}
 190              		.cfi_def_cfa_offset 16
 191              		.cfi_offset 3, -16
 192              		.cfi_offset 4, -12
 193              		.cfi_offset 5, -8
 194              		.cfi_offset 14, -4
 195              		.loc 1 327 0
 196 0002 0546     		mov	r5, r0
 197              	.LBB227:
 198              	.LBB228:
 199              	.LBB229:
 200              	.LBB230:
 201              	.LBB231:
 202              		.loc 2 493 0
 203 0004 2023     		movs	r3, #32
 204              		.syntax unified
 205              	@ 493 "./RM18A-ChibiOS18-Core/chibios/os/common/ext/ARM/CMSIS/Core/Include/cmsis_gcc.h" 1
 206 0006 83F31188 		MSR basepri, r3
 207              	@ 0 "" 2
 208              	.LVL15:
 209              		.thumb
 210              		.syntax unified
 211              	.LBE231:
 212              	.LBE230:
 213              	.LBE229:
 214              	.LBE228:
 215              	.LBE227:
 216              		.loc 1 339 0
 217 000a FFF7FEFF 		bl	usb_lld_stop
 218              	.LVL16:
 219              		.loc 1 340 0
 220 000e 0024     		movs	r4, #0
 221              		.loc 1 341 0
 222 0010 0123     		movs	r3, #1
 223 0012 2B70     		strb	r3, [r5]
 224              	.LVL17:
 225              		.loc 1 340 0
 226 0014 6C60     		str	r4, [r5, #4]
 227              		.loc 1 355 0
 228 0016 C5E90344 		strd	r4, r4, [r5, #12]
ARM GAS  /tmp/cctvB5GQ.s 			page 5


 229              	.LVL18:
 230 001a C5E90544 		strd	r4, r4, [r5, #20]
 231              	.LVL19:
 232              	.LBB232:
 233              	.LBB233:
 234              		.file 3 "./RM18A-ChibiOS18-Core/chibios/os/hal/osal/rt/osal.h"
 235              		.loc 3 618 0
 236 001e FFF7FEFF 		bl	chSchRescheduleS
 237              	.LVL20:
 238              	.LBE233:
 239              	.LBE232:
 240              	.LBB234:
 241              	.LBB235:
 242              	.LBB236:
 243              	.LBB237:
 244              	.LBB238:
 245              	.LBB239:
 246              		.loc 2 493 0
 247              		.syntax unified
 248              	@ 493 "./RM18A-ChibiOS18-Core/chibios/os/common/ext/ARM/CMSIS/Core/Include/cmsis_gcc.h" 1
 249 0022 84F31188 		MSR basepri, r4
 250              	@ 0 "" 2
 251              	.LVL21:
 252              		.thumb
 253              		.syntax unified
 254              	.LBE239:
 255              	.LBE238:
 256              	.LBE237:
 257              	.LBE236:
 258              	.LBE235:
 259              	.LBE234:
 260              		.loc 1 360 0
 261 0026 38BD     		pop	{r3, r4, r5, pc}
 262              		.cfi_endproc
 263              	.LFE333:
 264              		.size	usbStop, .-usbStop
 265              		.section	.text.usbInitEndpointI,"ax",%progbits
 266              		.align	1
 267              		.p2align 2,,3
 268              		.global	usbInitEndpointI
 269              		.syntax unified
 270              		.thumb
 271              		.thumb_func
 272              		.fpu fpv4-sp-d16
 273              		.type	usbInitEndpointI, %function
 274              	usbInitEndpointI:
 275              	.LFB334:
 276              		.loc 1 376 0
 277              		.cfi_startproc
 278              		@ args = 0, pretend = 0, frame = 0
 279              		@ frame_needed = 0, uses_anonymous_args = 0
 280              		@ link register save eliminated.
 281              	.LVL22:
 282 0000 10B4     		push	{r4}
 283              		.cfi_def_cfa_offset 4
 284              		.cfi_offset 4, -4
 285              		.loc 1 388 0
ARM GAS  /tmp/cctvB5GQ.s 			page 6


 286 0002 5369     		ldr	r3, [r2, #20]
 287              		.loc 1 385 0
 288 0004 00EB8104 		add	r4, r0, r1, lsl #2
 289 0008 E260     		str	r2, [r4, #12]
 290              		.loc 1 388 0
 291 000a 23B1     		cbz	r3, .L9
 292              		.loc 1 389 0
 293 000c 0024     		movs	r4, #0
 294 000e 1C60     		str	r4, [r3]	@ unaligned
 295 0010 5C60     		str	r4, [r3, #4]	@ unaligned
 296 0012 9C60     		str	r4, [r3, #8]	@ unaligned
 297 0014 DC60     		str	r4, [r3, #12]	@ unaligned
 298              	.L9:
 299              		.loc 1 391 0
 300 0016 9369     		ldr	r3, [r2, #24]
 301 0018 23B1     		cbz	r3, .L10
 302              		.loc 1 392 0
 303 001a 0022     		movs	r2, #0
 304              	.LVL23:
 305 001c 1A60     		str	r2, [r3]	@ unaligned
 306 001e 5A60     		str	r2, [r3, #4]	@ unaligned
 307 0020 9A60     		str	r2, [r3, #8]	@ unaligned
 308 0022 DA60     		str	r2, [r3, #12]	@ unaligned
 309              	.L10:
 310              		.loc 1 397 0
 311 0024 5DF8044B 		ldr	r4, [sp], #4
 312              		.cfi_restore 4
 313              		.cfi_def_cfa_offset 0
 314              		.loc 1 396 0
 315 0028 FFF7FEBF 		b	usb_lld_init_endpoint
 316              	.LVL24:
 317              		.cfi_endproc
 318              	.LFE334:
 319              		.size	usbInitEndpointI, .-usbInitEndpointI
 320              		.section	.text.usbDisableEndpointsI,"ax",%progbits
 321              		.align	1
 322              		.p2align 2,,3
 323              		.global	usbDisableEndpointsI
 324              		.syntax unified
 325              		.thumb
 326              		.thumb_func
 327              		.fpu fpv4-sp-d16
 328              		.type	usbDisableEndpointsI, %function
 329              	usbDisableEndpointsI:
 330              	.LFB335:
 331              		.loc 1 410 0
 332              		.cfi_startproc
 333              		@ args = 0, pretend = 0, frame = 0
 334              		@ frame_needed = 0, uses_anonymous_args = 0
 335              		@ link register save eliminated.
 336              	.LVL25:
 337 0000 10B4     		push	{r4}
 338              		.cfi_def_cfa_offset 4
 339              		.cfi_offset 4, -4
 340              		.loc 1 418 0
 341 0002 4189     		ldrh	r1, [r0, #10]
 342              		.loc 1 417 0
ARM GAS  /tmp/cctvB5GQ.s 			page 7


 343 0004 0489     		ldrh	r4, [r0, #8]
 344              		.loc 1 432 0
 345 0006 0022     		movs	r2, #0
 346              		.loc 1 417 0
 347 0008 04F00104 		and	r4, r4, #1
 348              		.loc 1 418 0
 349 000c 01F00101 		and	r1, r1, #1
 350              		.loc 1 417 0
 351 0010 0481     		strh	r4, [r0, #8]	@ movhi
 352              		.loc 1 432 0
 353 0012 0261     		str	r2, [r0, #16]
 354              		.loc 1 418 0
 355 0014 4181     		strh	r1, [r0, #10]	@ movhi
 356              	.LVL26:
 357              		.loc 1 432 0
 358 0016 C0E90522 		strd	r2, r2, [r0, #20]
 359              	.LVL27:
 360              		.loc 1 437 0
 361 001a 5DF8044B 		ldr	r4, [sp], #4
 362              		.cfi_restore 4
 363              		.cfi_def_cfa_offset 0
 364              		.loc 1 436 0
 365 001e FFF7FEBF 		b	usb_lld_disable_endpoints
 366              	.LVL28:
 367              		.cfi_endproc
 368              	.LFE335:
 369              		.size	usbDisableEndpointsI, .-usbDisableEndpointsI
 370 0022 00BF     		.section	.text.usbStartReceiveI,"ax",%progbits
 371              		.align	1
 372              		.p2align 2,,3
 373              		.global	usbStartReceiveI
 374              		.syntax unified
 375              		.thumb
 376              		.thumb_func
 377              		.fpu fpv4-sp-d16
 378              		.type	usbStartReceiveI, %function
 379              	usbStartReceiveI:
 380              	.LFB336:
 381              		.loc 1 454 0
 382              		.cfi_startproc
 383              		@ args = 0, pretend = 0, frame = 0
 384              		@ frame_needed = 0, uses_anonymous_args = 0
 385              		@ link register save eliminated.
 386              	.LVL29:
 387 0000 F0B4     		push	{r4, r5, r6, r7}
 388              		.cfi_def_cfa_offset 16
 389              		.cfi_offset 4, -16
 390              		.cfi_offset 5, -12
 391              		.cfi_offset 6, -8
 392              		.cfi_offset 7, -4
 393              		.loc 1 466 0
 394 0002 00EB8104 		add	r4, r0, r1, lsl #2
 395              		.loc 1 462 0
 396 0006 4789     		ldrh	r7, [r0, #10]
 397              		.loc 1 466 0
 398 0008 D4F80CC0 		ldr	ip, [r4, #12]
 399              		.loc 1 462 0
ARM GAS  /tmp/cctvB5GQ.s 			page 8


 400 000c 0124     		movs	r4, #1
 401              		.loc 1 466 0
 402 000e DCF81850 		ldr	r5, [ip, #24]
 403              	.LVL30:
 404              		.loc 1 462 0
 405 0012 8C40     		lsls	r4, r4, r1
 406 0014 3C43     		orrs	r4, r4, r7
 407              		.loc 1 470 0
 408 0016 0027     		movs	r7, #0
 409              		.loc 1 462 0
 410 0018 4481     		strh	r4, [r0, #10]	@ movhi
 411              		.loc 1 468 0
 412 001a AA60     		str	r2, [r5, #8]
 413              		.loc 1 470 0
 414 001c C5E90037 		strd	r3, r7, [r5]
 415              		.loc 1 477 0
 416 0020 F0BC     		pop	{r4, r5, r6, r7}
 417              		.cfi_restore 7
 418              		.cfi_restore 6
 419              		.cfi_restore 5
 420              		.cfi_restore 4
 421              		.cfi_def_cfa_offset 0
 422              	.LVL31:
 423              		.loc 1 476 0
 424 0022 FFF7FEBF 		b	usb_lld_start_out
 425              	.LVL32:
 426              		.cfi_endproc
 427              	.LFE336:
 428              		.size	usbStartReceiveI, .-usbStartReceiveI
 429 0026 00BF     		.section	.text.usbStartTransmitI,"ax",%progbits
 430              		.align	1
 431              		.p2align 2,,3
 432              		.global	usbStartTransmitI
 433              		.syntax unified
 434              		.thumb
 435              		.thumb_func
 436              		.fpu fpv4-sp-d16
 437              		.type	usbStartTransmitI, %function
 438              	usbStartTransmitI:
 439              	.LFB337:
 440              		.loc 1 493 0
 441              		.cfi_startproc
 442              		@ args = 0, pretend = 0, frame = 0
 443              		@ frame_needed = 0, uses_anonymous_args = 0
 444              		@ link register save eliminated.
 445              	.LVL33:
 446 0000 F0B4     		push	{r4, r5, r6, r7}
 447              		.cfi_def_cfa_offset 16
 448              		.cfi_offset 4, -16
 449              		.cfi_offset 5, -12
 450              		.cfi_offset 6, -8
 451              		.cfi_offset 7, -4
 452              		.loc 1 505 0
 453 0002 00EB8104 		add	r4, r0, r1, lsl #2
 454              		.loc 1 501 0
 455 0006 0789     		ldrh	r7, [r0, #8]
 456              		.loc 1 505 0
ARM GAS  /tmp/cctvB5GQ.s 			page 9


 457 0008 D4F80CC0 		ldr	ip, [r4, #12]
 458              		.loc 1 501 0
 459 000c 0124     		movs	r4, #1
 460              		.loc 1 505 0
 461 000e DCF81450 		ldr	r5, [ip, #20]
 462              	.LVL34:
 463              		.loc 1 501 0
 464 0012 8C40     		lsls	r4, r4, r1
 465 0014 3C43     		orrs	r4, r4, r7
 466              		.loc 1 509 0
 467 0016 0027     		movs	r7, #0
 468              		.loc 1 501 0
 469 0018 0481     		strh	r4, [r0, #8]	@ movhi
 470              		.loc 1 507 0
 471 001a AA60     		str	r2, [r5, #8]
 472              		.loc 1 509 0
 473 001c C5E90037 		strd	r3, r7, [r5]
 474              		.loc 1 516 0
 475 0020 F0BC     		pop	{r4, r5, r6, r7}
 476              		.cfi_restore 7
 477              		.cfi_restore 6
 478              		.cfi_restore 5
 479              		.cfi_restore 4
 480              		.cfi_def_cfa_offset 0
 481              	.LVL35:
 482              		.loc 1 515 0
 483 0022 FFF7FEBF 		b	usb_lld_start_in
 484              	.LVL36:
 485              		.cfi_endproc
 486              	.LFE337:
 487              		.size	usbStartTransmitI, .-usbStartTransmitI
 488 0026 00BF     		.section	.text.usbStallReceiveI,"ax",%progbits
 489              		.align	1
 490              		.p2align 2,,3
 491              		.global	usbStallReceiveI
 492              		.syntax unified
 493              		.thumb
 494              		.thumb_func
 495              		.fpu fpv4-sp-d16
 496              		.type	usbStallReceiveI, %function
 497              	usbStallReceiveI:
 498              	.LFB338:
 499              		.loc 1 599 0
 500              		.cfi_startproc
 501              		@ args = 0, pretend = 0, frame = 0
 502              		@ frame_needed = 0, uses_anonymous_args = 0
 503              	.LVL37:
 504 0000 10B5     		push	{r4, lr}
 505              		.cfi_def_cfa_offset 8
 506              		.cfi_offset 4, -8
 507              		.cfi_offset 14, -4
 508              		.loc 1 604 0
 509 0002 0123     		movs	r3, #1
 510 0004 4489     		ldrh	r4, [r0, #10]
 511 0006 03FA01F2 		lsl	r2, r3, r1
 512 000a 1440     		ands	r4, r2, r4
 513 000c 01D0     		beq	.L28
ARM GAS  /tmp/cctvB5GQ.s 			page 10


 514              		.loc 1 605 0
 515 000e 1846     		mov	r0, r3
 516              	.LVL38:
 517              		.loc 1 610 0
 518 0010 10BD     		pop	{r4, pc}
 519              	.LVL39:
 520              	.L28:
 521              		.loc 1 608 0
 522 0012 FFF7FEFF 		bl	usb_lld_stall_out
 523              	.LVL40:
 524              		.loc 1 609 0
 525 0016 2046     		mov	r0, r4
 526              		.loc 1 610 0
 527 0018 10BD     		pop	{r4, pc}
 528              		.cfi_endproc
 529              	.LFE338:
 530              		.size	usbStallReceiveI, .-usbStallReceiveI
 531 001a 00BF     		.section	.text.usbStallTransmitI,"ax",%progbits
 532              		.align	1
 533              		.p2align 2,,3
 534              		.global	usbStallTransmitI
 535              		.syntax unified
 536              		.thumb
 537              		.thumb_func
 538              		.fpu fpv4-sp-d16
 539              		.type	usbStallTransmitI, %function
 540              	usbStallTransmitI:
 541              	.LFB339:
 542              		.loc 1 624 0
 543              		.cfi_startproc
 544              		@ args = 0, pretend = 0, frame = 0
 545              		@ frame_needed = 0, uses_anonymous_args = 0
 546              	.LVL41:
 547 0000 10B5     		push	{r4, lr}
 548              		.cfi_def_cfa_offset 8
 549              		.cfi_offset 4, -8
 550              		.cfi_offset 14, -4
 551              		.loc 1 629 0
 552 0002 0123     		movs	r3, #1
 553 0004 0489     		ldrh	r4, [r0, #8]
 554 0006 03FA01F2 		lsl	r2, r3, r1
 555 000a 1440     		ands	r4, r2, r4
 556 000c 01D0     		beq	.L33
 557              		.loc 1 630 0
 558 000e 1846     		mov	r0, r3
 559              	.LVL42:
 560              		.loc 1 635 0
 561 0010 10BD     		pop	{r4, pc}
 562              	.LVL43:
 563              	.L33:
 564              		.loc 1 633 0
 565 0012 FFF7FEFF 		bl	usb_lld_stall_in
 566              	.LVL44:
 567              		.loc 1 634 0
 568 0016 2046     		mov	r0, r4
 569              		.loc 1 635 0
 570 0018 10BD     		pop	{r4, pc}
ARM GAS  /tmp/cctvB5GQ.s 			page 11


 571              		.cfi_endproc
 572              	.LFE339:
 573              		.size	usbStallTransmitI, .-usbStallTransmitI
 574 001a 00BF     		.section	.text.usbWakeupHost,"ax",%progbits
 575              		.align	1
 576              		.p2align 2,,3
 577              		.global	usbWakeupHost
 578              		.syntax unified
 579              		.thumb
 580              		.thumb_func
 581              		.fpu fpv4-sp-d16
 582              		.type	usbWakeupHost, %function
 583              	usbWakeupHost:
 584              	.LFB340:
 585              		.loc 1 646 0
 586              		.cfi_startproc
 587              		@ args = 0, pretend = 0, frame = 0
 588              		@ frame_needed = 0, uses_anonymous_args = 0
 589              	.LVL45:
 590              		.loc 1 648 0
 591 0000 0378     		ldrb	r3, [r0]	@ zero_extendqisi2
 592 0002 052B     		cmp	r3, #5
 593 0004 00D0     		beq	.L40
 594 0006 7047     		bx	lr
 595              	.L40:
 596              		.loc 1 650 0
 597 0008 426D     		ldr	r2, [r0, #84]
 598 000a D2F80438 		ldr	r3, [r2, #2052]
 599              		.loc 1 646 0
 600 000e 10B5     		push	{r4, lr}
 601              		.cfi_def_cfa_offset 8
 602              		.cfi_offset 4, -8
 603              		.cfi_offset 14, -4
 604              		.loc 1 650 0
 605 0010 43F00103 		orr	r3, r3, #1
 606 0014 0446     		mov	r4, r0
 607 0016 C2F80438 		str	r3, [r2, #2052]
 608              	.LVL46:
 609              	.LBB240:
 610              	.LBB241:
 611              		.loc 3 720 0
 612 001a 1420     		movs	r0, #20
 613              	.LVL47:
 614 001c FFF7FEFF 		bl	chThdSleep
 615              	.LVL48:
 616              	.LBE241:
 617              	.LBE240:
 618              		.loc 1 650 0
 619 0020 626D     		ldr	r2, [r4, #84]
 620 0022 D2F80438 		ldr	r3, [r2, #2052]
 621 0026 23F00103 		bic	r3, r3, #1
 622 002a C2F80438 		str	r3, [r2, #2052]
 623              		.loc 1 652 0
 624 002e 10BD     		pop	{r4, pc}
 625              		.cfi_endproc
 626              	.LFE340:
 627              		.size	usbWakeupHost, .-usbWakeupHost
ARM GAS  /tmp/cctvB5GQ.s 			page 12


 628              		.section	.text._usb_reset,"ax",%progbits
 629              		.align	1
 630              		.p2align 2,,3
 631              		.global	_usb_reset
 632              		.syntax unified
 633              		.thumb
 634              		.thumb_func
 635              		.fpu fpv4-sp-d16
 636              		.type	_usb_reset, %function
 637              	_usb_reset:
 638              	.LFB341:
 639              		.loc 1 663 0
 640              		.cfi_startproc
 641              		@ args = 0, pretend = 0, frame = 0
 642              		@ frame_needed = 0, uses_anonymous_args = 0
 643              	.LVL49:
 644 0000 70B5     		push	{r4, r5, r6, lr}
 645              		.cfi_def_cfa_offset 16
 646              		.cfi_offset 4, -16
 647              		.cfi_offset 5, -12
 648              		.cfi_offset 6, -8
 649              		.cfi_offset 14, -4
 650              		.loc 1 667 0
 651 0002 0223     		movs	r3, #2
 652              		.loc 1 670 0
 653 0004 0025     		movs	r5, #0
 654              		.loc 1 663 0
 655 0006 0446     		mov	r4, r0
 656              		.loc 1 667 0
 657 0008 0370     		strb	r3, [r0]
 658              		.loc 1 670 0
 659 000a C564     		str	r5, [r0, #76]
 660              		.loc 1 691 0
 661 000c C0E90255 		strd	r5, r5, [r0, #8]
 662              	.LVL50:
 663 0010 C0E90455 		strd	r5, r5, [r0, #16]
 664              	.LVL51:
 665 0014 8561     		str	r5, [r0, #24]
 666              	.LVL52:
 667              		.loc 1 695 0
 668 0016 80F83450 		strb	r5, [r0, #52]
 669              		.loc 1 698 0
 670 001a FFF7FEFF 		bl	usb_lld_reset
 671              	.LVL53:
 672              		.loc 1 701 0
 673 001e 6368     		ldr	r3, [r4, #4]
 674 0020 1B68     		ldr	r3, [r3]
 675 0022 23B1     		cbz	r3, .L41
 676              		.loc 1 701 0 is_stmt 0 discriminator 1
 677 0024 2946     		mov	r1, r5
 678 0026 2046     		mov	r0, r4
 679              		.loc 1 702 0 is_stmt 1 discriminator 1
 680 0028 BDE87040 		pop	{r4, r5, r6, lr}
 681              		.cfi_remember_state
 682              		.cfi_restore 14
 683              		.cfi_restore 6
 684              		.cfi_restore 5
ARM GAS  /tmp/cctvB5GQ.s 			page 13


 685              		.cfi_restore 4
 686              		.cfi_def_cfa_offset 0
 687              	.LVL54:
 688              		.loc 1 701 0 discriminator 1
 689 002c 1847     		bx	r3	@ indirect register sibling call
 690              	.LVL55:
 691              	.L41:
 692              		.cfi_restore_state
 693              		.loc 1 702 0
 694 002e 70BD     		pop	{r4, r5, r6, pc}
 695              		.cfi_endproc
 696              	.LFE341:
 697              		.size	_usb_reset, .-_usb_reset
 698              		.section	.text._usb_suspend,"ax",%progbits
 699              		.align	1
 700              		.p2align 2,,3
 701              		.global	_usb_suspend
 702              		.syntax unified
 703              		.thumb
 704              		.thumb_func
 705              		.fpu fpv4-sp-d16
 706              		.type	_usb_suspend, %function
 707              	_usb_suspend:
 708              	.LFB342:
 709              		.loc 1 713 0
 710              		.cfi_startproc
 711              		@ args = 0, pretend = 0, frame = 0
 712              		@ frame_needed = 0, uses_anonymous_args = 0
 713              		@ link register save eliminated.
 714              	.LVL56:
 715              		.loc 1 721 0
 716 0000 4268     		ldr	r2, [r0, #4]
 717 0002 1268     		ldr	r2, [r2]
 718              		.loc 1 713 0
 719 0004 10B4     		push	{r4}
 720              		.cfi_def_cfa_offset 4
 721              		.cfi_offset 4, -4
 722              		.loc 1 718 0
 723 0006 0521     		movs	r1, #5
 724              		.loc 1 717 0
 725 0008 0478     		ldrb	r4, [r0]	@ zero_extendqisi2
 726 000a 80F85040 		strb	r4, [r0, #80]
 727              		.loc 1 718 0
 728 000e 0170     		strb	r1, [r0]
 729              		.loc 1 721 0
 730 0010 1AB1     		cbz	r2, .L44
 731              		.loc 1 721 0 is_stmt 0 discriminator 1
 732 0012 0421     		movs	r1, #4
 733              		.loc 1 742 0 is_stmt 1 discriminator 1
 734 0014 5DF8044B 		ldr	r4, [sp], #4
 735              		.cfi_remember_state
 736              		.cfi_restore 4
 737              		.cfi_def_cfa_offset 0
 738              		.loc 1 721 0 discriminator 1
 739 0018 1047     		bx	r2	@ indirect register sibling call
 740              	.LVL57:
 741              	.L44:
ARM GAS  /tmp/cctvB5GQ.s 			page 14


 742              		.cfi_restore_state
 743              		.loc 1 742 0
 744 001a 5DF8044B 		ldr	r4, [sp], #4
 745              		.cfi_restore 4
 746              		.cfi_def_cfa_offset 0
 747 001e 7047     		bx	lr
 748              		.cfi_endproc
 749              	.LFE342:
 750              		.size	_usb_suspend, .-_usb_suspend
 751              		.section	.text._usb_wakeup,"ax",%progbits
 752              		.align	1
 753              		.p2align 2,,3
 754              		.global	_usb_wakeup
 755              		.syntax unified
 756              		.thumb
 757              		.thumb_func
 758              		.fpu fpv4-sp-d16
 759              		.type	_usb_wakeup, %function
 760              	_usb_wakeup:
 761              	.LFB343:
 762              		.loc 1 753 0
 763              		.cfi_startproc
 764              		@ args = 0, pretend = 0, frame = 0
 765              		@ frame_needed = 0, uses_anonymous_args = 0
 766              		@ link register save eliminated.
 767              	.LVL58:
 768              		.loc 1 759 0
 769 0000 4268     		ldr	r2, [r0, #4]
 770              		.loc 1 756 0
 771 0002 90F85010 		ldrb	r1, [r0, #80]	@ zero_extendqisi2
 772              		.loc 1 759 0
 773 0006 1268     		ldr	r2, [r2]
 774              		.loc 1 756 0
 775 0008 0170     		strb	r1, [r0]
 776              		.loc 1 759 0
 777 000a 0AB1     		cbz	r2, .L47
 778              		.loc 1 759 0 is_stmt 0 discriminator 1
 779 000c 0521     		movs	r1, #5
 780 000e 1047     		bx	r2	@ indirect register sibling call
 781              	.LVL59:
 782              	.L47:
 783              		.loc 1 760 0 is_stmt 1
 784 0010 7047     		bx	lr
 785              		.cfi_endproc
 786              	.LFE343:
 787              		.size	_usb_wakeup, .-_usb_wakeup
 788 0012 00BF     		.section	.text._usb_ep0setup,"ax",%progbits
 789              		.align	1
 790              		.p2align 2,,3
 791              		.global	_usb_ep0setup
 792              		.syntax unified
 793              		.thumb
 794              		.thumb_func
 795              		.fpu fpv4-sp-d16
 796              		.type	_usb_ep0setup, %function
 797              	_usb_ep0setup:
 798              	.LFB344:
ARM GAS  /tmp/cctvB5GQ.s 			page 15


 799              		.loc 1 772 0
 800              		.cfi_startproc
 801              		@ args = 0, pretend = 0, frame = 0
 802              		@ frame_needed = 0, uses_anonymous_args = 0
 803              	.LVL60:
 804              		.loc 1 777 0
 805 0000 90F83430 		ldrb	r3, [r0, #52]	@ zero_extendqisi2
 806              		.loc 1 772 0
 807 0004 70B5     		push	{r4, r5, r6, lr}
 808              		.cfi_def_cfa_offset 16
 809              		.cfi_offset 4, -16
 810              		.cfi_offset 5, -12
 811              		.cfi_offset 6, -8
 812              		.cfi_offset 14, -4
 813              		.loc 1 772 0
 814 0006 0446     		mov	r4, r0
 815              		.loc 1 777 0
 816 0008 13B1     		cbz	r3, .L50
 817              		.loc 1 782 0
 818 000a 0023     		movs	r3, #0
 819 000c 80F83430 		strb	r3, [r0, #52]
 820              	.L50:
 821              		.loc 1 786 0
 822 0010 04F14402 		add	r2, r4, #68
 823 0014 2046     		mov	r0, r4
 824              	.LVL61:
 825 0016 FFF7FEFF 		bl	usb_lld_read_setup
 826              	.LVL62:
 827              		.loc 1 791 0
 828 001a 6368     		ldr	r3, [r4, #4]
 829 001c 9B68     		ldr	r3, [r3, #8]
 830 001e 63B3     		cbz	r3, .L55
 831              		.loc 1 792 0 discriminator 1
 832 0020 2046     		mov	r0, r4
 833 0022 9847     		blx	r3
 834              	.LVL63:
 835              		.loc 1 791 0 discriminator 1
 836 0024 48B3     		cbz	r0, .L55
 837 0026 E16B     		ldr	r1, [r4, #60]
 838 0028 94F84430 		ldrb	r3, [r4, #68]	@ zero_extendqisi2
 839              	.L72:
 840              	.LBB320:
 841              	.LBB321:
 842              		.loc 1 55 0
 843 002c 94F84B00 		ldrb	r0, [r4, #75]	@ zero_extendqisi2
 844 0030 94F84A20 		ldrb	r2, [r4, #74]	@ zero_extendqisi2
 845              	.LBE321:
 846              	.LBE320:
 847              		.loc 1 819 0
 848 0034 42EA0022 		orr	r2, r2, r0, lsl #8
 849              	.LVL64:
 850              		.loc 1 821 0
 851 0038 8A42     		cmp	r2, r1
 852 003a 2CBF     		ite	cs
 853 003c 0A46     		movcs	r2, r1
 854              	.LVL65:
 855              		.loc 1 822 0
ARM GAS  /tmp/cctvB5GQ.s 			page 16


 856 003e E263     		strcc	r2, [r4, #60]
 857              		.loc 1 824 0
 858 0040 1906     		lsls	r1, r3, #24
 859 0042 00F18A80 		bmi	.L145
 860              		.loc 1 848 0
 861 0046 002A     		cmp	r2, #0
 862 0048 5AD0     		beq	.L95
 863              		.loc 1 850 0
 864 004a 1523     		movs	r3, #21
 865 004c 84F83430 		strb	r3, [r4, #52]
 866              	.LVL66:
 867              	.LBB322:
 868              	.LBB323:
 869              	.LBB324:
 870              	.LBB325:
 871              	.LBB326:
 872              	.LBB327:
 873              		.loc 2 493 0
 874 0050 2023     		movs	r3, #32
 875              		.syntax unified
 876              	@ 493 "./RM18A-ChibiOS18-Core/chibios/os/common/ext/ARM/CMSIS/Core/Include/cmsis_gcc.h" 1
 877 0052 83F31188 		MSR basepri, r3
 878              	@ 0 "" 2
 879              	.LVL67:
 880              		.thumb
 881              		.syntax unified
 882              	.LBE327:
 883              	.LBE326:
 884              	.LBE325:
 885              	.LBE324:
 886              	.LBE323:
 887              	.LBE322:
 888              	.LBB328:
 889              	.LBB329:
 890              		.loc 1 466 0
 891 0056 E368     		ldr	r3, [r4, #12]
 892              		.loc 1 462 0
 893 0058 6289     		ldrh	r2, [r4, #10]
 894              		.loc 1 466 0
 895 005a 9B69     		ldr	r3, [r3, #24]
 896              	.LBE329:
 897              	.LBE328:
 898              		.loc 1 852 0
 899 005c D4E90E61 		ldrd	r6, r1, [r4, #56]
 900              	.LVL68:
 901              	.LBB331:
 902              	.LBB330:
 903              		.loc 1 462 0
 904 0060 42F00102 		orr	r2, r2, #1
 905              		.loc 1 470 0
 906 0064 0025     		movs	r5, #0
 907              		.loc 1 462 0
 908 0066 6281     		strh	r2, [r4, #10]	@ movhi
 909              		.loc 1 476 0
 910 0068 2046     		mov	r0, r4
 911              	.LVL69:
 912              		.loc 1 470 0
ARM GAS  /tmp/cctvB5GQ.s 			page 17


 913 006a 83E86200 		stm	r3, {r1, r5, r6}
 914              	.LVL70:
 915              		.loc 1 476 0
 916 006e 2946     		mov	r1, r5
 917              	.LVL71:
 918 0070 FFF7FEFF 		bl	usb_lld_start_out
 919              	.LVL72:
 920              	.LBE330:
 921              	.LBE331:
 922              	.LBB332:
 923              	.LBB333:
 924              	.LBB334:
 925              	.LBB335:
 926              	.LBB336:
 927              	.LBB337:
 928              		.loc 2 493 0
 929              		.syntax unified
 930              	@ 493 "./RM18A-ChibiOS18-Core/chibios/os/common/ext/ARM/CMSIS/Core/Include/cmsis_gcc.h" 1
 931 0074 85F31188 		MSR basepri, r5
 932              	@ 0 "" 2
 933              	.LVL73:
 934              		.thumb
 935              		.syntax unified
 936              	.LBE337:
 937              	.LBE336:
 938              	.LBE335:
 939              	.LBE334:
 940              	.LBE333:
 941              	.LBE332:
 942              		.loc 1 868 0
 943 0078 70BD     		pop	{r4, r5, r6, pc}
 944              	.LVL74:
 945              	.L55:
 946              		.loc 1 797 0
 947 007a 94F84430 		ldrb	r3, [r4, #68]	@ zero_extendqisi2
 948 007e 13F06005 		ands	r5, r3, #96
 949 0082 1846     		mov	r0, r3
 950 0084 11D0     		beq	.L146
 951              	.L71:
 952              		.loc 1 803 0
 953 0086 0021     		movs	r1, #0
 954 0088 2046     		mov	r0, r4
 955 008a FFF7FEFF 		bl	usb_lld_stall_in
 956              	.LVL75:
 957              		.loc 1 804 0
 958 008e 0021     		movs	r1, #0
 959 0090 2046     		mov	r0, r4
 960 0092 FFF7FEFF 		bl	usb_lld_stall_out
 961              	.LVL76:
 962              		.loc 1 805 0
 963 0096 6368     		ldr	r3, [r4, #4]
 964 0098 1B68     		ldr	r3, [r3]
 965 009a 13B1     		cbz	r3, .L89
 966              		.loc 1 805 0 is_stmt 0 discriminator 1
 967 009c 0621     		movs	r1, #6
 968 009e 2046     		mov	r0, r4
 969 00a0 9847     		blx	r3
ARM GAS  /tmp/cctvB5GQ.s 			page 18


 970              	.LVL77:
 971              	.L89:
 972              		.loc 1 806 0 is_stmt 1
 973 00a2 0623     		movs	r3, #6
 974 00a4 84F83430 		strb	r3, [r4, #52]
 975              		.loc 1 868 0
 976 00a8 70BD     		pop	{r4, r5, r6, pc}
 977              	.LVL78:
 978              	.L146:
 979              	.LBB338:
 980              	.LBB339:
 981              		.loc 1 90 0
 982 00aa 94F84510 		ldrb	r1, [r4, #69]	@ zero_extendqisi2
 983              		.loc 1 88 0
 984 00ae 03F07F02 		and	r2, r3, #127
 985              		.loc 1 89 0
 986 00b2 42EA0122 		orr	r2, r2, r1, lsl #8
 987              		.loc 1 88 0
 988 00b6 40F20231 		movw	r1, #770
 989 00ba 8A42     		cmp	r2, r1
 990 00bc 00F0F180 		beq	.L57
 991 00c0 35D8     		bhi	.L58
 992 00c2 022A     		cmp	r2, #2
 993 00c4 00F0D680 		beq	.L59
 994 00c8 40F2AF80 		bls	.L147
 995 00cc B2F5817F 		cmp	r2, #258
 996 00d0 00F0B380 		beq	.L63
 997 00d4 B2F5407F 		cmp	r2, #768
 998 00d8 00F08780 		beq	.L64
 999 00dc B2F5807F 		cmp	r2, #256
 1000 00e0 D1D1     		bne	.L71
 1001              		.loc 1 98 0
 1002 00e2 94F84630 		ldrb	r3, [r4, #70]	@ zero_extendqisi2
 1003 00e6 012B     		cmp	r3, #1
 1004 00e8 CDD1     		bne	.L71
 1005              		.loc 1 99 0
 1006 00ea B4F84C30 		ldrh	r3, [r4, #76]
 1007              		.loc 1 100 0
 1008 00ee A563     		str	r5, [r4, #56]
 1009 00f0 C4E90F55 		strd	r5, r5, [r4, #60]
 1010              	.LVL79:
 1011              		.loc 1 99 0
 1012 00f4 23F00203 		bic	r3, r3, #2
 1013 00f8 A4F84C30 		strh	r3, [r4, #76]	@ movhi
 1014              	.L73:
 1015              	.LVL80:
 1016              	.LBE339:
 1017              	.LBE338:
 1018              		.loc 1 824 0
 1019 00fc 0306     		lsls	r3, r0, #24
 1020 00fe 45D4     		bmi	.L94
 1021              	.LVL81:
 1022              	.L95:
 1023              		.loc 1 858 0
 1024 0100 0B23     		movs	r3, #11
 1025 0102 84F83430 		strb	r3, [r4, #52]
 1026              	.LVL82:
ARM GAS  /tmp/cctvB5GQ.s 			page 19


 1027              	.LBB362:
 1028              	.LBB363:
 1029              	.LBB364:
 1030              	.LBB365:
 1031              	.LBB366:
 1032              	.LBB367:
 1033              		.loc 2 493 0
 1034 0106 2023     		movs	r3, #32
 1035              		.syntax unified
 1036              	@ 493 "./RM18A-ChibiOS18-Core/chibios/os/common/ext/ARM/CMSIS/Core/Include/cmsis_gcc.h" 1
 1037 0108 83F31188 		MSR basepri, r3
 1038              	@ 0 "" 2
 1039              	.LVL83:
 1040              		.thumb
 1041              		.syntax unified
 1042              	.LBE367:
 1043              	.LBE366:
 1044              	.LBE365:
 1045              	.LBE364:
 1046              	.LBE363:
 1047              	.LBE362:
 1048              	.LBB368:
 1049              	.LBB369:
 1050              		.loc 1 505 0
 1051 010c E368     		ldr	r3, [r4, #12]
 1052              		.loc 1 501 0
 1053 010e 2289     		ldrh	r2, [r4, #8]
 1054              		.loc 1 505 0
 1055 0110 5B69     		ldr	r3, [r3, #20]
 1056              	.LVL84:
 1057              		.loc 1 507 0
 1058 0112 0025     		movs	r5, #0
 1059              		.loc 1 501 0
 1060 0114 42F00102 		orr	r2, r2, #1
 1061 0118 2281     		strh	r2, [r4, #8]	@ movhi
 1062              		.loc 1 515 0
 1063 011a 2046     		mov	r0, r4
 1064              		.loc 1 507 0
 1065 011c 9D60     		str	r5, [r3, #8]
 1066              		.loc 1 509 0
 1067 011e C3E90055 		strd	r5, r5, [r3]
 1068              		.loc 1 515 0
 1069 0122 2946     		mov	r1, r5
 1070 0124 FFF7FEFF 		bl	usb_lld_start_in
 1071              	.LVL85:
 1072              	.LBE369:
 1073              	.LBE368:
 1074              	.LBB370:
 1075              	.LBB371:
 1076              	.LBB372:
 1077              	.LBB373:
 1078              	.LBB374:
 1079              	.LBB375:
 1080              		.loc 2 493 0
 1081              		.syntax unified
 1082              	@ 493 "./RM18A-ChibiOS18-Core/chibios/os/common/ext/ARM/CMSIS/Core/Include/cmsis_gcc.h" 1
 1083 0128 85F31188 		MSR basepri, r5
ARM GAS  /tmp/cctvB5GQ.s 			page 20


 1084              	@ 0 "" 2
 1085              	.LVL86:
 1086              		.thumb
 1087              		.syntax unified
 1088              	.LBE375:
 1089              	.LBE374:
 1090              	.LBE373:
 1091              	.LBE372:
 1092              	.LBE371:
 1093              	.LBE370:
 1094              		.loc 1 868 0
 1095 012c 70BD     		pop	{r4, r5, r6, pc}
 1096              	.LVL87:
 1097              	.L58:
 1098              	.LBB376:
 1099              	.LBB360:
 1100              		.loc 1 88 0
 1101 012e 40F20161 		movw	r1, #1537
 1102 0132 8A42     		cmp	r2, r1
 1103 0134 68D9     		bls	.L148
 1104 0136 B2F5106F 		cmp	r2, #2304
 1105 013a 3ED0     		beq	.L69
 1106 013c 40F60241 		movw	r1, #3074
 1107 0140 8A42     		cmp	r2, r1
 1108 0142 00F09080 		beq	.L62
 1109 0146 B2F5006F 		cmp	r2, #2048
 1110 014a 9CD1     		bne	.L71
 1111              		.loc 1 142 0
 1112 014c 04F14F02 		add	r2, r4, #79
 1113 0150 0121     		movs	r1, #1
 1114 0152 2564     		str	r5, [r4, #64]
 1115              	.LVL88:
 1116 0154 C4E90E21 		strd	r2, r1, [r4, #56]
 1117 0158 68E7     		b	.L72
 1118              	.LVL89:
 1119              	.L145:
 1120              	.LBE360:
 1121              	.LBE376:
 1122              		.loc 1 826 0
 1123 015a BAB1     		cbz	r2, .L94
 1124              		.loc 1 828 0
 1125 015c 0923     		movs	r3, #9
 1126 015e 84F83430 		strb	r3, [r4, #52]
 1127              	.LVL90:
 1128              	.LBB377:
 1129              	.LBB378:
 1130              	.LBB379:
 1131              	.LBB380:
 1132              	.LBB381:
 1133              	.LBB382:
 1134              		.loc 2 493 0
 1135 0162 2023     		movs	r3, #32
 1136              		.syntax unified
 1137              	@ 493 "./RM18A-ChibiOS18-Core/chibios/os/common/ext/ARM/CMSIS/Core/Include/cmsis_gcc.h" 1
 1138 0164 83F31188 		MSR basepri, r3
 1139              	@ 0 "" 2
 1140              	.LVL91:
ARM GAS  /tmp/cctvB5GQ.s 			page 21


 1141              		.thumb
 1142              		.syntax unified
 1143              	.LBE382:
 1144              	.LBE381:
 1145              	.LBE380:
 1146              	.LBE379:
 1147              	.LBE378:
 1148              	.LBE377:
 1149              	.LBB383:
 1150              	.LBB384:
 1151              		.loc 1 505 0
 1152 0168 E368     		ldr	r3, [r4, #12]
 1153              		.loc 1 501 0
 1154 016a 2289     		ldrh	r2, [r4, #8]
 1155              		.loc 1 505 0
 1156 016c 5B69     		ldr	r3, [r3, #20]
 1157              	.LBE384:
 1158              	.LBE383:
 1159              		.loc 1 830 0
 1160 016e D4E90E61 		ldrd	r6, r1, [r4, #56]
 1161              	.LVL92:
 1162              	.LBB386:
 1163              	.LBB385:
 1164              		.loc 1 501 0
 1165 0172 42F00102 		orr	r2, r2, #1
 1166              		.loc 1 509 0
 1167 0176 0025     		movs	r5, #0
 1168              		.loc 1 501 0
 1169 0178 2281     		strh	r2, [r4, #8]	@ movhi
 1170              		.loc 1 515 0
 1171 017a 2046     		mov	r0, r4
 1172              	.LVL93:
 1173              		.loc 1 509 0
 1174 017c 83E86200 		stm	r3, {r1, r5, r6}
 1175              	.LVL94:
 1176              		.loc 1 515 0
 1177 0180 2946     		mov	r1, r5
 1178              	.LVL95:
 1179 0182 FFF7FEFF 		bl	usb_lld_start_in
 1180              	.LVL96:
 1181              	.LBE385:
 1182              	.LBE386:
 1183              	.LBB387:
 1184              	.LBB388:
 1185              	.LBB389:
 1186              	.LBB390:
 1187              	.LBB391:
 1188              	.LBB392:
 1189              		.loc 2 493 0
 1190              		.syntax unified
 1191              	@ 493 "./RM18A-ChibiOS18-Core/chibios/os/common/ext/ARM/CMSIS/Core/Include/cmsis_gcc.h" 1
 1192 0186 85F31188 		MSR basepri, r5
 1193              	@ 0 "" 2
 1194              	.LVL97:
 1195              		.thumb
 1196              		.syntax unified
 1197              	.LBE392:
ARM GAS  /tmp/cctvB5GQ.s 			page 22


 1198              	.LBE391:
 1199              	.LBE390:
 1200              	.LBE389:
 1201              	.LBE388:
 1202              	.LBE387:
 1203              		.loc 1 868 0
 1204 018a 70BD     		pop	{r4, r5, r6, pc}
 1205              	.LVL98:
 1206              	.L94:
 1207              		.loc 1 836 0
 1208 018c 1423     		movs	r3, #20
 1209 018e 84F83430 		strb	r3, [r4, #52]
 1210              	.LVL99:
 1211              	.LBB393:
 1212              	.LBB394:
 1213              	.LBB395:
 1214              	.LBB396:
 1215              	.LBB397:
 1216              	.LBB398:
 1217              		.loc 2 493 0
 1218 0192 2023     		movs	r3, #32
 1219              		.syntax unified
 1220              	@ 493 "./RM18A-ChibiOS18-Core/chibios/os/common/ext/ARM/CMSIS/Core/Include/cmsis_gcc.h" 1
 1221 0194 83F31188 		MSR basepri, r3
 1222              	@ 0 "" 2
 1223              	.LVL100:
 1224              		.thumb
 1225              		.syntax unified
 1226              	.LBE398:
 1227              	.LBE397:
 1228              	.LBE396:
 1229              	.LBE395:
 1230              	.LBE394:
 1231              	.LBE393:
 1232              	.LBB399:
 1233              	.LBB400:
 1234              		.loc 1 466 0
 1235 0198 E368     		ldr	r3, [r4, #12]
 1236              		.loc 1 462 0
 1237 019a 6289     		ldrh	r2, [r4, #10]
 1238              		.loc 1 466 0
 1239 019c 9B69     		ldr	r3, [r3, #24]
 1240              	.LVL101:
 1241              		.loc 1 468 0
 1242 019e 0025     		movs	r5, #0
 1243              		.loc 1 462 0
 1244 01a0 42F00102 		orr	r2, r2, #1
 1245 01a4 6281     		strh	r2, [r4, #10]	@ movhi
 1246              		.loc 1 476 0
 1247 01a6 2046     		mov	r0, r4
 1248              		.loc 1 468 0
 1249 01a8 9D60     		str	r5, [r3, #8]
 1250              		.loc 1 470 0
 1251 01aa C3E90055 		strd	r5, r5, [r3]
 1252              		.loc 1 476 0
 1253 01ae 2946     		mov	r1, r5
 1254 01b0 FFF7FEFF 		bl	usb_lld_start_out
ARM GAS  /tmp/cctvB5GQ.s 			page 23


 1255              	.LVL102:
 1256              	.LBE400:
 1257              	.LBE399:
 1258              	.LBB401:
 1259              	.LBB402:
 1260              	.LBB403:
 1261              	.LBB404:
 1262              	.LBB405:
 1263              	.LBB406:
 1264              		.loc 2 493 0
 1265              		.syntax unified
 1266              	@ 493 "./RM18A-ChibiOS18-Core/chibios/os/common/ext/ARM/CMSIS/Core/Include/cmsis_gcc.h" 1
 1267 01b4 85F31188 		MSR basepri, r5
 1268              	@ 0 "" 2
 1269              	.LVL103:
 1270              		.thumb
 1271              		.syntax unified
 1272              	.LBE406:
 1273              	.LBE405:
 1274              	.LBE404:
 1275              	.LBE403:
 1276              	.LBE402:
 1277              	.LBE401:
 1278              		.loc 1 868 0
 1279 01b8 70BD     		pop	{r4, r5, r6, pc}
 1280              	.LVL104:
 1281              	.L69:
 1282              	.LBB407:
 1283              	.LBB361:
 1284              		.loc 1 153 0
 1285 01ba 2378     		ldrb	r3, [r4]	@ zero_extendqisi2
 1286 01bc 042B     		cmp	r3, #4
 1287 01be 00F0B380 		beq	.L149
 1288              	.L77:
 1289              		.loc 1 162 0
 1290 01c2 94F84630 		ldrb	r3, [r4, #70]	@ zero_extendqisi2
 1291 01c6 4BB1     		cbz	r3, .L80
 1292              		.loc 1 166 0
 1293 01c8 6268     		ldr	r2, [r4, #4]
 1294              		.loc 1 164 0
 1295 01ca 84F84F30 		strb	r3, [r4, #79]
 1296              		.loc 1 166 0
 1297 01ce 1368     		ldr	r3, [r2]
 1298              		.loc 1 165 0
 1299 01d0 0422     		movs	r2, #4
 1300 01d2 2270     		strb	r2, [r4]
 1301              		.loc 1 166 0
 1302 01d4 13B1     		cbz	r3, .L80
 1303 01d6 0221     		movs	r1, #2
 1304 01d8 2046     		mov	r0, r4
 1305 01da 9847     		blx	r3
 1306              	.LVL105:
 1307              	.L80:
 1308              		.loc 1 169 0
 1309 01dc 0023     		movs	r3, #0
 1310 01de C4E90E33 		strd	r3, r3, [r4, #56]
 1311 01e2 2364     		str	r3, [r4, #64]
ARM GAS  /tmp/cctvB5GQ.s 			page 24


 1312              	.LVL106:
 1313 01e4 94F84400 		ldrb	r0, [r4, #68]	@ zero_extendqisi2
 1314 01e8 88E7     		b	.L73
 1315              	.LVL107:
 1316              	.L64:
 1317              		.loc 1 107 0
 1318 01ea 94F84630 		ldrb	r3, [r4, #70]	@ zero_extendqisi2
 1319 01ee 012B     		cmp	r3, #1
 1320 01f0 7FF449AF 		bne	.L71
 1321              		.loc 1 108 0
 1322 01f4 B4F84C30 		ldrh	r3, [r4, #76]
 1323              		.loc 1 109 0
 1324 01f8 A563     		str	r5, [r4, #56]
 1325              		.loc 1 108 0
 1326 01fa 43F00203 		orr	r3, r3, #2
 1327              		.loc 1 109 0
 1328 01fe C4E90F55 		strd	r5, r5, [r4, #60]
 1329              	.LVL108:
 1330              		.loc 1 108 0
 1331 0202 A4F84C30 		strh	r3, [r4, #76]	@ movhi
 1332 0206 79E7     		b	.L73
 1333              	.LVL109:
 1334              	.L148:
 1335              		.loc 1 88 0
 1336 0208 B2F5C06F 		cmp	r2, #1536
 1337 020c 5BD2     		bcs	.L67
 1338 020e B2F5A06F 		cmp	r2, #1280
 1339 0212 7FF438AF 		bne	.L71
 1340              		.loc 1 118 0
 1341 0216 B4F84430 		ldrh	r3, [r4, #68]
 1342 021a B3F5A06F 		cmp	r3, #1280
 1343 021e 71D0     		beq	.L150
 1344              	.L87:
 1345              		.loc 1 245 0
 1346 0220 0023     		movs	r3, #0
 1347 0222 C4E90E33 		strd	r3, r3, [r4, #56]
 1348 0226 2364     		str	r3, [r4, #64]
 1349              	.LVL110:
 1350 0228 68E7     		b	.L73
 1351              	.LVL111:
 1352              	.L147:
 1353              		.loc 1 88 0
 1354 022a CAB9     		cbnz	r2, .L151
 1355              		.loc 1 93 0
 1356 022c 04F14C00 		add	r0, r4, #76
 1357 0230 0221     		movs	r1, #2
 1358 0232 2264     		str	r2, [r4, #64]
 1359              	.LVL112:
 1360 0234 C4E90E01 		strd	r0, r1, [r4, #56]
 1361 0238 F8E6     		b	.L72
 1362              	.LVL113:
 1363              	.L63:
 1364              		.loc 1 217 0
 1365 023a 94F84630 		ldrb	r3, [r4, #70]	@ zero_extendqisi2
 1366 023e 002B     		cmp	r3, #0
 1367 0240 7FF421AF 		bne	.L71
 1368              		.loc 1 221 0
ARM GAS  /tmp/cctvB5GQ.s 			page 25


 1369 0244 94F84830 		ldrb	r3, [r4, #72]	@ zero_extendqisi2
 1370 0248 13F00F01 		ands	r1, r3, #15
 1371 024c E8D0     		beq	.L87
 1372              		.loc 1 222 0
 1373 024e 1E06     		lsls	r6, r3, #24
 1374              		.loc 1 223 0
 1375 0250 2046     		mov	r0, r4
 1376              		.loc 1 222 0
 1377 0252 00F18880 		bmi	.L152
 1378              	.LVL114:
 1379              		.loc 1 226 0
 1380 0256 FFF7FEFF 		bl	usb_lld_clear_out
 1381              	.LVL115:
 1382 025a 94F84400 		ldrb	r0, [r4, #68]	@ zero_extendqisi2
 1383 025e DFE7     		b	.L87
 1384              	.L151:
 1385              		.loc 1 88 0
 1386 0260 012A     		cmp	r2, #1
 1387 0262 7FF410AF 		bne	.L71
 1388              	.L62:
 1389              		.loc 1 176 0
 1390 0266 454A     		ldr	r2, .L155
 1391 0268 A263     		str	r2, [r4, #56]
 1392 026a 0221     		movs	r1, #2
 1393 026c 0022     		movs	r2, #0
 1394 026e C4E90F12 		strd	r1, r2, [r4, #60]
 1395              	.LVL116:
 1396 0272 DBE6     		b	.L72
 1397              	.LVL117:
 1398              	.L59:
 1399              		.loc 1 181 0
 1400 0274 94F84830 		ldrb	r3, [r4, #72]	@ zero_extendqisi2
 1401 0278 03F00F01 		and	r1, r3, #15
 1402 027c 1B06     		lsls	r3, r3, #24
 1403              		.loc 1 182 0
 1404 027e 2046     		mov	r0, r4
 1405              		.loc 1 181 0
 1406 0280 3AD4     		bmi	.L153
 1407              	.LVL118:
 1408              		.loc 1 199 0
 1409 0282 FFF7FEFF 		bl	usb_lld_get_status_out
 1410              	.LVL119:
 1411 0286 0128     		cmp	r0, #1
 1412 0288 3AD0     		beq	.L83
 1413              	.L143:
 1414 028a 0228     		cmp	r0, #2
 1415 028c 7FF4FBAE 		bne	.L71
 1416              		.loc 1 190 0
 1417 0290 3B4B     		ldr	r3, .L155+4
 1418              	.L144:
 1419 0292 A363     		str	r3, [r4, #56]
 1420 0294 0221     		movs	r1, #2
 1421 0296 0023     		movs	r3, #0
 1422 0298 C4E90F13 		strd	r1, r3, [r4, #60]
 1423              	.LVL120:
 1424 029c 94F84430 		ldrb	r3, [r4, #68]	@ zero_extendqisi2
 1425 02a0 C4E6     		b	.L72
ARM GAS  /tmp/cctvB5GQ.s 			page 26


 1426              	.LVL121:
 1427              	.L57:
 1428              		.loc 1 233 0
 1429 02a2 94F84630 		ldrb	r3, [r4, #70]	@ zero_extendqisi2
 1430 02a6 002B     		cmp	r3, #0
 1431 02a8 7FF4EDAE 		bne	.L71
 1432              		.loc 1 237 0
 1433 02ac 94F84830 		ldrb	r3, [r4, #72]	@ zero_extendqisi2
 1434 02b0 13F00F01 		ands	r1, r3, #15
 1435 02b4 B4D0     		beq	.L87
 1436              		.loc 1 238 0
 1437 02b6 1D06     		lsls	r5, r3, #24
 1438              		.loc 1 239 0
 1439 02b8 2046     		mov	r0, r4
 1440              		.loc 1 238 0
 1441 02ba 59D4     		bmi	.L154
 1442              	.LVL122:
 1443              		.loc 1 242 0
 1444 02bc FFF7FEFF 		bl	usb_lld_stall_out
 1445              	.LVL123:
 1446 02c0 94F84400 		ldrb	r0, [r4, #68]	@ zero_extendqisi2
 1447 02c4 ACE7     		b	.L87
 1448              	.L67:
 1449              	.LBB340:
 1450              	.LBB341:
 1451              		.loc 1 55 0
 1452 02c6 94F84900 		ldrb	r0, [r4, #73]	@ zero_extendqisi2
 1453              	.LBE341:
 1454              	.LBE340:
 1455              		.loc 1 130 0
 1456 02ca 6168     		ldr	r1, [r4, #4]
 1457              	.LBB343:
 1458              	.LBB342:
 1459              		.loc 1 55 0
 1460 02cc 94F84830 		ldrb	r3, [r4, #72]	@ zero_extendqisi2
 1461              	.LBE342:
 1462              	.LBE343:
 1463              		.loc 1 130 0
 1464 02d0 4E68     		ldr	r6, [r1, #4]
 1465 02d2 94F84620 		ldrb	r2, [r4, #70]	@ zero_extendqisi2
 1466 02d6 94F84710 		ldrb	r1, [r4, #71]	@ zero_extendqisi2
 1467 02da 43EA0023 		orr	r3, r3, r0, lsl #8
 1468 02de 2046     		mov	r0, r4
 1469 02e0 B047     		blx	r6
 1470              	.LVL124:
 1471              		.loc 1 133 0
 1472 02e2 0028     		cmp	r0, #0
 1473 02e4 3FF4CFAE 		beq	.L71
 1474              		.loc 1 137 0
 1475 02e8 D0E90013 		ldrd	r1, r3, [r0]
 1476 02ec 2564     		str	r5, [r4, #64]
 1477              	.LVL125:
 1478 02ee C4E90E31 		strd	r3, r1, [r4, #56]
 1479 02f2 94F84430 		ldrb	r3, [r4, #68]	@ zero_extendqisi2
 1480 02f6 99E6     		b	.L72
 1481              	.LVL126:
 1482              	.L153:
ARM GAS  /tmp/cctvB5GQ.s 			page 27


 1483              		.loc 1 182 0
 1484 02f8 FFF7FEFF 		bl	usb_lld_get_status_in
 1485              	.LVL127:
 1486 02fc 0128     		cmp	r0, #1
 1487 02fe C4D1     		bne	.L143
 1488              	.L83:
 1489              		.loc 1 185 0
 1490 0300 204B     		ldr	r3, .L155+8
 1491 0302 C6E7     		b	.L144
 1492              	.L150:
 1493              	.LVL128:
 1494              	.LBB344:
 1495              	.LBB345:
 1496              		.loc 1 66 0
 1497 0304 94F84630 		ldrb	r3, [r4, #70]	@ zero_extendqisi2
 1498 0308 84F84E30 		strb	r3, [r4, #78]
 1499              		.loc 1 67 0
 1500 030c 2046     		mov	r0, r4
 1501 030e FFF7FEFF 		bl	usb_lld_set_address
 1502              	.LVL129:
 1503              		.loc 1 68 0
 1504 0312 6368     		ldr	r3, [r4, #4]
 1505 0314 1B68     		ldr	r3, [r3]
 1506 0316 13B1     		cbz	r3, .L75
 1507 0318 0121     		movs	r1, #1
 1508 031a 2046     		mov	r0, r4
 1509 031c 9847     		blx	r3
 1510              	.LVL130:
 1511              	.L75:
 1512              		.loc 1 69 0
 1513 031e 0323     		movs	r3, #3
 1514 0320 94F84400 		ldrb	r0, [r4, #68]	@ zero_extendqisi2
 1515 0324 2370     		strb	r3, [r4]
 1516 0326 7BE7     		b	.L87
 1517              	.LVL131:
 1518              	.L149:
 1519              	.LBE345:
 1520              	.LBE344:
 1521              	.LBB346:
 1522              	.LBB347:
 1523              	.LBB348:
 1524              	.LBB349:
 1525              	.LBB350:
 1526              	.LBB351:
 1527              		.loc 2 493 0
 1528 0328 2023     		movs	r3, #32
 1529              		.syntax unified
 1530              	@ 493 "./RM18A-ChibiOS18-Core/chibios/os/common/ext/ARM/CMSIS/Core/Include/cmsis_gcc.h" 1
 1531 032a 83F31188 		MSR basepri, r3
 1532              	@ 0 "" 2
 1533              	.LVL132:
 1534              		.thumb
 1535              		.syntax unified
 1536              	.LBE351:
 1537              	.LBE350:
 1538              	.LBE349:
 1539              	.LBE348:
ARM GAS  /tmp/cctvB5GQ.s 			page 28


 1540              	.LBE347:
 1541              	.LBE346:
 1542              	.LBB352:
 1543              	.LBB353:
 1544              		.loc 1 417 0
 1545 032e 2289     		ldrh	r2, [r4, #8]
 1546              		.loc 1 418 0
 1547 0330 6389     		ldrh	r3, [r4, #10]
 1548              		.loc 1 432 0
 1549 0332 2561     		str	r5, [r4, #16]
 1550              		.loc 1 417 0
 1551 0334 02F00102 		and	r2, r2, #1
 1552              		.loc 1 418 0
 1553 0338 03F00103 		and	r3, r3, #1
 1554              		.loc 1 432 0
 1555 033c C4E90555 		strd	r5, r5, [r4, #20]
 1556              		.loc 1 417 0
 1557 0340 2281     		strh	r2, [r4, #8]	@ movhi
 1558              		.loc 1 418 0
 1559 0342 6381     		strh	r3, [r4, #10]	@ movhi
 1560              	.LVL133:
 1561              		.loc 1 436 0
 1562 0344 2046     		mov	r0, r4
 1563 0346 FFF7FEFF 		bl	usb_lld_disable_endpoints
 1564              	.LVL134:
 1565              	.LBE353:
 1566              	.LBE352:
 1567              	.LBB354:
 1568              	.LBB355:
 1569              	.LBB356:
 1570              	.LBB357:
 1571              	.LBB358:
 1572              	.LBB359:
 1573              		.loc 2 493 0
 1574              		.syntax unified
 1575              	@ 493 "./RM18A-ChibiOS18-Core/chibios/os/common/ext/ARM/CMSIS/Core/Include/cmsis_gcc.h" 1
 1576 034a 85F31188 		MSR basepri, r5
 1577              	@ 0 "" 2
 1578              	.LVL135:
 1579              		.thumb
 1580              		.syntax unified
 1581              	.LBE359:
 1582              	.LBE358:
 1583              	.LBE357:
 1584              	.LBE356:
 1585              	.LBE355:
 1586              	.LBE354:
 1587              		.loc 1 160 0
 1588 034e 6368     		ldr	r3, [r4, #4]
 1589              		.loc 1 158 0
 1590 0350 84F84F50 		strb	r5, [r4, #79]
 1591              		.loc 1 160 0
 1592 0354 1B68     		ldr	r3, [r3]
 1593              		.loc 1 159 0
 1594 0356 0321     		movs	r1, #3
 1595 0358 2170     		strb	r1, [r4]
 1596              		.loc 1 160 0
ARM GAS  /tmp/cctvB5GQ.s 			page 29


 1597 035a 002B     		cmp	r3, #0
 1598 035c 3FF431AF 		beq	.L77
 1599 0360 2046     		mov	r0, r4
 1600 0362 9847     		blx	r3
 1601              	.LVL136:
 1602 0364 2DE7     		b	.L77
 1603              	.LVL137:
 1604              	.L152:
 1605              		.loc 1 223 0
 1606 0366 FFF7FEFF 		bl	usb_lld_clear_in
 1607              	.LVL138:
 1608 036a 94F84400 		ldrb	r0, [r4, #68]	@ zero_extendqisi2
 1609 036e 57E7     		b	.L87
 1610              	.LVL139:
 1611              	.L154:
 1612              		.loc 1 239 0
 1613 0370 FFF7FEFF 		bl	usb_lld_stall_in
 1614              	.LVL140:
 1615 0374 94F84400 		ldrb	r0, [r4, #68]	@ zero_extendqisi2
 1616 0378 52E7     		b	.L87
 1617              	.L156:
 1618 037a 00BF     		.align	2
 1619              	.L155:
 1620 037c 00000000 		.word	.LANCHOR0
 1621 0380 00000000 		.word	.LANCHOR2
 1622 0384 00000000 		.word	.LANCHOR1
 1623              	.LBE361:
 1624              	.LBE407:
 1625              		.cfi_endproc
 1626              	.LFE344:
 1627              		.size	_usb_ep0setup, .-_usb_ep0setup
 1628              		.section	.text._usb_ep0in,"ax",%progbits
 1629              		.align	1
 1630              		.p2align 2,,3
 1631              		.global	_usb_ep0in
 1632              		.syntax unified
 1633              		.thumb
 1634              		.thumb_func
 1635              		.fpu fpv4-sp-d16
 1636              		.type	_usb_ep0in, %function
 1637              	_usb_ep0in:
 1638              	.LFB345:
 1639              		.loc 1 880 0
 1640              		.cfi_startproc
 1641              		@ args = 0, pretend = 0, frame = 0
 1642              		@ frame_needed = 0, uses_anonymous_args = 0
 1643              	.LVL141:
 1644 0000 38B5     		push	{r3, r4, r5, lr}
 1645              		.cfi_def_cfa_offset 16
 1646              		.cfi_offset 3, -16
 1647              		.cfi_offset 4, -12
 1648              		.cfi_offset 5, -8
 1649              		.cfi_offset 14, -4
 1650              		.loc 1 884 0
 1651 0002 90F83430 		ldrb	r3, [r0, #52]	@ zero_extendqisi2
 1652              		.loc 1 880 0
 1653 0006 0446     		mov	r4, r0
ARM GAS  /tmp/cctvB5GQ.s 			page 30


 1654              		.loc 1 884 0
 1655 0008 152B     		cmp	r3, #21
 1656 000a 1CD8     		bhi	.L157
 1657 000c DFE803F0 		tbb	[pc, r3]
 1658              	.L160:
 1659 0010 0B       		.byte	(.L159-.L160)/2
 1660 0011 1B       		.byte	(.L157-.L160)/2
 1661 0012 1B       		.byte	(.L157-.L160)/2
 1662 0013 1B       		.byte	(.L157-.L160)/2
 1663 0014 1B       		.byte	(.L157-.L160)/2
 1664 0015 1B       		.byte	(.L157-.L160)/2
 1665 0016 0B       		.byte	(.L159-.L160)/2
 1666 0017 1B       		.byte	(.L157-.L160)/2
 1667 0018 1B       		.byte	(.L157-.L160)/2
 1668 0019 1C       		.byte	(.L161-.L160)/2
 1669 001a 2C       		.byte	(.L162-.L160)/2
 1670 001b 43       		.byte	(.L163-.L160)/2
 1671 001c 1B       		.byte	(.L157-.L160)/2
 1672 001d 1B       		.byte	(.L157-.L160)/2
 1673 001e 1B       		.byte	(.L157-.L160)/2
 1674 001f 1B       		.byte	(.L157-.L160)/2
 1675 0020 1B       		.byte	(.L157-.L160)/2
 1676 0021 1B       		.byte	(.L157-.L160)/2
 1677 0022 1B       		.byte	(.L157-.L160)/2
 1678 0023 1B       		.byte	(.L157-.L160)/2
 1679 0024 0B       		.byte	(.L159-.L160)/2
 1680 0025 0B       		.byte	(.L159-.L160)/2
 1681              		.p2align 1
 1682              	.L159:
 1683              		.loc 1 927 0
 1684 0026 0021     		movs	r1, #0
 1685              	.LVL142:
 1686 0028 FFF7FEFF 		bl	usb_lld_stall_in
 1687              	.LVL143:
 1688              		.loc 1 928 0
 1689 002c 0021     		movs	r1, #0
 1690 002e 2046     		mov	r0, r4
 1691 0030 FFF7FEFF 		bl	usb_lld_stall_out
 1692              	.LVL144:
 1693              		.loc 1 929 0
 1694 0034 6368     		ldr	r3, [r4, #4]
 1695 0036 1B68     		ldr	r3, [r3]
 1696 0038 13B1     		cbz	r3, .L165
 1697              		.loc 1 929 0 is_stmt 0 discriminator 1
 1698 003a 0621     		movs	r1, #6
 1699 003c 2046     		mov	r0, r4
 1700 003e 9847     		blx	r3
 1701              	.LVL145:
 1702              	.L165:
 1703              		.loc 1 930 0 is_stmt 1
 1704 0040 0623     		movs	r3, #6
 1705 0042 84F83430 		strb	r3, [r4, #52]
 1706              	.L157:
 1707              		.loc 1 935 0
 1708 0046 38BD     		pop	{r3, r4, r5, pc}
 1709              	.LVL146:
 1710              	.L161:
ARM GAS  /tmp/cctvB5GQ.s 			page 31


 1711              	.LBB408:
 1712              	.LBB409:
 1713              		.loc 1 55 0
 1714 0048 90F84B10 		ldrb	r1, [r0, #75]	@ zero_extendqisi2
 1715              	.LVL147:
 1716 004c 90F84A30 		ldrb	r3, [r0, #74]	@ zero_extendqisi2
 1717              	.LBE409:
 1718              	.LBE408:
 1719              		.loc 1 890 0
 1720 0050 C26B     		ldr	r2, [r0, #60]
 1721              		.loc 1 886 0
 1722 0052 43EA0123 		orr	r3, r3, r1, lsl #8
 1723              		.loc 1 890 0
 1724 0056 9A42     		cmp	r2, r3
 1725 0058 06D2     		bcs	.L162
 1726              		.loc 1 891 0 discriminator 1
 1727 005a C368     		ldr	r3, [r0, #12]
 1728 005c 1B8A     		ldrh	r3, [r3, #16]
 1729 005e B2FBF3F5 		udiv	r5, r2, r3
 1730 0062 03FB1525 		mls	r5, r3, r5, r2
 1731              		.loc 1 890 0 discriminator 1
 1732 0066 EDB1     		cbz	r5, .L173
 1733              	.LVL148:
 1734              	.L162:
 1735              		.loc 1 901 0
 1736 0068 1423     		movs	r3, #20
 1737 006a 84F83430 		strb	r3, [r4, #52]
 1738              	.LVL149:
 1739              	.LBB410:
 1740              	.LBB411:
 1741              	.LBB412:
 1742              	.LBB413:
 1743              	.LBB414:
 1744              	.LBB415:
 1745              		.loc 2 493 0
 1746 006e 2023     		movs	r3, #32
 1747              		.syntax unified
 1748              	@ 493 "./RM18A-ChibiOS18-Core/chibios/os/common/ext/ARM/CMSIS/Core/Include/cmsis_gcc.h" 1
 1749 0070 83F31188 		MSR basepri, r3
 1750              	@ 0 "" 2
 1751              	.LVL150:
 1752              		.thumb
 1753              		.syntax unified
 1754              	.LBE415:
 1755              	.LBE414:
 1756              	.LBE413:
 1757              	.LBE412:
 1758              	.LBE411:
 1759              	.LBE410:
 1760              	.LBB416:
 1761              	.LBB417:
 1762              		.loc 1 466 0
 1763 0074 E368     		ldr	r3, [r4, #12]
 1764              		.loc 1 462 0
 1765 0076 6289     		ldrh	r2, [r4, #10]
 1766              		.loc 1 466 0
 1767 0078 9B69     		ldr	r3, [r3, #24]
ARM GAS  /tmp/cctvB5GQ.s 			page 32


 1768              	.LVL151:
 1769              		.loc 1 468 0
 1770 007a 0025     		movs	r5, #0
 1771              		.loc 1 462 0
 1772 007c 42F00102 		orr	r2, r2, #1
 1773 0080 6281     		strh	r2, [r4, #10]	@ movhi
 1774              		.loc 1 476 0
 1775 0082 2046     		mov	r0, r4
 1776              	.LVL152:
 1777              		.loc 1 468 0
 1778 0084 9D60     		str	r5, [r3, #8]
 1779              		.loc 1 470 0
 1780 0086 C3E90055 		strd	r5, r5, [r3]
 1781              		.loc 1 476 0
 1782 008a 2946     		mov	r1, r5
 1783 008c FFF7FEFF 		bl	usb_lld_start_out
 1784              	.LVL153:
 1785              	.LBE417:
 1786              	.LBE416:
 1787              	.LBB418:
 1788              	.LBB419:
 1789              	.LBB420:
 1790              	.LBB421:
 1791              	.LBB422:
 1792              	.LBB423:
 1793              		.loc 2 493 0
 1794              		.syntax unified
 1795              	@ 493 "./RM18A-ChibiOS18-Core/chibios/os/common/ext/ARM/CMSIS/Core/Include/cmsis_gcc.h" 1
 1796 0090 85F31188 		MSR basepri, r5
 1797              	@ 0 "" 2
 1798              	.LVL154:
 1799              		.thumb
 1800              		.syntax unified
 1801              	.LBE423:
 1802              	.LBE422:
 1803              	.LBE421:
 1804              	.LBE420:
 1805              	.LBE419:
 1806              	.LBE418:
 1807              		.loc 1 935 0
 1808 0094 38BD     		pop	{r3, r4, r5, pc}
 1809              	.LVL155:
 1810              	.L163:
 1811              		.loc 1 912 0
 1812 0096 036C     		ldr	r3, [r0, #64]
 1813 0098 03B1     		cbz	r3, .L164
 1814              		.loc 1 913 0
 1815 009a 9847     		blx	r3
 1816              	.LVL156:
 1817              	.L164:
 1818              		.loc 1 915 0
 1819 009c 0023     		movs	r3, #0
 1820 009e 84F83430 		strb	r3, [r4, #52]
 1821              		.loc 1 935 0
 1822 00a2 38BD     		pop	{r3, r4, r5, pc}
 1823              	.LVL157:
 1824              	.L173:
ARM GAS  /tmp/cctvB5GQ.s 			page 33


 1825              	.LBB424:
 1826              	.LBB425:
 1827              	.LBB426:
 1828              	.LBB427:
 1829              	.LBB428:
 1830              	.LBB429:
 1831              		.loc 2 493 0
 1832 00a4 2023     		movs	r3, #32
 1833              		.syntax unified
 1834              	@ 493 "./RM18A-ChibiOS18-Core/chibios/os/common/ext/ARM/CMSIS/Core/Include/cmsis_gcc.h" 1
 1835 00a6 83F31188 		MSR basepri, r3
 1836              	@ 0 "" 2
 1837              	.LVL158:
 1838              		.thumb
 1839              		.syntax unified
 1840              	.LBE429:
 1841              	.LBE428:
 1842              	.LBE427:
 1843              	.LBE426:
 1844              	.LBE425:
 1845              	.LBE424:
 1846              	.LBB430:
 1847              	.LBB431:
 1848              		.loc 1 505 0
 1849 00aa C368     		ldr	r3, [r0, #12]
 1850              		.loc 1 501 0
 1851 00ac 0289     		ldrh	r2, [r0, #8]
 1852              		.loc 1 505 0
 1853 00ae 5B69     		ldr	r3, [r3, #20]
 1854              	.LVL159:
 1855              		.loc 1 501 0
 1856 00b0 42F00102 		orr	r2, r2, #1
 1857 00b4 0281     		strh	r2, [r0, #8]	@ movhi
 1858              	.LVL160:
 1859              		.loc 1 515 0
 1860 00b6 2946     		mov	r1, r5
 1861              		.loc 1 507 0
 1862 00b8 9D60     		str	r5, [r3, #8]
 1863              		.loc 1 509 0
 1864 00ba C3E90055 		strd	r5, r5, [r3]
 1865              		.loc 1 515 0
 1866 00be FFF7FEFF 		bl	usb_lld_start_in
 1867              	.LVL161:
 1868              	.LBE431:
 1869              	.LBE430:
 1870              	.LBB432:
 1871              	.LBB433:
 1872              	.LBB434:
 1873              	.LBB435:
 1874              	.LBB436:
 1875              	.LBB437:
 1876              		.loc 2 493 0
 1877              		.syntax unified
 1878              	@ 493 "./RM18A-ChibiOS18-Core/chibios/os/common/ext/ARM/CMSIS/Core/Include/cmsis_gcc.h" 1
 1879 00c2 85F31188 		MSR basepri, r5
 1880              	@ 0 "" 2
 1881              	.LVL162:
ARM GAS  /tmp/cctvB5GQ.s 			page 34


 1882              		.thumb
 1883              		.syntax unified
 1884              	.LBE437:
 1885              	.LBE436:
 1886              	.LBE435:
 1887              	.LBE434:
 1888              	.LBE433:
 1889              	.LBE432:
 1890              		.loc 1 895 0
 1891 00c6 0A23     		movs	r3, #10
 1892 00c8 84F83430 		strb	r3, [r4, #52]
 1893              		.loc 1 935 0
 1894 00cc 38BD     		pop	{r3, r4, r5, pc}
 1895              		.cfi_endproc
 1896              	.LFE345:
 1897              		.size	_usb_ep0in, .-_usb_ep0in
 1898 00ce 00BF     		.section	.text._usb_ep0out,"ax",%progbits
 1899              		.align	1
 1900              		.p2align 2,,3
 1901              		.global	_usb_ep0out
 1902              		.syntax unified
 1903              		.thumb
 1904              		.thumb_func
 1905              		.fpu fpv4-sp-d16
 1906              		.type	_usb_ep0out, %function
 1907              	_usb_ep0out:
 1908              	.LFB346:
 1909              		.loc 1 947 0
 1910              		.cfi_startproc
 1911              		@ args = 0, pretend = 0, frame = 0
 1912              		@ frame_needed = 0, uses_anonymous_args = 0
 1913              	.LVL163:
 1914              		.loc 1 950 0
 1915 0000 90F83420 		ldrb	r2, [r0, #52]	@ zero_extendqisi2
 1916 0004 152A     		cmp	r2, #21
 1917 0006 15D8     		bhi	.L190
 1918              		.loc 1 947 0
 1919 0008 38B5     		push	{r3, r4, r5, lr}
 1920              		.cfi_def_cfa_offset 16
 1921              		.cfi_offset 3, -16
 1922              		.cfi_offset 4, -12
 1923              		.cfi_offset 5, -8
 1924              		.cfi_offset 14, -4
 1925 000a 0123     		movs	r3, #1
 1926 000c 9340     		lsls	r3, r3, r2
 1927 000e 40F64162 		movw	r2, #3649
 1928 0012 1342     		tst	r3, r2
 1929 0014 0446     		mov	r4, r0
 1930 0016 25D1     		bne	.L176
 1931 0018 13F48015 		ands	r5, r3, #1048576
 1932 001c 0BD0     		beq	.L193
 1933              		.loc 1 966 0
 1934 001e C368     		ldr	r3, [r0, #12]
 1935 0020 9B69     		ldr	r3, [r3, #24]
 1936 0022 5B68     		ldr	r3, [r3, #4]
 1937 0024 2BB9     		cbnz	r3, .L174
 1938              		.loc 1 970 0
ARM GAS  /tmp/cctvB5GQ.s 			page 35


 1939 0026 036C     		ldr	r3, [r0, #64]
 1940 0028 03B1     		cbz	r3, .L178
 1941              		.loc 1 971 0
 1942 002a 9847     		blx	r3
 1943              	.LVL164:
 1944              	.L178:
 1945              		.loc 1 973 0
 1946 002c 0023     		movs	r3, #0
 1947 002e 84F83430 		strb	r3, [r4, #52]
 1948              	.L174:
 1949              		.loc 1 994 0
 1950 0032 38BD     		pop	{r3, r4, r5, pc}
 1951              	.LVL165:
 1952              	.L190:
 1953              		.cfi_def_cfa_offset 0
 1954              		.cfi_restore 3
 1955              		.cfi_restore 4
 1956              		.cfi_restore 5
 1957              		.cfi_restore 14
 1958 0034 7047     		bx	lr
 1959              	.L193:
 1960              		.cfi_def_cfa_offset 16
 1961              		.cfi_offset 3, -16
 1962              		.cfi_offset 4, -12
 1963              		.cfi_offset 5, -8
 1964              		.cfi_offset 14, -4
 1965 0036 9B02     		lsls	r3, r3, #10
 1966 0038 FBD5     		bpl	.L174
 1967              		.loc 1 953 0
 1968 003a 0B23     		movs	r3, #11
 1969 003c 80F83430 		strb	r3, [r0, #52]
 1970              	.LVL166:
 1971              	.LBB438:
 1972              	.LBB439:
 1973              	.LBB440:
 1974              	.LBB441:
 1975              	.LBB442:
 1976              	.LBB443:
 1977              		.loc 2 493 0
 1978 0040 2023     		movs	r3, #32
 1979              		.syntax unified
 1980              	@ 493 "./RM18A-ChibiOS18-Core/chibios/os/common/ext/ARM/CMSIS/Core/Include/cmsis_gcc.h" 1
 1981 0042 83F31188 		MSR basepri, r3
 1982              	@ 0 "" 2
 1983              	.LVL167:
 1984              		.thumb
 1985              		.syntax unified
 1986              	.LBE443:
 1987              	.LBE442:
 1988              	.LBE441:
 1989              	.LBE440:
 1990              	.LBE439:
 1991              	.LBE438:
 1992              	.LBB444:
 1993              	.LBB445:
 1994              		.loc 1 505 0
 1995 0046 C368     		ldr	r3, [r0, #12]
ARM GAS  /tmp/cctvB5GQ.s 			page 36


 1996              		.loc 1 501 0
 1997 0048 0289     		ldrh	r2, [r0, #8]
 1998              		.loc 1 505 0
 1999 004a 5B69     		ldr	r3, [r3, #20]
 2000              	.LVL168:
 2001              		.loc 1 501 0
 2002 004c 42F00102 		orr	r2, r2, #1
 2003 0050 0281     		strh	r2, [r0, #8]	@ movhi
 2004              		.loc 1 515 0
 2005 0052 2946     		mov	r1, r5
 2006              	.LVL169:
 2007              		.loc 1 507 0
 2008 0054 9D60     		str	r5, [r3, #8]
 2009              		.loc 1 509 0
 2010 0056 C3E90055 		strd	r5, r5, [r3]
 2011              		.loc 1 515 0
 2012 005a FFF7FEFF 		bl	usb_lld_start_in
 2013              	.LVL170:
 2014              	.LBE445:
 2015              	.LBE444:
 2016              	.LBB446:
 2017              	.LBB447:
 2018              	.LBB448:
 2019              	.LBB449:
 2020              	.LBB450:
 2021              	.LBB451:
 2022              		.loc 2 493 0
 2023              		.syntax unified
 2024              	@ 493 "./RM18A-ChibiOS18-Core/chibios/os/common/ext/ARM/CMSIS/Core/Include/cmsis_gcc.h" 1
 2025 005e 85F31188 		MSR basepri, r5
 2026              	@ 0 "" 2
 2027              	.LVL171:
 2028              		.thumb
 2029              		.syntax unified
 2030              	.LBE451:
 2031              	.LBE450:
 2032              	.LBE449:
 2033              	.LBE448:
 2034              	.LBE447:
 2035              	.LBE446:
 2036              		.loc 1 994 0
 2037 0062 38BD     		pop	{r3, r4, r5, pc}
 2038              	.LVL172:
 2039              	.L176:
 2040              		.loc 1 986 0
 2041 0064 0021     		movs	r1, #0
 2042              	.LVL173:
 2043 0066 FFF7FEFF 		bl	usb_lld_stall_in
 2044              	.LVL174:
 2045              		.loc 1 987 0
 2046 006a 0021     		movs	r1, #0
 2047 006c 2046     		mov	r0, r4
 2048 006e FFF7FEFF 		bl	usb_lld_stall_out
 2049              	.LVL175:
 2050              		.loc 1 988 0
 2051 0072 6368     		ldr	r3, [r4, #4]
 2052 0074 1B68     		ldr	r3, [r3]
ARM GAS  /tmp/cctvB5GQ.s 			page 37


 2053 0076 13B1     		cbz	r3, .L179
 2054              		.loc 1 988 0 is_stmt 0 discriminator 1
 2055 0078 0621     		movs	r1, #6
 2056 007a 2046     		mov	r0, r4
 2057 007c 9847     		blx	r3
 2058              	.LVL176:
 2059              	.L179:
 2060              		.loc 1 989 0 is_stmt 1
 2061 007e 0623     		movs	r3, #6
 2062 0080 84F83430 		strb	r3, [r4, #52]
 2063              		.loc 1 994 0
 2064 0084 38BD     		pop	{r3, r4, r5, pc}
 2065              		.cfi_endproc
 2066              	.LFE346:
 2067              		.size	_usb_ep0out, .-_usb_ep0out
 2068 0086 00BF     		.section	.rodata.active_status,"a",%progbits
 2069              		.align	2
 2070              		.set	.LANCHOR2,. + 0
 2071              		.type	active_status, %object
 2072              		.size	active_status, 2
 2073              	active_status:
 2074 0000 0000     		.space	2
 2075              		.section	.rodata.halted_status,"a",%progbits
 2076              		.align	2
 2077              		.set	.LANCHOR1,. + 0
 2078              		.type	halted_status, %object
 2079              		.size	halted_status, 2
 2080              	halted_status:
 2081 0000 01       		.byte	1
 2082 0001 00       		.byte	0
 2083              		.section	.rodata.zero_status,"a",%progbits
 2084              		.align	2
 2085              		.set	.LANCHOR0,. + 0
 2086              		.type	zero_status, %object
 2087              		.size	zero_status, 2
 2088              	zero_status:
 2089 0000 0000     		.space	2
 2090              		.text
 2091              	.Letext0:
 2092              		.file 4 "/usr/lib/gcc/arm-none-eabi/7.3.1/include/stddef.h"
 2093              		.file 5 "/usr/arm-none-eabi/include/machine/_default_types.h"
 2094              		.file 6 "/usr/arm-none-eabi/include/sys/lock.h"
 2095              		.file 7 "/usr/arm-none-eabi/include/sys/_types.h"
 2096              		.file 8 "/usr/arm-none-eabi/include/sys/reent.h"
 2097              		.file 9 "/usr/arm-none-eabi/include/sys/_stdint.h"
 2098              		.file 10 "./RM18A-ChibiOS18-Core/chibios/os/common/ports/ARMCMx/compilers/GCC/chtypes.h"
 2099              		.file 11 "./RM18A-ChibiOS18-Core/chibios/os/rt/include/chsystypes.h"
 2100              		.file 12 "./RM18A-ChibiOS18-Core/chibios/os/rt/include/chschd.h"
 2101              		.file 13 "./RM18A-ChibiOS18-Core/chibios/os/rt/include/chtime.h"
 2102              		.file 14 "./RM18A-ChibiOS18-Core/chibios/os/common/ext/ARM/CMSIS/Core/Include/core_cm4.h"
 2103              		.file 15 "./RM18A-ChibiOS18-Core/chibios/os/common/ext/ST/STM32F4xx/system_stm32f4xx.h"
 2104              		.file 16 "./RM18A-ChibiOS18-Core/chibios/os/common/ext/ST/STM32F4xx/stm32f427xx.h"
 2105              		.file 17 "./RM18A-ChibiOS18-Core/chibios/os/common/ports/ARMCMx/chcore.h"
 2106              		.file 18 "./RM18A-ChibiOS18-Core/chibios/os/common/ports/ARMCMx/chcore_v7m.h"
 2107              		.file 19 "./RM18A-ChibiOS18-Core/chibios/os/hal/ports/STM32/LLD/TIMv1/stm32_tim.h"
 2108              		.file 20 "./RM18A-ChibiOS18-Core/chibios/os/rt/include/chtm.h"
 2109              		.file 21 "./RM18A-ChibiOS18-Core/chibios/os/rt/include/chsem.h"
ARM GAS  /tmp/cctvB5GQ.s 			page 38


 2110              		.file 22 "./RM18A-ChibiOS18-Core/chibios/os/rt/include/chmtx.h"
 2111              		.file 23 "./RM18A-ChibiOS18-Core/chibios/os/rt/include/chsys.h"
 2112              		.file 24 "./RM18A-ChibiOS18-Core/chibios/os/rt/include/chregistry.h"
 2113              		.file 25 "./RM18A-ChibiOS18-Core/chibios/os/rt/include/chevents.h"
 2114              		.file 26 "./RM18A-ChibiOS18-Core/chibios/os/oslib/include/chmemcore.h"
 2115              		.file 27 "./RM18A-ChibiOS18-Core/chibios/os/oslib/include/chmempools.h"
 2116              		.file 28 "./RM18A-ChibiOS18-Core/chibios/os/oslib/include/chfactory.h"
 2117              		.file 29 "./RM18A-ChibiOS18-Core/chibios/os/hal/ports/STM32/LLD/DMAv2/stm32_dma.h"
 2118              		.file 30 "./RM18A-ChibiOS18-Core/chibios/os/hal/include/hal_queues.h"
 2119              		.file 31 "./RM18A-ChibiOS18-Core/chibios/os/hal/include/hal_pal.h"
 2120              		.file 32 "./RM18A-ChibiOS18-Core/chibios/os/hal/ports/STM32/LLD/GPIOv2/hal_pal_lld.h"
 2121              		.file 33 "./RM18A-ChibiOS18-Core/chibios/os/hal/include/hal_adc.h"
 2122              		.file 34 "./RM18A-ChibiOS18-Core/chibios/os/hal/ports/STM32/LLD/ADCv2/hal_adc_lld.h"
 2123              		.file 35 "./RM18A-ChibiOS18-Core/chibios/os/hal/include/hal_can.h"
 2124              		.file 36 "./RM18A-ChibiOS18-Core/chibios/os/hal/ports/STM32/LLD/CANv1/hal_can_lld.h"
 2125              		.file 37 "./RM18A-ChibiOS18-Core/chibios/os/hal/include/hal_i2c.h"
 2126              		.file 38 "./RM18A-ChibiOS18-Core/chibios/os/hal/lib/fallback/I2C/hal_i2c_lld.h"
 2127              		.file 39 "./RM18A-ChibiOS18-Core/chibios/os/hal/include/hal_icu.h"
 2128              		.file 40 "./RM18A-ChibiOS18-Core/chibios/os/hal/ports/STM32/LLD/TIMv1/hal_icu_lld.h"
 2129              		.file 41 "./RM18A-ChibiOS18-Core/chibios/os/hal/include/hal_pwm.h"
 2130              		.file 42 "./RM18A-ChibiOS18-Core/chibios/os/hal/ports/STM32/LLD/TIMv1/hal_pwm_lld.h"
 2131              		.file 43 "./RM18A-ChibiOS18-Core/chibios/os/hal/include/hal_serial.h"
 2132              		.file 44 "./RM18A-ChibiOS18-Core/chibios/os/hal/ports/STM32/LLD/USARTv1/hal_serial_lld.h"
 2133              		.file 45 "./RM18A-ChibiOS18-Core/chibios/os/hal/include/hal_spi.h"
 2134              		.file 46 "./RM18A-ChibiOS18-Core/chibios/os/hal/ports/STM32/LLD/SPIv1/hal_spi_lld.h"
 2135              		.file 47 "./RM18A-ChibiOS18-Core/chibios/os/hal/include/hal_uart.h"
 2136              		.file 48 "./RM18A-ChibiOS18-Core/chibios/os/hal/ports/STM32/LLD/USARTv1/hal_uart_lld.h"
 2137              		.file 49 "./RM18A-ChibiOS18-Core/chibios/os/hal/include/hal_usb.h"
 2138              		.file 50 "./RM18A-ChibiOS18-Core/chibios/os/hal/ports/STM32/LLD/OTGv1/hal_usb_lld.h"
 2139              		.file 51 "./RM18A-ChibiOS18-Core/chibios/os/hal/ports/STM32/LLD/OTGv1/stm32_otg.h"
 2140              		.file 52 "./RM18A-ChibiOS18-Core/chibios/os/rt/include/chthreads.h"