ARM GAS  /tmp/ccCmF2SF.s 			page 1


   1              		.cpu cortex-m4
   2              		.eabi_attribute 27, 1
   3              		.eabi_attribute 28, 1
   4              		.eabi_attribute 20, 1
   5              		.eabi_attribute 21, 1
   6              		.eabi_attribute 23, 3
   7              		.eabi_attribute 24, 1
   8              		.eabi_attribute 25, 1
   9              		.eabi_attribute 26, 1
  10              		.eabi_attribute 30, 2
  11              		.eabi_attribute 34, 1
  12              		.eabi_attribute 18, 4
  13              		.file	"hal_i2c.c"
  14              		.text
  15              	.Ltext0:
  16              		.cfi_sections	.debug_frame
  17              		.section	.text.i2cInit,"ax",%progbits
  18              		.align	1
  19              		.p2align 2,,3
  20              		.global	i2cInit
  21              		.syntax unified
  22              		.thumb
  23              		.thumb_func
  24              		.fpu fpv4-sp-d16
  25              		.type	i2cInit, %function
  26              	i2cInit:
  27              	.LFB327:
  28              		.file 1 "./RM18A-ChibiOS18-Core/chibios/os/hal/src/hal_i2c.c"
  29              		.loc 1 59 0
  30              		.cfi_startproc
  31              		@ args = 0, pretend = 0, frame = 0
  32              		@ frame_needed = 0, uses_anonymous_args = 0
  33              		@ link register save eliminated.
  34              		.loc 1 61 0
  35 0000 FFF7FEBF 		b	i2c_lld_init
  36              	.LVL0:
  37              		.cfi_endproc
  38              	.LFE327:
  39              		.size	i2cInit, .-i2cInit
  40              		.section	.text.i2cObjectInit,"ax",%progbits
  41              		.align	1
  42              		.p2align 2,,3
  43              		.global	i2cObjectInit
  44              		.syntax unified
  45              		.thumb
  46              		.thumb_func
  47              		.fpu fpv4-sp-d16
  48              		.type	i2cObjectInit, %function
  49              	i2cObjectInit:
  50              	.LFB328:
  51              		.loc 1 71 0
  52              		.cfi_startproc
  53              		@ args = 0, pretend = 0, frame = 0
  54              		@ frame_needed = 0, uses_anonymous_args = 0
  55              		@ link register save eliminated.
  56              	.LVL1:
  57              		.loc 1 73 0
ARM GAS  /tmp/ccCmF2SF.s 			page 2


  58 0000 0122     		movs	r2, #1
  59              		.loc 1 74 0
  60 0002 0023     		movs	r3, #0
  61              		.loc 1 73 0
  62 0004 0270     		strb	r2, [r0]
  63              		.loc 1 74 0
  64 0006 4360     		str	r3, [r0, #4]
  65              	.LVL2:
  66              	.LBB82:
  67              	.LBB83:
  68              		.file 2 "./RM18A-ChibiOS18-Core/chibios/os/hal/osal/rt/osal.h"
  69              		.loc 2 974 0
  70 0008 0C30     		adds	r0, r0, #12
  71              	.LVL3:
  72 000a FFF7FEBF 		b	chMtxObjectInit
  73              	.LVL4:
  74              	.LBE83:
  75              	.LBE82:
  76              		.cfi_endproc
  77              	.LFE328:
  78              		.size	i2cObjectInit, .-i2cObjectInit
  79 000e 00BF     		.section	.text.i2cStart,"ax",%progbits
  80              		.align	1
  81              		.p2align 2,,3
  82              		.global	i2cStart
  83              		.syntax unified
  84              		.thumb
  85              		.thumb_func
  86              		.fpu fpv4-sp-d16
  87              		.type	i2cStart, %function
  88              	i2cStart:
  89              	.LFB329:
  90              		.loc 1 93 0
  91              		.cfi_startproc
  92              		@ args = 0, pretend = 0, frame = 0
  93              		@ frame_needed = 0, uses_anonymous_args = 0
  94              	.LVL5:
  95 0000 10B5     		push	{r4, lr}
  96              		.cfi_def_cfa_offset 8
  97              		.cfi_offset 4, -8
  98              		.cfi_offset 14, -4
  99              	.LBB84:
 100              	.LBB85:
 101              	.LBB86:
 102              	.LBB87:
 103              	.LBB88:
 104              		.file 3 "./RM18A-ChibiOS18-Core/chibios/os/common/ext/ARM/CMSIS/Core/Include/cmsis_gcc.h"
 105              		.loc 3 493 0
 106 0002 2023     		movs	r3, #32
 107              	.LBE88:
 108              	.LBE87:
 109              	.LBE86:
 110              	.LBE85:
 111              	.LBE84:
 112              		.loc 1 93 0
 113 0004 0446     		mov	r4, r0
 114              	.LBB93:
ARM GAS  /tmp/ccCmF2SF.s 			page 3


 115              	.LBB92:
 116              	.LBB91:
 117              	.LBB90:
 118              	.LBB89:
 119              		.loc 3 493 0
 120              		.syntax unified
 121              	@ 493 "./RM18A-ChibiOS18-Core/chibios/os/common/ext/ARM/CMSIS/Core/Include/cmsis_gcc.h" 1
 122 0006 83F31188 		MSR basepri, r3
 123              	@ 0 "" 2
 124              	.LVL6:
 125              		.thumb
 126              		.syntax unified
 127              	.LBE89:
 128              	.LBE90:
 129              	.LBE91:
 130              	.LBE92:
 131              	.LBE93:
 132              		.loc 1 100 0
 133 000a 4160     		str	r1, [r0, #4]
 134              		.loc 1 101 0
 135 000c FFF7FEFF 		bl	i2c_lld_start
 136              	.LVL7:
 137              		.loc 1 102 0
 138 0010 0223     		movs	r3, #2
 139 0012 2370     		strb	r3, [r4]
 140              	.LVL8:
 141              	.LBB94:
 142              	.LBB95:
 143              	.LBB96:
 144              	.LBB97:
 145              	.LBB98:
 146              	.LBB99:
 147              		.loc 3 493 0
 148 0014 0023     		movs	r3, #0
 149              		.syntax unified
 150              	@ 493 "./RM18A-ChibiOS18-Core/chibios/os/common/ext/ARM/CMSIS/Core/Include/cmsis_gcc.h" 1
 151 0016 83F31188 		MSR basepri, r3
 152              	@ 0 "" 2
 153              	.LVL9:
 154              		.thumb
 155              		.syntax unified
 156              	.LBE99:
 157              	.LBE98:
 158              	.LBE97:
 159              	.LBE96:
 160              	.LBE95:
 161              	.LBE94:
 162              		.loc 1 104 0
 163 001a 10BD     		pop	{r4, pc}
 164              		.cfi_endproc
 165              	.LFE329:
 166              		.size	i2cStart, .-i2cStart
 167              		.section	.text.i2cStop,"ax",%progbits
 168              		.align	1
 169              		.p2align 2,,3
 170              		.global	i2cStop
 171              		.syntax unified
ARM GAS  /tmp/ccCmF2SF.s 			page 4


 172              		.thumb
 173              		.thumb_func
 174              		.fpu fpv4-sp-d16
 175              		.type	i2cStop, %function
 176              	i2cStop:
 177              	.LFB330:
 178              		.loc 1 113 0
 179              		.cfi_startproc
 180              		@ args = 0, pretend = 0, frame = 0
 181              		@ frame_needed = 0, uses_anonymous_args = 0
 182              	.LVL10:
 183 0000 10B5     		push	{r4, lr}
 184              		.cfi_def_cfa_offset 8
 185              		.cfi_offset 4, -8
 186              		.cfi_offset 14, -4
 187              	.LBB100:
 188              	.LBB101:
 189              	.LBB102:
 190              	.LBB103:
 191              	.LBB104:
 192              		.loc 3 493 0
 193 0002 2023     		movs	r3, #32
 194              	.LBE104:
 195              	.LBE103:
 196              	.LBE102:
 197              	.LBE101:
 198              	.LBE100:
 199              		.loc 1 113 0
 200 0004 0446     		mov	r4, r0
 201              	.LBB109:
 202              	.LBB108:
 203              	.LBB107:
 204              	.LBB106:
 205              	.LBB105:
 206              		.loc 3 493 0
 207              		.syntax unified
 208              	@ 493 "./RM18A-ChibiOS18-Core/chibios/os/common/ext/ARM/CMSIS/Core/Include/cmsis_gcc.h" 1
 209 0006 83F31188 		MSR basepri, r3
 210              	@ 0 "" 2
 211              	.LVL11:
 212              		.thumb
 213              		.syntax unified
 214              	.LBE105:
 215              	.LBE106:
 216              	.LBE107:
 217              	.LBE108:
 218              	.LBE109:
 219              		.loc 1 122 0
 220 000a FFF7FEFF 		bl	i2c_lld_stop
 221              	.LVL12:
 222              		.loc 1 124 0
 223 000e 0122     		movs	r2, #1
 224              		.loc 1 123 0
 225 0010 0023     		movs	r3, #0
 226              		.loc 1 124 0
 227 0012 2270     		strb	r2, [r4]
 228              	.LVL13:
ARM GAS  /tmp/ccCmF2SF.s 			page 5


 229              		.loc 1 123 0
 230 0014 6360     		str	r3, [r4, #4]
 231              	.LBB110:
 232              	.LBB111:
 233              	.LBB112:
 234              	.LBB113:
 235              	.LBB114:
 236              	.LBB115:
 237              		.loc 3 493 0
 238              		.syntax unified
 239              	@ 493 "./RM18A-ChibiOS18-Core/chibios/os/common/ext/ARM/CMSIS/Core/Include/cmsis_gcc.h" 1
 240 0016 83F31188 		MSR basepri, r3
 241              	@ 0 "" 2
 242              	.LVL14:
 243              		.thumb
 244              		.syntax unified
 245              	.LBE115:
 246              	.LBE114:
 247              	.LBE113:
 248              	.LBE112:
 249              	.LBE111:
 250              	.LBE110:
 251              		.loc 1 127 0
 252 001a 10BD     		pop	{r4, pc}
 253              		.cfi_endproc
 254              	.LFE330:
 255              		.size	i2cStop, .-i2cStop
 256              		.section	.text.i2cGetErrors,"ax",%progbits
 257              		.align	1
 258              		.p2align 2,,3
 259              		.global	i2cGetErrors
 260              		.syntax unified
 261              		.thumb
 262              		.thumb_func
 263              		.fpu fpv4-sp-d16
 264              		.type	i2cGetErrors, %function
 265              	i2cGetErrors:
 266              	.LFB331:
 267              		.loc 1 137 0
 268              		.cfi_startproc
 269              		@ args = 0, pretend = 0, frame = 0
 270              		@ frame_needed = 0, uses_anonymous_args = 0
 271              		@ link register save eliminated.
 272              	.LVL15:
 273              		.loc 1 142 0
 274 0000 8068     		ldr	r0, [r0, #8]
 275              	.LVL16:
 276 0002 7047     		bx	lr
 277              		.cfi_endproc
 278              	.LFE331:
 279              		.size	i2cGetErrors, .-i2cGetErrors
 280              		.section	.text.i2cMasterTransmitTimeout,"ax",%progbits
 281              		.align	1
 282              		.p2align 2,,3
 283              		.global	i2cMasterTransmitTimeout
 284              		.syntax unified
 285              		.thumb
ARM GAS  /tmp/ccCmF2SF.s 			page 6


 286              		.thumb_func
 287              		.fpu fpv4-sp-d16
 288              		.type	i2cMasterTransmitTimeout, %function
 289              	i2cMasterTransmitTimeout:
 290              	.LFB332:
 291              		.loc 1 176 0
 292              		.cfi_startproc
 293              		@ args = 12, pretend = 0, frame = 0
 294              		@ frame_needed = 0, uses_anonymous_args = 0
 295              	.LVL17:
 296 0000 F0B5     		push	{r4, r5, r6, r7, lr}
 297              		.cfi_def_cfa_offset 20
 298              		.cfi_offset 4, -20
 299              		.cfi_offset 5, -16
 300              		.cfi_offset 6, -12
 301              		.cfi_offset 7, -8
 302              		.cfi_offset 14, -4
 303 0002 85B0     		sub	sp, sp, #20
 304              		.cfi_def_cfa_offset 40
 305              		.loc 1 176 0
 306 0004 0446     		mov	r4, r0
 307 0006 DDE90B67 		ldrd	r6, r7, [sp, #44]
 308              	.LBB116:
 309              	.LBB117:
 310              	.LBB118:
 311              	.LBB119:
 312              	.LBB120:
 313              		.loc 3 493 0
 314 000a 4FF0200C 		mov	ip, #32
 315              		.syntax unified
 316              	@ 493 "./RM18A-ChibiOS18-Core/chibios/os/common/ext/ARM/CMSIS/Core/Include/cmsis_gcc.h" 1
 317 000e 8CF31188 		MSR basepri, ip
 318              	@ 0 "" 2
 319              	.LVL18:
 320              		.thumb
 321              		.syntax unified
 322              	.LBE120:
 323              	.LBE119:
 324              	.LBE118:
 325              	.LBE117:
 326              	.LBE116:
 327              		.loc 1 188 0
 328 0012 4FF0030C 		mov	ip, #3
 329              		.loc 1 189 0
 330 0016 CDE90167 		strd	r6, r7, [sp, #4]
 331              		.loc 1 187 0
 332 001a 0025     		movs	r5, #0
 333              		.loc 1 189 0
 334 001c 0A9E     		ldr	r6, [sp, #40]
 335 001e 0096     		str	r6, [sp]
 336              		.loc 1 188 0
 337 0020 80F800C0 		strb	ip, [r0]
 338              		.loc 1 187 0
 339 0024 8560     		str	r5, [r0, #8]
 340              		.loc 1 189 0
 341 0026 FFF7FEFF 		bl	i2c_lld_master_transmit_timeout
 342              	.LVL19:
ARM GAS  /tmp/ccCmF2SF.s 			page 7


 343              		.loc 1 191 0
 344 002a 431C     		adds	r3, r0, #1
 345              		.loc 1 192 0
 346 002c 14BF     		ite	ne
 347 002e 0223     		movne	r3, #2
 348 0030 0523     		moveq	r3, #5
 349 0032 2370     		strb	r3, [r4]
 350              	.LVL20:
 351              	.LBB121:
 352              	.LBB122:
 353              	.LBB123:
 354              	.LBB124:
 355              	.LBB125:
 356              	.LBB126:
 357              		.loc 3 493 0
 358              		.syntax unified
 359              	@ 493 "./RM18A-ChibiOS18-Core/chibios/os/common/ext/ARM/CMSIS/Core/Include/cmsis_gcc.h" 1
 360 0034 85F31188 		MSR basepri, r5
 361              	@ 0 "" 2
 362              	.LVL21:
 363              		.thumb
 364              		.syntax unified
 365              	.LBE126:
 366              	.LBE125:
 367              	.LBE124:
 368              	.LBE123:
 369              	.LBE122:
 370              	.LBE121:
 371              		.loc 1 199 0
 372 0038 05B0     		add	sp, sp, #20
 373              		.cfi_def_cfa_offset 20
 374              		@ sp needed
 375 003a F0BD     		pop	{r4, r5, r6, r7, pc}
 376              		.cfi_endproc
 377              	.LFE332:
 378              		.size	i2cMasterTransmitTimeout, .-i2cMasterTransmitTimeout
 379              		.section	.text.i2cMasterReceiveTimeout,"ax",%progbits
 380              		.align	1
 381              		.p2align 2,,3
 382              		.global	i2cMasterReceiveTimeout
 383              		.syntax unified
 384              		.thumb
 385              		.thumb_func
 386              		.fpu fpv4-sp-d16
 387              		.type	i2cMasterReceiveTimeout, %function
 388              	i2cMasterReceiveTimeout:
 389              	.LFB333:
 390              		.loc 1 225 0
 391              		.cfi_startproc
 392              		@ args = 4, pretend = 0, frame = 0
 393              		@ frame_needed = 0, uses_anonymous_args = 0
 394              	.LVL22:
 395 0000 F0B5     		push	{r4, r5, r6, r7, lr}
 396              		.cfi_def_cfa_offset 20
 397              		.cfi_offset 4, -20
 398              		.cfi_offset 5, -16
 399              		.cfi_offset 6, -12
ARM GAS  /tmp/ccCmF2SF.s 			page 8


 400              		.cfi_offset 7, -8
 401              		.cfi_offset 14, -4
 402 0002 83B0     		sub	sp, sp, #12
 403              		.cfi_def_cfa_offset 32
 404              		.loc 1 225 0
 405 0004 0446     		mov	r4, r0
 406 0006 089F     		ldr	r7, [sp, #32]
 407              	.LBB127:
 408              	.LBB128:
 409              	.LBB129:
 410              	.LBB130:
 411              	.LBB131:
 412              		.loc 3 493 0
 413 0008 2025     		movs	r5, #32
 414              		.syntax unified
 415              	@ 493 "./RM18A-ChibiOS18-Core/chibios/os/common/ext/ARM/CMSIS/Core/Include/cmsis_gcc.h" 1
 416 000a 85F31188 		MSR basepri, r5
 417              	@ 0 "" 2
 418              	.LVL23:
 419              		.thumb
 420              		.syntax unified
 421              	.LBE131:
 422              	.LBE130:
 423              	.LBE129:
 424              	.LBE128:
 425              	.LBE127:
 426              		.loc 1 237 0
 427 000e 0426     		movs	r6, #4
 428              		.loc 1 236 0
 429 0010 0025     		movs	r5, #0
 430              		.loc 1 238 0
 431 0012 0097     		str	r7, [sp]
 432              		.loc 1 237 0
 433 0014 0670     		strb	r6, [r0]
 434              		.loc 1 236 0
 435 0016 8560     		str	r5, [r0, #8]
 436              		.loc 1 238 0
 437 0018 FFF7FEFF 		bl	i2c_lld_master_receive_timeout
 438              	.LVL24:
 439              		.loc 1 239 0
 440 001c 431C     		adds	r3, r0, #1
 441              		.loc 1 240 0
 442 001e 14BF     		ite	ne
 443 0020 0223     		movne	r3, #2
 444 0022 0523     		moveq	r3, #5
 445 0024 2370     		strb	r3, [r4]
 446              	.LVL25:
 447              	.LBB132:
 448              	.LBB133:
 449              	.LBB134:
 450              	.LBB135:
 451              	.LBB136:
 452              	.LBB137:
 453              		.loc 3 493 0
 454              		.syntax unified
 455              	@ 493 "./RM18A-ChibiOS18-Core/chibios/os/common/ext/ARM/CMSIS/Core/Include/cmsis_gcc.h" 1
 456 0026 85F31188 		MSR basepri, r5
ARM GAS  /tmp/ccCmF2SF.s 			page 9


 457              	@ 0 "" 2
 458              	.LVL26:
 459              		.thumb
 460              		.syntax unified
 461              	.LBE137:
 462              	.LBE136:
 463              	.LBE135:
 464              	.LBE134:
 465              	.LBE133:
 466              	.LBE132:
 467              		.loc 1 247 0
 468 002a 03B0     		add	sp, sp, #12
 469              		.cfi_def_cfa_offset 20
 470              		@ sp needed
 471 002c F0BD     		pop	{r4, r5, r6, r7, pc}
 472              		.cfi_endproc
 473              	.LFE333:
 474              		.size	i2cMasterReceiveTimeout, .-i2cMasterReceiveTimeout
 475 002e 00BF     		.section	.text.i2cAcquireBus,"ax",%progbits
 476              		.align	1
 477              		.p2align 2,,3
 478              		.global	i2cAcquireBus
 479              		.syntax unified
 480              		.thumb
 481              		.thumb_func
 482              		.fpu fpv4-sp-d16
 483              		.type	i2cAcquireBus, %function
 484              	i2cAcquireBus:
 485              	.LFB334:
 486              		.loc 1 261 0
 487              		.cfi_startproc
 488              		@ args = 0, pretend = 0, frame = 0
 489              		@ frame_needed = 0, uses_anonymous_args = 0
 490              		@ link register save eliminated.
 491              	.LVL27:
 492              	.LBB138:
 493              	.LBB139:
 494              		.loc 2 994 0
 495 0000 0C30     		adds	r0, r0, #12
 496              	.LVL28:
 497 0002 FFF7FEBF 		b	chMtxLock
 498              	.LVL29:
 499              	.LBE139:
 500              	.LBE138:
 501              		.cfi_endproc
 502              	.LFE334:
 503              		.size	i2cAcquireBus, .-i2cAcquireBus
 504 0006 00BF     		.section	.text.i2cReleaseBus,"ax",%progbits
 505              		.align	1
 506              		.p2align 2,,3
 507              		.global	i2cReleaseBus
 508              		.syntax unified
 509              		.thumb
 510              		.thumb_func
 511              		.fpu fpv4-sp-d16
 512              		.type	i2cReleaseBus, %function
 513              	i2cReleaseBus:
ARM GAS  /tmp/ccCmF2SF.s 			page 10


 514              	.LFB335:
 515              		.loc 1 277 0
 516              		.cfi_startproc
 517              		@ args = 0, pretend = 0, frame = 0
 518              		@ frame_needed = 0, uses_anonymous_args = 0
 519              		@ link register save eliminated.
 520              	.LVL30:
 521              	.LBB140:
 522              	.LBB141:
 523              		.loc 2 1018 0
 524 0000 0C30     		adds	r0, r0, #12
 525              	.LVL31:
 526 0002 FFF7FEBF 		b	chMtxUnlock
 527              	.LVL32:
 528              	.LBE141:
 529              	.LBE140:
 530              		.cfi_endproc
 531              	.LFE335:
 532              		.size	i2cReleaseBus, .-i2cReleaseBus
 533 0006 00BF     		.text
 534              	.Letext0:
 535              		.file 4 "/usr/lib/gcc/arm-none-eabi/7.3.1/include/stddef.h"
 536              		.file 5 "/usr/arm-none-eabi/include/machine/_default_types.h"
 537              		.file 6 "/usr/arm-none-eabi/include/sys/_stdint.h"
 538              		.file 7 "./RM18A-ChibiOS18-Core/chibios/os/common/ports/ARMCMx/compilers/GCC/chtypes.h"
 539              		.file 8 "./RM18A-ChibiOS18-Core/chibios/os/rt/include/chsystypes.h"
 540              		.file 9 "./RM18A-ChibiOS18-Core/chibios/os/rt/include/chschd.h"
 541              		.file 10 "./RM18A-ChibiOS18-Core/chibios/os/rt/include/chtime.h"
 542              		.file 11 "./RM18A-ChibiOS18-Core/chibios/os/common/ext/ARM/CMSIS/Core/Include/core_cm4.h"
 543              		.file 12 "./RM18A-ChibiOS18-Core/chibios/os/common/ext/ST/STM32F4xx/system_stm32f4xx.h"
 544              		.file 13 "./RM18A-ChibiOS18-Core/chibios/os/common/ext/ST/STM32F4xx/stm32f427xx.h"
 545              		.file 14 "./RM18A-ChibiOS18-Core/chibios/os/common/ports/ARMCMx/chcore.h"
 546              		.file 15 "./RM18A-ChibiOS18-Core/chibios/os/common/ports/ARMCMx/chcore_v7m.h"
 547              		.file 16 "./RM18A-ChibiOS18-Core/chibios/os/hal/ports/STM32/LLD/TIMv1/stm32_tim.h"
 548              		.file 17 "./RM18A-ChibiOS18-Core/chibios/os/rt/include/chtm.h"
 549              		.file 18 "./RM18A-ChibiOS18-Core/chibios/os/rt/include/chsem.h"
 550              		.file 19 "./RM18A-ChibiOS18-Core/chibios/os/rt/include/chmtx.h"
 551              		.file 20 "./RM18A-ChibiOS18-Core/chibios/os/rt/include/chsys.h"
 552              		.file 21 "./RM18A-ChibiOS18-Core/chibios/os/rt/include/chregistry.h"
 553              		.file 22 "./RM18A-ChibiOS18-Core/chibios/os/rt/include/chevents.h"
 554              		.file 23 "./RM18A-ChibiOS18-Core/chibios/os/oslib/include/chmemcore.h"
 555              		.file 24 "./RM18A-ChibiOS18-Core/chibios/os/oslib/include/chmempools.h"
 556              		.file 25 "./RM18A-ChibiOS18-Core/chibios/os/oslib/include/chfactory.h"
 557              		.file 26 "./RM18A-ChibiOS18-Core/chibios/os/hal/ports/STM32/LLD/DMAv2/stm32_dma.h"
 558              		.file 27 "./RM18A-ChibiOS18-Core/chibios/os/hal/include/hal_queues.h"
 559              		.file 28 "./RM18A-ChibiOS18-Core/chibios/os/hal/include/hal_pal.h"
 560              		.file 29 "./RM18A-ChibiOS18-Core/chibios/os/hal/ports/STM32/LLD/GPIOv2/hal_pal_lld.h"
 561              		.file 30 "./RM18A-ChibiOS18-Core/chibios/os/hal/include/hal_adc.h"
 562              		.file 31 "./RM18A-ChibiOS18-Core/chibios/os/hal/ports/STM32/LLD/ADCv2/hal_adc_lld.h"
 563              		.file 32 "./RM18A-ChibiOS18-Core/chibios/os/hal/include/hal_can.h"
 564              		.file 33 "./RM18A-ChibiOS18-Core/chibios/os/hal/ports/STM32/LLD/CANv1/hal_can_lld.h"
 565              		.file 34 "./RM18A-ChibiOS18-Core/chibios/os/hal/include/hal_i2c.h"
 566              		.file 35 "./RM18A-ChibiOS18-Core/chibios/os/hal/ports/STM32/LLD/I2Cv1/hal_i2c_lld.h"
 567              		.file 36 "./RM18A-ChibiOS18-Core/chibios/os/hal/include/hal_pwm.h"
 568              		.file 37 "./RM18A-ChibiOS18-Core/chibios/os/hal/ports/STM32/LLD/TIMv1/hal_pwm_lld.h"
 569              		.file 38 "./RM18A-ChibiOS18-Core/chibios/os/hal/include/hal_serial.h"
 570              		.file 39 "./RM18A-ChibiOS18-Core/chibios/os/hal/ports/STM32/LLD/USARTv1/hal_serial_lld.h"
ARM GAS  /tmp/ccCmF2SF.s 			page 11


 571              		.file 40 "./RM18A-ChibiOS18-Core/chibios/os/hal/include/hal_spi.h"
 572              		.file 41 "./RM18A-ChibiOS18-Core/chibios/os/hal/ports/STM32/LLD/SPIv1/hal_spi_lld.h"
 573              		.file 42 "./RM18A-ChibiOS18-Core/chibios/os/hal/include/hal_uart.h"
 574              		.file 43 "./RM18A-ChibiOS18-Core/chibios/os/hal/ports/STM32/LLD/USARTv1/hal_uart_lld.h"
 575              		.file 44 "./RM18A-ChibiOS18-Core/chibios/os/hal/include/hal_usb.h"
 576              		.file 45 "./RM18A-ChibiOS18-Core/chibios/os/hal/ports/STM32/LLD/OTGv1/hal_usb_lld.h"
 577              		.file 46 "./RM18A-ChibiOS18-Core/chibios/os/hal/ports/STM32/LLD/OTGv1/stm32_otg.h"