ARM GAS  /tmp/ccASpQiv.s 			page 1


   1              		.cpu cortex-m4
   2              		.eabi_attribute 27, 1
   3              		.eabi_attribute 28, 1
   4              		.eabi_attribute 20, 1
   5              		.eabi_attribute 21, 1
   6              		.eabi_attribute 23, 3
   7              		.eabi_attribute 24, 1
   8              		.eabi_attribute 25, 1
   9              		.eabi_attribute 26, 1
  10              		.eabi_attribute 30, 2
  11              		.eabi_attribute 34, 1
  12              		.eabi_attribute 18, 4
  13              		.file	"hal_uart_lld.c"
  14              		.text
  15              	.Ltext0:
  16              		.cfi_sections	.debug_frame
  17              		.section	.text.uart_lld_serve_tx_end_irq,"ax",%progbits
  18              		.align	1
  19              		.p2align 2,,3
  20              		.syntax unified
  21              		.thumb
  22              		.thumb_func
  23              		.fpu fpv4-sp-d16
  24              		.type	uart_lld_serve_tx_end_irq, %function
  25              	uart_lld_serve_tx_end_irq:
  26              	.LFB332:
  27              		.file 1 "./RM18A-ChibiOS18-Core/chibios/os/hal/ports/STM32/LLD/USARTv1/hal_uart_lld.c"
  28              		.loc 1 307 0
  29              		.cfi_startproc
  30              		@ args = 0, pretend = 0, frame = 0
  31              		@ frame_needed = 0, uses_anonymous_args = 0
  32              	.LVL0:
  33              		.loc 1 311 0
  34 0000 11F00C0F 		tst	r1, #12
  35              		.loc 1 307 0
  36 0004 38B5     		push	{r3, r4, r5, lr}
  37              		.cfi_def_cfa_offset 16
  38              		.cfi_offset 3, -16
  39              		.cfi_offset 4, -12
  40              		.cfi_offset 5, -8
  41              		.cfi_offset 14, -4
  42              		.loc 1 307 0
  43 0006 0446     		mov	r4, r0
  44              		.loc 1 311 0
  45 0008 29D1     		bne	.L20
  46              	.LVL1:
  47              	.L2:
  48              		.loc 1 318 0
  49 000a 216A     		ldr	r1, [r4, #32]
  50 000c 0A68     		ldr	r2, [r1]
  51 000e 1368     		ldr	r3, [r2]
  52 0010 23F01F03 		bic	r3, r3, #31
  53 0014 1360     		str	r3, [r2]
  54              	.L3:
  55              		.loc 1 318 0 is_stmt 0 discriminator 2
  56 0016 1368     		ldr	r3, [r2]
  57 0018 DB07     		lsls	r3, r3, #31
ARM GAS  /tmp/ccASpQiv.s 			page 2


  58 001a FCD4     		bmi	.L3
  59              		.loc 1 321 0 is_stmt 1 discriminator 3
  60 001c 6368     		ldr	r3, [r4, #4]
  61              		.loc 1 318 0 discriminator 3
  62 001e 4D7A     		ldrb	r5, [r1, #9]	@ zero_extendqisi2
  63 0020 4868     		ldr	r0, [r1, #4]
  64              		.loc 1 321 0 discriminator 3
  65 0022 1A68     		ldr	r2, [r3]
  66              		.loc 1 318 0 discriminator 3
  67 0024 3D23     		movs	r3, #61
  68 0026 AB40     		lsls	r3, r3, r5
  69              		.loc 1 321 0 discriminator 3
  70 0028 0221     		movs	r1, #2
  71              		.loc 1 318 0 discriminator 3
  72 002a 0360     		str	r3, [r0]
  73              		.loc 1 321 0 discriminator 3
  74 002c 6170     		strb	r1, [r4, #1]
  75 002e 9AB1     		cbz	r2, .L6
  76              		.loc 1 321 0 is_stmt 0 discriminator 1
  77 0030 2046     		mov	r0, r4
  78 0032 9047     		blx	r2
  79              	.LVL2:
  80 0034 6378     		ldrb	r3, [r4, #1]	@ zero_extendqisi2
  81 0036 022B     		cmp	r3, #2
  82 0038 0ED0     		beq	.L6
  83              	.L5:
  84              		.loc 1 321 0 discriminator 6
  85 003a 237A     		ldrb	r3, [r4, #8]	@ zero_extendqisi2
  86 003c 03B9     		cbnz	r3, .L21
  87              		.loc 1 322 0 is_stmt 1
  88 003e 38BD     		pop	{r3, r4, r5, pc}
  89              	.LVL3:
  90              	.L21:
  91              	.LBB164:
  92              	.LBB165:
  93              	.LBB166:
  94              	.LBB167:
  95              	.LBB168:
  96              	.LBB169:
  97              	.LBB170:
  98              	.LBB171:
  99              		.file 2 "./RM18A-ChibiOS18-Core/chibios/os/common/ext/ARM/CMSIS/Core/Include/cmsis_gcc.h"
 100              		.loc 2 493 0
 101 0040 2023     		movs	r3, #32
 102              		.syntax unified
 103              	@ 493 "./RM18A-ChibiOS18-Core/chibios/os/common/ext/ARM/CMSIS/Core/Include/cmsis_gcc.h" 1
 104 0042 83F31188 		MSR basepri, r3
 105              	@ 0 "" 2
 106              	.LVL4:
 107              		.thumb
 108              		.syntax unified
 109              	.LBE171:
 110              	.LBE170:
 111              	.LBE169:
 112              	.LBE168:
 113              	.LBE167:
 114              	.LBE166:
ARM GAS  /tmp/ccASpQiv.s 			page 3


 115              	.LBB172:
 116              	.LBB173:
 117              		.file 3 "./RM18A-ChibiOS18-Core/chibios/os/hal/osal/rt/osal.h"
 118              		.loc 3 775 0
 119 0046 0021     		movs	r1, #0
 120 0048 04F11000 		add	r0, r4, #16
 121              	.LVL5:
 122 004c FFF7FEFF 		bl	chThdResumeI
 123              	.LVL6:
 124              	.LBE173:
 125              	.LBE172:
 126              	.LBB174:
 127              	.LBB175:
 128              	.LBB176:
 129              	.LBB177:
 130              	.LBB178:
 131              	.LBB179:
 132              		.loc 2 493 0
 133 0050 0023     		movs	r3, #0
 134              		.syntax unified
 135              	@ 493 "./RM18A-ChibiOS18-Core/chibios/os/common/ext/ARM/CMSIS/Core/Include/cmsis_gcc.h" 1
 136 0052 83F31188 		MSR basepri, r3
 137              	@ 0 "" 2
 138              	.LVL7:
 139              		.thumb
 140              		.syntax unified
 141              	.LBE179:
 142              	.LBE178:
 143              	.LBE177:
 144              	.LBE176:
 145              	.LBE175:
 146              	.LBE174:
 147              	.LBE165:
 148              	.LBE164:
 149              		.loc 1 322 0
 150 0056 38BD     		pop	{r3, r4, r5, pc}
 151              	.LVL8:
 152              	.L6:
 153              		.loc 1 321 0
 154 0058 0023     		movs	r3, #0
 155 005a 6370     		strb	r3, [r4, #1]
 156 005c EDE7     		b	.L5
 157              	.LVL9:
 158              	.L20:
 159              	.LBB180:
 160              	.LBB181:
 161              		.loc 3 480 0
 162 005e 0248     		ldr	r0, .L22
 163              	.LVL10:
 164 0060 FFF7FEFF 		bl	chSysHalt
 165              	.LVL11:
 166 0064 D1E7     		b	.L2
 167              	.L23:
 168 0066 00BF     		.align	2
 169              	.L22:
 170 0068 00000000 		.word	.LC0
 171              	.LBE181:
ARM GAS  /tmp/ccASpQiv.s 			page 4


 172              	.LBE180:
 173              		.cfi_endproc
 174              	.LFE332:
 175              		.size	uart_lld_serve_tx_end_irq, .-uart_lld_serve_tx_end_irq
 176              		.section	.text.uart_lld_serve_rx_end_irq,"ax",%progbits
 177              		.align	1
 178              		.p2align 2,,3
 179              		.syntax unified
 180              		.thumb
 181              		.thumb_func
 182              		.fpu fpv4-sp-d16
 183              		.type	uart_lld_serve_rx_end_irq, %function
 184              	uart_lld_serve_rx_end_irq:
 185              	.LFB331:
 186              		.loc 1 277 0
 187              		.cfi_startproc
 188              		@ args = 0, pretend = 0, frame = 0
 189              		@ frame_needed = 0, uses_anonymous_args = 0
 190              	.LVL12:
 191              		.loc 1 281 0
 192 0000 11F00C0F 		tst	r1, #12
 193              		.loc 1 277 0
 194 0004 2DE9F041 		push	{r4, r5, r6, r7, r8, lr}
 195              		.cfi_def_cfa_offset 24
 196              		.cfi_offset 4, -24
 197              		.cfi_offset 5, -20
 198              		.cfi_offset 6, -16
 199              		.cfi_offset 7, -12
 200              		.cfi_offset 8, -8
 201              		.cfi_offset 14, -4
 202              		.loc 1 277 0
 203 0008 0446     		mov	r4, r0
 204              		.loc 1 281 0
 205 000a 2DD1     		bne	.L44
 206              	.LVL13:
 207              	.L25:
 208              		.loc 1 288 0
 209 000c A378     		ldrb	r3, [r4, #2]	@ zero_extendqisi2
 210 000e 6168     		ldr	r1, [r4, #4]
 211 0010 33B9     		cbnz	r3, .L26
 212              		.loc 1 291 0
 213 0012 CB68     		ldr	r3, [r1, #12]
 214 0014 33B3     		cbz	r3, .L24
 215              		.loc 1 291 0 is_stmt 0 discriminator 1
 216 0016 A18C     		ldrh	r1, [r4, #36]
 217 0018 2046     		mov	r0, r4
 218              		.loc 1 299 0 is_stmt 1 discriminator 1
 219 001a BDE8F041 		pop	{r4, r5, r6, r7, r8, lr}
 220              		.cfi_remember_state
 221              		.cfi_restore 14
 222              		.cfi_restore 8
 223              		.cfi_restore 7
 224              		.cfi_restore 6
 225              		.cfi_restore 5
 226              		.cfi_restore 4
 227              		.cfi_def_cfa_offset 0
 228              	.LVL14:
ARM GAS  /tmp/ccASpQiv.s 			page 5


 229              		.loc 1 291 0 discriminator 1
 230 001e 1847     		bx	r3	@ indirect register sibling call
 231              	.LVL15:
 232              	.L26:
 233              		.cfi_restore_state
 234              	.LBB204:
 235              	.LBB205:
 236              		.loc 1 296 0
 237 0020 E069     		ldr	r0, [r4, #28]
 238 0022 0268     		ldr	r2, [r0]
 239 0024 1368     		ldr	r3, [r2]
 240 0026 23F01F03 		bic	r3, r3, #31
 241 002a 1360     		str	r3, [r2]
 242              	.L28:
 243 002c 1368     		ldr	r3, [r2]
 244 002e DB07     		lsls	r3, r3, #31
 245 0030 FCD4     		bmi	.L28
 246 0032 477A     		ldrb	r7, [r0, #9]	@ zero_extendqisi2
 247 0034 4668     		ldr	r6, [r0, #4]
 248              		.loc 1 297 0
 249 0036 8D68     		ldr	r5, [r1, #8]
 250              		.loc 1 296 0
 251 0038 3D23     		movs	r3, #61
 252 003a BB40     		lsls	r3, r3, r7
 253              		.loc 1 297 0
 254 003c 0220     		movs	r0, #2
 255              		.loc 1 296 0
 256 003e 3360     		str	r3, [r6]
 257              		.loc 1 297 0
 258 0040 A070     		strb	r0, [r4, #2]
 259 0042 C5B1     		cbz	r5, .L29
 260 0044 2046     		mov	r0, r4
 261 0046 A847     		blx	r5
 262              	.LVL16:
 263 0048 A378     		ldrb	r3, [r4, #2]	@ zero_extendqisi2
 264 004a 022B     		cmp	r3, #2
 265 004c 10D0     		beq	.L45
 266              	.L30:
 267              	.LVL17:
 268              	.LBB206:
 269              	.LBB207:
 270              	.LBB208:
 271              	.LBB209:
 272              	.LBB210:
 273              	.LBB211:
 274              		.loc 2 493 0
 275 004e 2023     		movs	r3, #32
 276              		.syntax unified
 277              	@ 493 "./RM18A-ChibiOS18-Core/chibios/os/common/ext/ARM/CMSIS/Core/Include/cmsis_gcc.h" 1
 278 0050 83F31188 		MSR basepri, r3
 279              	@ 0 "" 2
 280              	.LVL18:
 281              		.thumb
 282              		.syntax unified
 283              	.LBE211:
 284              	.LBE210:
 285              	.LBE209:
ARM GAS  /tmp/ccASpQiv.s 			page 6


 286              	.LBE208:
 287              	.LBE207:
 288              	.LBE206:
 289              	.LBB212:
 290              	.LBB213:
 291              		.loc 3 775 0
 292 0054 0021     		movs	r1, #0
 293 0056 04F10C00 		add	r0, r4, #12
 294              	.LVL19:
 295 005a FFF7FEFF 		bl	chThdResumeI
 296              	.LVL20:
 297              	.LBE213:
 298              	.LBE212:
 299              	.LBB214:
 300              	.LBB215:
 301              	.LBB216:
 302              	.LBB217:
 303              	.LBB218:
 304              	.LBB219:
 305              		.loc 2 493 0
 306 005e 0023     		movs	r3, #0
 307              		.syntax unified
 308              	@ 493 "./RM18A-ChibiOS18-Core/chibios/os/common/ext/ARM/CMSIS/Core/Include/cmsis_gcc.h" 1
 309 0060 83F31188 		MSR basepri, r3
 310              	@ 0 "" 2
 311              	.LVL21:
 312              		.thumb
 313              		.syntax unified
 314              	.L24:
 315              	.LBE219:
 316              	.LBE218:
 317              	.LBE217:
 318              	.LBE216:
 319              	.LBE215:
 320              	.LBE214:
 321              	.LBE205:
 322              	.LBE204:
 323              		.loc 1 299 0
 324 0064 BDE8F081 		pop	{r4, r5, r6, r7, r8, pc}
 325              	.LVL22:
 326              	.L44:
 327              	.LBB227:
 328              	.LBB228:
 329              		.loc 3 480 0
 330 0068 0D48     		ldr	r0, .L46
 331              	.LVL23:
 332 006a FFF7FEFF 		bl	chSysHalt
 333              	.LVL24:
 334 006e CDE7     		b	.L25
 335              	.LVL25:
 336              	.L45:
 337 0070 E369     		ldr	r3, [r4, #28]
 338 0072 6168     		ldr	r1, [r4, #4]
 339 0074 1A68     		ldr	r2, [r3]
 340              	.L29:
 341              	.LBE228:
 342              	.LBE227:
ARM GAS  /tmp/ccASpQiv.s 			page 7


 343              	.LBB229:
 344              	.LBB226:
 345              	.LBB220:
 346              	.LBB221:
 347              		.loc 1 190 0
 348 0076 CB68     		ldr	r3, [r1, #12]
 349              		.loc 1 196 0
 350 0078 A169     		ldr	r1, [r4, #24]
 351              		.loc 1 191 0
 352 007a 002B     		cmp	r3, #0
 353 007c 14BF     		ite	ne
 354 007e 4FF48873 		movne	r3, #272
 355 0082 4FF48073 		moveq	r3, #256
 356              		.loc 1 196 0
 357 0086 0B43     		orrs	r3, r3, r1
 358              		.loc 1 195 0
 359 0088 0120     		movs	r0, #1
 360              	.LBE221:
 361              	.LBE220:
 362              		.loc 1 297 0
 363 008a 0025     		movs	r5, #0
 364              	.LBB224:
 365              	.LBB222:
 366              		.loc 1 194 0
 367 008c 04F12401 		add	r1, r4, #36
 368              	.LBE222:
 369              	.LBE224:
 370              		.loc 1 297 0
 371 0090 A570     		strb	r5, [r4, #2]
 372              	.LVL26:
 373              	.LBB225:
 374              	.LBB223:
 375              		.loc 1 194 0
 376 0092 D160     		str	r1, [r2, #12]
 377              		.loc 1 195 0
 378 0094 5060     		str	r0, [r2, #4]
 379              		.loc 1 196 0
 380 0096 1360     		str	r3, [r2]
 381              		.loc 1 197 0
 382 0098 1368     		ldr	r3, [r2]
 383 009a 0343     		orrs	r3, r3, r0
 384 009c 1360     		str	r3, [r2]
 385 009e D6E7     		b	.L30
 386              	.L47:
 387              		.align	2
 388              	.L46:
 389 00a0 00000000 		.word	.LC0
 390              	.LBE223:
 391              	.LBE225:
 392              	.LBE226:
 393              	.LBE229:
 394              		.cfi_endproc
 395              	.LFE331:
 396              		.size	uart_lld_serve_rx_end_irq, .-uart_lld_serve_rx_end_irq
 397              		.section	.text.VectorD4,"ax",%progbits
 398              		.align	1
 399              		.p2align 2,,3
ARM GAS  /tmp/ccASpQiv.s 			page 8


 400              		.global	VectorD4
 401              		.syntax unified
 402              		.thumb
 403              		.thumb_func
 404              		.fpu fpv4-sp-d16
 405              		.type	VectorD4, %function
 406              	VectorD4:
 407              	.LFB334:
 408              		.loc 1 370 0
 409              		.cfi_startproc
 410              		@ args = 0, pretend = 0, frame = 32
 411              		@ frame_needed = 0, uses_anonymous_args = 0
 412              	.LVL27:
 413 0000 2DE9F04F 		push	{r4, r5, r6, r7, r8, r9, r10, fp, lr}
 414              		.cfi_def_cfa_offset 36
 415              		.cfi_offset 4, -36
 416              		.cfi_offset 5, -32
 417              		.cfi_offset 6, -28
 418              		.cfi_offset 7, -24
 419              		.cfi_offset 8, -20
 420              		.cfi_offset 9, -16
 421              		.cfi_offset 10, -12
 422              		.cfi_offset 11, -8
 423              		.cfi_offset 14, -4
 424              	.LBB262:
 425              	.LBB263:
 426              		.loc 1 331 0
 427 0004 524E     		ldr	r6, .L83
 428 0006 7469     		ldr	r4, [r6, #20]
 429              	.LVL28:
 430              		.loc 1 332 0
 431 0008 E768     		ldr	r7, [r4, #12]
 432              	.LVL29:
 433              		.loc 1 334 0
 434 000a 2568     		ldr	r5, [r4]
 435              	.LVL30:
 436              		.loc 1 335 0
 437 000c 6368     		ldr	r3, [r4, #4]
 438              		.loc 1 337 0
 439 000e 40F21F13 		movw	r3, #287
 440 0012 1D42     		tst	r5, r3
 441              	.LBE263:
 442              	.LBE262:
 443              		.loc 1 370 0
 444 0014 89B0     		sub	sp, sp, #36
 445              		.cfi_def_cfa_offset 72
 446              	.LBB296:
 447              	.LBB294:
 448              		.loc 1 337 0
 449 0016 76D0     		beq	.L49
 450              		.loc 1 344 0
 451 0018 7368     		ldr	r3, [r6, #4]
 452 001a D3F81080 		ldr	r8, [r3, #16]
 453              		.loc 1 343 0
 454 001e 6FF48073 		mvn	r3, #256
 455 0022 2360     		str	r3, [r4]
 456              		.loc 1 344 0
ARM GAS  /tmp/ccASpQiv.s 			page 9


 457 0024 B8F1000F 		cmp	r8, #0
 458 0028 62D0     		beq	.L50
 459              		.loc 1 334 0
 460 002a ABB2     		uxth	r3, r5
 461              	.LVL31:
 462              	.LBB264:
 463              	.LBB265:
 464              		.loc 1 167 0
 465 002c 03F00802 		and	r2, r3, #8
 466 0030 002A     		cmp	r2, #0
 467 0032 14BF     		ite	ne
 468 0034 5422     		movne	r2, #84
 469 0036 4422     		moveq	r2, #68
 470 0038 0092     		str	r2, [sp]
 471 003a 14BF     		ite	ne
 472 003c 7422     		movne	r2, #116
 473 003e 6422     		moveq	r2, #100
 474 0040 0792     		str	r2, [sp, #28]
 475 0042 14BF     		ite	ne
 476 0044 3422     		movne	r2, #52
 477 0046 2422     		moveq	r2, #36
 478 0048 0392     		str	r2, [sp, #12]
 479 004a 14BF     		ite	ne
 480 004c 5C22     		movne	r2, #92
 481 004e 4C22     		moveq	r2, #76
 482 0050 0192     		str	r2, [sp, #4]
 483 0052 14BF     		ite	ne
 484 0054 7C22     		movne	r2, #124
 485 0056 6C22     		moveq	r2, #108
 486 0058 0292     		str	r2, [sp, #8]
 487 005a 14BF     		ite	ne
 488 005c 3C22     		movne	r2, #60
 489 005e 2C22     		moveq	r2, #44
 490 0060 0692     		str	r2, [sp, #24]
 491 0062 14BF     		ite	ne
 492 0064 1C22     		movne	r2, #28
 493 0066 0C22     		moveq	r2, #12
 494 0068 0492     		str	r2, [sp, #16]
 495 006a 14BF     		ite	ne
 496 006c 1422     		movne	r2, #20
 497 006e 0422     		moveq	r2, #4
 498 0070 0592     		str	r2, [sp, #20]
 499 0072 15BF     		itete	ne
 500 0074 5021     		movne	r1, #80
 501 0076 4021     		moveq	r1, #64
 502 0078 4FF0700C 		movne	ip, #112
 503 007c 4FF0600C 		moveq	ip, #96
 504 0080 15BF     		itete	ne
 505 0082 3020     		movne	r0, #48
 506 0084 2020     		moveq	r0, #32
 507 0086 4FF0580B 		movne	fp, #88
 508 008a 4FF0480B 		moveq	fp, #72
 509 008e 15BF     		itete	ne
 510 0090 4FF0780A 		movne	r10, #120
 511 0094 4FF0680A 		moveq	r10, #104
 512 0098 4FF03809 		movne	r9, #56
 513 009c 4FF02809 		moveq	r9, #40
ARM GAS  /tmp/ccASpQiv.s 			page 10


 514 00a0 15BF     		itete	ne
 515 00a2 4FF0180E 		movne	lr, #24
 516 00a6 4FF0080E 		moveq	lr, #8
 517 00aa 1022     		movne	r2, #16
 518 00ac 0022     		moveq	r2, #0
 519              	.LVL32:
 520              		.loc 1 169 0
 521 00ae 13F0010F 		tst	r3, #1
 522 00b2 09D0     		beq	.L52
 523 00b4 DDE901BA 		ldrd	fp, r10, [sp, #4]
 524              		.loc 1 170 0
 525 00b8 DDE904E2 		ldrd	lr, r2, [sp, #16]
 526              	.LVL33:
 527              		.loc 1 169 0
 528 00bc 0099     		ldr	r1, [sp]
 529 00be DDF81CC0 		ldr	ip, [sp, #28]
 530 00c2 0398     		ldr	r0, [sp, #12]
 531 00c4 DDF81890 		ldr	r9, [sp, #24]
 532              	.LVL34:
 533              	.L52:
 534              		.loc 1 171 0
 535 00c8 13F0020F 		tst	r3, #2
 536 00cc 03D0     		beq	.L53
 537 00ce 5946     		mov	r1, fp
 538 00d0 D446     		mov	ip, r10
 539 00d2 4846     		mov	r0, r9
 540              		.loc 1 172 0
 541 00d4 7246     		mov	r2, lr
 542              	.LVL35:
 543              	.L53:
 544              		.loc 1 173 0
 545 00d6 03F0040E 		and	lr, r3, #4
 546 00da BEF1000F 		cmp	lr, #0
 547 00de 1CBF     		itt	ne
 548 00e0 0246     		movne	r2, r0
 549              	.LVL36:
 550 00e2 6146     		movne	r1, ip
 551              		.loc 1 175 0
 552 00e4 13F4807F 		tst	r3, #256
 553              	.LBE265:
 554              	.LBE264:
 555              		.loc 1 344 0
 556 00e8 08BF     		it	eq
 557 00ea 1146     		moveq	r1, r2
 558 00ec 1848     		ldr	r0, .L83
 559 00ee C047     		blx	r8
 560              	.LVL37:
 561              	.L50:
 562              	.LBB266:
 563              	.LBB267:
 564              	.LBB268:
 565              	.LBB269:
 566              	.LBB270:
 567              	.LBB271:
 568              		.loc 2 493 0
 569 00f0 2023     		movs	r3, #32
 570              		.syntax unified
ARM GAS  /tmp/ccASpQiv.s 			page 11


 571              	@ 493 "./RM18A-ChibiOS18-Core/chibios/os/common/ext/ARM/CMSIS/Core/Include/cmsis_gcc.h" 1
 572 00f2 83F31188 		MSR basepri, r3
 573              	@ 0 "" 2
 574              	.LVL38:
 575              		.thumb
 576              		.syntax unified
 577              	.LBE271:
 578              	.LBE270:
 579              	.LBE269:
 580              	.LBE268:
 581              	.LBE267:
 582              	.LBE266:
 583              	.LBB272:
 584              	.LBB273:
 585              		.loc 3 775 0
 586 00f6 6FF00101 		mvn	r1, #1
 587 00fa 1648     		ldr	r0, .L83+4
 588 00fc FFF7FEFF 		bl	chThdResumeI
 589              	.LVL39:
 590              	.LBE273:
 591              	.LBE272:
 592              	.LBB274:
 593              	.LBB275:
 594              	.LBB276:
 595              	.LBB277:
 596              	.LBB278:
 597              	.LBB279:
 598              		.loc 2 493 0
 599 0100 0023     		movs	r3, #0
 600              		.syntax unified
 601              	@ 493 "./RM18A-ChibiOS18-Core/chibios/os/common/ext/ARM/CMSIS/Core/Include/cmsis_gcc.h" 1
 602 0102 83F31188 		MSR basepri, r3
 603              	@ 0 "" 2
 604              	.LVL40:
 605              		.thumb
 606              		.syntax unified
 607              	.L49:
 608              	.LBE279:
 609              	.LBE278:
 610              	.LBE277:
 611              	.LBE276:
 612              	.LBE275:
 613              	.LBE274:
 614              		.loc 1 347 0
 615 0106 6A06     		lsls	r2, r5, #25
 616 0108 0ED5     		bpl	.L57
 617 010a 7B06     		lsls	r3, r7, #25
 618 010c 0CD5     		bpl	.L57
 619              		.loc 1 353 0
 620 010e 7368     		ldr	r3, [r6, #4]
 621 0110 5B68     		ldr	r3, [r3, #4]
 622              		.loc 1 350 0
 623 0112 27F04007 		bic	r7, r7, #64
 624              	.LVL41:
 625              		.loc 1 349 0
 626 0116 6FF04002 		mvn	r2, #64
 627 011a 2260     		str	r2, [r4]
ARM GAS  /tmp/ccASpQiv.s 			page 12


 628              		.loc 1 350 0
 629 011c E760     		str	r7, [r4, #12]
 630              		.loc 1 353 0
 631 011e 0BB1     		cbz	r3, .L59
 632 0120 0B48     		ldr	r0, .L83
 633 0122 9847     		blx	r3
 634              	.LVL42:
 635              	.L59:
 636 0124 347A     		ldrb	r4, [r6, #8]	@ zero_extendqisi2
 637              	.LVL43:
 638 0126 24B1     		cbz	r4, .L82
 639              	.L57:
 640              	.LVL44:
 641              	.LBE294:
 642              	.LBE296:
 643              		.loc 1 377 0
 644 0128 09B0     		add	sp, sp, #36
 645              		.cfi_remember_state
 646              		.cfi_def_cfa_offset 36
 647              		@ sp needed
 648 012a BDE8F04F 		pop	{r4, r5, r6, r7, r8, r9, r10, fp, lr}
 649              		.cfi_restore 14
 650              		.cfi_restore 11
 651              		.cfi_restore 10
 652              		.cfi_restore 9
 653              		.cfi_restore 8
 654              		.cfi_restore 7
 655              		.cfi_restore 6
 656              		.cfi_restore 5
 657              		.cfi_restore 4
 658              		.cfi_def_cfa_offset 0
 659              		.loc 1 376 0
 660 012e FFF7FEBF 		b	_port_irq_epilogue
 661              	.LVL45:
 662              	.L82:
 663              		.cfi_restore_state
 664              	.LBB297:
 665              	.LBB295:
 666              	.LBB280:
 667              	.LBB281:
 668              	.LBB282:
 669              	.LBB283:
 670              	.LBB284:
 671              	.LBB285:
 672              		.loc 2 493 0
 673 0132 2023     		movs	r3, #32
 674              		.syntax unified
 675              	@ 493 "./RM18A-ChibiOS18-Core/chibios/os/common/ext/ARM/CMSIS/Core/Include/cmsis_gcc.h" 1
 676 0134 83F31188 		MSR basepri, r3
 677              	@ 0 "" 2
 678              	.LVL46:
 679              		.thumb
 680              		.syntax unified
 681              	.LBE285:
 682              	.LBE284:
 683              	.LBE283:
 684              	.LBE282:
ARM GAS  /tmp/ccASpQiv.s 			page 13


 685              	.LBE281:
 686              	.LBE280:
 687              	.LBB286:
 688              	.LBB287:
 689              		.loc 3 775 0
 690 0138 0748     		ldr	r0, .L83+8
 691 013a 2146     		mov	r1, r4
 692 013c FFF7FEFF 		bl	chThdResumeI
 693              	.LVL47:
 694              	.LBE287:
 695              	.LBE286:
 696              	.LBB288:
 697              	.LBB289:
 698              	.LBB290:
 699              	.LBB291:
 700              	.LBB292:
 701              	.LBB293:
 702              		.loc 2 493 0
 703              		.syntax unified
 704              	@ 493 "./RM18A-ChibiOS18-Core/chibios/os/common/ext/ARM/CMSIS/Core/Include/cmsis_gcc.h" 1
 705 0140 84F31188 		MSR basepri, r4
 706              	@ 0 "" 2
 707              	.LVL48:
 708              		.thumb
 709              		.syntax unified
 710              	.LBE293:
 711              	.LBE292:
 712              	.LBE291:
 713              	.LBE290:
 714              	.LBE289:
 715              	.LBE288:
 716              	.LBE295:
 717              	.LBE297:
 718              		.loc 1 377 0
 719 0144 09B0     		add	sp, sp, #36
 720              		.cfi_def_cfa_offset 36
 721              		@ sp needed
 722 0146 BDE8F04F 		pop	{r4, r5, r6, r7, r8, r9, r10, fp, lr}
 723              		.cfi_restore 14
 724              		.cfi_restore 11
 725              		.cfi_restore 10
 726              		.cfi_restore 9
 727              		.cfi_restore 8
 728              		.cfi_restore 7
 729              		.cfi_restore 6
 730              		.cfi_restore 5
 731              		.cfi_restore 4
 732              		.cfi_def_cfa_offset 0
 733              		.loc 1 376 0
 734 014a FFF7FEBF 		b	_port_irq_epilogue
 735              	.LVL49:
 736              	.L84:
 737 014e 00BF     		.align	2
 738              	.L83:
 739 0150 00000000 		.word	.LANCHOR0
 740 0154 0C000000 		.word	.LANCHOR0+12
 741 0158 10000000 		.word	.LANCHOR0+16
ARM GAS  /tmp/ccASpQiv.s 			page 14


 742              		.cfi_endproc
 743              	.LFE334:
 744              		.size	VectorD4, .-VectorD4
 745              		.section	.text.Vector15C,"ax",%progbits
 746              		.align	1
 747              		.p2align 2,,3
 748              		.global	Vector15C
 749              		.syntax unified
 750              		.thumb
 751              		.thumb_func
 752              		.fpu fpv4-sp-d16
 753              		.type	Vector15C, %function
 754              	Vector15C:
 755              	.LFB335:
 756              		.loc 1 465 0
 757              		.cfi_startproc
 758              		@ args = 0, pretend = 0, frame = 32
 759              		@ frame_needed = 0, uses_anonymous_args = 0
 760              	.LVL50:
 761 0000 2DE9F04F 		push	{r4, r5, r6, r7, r8, r9, r10, fp, lr}
 762              		.cfi_def_cfa_offset 36
 763              		.cfi_offset 4, -36
 764              		.cfi_offset 5, -32
 765              		.cfi_offset 6, -28
 766              		.cfi_offset 7, -24
 767              		.cfi_offset 8, -20
 768              		.cfi_offset 9, -16
 769              		.cfi_offset 10, -12
 770              		.cfi_offset 11, -8
 771              		.cfi_offset 14, -4
 772              	.LBB330:
 773              	.LBB331:
 774              		.loc 1 331 0
 775 0004 524E     		ldr	r6, .L120
 776 0006 7469     		ldr	r4, [r6, #20]
 777              	.LVL51:
 778              		.loc 1 332 0
 779 0008 E768     		ldr	r7, [r4, #12]
 780              	.LVL52:
 781              		.loc 1 334 0
 782 000a 2568     		ldr	r5, [r4]
 783              	.LVL53:
 784              		.loc 1 335 0
 785 000c 6368     		ldr	r3, [r4, #4]
 786              		.loc 1 337 0
 787 000e 40F21F13 		movw	r3, #287
 788 0012 1D42     		tst	r5, r3
 789              	.LBE331:
 790              	.LBE330:
 791              		.loc 1 465 0
 792 0014 89B0     		sub	sp, sp, #36
 793              		.cfi_def_cfa_offset 72
 794              	.LBB364:
 795              	.LBB362:
 796              		.loc 1 337 0
 797 0016 76D0     		beq	.L86
 798              		.loc 1 344 0
ARM GAS  /tmp/ccASpQiv.s 			page 15


 799 0018 7368     		ldr	r3, [r6, #4]
 800 001a D3F81080 		ldr	r8, [r3, #16]
 801              		.loc 1 343 0
 802 001e 6FF48073 		mvn	r3, #256
 803 0022 2360     		str	r3, [r4]
 804              		.loc 1 344 0
 805 0024 B8F1000F 		cmp	r8, #0
 806 0028 62D0     		beq	.L87
 807              		.loc 1 334 0
 808 002a ABB2     		uxth	r3, r5
 809              	.LVL54:
 810              	.LBB332:
 811              	.LBB333:
 812              		.loc 1 167 0
 813 002c 03F00802 		and	r2, r3, #8
 814 0030 002A     		cmp	r2, #0
 815 0032 14BF     		ite	ne
 816 0034 5422     		movne	r2, #84
 817 0036 4422     		moveq	r2, #68
 818 0038 0092     		str	r2, [sp]
 819 003a 14BF     		ite	ne
 820 003c 7422     		movne	r2, #116
 821 003e 6422     		moveq	r2, #100
 822 0040 0792     		str	r2, [sp, #28]
 823 0042 14BF     		ite	ne
 824 0044 3422     		movne	r2, #52
 825 0046 2422     		moveq	r2, #36
 826 0048 0392     		str	r2, [sp, #12]
 827 004a 14BF     		ite	ne
 828 004c 5C22     		movne	r2, #92
 829 004e 4C22     		moveq	r2, #76
 830 0050 0192     		str	r2, [sp, #4]
 831 0052 14BF     		ite	ne
 832 0054 7C22     		movne	r2, #124
 833 0056 6C22     		moveq	r2, #108
 834 0058 0292     		str	r2, [sp, #8]
 835 005a 14BF     		ite	ne
 836 005c 3C22     		movne	r2, #60
 837 005e 2C22     		moveq	r2, #44
 838 0060 0692     		str	r2, [sp, #24]
 839 0062 14BF     		ite	ne
 840 0064 1C22     		movne	r2, #28
 841 0066 0C22     		moveq	r2, #12
 842 0068 0492     		str	r2, [sp, #16]
 843 006a 14BF     		ite	ne
 844 006c 1422     		movne	r2, #20
 845 006e 0422     		moveq	r2, #4
 846 0070 0592     		str	r2, [sp, #20]
 847 0072 15BF     		itete	ne
 848 0074 5021     		movne	r1, #80
 849 0076 4021     		moveq	r1, #64
 850 0078 4FF0700C 		movne	ip, #112
 851 007c 4FF0600C 		moveq	ip, #96
 852 0080 15BF     		itete	ne
 853 0082 3020     		movne	r0, #48
 854 0084 2020     		moveq	r0, #32
 855 0086 4FF0580B 		movne	fp, #88
ARM GAS  /tmp/ccASpQiv.s 			page 16


 856 008a 4FF0480B 		moveq	fp, #72
 857 008e 15BF     		itete	ne
 858 0090 4FF0780A 		movne	r10, #120
 859 0094 4FF0680A 		moveq	r10, #104
 860 0098 4FF03809 		movne	r9, #56
 861 009c 4FF02809 		moveq	r9, #40
 862 00a0 15BF     		itete	ne
 863 00a2 4FF0180E 		movne	lr, #24
 864 00a6 4FF0080E 		moveq	lr, #8
 865 00aa 1022     		movne	r2, #16
 866 00ac 0022     		moveq	r2, #0
 867              	.LVL55:
 868              		.loc 1 169 0
 869 00ae 13F0010F 		tst	r3, #1
 870 00b2 09D0     		beq	.L89
 871 00b4 DDE901BA 		ldrd	fp, r10, [sp, #4]
 872              		.loc 1 170 0
 873 00b8 DDE904E2 		ldrd	lr, r2, [sp, #16]
 874              	.LVL56:
 875              		.loc 1 169 0
 876 00bc 0099     		ldr	r1, [sp]
 877 00be DDF81CC0 		ldr	ip, [sp, #28]
 878 00c2 0398     		ldr	r0, [sp, #12]
 879 00c4 DDF81890 		ldr	r9, [sp, #24]
 880              	.LVL57:
 881              	.L89:
 882              		.loc 1 171 0
 883 00c8 13F0020F 		tst	r3, #2
 884 00cc 03D0     		beq	.L90
 885 00ce 5946     		mov	r1, fp
 886 00d0 D446     		mov	ip, r10
 887 00d2 4846     		mov	r0, r9
 888              		.loc 1 172 0
 889 00d4 7246     		mov	r2, lr
 890              	.LVL58:
 891              	.L90:
 892              		.loc 1 173 0
 893 00d6 03F0040E 		and	lr, r3, #4
 894 00da BEF1000F 		cmp	lr, #0
 895 00de 1CBF     		itt	ne
 896 00e0 0246     		movne	r2, r0
 897              	.LVL59:
 898 00e2 6146     		movne	r1, ip
 899              		.loc 1 175 0
 900 00e4 13F4807F 		tst	r3, #256
 901              	.LBE333:
 902              	.LBE332:
 903              		.loc 1 344 0
 904 00e8 08BF     		it	eq
 905 00ea 1146     		moveq	r1, r2
 906 00ec 1848     		ldr	r0, .L120
 907 00ee C047     		blx	r8
 908              	.LVL60:
 909              	.L87:
 910              	.LBB334:
 911              	.LBB335:
 912              	.LBB336:
ARM GAS  /tmp/ccASpQiv.s 			page 17


 913              	.LBB337:
 914              	.LBB338:
 915              	.LBB339:
 916              		.loc 2 493 0
 917 00f0 2023     		movs	r3, #32
 918              		.syntax unified
 919              	@ 493 "./RM18A-ChibiOS18-Core/chibios/os/common/ext/ARM/CMSIS/Core/Include/cmsis_gcc.h" 1
 920 00f2 83F31188 		MSR basepri, r3
 921              	@ 0 "" 2
 922              	.LVL61:
 923              		.thumb
 924              		.syntax unified
 925              	.LBE339:
 926              	.LBE338:
 927              	.LBE337:
 928              	.LBE336:
 929              	.LBE335:
 930              	.LBE334:
 931              	.LBB340:
 932              	.LBB341:
 933              		.loc 3 775 0
 934 00f6 6FF00101 		mvn	r1, #1
 935 00fa 1648     		ldr	r0, .L120+4
 936 00fc FFF7FEFF 		bl	chThdResumeI
 937              	.LVL62:
 938              	.LBE341:
 939              	.LBE340:
 940              	.LBB342:
 941              	.LBB343:
 942              	.LBB344:
 943              	.LBB345:
 944              	.LBB346:
 945              	.LBB347:
 946              		.loc 2 493 0
 947 0100 0023     		movs	r3, #0
 948              		.syntax unified
 949              	@ 493 "./RM18A-ChibiOS18-Core/chibios/os/common/ext/ARM/CMSIS/Core/Include/cmsis_gcc.h" 1
 950 0102 83F31188 		MSR basepri, r3
 951              	@ 0 "" 2
 952              	.LVL63:
 953              		.thumb
 954              		.syntax unified
 955              	.L86:
 956              	.LBE347:
 957              	.LBE346:
 958              	.LBE345:
 959              	.LBE344:
 960              	.LBE343:
 961              	.LBE342:
 962              		.loc 1 347 0
 963 0106 6A06     		lsls	r2, r5, #25
 964 0108 0ED5     		bpl	.L94
 965 010a 7B06     		lsls	r3, r7, #25
 966 010c 0CD5     		bpl	.L94
 967              		.loc 1 353 0
 968 010e 7368     		ldr	r3, [r6, #4]
 969 0110 5B68     		ldr	r3, [r3, #4]
ARM GAS  /tmp/ccASpQiv.s 			page 18


 970              		.loc 1 350 0
 971 0112 27F04007 		bic	r7, r7, #64
 972              	.LVL64:
 973              		.loc 1 349 0
 974 0116 6FF04002 		mvn	r2, #64
 975 011a 2260     		str	r2, [r4]
 976              		.loc 1 350 0
 977 011c E760     		str	r7, [r4, #12]
 978              		.loc 1 353 0
 979 011e 0BB1     		cbz	r3, .L96
 980 0120 0B48     		ldr	r0, .L120
 981 0122 9847     		blx	r3
 982              	.LVL65:
 983              	.L96:
 984 0124 347A     		ldrb	r4, [r6, #8]	@ zero_extendqisi2
 985              	.LVL66:
 986 0126 24B1     		cbz	r4, .L119
 987              	.L94:
 988              	.LVL67:
 989              	.LBE362:
 990              	.LBE364:
 991              		.loc 1 472 0
 992 0128 09B0     		add	sp, sp, #36
 993              		.cfi_remember_state
 994              		.cfi_def_cfa_offset 36
 995              		@ sp needed
 996 012a BDE8F04F 		pop	{r4, r5, r6, r7, r8, r9, r10, fp, lr}
 997              		.cfi_restore 14
 998              		.cfi_restore 11
 999              		.cfi_restore 10
 1000              		.cfi_restore 9
 1001              		.cfi_restore 8
 1002              		.cfi_restore 7
 1003              		.cfi_restore 6
 1004              		.cfi_restore 5
 1005              		.cfi_restore 4
 1006              		.cfi_def_cfa_offset 0
 1007              		.loc 1 471 0
 1008 012e FFF7FEBF 		b	_port_irq_epilogue
 1009              	.LVL68:
 1010              	.L119:
 1011              		.cfi_restore_state
 1012              	.LBB365:
 1013              	.LBB363:
 1014              	.LBB348:
 1015              	.LBB349:
 1016              	.LBB350:
 1017              	.LBB351:
 1018              	.LBB352:
 1019              	.LBB353:
 1020              		.loc 2 493 0
 1021 0132 2023     		movs	r3, #32
 1022              		.syntax unified
 1023              	@ 493 "./RM18A-ChibiOS18-Core/chibios/os/common/ext/ARM/CMSIS/Core/Include/cmsis_gcc.h" 1
 1024 0134 83F31188 		MSR basepri, r3
 1025              	@ 0 "" 2
 1026              	.LVL69:
ARM GAS  /tmp/ccASpQiv.s 			page 19


 1027              		.thumb
 1028              		.syntax unified
 1029              	.LBE353:
 1030              	.LBE352:
 1031              	.LBE351:
 1032              	.LBE350:
 1033              	.LBE349:
 1034              	.LBE348:
 1035              	.LBB354:
 1036              	.LBB355:
 1037              		.loc 3 775 0
 1038 0138 0748     		ldr	r0, .L120+8
 1039 013a 2146     		mov	r1, r4
 1040 013c FFF7FEFF 		bl	chThdResumeI
 1041              	.LVL70:
 1042              	.LBE355:
 1043              	.LBE354:
 1044              	.LBB356:
 1045              	.LBB357:
 1046              	.LBB358:
 1047              	.LBB359:
 1048              	.LBB360:
 1049              	.LBB361:
 1050              		.loc 2 493 0
 1051              		.syntax unified
 1052              	@ 493 "./RM18A-ChibiOS18-Core/chibios/os/common/ext/ARM/CMSIS/Core/Include/cmsis_gcc.h" 1
 1053 0140 84F31188 		MSR basepri, r4
 1054              	@ 0 "" 2
 1055              	.LVL71:
 1056              		.thumb
 1057              		.syntax unified
 1058              	.LBE361:
 1059              	.LBE360:
 1060              	.LBE359:
 1061              	.LBE358:
 1062              	.LBE357:
 1063              	.LBE356:
 1064              	.LBE363:
 1065              	.LBE365:
 1066              		.loc 1 472 0
 1067 0144 09B0     		add	sp, sp, #36
 1068              		.cfi_def_cfa_offset 36
 1069              		@ sp needed
 1070 0146 BDE8F04F 		pop	{r4, r5, r6, r7, r8, r9, r10, fp, lr}
 1071              		.cfi_restore 14
 1072              		.cfi_restore 11
 1073              		.cfi_restore 10
 1074              		.cfi_restore 9
 1075              		.cfi_restore 8
 1076              		.cfi_restore 7
 1077              		.cfi_restore 6
 1078              		.cfi_restore 5
 1079              		.cfi_restore 4
 1080              		.cfi_def_cfa_offset 0
 1081              		.loc 1 471 0
 1082 014a FFF7FEBF 		b	_port_irq_epilogue
 1083              	.LVL72:
ARM GAS  /tmp/ccASpQiv.s 			page 20


 1084              	.L121:
 1085 014e 00BF     		.align	2
 1086              	.L120:
 1087 0150 00000000 		.word	.LANCHOR1
 1088 0154 0C000000 		.word	.LANCHOR1+12
 1089 0158 10000000 		.word	.LANCHOR1+16
 1090              		.cfi_endproc
 1091              	.LFE335:
 1092              		.size	Vector15C, .-Vector15C
 1093              		.section	.text.Vector18C,"ax",%progbits
 1094              		.align	1
 1095              		.p2align 2,,3
 1096              		.global	Vector18C
 1097              		.syntax unified
 1098              		.thumb
 1099              		.thumb_func
 1100              		.fpu fpv4-sp-d16
 1101              		.type	Vector18C, %function
 1102              	Vector18C:
 1103              	.LFB336:
 1104              		.loc 1 503 0
 1105              		.cfi_startproc
 1106              		@ args = 0, pretend = 0, frame = 32
 1107              		@ frame_needed = 0, uses_anonymous_args = 0
 1108              	.LVL73:
 1109 0000 2DE9F04F 		push	{r4, r5, r6, r7, r8, r9, r10, fp, lr}
 1110              		.cfi_def_cfa_offset 36
 1111              		.cfi_offset 4, -36
 1112              		.cfi_offset 5, -32
 1113              		.cfi_offset 6, -28
 1114              		.cfi_offset 7, -24
 1115              		.cfi_offset 8, -20
 1116              		.cfi_offset 9, -16
 1117              		.cfi_offset 10, -12
 1118              		.cfi_offset 11, -8
 1119              		.cfi_offset 14, -4
 1120              	.LBB398:
 1121              	.LBB399:
 1122              		.loc 1 331 0
 1123 0004 524E     		ldr	r6, .L157
 1124 0006 7469     		ldr	r4, [r6, #20]
 1125              	.LVL74:
 1126              		.loc 1 332 0
 1127 0008 E768     		ldr	r7, [r4, #12]
 1128              	.LVL75:
 1129              		.loc 1 334 0
 1130 000a 2568     		ldr	r5, [r4]
 1131              	.LVL76:
 1132              		.loc 1 335 0
 1133 000c 6368     		ldr	r3, [r4, #4]
 1134              		.loc 1 337 0
 1135 000e 40F21F13 		movw	r3, #287
 1136 0012 1D42     		tst	r5, r3
 1137              	.LBE399:
 1138              	.LBE398:
 1139              		.loc 1 503 0
 1140 0014 89B0     		sub	sp, sp, #36
ARM GAS  /tmp/ccASpQiv.s 			page 21


 1141              		.cfi_def_cfa_offset 72
 1142              	.LBB432:
 1143              	.LBB430:
 1144              		.loc 1 337 0
 1145 0016 76D0     		beq	.L123
 1146              		.loc 1 344 0
 1147 0018 7368     		ldr	r3, [r6, #4]
 1148 001a D3F81080 		ldr	r8, [r3, #16]
 1149              		.loc 1 343 0
 1150 001e 6FF48073 		mvn	r3, #256
 1151 0022 2360     		str	r3, [r4]
 1152              		.loc 1 344 0
 1153 0024 B8F1000F 		cmp	r8, #0
 1154 0028 62D0     		beq	.L124
 1155              		.loc 1 334 0
 1156 002a ABB2     		uxth	r3, r5
 1157              	.LVL77:
 1158              	.LBB400:
 1159              	.LBB401:
 1160              		.loc 1 167 0
 1161 002c 03F00802 		and	r2, r3, #8
 1162 0030 002A     		cmp	r2, #0
 1163 0032 14BF     		ite	ne
 1164 0034 5422     		movne	r2, #84
 1165 0036 4422     		moveq	r2, #68
 1166 0038 0092     		str	r2, [sp]
 1167 003a 14BF     		ite	ne
 1168 003c 7422     		movne	r2, #116
 1169 003e 6422     		moveq	r2, #100
 1170 0040 0792     		str	r2, [sp, #28]
 1171 0042 14BF     		ite	ne
 1172 0044 3422     		movne	r2, #52
 1173 0046 2422     		moveq	r2, #36
 1174 0048 0392     		str	r2, [sp, #12]
 1175 004a 14BF     		ite	ne
 1176 004c 5C22     		movne	r2, #92
 1177 004e 4C22     		moveq	r2, #76
 1178 0050 0192     		str	r2, [sp, #4]
 1179 0052 14BF     		ite	ne
 1180 0054 7C22     		movne	r2, #124
 1181 0056 6C22     		moveq	r2, #108
 1182 0058 0292     		str	r2, [sp, #8]
 1183 005a 14BF     		ite	ne
 1184 005c 3C22     		movne	r2, #60
 1185 005e 2C22     		moveq	r2, #44
 1186 0060 0692     		str	r2, [sp, #24]
 1187 0062 14BF     		ite	ne
 1188 0064 1C22     		movne	r2, #28
 1189 0066 0C22     		moveq	r2, #12
 1190 0068 0492     		str	r2, [sp, #16]
 1191 006a 14BF     		ite	ne
 1192 006c 1422     		movne	r2, #20
 1193 006e 0422     		moveq	r2, #4
 1194 0070 0592     		str	r2, [sp, #20]
 1195 0072 15BF     		itete	ne
 1196 0074 5021     		movne	r1, #80
 1197 0076 4021     		moveq	r1, #64
ARM GAS  /tmp/ccASpQiv.s 			page 22


 1198 0078 4FF0700C 		movne	ip, #112
 1199 007c 4FF0600C 		moveq	ip, #96
 1200 0080 15BF     		itete	ne
 1201 0082 3020     		movne	r0, #48
 1202 0084 2020     		moveq	r0, #32
 1203 0086 4FF0580B 		movne	fp, #88
 1204 008a 4FF0480B 		moveq	fp, #72
 1205 008e 15BF     		itete	ne
 1206 0090 4FF0780A 		movne	r10, #120
 1207 0094 4FF0680A 		moveq	r10, #104
 1208 0098 4FF03809 		movne	r9, #56
 1209 009c 4FF02809 		moveq	r9, #40
 1210 00a0 15BF     		itete	ne
 1211 00a2 4FF0180E 		movne	lr, #24
 1212 00a6 4FF0080E 		moveq	lr, #8
 1213 00aa 1022     		movne	r2, #16
 1214 00ac 0022     		moveq	r2, #0
 1215              	.LVL78:
 1216              		.loc 1 169 0
 1217 00ae 13F0010F 		tst	r3, #1
 1218 00b2 09D0     		beq	.L126
 1219 00b4 DDE901BA 		ldrd	fp, r10, [sp, #4]
 1220              		.loc 1 170 0
 1221 00b8 DDE904E2 		ldrd	lr, r2, [sp, #16]
 1222              	.LVL79:
 1223              		.loc 1 169 0
 1224 00bc 0099     		ldr	r1, [sp]
 1225 00be DDF81CC0 		ldr	ip, [sp, #28]
 1226 00c2 0398     		ldr	r0, [sp, #12]
 1227 00c4 DDF81890 		ldr	r9, [sp, #24]
 1228              	.LVL80:
 1229              	.L126:
 1230              		.loc 1 171 0
 1231 00c8 13F0020F 		tst	r3, #2
 1232 00cc 03D0     		beq	.L127
 1233 00ce 5946     		mov	r1, fp
 1234 00d0 D446     		mov	ip, r10
 1235 00d2 4846     		mov	r0, r9
 1236              		.loc 1 172 0
 1237 00d4 7246     		mov	r2, lr
 1238              	.LVL81:
 1239              	.L127:
 1240              		.loc 1 173 0
 1241 00d6 03F0040E 		and	lr, r3, #4
 1242 00da BEF1000F 		cmp	lr, #0
 1243 00de 1CBF     		itt	ne
 1244 00e0 0246     		movne	r2, r0
 1245              	.LVL82:
 1246 00e2 6146     		movne	r1, ip
 1247              		.loc 1 175 0
 1248 00e4 13F4807F 		tst	r3, #256
 1249              	.LBE401:
 1250              	.LBE400:
 1251              		.loc 1 344 0
 1252 00e8 08BF     		it	eq
 1253 00ea 1146     		moveq	r1, r2
 1254 00ec 1848     		ldr	r0, .L157
ARM GAS  /tmp/ccASpQiv.s 			page 23


 1255 00ee C047     		blx	r8
 1256              	.LVL83:
 1257              	.L124:
 1258              	.LBB402:
 1259              	.LBB403:
 1260              	.LBB404:
 1261              	.LBB405:
 1262              	.LBB406:
 1263              	.LBB407:
 1264              		.loc 2 493 0
 1265 00f0 2023     		movs	r3, #32
 1266              		.syntax unified
 1267              	@ 493 "./RM18A-ChibiOS18-Core/chibios/os/common/ext/ARM/CMSIS/Core/Include/cmsis_gcc.h" 1
 1268 00f2 83F31188 		MSR basepri, r3
 1269              	@ 0 "" 2
 1270              	.LVL84:
 1271              		.thumb
 1272              		.syntax unified
 1273              	.LBE407:
 1274              	.LBE406:
 1275              	.LBE405:
 1276              	.LBE404:
 1277              	.LBE403:
 1278              	.LBE402:
 1279              	.LBB408:
 1280              	.LBB409:
 1281              		.loc 3 775 0
 1282 00f6 6FF00101 		mvn	r1, #1
 1283 00fa 1648     		ldr	r0, .L157+4
 1284 00fc FFF7FEFF 		bl	chThdResumeI
 1285              	.LVL85:
 1286              	.LBE409:
 1287              	.LBE408:
 1288              	.LBB410:
 1289              	.LBB411:
 1290              	.LBB412:
 1291              	.LBB413:
 1292              	.LBB414:
 1293              	.LBB415:
 1294              		.loc 2 493 0
 1295 0100 0023     		movs	r3, #0
 1296              		.syntax unified
 1297              	@ 493 "./RM18A-ChibiOS18-Core/chibios/os/common/ext/ARM/CMSIS/Core/Include/cmsis_gcc.h" 1
 1298 0102 83F31188 		MSR basepri, r3
 1299              	@ 0 "" 2
 1300              	.LVL86:
 1301              		.thumb
 1302              		.syntax unified
 1303              	.L123:
 1304              	.LBE415:
 1305              	.LBE414:
 1306              	.LBE413:
 1307              	.LBE412:
 1308              	.LBE411:
 1309              	.LBE410:
 1310              		.loc 1 347 0
 1311 0106 6A06     		lsls	r2, r5, #25
ARM GAS  /tmp/ccASpQiv.s 			page 24


 1312 0108 0ED5     		bpl	.L131
 1313 010a 7B06     		lsls	r3, r7, #25
 1314 010c 0CD5     		bpl	.L131
 1315              		.loc 1 353 0
 1316 010e 7368     		ldr	r3, [r6, #4]
 1317 0110 5B68     		ldr	r3, [r3, #4]
 1318              		.loc 1 350 0
 1319 0112 27F04007 		bic	r7, r7, #64
 1320              	.LVL87:
 1321              		.loc 1 349 0
 1322 0116 6FF04002 		mvn	r2, #64
 1323 011a 2260     		str	r2, [r4]
 1324              		.loc 1 350 0
 1325 011c E760     		str	r7, [r4, #12]
 1326              		.loc 1 353 0
 1327 011e 0BB1     		cbz	r3, .L133
 1328 0120 0B48     		ldr	r0, .L157
 1329 0122 9847     		blx	r3
 1330              	.LVL88:
 1331              	.L133:
 1332 0124 347A     		ldrb	r4, [r6, #8]	@ zero_extendqisi2
 1333              	.LVL89:
 1334 0126 24B1     		cbz	r4, .L156
 1335              	.L131:
 1336              	.LVL90:
 1337              	.LBE430:
 1338              	.LBE432:
 1339              		.loc 1 510 0
 1340 0128 09B0     		add	sp, sp, #36
 1341              		.cfi_remember_state
 1342              		.cfi_def_cfa_offset 36
 1343              		@ sp needed
 1344 012a BDE8F04F 		pop	{r4, r5, r6, r7, r8, r9, r10, fp, lr}
 1345              		.cfi_restore 14
 1346              		.cfi_restore 11
 1347              		.cfi_restore 10
 1348              		.cfi_restore 9
 1349              		.cfi_restore 8
 1350              		.cfi_restore 7
 1351              		.cfi_restore 6
 1352              		.cfi_restore 5
 1353              		.cfi_restore 4
 1354              		.cfi_def_cfa_offset 0
 1355              		.loc 1 509 0
 1356 012e FFF7FEBF 		b	_port_irq_epilogue
 1357              	.LVL91:
 1358              	.L156:
 1359              		.cfi_restore_state
 1360              	.LBB433:
 1361              	.LBB431:
 1362              	.LBB416:
 1363              	.LBB417:
 1364              	.LBB418:
 1365              	.LBB419:
 1366              	.LBB420:
 1367              	.LBB421:
 1368              		.loc 2 493 0
ARM GAS  /tmp/ccASpQiv.s 			page 25


 1369 0132 2023     		movs	r3, #32
 1370              		.syntax unified
 1371              	@ 493 "./RM18A-ChibiOS18-Core/chibios/os/common/ext/ARM/CMSIS/Core/Include/cmsis_gcc.h" 1
 1372 0134 83F31188 		MSR basepri, r3
 1373              	@ 0 "" 2
 1374              	.LVL92:
 1375              		.thumb
 1376              		.syntax unified
 1377              	.LBE421:
 1378              	.LBE420:
 1379              	.LBE419:
 1380              	.LBE418:
 1381              	.LBE417:
 1382              	.LBE416:
 1383              	.LBB422:
 1384              	.LBB423:
 1385              		.loc 3 775 0
 1386 0138 0748     		ldr	r0, .L157+8
 1387 013a 2146     		mov	r1, r4
 1388 013c FFF7FEFF 		bl	chThdResumeI
 1389              	.LVL93:
 1390              	.LBE423:
 1391              	.LBE422:
 1392              	.LBB424:
 1393              	.LBB425:
 1394              	.LBB426:
 1395              	.LBB427:
 1396              	.LBB428:
 1397              	.LBB429:
 1398              		.loc 2 493 0
 1399              		.syntax unified
 1400              	@ 493 "./RM18A-ChibiOS18-Core/chibios/os/common/ext/ARM/CMSIS/Core/Include/cmsis_gcc.h" 1
 1401 0140 84F31188 		MSR basepri, r4
 1402              	@ 0 "" 2
 1403              	.LVL94:
 1404              		.thumb
 1405              		.syntax unified
 1406              	.LBE429:
 1407              	.LBE428:
 1408              	.LBE427:
 1409              	.LBE426:
 1410              	.LBE425:
 1411              	.LBE424:
 1412              	.LBE431:
 1413              	.LBE433:
 1414              		.loc 1 510 0
 1415 0144 09B0     		add	sp, sp, #36
 1416              		.cfi_def_cfa_offset 36
 1417              		@ sp needed
 1418 0146 BDE8F04F 		pop	{r4, r5, r6, r7, r8, r9, r10, fp, lr}
 1419              		.cfi_restore 14
 1420              		.cfi_restore 11
 1421              		.cfi_restore 10
 1422              		.cfi_restore 9
 1423              		.cfi_restore 8
 1424              		.cfi_restore 7
 1425              		.cfi_restore 6
ARM GAS  /tmp/ccASpQiv.s 			page 26


 1426              		.cfi_restore 5
 1427              		.cfi_restore 4
 1428              		.cfi_def_cfa_offset 0
 1429              		.loc 1 509 0
 1430 014a FFF7FEBF 		b	_port_irq_epilogue
 1431              	.LVL95:
 1432              	.L158:
 1433 014e 00BF     		.align	2
 1434              	.L157:
 1435 0150 00000000 		.word	.LANCHOR2
 1436 0154 0C000000 		.word	.LANCHOR2+12
 1437 0158 10000000 		.word	.LANCHOR2+16
 1438              		.cfi_endproc
 1439              	.LFE336:
 1440              		.size	Vector18C, .-Vector18C
 1441              		.section	.text.uart_lld_init,"ax",%progbits
 1442              		.align	1
 1443              		.p2align 2,,3
 1444              		.global	uart_lld_init
 1445              		.syntax unified
 1446              		.thumb
 1447              		.thumb_func
 1448              		.fpu fpv4-sp-d16
 1449              		.type	uart_lld_init, %function
 1450              	uart_lld_init:
 1451              	.LFB337:
 1452              		.loc 1 522 0
 1453              		.cfi_startproc
 1454              		@ args = 0, pretend = 0, frame = 0
 1455              		@ frame_needed = 0, uses_anonymous_args = 0
 1456 0000 2DE9F041 		push	{r4, r5, r6, r7, r8, lr}
 1457              		.cfi_def_cfa_offset 24
 1458              		.cfi_offset 4, -24
 1459              		.cfi_offset 5, -20
 1460              		.cfi_offset 6, -16
 1461              		.cfi_offset 7, -12
 1462              		.cfi_offset 8, -8
 1463              		.cfi_offset 14, -4
 1464              		.loc 1 525 0
 1465 0004 0F4E     		ldr	r6, .L161
 1466              		.loc 1 565 0
 1467 0006 104F     		ldr	r7, .L161+4
 1468              		.loc 1 580 0
 1469 0008 104D     		ldr	r5, .L161+8
 1470              		.loc 1 525 0
 1471 000a 3046     		mov	r0, r6
 1472 000c FFF7FEFF 		bl	uartObjectInit
 1473              	.LVL96:
 1474              		.loc 1 528 0
 1475 0010 0024     		movs	r4, #0
 1476              		.loc 1 526 0
 1477 0012 0F4B     		ldr	r3, .L161+12
 1478 0014 7361     		str	r3, [r6, #20]
 1479              		.loc 1 527 0
 1480 0016 4FF00608 		mov	r8, #6
 1481              		.loc 1 565 0
 1482 001a 3846     		mov	r0, r7
ARM GAS  /tmp/ccASpQiv.s 			page 27


 1483              		.loc 1 528 0
 1484 001c C6E90684 		strd	r8, r4, [r6, #24]
 1485              		.loc 1 529 0
 1486 0020 3462     		str	r4, [r6, #32]
 1487              		.loc 1 565 0
 1488 0022 FFF7FEFF 		bl	uartObjectInit
 1489              	.LVL97:
 1490              		.loc 1 566 0
 1491 0026 0B4B     		ldr	r3, .L161+16
 1492 0028 7B61     		str	r3, [r7, #20]
 1493              		.loc 1 580 0
 1494 002a 2846     		mov	r0, r5
 1495              		.loc 1 567 0
 1496 002c FC61     		str	r4, [r7, #28]
 1497              		.loc 1 568 0
 1498 002e 3C62     		str	r4, [r7, #32]
 1499              		.loc 1 580 0
 1500 0030 FFF7FEFF 		bl	uartObjectInit
 1501              	.LVL98:
 1502              		.loc 1 581 0
 1503 0034 084B     		ldr	r3, .L161+20
 1504              		.loc 1 584 0
 1505 0036 2C62     		str	r4, [r5, #32]
 1506              		.loc 1 583 0
 1507 0038 C5E90684 		strd	r8, r4, [r5, #24]
 1508              		.loc 1 581 0
 1509 003c 6B61     		str	r3, [r5, #20]
 1510              		.loc 1 586 0
 1511 003e BDE8F081 		pop	{r4, r5, r6, r7, r8, pc}
 1512              	.L162:
 1513 0042 00BF     		.align	2
 1514              	.L161:
 1515 0044 00000000 		.word	.LANCHOR0
 1516 0048 00000000 		.word	.LANCHOR1
 1517 004c 00000000 		.word	.LANCHOR2
 1518 0050 00100140 		.word	1073811456
 1519 0054 00140140 		.word	1073812480
 1520 0058 007C0040 		.word	1073773568
 1521              		.cfi_endproc
 1522              	.LFE337:
 1523              		.size	uart_lld_init, .-uart_lld_init
 1524              		.section	.text.uart_lld_start,"ax",%progbits
 1525              		.align	1
 1526              		.p2align 2,,3
 1527              		.global	uart_lld_start
 1528              		.syntax unified
 1529              		.thumb
 1530              		.thumb_func
 1531              		.fpu fpv4-sp-d16
 1532              		.type	uart_lld_start, %function
 1533              	uart_lld_start:
 1534              	.LFB338:
 1535              		.loc 1 595 0
 1536              		.cfi_startproc
 1537              		@ args = 0, pretend = 0, frame = 0
 1538              		@ frame_needed = 0, uses_anonymous_args = 0
 1539              	.LVL99:
ARM GAS  /tmp/ccASpQiv.s 			page 28


 1540 0000 F8B5     		push	{r3, r4, r5, r6, r7, lr}
 1541              		.cfi_def_cfa_offset 24
 1542              		.cfi_offset 3, -24
 1543              		.cfi_offset 4, -20
 1544              		.cfi_offset 5, -16
 1545              		.cfi_offset 6, -12
 1546              		.cfi_offset 7, -8
 1547              		.cfi_offset 14, -4
 1548              		.loc 1 597 0
 1549 0002 0378     		ldrb	r3, [r0]	@ zero_extendqisi2
 1550 0004 012B     		cmp	r3, #1
 1551              		.loc 1 595 0
 1552 0006 0446     		mov	r4, r0
 1553              		.loc 1 597 0
 1554 0008 71D0     		beq	.L164
 1555 000a D0E907C7 		ldrd	ip, r7, [r0, #28]
 1556 000e 4668     		ldr	r6, [r0, #4]
 1557 0010 DCF80020 		ldr	r2, [ip]
 1558 0014 358B     		ldrh	r5, [r6, #24]
 1559 0016 3868     		ldr	r0, [r7]
 1560              	.LVL100:
 1561 0018 6169     		ldr	r1, [r4, #20]
 1562              	.L165:
 1563              	.LBB440:
 1564              	.LBB441:
 1565              	.LBB442:
 1566              	.LBB443:
 1567              		.loc 1 209 0
 1568 001a 1368     		ldr	r3, [r2]
 1569              	.LBE443:
 1570              	.LBE442:
 1571              	.LBE441:
 1572              	.LBE440:
 1573              		.loc 1 791 0
 1574 001c 4FF0000E 		mov	lr, #0
 1575              	.LBB467:
 1576              	.LBB464:
 1577              	.LBB448:
 1578              	.LBB444:
 1579              		.loc 1 209 0
 1580 0020 23F01F03 		bic	r3, r3, #31
 1581              	.LBE444:
 1582              	.LBE448:
 1583              	.LBE464:
 1584              	.LBE467:
 1585              		.loc 1 791 0
 1586 0024 84F802E0 		strb	lr, [r4, #2]
 1587              		.loc 1 792 0
 1588 0028 84F801E0 		strb	lr, [r4, #1]
 1589              	.LVL101:
 1590              	.LBB468:
 1591              	.LBB465:
 1592              	.LBB449:
 1593              	.LBB445:
 1594              		.loc 1 209 0
 1595 002c 1360     		str	r3, [r2]
 1596              	.L170:
ARM GAS  /tmp/ccASpQiv.s 			page 29


 1597 002e 1368     		ldr	r3, [r2]
 1598 0030 DB07     		lsls	r3, r3, #31
 1599 0032 FCD4     		bmi	.L170
 1600 0034 9CF809E0 		ldrb	lr, [ip, #9]	@ zero_extendqisi2
 1601 0038 DCF804C0 		ldr	ip, [ip, #4]
 1602 003c 3D23     		movs	r3, #61
 1603 003e 03FA0EF3 		lsl	r3, r3, lr
 1604 0042 CCF80030 		str	r3, [ip]
 1605              		.loc 1 210 0
 1606 0046 0368     		ldr	r3, [r0]
 1607 0048 23F01F03 		bic	r3, r3, #31
 1608 004c 0360     		str	r3, [r0]
 1609              	.L171:
 1610 004e 0368     		ldr	r3, [r0]
 1611 0050 13F00103 		ands	r3, r3, #1
 1612 0054 FBD1     		bne	.L171
 1613 0056 97F809E0 		ldrb	lr, [r7, #9]	@ zero_extendqisi2
 1614 005a D7F804C0 		ldr	ip, [r7, #4]
 1615              	.LBE445:
 1616              	.LBE449:
 1617              		.loc 1 234 0
 1618 005e 664F     		ldr	r7, .L187
 1619              	.LBB450:
 1620              	.LBB446:
 1621              		.loc 1 210 0
 1622 0060 3D20     		movs	r0, #61
 1623 0062 00FA0EF0 		lsl	r0, r0, lr
 1624              	.LBE446:
 1625              	.LBE450:
 1626              		.loc 1 234 0
 1627 0066 B942     		cmp	r1, r7
 1628              	.LBB451:
 1629              	.LBB447:
 1630              		.loc 1 210 0
 1631 0068 CCF80000 		str	r0, [ip]
 1632              		.loc 1 213 0
 1633 006c CB60     		str	r3, [r1, #12]
 1634              		.loc 1 214 0
 1635 006e 0B61     		str	r3, [r1, #16]
 1636              		.loc 1 215 0
 1637 0070 4B61     		str	r3, [r1, #20]
 1638              	.LVL102:
 1639              	.LBE447:
 1640              	.LBE451:
 1641              		.loc 1 234 0
 1642 0072 2FD0     		beq	.L182
 1643 0074 6148     		ldr	r0, .L187+4
 1644 0076 7369     		ldr	r3, [r6, #20]
 1645 0078 8142     		cmp	r1, r0
 1646 007a 2CD0     		beq	.L173
 1647              		.loc 1 240 0
 1648 007c 6048     		ldr	r0, .L187+8
 1649 007e B0FBF3F3 		udiv	r3, r0, r3
 1650              	.LVL103:
 1651              		.loc 1 246 0
 1652 0082 2804     		lsls	r0, r5, #16
 1653 0084 2CD4     		bmi	.L183
ARM GAS  /tmp/ccASpQiv.s 			page 30


 1654              	.L176:
 1655              	.LBB452:
 1656              	.LBB453:
 1657              		.loc 1 190 0
 1658 0086 F068     		ldr	r0, [r6, #12]
 1659              	.LBE453:
 1660              	.LBE452:
 1661              		.loc 1 258 0
 1662 0088 778B     		ldrh	r7, [r6, #26]
 1663              	.LBB459:
 1664              	.LBB454:
 1665              		.loc 1 196 0
 1666 008a D4F818C0 		ldr	ip, [r4, #24]
 1667              	.LBE454:
 1668              	.LBE459:
 1669              		.loc 1 259 0
 1670 008e B68B     		ldrh	r6, [r6, #28]
 1671              		.loc 1 249 0
 1672 0090 8B60     		str	r3, [r1, #8]
 1673              	.LBB460:
 1674              	.LBB455:
 1675              		.loc 1 191 0
 1676 0092 0028     		cmp	r0, #0
 1677              	.LBE455:
 1678              	.LBE460:
 1679              		.loc 1 254 0
 1680 0094 4FF00000 		mov	r0, #0
 1681              		.loc 1 252 0
 1682 0098 0B68     		ldr	r3, [r1]
 1683              	.LVL104:
 1684              		.loc 1 253 0
 1685 009a 4B68     		ldr	r3, [r1, #4]
 1686              		.loc 1 254 0
 1687 009c 0860     		str	r0, [r1]
 1688              	.LVL105:
 1689              		.loc 1 265 0
 1690 009e 45F40453 		orr	r3, r5, #8448
 1691              	.LBB461:
 1692              	.LBB456:
 1693              		.loc 1 191 0
 1694 00a2 14BF     		ite	ne
 1695 00a4 4FF48870 		movne	r0, #272
 1696 00a8 4FF48070 		moveq	r0, #256
 1697              	.LBE456:
 1698              	.LBE461:
 1699              		.loc 1 265 0
 1700 00ac 43F00C03 		orr	r3, r3, #12
 1701              		.loc 1 259 0
 1702 00b0 46F0C105 		orr	r5, r6, #193
 1703              		.loc 1 258 0
 1704 00b4 47F04007 		orr	r7, r7, #64
 1705              	.LBB462:
 1706              	.LBB457:
 1707              		.loc 1 195 0
 1708 00b8 0126     		movs	r6, #1
 1709              		.loc 1 194 0
 1710 00ba 2434     		adds	r4, r4, #36
ARM GAS  /tmp/ccASpQiv.s 			page 31


 1711              	.LVL106:
 1712              		.loc 1 196 0
 1713 00bc 40EA0C00 		orr	r0, r0, ip
 1714              	.LBE457:
 1715              	.LBE462:
 1716              		.loc 1 258 0
 1717 00c0 0F61     		str	r7, [r1, #16]
 1718              		.loc 1 259 0
 1719 00c2 4D61     		str	r5, [r1, #20]
 1720              	.LVL107:
 1721              		.loc 1 265 0
 1722 00c4 CB60     		str	r3, [r1, #12]
 1723              	.LVL108:
 1724              	.LBB463:
 1725              	.LBB458:
 1726              		.loc 1 194 0
 1727 00c6 D460     		str	r4, [r2, #12]
 1728              		.loc 1 195 0
 1729 00c8 5660     		str	r6, [r2, #4]
 1730              		.loc 1 196 0
 1731 00ca 1060     		str	r0, [r2]
 1732              		.loc 1 197 0
 1733 00cc 1368     		ldr	r3, [r2]
 1734 00ce 3343     		orrs	r3, r3, r6
 1735 00d0 1360     		str	r3, [r2]
 1736              	.LVL109:
 1737              	.LBE458:
 1738              	.LBE463:
 1739              	.LBE465:
 1740              	.LBE468:
 1741              		.loc 1 794 0
 1742 00d2 F8BD     		pop	{r3, r4, r5, r6, r7, pc}
 1743              	.LVL110:
 1744              	.L182:
 1745 00d4 7369     		ldr	r3, [r6, #20]
 1746              	.L173:
 1747              	.LBB469:
 1748              	.LBB466:
 1749              		.loc 1 238 0
 1750 00d6 4B48     		ldr	r0, .L187+12
 1751 00d8 B0FBF3F3 		udiv	r3, r0, r3
 1752              	.LVL111:
 1753              		.loc 1 246 0
 1754 00dc 2804     		lsls	r0, r5, #16
 1755 00de D2D5     		bpl	.L176
 1756              	.L183:
 1757              		.loc 1 247 0
 1758 00e0 23F00700 		bic	r0, r3, #7
 1759 00e4 03F00703 		and	r3, r3, #7
 1760              	.LVL112:
 1761 00e8 43EA4003 		orr	r3, r3, r0, lsl #1
 1762              	.LVL113:
 1763 00ec CBE7     		b	.L176
 1764              	.LVL114:
 1765              	.L164:
 1766              	.LBE466:
 1767              	.LBE469:
ARM GAS  /tmp/ccASpQiv.s 			page 32


 1768              		.loc 1 599 0
 1769 00ee 464B     		ldr	r3, .L187+16
 1770 00f0 9842     		cmp	r0, r3
 1771 00f2 60D0     		beq	.L184
 1772              		.loc 1 711 0
 1773 00f4 454B     		ldr	r3, .L187+20
 1774 00f6 9842     		cmp	r0, r3
 1775 00f8 3CD0     		beq	.L185
 1776              		.loc 1 757 0
 1777 00fa 454B     		ldr	r3, .L187+24
 1778 00fc 9842     		cmp	r0, r3
 1779 00fe 18D0     		beq	.L186
 1780              	.LVL115:
 1781              	.L167:
 1782              		.loc 1 784 0
 1783 0100 6668     		ldr	r6, [r4, #4]
 1784 0102 358B     		ldrh	r5, [r6, #24]
 1785 0104 05F4A053 		and	r3, r5, #5120
 1786 0108 B3F5805F 		cmp	r3, #4096
 1787 010c 03D1     		bne	.L169
 1788              		.loc 1 785 0
 1789 010e A369     		ldr	r3, [r4, #24]
 1790 0110 43F42053 		orr	r3, r3, #10240
 1791 0114 A361     		str	r3, [r4, #24]
 1792              	.L169:
 1793              		.loc 1 787 0
 1794 0116 D4E907C7 		ldrd	ip, r7, [r4, #28]
 1795              		.loc 1 786 0
 1796 011a 6169     		ldr	r1, [r4, #20]
 1797 011c DCF80020 		ldr	r2, [ip]
 1798              		.loc 1 787 0
 1799 0120 3868     		ldr	r0, [r7]
 1800              		.loc 1 786 0
 1801 0122 0B1D     		adds	r3, r1, #4
 1802              		.loc 1 788 0
 1803 0124 4FF0000E 		mov	lr, #0
 1804              		.loc 1 786 0
 1805 0128 9360     		str	r3, [r2, #8]
 1806              		.loc 1 787 0
 1807 012a 8360     		str	r3, [r0, #8]
 1808              		.loc 1 788 0
 1809 012c A4F824E0 		strh	lr, [r4, #36]	@ movhi
 1810 0130 73E7     		b	.L165
 1811              	.LVL116:
 1812              	.L186:
 1813              		.loc 1 764 0
 1814 0132 0346     		mov	r3, r0
 1815 0134 374A     		ldr	r2, .L187+28
 1816 0136 0C21     		movs	r1, #12
 1817 0138 0620     		movs	r0, #6
 1818              	.LVL117:
 1819 013a FFF7FEFF 		bl	dmaStreamAllocI
 1820              	.LVL118:
 1821              		.loc 1 769 0
 1822 013e 2346     		mov	r3, r4
 1823              		.loc 1 764 0
 1824 0140 E061     		str	r0, [r4, #28]
ARM GAS  /tmp/ccASpQiv.s 			page 33


 1825              		.loc 1 769 0
 1826 0142 354A     		ldr	r2, .L187+32
 1827 0144 0C21     		movs	r1, #12
 1828 0146 0020     		movs	r0, #0
 1829 0148 FFF7FEFF 		bl	dmaStreamAllocI
 1830              	.LVL119:
 1831              		.loc 1 775 0
 1832 014c 334B     		ldr	r3, .L187+36
 1833              		.loc 1 769 0
 1834 014e 2062     		str	r0, [r4, #32]
 1835              		.loc 1 775 0
 1836 0150 1A6C     		ldr	r2, [r3, #64]
 1837 0152 42F00042 		orr	r2, r2, #-2147483648
 1838 0156 1A64     		str	r2, [r3, #64]
 1839 0158 1A6E     		ldr	r2, [r3, #96]
 1840 015a 42F00042 		orr	r2, r2, #-2147483648
 1841 015e 1A66     		str	r2, [r3, #96]
 1842              		.loc 1 776 0
 1843 0160 0C21     		movs	r1, #12
 1844 0162 5320     		movs	r0, #83
 1845              		.loc 1 775 0
 1846 0164 1B6E     		ldr	r3, [r3, #96]
 1847              		.loc 1 776 0
 1848 0166 FFF7FEFF 		bl	nvicEnableVector
 1849              	.LVL120:
 1850              		.loc 1 777 0
 1851 016a A369     		ldr	r3, [r4, #24]
 1852 016c 43F02063 		orr	r3, r3, #167772160
 1853 0170 A361     		str	r3, [r4, #24]
 1854 0172 C5E7     		b	.L167
 1855              	.LVL121:
 1856              	.L185:
 1857              		.loc 1 712 0
 1858 0174 0346     		mov	r3, r0
 1859 0176 274A     		ldr	r2, .L187+28
 1860 0178 0C21     		movs	r1, #12
 1861 017a 0920     		movs	r0, #9
 1862              	.LVL122:
 1863 017c FFF7FEFF 		bl	dmaStreamAllocI
 1864              	.LVL123:
 1865              		.loc 1 717 0
 1866 0180 2346     		mov	r3, r4
 1867              		.loc 1 712 0
 1868 0182 E061     		str	r0, [r4, #28]
 1869              		.loc 1 717 0
 1870 0184 244A     		ldr	r2, .L187+32
 1871 0186 0C21     		movs	r1, #12
 1872 0188 0F20     		movs	r0, #15
 1873 018a FFF7FEFF 		bl	dmaStreamAllocI
 1874              	.LVL124:
 1875              		.loc 1 723 0
 1876 018e 234B     		ldr	r3, .L187+36
 1877              		.loc 1 717 0
 1878 0190 2062     		str	r0, [r4, #32]
 1879              		.loc 1 723 0
 1880 0192 5A6C     		ldr	r2, [r3, #68]
 1881 0194 42F02002 		orr	r2, r2, #32
ARM GAS  /tmp/ccASpQiv.s 			page 34


 1882 0198 5A64     		str	r2, [r3, #68]
 1883 019a 5A6E     		ldr	r2, [r3, #100]
 1884 019c 42F02002 		orr	r2, r2, #32
 1885 01a0 5A66     		str	r2, [r3, #100]
 1886              		.loc 1 724 0
 1887 01a2 0C21     		movs	r1, #12
 1888 01a4 4720     		movs	r0, #71
 1889              		.loc 1 723 0
 1890 01a6 5B6E     		ldr	r3, [r3, #100]
 1891              		.loc 1 724 0
 1892 01a8 FFF7FEFF 		bl	nvicEnableVector
 1893              	.LVL125:
 1894              		.loc 1 725 0
 1895 01ac A369     		ldr	r3, [r4, #24]
 1896 01ae 43F02063 		orr	r3, r3, #167772160
 1897 01b2 A361     		str	r3, [r4, #24]
 1898 01b4 A4E7     		b	.L167
 1899              	.LVL126:
 1900              	.L184:
 1901              		.loc 1 600 0
 1902 01b6 0346     		mov	r3, r0
 1903 01b8 164A     		ldr	r2, .L187+28
 1904 01ba 0C21     		movs	r1, #12
 1905 01bc 0A20     		movs	r0, #10
 1906              	.LVL127:
 1907 01be FFF7FEFF 		bl	dmaStreamAllocI
 1908              	.LVL128:
 1909              		.loc 1 605 0
 1910 01c2 2346     		mov	r3, r4
 1911              		.loc 1 600 0
 1912 01c4 E061     		str	r0, [r4, #28]
 1913              		.loc 1 605 0
 1914 01c6 144A     		ldr	r2, .L187+32
 1915 01c8 0C21     		movs	r1, #12
 1916 01ca 0F20     		movs	r0, #15
 1917 01cc FFF7FEFF 		bl	dmaStreamAllocI
 1918              	.LVL129:
 1919              		.loc 1 611 0
 1920 01d0 124B     		ldr	r3, .L187+36
 1921              		.loc 1 605 0
 1922 01d2 2062     		str	r0, [r4, #32]
 1923              		.loc 1 611 0
 1924 01d4 5A6C     		ldr	r2, [r3, #68]
 1925 01d6 42F01002 		orr	r2, r2, #16
 1926 01da 5A64     		str	r2, [r3, #68]
 1927 01dc 5A6E     		ldr	r2, [r3, #100]
 1928 01de 42F01002 		orr	r2, r2, #16
 1929 01e2 5A66     		str	r2, [r3, #100]
 1930              		.loc 1 612 0
 1931 01e4 0C21     		movs	r1, #12
 1932 01e6 2520     		movs	r0, #37
 1933              		.loc 1 611 0
 1934 01e8 5B6E     		ldr	r3, [r3, #100]
 1935              		.loc 1 612 0
 1936 01ea FFF7FEFF 		bl	nvicEnableVector
 1937              	.LVL130:
 1938              		.loc 1 613 0
ARM GAS  /tmp/ccASpQiv.s 			page 35


 1939 01ee A369     		ldr	r3, [r4, #24]
 1940 01f0 43F00063 		orr	r3, r3, #134217728
 1941 01f4 A361     		str	r3, [r4, #24]
 1942 01f6 83E7     		b	.L167
 1943              	.L188:
 1944              		.align	2
 1945              	.L187:
 1946 01f8 00100140 		.word	1073811456
 1947 01fc 00140140 		.word	1073812480
 1948 0200 80DE8002 		.word	42000000
 1949 0204 00BD0105 		.word	84000000
 1950 0208 00000000 		.word	.LANCHOR0
 1951 020c 00000000 		.word	.LANCHOR1
 1952 0210 00000000 		.word	.LANCHOR2
 1953 0214 00000000 		.word	uart_lld_serve_rx_end_irq
 1954 0218 00000000 		.word	uart_lld_serve_tx_end_irq
 1955 021c 00380240 		.word	1073887232
 1956              		.cfi_endproc
 1957              	.LFE338:
 1958              		.size	uart_lld_start, .-uart_lld_start
 1959              		.section	.text.uart_lld_stop,"ax",%progbits
 1960              		.align	1
 1961              		.p2align 2,,3
 1962              		.global	uart_lld_stop
 1963              		.syntax unified
 1964              		.thumb
 1965              		.thumb_func
 1966              		.fpu fpv4-sp-d16
 1967              		.type	uart_lld_stop, %function
 1968              	uart_lld_stop:
 1969              	.LFB339:
 1970              		.loc 1 803 0
 1971              		.cfi_startproc
 1972              		@ args = 0, pretend = 0, frame = 0
 1973              		@ frame_needed = 0, uses_anonymous_args = 0
 1974              	.LVL131:
 1975              		.loc 1 805 0
 1976 0000 0378     		ldrb	r3, [r0]	@ zero_extendqisi2
 1977 0002 022B     		cmp	r3, #2
 1978 0004 00D0     		beq	.L203
 1979 0006 7047     		bx	lr
 1980              	.L203:
 1981              	.LVL132:
 1982              	.LBB472:
 1983              	.LBB473:
 1984              		.loc 1 209 0
 1985 0008 C169     		ldr	r1, [r0, #28]
 1986 000a 0A68     		ldr	r2, [r1]
 1987 000c 1368     		ldr	r3, [r2]
 1988 000e 23F01F03 		bic	r3, r3, #31
 1989              	.LBE473:
 1990              	.LBE472:
 1991              		.loc 1 803 0
 1992 0012 70B5     		push	{r4, r5, r6, lr}
 1993              		.cfi_def_cfa_offset 16
 1994              		.cfi_offset 4, -16
 1995              		.cfi_offset 5, -12
ARM GAS  /tmp/ccASpQiv.s 			page 36


 1996              		.cfi_offset 6, -8
 1997              		.cfi_offset 14, -4
 1998              	.LBB476:
 1999              	.LBB474:
 2000              		.loc 1 209 0
 2001 0014 1360     		str	r3, [r2]
 2002              	.L192:
 2003 0016 1368     		ldr	r3, [r2]
 2004 0018 DB07     		lsls	r3, r3, #31
 2005 001a FCD4     		bmi	.L192
 2006 001c 4A7A     		ldrb	r2, [r1, #9]	@ zero_extendqisi2
 2007              		.loc 1 210 0
 2008 001e 066A     		ldr	r6, [r0, #32]
 2009              		.loc 1 209 0
 2010 0020 4C68     		ldr	r4, [r1, #4]
 2011 0022 3D23     		movs	r3, #61
 2012 0024 9340     		lsls	r3, r3, r2
 2013              		.loc 1 210 0
 2014 0026 3268     		ldr	r2, [r6]
 2015              		.loc 1 209 0
 2016 0028 2360     		str	r3, [r4]
 2017              		.loc 1 210 0
 2018 002a 1368     		ldr	r3, [r2]
 2019 002c 23F01F03 		bic	r3, r3, #31
 2020 0030 1360     		str	r3, [r2]
 2021              	.L193:
 2022 0032 1468     		ldr	r4, [r2]
 2023 0034 14F00104 		ands	r4, r4, #1
 2024 0038 FBD1     		bne	.L193
 2025 003a 0546     		mov	r5, r0
 2026 003c 707A     		ldrb	r0, [r6, #9]	@ zero_extendqisi2
 2027              	.LVL133:
 2028              		.loc 1 213 0
 2029 003e 6B69     		ldr	r3, [r5, #20]
 2030              		.loc 1 210 0
 2031 0040 7668     		ldr	r6, [r6, #4]
 2032 0042 3D22     		movs	r2, #61
 2033 0044 8240     		lsls	r2, r2, r0
 2034 0046 3260     		str	r2, [r6]
 2035              	.LBE474:
 2036              	.LBE476:
 2037              		.loc 1 807 0
 2038 0048 0846     		mov	r0, r1
 2039              	.LBB477:
 2040              	.LBB475:
 2041              		.loc 1 213 0
 2042 004a DC60     		str	r4, [r3, #12]
 2043              		.loc 1 214 0
 2044 004c 1C61     		str	r4, [r3, #16]
 2045              		.loc 1 215 0
 2046 004e 5C61     		str	r4, [r3, #20]
 2047              	.LVL134:
 2048              	.LBE475:
 2049              	.LBE477:
 2050              		.loc 1 807 0
 2051 0050 FFF7FEFF 		bl	dmaStreamFreeI
 2052              	.LVL135:
ARM GAS  /tmp/ccASpQiv.s 			page 37


 2053              		.loc 1 808 0
 2054 0054 286A     		ldr	r0, [r5, #32]
 2055 0056 FFF7FEFF 		bl	dmaStreamFreeI
 2056              	.LVL136:
 2057              		.loc 1 813 0
 2058 005a 1B4B     		ldr	r3, .L207
 2059 005c 9D42     		cmp	r5, r3
 2060              		.loc 1 810 0
 2061 005e C5E90744 		strd	r4, r4, [r5, #28]
 2062              		.loc 1 813 0
 2063 0062 06D0     		beq	.L204
 2064              		.loc 1 853 0
 2065 0064 194B     		ldr	r3, .L207+4
 2066 0066 9D42     		cmp	r5, r3
 2067 0068 1FD0     		beq	.L205
 2068              		.loc 1 869 0
 2069 006a 194B     		ldr	r3, .L207+8
 2070 006c 9D42     		cmp	r5, r3
 2071 006e 0ED0     		beq	.L206
 2072              		.loc 1 876 0
 2073 0070 70BD     		pop	{r4, r5, r6, pc}
 2074              	.LVL137:
 2075              	.L204:
 2076              		.loc 1 814 0
 2077 0072 2520     		movs	r0, #37
 2078 0074 FFF7FEFF 		bl	nvicDisableVector
 2079              	.LVL138:
 2080              		.loc 1 815 0
 2081 0078 164B     		ldr	r3, .L207+12
 2082 007a 5A6C     		ldr	r2, [r3, #68]
 2083 007c 22F01002 		bic	r2, r2, #16
 2084 0080 5A64     		str	r2, [r3, #68]
 2085 0082 5A6E     		ldr	r2, [r3, #100]
 2086 0084 22F01002 		bic	r2, r2, #16
 2087 0088 5A66     		str	r2, [r3, #100]
 2088 008a 5B6E     		ldr	r3, [r3, #100]
 2089              		.loc 1 876 0
 2090 008c 70BD     		pop	{r4, r5, r6, pc}
 2091              	.LVL139:
 2092              	.L206:
 2093              		.loc 1 870 0
 2094 008e 5320     		movs	r0, #83
 2095 0090 FFF7FEFF 		bl	nvicDisableVector
 2096              	.LVL140:
 2097              		.loc 1 871 0
 2098 0094 0F4B     		ldr	r3, .L207+12
 2099 0096 1A6C     		ldr	r2, [r3, #64]
 2100 0098 22F00042 		bic	r2, r2, #-2147483648
 2101 009c 1A64     		str	r2, [r3, #64]
 2102 009e 1A6E     		ldr	r2, [r3, #96]
 2103 00a0 22F00042 		bic	r2, r2, #-2147483648
 2104 00a4 1A66     		str	r2, [r3, #96]
 2105 00a6 1B6E     		ldr	r3, [r3, #96]
 2106              		.loc 1 876 0
 2107 00a8 70BD     		pop	{r4, r5, r6, pc}
 2108              	.LVL141:
 2109              	.L205:
ARM GAS  /tmp/ccASpQiv.s 			page 38


 2110              		.loc 1 854 0
 2111 00aa 4720     		movs	r0, #71
 2112 00ac FFF7FEFF 		bl	nvicDisableVector
 2113              	.LVL142:
 2114              		.loc 1 855 0
 2115 00b0 084B     		ldr	r3, .L207+12
 2116 00b2 5A6C     		ldr	r2, [r3, #68]
 2117 00b4 22F02002 		bic	r2, r2, #32
 2118 00b8 5A64     		str	r2, [r3, #68]
 2119 00ba 5A6E     		ldr	r2, [r3, #100]
 2120 00bc 22F02002 		bic	r2, r2, #32
 2121 00c0 5A66     		str	r2, [r3, #100]
 2122 00c2 5B6E     		ldr	r3, [r3, #100]
 2123              		.loc 1 876 0
 2124 00c4 70BD     		pop	{r4, r5, r6, pc}
 2125              	.LVL143:
 2126              	.L208:
 2127 00c6 00BF     		.align	2
 2128              	.L207:
 2129 00c8 00000000 		.word	.LANCHOR0
 2130 00cc 00000000 		.word	.LANCHOR1
 2131 00d0 00000000 		.word	.LANCHOR2
 2132 00d4 00380240 		.word	1073887232
 2133              		.cfi_endproc
 2134              	.LFE339:
 2135              		.size	uart_lld_stop, .-uart_lld_stop
 2136              		.section	.text.uart_lld_start_send,"ax",%progbits
 2137              		.align	1
 2138              		.p2align 2,,3
 2139              		.global	uart_lld_start_send
 2140              		.syntax unified
 2141              		.thumb
 2142              		.thumb_func
 2143              		.fpu fpv4-sp-d16
 2144              		.type	uart_lld_start_send, %function
 2145              	uart_lld_start_send:
 2146              	.LFB340:
 2147              		.loc 1 889 0
 2148              		.cfi_startproc
 2149              		@ args = 0, pretend = 0, frame = 0
 2150              		@ frame_needed = 0, uses_anonymous_args = 0
 2151              		@ link register save eliminated.
 2152              	.LVL144:
 2153 0000 30B4     		push	{r4, r5}
 2154              		.cfi_def_cfa_offset 8
 2155              		.cfi_offset 4, -8
 2156              		.cfi_offset 5, -4
 2157              		.loc 1 892 0
 2158 0002 036A     		ldr	r3, [r0, #32]
 2159              		.loc 1 901 0
 2160 0004 4568     		ldr	r5, [r0, #4]
 2161              		.loc 1 894 0
 2162 0006 8469     		ldr	r4, [r0, #24]
 2163              		.loc 1 892 0
 2164 0008 1B68     		ldr	r3, [r3]
 2165              		.loc 1 901 0
 2166 000a 6D68     		ldr	r5, [r5, #4]
ARM GAS  /tmp/ccASpQiv.s 			page 39


 2167              		.loc 1 892 0
 2168 000c DA60     		str	r2, [r3, #12]
 2169              		.loc 1 894 0
 2170 000e 44F48A64 		orr	r4, r4, #1104
 2171              		.loc 1 893 0
 2172 0012 5960     		str	r1, [r3, #4]
 2173              		.loc 1 894 0
 2174 0014 1C60     		str	r4, [r3]
 2175              		.loc 1 901 0
 2176 0016 6DB1     		cbz	r5, .L213
 2177              	.LVL145:
 2178              	.L210:
 2179              		.loc 1 905 0
 2180 0018 4269     		ldr	r2, [r0, #20]
 2181 001a 6FF04001 		mvn	r1, #64
 2182              	.LVL146:
 2183 001e 1160     		str	r1, [r2]
 2184              		.loc 1 906 0
 2185 0020 D168     		ldr	r1, [r2, #12]
 2186 0022 41F04001 		orr	r1, r1, #64
 2187 0026 D160     		str	r1, [r2, #12]
 2188              	.L211:
 2189              		.loc 1 910 0
 2190 0028 1A68     		ldr	r2, [r3]
 2191 002a 42F00102 		orr	r2, r2, #1
 2192 002e 1A60     		str	r2, [r3]
 2193              		.loc 1 911 0
 2194 0030 30BC     		pop	{r4, r5}
 2195              		.cfi_remember_state
 2196              		.cfi_restore 5
 2197              		.cfi_restore 4
 2198              		.cfi_def_cfa_offset 0
 2199 0032 7047     		bx	lr
 2200              	.LVL147:
 2201              	.L213:
 2202              		.cfi_restore_state
 2203              		.loc 1 901 0 discriminator 1
 2204 0034 027A     		ldrb	r2, [r0, #8]	@ zero_extendqisi2
 2205              	.LVL148:
 2206 0036 002A     		cmp	r2, #0
 2207 0038 EED0     		beq	.L210
 2208 003a F5E7     		b	.L211
 2209              		.cfi_endproc
 2210              	.LFE340:
 2211              		.size	uart_lld_start_send, .-uart_lld_start_send
 2212              		.section	.text.uart_lld_stop_send,"ax",%progbits
 2213              		.align	1
 2214              		.p2align 2,,3
 2215              		.global	uart_lld_stop_send
 2216              		.syntax unified
 2217              		.thumb
 2218              		.thumb_func
 2219              		.fpu fpv4-sp-d16
 2220              		.type	uart_lld_stop_send, %function
 2221              	uart_lld_stop_send:
 2222              	.LFB341:
 2223              		.loc 1 924 0
ARM GAS  /tmp/ccASpQiv.s 			page 40


 2224              		.cfi_startproc
 2225              		@ args = 0, pretend = 0, frame = 0
 2226              		@ frame_needed = 0, uses_anonymous_args = 0
 2227              		@ link register save eliminated.
 2228              	.LVL149:
 2229              		.loc 1 926 0
 2230 0000 016A     		ldr	r1, [r0, #32]
 2231 0002 0A68     		ldr	r2, [r1]
 2232 0004 1368     		ldr	r3, [r2]
 2233 0006 23F01F03 		bic	r3, r3, #31
 2234 000a 1360     		str	r3, [r2]
 2235              	.L215:
 2236              		.loc 1 926 0 is_stmt 0 discriminator 2
 2237 000c 1368     		ldr	r3, [r2]
 2238 000e DB07     		lsls	r3, r3, #31
 2239 0010 FCD4     		bmi	.L215
 2240              		.loc 1 926 0 discriminator 3
 2241 0012 487A     		ldrb	r0, [r1, #9]	@ zero_extendqisi2
 2242              	.LVL150:
 2243 0014 4968     		ldr	r1, [r1, #4]
 2244 0016 3D23     		movs	r3, #61
 2245 0018 8340     		lsls	r3, r3, r0
 2246 001a 0B60     		str	r3, [r1]
 2247              		.loc 1 928 0 is_stmt 1 discriminator 3
 2248 001c 5068     		ldr	r0, [r2, #4]
 2249              		.loc 1 929 0 discriminator 3
 2250 001e 7047     		bx	lr
 2251              		.cfi_endproc
 2252              	.LFE341:
 2253              		.size	uart_lld_stop_send, .-uart_lld_stop_send
 2254              		.section	.text.uart_lld_start_receive,"ax",%progbits
 2255              		.align	1
 2256              		.p2align 2,,3
 2257              		.global	uart_lld_start_receive
 2258              		.syntax unified
 2259              		.thumb
 2260              		.thumb_func
 2261              		.fpu fpv4-sp-d16
 2262              		.type	uart_lld_start_receive, %function
 2263              	uart_lld_start_receive:
 2264              	.LFB342:
 2265              		.loc 1 942 0
 2266              		.cfi_startproc
 2267              		@ args = 0, pretend = 0, frame = 0
 2268              		@ frame_needed = 0, uses_anonymous_args = 0
 2269              		@ link register save eliminated.
 2270              	.LVL151:
 2271 0000 70B4     		push	{r4, r5, r6}
 2272              		.cfi_def_cfa_offset 12
 2273              		.cfi_offset 4, -12
 2274              		.cfi_offset 5, -8
 2275              		.cfi_offset 6, -4
 2276              		.loc 1 945 0
 2277 0002 C569     		ldr	r5, [r0, #28]
 2278 0004 2B68     		ldr	r3, [r5]
 2279 0006 1C68     		ldr	r4, [r3]
 2280 0008 24F01F04 		bic	r4, r4, #31
ARM GAS  /tmp/ccASpQiv.s 			page 41


 2281 000c 1C60     		str	r4, [r3]
 2282              	.L218:
 2283              		.loc 1 945 0 is_stmt 0 discriminator 2
 2284 000e 1C68     		ldr	r4, [r3]
 2285 0010 E407     		lsls	r4, r4, #31
 2286 0012 FCD4     		bmi	.L218
 2287              		.loc 1 945 0 discriminator 3
 2288 0014 6E7A     		ldrb	r6, [r5, #9]	@ zero_extendqisi2
 2289 0016 6D68     		ldr	r5, [r5, #4]
 2290 0018 3D24     		movs	r4, #61
 2291 001a B440     		lsls	r4, r4, r6
 2292 001c 2C60     		str	r4, [r5]
 2293              		.loc 1 950 0 is_stmt 1 discriminator 3
 2294 001e 8069     		ldr	r0, [r0, #24]
 2295              	.LVL152:
 2296              		.loc 1 948 0 discriminator 3
 2297 0020 DA60     		str	r2, [r3, #12]
 2298              		.loc 1 950 0 discriminator 3
 2299 0022 40F48260 		orr	r0, r0, #1040
 2300              		.loc 1 949 0 discriminator 3
 2301 0026 5960     		str	r1, [r3, #4]
 2302              		.loc 1 950 0 discriminator 3
 2303 0028 1860     		str	r0, [r3]
 2304              		.loc 1 954 0 discriminator 3
 2305 002a 1A68     		ldr	r2, [r3]
 2306              	.LVL153:
 2307 002c 42F00102 		orr	r2, r2, #1
 2308 0030 1A60     		str	r2, [r3]
 2309              		.loc 1 955 0 discriminator 3
 2310 0032 70BC     		pop	{r4, r5, r6}
 2311              		.cfi_restore 6
 2312              		.cfi_restore 5
 2313              		.cfi_restore 4
 2314              		.cfi_def_cfa_offset 0
 2315 0034 7047     		bx	lr
 2316              		.cfi_endproc
 2317              	.LFE342:
 2318              		.size	uart_lld_start_receive, .-uart_lld_start_receive
 2319 0036 00BF     		.section	.text.uart_lld_stop_receive,"ax",%progbits
 2320              		.align	1
 2321              		.p2align 2,,3
 2322              		.global	uart_lld_stop_receive
 2323              		.syntax unified
 2324              		.thumb
 2325              		.thumb_func
 2326              		.fpu fpv4-sp-d16
 2327              		.type	uart_lld_stop_receive, %function
 2328              	uart_lld_stop_receive:
 2329              	.LFB343:
 2330              		.loc 1 968 0
 2331              		.cfi_startproc
 2332              		@ args = 0, pretend = 0, frame = 0
 2333              		@ frame_needed = 0, uses_anonymous_args = 0
 2334              		@ link register save eliminated.
 2335              	.LVL154:
 2336 0000 0146     		mov	r1, r0
 2337              		.loc 1 971 0
ARM GAS  /tmp/ccASpQiv.s 			page 42


 2338 0002 C069     		ldr	r0, [r0, #28]
 2339              	.LVL155:
 2340 0004 0368     		ldr	r3, [r0]
 2341 0006 1A68     		ldr	r2, [r3]
 2342 0008 22F01F02 		bic	r2, r2, #31
 2343              		.loc 1 968 0
 2344 000c 30B4     		push	{r4, r5}
 2345              		.cfi_def_cfa_offset 8
 2346              		.cfi_offset 4, -8
 2347              		.cfi_offset 5, -4
 2348              		.loc 1 971 0
 2349 000e 1A60     		str	r2, [r3]
 2350              	.L222:
 2351              		.loc 1 971 0 is_stmt 0 discriminator 2
 2352 0010 1A68     		ldr	r2, [r3]
 2353 0012 D207     		lsls	r2, r2, #31
 2354 0014 FCD4     		bmi	.L222
 2355              	.LBB478:
 2356              	.LBB479:
 2357              		.loc 1 190 0 is_stmt 1 discriminator 3
 2358 0016 4A68     		ldr	r2, [r1, #4]
 2359              	.LBE479:
 2360              	.LBE478:
 2361              		.loc 1 971 0 discriminator 3
 2362 0018 447A     		ldrb	r4, [r0, #9]	@ zero_extendqisi2
 2363              	.LBB483:
 2364              	.LBB480:
 2365              		.loc 1 190 0 discriminator 3
 2366 001a D568     		ldr	r5, [r2, #12]
 2367              	.LBE480:
 2368              	.LBE483:
 2369              		.loc 1 971 0 discriminator 3
 2370 001c 4068     		ldr	r0, [r0, #4]
 2371 001e 3D22     		movs	r2, #61
 2372 0020 A240     		lsls	r2, r2, r4
 2373 0022 0260     		str	r2, [r0]
 2374              	.LBB484:
 2375              	.LBB481:
 2376              		.loc 1 196 0 discriminator 3
 2377 0024 8C69     		ldr	r4, [r1, #24]
 2378              	.LBE481:
 2379              	.LBE484:
 2380              		.loc 1 972 0 discriminator 3
 2381 0026 5868     		ldr	r0, [r3, #4]
 2382              	.LVL156:
 2383              	.LBB485:
 2384              	.LBB482:
 2385              		.loc 1 193 0 discriminator 3
 2386 0028 002D     		cmp	r5, #0
 2387 002a 0CBF     		ite	eq
 2388 002c 4FF48072 		moveq	r2, #256
 2389 0030 4FF48872 		movne	r2, #272
 2390              	.LVL157:
 2391              		.loc 1 196 0 discriminator 3
 2392 0034 2243     		orrs	r2, r2, r4
 2393              	.LVL158:
 2394              		.loc 1 194 0 discriminator 3
ARM GAS  /tmp/ccASpQiv.s 			page 43


 2395 0036 2431     		adds	r1, r1, #36
 2396              	.LVL159:
 2397              		.loc 1 195 0 discriminator 3
 2398 0038 0124     		movs	r4, #1
 2399              		.loc 1 194 0 discriminator 3
 2400 003a D960     		str	r1, [r3, #12]
 2401              	.LVL160:
 2402              		.loc 1 195 0 discriminator 3
 2403 003c 5C60     		str	r4, [r3, #4]
 2404              		.loc 1 196 0 discriminator 3
 2405 003e 1A60     		str	r2, [r3]
 2406              		.loc 1 197 0 discriminator 3
 2407 0040 1A68     		ldr	r2, [r3]
 2408 0042 2243     		orrs	r2, r2, r4
 2409 0044 1A60     		str	r2, [r3]
 2410              	.LVL161:
 2411              	.LBE482:
 2412              	.LBE485:
 2413              		.loc 1 976 0 discriminator 3
 2414 0046 30BC     		pop	{r4, r5}
 2415              		.cfi_restore 5
 2416              		.cfi_restore 4
 2417              		.cfi_def_cfa_offset 0
 2418 0048 7047     		bx	lr
 2419              		.cfi_endproc
 2420              	.LFE343:
 2421              		.size	uart_lld_stop_receive, .-uart_lld_stop_receive
 2422              		.global	UARTD8
 2423              		.global	UARTD6
 2424              		.global	UARTD1
 2425 004a 00BF     		.section	.bss.UARTD1,"aw",%nobits
 2426              		.align	2
 2427              		.set	.LANCHOR0,. + 0
 2428              		.type	UARTD1, %object
 2429              		.size	UARTD1, 40
 2430              	UARTD1:
 2431 0000 00000000 		.space	40
 2431      00000000 
 2431      00000000 
 2431      00000000 
 2431      00000000 
 2432              		.section	.bss.UARTD6,"aw",%nobits
 2433              		.align	2
 2434              		.set	.LANCHOR1,. + 0
 2435              		.type	UARTD6, %object
 2436              		.size	UARTD6, 40
 2437              	UARTD6:
 2438 0000 00000000 		.space	40
 2438      00000000 
 2438      00000000 
 2438      00000000 
 2438      00000000 
 2439              		.section	.bss.UARTD8,"aw",%nobits
 2440              		.align	2
 2441              		.set	.LANCHOR2,. + 0
 2442              		.type	UARTD8, %object
 2443              		.size	UARTD8, 40
ARM GAS  /tmp/ccASpQiv.s 			page 44


 2444              	UARTD8:
 2445 0000 00000000 		.space	40
 2445      00000000 
 2445      00000000 
 2445      00000000 
 2445      00000000 
 2446              		.section	.rodata.uart_lld_serve_tx_end_irq.str1.4,"aMS",%progbits,1
 2447              		.align	2
 2448              	.LC0:
 2449 0000 444D4120 		.ascii	"DMA failure\000"
 2449      6661696C 
 2449      75726500 
 2450              		.text
 2451              	.Letext0:
 2452              		.file 4 "/usr/lib/gcc/arm-none-eabi/7.3.1/include/stddef.h"
 2453              		.file 5 "/usr/arm-none-eabi/include/machine/_default_types.h"
 2454              		.file 6 "/usr/arm-none-eabi/include/sys/_stdint.h"
 2455              		.file 7 "./RM18A-ChibiOS18-Core/chibios/os/common/ports/ARMCMx/compilers/GCC/chtypes.h"
 2456              		.file 8 "./RM18A-ChibiOS18-Core/chibios/os/rt/include/chsystypes.h"
 2457              		.file 9 "./RM18A-ChibiOS18-Core/chibios/os/rt/include/chschd.h"
 2458              		.file 10 "./RM18A-ChibiOS18-Core/chibios/os/rt/include/chtime.h"
 2459              		.file 11 "./RM18A-ChibiOS18-Core/chibios/os/common/ext/ARM/CMSIS/Core/Include/core_cm4.h"
 2460              		.file 12 "./RM18A-ChibiOS18-Core/chibios/os/common/ext/ST/STM32F4xx/system_stm32f4xx.h"
 2461              		.file 13 "./RM18A-ChibiOS18-Core/chibios/os/common/ext/ST/STM32F4xx/stm32f427xx.h"
 2462              		.file 14 "./RM18A-ChibiOS18-Core/chibios/os/common/ports/ARMCMx/chcore.h"
 2463              		.file 15 "./RM18A-ChibiOS18-Core/chibios/os/common/ports/ARMCMx/chcore_v7m.h"
 2464              		.file 16 "./RM18A-ChibiOS18-Core/chibios/os/hal/ports/STM32/LLD/TIMv1/stm32_tim.h"
 2465              		.file 17 "./RM18A-ChibiOS18-Core/chibios/os/rt/include/chtm.h"
 2466              		.file 18 "./RM18A-ChibiOS18-Core/chibios/os/rt/include/chsem.h"
 2467              		.file 19 "./RM18A-ChibiOS18-Core/chibios/os/rt/include/chmtx.h"
 2468              		.file 20 "./RM18A-ChibiOS18-Core/chibios/os/rt/include/chsys.h"
 2469              		.file 21 "./RM18A-ChibiOS18-Core/chibios/os/rt/include/chregistry.h"
 2470              		.file 22 "./RM18A-ChibiOS18-Core/chibios/os/rt/include/chevents.h"
 2471              		.file 23 "./RM18A-ChibiOS18-Core/chibios/os/oslib/include/chmemcore.h"
 2472              		.file 24 "./RM18A-ChibiOS18-Core/chibios/os/oslib/include/chmempools.h"
 2473              		.file 25 "./RM18A-ChibiOS18-Core/chibios/os/oslib/include/chfactory.h"
 2474              		.file 26 "./RM18A-ChibiOS18-Core/chibios/os/hal/ports/STM32/LLD/DMAv2/stm32_dma.h"
 2475              		.file 27 "./RM18A-ChibiOS18-Core/chibios/os/hal/include/hal_queues.h"
 2476              		.file 28 "./RM18A-ChibiOS18-Core/chibios/os/hal/include/hal_pal.h"
 2477              		.file 29 "./RM18A-ChibiOS18-Core/chibios/os/hal/ports/STM32/LLD/GPIOv2/hal_pal_lld.h"
 2478              		.file 30 "./RM18A-ChibiOS18-Core/chibios/os/hal/include/hal_adc.h"
 2479              		.file 31 "./RM18A-ChibiOS18-Core/chibios/os/hal/ports/STM32/LLD/ADCv2/hal_adc_lld.h"
 2480              		.file 32 "./RM18A-ChibiOS18-Core/chibios/os/hal/include/hal_can.h"
 2481              		.file 33 "./RM18A-ChibiOS18-Core/chibios/os/hal/ports/STM32/LLD/CANv1/hal_can_lld.h"
 2482              		.file 34 "./RM18A-ChibiOS18-Core/chibios/os/hal/include/hal_i2c.h"
 2483              		.file 35 "./RM18A-ChibiOS18-Core/chibios/os/hal/lib/fallback/I2C/hal_i2c_lld.h"
 2484              		.file 36 "./RM18A-ChibiOS18-Core/chibios/os/hal/include/hal_icu.h"
 2485              		.file 37 "./RM18A-ChibiOS18-Core/chibios/os/hal/ports/STM32/LLD/TIMv1/hal_icu_lld.h"
 2486              		.file 38 "./RM18A-ChibiOS18-Core/chibios/os/hal/include/hal_pwm.h"
 2487              		.file 39 "./RM18A-ChibiOS18-Core/chibios/os/hal/ports/STM32/LLD/TIMv1/hal_pwm_lld.h"
 2488              		.file 40 "./RM18A-ChibiOS18-Core/chibios/os/hal/include/hal_serial.h"
 2489              		.file 41 "./RM18A-ChibiOS18-Core/chibios/os/hal/ports/STM32/LLD/USARTv1/hal_serial_lld.h"
 2490              		.file 42 "./RM18A-ChibiOS18-Core/chibios/os/hal/include/hal_spi.h"
 2491              		.file 43 "./RM18A-ChibiOS18-Core/chibios/os/hal/ports/STM32/LLD/SPIv1/hal_spi_lld.h"
 2492              		.file 44 "./RM18A-ChibiOS18-Core/chibios/os/hal/include/hal_uart.h"
 2493              		.file 45 "./RM18A-ChibiOS18-Core/chibios/os/hal/ports/STM32/LLD/USARTv1/hal_uart_lld.h"
 2494              		.file 46 "./RM18A-ChibiOS18-Core/chibios/os/hal/include/hal_usb.h"
ARM GAS  /tmp/ccASpQiv.s 			page 45


 2495              		.file 47 "./RM18A-ChibiOS18-Core/chibios/os/hal/ports/STM32/LLD/OTGv1/hal_usb_lld.h"
 2496              		.file 48 "./RM18A-ChibiOS18-Core/chibios/os/hal/ports/STM32/LLD/OTGv1/stm32_otg.h"
 2497              		.file 49 "./RM18A-ChibiOS18-Core/chibios/os/hal/ports/common/ARMCMx/nvic.h"
 2498              		.file 50 "./RM18A-ChibiOS18-Core/chibios/os/rt/include/chthreads.h"
 2499              		.file 51 "./RM18A-ChibiOS18-Core/chibios/os/rt/include/ch.h"