ARM GAS  /tmp/cchPT5Da.s 			page 1


   1              		.cpu cortex-m4
   2              		.eabi_attribute 27, 1
   3              		.eabi_attribute 28, 1
   4              		.eabi_attribute 20, 1
   5              		.eabi_attribute 21, 1
   6              		.eabi_attribute 23, 3
   7              		.eabi_attribute 24, 1
   8              		.eabi_attribute 25, 1
   9              		.eabi_attribute 26, 1
  10              		.eabi_attribute 30, 2
  11              		.eabi_attribute 34, 1
  12              		.eabi_attribute 18, 4
  13              		.file	"hal_can.c"
  14              		.text
  15              	.Ltext0:
  16              		.cfi_sections	.debug_frame
  17              		.section	.text.canInit,"ax",%progbits
  18              		.align	1
  19              		.p2align 2,,3
  20              		.global	canInit
  21              		.syntax unified
  22              		.thumb
  23              		.thumb_func
  24              		.fpu fpv4-sp-d16
  25              		.type	canInit, %function
  26              	canInit:
  27              	.LFB327:
  28              		.file 1 "./RM18A-ChibiOS18-Core/chibios/os/hal/src/hal_can.c"
  29              		.loc 1 56 0
  30              		.cfi_startproc
  31              		@ args = 0, pretend = 0, frame = 0
  32              		@ frame_needed = 0, uses_anonymous_args = 0
  33              		@ link register save eliminated.
  34              		.loc 1 58 0
  35 0000 FFF7FEBF 		b	can_lld_init
  36              	.LVL0:
  37              		.cfi_endproc
  38              	.LFE327:
  39              		.size	canInit, .-canInit
  40              		.section	.text.canObjectInit,"ax",%progbits
  41              		.align	1
  42              		.p2align 2,,3
  43              		.global	canObjectInit
  44              		.syntax unified
  45              		.thumb
  46              		.thumb_func
  47              		.fpu fpv4-sp-d16
  48              		.type	canObjectInit, %function
  49              	canObjectInit:
  50              	.LFB328:
  51              		.loc 1 68 0
  52              		.cfi_startproc
  53              		@ args = 0, pretend = 0, frame = 0
  54              		@ frame_needed = 0, uses_anonymous_args = 0
  55              		@ link register save eliminated.
  56              	.LVL1:
  57              		.loc 1 71 0
ARM GAS  /tmp/cchPT5Da.s 			page 2


  58 0000 0023     		movs	r3, #0
  59              		.loc 1 68 0
  60 0002 10B4     		push	{r4}
  61              		.cfi_def_cfa_offset 4
  62              		.cfi_offset 4, -4
  63              		.loc 1 72 0
  64 0004 00F10801 		add	r1, r0, #8
  65              	.LVL2:
  66              		.loc 1 70 0
  67 0008 0124     		movs	r4, #1
  68              		.loc 1 73 0
  69 000a 00F11002 		add	r2, r0, #16
  70              		.loc 1 70 0
  71 000e 0470     		strb	r4, [r0]
  72              	.LBB144:
  73              	.LBB145:
  74              	.LBB146:
  75              	.LBB147:
  76              		.file 2 "./RM18A-ChibiOS18-Core/chibios/os/rt/include/chschd.h"
  77              		.loc 2 540 0
  78 0010 C0E90211 		strd	r1, r1, [r0, #8]
  79              	.LVL3:
  80              	.LBE147:
  81              	.LBE146:
  82              	.LBE145:
  83              	.LBE144:
  84              	.LBB148:
  85              	.LBB149:
  86              	.LBB150:
  87              	.LBB151:
  88 0014 C0E90422 		strd	r2, r2, [r0, #16]
  89              	.LVL4:
  90              	.LBE151:
  91              	.LBE150:
  92              	.LBE149:
  93              	.LBE148:
  94              		.loc 1 71 0
  95 0018 4360     		str	r3, [r0, #4]
  96              		.loc 1 84 0
  97 001a C0E90633 		strd	r3, r3, [r0, #24]
  98              		.loc 1 87 0
  99 001e C0E90833 		strd	r3, r3, [r0, #32]
 100              		.loc 1 90 0
 101 0022 5DF8044B 		ldr	r4, [sp], #4
 102              		.cfi_restore 4
 103              		.cfi_def_cfa_offset 0
 104 0026 7047     		bx	lr
 105              		.cfi_endproc
 106              	.LFE328:
 107              		.size	canObjectInit, .-canObjectInit
 108              		.section	.text.canStart,"ax",%progbits
 109              		.align	1
 110              		.p2align 2,,3
 111              		.global	canStart
 112              		.syntax unified
 113              		.thumb
 114              		.thumb_func
ARM GAS  /tmp/cchPT5Da.s 			page 3


 115              		.fpu fpv4-sp-d16
 116              		.type	canStart, %function
 117              	canStart:
 118              	.LFB329:
 119              		.loc 1 104 0
 120              		.cfi_startproc
 121              		@ args = 0, pretend = 0, frame = 0
 122              		@ frame_needed = 0, uses_anonymous_args = 0
 123              	.LVL5:
 124 0000 10B5     		push	{r4, lr}
 125              		.cfi_def_cfa_offset 8
 126              		.cfi_offset 4, -8
 127              		.cfi_offset 14, -4
 128              	.LBB152:
 129              	.LBB153:
 130              	.LBB154:
 131              	.LBB155:
 132              	.LBB156:
 133              		.file 3 "./RM18A-ChibiOS18-Core/chibios/os/common/ext/ARM/CMSIS/Core/Include/cmsis_gcc.h"
 134              		.loc 3 493 0
 135 0002 2023     		movs	r3, #32
 136              	.LBE156:
 137              	.LBE155:
 138              	.LBE154:
 139              	.LBE153:
 140              	.LBE152:
 141              		.loc 1 104 0
 142 0004 0446     		mov	r4, r0
 143              	.LBB161:
 144              	.LBB160:
 145              	.LBB159:
 146              	.LBB158:
 147              	.LBB157:
 148              		.loc 3 493 0
 149              		.syntax unified
 150              	@ 493 "./RM18A-ChibiOS18-Core/chibios/os/common/ext/ARM/CMSIS/Core/Include/cmsis_gcc.h" 1
 151 0006 83F31188 		MSR basepri, r3
 152              	@ 0 "" 2
 153              	.LVL6:
 154              		.thumb
 155              		.syntax unified
 156              	.LBE157:
 157              	.LBE158:
 158              	.LBE159:
 159              	.LBE160:
 160              	.LBE161:
 161              		.loc 1 112 0
 162 000a 0223     		movs	r3, #2
 163 000c 0370     		strb	r3, [r0]
 164              		.loc 1 113 0
 165 000e 4160     		str	r1, [r0, #4]
 166              		.loc 1 117 0
 167 0010 FFF7FEFF 		bl	can_lld_start
 168              	.LVL7:
 169              		.loc 1 120 0
 170 0014 0323     		movs	r3, #3
 171 0016 2370     		strb	r3, [r4]
ARM GAS  /tmp/cchPT5Da.s 			page 4


 172              	.LVL8:
 173              	.LBB162:
 174              	.LBB163:
 175              	.LBB164:
 176              	.LBB165:
 177              	.LBB166:
 178              	.LBB167:
 179              		.loc 3 493 0
 180 0018 0023     		movs	r3, #0
 181              		.syntax unified
 182              	@ 493 "./RM18A-ChibiOS18-Core/chibios/os/common/ext/ARM/CMSIS/Core/Include/cmsis_gcc.h" 1
 183 001a 83F31188 		MSR basepri, r3
 184              	@ 0 "" 2
 185              	.LVL9:
 186              		.thumb
 187              		.syntax unified
 188              	.LBE167:
 189              	.LBE166:
 190              	.LBE165:
 191              	.LBE164:
 192              	.LBE163:
 193              	.LBE162:
 194              		.loc 1 122 0
 195 001e 10BD     		pop	{r4, pc}
 196              		.cfi_endproc
 197              	.LFE329:
 198              		.size	canStart, .-canStart
 199              		.section	.text.canStop,"ax",%progbits
 200              		.align	1
 201              		.p2align 2,,3
 202              		.global	canStop
 203              		.syntax unified
 204              		.thumb
 205              		.thumb_func
 206              		.fpu fpv4-sp-d16
 207              		.type	canStop, %function
 208              	canStop:
 209              	.LFB330:
 210              		.loc 1 131 0
 211              		.cfi_startproc
 212              		@ args = 0, pretend = 0, frame = 0
 213              		@ frame_needed = 0, uses_anonymous_args = 0
 214              	.LVL10:
 215 0000 38B5     		push	{r3, r4, r5, lr}
 216              		.cfi_def_cfa_offset 16
 217              		.cfi_offset 3, -16
 218              		.cfi_offset 4, -12
 219              		.cfi_offset 5, -8
 220              		.cfi_offset 14, -4
 221              		.loc 1 131 0
 222 0002 0446     		mov	r4, r0
 223              	.LBB168:
 224              	.LBB169:
 225              	.LBB170:
 226              	.LBB171:
 227              	.LBB172:
 228              		.loc 3 493 0
ARM GAS  /tmp/cchPT5Da.s 			page 5


 229 0004 2023     		movs	r3, #32
 230              		.syntax unified
 231              	@ 493 "./RM18A-ChibiOS18-Core/chibios/os/common/ext/ARM/CMSIS/Core/Include/cmsis_gcc.h" 1
 232 0006 83F31188 		MSR basepri, r3
 233              	@ 0 "" 2
 234              	.LVL11:
 235              		.thumb
 236              		.syntax unified
 237              	.LBE172:
 238              	.LBE171:
 239              	.LBE170:
 240              	.LBE169:
 241              	.LBE168:
 242              		.loc 1 140 0
 243 000a FFF7FEFF 		bl	can_lld_stop
 244              	.LVL12:
 245              		.loc 1 142 0
 246 000e 2046     		mov	r0, r4
 247 0010 0123     		movs	r3, #1
 248              		.loc 1 141 0
 249 0012 0025     		movs	r5, #0
 250 0014 6560     		str	r5, [r4, #4]
 251              	.LBB173:
 252              	.LBB174:
 253              		.file 4 "./RM18A-ChibiOS18-Core/chibios/os/hal/osal/rt/osal.h"
 254              		.loc 4 857 0
 255 0016 6FF00101 		mvn	r1, #1
 256              	.LBE174:
 257              	.LBE173:
 258              		.loc 1 142 0
 259 001a 00F8103B 		strb	r3, [r0], #16
 260              	.LVL13:
 261              	.LBB176:
 262              	.LBB175:
 263              		.loc 4 857 0
 264 001e FFF7FEFF 		bl	chThdDequeueAllI
 265              	.LVL14:
 266              	.LBE175:
 267              	.LBE176:
 268              	.LBB177:
 269              	.LBB178:
 270 0022 04F10800 		add	r0, r4, #8
 271              	.LVL15:
 272 0026 6FF00101 		mvn	r1, #1
 273 002a FFF7FEFF 		bl	chThdDequeueAllI
 274              	.LVL16:
 275              	.LBE178:
 276              	.LBE177:
 277              	.LBB179:
 278              	.LBB180:
 279              		.loc 4 618 0
 280 002e FFF7FEFF 		bl	chSchRescheduleS
 281              	.LVL17:
 282              	.LBE180:
 283              	.LBE179:
 284              	.LBB181:
 285              	.LBB182:
ARM GAS  /tmp/cchPT5Da.s 			page 6


 286              	.LBB183:
 287              	.LBB184:
 288              	.LBB185:
 289              	.LBB186:
 290              		.loc 3 493 0
 291              		.syntax unified
 292              	@ 493 "./RM18A-ChibiOS18-Core/chibios/os/common/ext/ARM/CMSIS/Core/Include/cmsis_gcc.h" 1
 293 0032 85F31188 		MSR basepri, r5
 294              	@ 0 "" 2
 295              	.LVL18:
 296              		.thumb
 297              		.syntax unified
 298              	.LBE186:
 299              	.LBE185:
 300              	.LBE184:
 301              	.LBE183:
 302              	.LBE182:
 303              	.LBE181:
 304              		.loc 1 150 0
 305 0036 38BD     		pop	{r3, r4, r5, pc}
 306              		.cfi_endproc
 307              	.LFE330:
 308              		.size	canStop, .-canStop
 309              		.section	.text.canTryTransmitI,"ax",%progbits
 310              		.align	1
 311              		.p2align 2,,3
 312              		.global	canTryTransmitI
 313              		.syntax unified
 314              		.thumb
 315              		.thumb_func
 316              		.fpu fpv4-sp-d16
 317              		.type	canTryTransmitI, %function
 318              	canTryTransmitI:
 319              	.LFB331:
 320              		.loc 1 168 0
 321              		.cfi_startproc
 322              		@ args = 0, pretend = 0, frame = 0
 323              		@ frame_needed = 0, uses_anonymous_args = 0
 324              	.LVL19:
 325 0000 70B5     		push	{r4, r5, r6, lr}
 326              		.cfi_def_cfa_offset 16
 327              		.cfi_offset 4, -16
 328              		.cfi_offset 5, -12
 329              		.cfi_offset 6, -8
 330              		.cfi_offset 14, -4
 331              		.loc 1 168 0
 332 0002 1646     		mov	r6, r2
 333 0004 0446     		mov	r4, r0
 334 0006 0D46     		mov	r5, r1
 335              		.loc 1 177 0
 336 0008 FFF7FEFF 		bl	can_lld_is_tx_empty
 337              	.LVL20:
 338 000c 08B9     		cbnz	r0, .L13
 339              		.loc 1 178 0
 340 000e 0120     		movs	r0, #1
 341              		.loc 1 185 0
 342 0010 70BD     		pop	{r4, r5, r6, pc}
ARM GAS  /tmp/cchPT5Da.s 			page 7


 343              	.LVL21:
 344              	.L13:
 345              		.loc 1 182 0
 346 0012 2046     		mov	r0, r4
 347 0014 3246     		mov	r2, r6
 348 0016 2946     		mov	r1, r5
 349 0018 FFF7FEFF 		bl	can_lld_transmit
 350              	.LVL22:
 351              		.loc 1 184 0
 352 001c 0020     		movs	r0, #0
 353              		.loc 1 185 0
 354 001e 70BD     		pop	{r4, r5, r6, pc}
 355              		.cfi_endproc
 356              	.LFE331:
 357              		.size	canTryTransmitI, .-canTryTransmitI
 358              		.section	.text.canTryReceiveI,"ax",%progbits
 359              		.align	1
 360              		.p2align 2,,3
 361              		.global	canTryReceiveI
 362              		.syntax unified
 363              		.thumb
 364              		.thumb_func
 365              		.fpu fpv4-sp-d16
 366              		.type	canTryReceiveI, %function
 367              	canTryReceiveI:
 368              	.LFB332:
 369              		.loc 1 202 0
 370              		.cfi_startproc
 371              		@ args = 0, pretend = 0, frame = 0
 372              		@ frame_needed = 0, uses_anonymous_args = 0
 373              	.LVL23:
 374 0000 70B5     		push	{r4, r5, r6, lr}
 375              		.cfi_def_cfa_offset 16
 376              		.cfi_offset 4, -16
 377              		.cfi_offset 5, -12
 378              		.cfi_offset 6, -8
 379              		.cfi_offset 14, -4
 380              		.loc 1 202 0
 381 0002 1646     		mov	r6, r2
 382 0004 0446     		mov	r4, r0
 383 0006 0D46     		mov	r5, r1
 384              		.loc 1 211 0
 385 0008 FFF7FEFF 		bl	can_lld_is_rx_nonempty
 386              	.LVL24:
 387 000c 08B9     		cbnz	r0, .L18
 388              		.loc 1 212 0
 389 000e 0120     		movs	r0, #1
 390              		.loc 1 219 0
 391 0010 70BD     		pop	{r4, r5, r6, pc}
 392              	.LVL25:
 393              	.L18:
 394              		.loc 1 216 0
 395 0012 2046     		mov	r0, r4
 396 0014 3246     		mov	r2, r6
 397 0016 2946     		mov	r1, r5
 398 0018 FFF7FEFF 		bl	can_lld_receive
 399              	.LVL26:
ARM GAS  /tmp/cchPT5Da.s 			page 8


 400              		.loc 1 218 0
 401 001c 0020     		movs	r0, #0
 402              		.loc 1 219 0
 403 001e 70BD     		pop	{r4, r5, r6, pc}
 404              		.cfi_endproc
 405              	.LFE332:
 406              		.size	canTryReceiveI, .-canTryReceiveI
 407              		.section	.text.canTransmitTimeout,"ax",%progbits
 408              		.align	1
 409              		.p2align 2,,3
 410              		.global	canTransmitTimeout
 411              		.syntax unified
 412              		.thumb
 413              		.thumb_func
 414              		.fpu fpv4-sp-d16
 415              		.type	canTransmitTimeout, %function
 416              	canTransmitTimeout:
 417              	.LFB333:
 418              		.loc 1 245 0
 419              		.cfi_startproc
 420              		@ args = 0, pretend = 0, frame = 0
 421              		@ frame_needed = 0, uses_anonymous_args = 0
 422              	.LVL27:
 423 0000 2DE9F041 		push	{r4, r5, r6, r7, r8, lr}
 424              		.cfi_def_cfa_offset 24
 425              		.cfi_offset 4, -24
 426              		.cfi_offset 5, -20
 427              		.cfi_offset 6, -16
 428              		.cfi_offset 7, -12
 429              		.cfi_offset 8, -8
 430              		.cfi_offset 14, -4
 431              		.loc 1 245 0
 432 0004 1F46     		mov	r7, r3
 433 0006 0446     		mov	r4, r0
 434 0008 0D46     		mov	r5, r1
 435 000a 9046     		mov	r8, r2
 436              	.LBB187:
 437              	.LBB188:
 438              	.LBB189:
 439              	.LBB190:
 440              	.LBB191:
 441              		.loc 3 493 0
 442 000c 2023     		movs	r3, #32
 443              	.LVL28:
 444              		.syntax unified
 445              	@ 493 "./RM18A-ChibiOS18-Core/chibios/os/common/ext/ARM/CMSIS/Core/Include/cmsis_gcc.h" 1
 446 000e 83F31188 		MSR basepri, r3
 447              	@ 0 "" 2
 448              	.LVL29:
 449              		.thumb
 450              		.syntax unified
 451              	.LBE191:
 452              	.LBE190:
 453              	.LBE189:
 454              	.LBE188:
 455              	.LBE187:
 456              	.LBB192:
ARM GAS  /tmp/cchPT5Da.s 			page 9


 457              		.loc 1 257 0
 458 0012 00F10806 		add	r6, r0, #8
 459              	.LVL30:
 460              	.L20:
 461              	.LBE192:
 462              		.loc 1 255 0
 463 0016 2378     		ldrb	r3, [r4]	@ zero_extendqisi2
 464 0018 042B     		cmp	r3, #4
 465 001a 2946     		mov	r1, r5
 466 001c 2046     		mov	r0, r4
 467 001e 02D0     		beq	.L22
 468              	.LVL31:
 469              		.loc 1 255 0 is_stmt 0 discriminator 1
 470 0020 FFF7FEFF 		bl	can_lld_is_tx_empty
 471              	.LVL32:
 472 0024 50B9     		cbnz	r0, .L32
 473              	.L22:
 474              	.LVL33:
 475              	.LBB201:
 476              	.LBB193:
 477              	.LBB194:
 478              		.loc 4 831 0 is_stmt 1
 479 0026 3946     		mov	r1, r7
 480 0028 3046     		mov	r0, r6
 481 002a FFF7FEFF 		bl	chThdEnqueueTimeoutS
 482              	.LVL34:
 483              	.LBE194:
 484              	.LBE193:
 485              		.loc 1 258 0
 486 002e 0028     		cmp	r0, #0
 487 0030 F1D0     		beq	.L20
 488              	.LVL35:
 489              	.LBB195:
 490              	.LBB196:
 491              	.LBB197:
 492              	.LBB198:
 493              	.LBB199:
 494              	.LBB200:
 495              		.loc 3 493 0
 496 0032 0023     		movs	r3, #0
 497              		.syntax unified
 498              	@ 493 "./RM18A-ChibiOS18-Core/chibios/os/common/ext/ARM/CMSIS/Core/Include/cmsis_gcc.h" 1
 499 0034 83F31188 		MSR basepri, r3
 500              	@ 0 "" 2
 501              	.LVL36:
 502              		.thumb
 503              		.syntax unified
 504              	.LBE200:
 505              	.LBE199:
 506              	.LBE198:
 507              	.LBE197:
 508              	.LBE196:
 509              	.LBE195:
 510              	.LBE201:
 511              		.loc 1 266 0
 512 0038 BDE8F081 		pop	{r4, r5, r6, r7, r8, pc}
 513              	.LVL37:
ARM GAS  /tmp/cchPT5Da.s 			page 10


 514              	.L32:
 515              		.loc 1 263 0
 516 003c 2046     		mov	r0, r4
 517 003e 4246     		mov	r2, r8
 518 0040 2946     		mov	r1, r5
 519 0042 FFF7FEFF 		bl	can_lld_transmit
 520              	.LVL38:
 521              	.LBB202:
 522              	.LBB203:
 523              	.LBB204:
 524              	.LBB205:
 525              	.LBB206:
 526              	.LBB207:
 527              		.loc 3 493 0
 528 0046 0020     		movs	r0, #0
 529              		.syntax unified
 530              	@ 493 "./RM18A-ChibiOS18-Core/chibios/os/common/ext/ARM/CMSIS/Core/Include/cmsis_gcc.h" 1
 531 0048 80F31188 		MSR basepri, r0
 532              	@ 0 "" 2
 533              	.LVL39:
 534              		.thumb
 535              		.syntax unified
 536              	.LBE207:
 537              	.LBE206:
 538              	.LBE205:
 539              	.LBE204:
 540              	.LBE203:
 541              	.LBE202:
 542              		.loc 1 266 0
 543 004c BDE8F081 		pop	{r4, r5, r6, r7, r8, pc}
 544              		.cfi_endproc
 545              	.LFE333:
 546              		.size	canTransmitTimeout, .-canTransmitTimeout
 547              		.section	.text.canReceiveTimeout,"ax",%progbits
 548              		.align	1
 549              		.p2align 2,,3
 550              		.global	canReceiveTimeout
 551              		.syntax unified
 552              		.thumb
 553              		.thumb_func
 554              		.fpu fpv4-sp-d16
 555              		.type	canReceiveTimeout, %function
 556              	canReceiveTimeout:
 557              	.LFB334:
 558              		.loc 1 293 0
 559              		.cfi_startproc
 560              		@ args = 0, pretend = 0, frame = 0
 561              		@ frame_needed = 0, uses_anonymous_args = 0
 562              	.LVL40:
 563 0000 2DE9F041 		push	{r4, r5, r6, r7, r8, lr}
 564              		.cfi_def_cfa_offset 24
 565              		.cfi_offset 4, -24
 566              		.cfi_offset 5, -20
 567              		.cfi_offset 6, -16
 568              		.cfi_offset 7, -12
 569              		.cfi_offset 8, -8
 570              		.cfi_offset 14, -4
ARM GAS  /tmp/cchPT5Da.s 			page 11


 571              		.loc 1 293 0
 572 0004 1F46     		mov	r7, r3
 573 0006 0446     		mov	r4, r0
 574 0008 0D46     		mov	r5, r1
 575 000a 9046     		mov	r8, r2
 576              	.LBB208:
 577              	.LBB209:
 578              	.LBB210:
 579              	.LBB211:
 580              	.LBB212:
 581              		.loc 3 493 0
 582 000c 2023     		movs	r3, #32
 583              	.LVL41:
 584              		.syntax unified
 585              	@ 493 "./RM18A-ChibiOS18-Core/chibios/os/common/ext/ARM/CMSIS/Core/Include/cmsis_gcc.h" 1
 586 000e 83F31188 		MSR basepri, r3
 587              	@ 0 "" 2
 588              	.LVL42:
 589              		.thumb
 590              		.syntax unified
 591              	.LBE212:
 592              	.LBE211:
 593              	.LBE210:
 594              	.LBE209:
 595              	.LBE208:
 596              	.LBB213:
 597              		.loc 1 305 0
 598 0012 00F11006 		add	r6, r0, #16
 599              	.LVL43:
 600              	.L34:
 601              	.LBE213:
 602              		.loc 1 303 0
 603 0016 2378     		ldrb	r3, [r4]	@ zero_extendqisi2
 604 0018 042B     		cmp	r3, #4
 605 001a 2946     		mov	r1, r5
 606 001c 2046     		mov	r0, r4
 607 001e 02D0     		beq	.L36
 608              	.LVL44:
 609              		.loc 1 303 0 is_stmt 0 discriminator 1
 610 0020 FFF7FEFF 		bl	can_lld_is_rx_nonempty
 611              	.LVL45:
 612 0024 50B9     		cbnz	r0, .L46
 613              	.L36:
 614              	.LVL46:
 615              	.LBB222:
 616              	.LBB214:
 617              	.LBB215:
 618              		.loc 4 831 0 is_stmt 1
 619 0026 3946     		mov	r1, r7
 620 0028 3046     		mov	r0, r6
 621 002a FFF7FEFF 		bl	chThdEnqueueTimeoutS
 622              	.LVL47:
 623              	.LBE215:
 624              	.LBE214:
 625              		.loc 1 306 0
 626 002e 0028     		cmp	r0, #0
 627 0030 F1D0     		beq	.L34
ARM GAS  /tmp/cchPT5Da.s 			page 12


 628              	.LVL48:
 629              	.LBB216:
 630              	.LBB217:
 631              	.LBB218:
 632              	.LBB219:
 633              	.LBB220:
 634              	.LBB221:
 635              		.loc 3 493 0
 636 0032 0023     		movs	r3, #0
 637              		.syntax unified
 638              	@ 493 "./RM18A-ChibiOS18-Core/chibios/os/common/ext/ARM/CMSIS/Core/Include/cmsis_gcc.h" 1
 639 0034 83F31188 		MSR basepri, r3
 640              	@ 0 "" 2
 641              	.LVL49:
 642              		.thumb
 643              		.syntax unified
 644              	.LBE221:
 645              	.LBE220:
 646              	.LBE219:
 647              	.LBE218:
 648              	.LBE217:
 649              	.LBE216:
 650              	.LBE222:
 651              		.loc 1 314 0
 652 0038 BDE8F081 		pop	{r4, r5, r6, r7, r8, pc}
 653              	.LVL50:
 654              	.L46:
 655              		.loc 1 311 0
 656 003c 2046     		mov	r0, r4
 657 003e 4246     		mov	r2, r8
 658 0040 2946     		mov	r1, r5
 659 0042 FFF7FEFF 		bl	can_lld_receive
 660              	.LVL51:
 661              	.LBB223:
 662              	.LBB224:
 663              	.LBB225:
 664              	.LBB226:
 665              	.LBB227:
 666              	.LBB228:
 667              		.loc 3 493 0
 668 0046 0020     		movs	r0, #0
 669              		.syntax unified
 670              	@ 493 "./RM18A-ChibiOS18-Core/chibios/os/common/ext/ARM/CMSIS/Core/Include/cmsis_gcc.h" 1
 671 0048 80F31188 		MSR basepri, r0
 672              	@ 0 "" 2
 673              	.LVL52:
 674              		.thumb
 675              		.syntax unified
 676              	.LBE228:
 677              	.LBE227:
 678              	.LBE226:
 679              	.LBE225:
 680              	.LBE224:
 681              	.LBE223:
 682              		.loc 1 314 0
 683 004c BDE8F081 		pop	{r4, r5, r6, r7, r8, pc}
 684              		.cfi_endproc
ARM GAS  /tmp/cchPT5Da.s 			page 13


 685              	.LFE334:
 686              		.size	canReceiveTimeout, .-canReceiveTimeout
 687              		.section	.text.canSleep,"ax",%progbits
 688              		.align	1
 689              		.p2align 2,,3
 690              		.global	canSleep
 691              		.syntax unified
 692              		.thumb
 693              		.thumb_func
 694              		.fpu fpv4-sp-d16
 695              		.type	canSleep, %function
 696              	canSleep:
 697              	.LFB335:
 698              		.loc 1 329 0
 699              		.cfi_startproc
 700              		@ args = 0, pretend = 0, frame = 0
 701              		@ frame_needed = 0, uses_anonymous_args = 0
 702              	.LVL53:
 703              	.LBB229:
 704              	.LBB230:
 705              	.LBB231:
 706              	.LBB232:
 707              	.LBB233:
 708              		.loc 3 493 0
 709 0000 2022     		movs	r2, #32
 710              		.syntax unified
 711              	@ 493 "./RM18A-ChibiOS18-Core/chibios/os/common/ext/ARM/CMSIS/Core/Include/cmsis_gcc.h" 1
 712 0002 82F31188 		MSR basepri, r2
 713              	@ 0 "" 2
 714              	.LVL54:
 715              		.thumb
 716              		.syntax unified
 717              	.LBE233:
 718              	.LBE232:
 719              	.LBE231:
 720              	.LBE230:
 721              	.LBE229:
 722              		.loc 1 336 0
 723 0006 0278     		ldrb	r2, [r0]	@ zero_extendqisi2
 724 0008 032A     		cmp	r2, #3
 725 000a 03D0     		beq	.L53
 726              	.LVL55:
 727              	.LBB234:
 728              	.LBB235:
 729              	.LBB236:
 730              	.LBB237:
 731              	.LBB238:
 732              	.LBB239:
 733              		.loc 3 493 0
 734 000c 0023     		movs	r3, #0
 735              		.syntax unified
 736              	@ 493 "./RM18A-ChibiOS18-Core/chibios/os/common/ext/ARM/CMSIS/Core/Include/cmsis_gcc.h" 1
 737 000e 83F31188 		MSR basepri, r3
 738              	@ 0 "" 2
 739              	.LVL56:
 740              		.thumb
 741              		.syntax unified
ARM GAS  /tmp/cchPT5Da.s 			page 14


 742 0012 7047     		bx	lr
 743              	.L53:
 744              	.LBE239:
 745              	.LBE238:
 746              	.LBE237:
 747              	.LBE236:
 748              	.LBE235:
 749              	.LBE234:
 750              		.loc 1 329 0
 751 0014 10B5     		push	{r4, lr}
 752              		.cfi_def_cfa_offset 8
 753              		.cfi_offset 4, -8
 754              		.cfi_offset 14, -4
 755 0016 0446     		mov	r4, r0
 756              		.loc 1 337 0
 757 0018 FFF7FEFF 		bl	can_lld_sleep
 758              	.LVL57:
 759              		.loc 1 338 0
 760 001c 0423     		movs	r3, #4
 761 001e 2370     		strb	r3, [r4]
 762              	.LVL58:
 763              	.LBB245:
 764              	.LBB244:
 765              	.LBB243:
 766              	.LBB242:
 767              	.LBB241:
 768              	.LBB240:
 769              		.loc 3 493 0
 770 0020 0023     		movs	r3, #0
 771              		.syntax unified
 772              	@ 493 "./RM18A-ChibiOS18-Core/chibios/os/common/ext/ARM/CMSIS/Core/Include/cmsis_gcc.h" 1
 773 0022 83F31188 		MSR basepri, r3
 774              	@ 0 "" 2
 775              	.LVL59:
 776              		.thumb
 777              		.syntax unified
 778              	.LBE240:
 779              	.LBE241:
 780              	.LBE242:
 781              	.LBE243:
 782              	.LBE244:
 783              	.LBE245:
 784              		.loc 1 345 0
 785 0026 10BD     		pop	{r4, pc}
 786              		.cfi_endproc
 787              	.LFE335:
 788              		.size	canSleep, .-canSleep
 789              		.section	.text.canWakeup,"ax",%progbits
 790              		.align	1
 791              		.p2align 2,,3
 792              		.global	canWakeup
 793              		.syntax unified
 794              		.thumb
 795              		.thumb_func
 796              		.fpu fpv4-sp-d16
 797              		.type	canWakeup, %function
 798              	canWakeup:
ARM GAS  /tmp/cchPT5Da.s 			page 15


 799              	.LFB336:
 800              		.loc 1 354 0
 801              		.cfi_startproc
 802              		@ args = 0, pretend = 0, frame = 0
 803              		@ frame_needed = 0, uses_anonymous_args = 0
 804              	.LVL60:
 805              	.LBB246:
 806              	.LBB247:
 807              	.LBB248:
 808              	.LBB249:
 809              	.LBB250:
 810              		.loc 3 493 0
 811 0000 2022     		movs	r2, #32
 812              		.syntax unified
 813              	@ 493 "./RM18A-ChibiOS18-Core/chibios/os/common/ext/ARM/CMSIS/Core/Include/cmsis_gcc.h" 1
 814 0002 82F31188 		MSR basepri, r2
 815              	@ 0 "" 2
 816              	.LVL61:
 817              		.thumb
 818              		.syntax unified
 819              	.LBE250:
 820              	.LBE249:
 821              	.LBE248:
 822              	.LBE247:
 823              	.LBE246:
 824              		.loc 1 361 0
 825 0006 0278     		ldrb	r2, [r0]	@ zero_extendqisi2
 826 0008 042A     		cmp	r2, #4
 827 000a 03D0     		beq	.L60
 828              	.LVL62:
 829              	.LBB251:
 830              	.LBB252:
 831              	.LBB253:
 832              	.LBB254:
 833              	.LBB255:
 834              	.LBB256:
 835              		.loc 3 493 0
 836 000c 0023     		movs	r3, #0
 837              		.syntax unified
 838              	@ 493 "./RM18A-ChibiOS18-Core/chibios/os/common/ext/ARM/CMSIS/Core/Include/cmsis_gcc.h" 1
 839 000e 83F31188 		MSR basepri, r3
 840              	@ 0 "" 2
 841              	.LVL63:
 842              		.thumb
 843              		.syntax unified
 844 0012 7047     		bx	lr
 845              	.L60:
 846              	.LBE256:
 847              	.LBE255:
 848              	.LBE254:
 849              	.LBE253:
 850              	.LBE252:
 851              	.LBE251:
 852              		.loc 1 354 0
 853 0014 10B5     		push	{r4, lr}
 854              		.cfi_def_cfa_offset 8
 855              		.cfi_offset 4, -8
ARM GAS  /tmp/cchPT5Da.s 			page 16


 856              		.cfi_offset 14, -4
 857 0016 0446     		mov	r4, r0
 858              		.loc 1 362 0
 859 0018 FFF7FEFF 		bl	can_lld_wakeup
 860              	.LVL64:
 861              		.loc 1 363 0
 862 001c 0323     		movs	r3, #3
 863 001e 2370     		strb	r3, [r4]
 864              	.LVL65:
 865              	.LBB262:
 866              	.LBB261:
 867              	.LBB260:
 868              	.LBB259:
 869              	.LBB258:
 870              	.LBB257:
 871              		.loc 3 493 0
 872 0020 0023     		movs	r3, #0
 873              		.syntax unified
 874              	@ 493 "./RM18A-ChibiOS18-Core/chibios/os/common/ext/ARM/CMSIS/Core/Include/cmsis_gcc.h" 1
 875 0022 83F31188 		MSR basepri, r3
 876              	@ 0 "" 2
 877              	.LVL66:
 878              		.thumb
 879              		.syntax unified
 880              	.LBE257:
 881              	.LBE258:
 882              	.LBE259:
 883              	.LBE260:
 884              	.LBE261:
 885              	.LBE262:
 886              		.loc 1 370 0
 887 0026 10BD     		pop	{r4, pc}
 888              		.cfi_endproc
 889              	.LFE336:
 890              		.size	canWakeup, .-canWakeup
 891              		.text
 892              	.Letext0:
 893              		.file 5 "/usr/lib/gcc/arm-none-eabi/7.3.1/include/stddef.h"
 894              		.file 6 "/usr/arm-none-eabi/include/machine/_default_types.h"
 895              		.file 7 "/usr/arm-none-eabi/include/sys/_stdint.h"
 896              		.file 8 "./RM18A-ChibiOS18-Core/chibios/os/common/ports/ARMCMx/compilers/GCC/chtypes.h"
 897              		.file 9 "./RM18A-ChibiOS18-Core/chibios/os/rt/include/chsystypes.h"
 898              		.file 10 "./RM18A-ChibiOS18-Core/chibios/os/rt/include/chtime.h"
 899              		.file 11 "./RM18A-ChibiOS18-Core/chibios/os/common/ext/ARM/CMSIS/Core/Include/core_cm4.h"
 900              		.file 12 "./RM18A-ChibiOS18-Core/chibios/os/common/ext/ST/STM32F4xx/system_stm32f4xx.h"
 901              		.file 13 "./RM18A-ChibiOS18-Core/chibios/os/common/ext/ST/STM32F4xx/stm32f427xx.h"
 902              		.file 14 "./RM18A-ChibiOS18-Core/chibios/os/common/ports/ARMCMx/chcore.h"
 903              		.file 15 "./RM18A-ChibiOS18-Core/chibios/os/common/ports/ARMCMx/chcore_v7m.h"
 904              		.file 16 "./RM18A-ChibiOS18-Core/chibios/os/hal/ports/STM32/LLD/TIMv1/stm32_tim.h"
 905              		.file 17 "./RM18A-ChibiOS18-Core/chibios/os/rt/include/chtm.h"
 906              		.file 18 "./RM18A-ChibiOS18-Core/chibios/os/rt/include/chsem.h"
 907              		.file 19 "./RM18A-ChibiOS18-Core/chibios/os/rt/include/chmtx.h"
 908              		.file 20 "./RM18A-ChibiOS18-Core/chibios/os/rt/include/chsys.h"
 909              		.file 21 "./RM18A-ChibiOS18-Core/chibios/os/rt/include/chregistry.h"
 910              		.file 22 "./RM18A-ChibiOS18-Core/chibios/os/rt/include/chevents.h"
 911              		.file 23 "./RM18A-ChibiOS18-Core/chibios/os/oslib/include/chmemcore.h"
 912              		.file 24 "./RM18A-ChibiOS18-Core/chibios/os/oslib/include/chmempools.h"
ARM GAS  /tmp/cchPT5Da.s 			page 17


 913              		.file 25 "./RM18A-ChibiOS18-Core/chibios/os/oslib/include/chfactory.h"
 914              		.file 26 "./RM18A-ChibiOS18-Core/chibios/os/hal/ports/STM32/LLD/DMAv2/stm32_dma.h"
 915              		.file 27 "./RM18A-ChibiOS18-Core/chibios/os/hal/include/hal_queues.h"
 916              		.file 28 "./RM18A-ChibiOS18-Core/chibios/os/hal/include/hal_pal.h"
 917              		.file 29 "./RM18A-ChibiOS18-Core/chibios/os/hal/ports/STM32/LLD/GPIOv2/hal_pal_lld.h"
 918              		.file 30 "./RM18A-ChibiOS18-Core/chibios/os/hal/include/hal_adc.h"
 919              		.file 31 "./RM18A-ChibiOS18-Core/chibios/os/hal/ports/STM32/LLD/ADCv2/hal_adc_lld.h"
 920              		.file 32 "./RM18A-ChibiOS18-Core/chibios/os/hal/include/hal_can.h"
 921              		.file 33 "./RM18A-ChibiOS18-Core/chibios/os/hal/ports/STM32/LLD/CANv1/hal_can_lld.h"
 922              		.file 34 "./RM18A-ChibiOS18-Core/chibios/os/hal/include/hal_icu.h"
 923              		.file 35 "./RM18A-ChibiOS18-Core/chibios/os/hal/ports/STM32/LLD/TIMv1/hal_icu_lld.h"
 924              		.file 36 "./RM18A-ChibiOS18-Core/chibios/os/hal/include/hal_pwm.h"
 925              		.file 37 "./RM18A-ChibiOS18-Core/chibios/os/hal/ports/STM32/LLD/TIMv1/hal_pwm_lld.h"
 926              		.file 38 "./RM18A-ChibiOS18-Core/chibios/os/hal/include/hal_serial.h"
 927              		.file 39 "./RM18A-ChibiOS18-Core/chibios/os/hal/ports/STM32/LLD/USARTv1/hal_serial_lld.h"
 928              		.file 40 "./RM18A-ChibiOS18-Core/chibios/os/hal/include/hal_spi.h"
 929              		.file 41 "./RM18A-ChibiOS18-Core/chibios/os/hal/ports/STM32/LLD/SPIv1/hal_spi_lld.h"
 930              		.file 42 "./RM18A-ChibiOS18-Core/chibios/os/hal/include/hal_uart.h"
 931              		.file 43 "./RM18A-ChibiOS18-Core/chibios/os/hal/ports/STM32/LLD/USARTv1/hal_uart_lld.h"
 932              		.file 44 "./RM18A-ChibiOS18-Core/chibios/os/hal/include/hal_usb.h"
 933              		.file 45 "./RM18A-ChibiOS18-Core/chibios/os/hal/ports/STM32/LLD/OTGv1/hal_usb_lld.h"
 934              		.file 46 "./RM18A-ChibiOS18-Core/chibios/os/hal/ports/STM32/LLD/OTGv1/stm32_otg.h"
 935              		.file 47 "./RM18A-ChibiOS18-Core/chibios/os/rt/include/chthreads.h"