ARM GAS  /tmp/cctARxKw.s 			page 1


   1              		.cpu cortex-m4
   2              		.eabi_attribute 27, 1
   3              		.eabi_attribute 28, 1
   4              		.eabi_attribute 20, 1
   5              		.eabi_attribute 21, 1
   6              		.eabi_attribute 23, 3
   7              		.eabi_attribute 24, 1
   8              		.eabi_attribute 25, 1
   9              		.eabi_attribute 26, 1
  10              		.eabi_attribute 30, 2
  11              		.eabi_attribute 34, 1
  12              		.eabi_attribute 18, 4
  13              		.file	"hal_pal_lld.c"
  14              		.text
  15              	.Ltext0:
  16              		.cfi_sections	.debug_frame
  17              		.section	.text._pal_lld_init,"ax",%progbits
  18              		.align	1
  19              		.p2align 2,,3
  20              		.global	_pal_lld_init
  21              		.syntax unified
  22              		.thumb
  23              		.thumb_func
  24              		.fpu fpv4-sp-d16
  25              		.type	_pal_lld_init, %function
  26              	_pal_lld_init:
  27              	.LFB327:
  28              		.file 1 "./RM18A-ChibiOS18-Core/chibios/os/hal/ports/STM32/LLD/GPIOv2/hal_pal_lld.c"
  29              		.loc 1 65 0
  30              		.cfi_startproc
  31              		@ args = 0, pretend = 0, frame = 0
  32              		@ frame_needed = 0, uses_anonymous_args = 0
  33              		@ link register save eliminated.
  34              	.LVL0:
  35              	.LBB16:
  36              	.LBB17:
  37              	.LBB18:
  38              	.LBB19:
  39              		.file 2 "./RM18A-ChibiOS18-Core/chibios/os/rt/include/chschd.h"
  40              		.loc 2 539 0
  41 0000 314B     		ldr	r3, .L4
  42              	.LBE19:
  43              	.LBE18:
  44              	.LBE17:
  45              	.LBE16:
  46              		.loc 1 65 0
  47 0002 70B4     		push	{r4, r5, r6}
  48              		.cfi_def_cfa_offset 12
  49              		.cfi_offset 4, -12
  50              		.cfi_offset 5, -8
  51              		.cfi_offset 6, -4
  52              	.LBB35:
  53              	.LBB30:
  54              	.LBB25:
  55              	.LBB20:
  56              		.loc 2 539 0
  57 0004 03F11001 		add	r1, r3, #16
ARM GAS  /tmp/cctARxKw.s 			page 2


  58 0008 03F12005 		add	r5, r3, #32
  59 000c 03F13004 		add	r4, r3, #48
  60 0010 03F14000 		add	r0, r3, #64
  61              		.loc 2 540 0
  62 0014 C3E90411 		strd	r1, r1, [r3, #16]
  63              		.loc 2 539 0
  64 0018 03F15001 		add	r1, r3, #80
  65              	.LBE20:
  66              	.LBE25:
  67              	.LBE30:
  68              	.LBE35:
  69              		.loc 1 71 0
  70 001c 0022     		movs	r2, #0
  71              	.LBB36:
  72              	.LBB31:
  73              	.LBB26:
  74              	.LBB21:
  75              		.loc 2 540 0
  76 001e C3E90855 		strd	r5, r5, [r3, #32]
  77 0022 C3E90C44 		strd	r4, r4, [r3, #48]
  78              		.loc 2 539 0
  79 0026 03F16005 		add	r5, r3, #96
  80 002a 03F17004 		add	r4, r3, #112
  81              		.loc 2 540 0
  82 002e C3E91000 		strd	r0, r0, [r3, #64]
  83 0032 C3E91411 		strd	r1, r1, [r3, #80]
  84              		.loc 2 539 0
  85 0036 03F18000 		add	r0, r3, #128
  86 003a 03F19001 		add	r1, r3, #144
  87              		.loc 2 540 0
  88 003e C3E91855 		strd	r5, r5, [r3, #96]
  89              		.loc 2 539 0
  90 0042 03F1A006 		add	r6, r3, #160
  91              		.loc 2 540 0
  92 0046 C3E91C44 		strd	r4, r4, [r3, #112]
  93              		.loc 2 539 0
  94 004a 03F1B005 		add	r5, r3, #176
  95              	.LBE21:
  96              	.LBE26:
  97              	.LBE31:
  98              	.LBE36:
  99              		.loc 1 71 0
 100 004e C3E90222 		strd	r2, r2, [r3, #8]
 101 0052 C3E90622 		strd	r2, r2, [r3, #24]
 102 0056 C3E90A22 		strd	r2, r2, [r3, #40]
 103 005a C3E90E22 		strd	r2, r2, [r3, #56]
 104 005e C3E91222 		strd	r2, r2, [r3, #72]
 105 0062 C3E91622 		strd	r2, r2, [r3, #88]
 106 0066 C3E91A22 		strd	r2, r2, [r3, #104]
 107              	.LBB37:
 108              	.LBB32:
 109              	.LBB27:
 110              	.LBB22:
 111              		.loc 2 539 0
 112 006a 03F1C004 		add	r4, r3, #192
 113              		.loc 2 540 0
 114 006e C3E90033 		strd	r3, r3, [r3]
ARM GAS  /tmp/cctARxKw.s 			page 3


 115              	.LVL1:
 116              	.LBE22:
 117              	.LBE27:
 118              	.LBE32:
 119              	.LBE37:
 120              		.loc 1 71 0
 121 0072 C3E91E22 		strd	r2, r2, [r3, #120]
 122              	.LVL2:
 123              	.LBB38:
 124              	.LBB33:
 125              	.LBB28:
 126              	.LBB23:
 127              		.loc 2 540 0
 128 0076 C3E92000 		strd	r0, r0, [r3, #128]
 129              	.LVL3:
 130              	.LBE23:
 131              	.LBE28:
 132              	.LBE33:
 133              	.LBE38:
 134              		.loc 1 71 0
 135 007a C3E92222 		strd	r2, r2, [r3, #136]
 136              	.LVL4:
 137 007e C3E92622 		strd	r2, r2, [r3, #152]
 138 0082 C3E92A22 		strd	r2, r2, [r3, #168]
 139 0086 C3E92E22 		strd	r2, r2, [r3, #184]
 140 008a C3E93222 		strd	r2, r2, [r3, #200]
 141 008e C3E93622 		strd	r2, r2, [r3, #216]
 142 0092 C3E93A22 		strd	r2, r2, [r3, #232]
 143 0096 C3E93E22 		strd	r2, r2, [r3, #248]
 144              	.LBB39:
 145              	.LBB34:
 146              	.LBB29:
 147              	.LBB24:
 148              		.loc 2 540 0
 149 009a C3E92411 		strd	r1, r1, [r3, #144]
 150              	.LVL5:
 151              		.loc 2 539 0
 152 009e 03F1D000 		add	r0, r3, #208
 153 00a2 03F1E001 		add	r1, r3, #224
 154 00a6 03F1F002 		add	r2, r3, #240
 155              		.loc 2 540 0
 156 00aa C3E92866 		strd	r6, r6, [r3, #160]
 157              	.LVL6:
 158 00ae C3E92C55 		strd	r5, r5, [r3, #176]
 159              	.LVL7:
 160 00b2 C3E93044 		strd	r4, r4, [r3, #192]
 161              	.LVL8:
 162 00b6 C3E93400 		strd	r0, r0, [r3, #208]
 163              	.LVL9:
 164 00ba C3E93811 		strd	r1, r1, [r3, #224]
 165              	.LVL10:
 166 00be C3E93C22 		strd	r2, r2, [r3, #240]
 167              	.LVL11:
 168              	.LBE24:
 169              	.LBE29:
 170              	.LBE34:
 171              	.LBE39:
ARM GAS  /tmp/cctARxKw.s 			page 4


 172              		.loc 1 74 0
 173 00c2 70BC     		pop	{r4, r5, r6}
 174              		.cfi_restore 6
 175              		.cfi_restore 5
 176              		.cfi_restore 4
 177              		.cfi_def_cfa_offset 0
 178 00c4 7047     		bx	lr
 179              	.L5:
 180 00c6 00BF     		.align	2
 181              	.L4:
 182 00c8 00000000 		.word	.LANCHOR0
 183              		.cfi_endproc
 184              	.LFE327:
 185              		.size	_pal_lld_init, .-_pal_lld_init
 186              		.section	.text._pal_lld_setgroupmode,"ax",%progbits
 187              		.align	1
 188              		.p2align 2,,3
 189              		.global	_pal_lld_setgroupmode
 190              		.syntax unified
 191              		.thumb
 192              		.thumb_func
 193              		.fpu fpv4-sp-d16
 194              		.type	_pal_lld_setgroupmode, %function
 195              	_pal_lld_setgroupmode:
 196              	.LFB328:
 197              		.loc 1 91 0
 198              		.cfi_startproc
 199              		@ args = 0, pretend = 0, frame = 0
 200              		@ frame_needed = 0, uses_anonymous_args = 0
 201              	.LVL12:
 202 0000 2DE9F04F 		push	{r4, r5, r6, r7, r8, r9, r10, fp, lr}
 203              		.cfi_def_cfa_offset 36
 204              		.cfi_offset 4, -36
 205              		.cfi_offset 5, -32
 206              		.cfi_offset 6, -28
 207              		.cfi_offset 7, -24
 208              		.cfi_offset 8, -20
 209              		.cfi_offset 9, -16
 210              		.cfi_offset 10, -12
 211              		.cfi_offset 11, -8
 212              		.cfi_offset 14, -4
 213              		.loc 1 93 0
 214 0004 02F00309 		and	r9, r2, #3
 215              	.LVL13:
 216              		.loc 1 94 0
 217 0008 C2F3800E 		ubfx	lr, r2, #2, #1
 218              	.LVL14:
 219              		.loc 1 95 0
 220 000c C2F3C10C 		ubfx	ip, r2, #3, #2
 221              	.LVL15:
 222              		.loc 1 96 0
 223 0010 C2F34117 		ubfx	r7, r2, #5, #2
 224              	.LVL16:
 225              		.loc 1 93 0
 226 0014 C846     		mov	r8, r9
 227              		.loc 1 97 0
 228 0016 C2F3C312 		ubfx	r2, r2, #7, #4
ARM GAS  /tmp/cctARxKw.s 			page 5


 229              	.LVL17:
 230              		.loc 1 98 0
 231 001a 0026     		movs	r6, #0
 232              	.LBB40:
 233              		.loc 1 104 0
 234 001c 4FF0010A 		mov	r10, #1
 235 0020 16E0     		b	.L13
 236              	.LVL18:
 237              	.L8:
 238              		.loc 1 122 0
 239 0022 D0F800B0 		ldr	fp, [r0]
 240 0026 03EA0B03 		and	r3, r3, fp
 241              	.LVL19:
 242 002a 43EA0803 		orr	r3, r3, r8
 243              		.loc 1 123 0
 244 002e 072E     		cmp	r6, #7
 245              		.loc 1 122 0
 246 0030 0360     		str	r3, [r0]
 247              		.loc 1 123 0
 248 0032 44D8     		bhi	.L11
 249              		.loc 1 124 0
 250 0034 036A     		ldr	r3, [r0, #32]
 251 0036 1D40     		ands	r5, r5, r3
 252 0038 2C43     		orrs	r4, r4, r5
 253              	.LVL20:
 254 003a 0462     		str	r4, [r0, #32]
 255              	.LVL21:
 256              	.L7:
 257              	.LBE40:
 258              		.loc 1 130 0
 259 003c 4908     		lsrs	r1, r1, #1
 260              	.LVL22:
 261 003e 3CD0     		beq	.L6
 262              	.LVL23:
 263              	.L18:
 264              		.loc 1 132 0
 265 0040 4FEA4E0E 		lsl	lr, lr, #1
 266              	.LVL24:
 267              		.loc 1 133 0
 268 0044 4FEA8C0C 		lsl	ip, ip, #2
 269              	.LVL25:
 270              		.loc 1 134 0
 271 0048 BF00     		lsls	r7, r7, #2
 272              	.LVL26:
 273              		.loc 1 135 0
 274 004a 4FEA8808 		lsl	r8, r8, #2
 275              	.LVL27:
 276              		.loc 1 136 0
 277 004e 0136     		adds	r6, r6, #1
 278              	.LVL28:
 279              	.L13:
 280              		.loc 1 100 0
 281 0050 CB07     		lsls	r3, r1, #31
 282 0052 F3D5     		bpl	.L7
 283              	.LBB41:
 284              		.loc 1 107 0
 285 0054 4368     		ldr	r3, [r0, #4]
ARM GAS  /tmp/cctARxKw.s 			page 6


 286              		.loc 1 104 0
 287 0056 0AFA06F4 		lsl	r4, r10, r6
 288              		.loc 1 107 0
 289 005a 23EA0403 		bic	r3, r3, r4
 290 005e 43EA0E03 		orr	r3, r3, lr
 291 0062 4360     		str	r3, [r0, #4]
 292              		.loc 1 105 0
 293 0064 0325     		movs	r5, #3
 294 0066 7300     		lsls	r3, r6, #1
 295              		.loc 1 108 0
 296 0068 8468     		ldr	r4, [r0, #8]
 297              		.loc 1 105 0
 298 006a 05FA03F3 		lsl	r3, r5, r3
 299              		.loc 1 108 0
 300 006e DB43     		mvns	r3, r3
 301 0070 1C40     		ands	r4, r4, r3
 302 0072 44EA0C04 		orr	r4, r4, ip
 303 0076 8460     		str	r4, [r0, #8]
 304              		.loc 1 109 0
 305 0078 C568     		ldr	r5, [r0, #12]
 306              		.loc 1 103 0
 307 007a 06F00704 		and	r4, r6, #7
 308 007e A400     		lsls	r4, r4, #2
 309              		.loc 1 109 0
 310 0080 1D40     		ands	r5, r5, r3
 311              		.loc 1 106 0
 312 0082 4FF00F0B 		mov	fp, #15
 313              		.loc 1 109 0
 314 0086 3D43     		orrs	r5, r5, r7
 315              		.loc 1 106 0
 316 0088 0BFA04FB 		lsl	fp, fp, r4
 317              		.loc 1 110 0
 318 008c B9F1020F 		cmp	r9, #2
 319              		.loc 1 109 0
 320 0090 C560     		str	r5, [r0, #12]
 321              		.loc 1 103 0
 322 0092 02FA04F4 		lsl	r4, r2, r4
 323 0096 6FEA0B05 		mvn	r5, fp
 324              	.LVL29:
 325              		.loc 1 110 0
 326 009a C2D1     		bne	.L8
 327              		.loc 1 113 0
 328 009c 072E     		cmp	r6, #7
 329 009e 13D8     		bhi	.L9
 330              		.loc 1 114 0
 331 00a0 D0F820B0 		ldr	fp, [r0, #32]
 332 00a4 0BEA0505 		and	r5, fp, r5
 333 00a8 2C43     		orrs	r4, r4, r5
 334              	.LVL30:
 335 00aa 0462     		str	r4, [r0, #32]
 336              	.L10:
 337              		.loc 1 117 0
 338 00ac 0468     		ldr	r4, [r0]
 339 00ae 2340     		ands	r3, r3, r4
 340              	.LVL31:
 341 00b0 43EA0803 		orr	r3, r3, r8
 342              	.LBE41:
ARM GAS  /tmp/cctARxKw.s 			page 7


 343              		.loc 1 130 0
 344 00b4 4908     		lsrs	r1, r1, #1
 345              	.LVL32:
 346              	.LBB42:
 347              		.loc 1 117 0
 348 00b6 0360     		str	r3, [r0]
 349              	.LBE42:
 350              		.loc 1 130 0
 351 00b8 C2D1     		bne	.L18
 352              	.LVL33:
 353              	.L6:
 354              		.loc 1 138 0
 355 00ba BDE8F08F 		pop	{r4, r5, r6, r7, r8, r9, r10, fp, pc}
 356              	.LVL34:
 357              	.L11:
 358              	.LBB43:
 359              		.loc 1 126 0
 360 00be 436A     		ldr	r3, [r0, #36]
 361 00c0 1D40     		ands	r5, r5, r3
 362 00c2 2C43     		orrs	r4, r4, r5
 363              	.LVL35:
 364 00c4 4462     		str	r4, [r0, #36]
 365 00c6 B9E7     		b	.L7
 366              	.LVL36:
 367              	.L9:
 368              		.loc 1 116 0
 369 00c8 D0F824B0 		ldr	fp, [r0, #36]
 370 00cc 0BEA0505 		and	r5, fp, r5
 371 00d0 2C43     		orrs	r4, r4, r5
 372              	.LVL37:
 373 00d2 4462     		str	r4, [r0, #36]
 374 00d4 EAE7     		b	.L10
 375              	.LBE43:
 376              		.cfi_endproc
 377              	.LFE328:
 378              		.size	_pal_lld_setgroupmode, .-_pal_lld_setgroupmode
 379 00d6 00BF     		.section	.text._pal_lld_enablepadevent,"ax",%progbits
 380              		.align	1
 381              		.p2align 2,,3
 382              		.global	_pal_lld_enablepadevent
 383              		.syntax unified
 384              		.thumb
 385              		.thumb_func
 386              		.fpu fpv4-sp-d16
 387              		.type	_pal_lld_enablepadevent, %function
 388              	_pal_lld_enablepadevent:
 389              	.LFB329:
 390              		.loc 1 153 0
 391              		.cfi_startproc
 392              		@ args = 0, pretend = 0, frame = 0
 393              		@ frame_needed = 0, uses_anonymous_args = 0
 394              		@ link register save eliminated.
 395              	.LVL38:
 396 0000 21F00303 		bic	r3, r1, #3
 397 0004 03F18043 		add	r3, r3, #1073741824
 398 0008 03F59C33 		add	r3, r3, #79872
 399 000c 70B4     		push	{r4, r5, r6}
ARM GAS  /tmp/cctARxKw.s 			page 8


 400              		.cfi_def_cfa_offset 12
 401              		.cfi_offset 4, -12
 402              		.cfi_offset 5, -8
 403              		.cfi_offset 6, -4
 404              		.loc 1 173 0
 405 000e 01F00304 		and	r4, r1, #3
 406              		.loc 1 181 0
 407 0012 9D68     		ldr	r5, [r3, #8]
 408              		.loc 1 173 0
 409 0014 A400     		lsls	r4, r4, #2
 410              		.loc 1 174 0
 411 0016 0F26     		movs	r6, #15
 412 0018 A640     		lsls	r6, r6, r4
 413              		.loc 1 178 0
 414 001a C0F38320 		ubfx	r0, r0, #10, #4
 415              	.LVL39:
 416              		.loc 1 181 0
 417 001e 25EA0605 		bic	r5, r5, r6
 418 0022 A040     		lsls	r0, r0, r4
 419              		.loc 1 158 0
 420 0024 0124     		movs	r4, #1
 421 0026 04FA01F1 		lsl	r1, r4, r1
 422              	.LVL40:
 423              		.loc 1 181 0
 424 002a 2843     		orrs	r0, r0, r5
 425              	.LVL41:
 426              		.loc 1 199 0
 427 002c 0D4C     		ldr	r4, .L25
 428              		.loc 1 181 0
 429 002e 9860     		str	r0, [r3, #8]
 430              		.loc 1 199 0
 431 0030 A368     		ldr	r3, [r4, #8]
 432              		.loc 1 198 0
 433 0032 D507     		lsls	r5, r2, #31
 434 0034 6FEA0100 		mvn	r0, r1
 435              		.loc 1 199 0
 436 0038 4CBF     		ite	mi
 437 003a 0B43     		orrmi	r3, r3, r1
 438              		.loc 1 201 0
 439 003c 0340     		andpl	r3, r3, r0
 440              		.loc 1 202 0
 441 003e 12F0020F 		tst	r2, #2
 442              		.loc 1 203 0
 443 0042 084A     		ldr	r2, .L25
 444              	.LVL42:
 445              		.loc 1 201 0
 446 0044 A360     		str	r3, [r4, #8]
 447              		.loc 1 203 0
 448 0046 D368     		ldr	r3, [r2, #12]
 449 0048 14BF     		ite	ne
 450 004a 0B43     		orrne	r3, r3, r1
 451              		.loc 1 205 0
 452 004c 0340     		andeq	r3, r3, r0
 453 004e D360     		str	r3, [r2, #12]
 454              		.loc 1 208 0
 455 0050 044B     		ldr	r3, .L25
 456 0052 1A68     		ldr	r2, [r3]
ARM GAS  /tmp/cctARxKw.s 			page 9


 457 0054 1143     		orrs	r1, r1, r2
 458              	.LVL43:
 459 0056 1960     		str	r1, [r3]
 460              		.loc 1 209 0
 461 0058 5A68     		ldr	r2, [r3, #4]
 462 005a 0240     		ands	r2, r2, r0
 463 005c 5A60     		str	r2, [r3, #4]
 464              		.loc 1 211 0
 465 005e 70BC     		pop	{r4, r5, r6}
 466              		.cfi_restore 6
 467              		.cfi_restore 5
 468              		.cfi_restore 4
 469              		.cfi_def_cfa_offset 0
 470 0060 7047     		bx	lr
 471              	.L26:
 472 0062 00BF     		.align	2
 473              	.L25:
 474 0064 003C0140 		.word	1073822720
 475              		.cfi_endproc
 476              	.LFE329:
 477              		.size	_pal_lld_enablepadevent, .-_pal_lld_enablepadevent
 478              		.section	.text._pal_lld_disablepadevent,"ax",%progbits
 479              		.align	1
 480              		.p2align 2,,3
 481              		.global	_pal_lld_disablepadevent
 482              		.syntax unified
 483              		.thumb
 484              		.thumb_func
 485              		.fpu fpv4-sp-d16
 486              		.type	_pal_lld_disablepadevent, %function
 487              	_pal_lld_disablepadevent:
 488              	.LFB330:
 489              		.loc 1 222 0
 490              		.cfi_startproc
 491              		@ args = 0, pretend = 0, frame = 0
 492              		@ frame_needed = 0, uses_anonymous_args = 0
 493              	.LVL44:
 494 0000 F8B5     		push	{r3, r4, r5, r6, r7, lr}
 495              		.cfi_def_cfa_offset 24
 496              		.cfi_offset 3, -24
 497              		.cfi_offset 4, -20
 498              		.cfi_offset 5, -16
 499              		.cfi_offset 6, -12
 500              		.cfi_offset 7, -8
 501              		.cfi_offset 14, -4
 502              		.loc 1 229 0
 503 0002 134B     		ldr	r3, .L34
 504 0004 9D68     		ldr	r5, [r3, #8]
 505              	.LVL45:
 506              		.loc 1 230 0
 507 0006 DC68     		ldr	r4, [r3, #12]
 508              	.LVL46:
 509              		.loc 1 234 0
 510 0008 0122     		movs	r2, #1
 511              		.loc 1 237 0
 512 000a 45EA0400 		orr	r0, r5, r4
 513              	.LVL47:
ARM GAS  /tmp/cctARxKw.s 			page 10


 514              		.loc 1 234 0
 515 000e 8A40     		lsls	r2, r2, r1
 516              	.LVL48:
 517              		.loc 1 237 0
 518 0010 1042     		tst	r0, r2
 519 0012 00D1     		bne	.L33
 520              		.loc 1 273 0
 521 0014 F8BD     		pop	{r3, r4, r5, r6, r7, pc}
 522              	.LVL49:
 523              	.L33:
 524              	.LBB44:
 525              		.loc 1 241 0
 526 0016 8808     		lsrs	r0, r1, #2
 527              	.LVL50:
 528              		.loc 1 248 0
 529 0018 0E4E     		ldr	r6, .L34+4
 530              		.loc 1 270 0
 531 001a 0F4F     		ldr	r7, .L34+8
 532              		.loc 1 248 0
 533 001c 0230     		adds	r0, r0, #2
 534              	.LVL51:
 535              		.loc 1 270 0
 536 001e 07EB0117 		add	r7, r7, r1, lsl #4
 537              		.loc 1 248 0
 538 0022 56F82000 		ldr	r0, [r6, r0, lsl #2]
 539              	.LVL52:
 540              		.loc 1 261 0
 541 0026 1868     		ldr	r0, [r3]
 542 0028 D643     		mvns	r6, r2
 543 002a 3040     		ands	r0, r0, r6
 544 002c 1860     		str	r0, [r3]
 545              		.loc 1 262 0
 546 002e 5868     		ldr	r0, [r3, #4]
 547              		.loc 1 263 0
 548 0030 3540     		ands	r5, r5, r6
 549              	.LVL53:
 550              		.loc 1 264 0
 551 0032 3440     		ands	r4, r4, r6
 552              	.LVL54:
 553              		.loc 1 262 0
 554 0034 0640     		ands	r6, r6, r0
 555 0036 5E60     		str	r6, [r3, #4]
 556              	.LBB45:
 557              	.LBB46:
 558              		.file 3 "./RM18A-ChibiOS18-Core/chibios/os/hal/osal/rt/osal.h"
 559              		.loc 3 857 0
 560 0038 3846     		mov	r0, r7
 561              	.LBE46:
 562              	.LBE45:
 563              		.loc 1 263 0
 564 003a 9D60     		str	r5, [r3, #8]
 565              	.LBB49:
 566              	.LBB47:
 567              		.loc 3 857 0
 568 003c 6FF00101 		mvn	r1, #1
 569              	.LVL55:
 570              	.LBE47:
ARM GAS  /tmp/cctARxKw.s 			page 11


 571              	.LBE49:
 572              		.loc 1 264 0
 573 0040 DC60     		str	r4, [r3, #12]
 574              		.loc 1 265 0
 575 0042 5A61     		str	r2, [r3, #20]
 576              	.LVL56:
 577              	.LBB50:
 578              	.LBB48:
 579              		.loc 3 857 0
 580 0044 FFF7FEFF 		bl	chThdDequeueAllI
 581              	.LVL57:
 582              	.LBE48:
 583              	.LBE50:
 584              		.loc 1 270 0
 585 0048 0023     		movs	r3, #0
 586 004a C7E90233 		strd	r3, r3, [r7, #8]
 587              	.LBE44:
 588              		.loc 1 273 0
 589 004e F8BD     		pop	{r3, r4, r5, r6, r7, pc}
 590              	.L35:
 591              		.align	2
 592              	.L34:
 593 0050 003C0140 		.word	1073822720
 594 0054 00380140 		.word	1073821696
 595 0058 00000000 		.word	.LANCHOR0
 596              		.cfi_endproc
 597              	.LFE330:
 598              		.size	_pal_lld_disablepadevent, .-_pal_lld_disablepadevent
 599              		.global	_pal_events
 600              		.section	.bss._pal_events,"aw",%nobits
 601              		.align	2
 602              		.set	.LANCHOR0,. + 0
 603              		.type	_pal_events, %object
 604              		.size	_pal_events, 256
 605              	_pal_events:
 606 0000 00000000 		.space	256
 606      00000000 
 606      00000000 
 606      00000000 
 606      00000000 
 607              		.text
 608              	.Letext0:
 609              		.file 4 "/usr/lib/gcc/arm-none-eabi/7.3.1/include/stddef.h"
 610              		.file 5 "/usr/arm-none-eabi/include/machine/_default_types.h"
 611              		.file 6 "/usr/arm-none-eabi/include/sys/_stdint.h"
 612              		.file 7 "./RM18A-ChibiOS18-Core/chibios/os/common/ports/ARMCMx/compilers/GCC/chtypes.h"
 613              		.file 8 "./RM18A-ChibiOS18-Core/chibios/os/rt/include/chsystypes.h"
 614              		.file 9 "./RM18A-ChibiOS18-Core/chibios/os/rt/include/chtime.h"
 615              		.file 10 "./RM18A-ChibiOS18-Core/chibios/os/common/ext/ARM/CMSIS/Core/Include/core_cm4.h"
 616              		.file 11 "./RM18A-ChibiOS18-Core/chibios/os/common/ext/ST/STM32F4xx/system_stm32f4xx.h"
 617              		.file 12 "./RM18A-ChibiOS18-Core/chibios/os/common/ext/ST/STM32F4xx/stm32f427xx.h"
 618              		.file 13 "./RM18A-ChibiOS18-Core/chibios/os/common/ports/ARMCMx/chcore.h"
 619              		.file 14 "./RM18A-ChibiOS18-Core/chibios/os/common/ports/ARMCMx/chcore_v7m.h"
 620              		.file 15 "./RM18A-ChibiOS18-Core/chibios/os/hal/ports/STM32/LLD/TIMv1/stm32_tim.h"
 621              		.file 16 "./RM18A-ChibiOS18-Core/chibios/os/rt/include/chtm.h"
 622              		.file 17 "./RM18A-ChibiOS18-Core/chibios/os/rt/include/chsem.h"
 623              		.file 18 "./RM18A-ChibiOS18-Core/chibios/os/rt/include/chmtx.h"
ARM GAS  /tmp/cctARxKw.s 			page 12


 624              		.file 19 "./RM18A-ChibiOS18-Core/chibios/os/rt/include/chsys.h"
 625              		.file 20 "./RM18A-ChibiOS18-Core/chibios/os/rt/include/chregistry.h"
 626              		.file 21 "./RM18A-ChibiOS18-Core/chibios/os/rt/include/chevents.h"
 627              		.file 22 "./RM18A-ChibiOS18-Core/chibios/os/oslib/include/chmemcore.h"
 628              		.file 23 "./RM18A-ChibiOS18-Core/chibios/os/oslib/include/chmempools.h"
 629              		.file 24 "./RM18A-ChibiOS18-Core/chibios/os/oslib/include/chfactory.h"
 630              		.file 25 "./RM18A-ChibiOS18-Core/chibios/os/hal/ports/STM32/LLD/DMAv2/stm32_dma.h"
 631              		.file 26 "./RM18A-ChibiOS18-Core/chibios/os/hal/include/hal_queues.h"
 632              		.file 27 "./RM18A-ChibiOS18-Core/chibios/os/hal/include/hal_pal.h"
 633              		.file 28 "./RM18A-ChibiOS18-Core/chibios/os/hal/ports/STM32/LLD/GPIOv2/stm32_gpio.h"
 634              		.file 29 "./RM18A-ChibiOS18-Core/chibios/os/hal/ports/STM32/LLD/GPIOv2/hal_pal_lld.h"
 635              		.file 30 "./RM18A-ChibiOS18-Core/chibios/os/hal/include/hal_adc.h"
 636              		.file 31 "./RM18A-ChibiOS18-Core/chibios/os/hal/ports/STM32/LLD/ADCv2/hal_adc_lld.h"
 637              		.file 32 "./RM18A-ChibiOS18-Core/chibios/os/hal/include/hal_can.h"
 638              		.file 33 "./RM18A-ChibiOS18-Core/chibios/os/hal/ports/STM32/LLD/CANv1/hal_can_lld.h"
 639              		.file 34 "./RM18A-ChibiOS18-Core/chibios/os/hal/include/hal_icu.h"
 640              		.file 35 "./RM18A-ChibiOS18-Core/chibios/os/hal/ports/STM32/LLD/TIMv1/hal_icu_lld.h"
 641              		.file 36 "./RM18A-ChibiOS18-Core/chibios/os/hal/include/hal_pwm.h"
 642              		.file 37 "./RM18A-ChibiOS18-Core/chibios/os/hal/ports/STM32/LLD/TIMv1/hal_pwm_lld.h"
 643              		.file 38 "./RM18A-ChibiOS18-Core/chibios/os/hal/include/hal_serial.h"
 644              		.file 39 "./RM18A-ChibiOS18-Core/chibios/os/hal/ports/STM32/LLD/USARTv1/hal_serial_lld.h"
 645              		.file 40 "./RM18A-ChibiOS18-Core/chibios/os/hal/include/hal_spi.h"
 646              		.file 41 "./RM18A-ChibiOS18-Core/chibios/os/hal/ports/STM32/LLD/SPIv1/hal_spi_lld.h"
 647              		.file 42 "./RM18A-ChibiOS18-Core/chibios/os/hal/include/hal_uart.h"
 648              		.file 43 "./RM18A-ChibiOS18-Core/chibios/os/hal/ports/STM32/LLD/USARTv1/hal_uart_lld.h"
 649              		.file 44 "./RM18A-ChibiOS18-Core/chibios/os/hal/include/hal_usb.h"
 650              		.file 45 "./RM18A-ChibiOS18-Core/chibios/os/hal/ports/STM32/LLD/OTGv1/hal_usb_lld.h"
 651              		.file 46 "./RM18A-ChibiOS18-Core/chibios/os/hal/ports/STM32/LLD/OTGv1/stm32_otg.h"
 652              		.file 47 "./RM18A-ChibiOS18-Core/chibios/os/rt/include/chthreads.h"