ARM GAS  /tmp/ccHZBDjx.s 			page 1


   1              		.cpu cortex-m4
   2              		.eabi_attribute 27, 1
   3              		.eabi_attribute 28, 1
   4              		.eabi_attribute 20, 1
   5              		.eabi_attribute 21, 1
   6              		.eabi_attribute 23, 3
   7              		.eabi_attribute 24, 1
   8              		.eabi_attribute 25, 1
   9              		.eabi_attribute 26, 1
  10              		.eabi_attribute 30, 2
  11              		.eabi_attribute 34, 1
  12              		.eabi_attribute 18, 4
  13              		.file	"hal_pwm.c"
  14              		.text
  15              	.Ltext0:
  16              		.cfi_sections	.debug_frame
  17              		.section	.text.pwmInit,"ax",%progbits
  18              		.align	1
  19              		.p2align 2,,3
  20              		.global	pwmInit
  21              		.syntax unified
  22              		.thumb
  23              		.thumb_func
  24              		.fpu fpv4-sp-d16
  25              		.type	pwmInit, %function
  26              	pwmInit:
  27              	.LFB327:
  28              		.file 1 "./RM18A-ChibiOS18-Core/chibios/os/hal/src/hal_pwm.c"
  29              		.loc 1 56 0
  30              		.cfi_startproc
  31              		@ args = 0, pretend = 0, frame = 0
  32              		@ frame_needed = 0, uses_anonymous_args = 0
  33              		@ link register save eliminated.
  34              		.loc 1 58 0
  35 0000 FFF7FEBF 		b	pwm_lld_init
  36              	.LVL0:
  37              		.cfi_endproc
  38              	.LFE327:
  39              		.size	pwmInit, .-pwmInit
  40              		.section	.text.pwmObjectInit,"ax",%progbits
  41              		.align	1
  42              		.p2align 2,,3
  43              		.global	pwmObjectInit
  44              		.syntax unified
  45              		.thumb
  46              		.thumb_func
  47              		.fpu fpv4-sp-d16
  48              		.type	pwmObjectInit, %function
  49              	pwmObjectInit:
  50              	.LFB328:
  51              		.loc 1 68 0
  52              		.cfi_startproc
  53              		@ args = 0, pretend = 0, frame = 0
  54              		@ frame_needed = 0, uses_anonymous_args = 0
  55              		@ link register save eliminated.
  56              	.LVL1:
  57              		.loc 1 71 0
ARM GAS  /tmp/ccHZBDjx.s 			page 2


  58 0000 0023     		movs	r3, #0
  59              		.loc 1 70 0
  60 0002 0122     		movs	r2, #1
  61 0004 0270     		strb	r2, [r0]
  62              		.loc 1 71 0
  63 0006 4360     		str	r3, [r0, #4]
  64              		.loc 1 72 0
  65 0008 C360     		str	r3, [r0, #12]
  66              		.loc 1 73 0
  67 000a 0374     		strb	r3, [r0, #16]
  68              		.loc 1 77 0
  69 000c 7047     		bx	lr
  70              		.cfi_endproc
  71              	.LFE328:
  72              		.size	pwmObjectInit, .-pwmObjectInit
  73 000e 00BF     		.section	.text.pwmStart,"ax",%progbits
  74              		.align	1
  75              		.p2align 2,,3
  76              		.global	pwmStart
  77              		.syntax unified
  78              		.thumb
  79              		.thumb_func
  80              		.fpu fpv4-sp-d16
  81              		.type	pwmStart, %function
  82              	pwmStart:
  83              	.LFB329:
  84              		.loc 1 89 0
  85              		.cfi_startproc
  86              		@ args = 0, pretend = 0, frame = 0
  87              		@ frame_needed = 0, uses_anonymous_args = 0
  88              	.LVL2:
  89 0000 10B5     		push	{r4, lr}
  90              		.cfi_def_cfa_offset 8
  91              		.cfi_offset 4, -8
  92              		.cfi_offset 14, -4
  93              	.LBB141:
  94              	.LBB142:
  95              	.LBB143:
  96              	.LBB144:
  97              	.LBB145:
  98              		.file 2 "./RM18A-ChibiOS18-Core/chibios/os/common/ext/ARM/CMSIS/Core/Include/cmsis_gcc.h"
  99              		.loc 2 493 0
 100 0002 2023     		movs	r3, #32
 101              	.LBE145:
 102              	.LBE144:
 103              	.LBE143:
 104              	.LBE142:
 105              	.LBE141:
 106              		.loc 1 89 0
 107 0004 0446     		mov	r4, r0
 108              	.LBB150:
 109              	.LBB149:
 110              	.LBB148:
 111              	.LBB147:
 112              	.LBB146:
 113              		.loc 2 493 0
 114              		.syntax unified
ARM GAS  /tmp/ccHZBDjx.s 			page 3


 115              	@ 493 "./RM18A-ChibiOS18-Core/chibios/os/common/ext/ARM/CMSIS/Core/Include/cmsis_gcc.h" 1
 116 0006 83F31188 		MSR basepri, r3
 117              	@ 0 "" 2
 118              	.LVL3:
 119              		.thumb
 120              		.syntax unified
 121              	.LBE146:
 122              	.LBE147:
 123              	.LBE148:
 124              	.LBE149:
 125              	.LBE150:
 126              		.loc 1 97 0
 127 000a 4B68     		ldr	r3, [r1, #4]
 128 000c C0E90113 		strd	r1, r3, [r0, #4]
 129              		.loc 1 98 0
 130 0010 FFF7FEFF 		bl	pwm_lld_start
 131              	.LVL4:
 132              		.loc 1 100 0
 133 0014 0222     		movs	r2, #2
 134              		.loc 1 99 0
 135 0016 0023     		movs	r3, #0
 136              		.loc 1 100 0
 137 0018 2270     		strb	r2, [r4]
 138              	.LVL5:
 139              		.loc 1 99 0
 140 001a E360     		str	r3, [r4, #12]
 141              	.LBB151:
 142              	.LBB152:
 143              	.LBB153:
 144              	.LBB154:
 145              	.LBB155:
 146              	.LBB156:
 147              		.loc 2 493 0
 148              		.syntax unified
 149              	@ 493 "./RM18A-ChibiOS18-Core/chibios/os/common/ext/ARM/CMSIS/Core/Include/cmsis_gcc.h" 1
 150 001c 83F31188 		MSR basepri, r3
 151              	@ 0 "" 2
 152              	.LVL6:
 153              		.thumb
 154              		.syntax unified
 155              	.LBE156:
 156              	.LBE155:
 157              	.LBE154:
 158              	.LBE153:
 159              	.LBE152:
 160              	.LBE151:
 161              		.loc 1 102 0
 162 0020 10BD     		pop	{r4, pc}
 163              		.cfi_endproc
 164              	.LFE329:
 165              		.size	pwmStart, .-pwmStart
 166 0022 00BF     		.section	.text.pwmStop,"ax",%progbits
 167              		.align	1
 168              		.p2align 2,,3
 169              		.global	pwmStop
 170              		.syntax unified
 171              		.thumb
ARM GAS  /tmp/ccHZBDjx.s 			page 4


 172              		.thumb_func
 173              		.fpu fpv4-sp-d16
 174              		.type	pwmStop, %function
 175              	pwmStop:
 176              	.LFB330:
 177              		.loc 1 111 0
 178              		.cfi_startproc
 179              		@ args = 0, pretend = 0, frame = 0
 180              		@ frame_needed = 0, uses_anonymous_args = 0
 181              	.LVL7:
 182 0000 10B5     		push	{r4, lr}
 183              		.cfi_def_cfa_offset 8
 184              		.cfi_offset 4, -8
 185              		.cfi_offset 14, -4
 186              	.LBB157:
 187              	.LBB158:
 188              	.LBB159:
 189              	.LBB160:
 190              	.LBB161:
 191              		.loc 2 493 0
 192 0002 2023     		movs	r3, #32
 193              	.LBE161:
 194              	.LBE160:
 195              	.LBE159:
 196              	.LBE158:
 197              	.LBE157:
 198              		.loc 1 111 0
 199 0004 0446     		mov	r4, r0
 200              	.LBB166:
 201              	.LBB165:
 202              	.LBB164:
 203              	.LBB163:
 204              	.LBB162:
 205              		.loc 2 493 0
 206              		.syntax unified
 207              	@ 493 "./RM18A-ChibiOS18-Core/chibios/os/common/ext/ARM/CMSIS/Core/Include/cmsis_gcc.h" 1
 208 0006 83F31188 		MSR basepri, r3
 209              	@ 0 "" 2
 210              	.LVL8:
 211              		.thumb
 212              		.syntax unified
 213              	.LBE162:
 214              	.LBE163:
 215              	.LBE164:
 216              	.LBE165:
 217              	.LBE166:
 218              		.loc 1 120 0
 219 000a FFF7FEFF 		bl	pwm_lld_stop
 220              	.LVL9:
 221              		.loc 1 121 0
 222 000e 0023     		movs	r3, #0
 223              		.loc 1 123 0
 224 0010 0122     		movs	r2, #1
 225 0012 2270     		strb	r2, [r4]
 226              	.LVL10:
 227              		.loc 1 121 0
 228 0014 E360     		str	r3, [r4, #12]
ARM GAS  /tmp/ccHZBDjx.s 			page 5


 229              		.loc 1 122 0
 230 0016 6360     		str	r3, [r4, #4]
 231              	.LBB167:
 232              	.LBB168:
 233              	.LBB169:
 234              	.LBB170:
 235              	.LBB171:
 236              	.LBB172:
 237              		.loc 2 493 0
 238              		.syntax unified
 239              	@ 493 "./RM18A-ChibiOS18-Core/chibios/os/common/ext/ARM/CMSIS/Core/Include/cmsis_gcc.h" 1
 240 0018 83F31188 		MSR basepri, r3
 241              	@ 0 "" 2
 242              	.LVL11:
 243              		.thumb
 244              		.syntax unified
 245              	.LBE172:
 246              	.LBE171:
 247              	.LBE170:
 248              	.LBE169:
 249              	.LBE168:
 250              	.LBE167:
 251              		.loc 1 126 0
 252 001c 10BD     		pop	{r4, pc}
 253              		.cfi_endproc
 254              	.LFE330:
 255              		.size	pwmStop, .-pwmStop
 256 001e 00BF     		.section	.text.pwmChangePeriod,"ax",%progbits
 257              		.align	1
 258              		.p2align 2,,3
 259              		.global	pwmChangePeriod
 260              		.syntax unified
 261              		.thumb
 262              		.thumb_func
 263              		.fpu fpv4-sp-d16
 264              		.type	pwmChangePeriod, %function
 265              	pwmChangePeriod:
 266              	.LFB331:
 267              		.loc 1 143 0
 268              		.cfi_startproc
 269              		@ args = 0, pretend = 0, frame = 0
 270              		@ frame_needed = 0, uses_anonymous_args = 0
 271              		@ link register save eliminated.
 272              	.LVL12:
 273              	.LBB173:
 274              	.LBB174:
 275              	.LBB175:
 276              	.LBB176:
 277              	.LBB177:
 278              		.loc 2 493 0
 279 0000 2023     		movs	r3, #32
 280              		.syntax unified
 281              	@ 493 "./RM18A-ChibiOS18-Core/chibios/os/common/ext/ARM/CMSIS/Core/Include/cmsis_gcc.h" 1
 282 0002 83F31188 		MSR basepri, r3
 283              	@ 0 "" 2
 284              	.LVL13:
 285              		.thumb
ARM GAS  /tmp/ccHZBDjx.s 			page 6


 286              		.syntax unified
 287              	.LBE177:
 288              	.LBE176:
 289              	.LBE175:
 290              	.LBE174:
 291              	.LBE173:
 292              		.loc 1 149 0
 293 0006 8369     		ldr	r3, [r0, #24]
 294 0008 8160     		str	r1, [r0, #8]
 295 000a 0139     		subs	r1, r1, #1
 296              	.LVL14:
 297 000c D962     		str	r1, [r3, #44]
 298              	.LVL15:
 299              	.LBB178:
 300              	.LBB179:
 301              	.LBB180:
 302              	.LBB181:
 303              	.LBB182:
 304              	.LBB183:
 305              		.loc 2 493 0
 306 000e 0023     		movs	r3, #0
 307              		.syntax unified
 308              	@ 493 "./RM18A-ChibiOS18-Core/chibios/os/common/ext/ARM/CMSIS/Core/Include/cmsis_gcc.h" 1
 309 0010 83F31188 		MSR basepri, r3
 310              	@ 0 "" 2
 311              	.LVL16:
 312              		.thumb
 313              		.syntax unified
 314              	.LBE183:
 315              	.LBE182:
 316              	.LBE181:
 317              	.LBE180:
 318              	.LBE179:
 319              	.LBE178:
 320              		.loc 1 151 0
 321 0014 7047     		bx	lr
 322              		.cfi_endproc
 323              	.LFE331:
 324              		.size	pwmChangePeriod, .-pwmChangePeriod
 325 0016 00BF     		.section	.text.pwmEnableChannel,"ax",%progbits
 326              		.align	1
 327              		.p2align 2,,3
 328              		.global	pwmEnableChannel
 329              		.syntax unified
 330              		.thumb
 331              		.thumb_func
 332              		.fpu fpv4-sp-d16
 333              		.type	pwmEnableChannel, %function
 334              	pwmEnableChannel:
 335              	.LFB332:
 336              		.loc 1 169 0
 337              		.cfi_startproc
 338              		@ args = 0, pretend = 0, frame = 0
 339              		@ frame_needed = 0, uses_anonymous_args = 0
 340              	.LVL17:
 341 0000 70B5     		push	{r4, r5, r6, lr}
 342              		.cfi_def_cfa_offset 16
ARM GAS  /tmp/ccHZBDjx.s 			page 7


 343              		.cfi_offset 4, -16
 344              		.cfi_offset 5, -12
 345              		.cfi_offset 6, -8
 346              		.cfi_offset 14, -4
 347              	.LBB184:
 348              	.LBB185:
 349              	.LBB186:
 350              	.LBB187:
 351              	.LBB188:
 352              		.loc 2 493 0
 353 0002 2023     		movs	r3, #32
 354              		.syntax unified
 355              	@ 493 "./RM18A-ChibiOS18-Core/chibios/os/common/ext/ARM/CMSIS/Core/Include/cmsis_gcc.h" 1
 356 0004 83F31188 		MSR basepri, r3
 357              	@ 0 "" 2
 358              	.LVL18:
 359              		.thumb
 360              		.syntax unified
 361              	.LBE188:
 362              	.LBE187:
 363              	.LBE186:
 364              	.LBE185:
 365              	.LBE184:
 366              		.loc 1 177 0
 367 0008 0124     		movs	r4, #1
 368 000a C368     		ldr	r3, [r0, #12]
 369 000c 8C40     		lsls	r4, r4, r1
 370 000e 2343     		orrs	r3, r3, r4
 371 0010 C360     		str	r3, [r0, #12]
 372 0012 FFF7FEFF 		bl	pwm_lld_enable_channel
 373              	.LVL19:
 374              	.LBB189:
 375              	.LBB190:
 376              	.LBB191:
 377              	.LBB192:
 378              	.LBB193:
 379              	.LBB194:
 380              		.loc 2 493 0
 381 0016 0023     		movs	r3, #0
 382              		.syntax unified
 383              	@ 493 "./RM18A-ChibiOS18-Core/chibios/os/common/ext/ARM/CMSIS/Core/Include/cmsis_gcc.h" 1
 384 0018 83F31188 		MSR basepri, r3
 385              	@ 0 "" 2
 386              	.LVL20:
 387              		.thumb
 388              		.syntax unified
 389              	.LBE194:
 390              	.LBE193:
 391              	.LBE192:
 392              	.LBE191:
 393              	.LBE190:
 394              	.LBE189:
 395              		.loc 1 180 0
 396 001c 70BD     		pop	{r4, r5, r6, pc}
 397              		.cfi_endproc
 398              	.LFE332:
 399              		.size	pwmEnableChannel, .-pwmEnableChannel
ARM GAS  /tmp/ccHZBDjx.s 			page 8


 400 001e 00BF     		.section	.text.pwmDisableChannel,"ax",%progbits
 401              		.align	1
 402              		.p2align 2,,3
 403              		.global	pwmDisableChannel
 404              		.syntax unified
 405              		.thumb
 406              		.thumb_func
 407              		.fpu fpv4-sp-d16
 408              		.type	pwmDisableChannel, %function
 409              	pwmDisableChannel:
 410              	.LFB333:
 411              		.loc 1 196 0
 412              		.cfi_startproc
 413              		@ args = 0, pretend = 0, frame = 0
 414              		@ frame_needed = 0, uses_anonymous_args = 0
 415              	.LVL21:
 416 0000 38B5     		push	{r3, r4, r5, lr}
 417              		.cfi_def_cfa_offset 16
 418              		.cfi_offset 3, -16
 419              		.cfi_offset 4, -12
 420              		.cfi_offset 5, -8
 421              		.cfi_offset 14, -4
 422              	.LBB195:
 423              	.LBB196:
 424              	.LBB197:
 425              	.LBB198:
 426              	.LBB199:
 427              		.loc 2 493 0
 428 0002 2023     		movs	r3, #32
 429              		.syntax unified
 430              	@ 493 "./RM18A-ChibiOS18-Core/chibios/os/common/ext/ARM/CMSIS/Core/Include/cmsis_gcc.h" 1
 431 0004 83F31188 		MSR basepri, r3
 432              	@ 0 "" 2
 433              	.LVL22:
 434              		.thumb
 435              		.syntax unified
 436              	.LBE199:
 437              	.LBE198:
 438              	.LBE197:
 439              	.LBE196:
 440              	.LBE195:
 441              		.loc 1 204 0
 442 0008 0122     		movs	r2, #1
 443 000a C368     		ldr	r3, [r0, #12]
 444 000c 8A40     		lsls	r2, r2, r1
 445 000e 23EA0203 		bic	r3, r3, r2
 446 0012 C360     		str	r3, [r0, #12]
 447 0014 FFF7FEFF 		bl	pwm_lld_disable_channel
 448              	.LVL23:
 449              	.LBB200:
 450              	.LBB201:
 451              	.LBB202:
 452              	.LBB203:
 453              	.LBB204:
 454              	.LBB205:
 455              		.loc 2 493 0
 456 0018 0023     		movs	r3, #0
ARM GAS  /tmp/ccHZBDjx.s 			page 9


 457              		.syntax unified
 458              	@ 493 "./RM18A-ChibiOS18-Core/chibios/os/common/ext/ARM/CMSIS/Core/Include/cmsis_gcc.h" 1
 459 001a 83F31188 		MSR basepri, r3
 460              	@ 0 "" 2
 461              	.LVL24:
 462              		.thumb
 463              		.syntax unified
 464              	.LBE205:
 465              	.LBE204:
 466              	.LBE203:
 467              	.LBE202:
 468              	.LBE201:
 469              	.LBE200:
 470              		.loc 1 207 0
 471 001e 38BD     		pop	{r3, r4, r5, pc}
 472              		.cfi_endproc
 473              	.LFE333:
 474              		.size	pwmDisableChannel, .-pwmDisableChannel
 475              		.section	.text.pwmEnablePeriodicNotification,"ax",%progbits
 476              		.align	1
 477              		.p2align 2,,3
 478              		.global	pwmEnablePeriodicNotification
 479              		.syntax unified
 480              		.thumb
 481              		.thumb_func
 482              		.fpu fpv4-sp-d16
 483              		.type	pwmEnablePeriodicNotification, %function
 484              	pwmEnablePeriodicNotification:
 485              	.LFB334:
 486              		.loc 1 218 0
 487              		.cfi_startproc
 488              		@ args = 0, pretend = 0, frame = 0
 489              		@ frame_needed = 0, uses_anonymous_args = 0
 490              	.LVL25:
 491 0000 08B5     		push	{r3, lr}
 492              		.cfi_def_cfa_offset 8
 493              		.cfi_offset 3, -8
 494              		.cfi_offset 14, -4
 495              	.LBB206:
 496              	.LBB207:
 497              	.LBB208:
 498              	.LBB209:
 499              	.LBB210:
 500              		.loc 2 493 0
 501 0002 2023     		movs	r3, #32
 502              		.syntax unified
 503              	@ 493 "./RM18A-ChibiOS18-Core/chibios/os/common/ext/ARM/CMSIS/Core/Include/cmsis_gcc.h" 1
 504 0004 83F31188 		MSR basepri, r3
 505              	@ 0 "" 2
 506              	.LVL26:
 507              		.thumb
 508              		.syntax unified
 509              	.LBE210:
 510              	.LBE209:
 511              	.LBE208:
 512              	.LBE207:
 513              	.LBE206:
ARM GAS  /tmp/ccHZBDjx.s 			page 10


 514              		.loc 1 227 0
 515 0008 FFF7FEFF 		bl	pwm_lld_enable_periodic_notification
 516              	.LVL27:
 517              	.LBB211:
 518              	.LBB212:
 519              	.LBB213:
 520              	.LBB214:
 521              	.LBB215:
 522              	.LBB216:
 523              		.loc 2 493 0
 524 000c 0023     		movs	r3, #0
 525              		.syntax unified
 526              	@ 493 "./RM18A-ChibiOS18-Core/chibios/os/common/ext/ARM/CMSIS/Core/Include/cmsis_gcc.h" 1
 527 000e 83F31188 		MSR basepri, r3
 528              	@ 0 "" 2
 529              	.LVL28:
 530              		.thumb
 531              		.syntax unified
 532              	.LBE216:
 533              	.LBE215:
 534              	.LBE214:
 535              	.LBE213:
 536              	.LBE212:
 537              	.LBE211:
 538              		.loc 1 230 0
 539 0012 08BD     		pop	{r3, pc}
 540              		.cfi_endproc
 541              	.LFE334:
 542              		.size	pwmEnablePeriodicNotification, .-pwmEnablePeriodicNotification
 543              		.section	.text.pwmDisablePeriodicNotification,"ax",%progbits
 544              		.align	1
 545              		.p2align 2,,3
 546              		.global	pwmDisablePeriodicNotification
 547              		.syntax unified
 548              		.thumb
 549              		.thumb_func
 550              		.fpu fpv4-sp-d16
 551              		.type	pwmDisablePeriodicNotification, %function
 552              	pwmDisablePeriodicNotification:
 553              	.LFB335:
 554              		.loc 1 241 0
 555              		.cfi_startproc
 556              		@ args = 0, pretend = 0, frame = 0
 557              		@ frame_needed = 0, uses_anonymous_args = 0
 558              	.LVL29:
 559 0000 08B5     		push	{r3, lr}
 560              		.cfi_def_cfa_offset 8
 561              		.cfi_offset 3, -8
 562              		.cfi_offset 14, -4
 563              	.LBB217:
 564              	.LBB218:
 565              	.LBB219:
 566              	.LBB220:
 567              	.LBB221:
 568              		.loc 2 493 0
 569 0002 2023     		movs	r3, #32
 570              		.syntax unified
ARM GAS  /tmp/ccHZBDjx.s 			page 11


 571              	@ 493 "./RM18A-ChibiOS18-Core/chibios/os/common/ext/ARM/CMSIS/Core/Include/cmsis_gcc.h" 1
 572 0004 83F31188 		MSR basepri, r3
 573              	@ 0 "" 2
 574              	.LVL30:
 575              		.thumb
 576              		.syntax unified
 577              	.LBE221:
 578              	.LBE220:
 579              	.LBE219:
 580              	.LBE218:
 581              	.LBE217:
 582              		.loc 1 250 0
 583 0008 FFF7FEFF 		bl	pwm_lld_disable_periodic_notification
 584              	.LVL31:
 585              	.LBB222:
 586              	.LBB223:
 587              	.LBB224:
 588              	.LBB225:
 589              	.LBB226:
 590              	.LBB227:
 591              		.loc 2 493 0
 592 000c 0023     		movs	r3, #0
 593              		.syntax unified
 594              	@ 493 "./RM18A-ChibiOS18-Core/chibios/os/common/ext/ARM/CMSIS/Core/Include/cmsis_gcc.h" 1
 595 000e 83F31188 		MSR basepri, r3
 596              	@ 0 "" 2
 597              	.LVL32:
 598              		.thumb
 599              		.syntax unified
 600              	.LBE227:
 601              	.LBE226:
 602              	.LBE225:
 603              	.LBE224:
 604              	.LBE223:
 605              	.LBE222:
 606              		.loc 1 253 0
 607 0012 08BD     		pop	{r3, pc}
 608              		.cfi_endproc
 609              	.LFE335:
 610              		.size	pwmDisablePeriodicNotification, .-pwmDisablePeriodicNotification
 611              		.section	.text.pwmEnableChannelNotification,"ax",%progbits
 612              		.align	1
 613              		.p2align 2,,3
 614              		.global	pwmEnableChannelNotification
 615              		.syntax unified
 616              		.thumb
 617              		.thumb_func
 618              		.fpu fpv4-sp-d16
 619              		.type	pwmEnableChannelNotification, %function
 620              	pwmEnableChannelNotification:
 621              	.LFB336:
 622              		.loc 1 266 0
 623              		.cfi_startproc
 624              		@ args = 0, pretend = 0, frame = 0
 625              		@ frame_needed = 0, uses_anonymous_args = 0
 626              	.LVL33:
 627 0000 08B5     		push	{r3, lr}
ARM GAS  /tmp/ccHZBDjx.s 			page 12


 628              		.cfi_def_cfa_offset 8
 629              		.cfi_offset 3, -8
 630              		.cfi_offset 14, -4
 631              	.LBB228:
 632              	.LBB229:
 633              	.LBB230:
 634              	.LBB231:
 635              	.LBB232:
 636              		.loc 2 493 0
 637 0002 2023     		movs	r3, #32
 638              		.syntax unified
 639              	@ 493 "./RM18A-ChibiOS18-Core/chibios/os/common/ext/ARM/CMSIS/Core/Include/cmsis_gcc.h" 1
 640 0004 83F31188 		MSR basepri, r3
 641              	@ 0 "" 2
 642              	.LVL34:
 643              		.thumb
 644              		.syntax unified
 645              	.LBE232:
 646              	.LBE231:
 647              	.LBE230:
 648              	.LBE229:
 649              	.LBE228:
 650              		.loc 1 278 0
 651 0008 FFF7FEFF 		bl	pwm_lld_enable_channel_notification
 652              	.LVL35:
 653              	.LBB233:
 654              	.LBB234:
 655              	.LBB235:
 656              	.LBB236:
 657              	.LBB237:
 658              	.LBB238:
 659              		.loc 2 493 0
 660 000c 0023     		movs	r3, #0
 661              		.syntax unified
 662              	@ 493 "./RM18A-ChibiOS18-Core/chibios/os/common/ext/ARM/CMSIS/Core/Include/cmsis_gcc.h" 1
 663 000e 83F31188 		MSR basepri, r3
 664              	@ 0 "" 2
 665              	.LVL36:
 666              		.thumb
 667              		.syntax unified
 668              	.LBE238:
 669              	.LBE237:
 670              	.LBE236:
 671              	.LBE235:
 672              	.LBE234:
 673              	.LBE233:
 674              		.loc 1 281 0
 675 0012 08BD     		pop	{r3, pc}
 676              		.cfi_endproc
 677              	.LFE336:
 678              		.size	pwmEnableChannelNotification, .-pwmEnableChannelNotification
 679              		.section	.text.pwmDisableChannelNotification,"ax",%progbits
 680              		.align	1
 681              		.p2align 2,,3
 682              		.global	pwmDisableChannelNotification
 683              		.syntax unified
 684              		.thumb
ARM GAS  /tmp/ccHZBDjx.s 			page 13


 685              		.thumb_func
 686              		.fpu fpv4-sp-d16
 687              		.type	pwmDisableChannelNotification, %function
 688              	pwmDisableChannelNotification:
 689              	.LFB337:
 690              		.loc 1 294 0
 691              		.cfi_startproc
 692              		@ args = 0, pretend = 0, frame = 0
 693              		@ frame_needed = 0, uses_anonymous_args = 0
 694              	.LVL37:
 695 0000 08B5     		push	{r3, lr}
 696              		.cfi_def_cfa_offset 8
 697              		.cfi_offset 3, -8
 698              		.cfi_offset 14, -4
 699              	.LBB239:
 700              	.LBB240:
 701              	.LBB241:
 702              	.LBB242:
 703              	.LBB243:
 704              		.loc 2 493 0
 705 0002 2023     		movs	r3, #32
 706              		.syntax unified
 707              	@ 493 "./RM18A-ChibiOS18-Core/chibios/os/common/ext/ARM/CMSIS/Core/Include/cmsis_gcc.h" 1
 708 0004 83F31188 		MSR basepri, r3
 709              	@ 0 "" 2
 710              	.LVL38:
 711              		.thumb
 712              		.syntax unified
 713              	.LBE243:
 714              	.LBE242:
 715              	.LBE241:
 716              	.LBE240:
 717              	.LBE239:
 718              		.loc 1 306 0
 719 0008 FFF7FEFF 		bl	pwm_lld_disable_channel_notification
 720              	.LVL39:
 721              	.LBB244:
 722              	.LBB245:
 723              	.LBB246:
 724              	.LBB247:
 725              	.LBB248:
 726              	.LBB249:
 727              		.loc 2 493 0
 728 000c 0023     		movs	r3, #0
 729              		.syntax unified
 730              	@ 493 "./RM18A-ChibiOS18-Core/chibios/os/common/ext/ARM/CMSIS/Core/Include/cmsis_gcc.h" 1
 731 000e 83F31188 		MSR basepri, r3
 732              	@ 0 "" 2
 733              	.LVL40:
 734              		.thumb
 735              		.syntax unified
 736              	.LBE249:
 737              	.LBE248:
 738              	.LBE247:
 739              	.LBE246:
 740              	.LBE245:
 741              	.LBE244:
ARM GAS  /tmp/ccHZBDjx.s 			page 14


 742              		.loc 1 309 0
 743 0012 08BD     		pop	{r3, pc}
 744              		.cfi_endproc
 745              	.LFE337:
 746              		.size	pwmDisableChannelNotification, .-pwmDisableChannelNotification
 747              		.text
 748              	.Letext0:
 749              		.file 3 "/usr/lib/gcc/arm-none-eabi/7.3.1/include/stddef.h"
 750              		.file 4 "/usr/arm-none-eabi/include/machine/_default_types.h"
 751              		.file 5 "/usr/arm-none-eabi/include/sys/_stdint.h"
 752              		.file 6 "./RM18A-ChibiOS18-Core/chibios/os/common/ports/ARMCMx/compilers/GCC/chtypes.h"
 753              		.file 7 "./RM18A-ChibiOS18-Core/chibios/os/rt/include/chsystypes.h"
 754              		.file 8 "./RM18A-ChibiOS18-Core/chibios/os/rt/include/chschd.h"
 755              		.file 9 "./RM18A-ChibiOS18-Core/chibios/os/rt/include/chtime.h"
 756              		.file 10 "./RM18A-ChibiOS18-Core/chibios/os/common/ext/ARM/CMSIS/Core/Include/core_cm4.h"
 757              		.file 11 "./RM18A-ChibiOS18-Core/chibios/os/common/ext/ST/STM32F4xx/system_stm32f4xx.h"
 758              		.file 12 "./RM18A-ChibiOS18-Core/chibios/os/common/ext/ST/STM32F4xx/stm32f427xx.h"
 759              		.file 13 "./RM18A-ChibiOS18-Core/chibios/os/common/ports/ARMCMx/chcore.h"
 760              		.file 14 "./RM18A-ChibiOS18-Core/chibios/os/common/ports/ARMCMx/chcore_v7m.h"
 761              		.file 15 "./RM18A-ChibiOS18-Core/chibios/os/hal/ports/STM32/LLD/TIMv1/stm32_tim.h"
 762              		.file 16 "./RM18A-ChibiOS18-Core/chibios/os/rt/include/chtm.h"
 763              		.file 17 "./RM18A-ChibiOS18-Core/chibios/os/rt/include/chsem.h"
 764              		.file 18 "./RM18A-ChibiOS18-Core/chibios/os/rt/include/chmtx.h"
 765              		.file 19 "./RM18A-ChibiOS18-Core/chibios/os/rt/include/chsys.h"
 766              		.file 20 "./RM18A-ChibiOS18-Core/chibios/os/rt/include/chregistry.h"
 767              		.file 21 "./RM18A-ChibiOS18-Core/chibios/os/rt/include/chevents.h"
 768              		.file 22 "./RM18A-ChibiOS18-Core/chibios/os/oslib/include/chmemcore.h"
 769              		.file 23 "./RM18A-ChibiOS18-Core/chibios/os/oslib/include/chmempools.h"
 770              		.file 24 "./RM18A-ChibiOS18-Core/chibios/os/oslib/include/chfactory.h"
 771              		.file 25 "./RM18A-ChibiOS18-Core/chibios/os/hal/ports/STM32/LLD/DMAv2/stm32_dma.h"
 772              		.file 26 "./RM18A-ChibiOS18-Core/chibios/os/hal/include/hal_queues.h"
 773              		.file 27 "./RM18A-ChibiOS18-Core/chibios/os/hal/include/hal_pal.h"
 774              		.file 28 "./RM18A-ChibiOS18-Core/chibios/os/hal/ports/STM32/LLD/GPIOv2/hal_pal_lld.h"
 775              		.file 29 "./RM18A-ChibiOS18-Core/chibios/os/hal/include/hal_adc.h"
 776              		.file 30 "./RM18A-ChibiOS18-Core/chibios/os/hal/ports/STM32/LLD/ADCv2/hal_adc_lld.h"
 777              		.file 31 "./RM18A-ChibiOS18-Core/chibios/os/hal/include/hal_can.h"
 778              		.file 32 "./RM18A-ChibiOS18-Core/chibios/os/hal/ports/STM32/LLD/CANv1/hal_can_lld.h"
 779              		.file 33 "./RM18A-ChibiOS18-Core/chibios/os/hal/include/hal_icu.h"
 780              		.file 34 "./RM18A-ChibiOS18-Core/chibios/os/hal/ports/STM32/LLD/TIMv1/hal_icu_lld.h"
 781              		.file 35 "./RM18A-ChibiOS18-Core/chibios/os/hal/include/hal_pwm.h"
 782              		.file 36 "./RM18A-ChibiOS18-Core/chibios/os/hal/ports/STM32/LLD/TIMv1/hal_pwm_lld.h"
 783              		.file 37 "./RM18A-ChibiOS18-Core/chibios/os/hal/include/hal_serial.h"
 784              		.file 38 "./RM18A-ChibiOS18-Core/chibios/os/hal/ports/STM32/LLD/USARTv1/hal_serial_lld.h"
 785              		.file 39 "./RM18A-ChibiOS18-Core/chibios/os/hal/include/hal_spi.h"
 786              		.file 40 "./RM18A-ChibiOS18-Core/chibios/os/hal/ports/STM32/LLD/SPIv1/hal_spi_lld.h"
 787              		.file 41 "./RM18A-ChibiOS18-Core/chibios/os/hal/include/hal_uart.h"
 788              		.file 42 "./RM18A-ChibiOS18-Core/chibios/os/hal/ports/STM32/LLD/USARTv1/hal_uart_lld.h"
 789              		.file 43 "./RM18A-ChibiOS18-Core/chibios/os/hal/include/hal_usb.h"
 790              		.file 44 "./RM18A-ChibiOS18-Core/chibios/os/hal/ports/STM32/LLD/OTGv1/hal_usb_lld.h"
 791              		.file 45 "./RM18A-ChibiOS18-Core/chibios/os/hal/ports/STM32/LLD/OTGv1/stm32_otg.h"
 792              		.file 46 "./RM18A-ChibiOS18-Core/chibios/os/hal/osal/rt/osal.h"