ARM GAS  /tmp/ccdXNkuw.s 			page 1


   1              		.cpu cortex-m4
   2              		.eabi_attribute 27, 1
   3              		.eabi_attribute 28, 1
   4              		.eabi_attribute 20, 1
   5              		.eabi_attribute 21, 1
   6              		.eabi_attribute 23, 3
   7              		.eabi_attribute 24, 1
   8              		.eabi_attribute 25, 1
   9              		.eabi_attribute 26, 1
  10              		.eabi_attribute 30, 2
  11              		.eabi_attribute 34, 1
  12              		.eabi_attribute 18, 4
  13              		.file	"hal_i2c_lld.c"
  14              		.text
  15              	.Ltext0:
  16              		.cfi_sections	.debug_frame
  17              		.section	.text.i2c_write_stop,"ax",%progbits
  18              		.align	1
  19              		.p2align 2,,3
  20              		.syntax unified
  21              		.thumb
  22              		.thumb_func
  23              		.fpu fpv4-sp-d16
  24              		.type	i2c_write_stop, %function
  25              	i2c_write_stop:
  26              	.LFB333:
  27              		.file 1 "./RM18A-ChibiOS18-Core/chibios/os/hal/lib/fallback/I2C/hal_i2c_lld.c"
  28              		.loc 1 144 0
  29              		.cfi_startproc
  30              		@ args = 0, pretend = 0, frame = 0
  31              		@ frame_needed = 0, uses_anonymous_args = 0
  32              	.LVL0:
  33 0000 38B5     		push	{r3, r4, r5, lr}
  34              		.cfi_def_cfa_offset 16
  35              		.cfi_offset 3, -16
  36              		.cfi_offset 4, -12
  37              		.cfi_offset 5, -8
  38              		.cfi_offset 14, -4
  39              		.loc 1 146 0
  40 0002 4368     		ldr	r3, [r0, #4]
  41              		.loc 1 144 0
  42 0004 0446     		mov	r4, r0
  43              	.LBB132:
  44              	.LBB133:
  45              	.LBB134:
  46              	.LBB135:
  47              		.file 2 "./RM18A-ChibiOS18-Core/chibios/os/hal/osal/rt/osal.h"
  48              		.loc 2 720 0
  49 0006 D3E90220 		ldrd	r2, r0, [r3, #8]
  50              	.LVL1:
  51              	.LBE135:
  52              	.LBE134:
  53              	.LBE133:
  54              	.LBE132:
  55              		.loc 1 146 0
  56 000a 0125     		movs	r5, #1
  57 000c 02F00F03 		and	r3, r2, #15
ARM GAS  /tmp/ccdXNkuw.s 			page 2


  58 0010 05FA03F3 		lsl	r3, r5, r3
  59 0014 22F00F02 		bic	r2, r2, #15
  60 0018 9BB2     		uxth	r3, r3
  61 001a 5383     		strh	r3, [r2, #26]	@ movhi
  62              	.LVL2:
  63              	.LBB139:
  64              	.LBB138:
  65              	.LBB137:
  66              	.LBB136:
  67              		.loc 2 720 0
  68 001c FFF7FEFF 		bl	chThdSleep
  69              	.LVL3:
  70              	.LBE136:
  71              	.LBE137:
  72              	.LBE138:
  73              	.LBE139:
  74              		.loc 1 148 0
  75 0020 6168     		ldr	r1, [r4, #4]
  76 0022 4B68     		ldr	r3, [r1, #4]
  77 0024 03F00F02 		and	r2, r3, #15
  78 0028 9540     		lsls	r5, r5, r2
  79 002a 23F00F03 		bic	r3, r3, #15
  80 002e ADB2     		uxth	r5, r5
  81 0030 1D83     		strh	r5, [r3, #24]	@ movhi
  82              	.LVL4:
  83              	.LBB140:
  84              	.LBB141:
  85              		.loc 1 107 0
  86 0032 1B69     		ldr	r3, [r3, #16]
  87 0034 D340     		lsrs	r3, r3, r2
  88 0036 D807     		lsls	r0, r3, #31
  89 0038 1BD4     		bmi	.L2
  90              	.LBB142:
  91              	.LBB143:
  92              	.LBB144:
  93              	.LBB145:
  94              	.LBB146:
  95              	.LBB147:
  96              		.file 3 "./RM18A-ChibiOS18-Core/chibios/os/hal/ports/STM32/LLD/TIMv1/hal_st_lld.h"
  97              		.loc 3 147 0
  98 003a 4FF08045 		mov	r5, #1073741824
  99 003e 0EE0     		b	.L4
 100              	.LVL5:
 101              	.L13:
 102              	.LBE147:
 103              	.LBE146:
 104              	.LBE145:
 105              	.LBE144:
 106              	.LBE143:
 107              	.LBE142:
 108              	.LBB153:
 109              	.LBB154:
 110              		.loc 1 79 0
 111 0040 6368     		ldr	r3, [r4, #4]
 112              	.LBB155:
 113              	.LBB156:
 114              		.loc 2 720 0
ARM GAS  /tmp/ccdXNkuw.s 			page 3


 115 0042 D868     		ldr	r0, [r3, #12]
 116 0044 FFF7FEFF 		bl	chThdSleep
 117              	.LVL6:
 118              	.LBE156:
 119              	.LBE155:
 120              	.LBE154:
 121              	.LBE153:
 122              		.loc 1 107 0
 123 0048 6168     		ldr	r1, [r4, #4]
 124 004a 4B68     		ldr	r3, [r1, #4]
 125 004c 23F00F02 		bic	r2, r3, #15
 126 0050 03F00F03 		and	r3, r3, #15
 127 0054 1269     		ldr	r2, [r2, #16]
 128 0056 22FA03F3 		lsr	r3, r2, r3
 129 005a DA07     		lsls	r2, r3, #31
 130 005c 09D4     		bmi	.L2
 131              	.LVL7:
 132              	.L4:
 133              	.LBB157:
 134              	.LBB152:
 135              	.LBB151:
 136              	.LBB150:
 137              	.LBB149:
 138              	.LBB148:
 139              		.loc 3 147 0
 140 005e 686A     		ldr	r0, [r5, #36]
 141              	.LBE148:
 142              	.LBE149:
 143              	.LBE150:
 144              	.LBE151:
 145              	.LBE152:
 146              		.loc 1 108 0
 147 0060 D4E90712 		ldrd	r1, r2, [r4, #28]
 148 0064 FFF7FEFF 		bl	osalOsIsTimeWithinX
 149              	.LVL8:
 150 0068 0028     		cmp	r0, #0
 151 006a E9D1     		bne	.L13
 152              	.LBE157:
 153              	.LBE141:
 154              	.LBE140:
 155              		.loc 1 151 0
 156 006c 4FF0FF30 		mov	r0, #-1
 157              		.loc 1 163 0
 158 0070 38BD     		pop	{r3, r4, r5, pc}
 159              	.LVL9:
 160              	.L2:
 161              	.LBB158:
 162              	.LBB159:
 163              	.LBB160:
 164              	.LBB161:
 165              		.loc 2 720 0
 166 0072 C868     		ldr	r0, [r1, #12]
 167 0074 FFF7FEFF 		bl	chThdSleep
 168              	.LVL10:
 169              	.LBE161:
 170              	.LBE160:
 171              	.LBE159:
ARM GAS  /tmp/ccdXNkuw.s 			page 4


 172              	.LBE158:
 173              		.loc 1 154 0
 174 0078 6368     		ldr	r3, [r4, #4]
 175              	.LBB162:
 176              	.LBB163:
 177              	.LBB164:
 178              	.LBB165:
 179              		.loc 2 720 0
 180 007a D3E90220 		ldrd	r2, r0, [r3, #8]
 181              	.LBE165:
 182              	.LBE164:
 183              	.LBE163:
 184              	.LBE162:
 185              		.loc 1 154 0
 186 007e 0123     		movs	r3, #1
 187 0080 02F00F01 		and	r1, r2, #15
 188 0084 8B40     		lsls	r3, r3, r1
 189 0086 22F00F02 		bic	r2, r2, #15
 190 008a 9BB2     		uxth	r3, r3
 191 008c 1383     		strh	r3, [r2, #24]	@ movhi
 192              	.LVL11:
 193              	.LBB169:
 194              	.LBB168:
 195              	.LBB167:
 196              	.LBB166:
 197              		.loc 2 720 0
 198 008e FFF7FEFF 		bl	chThdSleep
 199              	.LVL12:
 200              	.LBE166:
 201              	.LBE167:
 202              	.LBE168:
 203              	.LBE169:
 204              		.loc 1 158 0
 205 0092 6168     		ldr	r1, [r4, #4]
 206              	.LVL13:
 207              	.LBB170:
 208              	.LBB171:
 209              		.loc 1 87 0
 210 0094 8B68     		ldr	r3, [r1, #8]
 211 0096 23F00F02 		bic	r2, r3, #15
 212 009a 03F00F03 		and	r3, r3, #15
 213 009e 1269     		ldr	r2, [r2, #16]
 214 00a0 22FA03F3 		lsr	r3, r2, r3
 215 00a4 DB07     		lsls	r3, r3, #31
 216 00a6 04D5     		bpl	.L14
 217              	.LVL14:
 218              	.LBE171:
 219              	.LBE170:
 220              	.LBB173:
 221              	.LBB174:
 222              	.LBB175:
 223              	.LBB176:
 224              		.loc 2 720 0
 225 00a8 C868     		ldr	r0, [r1, #12]
 226 00aa FFF7FEFF 		bl	chThdSleep
 227              	.LVL15:
 228              	.LBE176:
ARM GAS  /tmp/ccdXNkuw.s 			page 5


 229              	.LBE175:
 230              	.LBE174:
 231              	.LBE173:
 232              		.loc 1 162 0
 233 00ae 0020     		movs	r0, #0
 234              		.loc 1 163 0
 235 00b0 38BD     		pop	{r3, r4, r5, pc}
 236              	.LVL16:
 237              	.L14:
 238              	.LBB177:
 239              	.LBB172:
 240              		.loc 1 88 0
 241 00b2 237A     		ldrb	r3, [r4, #8]	@ zero_extendqisi2
 242 00b4 43F00203 		orr	r3, r3, #2
 243 00b8 2372     		strb	r3, [r4, #8]
 244              	.LBE172:
 245              	.LBE177:
 246              		.loc 1 158 0
 247 00ba 4FF0FF30 		mov	r0, #-1
 248              		.loc 1 163 0
 249 00be 38BD     		pop	{r3, r4, r5, pc}
 250              		.cfi_endproc
 251              	.LFE333:
 252              		.size	i2c_write_stop, .-i2c_write_stop
 253              		.section	.text.i2c_write_byte,"ax",%progbits
 254              		.align	1
 255              		.p2align 2,,3
 256              		.syntax unified
 257              		.thumb
 258              		.thumb_func
 259              		.fpu fpv4-sp-d16
 260              		.type	i2c_write_byte, %function
 261              	i2c_write_byte:
 262              	.LFB336:
 263              		.loc 1 202 0
 264              		.cfi_startproc
 265              		@ args = 0, pretend = 0, frame = 0
 266              		@ frame_needed = 0, uses_anonymous_args = 0
 267              	.LVL17:
 268 0000 2DE9F047 		push	{r4, r5, r6, r7, r8, r9, r10, lr}
 269              		.cfi_def_cfa_offset 32
 270              		.cfi_offset 4, -32
 271              		.cfi_offset 5, -28
 272              		.cfi_offset 6, -24
 273              		.cfi_offset 7, -20
 274              		.cfi_offset 8, -16
 275              		.cfi_offset 9, -12
 276              		.cfi_offset 10, -8
 277              		.cfi_offset 14, -4
 278              		.loc 1 202 0
 279 0004 0446     		mov	r4, r0
 280              	.LVL18:
 281              	.LBB235:
 282              	.LBB236:
 283              	.LBB237:
 284              	.LBB238:
 285              	.LBB239:
ARM GAS  /tmp/ccdXNkuw.s 			page 6


 286              	.LBB240:
 287              	.LBB241:
 288              		.loc 3 147 0
 289 0006 4FF08045 		mov	r5, #1073741824
 290              	.LBE241:
 291              	.LBE240:
 292              	.LBE239:
 293              	.LBE238:
 294              	.LBE237:
 295              	.LBE236:
 296              	.LBE235:
 297              		.loc 1 202 0
 298 000a 8A46     		mov	r10, r1
 299              	.LBB249:
 300              	.LBB247:
 301              	.LBB246:
 302              	.LBB245:
 303              	.LBB244:
 304              	.LBB243:
 305              	.LBB242:
 306              		.loc 3 147 0
 307 000c 686A     		ldr	r0, [r5, #36]
 308              	.LVL19:
 309              	.LBE242:
 310              	.LBE243:
 311              	.LBE244:
 312              	.LBE245:
 313              	.LBE246:
 314              		.loc 1 97 0
 315 000e 226A     		ldr	r2, [r4, #32]
 316 0010 E169     		ldr	r1, [r4, #28]
 317              	.LVL20:
 318 0012 FFF7FEFF 		bl	osalOsIsTimeWithinX
 319              	.LVL21:
 320 0016 0028     		cmp	r0, #0
 321 0018 00F0AF80 		beq	.L39
 322 001c 6168     		ldr	r1, [r4, #4]
 323 001e 8B68     		ldr	r3, [r1, #8]
 324 0020 0827     		movs	r7, #8
 325 0022 03F00F0E 		and	lr, r3, #15
 326 0026 23F00F0C 		bic	ip, r3, #15
 327              	.LBE247:
 328              	.LBE249:
 329              		.loc 1 208 0
 330 002a 8026     		movs	r6, #128
 331              	.LBB250:
 332              	.LBB251:
 333              		.loc 1 169 0
 334 002c 4FF00109 		mov	r9, #1
 335              	.L22:
 336              	.LVL22:
 337              	.LBE251:
 338              	.LBE250:
 339              		.loc 1 209 0
 340 0030 0AEA0608 		and	r8, r10, r6
 341              	.LVL23:
 342              	.LBB291:
ARM GAS  /tmp/ccdXNkuw.s 			page 7


 343              	.LBB287:
 344              	.LBB252:
 345              		.loc 1 167 0
 346 0034 B8F1000F 		cmp	r8, #0
 347 0038 0EF11000 		add	r0, lr, #16
 348              	.LBE252:
 349              	.LBE287:
 350              	.LBE291:
 351              		.loc 1 209 0
 352 003c 13BF     		iteet	ne
 353 003e 0122     		movne	r2, #1
 354 0040 0022     		moveq	r2, #0
 355              	.LBB292:
 356              	.LBB288:
 357              	.LBB253:
 358              		.loc 1 167 0
 359 0042 0123     		moveq	r3, #1
 360 0044 0023     		movne	r3, #0
 361 0046 02FA0EFE 		lsl	lr, r2, lr
 362 004a 8340     		lsls	r3, r3, r0
 363 004c 43EA0E03 		orr	r3, r3, lr
 364              	.LVL24:
 365              	.LBE253:
 366              	.LBB254:
 367              	.LBB255:
 368              	.LBB256:
 369              	.LBB257:
 370              		.loc 2 720 0
 371 0050 C868     		ldr	r0, [r1, #12]
 372              	.LBE257:
 373              	.LBE256:
 374              	.LBE255:
 375              	.LBE254:
 376              	.LBB261:
 377              		.loc 1 167 0
 378 0052 CCF81830 		str	r3, [ip, #24]
 379              	.LVL25:
 380              	.LBE261:
 381              	.LBB262:
 382              	.LBB260:
 383              	.LBB259:
 384              	.LBB258:
 385              		.loc 2 720 0
 386 0056 FFF7FEFF 		bl	chThdSleep
 387              	.LVL26:
 388              	.LBE258:
 389              	.LBE259:
 390              	.LBE260:
 391              	.LBE262:
 392              		.loc 1 169 0
 393 005a 6368     		ldr	r3, [r4, #4]
 394 005c 5A68     		ldr	r2, [r3, #4]
 395              	.LBB263:
 396              	.LBB264:
 397              	.LBB265:
 398              	.LBB266:
 399              		.loc 2 720 0
ARM GAS  /tmp/ccdXNkuw.s 			page 8


 400 005e D868     		ldr	r0, [r3, #12]
 401              	.LBE266:
 402              	.LBE265:
 403              	.LBE264:
 404              	.LBE263:
 405              		.loc 1 169 0
 406 0060 02F00F03 		and	r3, r2, #15
 407 0064 09FA03F3 		lsl	r3, r9, r3
 408 0068 22F00F02 		bic	r2, r2, #15
 409 006c 9BB2     		uxth	r3, r3
 410 006e 1383     		strh	r3, [r2, #24]	@ movhi
 411 0070 08E0     		b	.L37
 412              	.LVL27:
 413              	.L40:
 414              	.LBB270:
 415              	.LBB271:
 416              	.LBB272:
 417              	.LBB273:
 418              	.LBB274:
 419              	.LBB275:
 420              	.LBB276:
 421              	.LBB277:
 422              		.loc 3 147 0
 423 0072 686A     		ldr	r0, [r5, #36]
 424              	.LBE277:
 425              	.LBE276:
 426              	.LBE275:
 427              	.LBE274:
 428              	.LBE273:
 429              		.loc 1 108 0
 430 0074 D4E90712 		ldrd	r1, r2, [r4, #28]
 431 0078 FFF7FEFF 		bl	osalOsIsTimeWithinX
 432              	.LVL28:
 433 007c 0028     		cmp	r0, #0
 434 007e 4FD0     		beq	.L38
 435              	.LBE272:
 436              	.LBB278:
 437              	.LBB279:
 438              		.loc 1 79 0
 439 0080 6368     		ldr	r3, [r4, #4]
 440              	.LBB280:
 441              	.LBB281:
 442              		.loc 2 720 0
 443 0082 D868     		ldr	r0, [r3, #12]
 444              	.LVL29:
 445              	.L37:
 446              	.LBE281:
 447              	.LBE280:
 448              	.LBE279:
 449              	.LBE278:
 450              	.LBE271:
 451              	.LBE270:
 452              	.LBB283:
 453              	.LBB269:
 454              	.LBB268:
 455              	.LBB267:
 456 0084 FFF7FEFF 		bl	chThdSleep
ARM GAS  /tmp/ccdXNkuw.s 			page 9


 457              	.LVL30:
 458              	.LBE267:
 459              	.LBE268:
 460              	.LBE269:
 461              	.LBE283:
 462              	.LBB284:
 463              	.LBB282:
 464              		.loc 1 107 0
 465 0088 6168     		ldr	r1, [r4, #4]
 466 008a 4A68     		ldr	r2, [r1, #4]
 467 008c 22F00F00 		bic	r0, r2, #15
 468 0090 02F00F02 		and	r2, r2, #15
 469 0094 0369     		ldr	r3, [r0, #16]
 470 0096 D340     		lsrs	r3, r3, r2
 471 0098 DB07     		lsls	r3, r3, #31
 472 009a EAD5     		bpl	.L40
 473              	.LVL31:
 474 009c 8B68     		ldr	r3, [r1, #8]
 475 009e 23F00F0C 		bic	ip, r3, #15
 476 00a2 03F00F0E 		and	lr, r3, #15
 477              	.LBE282:
 478              	.LBE284:
 479              		.loc 1 176 0
 480 00a6 B8F1000F 		cmp	r8, #0
 481 00aa 3DD1     		bne	.L41
 482              	.L21:
 483              		.loc 1 180 0
 484 00ac 09FA02F3 		lsl	r3, r9, r2
 485 00b0 9BB2     		uxth	r3, r3
 486              	.LBE288:
 487              	.LBE292:
 488              		.loc 1 208 0
 489 00b2 013F     		subs	r7, r7, #1
 490              	.LBB293:
 491              	.LBB289:
 492              		.loc 1 180 0
 493 00b4 4383     		strh	r3, [r0, #26]	@ movhi
 494              	.LVL32:
 495              	.LBE289:
 496              	.LBE293:
 497              		.loc 1 208 0
 498 00b6 4FEA5606 		lsr	r6, r6, #1
 499              	.LVL33:
 500 00ba B9D1     		bne	.L22
 501              	.LVL34:
 502              	.LBB294:
 503              	.LBB295:
 504              	.LBB296:
 505              	.LBB297:
 506              		.loc 1 188 0
 507 00bc 09FA0EFE 		lsl	lr, r9, lr
 508 00c0 1FFA8EFE 		uxth	lr, lr
 509              	.LBB298:
 510              	.LBB299:
 511              	.LBB300:
 512              	.LBB301:
 513              		.loc 2 720 0
ARM GAS  /tmp/ccdXNkuw.s 			page 10


 514 00c4 C868     		ldr	r0, [r1, #12]
 515              	.LBE301:
 516              	.LBE300:
 517              	.LBE299:
 518              	.LBE298:
 519              		.loc 1 188 0
 520 00c6 ACF818E0 		strh	lr, [ip, #24]	@ movhi
 521              	.LVL35:
 522              	.LBB305:
 523              	.LBB304:
 524              	.LBB303:
 525              	.LBB302:
 526              		.loc 2 720 0
 527 00ca FFF7FEFF 		bl	chThdSleep
 528              	.LVL36:
 529              	.LBE302:
 530              	.LBE303:
 531              	.LBE304:
 532              	.LBE305:
 533              		.loc 1 190 0
 534 00ce 6168     		ldr	r1, [r4, #4]
 535 00d0 4B68     		ldr	r3, [r1, #4]
 536 00d2 03F00F02 		and	r2, r3, #15
 537 00d6 09FA02F9 		lsl	r9, r9, r2
 538 00da 23F00F03 		bic	r3, r3, #15
 539 00de 1FFA89F9 		uxth	r9, r9
 540 00e2 A3F81890 		strh	r9, [r3, #24]	@ movhi
 541              	.LVL37:
 542              	.LBB306:
 543              	.LBB307:
 544              		.loc 1 107 0
 545 00e6 1B69     		ldr	r3, [r3, #16]
 546 00e8 D340     		lsrs	r3, r3, r2
 547 00ea DA07     		lsls	r2, r3, #31
 548 00ec 27D4     		bmi	.L23
 549              	.LBB308:
 550              	.LBB309:
 551              	.LBB310:
 552              	.LBB311:
 553              	.LBB312:
 554              	.LBB313:
 555              		.loc 3 147 0
 556 00ee 4FF08045 		mov	r5, #1073741824
 557 00f2 0EE0     		b	.L25
 558              	.LVL38:
 559              	.L42:
 560              	.LBE313:
 561              	.LBE312:
 562              	.LBE311:
 563              	.LBE310:
 564              	.LBE309:
 565              	.LBE308:
 566              	.LBB319:
 567              	.LBB320:
 568              		.loc 1 79 0
 569 00f4 6368     		ldr	r3, [r4, #4]
 570              	.LBB321:
ARM GAS  /tmp/ccdXNkuw.s 			page 11


 571              	.LBB322:
 572              		.loc 2 720 0
 573 00f6 D868     		ldr	r0, [r3, #12]
 574 00f8 FFF7FEFF 		bl	chThdSleep
 575              	.LVL39:
 576              	.LBE322:
 577              	.LBE321:
 578              	.LBE320:
 579              	.LBE319:
 580              		.loc 1 107 0
 581 00fc 6168     		ldr	r1, [r4, #4]
 582 00fe 4B68     		ldr	r3, [r1, #4]
 583 0100 23F00F02 		bic	r2, r3, #15
 584 0104 03F00F03 		and	r3, r3, #15
 585 0108 1269     		ldr	r2, [r2, #16]
 586 010a 22FA03F3 		lsr	r3, r2, r3
 587 010e DB07     		lsls	r3, r3, #31
 588 0110 15D4     		bmi	.L23
 589              	.LVL40:
 590              	.L25:
 591              	.LBB323:
 592              	.LBB318:
 593              	.LBB317:
 594              	.LBB316:
 595              	.LBB315:
 596              	.LBB314:
 597              		.loc 3 147 0
 598 0112 686A     		ldr	r0, [r5, #36]
 599              	.LBE314:
 600              	.LBE315:
 601              	.LBE316:
 602              	.LBE317:
 603              	.LBE318:
 604              		.loc 1 108 0
 605 0114 D4E90712 		ldrd	r1, r2, [r4, #28]
 606 0118 FFF7FEFF 		bl	osalOsIsTimeWithinX
 607              	.LVL41:
 608 011c 0028     		cmp	r0, #0
 609 011e E9D1     		bne	.L42
 610              	.LVL42:
 611              	.L38:
 612              	.LBE323:
 613              	.LBE307:
 614              	.LBE306:
 615              	.LBE297:
 616              	.LBE296:
 617              	.LBE295:
 618              	.LBE294:
 619              		.loc 1 209 0
 620 0120 4FF0FF30 		mov	r0, #-1
 621              	.LVL43:
 622              	.L15:
 623              		.loc 1 222 0
 624 0124 BDE8F087 		pop	{r4, r5, r6, r7, r8, r9, r10, pc}
 625              	.LVL44:
 626              	.L41:
 627              	.LBB333:
ARM GAS  /tmp/ccdXNkuw.s 			page 12


 628              	.LBB290:
 629              	.LBB285:
 630              	.LBB286:
 631              		.loc 1 87 0
 632 0128 DCF81030 		ldr	r3, [ip, #16]
 633 012c 23FA0EF3 		lsr	r3, r3, lr
 634 0130 DB07     		lsls	r3, r3, #31
 635 0132 BBD4     		bmi	.L21
 636              		.loc 1 88 0
 637 0134 237A     		ldrb	r3, [r4, #8]	@ zero_extendqisi2
 638 0136 43F00203 		orr	r3, r3, #2
 639 013a 2372     		strb	r3, [r4, #8]
 640 013c F0E7     		b	.L38
 641              	.LVL45:
 642              	.L23:
 643              	.LBE286:
 644              	.LBE285:
 645              	.LBE290:
 646              	.LBE333:
 647              	.LBB334:
 648              	.LBB332:
 649              	.LBB330:
 650              	.LBB328:
 651              	.LBB324:
 652              	.LBB325:
 653              	.LBB326:
 654              	.LBB327:
 655              		.loc 2 720 0
 656 013e C868     		ldr	r0, [r1, #12]
 657 0140 FFF7FEFF 		bl	chThdSleep
 658              	.LVL46:
 659              	.LBE327:
 660              	.LBE326:
 661              	.LBE325:
 662              	.LBE324:
 663              		.loc 1 196 0
 664 0144 6368     		ldr	r3, [r4, #4]
 665              		.loc 1 197 0
 666 0146 D3E90121 		ldrd	r2, r1, [r3, #4]
 667              		.loc 1 196 0
 668 014a 21F00F00 		bic	r0, r1, #15
 669              		.loc 1 197 0
 670 014e 02F00F05 		and	r5, r2, #15
 671              		.loc 1 196 0
 672 0152 0069     		ldr	r0, [r0, #16]
 673              		.loc 1 197 0
 674 0154 0123     		movs	r3, #1
 675              		.loc 1 196 0
 676 0156 01F00F01 		and	r1, r1, #15
 677              		.loc 1 197 0
 678 015a 22F00F02 		bic	r2, r2, #15
 679 015e AB40     		lsls	r3, r3, r5
 680              		.loc 1 196 0
 681 0160 C840     		lsrs	r0, r0, r1
 682              	.LVL47:
 683              		.loc 1 197 0
 684 0162 9BB2     		uxth	r3, r3
ARM GAS  /tmp/ccdXNkuw.s 			page 13


 685              	.LBE328:
 686              	.LBE330:
 687              		.loc 1 216 0
 688 0164 10F00100 		ands	r0, r0, #1
 689              	.LVL48:
 690              	.LBB331:
 691              	.LBB329:
 692              		.loc 1 197 0
 693 0168 5383     		strh	r3, [r2, #26]	@ movhi
 694              	.LVL49:
 695              	.LBE329:
 696              	.LBE331:
 697              		.loc 1 216 0
 698 016a DBD0     		beq	.L15
 699              		.loc 1 217 0
 700 016c 237A     		ldrb	r3, [r4, #8]	@ zero_extendqisi2
 701 016e 43F00403 		orr	r3, r3, #4
 702 0172 2372     		strb	r3, [r4, #8]
 703              		.loc 1 218 0
 704 0174 6FF00100 		mvn	r0, #1
 705 0178 D4E7     		b	.L15
 706              	.LVL50:
 707              	.L39:
 708              	.LBE332:
 709              	.LBE334:
 710              	.LBB335:
 711              	.LBB248:
 712              		.loc 1 98 0
 713 017a 2046     		mov	r0, r4
 714 017c FFF7FEFF 		bl	i2c_write_stop
 715              	.LVL51:
 716              	.LBE248:
 717              	.LBE335:
 718              		.loc 1 206 0
 719 0180 4FF0FF30 		mov	r0, #-1
 720 0184 CEE7     		b	.L15
 721              		.cfi_endproc
 722              	.LFE336:
 723              		.size	i2c_write_byte, .-i2c_write_byte
 724 0186 00BF     		.section	.text.i2c_write_bit,"ax",%progbits
 725              		.align	1
 726              		.p2align 2,,3
 727              		.syntax unified
 728              		.thumb
 729              		.thumb_func
 730              		.fpu fpv4-sp-d16
 731              		.type	i2c_write_bit, %function
 732              	i2c_write_bit:
 733              	.LFB334:
 734              		.loc 1 165 0
 735              		.cfi_startproc
 736              		@ args = 0, pretend = 0, frame = 0
 737              		@ frame_needed = 0, uses_anonymous_args = 0
 738              	.LVL52:
 739              	.LBB359:
 740              		.loc 1 167 0
 741 0000 4368     		ldr	r3, [r0, #4]
ARM GAS  /tmp/ccdXNkuw.s 			page 14


 742              	.LBE359:
 743              		.loc 1 165 0
 744 0002 70B5     		push	{r4, r5, r6, lr}
 745              		.cfi_def_cfa_offset 16
 746              		.cfi_offset 4, -16
 747              		.cfi_offset 5, -12
 748              		.cfi_offset 6, -8
 749              		.cfi_offset 14, -4
 750              		.loc 1 165 0
 751 0004 0446     		mov	r4, r0
 752              	.LBB360:
 753              	.LBB361:
 754              	.LBB362:
 755              	.LBB363:
 756              		.loc 2 720 0
 757 0006 D3E90220 		ldrd	r2, r0, [r3, #8]
 758              	.LVL53:
 759              	.LBE363:
 760              	.LBE362:
 761              	.LBE361:
 762              	.LBE360:
 763              		.loc 1 165 0
 764 000a 0E46     		mov	r6, r1
 765              	.LBB367:
 766              		.loc 1 167 0
 767 000c 02F00F01 		and	r1, r2, #15
 768              	.LVL54:
 769 0010 01F11005 		add	r5, r1, #16
 770 0014 86F00103 		eor	r3, r6, #1
 771 0018 22F00F02 		bic	r2, r2, #15
 772 001c 06FA01F1 		lsl	r1, r6, r1
 773 0020 AB40     		lsls	r3, r3, r5
 774 0022 0B43     		orrs	r3, r3, r1
 775              	.LVL55:
 776 0024 9361     		str	r3, [r2, #24]
 777              	.LVL56:
 778              	.LBE367:
 779              	.LBB368:
 780              	.LBB366:
 781              	.LBB365:
 782              	.LBB364:
 783              		.loc 2 720 0
 784 0026 FFF7FEFF 		bl	chThdSleep
 785              	.LVL57:
 786              	.LBE364:
 787              	.LBE365:
 788              	.LBE366:
 789              	.LBE368:
 790              		.loc 1 169 0
 791 002a 6368     		ldr	r3, [r4, #4]
 792 002c 5A68     		ldr	r2, [r3, #4]
 793              	.LBB369:
 794              	.LBB370:
 795              	.LBB371:
 796              	.LBB372:
 797              		.loc 2 720 0
 798 002e D868     		ldr	r0, [r3, #12]
ARM GAS  /tmp/ccdXNkuw.s 			page 15


 799              	.LBE372:
 800              	.LBE371:
 801              	.LBE370:
 802              	.LBE369:
 803              		.loc 1 169 0
 804 0030 02F00F01 		and	r1, r2, #15
 805 0034 0123     		movs	r3, #1
 806 0036 22F00F02 		bic	r2, r2, #15
 807 003a 8B40     		lsls	r3, r3, r1
 808 003c 9BB2     		uxth	r3, r3
 809 003e 1383     		strh	r3, [r2, #24]	@ movhi
 810              	.LVL58:
 811              	.LBB376:
 812              	.LBB375:
 813              	.LBB374:
 814              	.LBB373:
 815              		.loc 2 720 0
 816 0040 FFF7FEFF 		bl	chThdSleep
 817              	.LVL59:
 818              	.LBE373:
 819              	.LBE374:
 820              	.LBE375:
 821              	.LBE376:
 822              	.LBB377:
 823              	.LBB378:
 824              		.loc 1 107 0
 825 0044 6068     		ldr	r0, [r4, #4]
 826 0046 4268     		ldr	r2, [r0, #4]
 827 0048 22F00F01 		bic	r1, r2, #15
 828 004c 02F00F02 		and	r2, r2, #15
 829 0050 0B69     		ldr	r3, [r1, #16]
 830 0052 D340     		lsrs	r3, r3, r2
 831 0054 DD07     		lsls	r5, r3, #31
 832              	.LVL60:
 833 0056 1AD4     		bmi	.L44
 834              	.LBB379:
 835              	.LBB380:
 836              	.LBB381:
 837              	.LBB382:
 838              	.LBB383:
 839              	.LBB384:
 840              		.loc 3 147 0
 841 0058 4FF08045 		mov	r5, #1073741824
 842 005c 0DE0     		b	.L46
 843              	.LVL61:
 844              	.L53:
 845              	.LBE384:
 846              	.LBE383:
 847              	.LBE382:
 848              	.LBE381:
 849              	.LBE380:
 850              	.LBE379:
 851              	.LBB390:
 852              	.LBB391:
 853              		.loc 1 79 0
 854 005e 6368     		ldr	r3, [r4, #4]
 855              	.LBB392:
ARM GAS  /tmp/ccdXNkuw.s 			page 16


 856              	.LBB393:
 857              		.loc 2 720 0
 858 0060 D868     		ldr	r0, [r3, #12]
 859 0062 FFF7FEFF 		bl	chThdSleep
 860              	.LVL62:
 861              	.LBE393:
 862              	.LBE392:
 863              	.LBE391:
 864              	.LBE390:
 865              		.loc 1 107 0
 866 0066 6068     		ldr	r0, [r4, #4]
 867 0068 4268     		ldr	r2, [r0, #4]
 868 006a 22F00F01 		bic	r1, r2, #15
 869 006e 02F00F02 		and	r2, r2, #15
 870 0072 0B69     		ldr	r3, [r1, #16]
 871 0074 D340     		lsrs	r3, r3, r2
 872 0076 DB07     		lsls	r3, r3, #31
 873 0078 09D4     		bmi	.L44
 874              	.LVL63:
 875              	.L46:
 876              	.LBB394:
 877              	.LBB389:
 878              	.LBB388:
 879              	.LBB387:
 880              	.LBB386:
 881              	.LBB385:
 882              		.loc 3 147 0
 883 007a 686A     		ldr	r0, [r5, #36]
 884              	.LBE385:
 885              	.LBE386:
 886              	.LBE387:
 887              	.LBE388:
 888              	.LBE389:
 889              		.loc 1 108 0
 890 007c D4E90712 		ldrd	r1, r2, [r4, #28]
 891 0080 FFF7FEFF 		bl	osalOsIsTimeWithinX
 892              	.LVL64:
 893 0084 0028     		cmp	r0, #0
 894 0086 EAD1     		bne	.L53
 895              	.LBE394:
 896              	.LBE378:
 897              	.LBE377:
 898              		.loc 1 173 0
 899 0088 4FF0FF30 		mov	r0, #-1
 900              		.loc 1 183 0
 901 008c 70BD     		pop	{r4, r5, r6, pc}
 902              	.LVL65:
 903              	.L44:
 904              		.loc 1 176 0
 905 008e 012E     		cmp	r6, #1
 906 0090 05D0     		beq	.L54
 907              	.L47:
 908              		.loc 1 180 0
 909 0092 0123     		movs	r3, #1
 910 0094 9340     		lsls	r3, r3, r2
 911 0096 9BB2     		uxth	r3, r3
 912 0098 4B83     		strh	r3, [r1, #26]	@ movhi
ARM GAS  /tmp/ccdXNkuw.s 			page 17


 913              		.loc 1 182 0
 914 009a 0020     		movs	r0, #0
 915              		.loc 1 183 0
 916 009c 70BD     		pop	{r4, r5, r6, pc}
 917              	.LVL66:
 918              	.L54:
 919              	.LBB395:
 920              	.LBB396:
 921              		.loc 1 87 0
 922 009e 8368     		ldr	r3, [r0, #8]
 923 00a0 23F00F00 		bic	r0, r3, #15
 924 00a4 03F00F03 		and	r3, r3, #15
 925 00a8 0069     		ldr	r0, [r0, #16]
 926 00aa 20FA03F3 		lsr	r3, r0, r3
 927 00ae DB07     		lsls	r3, r3, #31
 928 00b0 EFD4     		bmi	.L47
 929              		.loc 1 88 0
 930 00b2 237A     		ldrb	r3, [r4, #8]	@ zero_extendqisi2
 931 00b4 43F00203 		orr	r3, r3, #2
 932 00b8 2372     		strb	r3, [r4, #8]
 933              	.LBE396:
 934              	.LBE395:
 935              		.loc 1 177 0
 936 00ba 4FF0FF30 		mov	r0, #-1
 937              		.loc 1 183 0
 938 00be 70BD     		pop	{r4, r5, r6, pc}
 939              		.cfi_endproc
 940              	.LFE334:
 941              		.size	i2c_write_bit, .-i2c_write_bit
 942              		.section	.text.i2c_lld_init,"ax",%progbits
 943              		.align	1
 944              		.p2align 2,,3
 945              		.global	i2c_lld_init
 946              		.syntax unified
 947              		.thumb
 948              		.thumb_func
 949              		.fpu fpv4-sp-d16
 950              		.type	i2c_lld_init, %function
 951              	i2c_lld_init:
 952              	.LFB339:
 953              		.loc 1 285 0
 954              		.cfi_startproc
 955              		@ args = 0, pretend = 0, frame = 0
 956              		@ frame_needed = 0, uses_anonymous_args = 0
 957              		@ link register save eliminated.
 958              		.loc 1 299 0
 959 0000 7047     		bx	lr
 960              		.cfi_endproc
 961              	.LFE339:
 962              		.size	i2c_lld_init, .-i2c_lld_init
 963 0002 00BF     		.section	.text.i2c_lld_start,"ax",%progbits
 964              		.align	1
 965              		.p2align 2,,3
 966              		.global	i2c_lld_start
 967              		.syntax unified
 968              		.thumb
 969              		.thumb_func
ARM GAS  /tmp/ccdXNkuw.s 			page 18


 970              		.fpu fpv4-sp-d16
 971              		.type	i2c_lld_start, %function
 972              	i2c_lld_start:
 973              	.LFB340:
 974              		.loc 1 308 0
 975              		.cfi_startproc
 976              		@ args = 0, pretend = 0, frame = 0
 977              		@ frame_needed = 0, uses_anonymous_args = 0
 978              		@ link register save eliminated.
 979              	.LVL67:
 980              		.loc 1 312 0
 981 0000 7047     		bx	lr
 982              		.cfi_endproc
 983              	.LFE340:
 984              		.size	i2c_lld_start, .-i2c_lld_start
 985 0002 00BF     		.section	.text.i2c_lld_stop,"ax",%progbits
 986              		.align	1
 987              		.p2align 2,,3
 988              		.global	i2c_lld_stop
 989              		.syntax unified
 990              		.thumb
 991              		.thumb_func
 992              		.fpu fpv4-sp-d16
 993              		.type	i2c_lld_stop, %function
 994              	i2c_lld_stop:
 995              	.LFB350:
 996              		.cfi_startproc
 997              		@ args = 0, pretend = 0, frame = 0
 998              		@ frame_needed = 0, uses_anonymous_args = 0
 999              		@ link register save eliminated.
 1000 0000 7047     		bx	lr
 1001              		.cfi_endproc
 1002              	.LFE350:
 1003              		.size	i2c_lld_stop, .-i2c_lld_stop
 1004 0002 00BF     		.section	.text.i2c_lld_master_receive_timeout,"ax",%progbits
 1005              		.align	1
 1006              		.p2align 2,,3
 1007              		.global	i2c_lld_master_receive_timeout
 1008              		.syntax unified
 1009              		.thumb
 1010              		.thumb_func
 1011              		.fpu fpv4-sp-d16
 1012              		.type	i2c_lld_master_receive_timeout, %function
 1013              	i2c_lld_master_receive_timeout:
 1014              	.LFB342:
 1015              		.loc 1 350 0
 1016              		.cfi_startproc
 1017              		@ args = 4, pretend = 0, frame = 0
 1018              		@ frame_needed = 0, uses_anonymous_args = 0
 1019              	.LVL68:
 1020              		.loc 1 350 0
 1021 0000 2DE9F047 		push	{r4, r5, r6, r7, r8, r9, r10, lr}
 1022              		.cfi_def_cfa_offset 32
 1023              		.cfi_offset 4, -32
 1024              		.cfi_offset 5, -28
 1025              		.cfi_offset 6, -24
 1026              		.cfi_offset 7, -20
ARM GAS  /tmp/ccdXNkuw.s 			page 19


 1027              		.cfi_offset 8, -16
 1028              		.cfi_offset 9, -12
 1029              		.cfi_offset 10, -8
 1030              		.cfi_offset 14, -4
 1031              	.LBB452:
 1032              	.LBB453:
 1033              	.LBB454:
 1034              	.LBB455:
 1035              	.LBB456:
 1036              		.loc 3 147 0
 1037 0004 4FF08045 		mov	r5, #1073741824
 1038              	.LBE456:
 1039              	.LBE455:
 1040              	.LBE454:
 1041              	.LBE453:
 1042              	.LBE452:
 1043              		.loc 1 350 0
 1044 0008 0446     		mov	r4, r0
 1045              	.LVL69:
 1046 000a 0898     		ldr	r0, [sp, #32]
 1047              	.LVL70:
 1048              	.LBB461:
 1049              	.LBB460:
 1050              	.LBB459:
 1051              	.LBB458:
 1052              	.LBB457:
 1053              		.loc 3 147 0
 1054 000c 6D6A     		ldr	r5, [r5, #36]
 1055              	.LBE457:
 1056              	.LBE458:
 1057              	.LBE459:
 1058              	.LBE460:
 1059              	.LBE461:
 1060              		.loc 1 353 0
 1061 000e E561     		str	r5, [r4, #28]
 1062              		.loc 1 355 0
 1063 0010 471C     		adds	r7, r0, #1
 1064              		.loc 1 356 0
 1065 0012 1CBF     		itt	ne
 1066 0014 4019     		addne	r0, r0, r5
 1067 0016 2062     		strne	r0, [r4, #32]
 1068              	.LBB462:
 1069              	.LBB463:
 1070              		.loc 1 120 0
 1071 0018 6068     		ldr	r0, [r4, #4]
 1072              	.LVL71:
 1073              	.LBE463:
 1074              	.LBE462:
 1075              		.loc 1 354 0
 1076 001a 08BF     		it	eq
 1077 001c 2562     		streq	r5, [r4, #32]
 1078              		.loc 1 350 0
 1079 001e 9946     		mov	r9, r3
 1080              	.LBB485:
 1081              	.LBB480:
 1082              	.LBB464:
 1083              	.LBB465:
ARM GAS  /tmp/ccdXNkuw.s 			page 20


 1084              		.loc 1 87 0
 1085 0020 8368     		ldr	r3, [r0, #8]
 1086              	.LVL72:
 1087              	.LBE465:
 1088              	.LBE464:
 1089              	.LBE480:
 1090              	.LBE485:
 1091              		.loc 1 350 0
 1092 0022 0E46     		mov	r6, r1
 1093              	.LBB486:
 1094              	.LBB481:
 1095              	.LBB469:
 1096              	.LBB466:
 1097              		.loc 1 87 0
 1098 0024 23F00F01 		bic	r1, r3, #15
 1099              	.LVL73:
 1100              	.LBE466:
 1101              	.LBE469:
 1102              	.LBE481:
 1103              	.LBE486:
 1104              		.loc 1 350 0
 1105 0028 9246     		mov	r10, r2
 1106              	.LBB487:
 1107              	.LBB482:
 1108              	.LBB470:
 1109              	.LBB467:
 1110              		.loc 1 87 0
 1111 002a 0A69     		ldr	r2, [r1, #16]
 1112              	.LVL74:
 1113 002c 03F00F03 		and	r3, r3, #15
 1114 0030 DA40     		lsrs	r2, r2, r3
 1115 0032 D507     		lsls	r5, r2, #31
 1116 0034 40F1AC80 		bpl	.L61
 1117              	.LBE467:
 1118              	.LBE470:
 1119              		.loc 1 122 0
 1120 0038 0125     		movs	r5, #1
 1121 003a 05FA03F3 		lsl	r3, r5, r3
 1122 003e 9BB2     		uxth	r3, r3
 1123              	.LBB471:
 1124              	.LBB472:
 1125              	.LBB473:
 1126              	.LBB474:
 1127              		.loc 2 720 0
 1128 0040 C068     		ldr	r0, [r0, #12]
 1129              	.LBE474:
 1130              	.LBE473:
 1131              	.LBE472:
 1132              	.LBE471:
 1133              		.loc 1 122 0
 1134 0042 4B83     		strh	r3, [r1, #26]	@ movhi
 1135              	.LVL75:
 1136              	.LBB478:
 1137              	.LBB477:
 1138              	.LBB476:
 1139              	.LBB475:
 1140              		.loc 2 720 0
ARM GAS  /tmp/ccdXNkuw.s 			page 21


 1141 0044 FFF7FEFF 		bl	chThdSleep
 1142              	.LVL76:
 1143              	.LBE475:
 1144              	.LBE476:
 1145              	.LBE477:
 1146              	.LBE478:
 1147              		.loc 1 124 0
 1148 0048 6368     		ldr	r3, [r4, #4]
 1149 004a 5A68     		ldr	r2, [r3, #4]
 1150              	.LBE482:
 1151              	.LBE487:
 1152              	.LBB488:
 1153              	.LBB489:
 1154              		.loc 1 245 0
 1155 004c 1978     		ldrb	r1, [r3]	@ zero_extendqisi2
 1156              	.LBE489:
 1157              	.LBE488:
 1158              	.LBB495:
 1159              	.LBB483:
 1160              		.loc 1 124 0
 1161 004e 02F00F03 		and	r3, r2, #15
 1162 0052 05FA03F3 		lsl	r3, r5, r3
 1163 0056 22F00F02 		bic	r2, r2, #15
 1164 005a 9BB2     		uxth	r3, r3
 1165 005c 5383     		strh	r3, [r2, #26]	@ movhi
 1166              	.LVL77:
 1167 005e F5B2     		uxtb	r5, r6
 1168              	.LBE483:
 1169              	.LBE495:
 1170              	.LBB496:
 1171              	.LBB493:
 1172              		.loc 1 245 0
 1173 0060 0029     		cmp	r1, #0
 1174 0062 00F08680 		beq	.L84
 1175              	.LVL78:
 1176              	.LBB490:
 1177              		.loc 1 249 0
 1178 0066 F109     		lsrs	r1, r6, #7
 1179              		.loc 1 252 0
 1180 0068 61F00E01 		orn	r1, r1, #14
 1181              		.loc 1 254 0
 1182 006c C9B2     		uxtb	r1, r1
 1183 006e 2046     		mov	r0, r4
 1184 0070 FFF7FEFF 		bl	i2c_write_byte
 1185              	.LVL79:
 1186 0074 0028     		cmp	r0, #0
 1187 0076 44DB     		blt	.L58
 1188              		.loc 1 255 0
 1189 0078 2946     		mov	r1, r5
 1190 007a 2046     		mov	r0, r4
 1191 007c FFF7FEFF 		bl	i2c_write_byte
 1192              	.LVL80:
 1193 0080 0028     		cmp	r0, #0
 1194 0082 3EDB     		blt	.L58
 1195              	.LVL81:
 1196              	.L68:
 1197              	.LBE490:
ARM GAS  /tmp/ccdXNkuw.s 			page 22


 1198              	.LBE493:
 1199              	.LBE496:
 1200              	.LBB497:
 1201              	.LBB498:
 1202              	.LBB499:
 1203              	.LBB500:
 1204              	.LBB501:
 1205              	.LBB502:
 1206              	.LBB503:
 1207              	.LBB504:
 1208              	.LBB505:
 1209              	.LBB506:
 1210              		.loc 3 147 0
 1211 0084 4FF08045 		mov	r5, #1073741824
 1212              	.LVL82:
 1213              	.L67:
 1214 0088 686A     		ldr	r0, [r5, #36]
 1215              	.LBE506:
 1216              	.LBE505:
 1217              	.LBE504:
 1218              	.LBE503:
 1219              	.LBE502:
 1220              		.loc 1 97 0
 1221 008a D4E90712 		ldrd	r1, r2, [r4, #28]
 1222 008e FFF7FEFF 		bl	osalOsIsTimeWithinX
 1223              	.LVL83:
 1224 0092 0028     		cmp	r0, #0
 1225 0094 78D0     		beq	.L85
 1226 0096 6168     		ldr	r1, [r4, #4]
 1227 0098 8B68     		ldr	r3, [r1, #8]
 1228 009a 0827     		movs	r7, #8
 1229 009c 23F00F00 		bic	r0, r3, #15
 1230              	.LBE501:
 1231              	.LBE500:
 1232              	.LBB508:
 1233              	.LBB509:
 1234              		.loc 1 230 0
 1235 00a0 4FF00008 		mov	r8, #0
 1236 00a4 03F00F03 		and	r3, r3, #15
 1237              	.LBB510:
 1238              	.LBB511:
 1239              	.LBB512:
 1240              		.loc 1 188 0
 1241 00a8 0126     		movs	r6, #1
 1242              	.L72:
 1243              	.LVL84:
 1244 00aa 06FA03F3 		lsl	r3, r6, r3
 1245 00ae 9BB2     		uxth	r3, r3
 1246 00b0 0383     		strh	r3, [r0, #24]	@ movhi
 1247              	.LVL85:
 1248              	.LBB513:
 1249              	.LBB514:
 1250              	.LBB515:
 1251              	.LBB516:
 1252              		.loc 2 720 0
 1253 00b2 C868     		ldr	r0, [r1, #12]
 1254 00b4 FFF7FEFF 		bl	chThdSleep
ARM GAS  /tmp/ccdXNkuw.s 			page 23


 1255              	.LVL86:
 1256              	.LBE516:
 1257              	.LBE515:
 1258              	.LBE514:
 1259              	.LBE513:
 1260              		.loc 1 190 0
 1261 00b8 6168     		ldr	r1, [r4, #4]
 1262 00ba 4B68     		ldr	r3, [r1, #4]
 1263 00bc 03F00F00 		and	r0, r3, #15
 1264 00c0 06FA00F2 		lsl	r2, r6, r0
 1265 00c4 23F00F03 		bic	r3, r3, #15
 1266 00c8 92B2     		uxth	r2, r2
 1267 00ca 1A83     		strh	r2, [r3, #24]	@ movhi
 1268              	.LVL87:
 1269              	.LBB517:
 1270              	.LBB518:
 1271              		.loc 1 107 0
 1272 00cc 1B69     		ldr	r3, [r3, #16]
 1273 00ce C340     		lsrs	r3, r3, r0
 1274 00d0 DA07     		lsls	r2, r3, #31
 1275 00d2 1AD4     		bmi	.L70
 1276 00d4 0EE0     		b	.L71
 1277              	.LVL88:
 1278              	.L86:
 1279              	.LBB519:
 1280              	.LBB520:
 1281              		.loc 1 79 0
 1282 00d6 6368     		ldr	r3, [r4, #4]
 1283              	.LBB521:
 1284              	.LBB522:
 1285              		.loc 2 720 0
 1286 00d8 D868     		ldr	r0, [r3, #12]
 1287 00da FFF7FEFF 		bl	chThdSleep
 1288              	.LVL89:
 1289              	.LBE522:
 1290              	.LBE521:
 1291              	.LBE520:
 1292              	.LBE519:
 1293              		.loc 1 107 0
 1294 00de 6168     		ldr	r1, [r4, #4]
 1295 00e0 4B68     		ldr	r3, [r1, #4]
 1296 00e2 23F00F02 		bic	r2, r3, #15
 1297 00e6 03F00F03 		and	r3, r3, #15
 1298 00ea 1269     		ldr	r2, [r2, #16]
 1299 00ec 22FA03F3 		lsr	r3, r2, r3
 1300 00f0 DB07     		lsls	r3, r3, #31
 1301 00f2 0AD4     		bmi	.L70
 1302              	.LVL90:
 1303              	.L71:
 1304              	.LBB523:
 1305              	.LBB524:
 1306              	.LBB525:
 1307              	.LBB526:
 1308              	.LBB527:
 1309              	.LBB528:
 1310              		.loc 3 147 0
 1311 00f4 686A     		ldr	r0, [r5, #36]
ARM GAS  /tmp/ccdXNkuw.s 			page 24


 1312              	.LBE528:
 1313              	.LBE527:
 1314              	.LBE526:
 1315              	.LBE525:
 1316              	.LBE524:
 1317              		.loc 1 108 0
 1318 00f6 D4E90712 		ldrd	r1, r2, [r4, #28]
 1319 00fa FFF7FEFF 		bl	osalOsIsTimeWithinX
 1320              	.LVL91:
 1321 00fe 0028     		cmp	r0, #0
 1322 0100 E9D1     		bne	.L86
 1323              	.LVL92:
 1324              	.L58:
 1325              	.LBE523:
 1326              	.LBE518:
 1327              	.LBE517:
 1328              	.LBE512:
 1329              	.LBE511:
 1330              	.LBE510:
 1331              	.LBE509:
 1332              	.LBE508:
 1333              	.LBE499:
 1334              	.LBE498:
 1335              	.LBE497:
 1336              		.loc 1 372 0
 1337 0102 4FF0FF30 		mov	r0, #-1
 1338 0106 BDE8F087 		pop	{r4, r5, r6, r7, r8, r9, r10, pc}
 1339              	.LVL93:
 1340              	.L70:
 1341              	.LBB546:
 1342              	.LBB544:
 1343              	.LBB542:
 1344              	.LBB540:
 1345              	.LBB539:
 1346              	.LBB537:
 1347              	.LBB535:
 1348              	.LBB533:
 1349              	.LBB529:
 1350              	.LBB530:
 1351              	.LBB531:
 1352              	.LBB532:
 1353              		.loc 2 720 0
 1354 010a C868     		ldr	r0, [r1, #12]
 1355 010c FFF7FEFF 		bl	chThdSleep
 1356              	.LVL94:
 1357              	.LBE532:
 1358              	.LBE531:
 1359              	.LBE530:
 1360              	.LBE529:
 1361              		.loc 1 196 0
 1362 0110 6168     		ldr	r1, [r4, #4]
 1363              		.loc 1 197 0
 1364 0112 D1E901E3 		ldrd	lr, r3, [r1, #4]
 1365              		.loc 1 196 0
 1366 0116 23F00F00 		bic	r0, r3, #15
 1367              		.loc 1 197 0
 1368 011a 0EF00F02 		and	r2, lr, #15
ARM GAS  /tmp/ccdXNkuw.s 			page 25


 1369              		.loc 1 196 0
 1370 011e D0F810C0 		ldr	ip, [r0, #16]
 1371              	.LVL95:
 1372 0122 03F00F03 		and	r3, r3, #15
 1373              	.LVL96:
 1374 0126 2CFA03FC 		lsr	ip, ip, r3
 1375              	.LVL97:
 1376              		.loc 1 197 0
 1377 012a 06FA02F2 		lsl	r2, r6, r2
 1378 012e 2EF00F0E 		bic	lr, lr, #15
 1379              		.loc 1 196 0
 1380 0132 0CF0010C 		and	ip, ip, #1
 1381              		.loc 1 197 0
 1382 0136 92B2     		uxth	r2, r2
 1383              	.LBE533:
 1384              	.LBE535:
 1385              	.LBE537:
 1386              		.loc 1 231 0
 1387 0138 013F     		subs	r7, r7, #1
 1388              	.LBB538:
 1389              		.loc 1 234 0
 1390 013a 4CEA4808 		orr	r8, ip, r8, lsl #1
 1391              	.LVL98:
 1392              	.LBB536:
 1393              	.LBB534:
 1394              		.loc 1 197 0
 1395 013e AEF81A20 		strh	r2, [lr, #26]	@ movhi
 1396              	.LVL99:
 1397              	.LBE534:
 1398              	.LBE536:
 1399              	.LBE538:
 1400              		.loc 1 231 0
 1401 0142 B2D1     		bne	.L72
 1402              		.loc 1 237 0
 1403 0144 B9F1010F 		cmp	r9, #1
 1404 0148 8CBF     		ite	hi
 1405 014a 0021     		movhi	r1, #0
 1406 014c 0121     		movls	r1, #1
 1407 014e 2046     		mov	r0, r4
 1408 0150 FFF7FEFF 		bl	i2c_write_bit
 1409              	.LVL100:
 1410 0154 0028     		cmp	r0, #0
 1411 0156 D4DB     		blt	.L58
 1412              	.LVL101:
 1413              	.LBE539:
 1414              	.LBE540:
 1415              	.LBE542:
 1416              	.LBE544:
 1417              		.loc 1 367 0
 1418 0158 B8F1000F 		cmp	r8, #0
 1419 015c D1DB     		blt	.L58
 1420              	.LVL102:
 1421              	.LBE546:
 1422              		.loc 1 369 0
 1423 015e B9F10109 		subs	r9, r9, #1
 1424              	.LVL103:
 1425              	.LBB547:
ARM GAS  /tmp/ccdXNkuw.s 			page 26


 1426              		.loc 1 368 0
 1427 0162 0AF8018B 		strb	r8, [r10], #1
 1428              	.LVL104:
 1429              	.LBE547:
 1430              		.loc 1 369 0
 1431 0166 8FD1     		bne	.L67
 1432              		.loc 1 371 0
 1433 0168 2046     		mov	r0, r4
 1434              		.loc 1 372 0
 1435 016a BDE8F047 		pop	{r4, r5, r6, r7, r8, r9, r10, lr}
 1436              		.cfi_remember_state
 1437              		.cfi_restore 14
 1438              		.cfi_restore 10
 1439              		.cfi_restore 9
 1440              		.cfi_restore 8
 1441              		.cfi_restore 7
 1442              		.cfi_restore 6
 1443              		.cfi_restore 5
 1444              		.cfi_restore 4
 1445              		.cfi_def_cfa_offset 0
 1446              	.LVL105:
 1447              		.loc 1 371 0
 1448 016e FFF7FEBF 		b	i2c_write_stop
 1449              	.LVL106:
 1450              	.L84:
 1451              		.cfi_restore_state
 1452              	.LBB548:
 1453              	.LBB494:
 1454              	.LBB491:
 1455              	.LBB492:
 1456              		.loc 1 261 0
 1457 0172 6900     		lsls	r1, r5, #1
 1458 0174 41F00101 		orr	r1, r1, #1
 1459 0178 C9B2     		uxtb	r1, r1
 1460 017a 2046     		mov	r0, r4
 1461 017c FFF7FEFF 		bl	i2c_write_byte
 1462              	.LVL107:
 1463 0180 0028     		cmp	r0, #0
 1464 0182 BFF67FAF 		bge	.L68
 1465 0186 BCE7     		b	.L58
 1466              	.LVL108:
 1467              	.L85:
 1468              	.LBE492:
 1469              	.LBE491:
 1470              	.LBE494:
 1471              	.LBE548:
 1472              	.LBB549:
 1473              	.LBB545:
 1474              	.LBB543:
 1475              	.LBB541:
 1476              	.LBB507:
 1477              		.loc 1 98 0
 1478 0188 2046     		mov	r0, r4
 1479 018a FFF7FEFF 		bl	i2c_write_stop
 1480              	.LVL109:
 1481 018e B8E7     		b	.L58
 1482              	.LVL110:
ARM GAS  /tmp/ccdXNkuw.s 			page 27


 1483              	.L61:
 1484              	.LBE507:
 1485              	.LBE541:
 1486              	.LBE543:
 1487              	.LBE545:
 1488              	.LBE549:
 1489              	.LBB550:
 1490              	.LBB484:
 1491              	.LBB479:
 1492              	.LBB468:
 1493              		.loc 1 88 0
 1494 0190 237A     		ldrb	r3, [r4, #8]	@ zero_extendqisi2
 1495 0192 43F00203 		orr	r3, r3, #2
 1496 0196 2372     		strb	r3, [r4, #8]
 1497              	.LVL111:
 1498 0198 B3E7     		b	.L58
 1499              	.LBE468:
 1500              	.LBE479:
 1501              	.LBE484:
 1502              	.LBE550:
 1503              		.cfi_endproc
 1504              	.LFE342:
 1505              		.size	i2c_lld_master_receive_timeout, .-i2c_lld_master_receive_timeout
 1506 019a 00BF     		.section	.text.i2c_lld_master_transmit_timeout,"ax",%progbits
 1507              		.align	1
 1508              		.p2align 2,,3
 1509              		.global	i2c_lld_master_transmit_timeout
 1510              		.syntax unified
 1511              		.thumb
 1512              		.thumb_func
 1513              		.fpu fpv4-sp-d16
 1514              		.type	i2c_lld_master_transmit_timeout, %function
 1515              	i2c_lld_master_transmit_timeout:
 1516              	.LFB343:
 1517              		.loc 1 402 0
 1518              		.cfi_startproc
 1519              		@ args = 12, pretend = 0, frame = 0
 1520              		@ frame_needed = 0, uses_anonymous_args = 0
 1521              	.LVL112:
 1522 0000 2DE9F047 		push	{r4, r5, r6, r7, r8, r9, r10, lr}
 1523              		.cfi_def_cfa_offset 32
 1524              		.cfi_offset 4, -32
 1525              		.cfi_offset 5, -28
 1526              		.cfi_offset 6, -24
 1527              		.cfi_offset 7, -20
 1528              		.cfi_offset 8, -16
 1529              		.cfi_offset 9, -12
 1530              		.cfi_offset 10, -8
 1531              		.cfi_offset 14, -4
 1532              	.LBB642:
 1533              	.LBB643:
 1534              	.LBB644:
 1535              	.LBB645:
 1536              	.LBB646:
 1537              		.loc 3 147 0
 1538 0004 4FF08045 		mov	r5, #1073741824
 1539              	.LBE646:
ARM GAS  /tmp/ccdXNkuw.s 			page 28


 1540              	.LBE645:
 1541              	.LBE644:
 1542              	.LBE643:
 1543              	.LBE642:
 1544              		.loc 1 402 0
 1545 0008 0446     		mov	r4, r0
 1546              	.LVL113:
 1547 000a 0A98     		ldr	r0, [sp, #40]
 1548              	.LVL114:
 1549              	.LBB651:
 1550              	.LBB650:
 1551              	.LBB649:
 1552              	.LBB648:
 1553              	.LBB647:
 1554              		.loc 3 147 0
 1555 000c D5F824C0 		ldr	ip, [r5, #36]
 1556              	.LBE647:
 1557              	.LBE648:
 1558              	.LBE649:
 1559              	.LBE650:
 1560              	.LBE651:
 1561              		.loc 1 405 0
 1562 0010 C4F81CC0 		str	ip, [r4, #28]
 1563              		.loc 1 402 0
 1564 0014 0F46     		mov	r7, r1
 1565              		.loc 1 407 0
 1566 0016 411C     		adds	r1, r0, #1
 1567              	.LVL115:
 1568              		.loc 1 408 0
 1569 0018 1CBF     		itt	ne
 1570 001a 6044     		addne	r0, r0, ip
 1571 001c 2062     		strne	r0, [r4, #32]
 1572              	.LBB652:
 1573              	.LBB653:
 1574              		.loc 1 120 0
 1575 001e 6068     		ldr	r0, [r4, #4]
 1576              	.LVL116:
 1577              	.LBE653:
 1578              	.LBE652:
 1579              		.loc 1 406 0
 1580 0020 08BF     		it	eq
 1581 0022 C4F820C0 		streq	ip, [r4, #32]
 1582              		.loc 1 402 0
 1583 0026 1D46     		mov	r5, r3
 1584              	.LBB675:
 1585              	.LBB670:
 1586              	.LBB654:
 1587              	.LBB655:
 1588              		.loc 1 87 0
 1589 0028 8368     		ldr	r3, [r0, #8]
 1590              	.LVL117:
 1591 002a 23F00F01 		bic	r1, r3, #15
 1592              	.LBE655:
 1593              	.LBE654:
 1594              	.LBE670:
 1595              	.LBE675:
 1596              		.loc 1 402 0
ARM GAS  /tmp/ccdXNkuw.s 			page 29


 1597 002e 1646     		mov	r6, r2
 1598              	.LBB676:
 1599              	.LBB671:
 1600              	.LBB659:
 1601              	.LBB656:
 1602              		.loc 1 87 0
 1603 0030 0A69     		ldr	r2, [r1, #16]
 1604              	.LVL118:
 1605 0032 03F00F03 		and	r3, r3, #15
 1606 0036 DA40     		lsrs	r2, r2, r3
 1607 0038 D207     		lsls	r2, r2, #31
 1608              	.LBE656:
 1609              	.LBE659:
 1610              	.LBE671:
 1611              	.LBE676:
 1612              		.loc 1 402 0
 1613 003a DDE908A9 		ldrd	r10, r9, [sp, #32]
 1614              	.LBB677:
 1615              	.LBB672:
 1616              	.LBB660:
 1617              	.LBB657:
 1618              		.loc 1 87 0
 1619 003e 40F13281 		bpl	.L90
 1620              	.LBE657:
 1621              	.LBE660:
 1622              		.loc 1 122 0
 1623 0042 4FF00108 		mov	r8, #1
 1624 0046 08FA03F3 		lsl	r3, r8, r3
 1625 004a 9BB2     		uxth	r3, r3
 1626              	.LBB661:
 1627              	.LBB662:
 1628              	.LBB663:
 1629              	.LBB664:
 1630              		.loc 2 720 0
 1631 004c C068     		ldr	r0, [r0, #12]
 1632              	.LBE664:
 1633              	.LBE663:
 1634              	.LBE662:
 1635              	.LBE661:
 1636              		.loc 1 122 0
 1637 004e 4B83     		strh	r3, [r1, #26]	@ movhi
 1638              	.LVL119:
 1639              	.LBB668:
 1640              	.LBB667:
 1641              	.LBB666:
 1642              	.LBB665:
 1643              		.loc 2 720 0
 1644 0050 FFF7FEFF 		bl	chThdSleep
 1645              	.LVL120:
 1646              	.LBE665:
 1647              	.LBE666:
 1648              	.LBE667:
 1649              	.LBE668:
 1650              		.loc 1 124 0
 1651 0054 6268     		ldr	r2, [r4, #4]
 1652 0056 5368     		ldr	r3, [r2, #4]
 1653              	.LBE672:
ARM GAS  /tmp/ccdXNkuw.s 			page 30


 1654              	.LBE677:
 1655              	.LBB678:
 1656              	.LBB679:
 1657              		.loc 1 245 0
 1658 0058 1278     		ldrb	r2, [r2]	@ zero_extendqisi2
 1659              	.LBE679:
 1660              	.LBE678:
 1661              	.LBB683:
 1662              	.LBB673:
 1663              		.loc 1 124 0
 1664 005a 03F00F01 		and	r1, r3, #15
 1665 005e 08FA01F8 		lsl	r8, r8, r1
 1666 0062 23F00F03 		bic	r3, r3, #15
 1667 0066 1FFA88F8 		uxth	r8, r8
 1668 006a A3F81A80 		strh	r8, [r3, #26]	@ movhi
 1669              	.LVL121:
 1670 006e 5FFA87F8 		uxtb	r8, r7
 1671              	.LBE673:
 1672              	.LBE683:
 1673              	.LBB684:
 1674              	.LBB681:
 1675              		.loc 1 245 0
 1676 0072 B2B9     		cbnz	r2, .L91
 1677              		.loc 1 265 0
 1678 0074 4FEA4801 		lsl	r1, r8, #1
 1679 0078 01F0FE01 		and	r1, r1, #254
 1680 007c 2046     		mov	r0, r4
 1681 007e FFF7FEFF 		bl	i2c_write_byte
 1682              	.LVL122:
 1683 0082 0028     		cmp	r0, #0
 1684 0084 02DA     		bge	.L96
 1685 0086 08E0     		b	.L87
 1686              	.LVL123:
 1687              	.L134:
 1688              	.LBE681:
 1689              	.LBE684:
 1690              		.loc 1 419 0
 1691 0088 013D     		subs	r5, r5, #1
 1692              	.LVL124:
 1693 008a 1CD0     		beq	.L133
 1694              	.LVL125:
 1695              	.L96:
 1696              		.loc 1 418 0
 1697 008c 16F8011B 		ldrb	r1, [r6], #1	@ zero_extendqisi2
 1698              	.LVL126:
 1699 0090 2046     		mov	r0, r4
 1700 0092 FFF7FEFF 		bl	i2c_write_byte
 1701              	.LVL127:
 1702 0096 0028     		cmp	r0, #0
 1703 0098 F6DA     		bge	.L134
 1704              	.LVL128:
 1705              	.L87:
 1706              		.loc 1 438 0
 1707 009a 4FF0FF30 		mov	r0, #-1
 1708 009e BDE8F087 		pop	{r4, r5, r6, r7, r8, r9, r10, pc}
 1709              	.LVL129:
 1710              	.L91:
ARM GAS  /tmp/ccdXNkuw.s 			page 31


 1711              	.LBB685:
 1712              	.LBB682:
 1713              	.LBB680:
 1714              		.loc 1 249 0
 1715 00a2 390A     		lsrs	r1, r7, #8
 1716 00a4 4900     		lsls	r1, r1, #1
 1717 00a6 61F00F01 		orn	r1, r1, #15
 1718              		.loc 1 254 0
 1719 00aa 01F0FE01 		and	r1, r1, #254
 1720 00ae 2046     		mov	r0, r4
 1721 00b0 FFF7FEFF 		bl	i2c_write_byte
 1722              	.LVL130:
 1723 00b4 0028     		cmp	r0, #0
 1724 00b6 F0DB     		blt	.L87
 1725              		.loc 1 255 0
 1726 00b8 4146     		mov	r1, r8
 1727 00ba 2046     		mov	r0, r4
 1728 00bc FFF7FEFF 		bl	i2c_write_byte
 1729              	.LVL131:
 1730 00c0 0028     		cmp	r0, #0
 1731 00c2 E3DA     		bge	.L96
 1732 00c4 E9E7     		b	.L87
 1733              	.LVL132:
 1734              	.L133:
 1735              	.LBE680:
 1736              	.LBE682:
 1737              	.LBE685:
 1738              		.loc 1 422 0
 1739 00c6 B9F1000F 		cmp	r9, #0
 1740 00ca 64D0     		beq	.L98
 1741              	.LVL133:
 1742              	.LBB686:
 1743              	.LBB687:
 1744              		.loc 1 131 0
 1745 00cc 6368     		ldr	r3, [r4, #4]
 1746              	.LBB688:
 1747              	.LBB689:
 1748              	.LBB690:
 1749              	.LBB691:
 1750              		.loc 2 720 0
 1751 00ce D3E90220 		ldrd	r2, r0, [r3, #8]
 1752              	.LBE691:
 1753              	.LBE690:
 1754              	.LBE689:
 1755              	.LBE688:
 1756              		.loc 1 131 0
 1757 00d2 0125     		movs	r5, #1
 1758              	.LVL134:
 1759 00d4 02F00F03 		and	r3, r2, #15
 1760 00d8 05FA03F3 		lsl	r3, r5, r3
 1761 00dc 22F00F02 		bic	r2, r2, #15
 1762 00e0 9BB2     		uxth	r3, r3
 1763 00e2 1383     		strh	r3, [r2, #24]	@ movhi
 1764              	.LVL135:
 1765              	.LBB695:
 1766              	.LBB694:
 1767              	.LBB693:
ARM GAS  /tmp/ccdXNkuw.s 			page 32


 1768              	.LBB692:
 1769              		.loc 2 720 0
 1770 00e4 FFF7FEFF 		bl	chThdSleep
 1771              	.LVL136:
 1772              	.LBE692:
 1773              	.LBE693:
 1774              	.LBE694:
 1775              	.LBE695:
 1776              		.loc 1 133 0
 1777 00e8 6168     		ldr	r1, [r4, #4]
 1778 00ea 4A68     		ldr	r2, [r1, #4]
 1779 00ec 02F00F00 		and	r0, r2, #15
 1780 00f0 05FA00F3 		lsl	r3, r5, r0
 1781 00f4 22F00F02 		bic	r2, r2, #15
 1782 00f8 9BB2     		uxth	r3, r3
 1783 00fa 1383     		strh	r3, [r2, #24]	@ movhi
 1784              	.LVL137:
 1785              	.LBB696:
 1786              	.LBB697:
 1787              		.loc 1 107 0
 1788 00fc 1369     		ldr	r3, [r2, #16]
 1789 00fe C340     		lsrs	r3, r3, r0
 1790 0100 D807     		lsls	r0, r3, #31
 1791 0102 4DD4     		bmi	.L99
 1792              	.LBB698:
 1793              	.LBB699:
 1794              	.LBB700:
 1795              	.LBB701:
 1796              	.LBB702:
 1797              	.LBB703:
 1798              		.loc 3 147 0
 1799 0104 4FF08045 		mov	r5, #1073741824
 1800 0108 0EE0     		b	.L100
 1801              	.LVL138:
 1802              	.L135:
 1803              	.LBE703:
 1804              	.LBE702:
 1805              	.LBE701:
 1806              	.LBE700:
 1807              	.LBE699:
 1808              	.LBE698:
 1809              	.LBB709:
 1810              	.LBB710:
 1811              		.loc 1 79 0
 1812 010a 6368     		ldr	r3, [r4, #4]
 1813              	.LBB711:
 1814              	.LBB712:
 1815              		.loc 2 720 0
 1816 010c D868     		ldr	r0, [r3, #12]
 1817 010e FFF7FEFF 		bl	chThdSleep
 1818              	.LVL139:
 1819              	.LBE712:
 1820              	.LBE711:
 1821              	.LBE710:
 1822              	.LBE709:
 1823              		.loc 1 107 0
 1824 0112 6168     		ldr	r1, [r4, #4]
ARM GAS  /tmp/ccdXNkuw.s 			page 33


 1825 0114 4B68     		ldr	r3, [r1, #4]
 1826 0116 23F00F02 		bic	r2, r3, #15
 1827 011a 03F00F03 		and	r3, r3, #15
 1828 011e 1269     		ldr	r2, [r2, #16]
 1829 0120 22FA03F3 		lsr	r3, r2, r3
 1830 0124 DA07     		lsls	r2, r3, #31
 1831 0126 3BD4     		bmi	.L99
 1832              	.LVL140:
 1833              	.L100:
 1834              	.LBB713:
 1835              	.LBB708:
 1836              	.LBB707:
 1837              	.LBB706:
 1838              	.LBB705:
 1839              	.LBB704:
 1840              		.loc 3 147 0
 1841 0128 686A     		ldr	r0, [r5, #36]
 1842              	.LBE704:
 1843              	.LBE705:
 1844              	.LBE706:
 1845              	.LBE707:
 1846              	.LBE708:
 1847              		.loc 1 108 0
 1848 012a D4E90712 		ldrd	r1, r2, [r4, #28]
 1849 012e FFF7FEFF 		bl	osalOsIsTimeWithinX
 1850              	.LVL141:
 1851 0132 0028     		cmp	r0, #0
 1852 0134 E9D1     		bne	.L135
 1853 0136 B0E7     		b	.L87
 1854              	.LVL142:
 1855              	.L106:
 1856              	.LBE713:
 1857              	.LBE697:
 1858              	.LBE696:
 1859              	.LBE687:
 1860              	.LBE686:
 1861              	.LBB736:
 1862              	.LBB737:
 1863              	.LBB738:
 1864              	.LBB739:
 1865              	.LBB740:
 1866              	.LBB741:
 1867              	.LBB742:
 1868              	.LBB743:
 1869              	.LBB744:
 1870              	.LBB745:
 1871              	.LBB746:
 1872              	.LBB747:
 1873              		.loc 2 720 0
 1874 0138 C868     		ldr	r0, [r1, #12]
 1875 013a FFF7FEFF 		bl	chThdSleep
 1876              	.LVL143:
 1877              	.LBE747:
 1878              	.LBE746:
 1879              	.LBE745:
 1880              	.LBE744:
 1881              		.loc 1 196 0
ARM GAS  /tmp/ccdXNkuw.s 			page 34


 1882 013e 6168     		ldr	r1, [r4, #4]
 1883              		.loc 1 197 0
 1884 0140 D1E901E3 		ldrd	lr, r3, [r1, #4]
 1885              		.loc 1 196 0
 1886 0144 23F00F00 		bic	r0, r3, #15
 1887              		.loc 1 197 0
 1888 0148 0EF00F02 		and	r2, lr, #15
 1889              		.loc 1 196 0
 1890 014c D0F810C0 		ldr	ip, [r0, #16]
 1891              	.LVL144:
 1892 0150 03F00F03 		and	r3, r3, #15
 1893              	.LVL145:
 1894 0154 2CFA03FC 		lsr	ip, ip, r3
 1895              	.LVL146:
 1896              		.loc 1 197 0
 1897 0158 06FA02F2 		lsl	r2, r6, r2
 1898 015c 2EF00F0E 		bic	lr, lr, #15
 1899              		.loc 1 196 0
 1900 0160 0CF0010C 		and	ip, ip, #1
 1901              		.loc 1 197 0
 1902 0164 92B2     		uxth	r2, r2
 1903              	.LBE743:
 1904              	.LBE742:
 1905              	.LBE741:
 1906              		.loc 1 231 0
 1907 0166 013F     		subs	r7, r7, #1
 1908              	.LBB768:
 1909              		.loc 1 234 0
 1910 0168 4CEA4808 		orr	r8, ip, r8, lsl #1
 1911              	.LVL147:
 1912              	.LBB766:
 1913              	.LBB764:
 1914              		.loc 1 197 0
 1915 016c AEF81A20 		strh	r2, [lr, #26]	@ movhi
 1916              	.LVL148:
 1917              	.LBE764:
 1918              	.LBE766:
 1919              	.LBE768:
 1920              		.loc 1 231 0
 1921 0170 56D1     		bne	.L110
 1922              		.loc 1 237 0
 1923 0172 B9F1010F 		cmp	r9, #1
 1924 0176 8CBF     		ite	hi
 1925 0178 0021     		movhi	r1, #0
 1926 017a 0121     		movls	r1, #1
 1927 017c 2046     		mov	r0, r4
 1928 017e FFF7FEFF 		bl	i2c_write_bit
 1929              	.LVL149:
 1930 0182 0028     		cmp	r0, #0
 1931 0184 89DB     		blt	.L87
 1932              	.LVL150:
 1933              	.LBE740:
 1934              	.LBE739:
 1935              	.LBE738:
 1936              	.LBE737:
 1937              		.loc 1 432 0
 1938 0186 B8F1000F 		cmp	r8, #0
ARM GAS  /tmp/ccdXNkuw.s 			page 35


 1939 018a 86DB     		blt	.L87
 1940              	.LVL151:
 1941              	.LBE736:
 1942              		.loc 1 434 0
 1943 018c B9F10109 		subs	r9, r9, #1
 1944              	.LVL152:
 1945              	.LBB785:
 1946              		.loc 1 433 0
 1947 0190 0AF8018B 		strb	r8, [r10], #1
 1948              	.LVL153:
 1949              	.LBE785:
 1950              		.loc 1 434 0
 1951 0194 33D1     		bne	.L103
 1952              	.LVL154:
 1953              	.L98:
 1954              		.loc 1 437 0
 1955 0196 2046     		mov	r0, r4
 1956              		.loc 1 438 0
 1957 0198 BDE8F047 		pop	{r4, r5, r6, r7, r8, r9, r10, lr}
 1958              		.cfi_remember_state
 1959              		.cfi_restore 14
 1960              		.cfi_restore 10
 1961              		.cfi_restore 9
 1962              		.cfi_restore 8
 1963              		.cfi_restore 7
 1964              		.cfi_restore 6
 1965              		.cfi_restore 5
 1966              		.cfi_restore 4
 1967              		.cfi_def_cfa_offset 0
 1968              	.LVL155:
 1969              		.loc 1 437 0
 1970 019c FFF7FEBF 		b	i2c_write_stop
 1971              	.LVL156:
 1972              	.L99:
 1973              		.cfi_restore_state
 1974              	.LBB786:
 1975              	.LBB734:
 1976              	.LBB714:
 1977              	.LBB715:
 1978              	.LBB716:
 1979              	.LBB717:
 1980              		.loc 2 720 0
 1981 01a0 C868     		ldr	r0, [r1, #12]
 1982 01a2 FFF7FEFF 		bl	chThdSleep
 1983              	.LVL157:
 1984              	.LBE717:
 1985              	.LBE716:
 1986              	.LBE715:
 1987              	.LBE714:
 1988              	.LBB718:
 1989              	.LBB719:
 1990              		.loc 1 120 0
 1991 01a6 6268     		ldr	r2, [r4, #4]
 1992              	.LVL158:
 1993              	.LBB720:
 1994              	.LBB721:
 1995              		.loc 1 87 0
ARM GAS  /tmp/ccdXNkuw.s 			page 36


 1996 01a8 9368     		ldr	r3, [r2, #8]
 1997 01aa 23F00F06 		bic	r6, r3, #15
 1998              	.LVL159:
 1999 01ae 03F00F03 		and	r3, r3, #15
 2000 01b2 3169     		ldr	r1, [r6, #16]
 2001 01b4 D940     		lsrs	r1, r1, r3
 2002 01b6 C907     		lsls	r1, r1, #31
 2003 01b8 7ED5     		bpl	.L136
 2004              	.LBE721:
 2005              	.LBE720:
 2006              		.loc 1 122 0
 2007 01ba 0125     		movs	r5, #1
 2008 01bc 05FA03F3 		lsl	r3, r5, r3
 2009 01c0 9BB2     		uxth	r3, r3
 2010              	.LBB723:
 2011              	.LBB724:
 2012              	.LBB725:
 2013              	.LBB726:
 2014              		.loc 2 720 0
 2015 01c2 D068     		ldr	r0, [r2, #12]
 2016              	.LBE726:
 2017              	.LBE725:
 2018              	.LBE724:
 2019              	.LBE723:
 2020              		.loc 1 122 0
 2021 01c4 7383     		strh	r3, [r6, #26]	@ movhi
 2022              	.LVL160:
 2023              	.LBB730:
 2024              	.LBB729:
 2025              	.LBB728:
 2026              	.LBB727:
 2027              		.loc 2 720 0
 2028 01c6 FFF7FEFF 		bl	chThdSleep
 2029              	.LVL161:
 2030              	.LBE727:
 2031              	.LBE728:
 2032              	.LBE729:
 2033              	.LBE730:
 2034              		.loc 1 124 0
 2035 01ca 6268     		ldr	r2, [r4, #4]
 2036 01cc 5168     		ldr	r1, [r2, #4]
 2037 01ce 01F00F03 		and	r3, r1, #15
 2038 01d2 05FA03F3 		lsl	r3, r5, r3
 2039 01d6 21F00F01 		bic	r1, r1, #15
 2040 01da 9BB2     		uxth	r3, r3
 2041 01dc 4B83     		strh	r3, [r1, #26]	@ movhi
 2042              	.LVL162:
 2043              	.L101:
 2044              	.LBE719:
 2045              	.LBE718:
 2046              	.LBE734:
 2047              	.LBE786:
 2048              	.LBB787:
 2049              	.LBB788:
 2050              		.loc 1 245 0
 2051 01de 1378     		ldrb	r3, [r2]	@ zero_extendqisi2
 2052 01e0 002B     		cmp	r3, #0
ARM GAS  /tmp/ccdXNkuw.s 			page 37


 2053 01e2 4FD1     		bne	.L137
 2054              	.LVL163:
 2055              	.LBB789:
 2056              	.LBB790:
 2057              		.loc 1 261 0
 2058 01e4 4FEA4801 		lsl	r1, r8, #1
 2059 01e8 41F00101 		orr	r1, r1, #1
 2060 01ec C9B2     		uxtb	r1, r1
 2061 01ee 2046     		mov	r0, r4
 2062 01f0 FFF7FEFF 		bl	i2c_write_byte
 2063              	.LVL164:
 2064 01f4 0028     		cmp	r0, #0
 2065 01f6 FFF650AF 		blt	.L87
 2066              	.LVL165:
 2067              	.L104:
 2068              	.LBE790:
 2069              	.LBE789:
 2070              	.LBE788:
 2071              	.LBE787:
 2072              	.LBB793:
 2073              	.LBB783:
 2074              	.LBB781:
 2075              	.LBB771:
 2076              	.LBB772:
 2077              	.LBB773:
 2078              	.LBB774:
 2079              	.LBB775:
 2080              	.LBB776:
 2081              	.LBB777:
 2082              		.loc 3 147 0
 2083 01fa 4FF08045 		mov	r5, #1073741824
 2084              	.LVL166:
 2085              	.L103:
 2086 01fe 686A     		ldr	r0, [r5, #36]
 2087              	.LBE777:
 2088              	.LBE776:
 2089              	.LBE775:
 2090              	.LBE774:
 2091              	.LBE773:
 2092              		.loc 1 97 0
 2093 0200 D4E90712 		ldrd	r1, r2, [r4, #28]
 2094 0204 FFF7FEFF 		bl	osalOsIsTimeWithinX
 2095              	.LVL167:
 2096 0208 0028     		cmp	r0, #0
 2097 020a 51D0     		beq	.L138
 2098 020c 6168     		ldr	r1, [r4, #4]
 2099 020e 8B68     		ldr	r3, [r1, #8]
 2100 0210 0827     		movs	r7, #8
 2101 0212 23F00F00 		bic	r0, r3, #15
 2102              	.LBE772:
 2103              	.LBE771:
 2104              	.LBB779:
 2105              	.LBB770:
 2106              		.loc 1 230 0
 2107 0216 4FF00008 		mov	r8, #0
 2108 021a 03F00F03 		and	r3, r3, #15
 2109              	.LBB769:
ARM GAS  /tmp/ccdXNkuw.s 			page 38


 2110              	.LBB767:
 2111              	.LBB765:
 2112              		.loc 1 188 0
 2113 021e 0126     		movs	r6, #1
 2114              	.LVL168:
 2115              	.L110:
 2116 0220 06FA03F3 		lsl	r3, r6, r3
 2117 0224 9BB2     		uxth	r3, r3
 2118 0226 0383     		strh	r3, [r0, #24]	@ movhi
 2119              	.LVL169:
 2120              	.LBB748:
 2121              	.LBB749:
 2122              	.LBB750:
 2123              	.LBB751:
 2124              		.loc 2 720 0
 2125 0228 C868     		ldr	r0, [r1, #12]
 2126 022a FFF7FEFF 		bl	chThdSleep
 2127              	.LVL170:
 2128              	.LBE751:
 2129              	.LBE750:
 2130              	.LBE749:
 2131              	.LBE748:
 2132              		.loc 1 190 0
 2133 022e 6168     		ldr	r1, [r4, #4]
 2134 0230 4B68     		ldr	r3, [r1, #4]
 2135 0232 03F00F00 		and	r0, r3, #15
 2136 0236 06FA00F2 		lsl	r2, r6, r0
 2137 023a 23F00F03 		bic	r3, r3, #15
 2138 023e 92B2     		uxth	r2, r2
 2139 0240 1A83     		strh	r2, [r3, #24]	@ movhi
 2140              	.LVL171:
 2141              	.LBB752:
 2142              	.LBB753:
 2143              		.loc 1 107 0
 2144 0242 1B69     		ldr	r3, [r3, #16]
 2145 0244 C340     		lsrs	r3, r3, r0
 2146 0246 DB07     		lsls	r3, r3, #31
 2147 0248 3FF576AF 		bmi	.L106
 2148 024c 0FE0     		b	.L107
 2149              	.LVL172:
 2150              	.L139:
 2151              	.LBB754:
 2152              	.LBB755:
 2153              		.loc 1 79 0
 2154 024e 6368     		ldr	r3, [r4, #4]
 2155              	.LBB756:
 2156              	.LBB757:
 2157              		.loc 2 720 0
 2158 0250 D868     		ldr	r0, [r3, #12]
 2159 0252 FFF7FEFF 		bl	chThdSleep
 2160              	.LVL173:
 2161              	.LBE757:
 2162              	.LBE756:
 2163              	.LBE755:
 2164              	.LBE754:
 2165              		.loc 1 107 0
 2166 0256 6168     		ldr	r1, [r4, #4]
ARM GAS  /tmp/ccdXNkuw.s 			page 39


 2167 0258 4B68     		ldr	r3, [r1, #4]
 2168 025a 23F00F02 		bic	r2, r3, #15
 2169 025e 03F00F03 		and	r3, r3, #15
 2170 0262 1269     		ldr	r2, [r2, #16]
 2171 0264 22FA03F3 		lsr	r3, r2, r3
 2172 0268 D807     		lsls	r0, r3, #31
 2173 026a 3FF565AF 		bmi	.L106
 2174              	.LVL174:
 2175              	.L107:
 2176              	.LBB758:
 2177              	.LBB759:
 2178              	.LBB760:
 2179              	.LBB761:
 2180              	.LBB762:
 2181              	.LBB763:
 2182              		.loc 3 147 0
 2183 026e 686A     		ldr	r0, [r5, #36]
 2184              	.LBE763:
 2185              	.LBE762:
 2186              	.LBE761:
 2187              	.LBE760:
 2188              	.LBE759:
 2189              		.loc 1 108 0
 2190 0270 D4E90712 		ldrd	r1, r2, [r4, #28]
 2191 0274 FFF7FEFF 		bl	osalOsIsTimeWithinX
 2192              	.LVL175:
 2193 0278 0028     		cmp	r0, #0
 2194 027a E8D1     		bne	.L139
 2195              	.LBE758:
 2196              	.LBE753:
 2197              	.LBE752:
 2198              	.LBE765:
 2199              	.LBE767:
 2200              	.LBE769:
 2201              	.LBE770:
 2202              	.LBE779:
 2203              	.LBE781:
 2204              	.LBE783:
 2205              	.LBE793:
 2206              		.loc 1 438 0
 2207 027c 4FF0FF30 		mov	r0, #-1
 2208 0280 BDE8F087 		pop	{r4, r5, r6, r7, r8, r9, r10, pc}
 2209              	.LVL176:
 2210              	.L137:
 2211              	.LBB794:
 2212              	.LBB792:
 2213              	.LBB791:
 2214              		.loc 1 249 0
 2215 0284 F909     		lsrs	r1, r7, #7
 2216              		.loc 1 252 0
 2217 0286 61F00E01 		orn	r1, r1, #14
 2218              		.loc 1 254 0
 2219 028a C9B2     		uxtb	r1, r1
 2220 028c 2046     		mov	r0, r4
 2221 028e FFF7FEFF 		bl	i2c_write_byte
 2222              	.LVL177:
 2223 0292 0028     		cmp	r0, #0
ARM GAS  /tmp/ccdXNkuw.s 			page 40


 2224 0294 FFF601AF 		blt	.L87
 2225              		.loc 1 255 0
 2226 0298 4146     		mov	r1, r8
 2227 029a 2046     		mov	r0, r4
 2228 029c FFF7FEFF 		bl	i2c_write_byte
 2229              	.LVL178:
 2230 02a0 0028     		cmp	r0, #0
 2231 02a2 AADA     		bge	.L104
 2232 02a4 F9E6     		b	.L87
 2233              	.LVL179:
 2234              	.L90:
 2235              	.LBE791:
 2236              	.LBE792:
 2237              	.LBE794:
 2238              	.LBB795:
 2239              	.LBB674:
 2240              	.LBB669:
 2241              	.LBB658:
 2242              		.loc 1 88 0
 2243 02a6 237A     		ldrb	r3, [r4, #8]	@ zero_extendqisi2
 2244 02a8 43F00203 		orr	r3, r3, #2
 2245 02ac 2372     		strb	r3, [r4, #8]
 2246              	.LVL180:
 2247 02ae F4E6     		b	.L87
 2248              	.LVL181:
 2249              	.L138:
 2250              	.LBE658:
 2251              	.LBE669:
 2252              	.LBE674:
 2253              	.LBE795:
 2254              	.LBB796:
 2255              	.LBB784:
 2256              	.LBB782:
 2257              	.LBB780:
 2258              	.LBB778:
 2259              		.loc 1 98 0
 2260 02b0 2046     		mov	r0, r4
 2261 02b2 FFF7FEFF 		bl	i2c_write_stop
 2262              	.LVL182:
 2263 02b6 F0E6     		b	.L87
 2264              	.LVL183:
 2265              	.L136:
 2266              	.LBE778:
 2267              	.LBE780:
 2268              	.LBE782:
 2269              	.LBE784:
 2270              	.LBE796:
 2271              	.LBB797:
 2272              	.LBB735:
 2273              	.LBB733:
 2274              	.LBB732:
 2275              	.LBB731:
 2276              	.LBB722:
 2277              		.loc 1 88 0
 2278 02b8 237A     		ldrb	r3, [r4, #8]	@ zero_extendqisi2
 2279 02ba 43F00203 		orr	r3, r3, #2
 2280 02be 2372     		strb	r3, [r4, #8]
ARM GAS  /tmp/ccdXNkuw.s 			page 41


 2281              	.LVL184:
 2282 02c0 8DE7     		b	.L101
 2283              	.LBE722:
 2284              	.LBE731:
 2285              	.LBE732:
 2286              	.LBE733:
 2287              	.LBE735:
 2288              	.LBE797:
 2289              		.cfi_endproc
 2290              	.LFE343:
 2291              		.size	i2c_lld_master_transmit_timeout, .-i2c_lld_master_transmit_timeout
 2292 02c2 00BF     		.text
 2293              	.Letext0:
 2294              		.file 4 "/usr/lib/gcc/arm-none-eabi/7.3.1/include/stddef.h"
 2295              		.file 5 "/usr/arm-none-eabi/include/machine/_default_types.h"
 2296              		.file 6 "/usr/arm-none-eabi/include/sys/_stdint.h"
 2297              		.file 7 "./RM18A-ChibiOS18-Core/chibios/os/common/ports/ARMCMx/compilers/GCC/chtypes.h"
 2298              		.file 8 "./RM18A-ChibiOS18-Core/chibios/os/rt/include/chsystypes.h"
 2299              		.file 9 "./RM18A-ChibiOS18-Core/chibios/os/rt/include/chschd.h"
 2300              		.file 10 "./RM18A-ChibiOS18-Core/chibios/os/rt/include/chtime.h"
 2301              		.file 11 "./RM18A-ChibiOS18-Core/chibios/os/common/ext/ARM/CMSIS/Core/Include/core_cm4.h"
 2302              		.file 12 "./RM18A-ChibiOS18-Core/chibios/os/common/ext/ST/STM32F4xx/system_stm32f4xx.h"
 2303              		.file 13 "./RM18A-ChibiOS18-Core/chibios/os/common/ext/ST/STM32F4xx/stm32f427xx.h"
 2304              		.file 14 "./RM18A-ChibiOS18-Core/chibios/os/common/ports/ARMCMx/chcore.h"
 2305              		.file 15 "./RM18A-ChibiOS18-Core/chibios/os/common/ports/ARMCMx/chcore_v7m.h"
 2306              		.file 16 "./RM18A-ChibiOS18-Core/chibios/os/hal/ports/STM32/LLD/TIMv1/stm32_tim.h"
 2307              		.file 17 "./RM18A-ChibiOS18-Core/chibios/os/rt/include/chtm.h"
 2308              		.file 18 "./RM18A-ChibiOS18-Core/chibios/os/rt/include/chsem.h"
 2309              		.file 19 "./RM18A-ChibiOS18-Core/chibios/os/rt/include/chmtx.h"
 2310              		.file 20 "./RM18A-ChibiOS18-Core/chibios/os/rt/include/chsys.h"
 2311              		.file 21 "./RM18A-ChibiOS18-Core/chibios/os/rt/include/chregistry.h"
 2312              		.file 22 "./RM18A-ChibiOS18-Core/chibios/os/rt/include/chevents.h"
 2313              		.file 23 "./RM18A-ChibiOS18-Core/chibios/os/oslib/include/chmemcore.h"
 2314              		.file 24 "./RM18A-ChibiOS18-Core/chibios/os/oslib/include/chmempools.h"
 2315              		.file 25 "./RM18A-ChibiOS18-Core/chibios/os/oslib/include/chfactory.h"
 2316              		.file 26 "./RM18A-ChibiOS18-Core/chibios/os/hal/ports/STM32/LLD/DMAv2/stm32_dma.h"
 2317              		.file 27 "./RM18A-ChibiOS18-Core/chibios/os/hal/include/hal_queues.h"
 2318              		.file 28 "./RM18A-ChibiOS18-Core/chibios/os/hal/include/hal_pal.h"
 2319              		.file 29 "./RM18A-ChibiOS18-Core/chibios/os/hal/ports/STM32/LLD/GPIOv2/stm32_gpio.h"
 2320              		.file 30 "./RM18A-ChibiOS18-Core/chibios/os/hal/ports/STM32/LLD/GPIOv2/hal_pal_lld.h"
 2321              		.file 31 "./RM18A-ChibiOS18-Core/chibios/os/hal/include/hal_adc.h"
 2322              		.file 32 "./RM18A-ChibiOS18-Core/chibios/os/hal/ports/STM32/LLD/ADCv2/hal_adc_lld.h"
 2323              		.file 33 "./RM18A-ChibiOS18-Core/chibios/os/hal/include/hal_can.h"
 2324              		.file 34 "./RM18A-ChibiOS18-Core/chibios/os/hal/ports/STM32/LLD/CANv1/hal_can_lld.h"
 2325              		.file 35 "./RM18A-ChibiOS18-Core/chibios/os/hal/include/hal_i2c.h"
 2326              		.file 36 "./RM18A-ChibiOS18-Core/chibios/os/hal/lib/fallback/I2C/hal_i2c_lld.h"
 2327              		.file 37 "./RM18A-ChibiOS18-Core/chibios/os/hal/include/hal_icu.h"
 2328              		.file 38 "./RM18A-ChibiOS18-Core/chibios/os/hal/ports/STM32/LLD/TIMv1/hal_icu_lld.h"
 2329              		.file 39 "./RM18A-ChibiOS18-Core/chibios/os/hal/include/hal_pwm.h"
 2330              		.file 40 "./RM18A-ChibiOS18-Core/chibios/os/hal/ports/STM32/LLD/TIMv1/hal_pwm_lld.h"
 2331              		.file 41 "./RM18A-ChibiOS18-Core/chibios/os/hal/include/hal_serial.h"
 2332              		.file 42 "./RM18A-ChibiOS18-Core/chibios/os/hal/ports/STM32/LLD/USARTv1/hal_serial_lld.h"
 2333              		.file 43 "./RM18A-ChibiOS18-Core/chibios/os/hal/include/hal_spi.h"
 2334              		.file 44 "./RM18A-ChibiOS18-Core/chibios/os/hal/ports/STM32/LLD/SPIv1/hal_spi_lld.h"
 2335              		.file 45 "./RM18A-ChibiOS18-Core/chibios/os/hal/include/hal_uart.h"
 2336              		.file 46 "./RM18A-ChibiOS18-Core/chibios/os/hal/ports/STM32/LLD/USARTv1/hal_uart_lld.h"
 2337              		.file 47 "./RM18A-ChibiOS18-Core/chibios/os/hal/include/hal_usb.h"
ARM GAS  /tmp/ccdXNkuw.s 			page 42


 2338              		.file 48 "./RM18A-ChibiOS18-Core/chibios/os/hal/ports/STM32/LLD/OTGv1/hal_usb_lld.h"
 2339              		.file 49 "./RM18A-ChibiOS18-Core/chibios/os/hal/ports/STM32/LLD/OTGv1/stm32_otg.h"
 2340              		.file 50 "./RM18A-ChibiOS18-Core/chibios/os/rt/include/chvt.h"
 2341              		.file 51 "./RM18A-ChibiOS18-Core/chibios/os/common/ports/ARMCMx/chcore_timer.h"
 2342              		.file 52 "./RM18A-ChibiOS18-Core/chibios/os/rt/include/chthreads.h"