ARM GAS  /tmp/ccO1pL7G.s 			page 1


   1              		.cpu cortex-m4
   2              		.eabi_attribute 27, 1
   3              		.eabi_attribute 28, 1
   4              		.eabi_attribute 20, 1
   5              		.eabi_attribute 21, 1
   6              		.eabi_attribute 23, 3
   7              		.eabi_attribute 24, 1
   8              		.eabi_attribute 25, 1
   9              		.eabi_attribute 26, 1
  10              		.eabi_attribute 30, 2
  11              		.eabi_attribute 34, 1
  12              		.eabi_attribute 18, 4
  13              		.file	"hal_spi_lld.c"
  14              		.text
  15              	.Ltext0:
  16              		.cfi_sections	.debug_frame
  17              		.section	.text.spi_lld_serve_rx_interrupt,"ax",%progbits
  18              		.align	1
  19              		.p2align 2,,3
  20              		.syntax unified
  21              		.thumb
  22              		.thumb_func
  23              		.fpu fpv4-sp-d16
  24              		.type	spi_lld_serve_rx_interrupt, %function
  25              	spi_lld_serve_rx_interrupt:
  26              	.LFB327:
  27              		.file 1 "./RM18A-ChibiOS18-Core/chibios/os/hal/ports/STM32/LLD/SPIv1/hal_spi_lld.c"
  28              		.loc 1 136 0
  29              		.cfi_startproc
  30              		@ args = 0, pretend = 0, frame = 0
  31              		@ frame_needed = 0, uses_anonymous_args = 0
  32              	.LVL0:
  33              		.loc 1 140 0
  34 0000 11F00C0F 		tst	r1, #12
  35              		.loc 1 136 0
  36 0004 70B5     		push	{r4, r5, r6, lr}
  37              		.cfi_def_cfa_offset 16
  38              		.cfi_offset 4, -16
  39              		.cfi_offset 5, -12
  40              		.cfi_offset 6, -8
  41              		.cfi_offset 14, -4
  42              		.loc 1 136 0
  43 0006 0D46     		mov	r5, r1
  44 0008 0446     		mov	r4, r0
  45              		.loc 1 140 0
  46 000a 49D1     		bne	.L33
  47              	.LVL1:
  48              	.L2:
  49              		.loc 1 147 0
  50 000c 6168     		ldr	r1, [r4, #4]
  51 000e 0B78     		ldrb	r3, [r1]	@ zero_extendqisi2
  52 0010 7BB1     		cbz	r3, .L3
  53 0012 05F02006 		and	r6, r5, #32
  54              		.loc 1 148 0
  55 0016 ED06     		lsls	r5, r5, #27
  56              	.LVL2:
  57 0018 3CD4     		bmi	.L34
ARM GAS  /tmp/ccO1pL7G.s 			page 2


  58              	.L4:
  59              		.loc 1 152 0
  60 001a 4EB1     		cbz	r6, .L1
  61              		.loc 1 154 0
  62 001c 6368     		ldr	r3, [r4, #4]
  63 001e 5B68     		ldr	r3, [r3, #4]
  64 0020 33B1     		cbz	r3, .L1
  65              		.loc 1 154 0 is_stmt 0 discriminator 1
  66 0022 0422     		movs	r2, #4
  67 0024 2270     		strb	r2, [r4]
  68 0026 2046     		mov	r0, r4
  69 0028 9847     		blx	r3
  70              	.LVL3:
  71 002a 2378     		ldrb	r3, [r4]	@ zero_extendqisi2
  72 002c 042B     		cmp	r3, #4
  73 002e 3BD0     		beq	.L35
  74              	.L1:
  75              		.loc 1 166 0 is_stmt 1
  76 0030 70BD     		pop	{r4, r5, r6, pc}
  77              	.LVL4:
  78              	.L3:
  79              		.loc 1 159 0
  80 0032 6569     		ldr	r5, [r4, #20]
  81              	.LVL5:
  82 0034 2A68     		ldr	r2, [r5]
  83 0036 1368     		ldr	r3, [r2]
  84 0038 23F01F03 		bic	r3, r3, #31
  85 003c 1360     		str	r3, [r2]
  86              	.L7:
  87              		.loc 1 159 0 is_stmt 0 discriminator 2
  88 003e 1368     		ldr	r3, [r2]
  89 0040 D807     		lsls	r0, r3, #31
  90 0042 FCD4     		bmi	.L7
  91              		.loc 1 159 0 discriminator 3
  92 0044 6A7A     		ldrb	r2, [r5, #9]	@ zero_extendqisi2
  93              		.loc 1 160 0 is_stmt 1 discriminator 3
  94 0046 2069     		ldr	r0, [r4, #16]
  95              		.loc 1 159 0 discriminator 3
  96 0048 6D68     		ldr	r5, [r5, #4]
  97 004a 3D23     		movs	r3, #61
  98 004c 9340     		lsls	r3, r3, r2
  99              		.loc 1 160 0 discriminator 3
 100 004e 0268     		ldr	r2, [r0]
 101              		.loc 1 159 0 discriminator 3
 102 0050 2B60     		str	r3, [r5]
 103              		.loc 1 160 0 discriminator 3
 104 0052 1368     		ldr	r3, [r2]
 105 0054 23F01F03 		bic	r3, r3, #31
 106 0058 1360     		str	r3, [r2]
 107              	.L8:
 108              		.loc 1 160 0 is_stmt 0 discriminator 2
 109 005a 1368     		ldr	r3, [r2]
 110 005c DB07     		lsls	r3, r3, #31
 111 005e FCD4     		bmi	.L8
 112              		.loc 1 160 0 discriminator 3
 113 0060 457A     		ldrb	r5, [r0, #9]	@ zero_extendqisi2
 114              		.loc 1 164 0 is_stmt 1 discriminator 3
ARM GAS  /tmp/ccO1pL7G.s 			page 3


 115 0062 4A68     		ldr	r2, [r1, #4]
 116              		.loc 1 160 0 discriminator 3
 117 0064 4168     		ldr	r1, [r0, #4]
 118 0066 3D23     		movs	r3, #61
 119 0068 AB40     		lsls	r3, r3, r5
 120 006a 0B60     		str	r3, [r1]
 121              		.loc 1 164 0 discriminator 3
 122 006c FAB1     		cbz	r2, .L9
 123              		.loc 1 164 0 is_stmt 0 discriminator 1
 124 006e 0423     		movs	r3, #4
 125 0070 2370     		strb	r3, [r4]
 126 0072 2046     		mov	r0, r4
 127 0074 9047     		blx	r2
 128              	.LVL6:
 129 0076 2378     		ldrb	r3, [r4]	@ zero_extendqisi2
 130 0078 042B     		cmp	r3, #4
 131 007a 18D0     		beq	.L9
 132              	.L10:
 133              	.LVL7:
 134              	.LBB88:
 135              	.LBB89:
 136              	.LBB90:
 137              	.LBB91:
 138              	.LBB92:
 139              	.LBB93:
 140              		.file 2 "./RM18A-ChibiOS18-Core/chibios/os/common/ext/ARM/CMSIS/Core/Include/cmsis_gcc.h"
 141              		.loc 2 493 0 is_stmt 1 discriminator 4
 142 007c 2023     		movs	r3, #32
 143              		.syntax unified
 144              	@ 493 "./RM18A-ChibiOS18-Core/chibios/os/common/ext/ARM/CMSIS/Core/Include/cmsis_gcc.h" 1
 145 007e 83F31188 		MSR basepri, r3
 146              	@ 0 "" 2
 147              	.LVL8:
 148              		.thumb
 149              		.syntax unified
 150              	.LBE93:
 151              	.LBE92:
 152              	.LBE91:
 153              	.LBE90:
 154              	.LBE89:
 155              	.LBE88:
 156              	.LBB94:
 157              	.LBB95:
 158              		.file 3 "./RM18A-ChibiOS18-Core/chibios/os/hal/osal/rt/osal.h"
 159              		.loc 3 775 0 discriminator 4
 160 0082 0021     		movs	r1, #0
 161 0084 04F10800 		add	r0, r4, #8
 162              	.LVL9:
 163 0088 FFF7FEFF 		bl	chThdResumeI
 164              	.LVL10:
 165              	.LBE95:
 166              	.LBE94:
 167              	.LBB96:
 168              	.LBB97:
 169              	.LBB98:
 170              	.LBB99:
 171              	.LBB100:
ARM GAS  /tmp/ccO1pL7G.s 			page 4


 172              	.LBB101:
 173              		.loc 2 493 0 discriminator 4
 174 008c 0023     		movs	r3, #0
 175              		.syntax unified
 176              	@ 493 "./RM18A-ChibiOS18-Core/chibios/os/common/ext/ARM/CMSIS/Core/Include/cmsis_gcc.h" 1
 177 008e 83F31188 		MSR basepri, r3
 178              	@ 0 "" 2
 179              	.LVL11:
 180              		.thumb
 181              		.syntax unified
 182              	.LBE101:
 183              	.LBE100:
 184              	.LBE99:
 185              	.LBE98:
 186              	.LBE97:
 187              	.LBE96:
 188              		.loc 1 166 0 discriminator 4
 189 0092 70BD     		pop	{r4, r5, r6, pc}
 190              	.LVL12:
 191              	.L34:
 192              		.loc 1 150 0
 193 0094 4B68     		ldr	r3, [r1, #4]
 194 0096 002B     		cmp	r3, #0
 195 0098 CAD0     		beq	.L1
 196              		.loc 1 150 0 is_stmt 0 discriminator 1
 197 009a 2046     		mov	r0, r4
 198 009c 9847     		blx	r3
 199              	.LVL13:
 200 009e BCE7     		b	.L4
 201              	.LVL14:
 202              	.L33:
 203              	.LBB102:
 204              	.LBB103:
 205              		.loc 3 480 0 is_stmt 1
 206 00a0 0448     		ldr	r0, .L36
 207              	.LVL15:
 208 00a2 FFF7FEFF 		bl	chSysHalt
 209              	.LVL16:
 210 00a6 B1E7     		b	.L2
 211              	.LVL17:
 212              	.L35:
 213              	.LBE103:
 214              	.LBE102:
 215              		.loc 1 154 0 discriminator 2
 216 00a8 0323     		movs	r3, #3
 217 00aa 2370     		strb	r3, [r4]
 218              		.loc 1 166 0 discriminator 2
 219 00ac 70BD     		pop	{r4, r5, r6, pc}
 220              	.LVL18:
 221              	.L9:
 222              		.loc 1 164 0 discriminator 3
 223 00ae 0223     		movs	r3, #2
 224 00b0 2370     		strb	r3, [r4]
 225 00b2 E3E7     		b	.L10
 226              	.L37:
 227              		.align	2
 228              	.L36:
ARM GAS  /tmp/ccO1pL7G.s 			page 5


 229 00b4 00000000 		.word	.LC0
 230              		.cfi_endproc
 231              	.LFE327:
 232              		.size	spi_lld_serve_rx_interrupt, .-spi_lld_serve_rx_interrupt
 233              		.section	.text.spi_lld_serve_tx_interrupt,"ax",%progbits
 234              		.align	1
 235              		.p2align 2,,3
 236              		.syntax unified
 237              		.thumb
 238              		.thumb_func
 239              		.fpu fpv4-sp-d16
 240              		.type	spi_lld_serve_tx_interrupt, %function
 241              	spi_lld_serve_tx_interrupt:
 242              	.LFB328:
 243              		.loc 1 174 0
 244              		.cfi_startproc
 245              		@ args = 0, pretend = 0, frame = 0
 246              		@ frame_needed = 0, uses_anonymous_args = 0
 247              	.LVL19:
 248              		.loc 1 179 0
 249 0000 11F00C0F 		tst	r1, #12
 250              		.loc 1 174 0
 251 0004 38B5     		push	{r3, r4, r5, lr}
 252              		.cfi_def_cfa_offset 16
 253              		.cfi_offset 3, -16
 254              		.cfi_offset 4, -12
 255              		.cfi_offset 5, -8
 256              		.cfi_offset 14, -4
 257              		.loc 1 174 0
 258 0006 0546     		mov	r5, r0
 259              		.loc 1 179 0
 260 0008 18D1     		bne	.L50
 261              	.LVL20:
 262              	.L39:
 263              		.loc 1 187 0
 264 000a 104C     		ldr	r4, .L52
 265 000c A542     		cmp	r5, r4
 266 000e 00D0     		beq	.L51
 267              		.loc 1 190 0
 268 0010 38BD     		pop	{r3, r4, r5, pc}
 269              	.LVL21:
 270              	.L51:
 271              	.LBB124:
 272              	.LBB125:
 273              		.loc 1 188 0
 274 0012 6368     		ldr	r3, [r4, #4]
 275 0014 5B68     		ldr	r3, [r3, #4]
 276 0016 ABB1     		cbz	r3, .L41
 277 0018 0422     		movs	r2, #4
 278 001a 2270     		strb	r2, [r4]
 279 001c 2046     		mov	r0, r4
 280 001e 9847     		blx	r3
 281              	.LVL22:
 282 0020 2378     		ldrb	r3, [r4]	@ zero_extendqisi2
 283 0022 042B     		cmp	r3, #4
 284 0024 0ED0     		beq	.L41
 285              	.L42:
ARM GAS  /tmp/ccO1pL7G.s 			page 6


 286              	.LVL23:
 287              	.LBB126:
 288              	.LBB127:
 289              	.LBB128:
 290              	.LBB129:
 291              	.LBB130:
 292              	.LBB131:
 293              		.loc 2 493 0
 294 0026 2023     		movs	r3, #32
 295              		.syntax unified
 296              	@ 493 "./RM18A-ChibiOS18-Core/chibios/os/common/ext/ARM/CMSIS/Core/Include/cmsis_gcc.h" 1
 297 0028 83F31188 		MSR basepri, r3
 298              	@ 0 "" 2
 299              	.LVL24:
 300              		.thumb
 301              		.syntax unified
 302              	.LBE131:
 303              	.LBE130:
 304              	.LBE129:
 305              	.LBE128:
 306              	.LBE127:
 307              	.LBE126:
 308              	.LBB132:
 309              	.LBB133:
 310              		.loc 3 775 0
 311 002c 0021     		movs	r1, #0
 312 002e 0848     		ldr	r0, .L52+4
 313 0030 FFF7FEFF 		bl	chThdResumeI
 314              	.LVL25:
 315              	.LBE133:
 316              	.LBE132:
 317              	.LBB134:
 318              	.LBB135:
 319              	.LBB136:
 320              	.LBB137:
 321              	.LBB138:
 322              	.LBB139:
 323              		.loc 2 493 0
 324 0034 0023     		movs	r3, #0
 325              		.syntax unified
 326              	@ 493 "./RM18A-ChibiOS18-Core/chibios/os/common/ext/ARM/CMSIS/Core/Include/cmsis_gcc.h" 1
 327 0036 83F31188 		MSR basepri, r3
 328              	@ 0 "" 2
 329              	.LVL26:
 330              		.thumb
 331              		.syntax unified
 332              	.LBE139:
 333              	.LBE138:
 334              	.LBE137:
 335              	.LBE136:
 336              	.LBE135:
 337              	.LBE134:
 338              	.LBE125:
 339              	.LBE124:
 340              		.loc 1 190 0
 341 003a 38BD     		pop	{r3, r4, r5, pc}
 342              	.LVL27:
ARM GAS  /tmp/ccO1pL7G.s 			page 7


 343              	.L50:
 344              	.LBB141:
 345              	.LBB142:
 346              		.loc 3 480 0
 347 003c 0548     		ldr	r0, .L52+8
 348              	.LVL28:
 349 003e FFF7FEFF 		bl	chSysHalt
 350              	.LVL29:
 351 0042 E2E7     		b	.L39
 352              	.LVL30:
 353              	.L41:
 354              	.LBE142:
 355              	.LBE141:
 356              	.LBB143:
 357              	.LBB140:
 358              		.loc 1 188 0
 359 0044 0223     		movs	r3, #2
 360 0046 2370     		strb	r3, [r4]
 361 0048 EDE7     		b	.L42
 362              	.L53:
 363 004a 00BF     		.align	2
 364              	.L52:
 365 004c 00000000 		.word	.LANCHOR0
 366 0050 08000000 		.word	.LANCHOR0+8
 367 0054 00000000 		.word	.LC0
 368              	.LBE140:
 369              	.LBE143:
 370              		.cfi_endproc
 371              	.LFE328:
 372              		.size	spi_lld_serve_tx_interrupt, .-spi_lld_serve_tx_interrupt
 373              		.section	.text.spi_lld_init,"ax",%progbits
 374              		.align	1
 375              		.p2align 2,,3
 376              		.global	spi_lld_init
 377              		.syntax unified
 378              		.thumb
 379              		.thumb_func
 380              		.fpu fpv4-sp-d16
 381              		.type	spi_lld_init, %function
 382              	spi_lld_init:
 383              	.LFB329:
 384              		.loc 1 205 0
 385              		.cfi_startproc
 386              		@ args = 0, pretend = 0, frame = 0
 387              		@ frame_needed = 0, uses_anonymous_args = 0
 388 0000 F8B5     		push	{r3, r4, r5, r6, r7, lr}
 389              		.cfi_def_cfa_offset 24
 390              		.cfi_offset 3, -24
 391              		.cfi_offset 4, -20
 392              		.cfi_offset 5, -16
 393              		.cfi_offset 6, -12
 394              		.cfi_offset 7, -8
 395              		.cfi_offset 14, -4
 396              		.loc 1 208 0
 397 0002 134F     		ldr	r7, .L56
 398              		.loc 1 263 0
 399 0004 134E     		ldr	r6, .L56+4
ARM GAS  /tmp/ccO1pL7G.s 			page 8


 400              		.loc 1 281 0
 401 0006 144C     		ldr	r4, .L56+8
 402              		.loc 1 208 0
 403 0008 3846     		mov	r0, r7
 404 000a FFF7FEFF 		bl	spiObjectInit
 405              	.LVL31:
 406              		.loc 1 209 0
 407 000e 134B     		ldr	r3, .L56+12
 408              		.loc 1 212 0
 409 0010 134A     		ldr	r2, .L56+16
 410              		.loc 1 209 0
 411 0012 FB60     		str	r3, [r7, #12]
 412              		.loc 1 210 0
 413 0014 0025     		movs	r5, #0
 414              		.loc 1 218 0
 415 0016 134B     		ldr	r3, .L56+20
 416              		.loc 1 212 0
 417 0018 BA61     		str	r2, [r7, #24]
 418              		.loc 1 263 0
 419 001a 3046     		mov	r0, r6
 420              		.loc 1 218 0
 421 001c FB61     		str	r3, [r7, #28]
 422              		.loc 1 211 0
 423 001e C7E90455 		strd	r5, r5, [r7, #16]
 424              		.loc 1 263 0
 425 0022 FFF7FEFF 		bl	spiObjectInit
 426              	.LVL32:
 427              		.loc 1 267 0
 428 0026 104A     		ldr	r2, .L56+24
 429              		.loc 1 273 0
 430 0028 104B     		ldr	r3, .L56+28
 431              		.loc 1 264 0
 432 002a 1149     		ldr	r1, .L56+32
 433 002c F160     		str	r1, [r6, #12]
 434              		.loc 1 281 0
 435 002e 2046     		mov	r0, r4
 436              		.loc 1 273 0
 437 0030 C6E90623 		strd	r2, r3, [r6, #24]
 438              		.loc 1 266 0
 439 0034 C6E90455 		strd	r5, r5, [r6, #16]
 440              		.loc 1 281 0
 441 0038 FFF7FEFF 		bl	spiObjectInit
 442              	.LVL33:
 443              		.loc 1 285 0
 444 003c 0D4A     		ldr	r2, .L56+36
 445              		.loc 1 291 0
 446 003e 0E4B     		ldr	r3, .L56+40
 447              		.loc 1 282 0
 448 0040 0E49     		ldr	r1, .L56+44
 449 0042 E160     		str	r1, [r4, #12]
 450              		.loc 1 284 0
 451 0044 C4E90455 		strd	r5, r5, [r4, #16]
 452              		.loc 1 291 0
 453 0048 C4E90623 		strd	r2, r3, [r4, #24]
 454              		.loc 1 315 0
 455 004c F8BD     		pop	{r3, r4, r5, r6, r7, pc}
 456              	.L57:
ARM GAS  /tmp/ccO1pL7G.s 			page 9


 457 004e 00BF     		.align	2
 458              	.L56:
 459 0050 00000000 		.word	.LANCHOR0
 460 0054 00000000 		.word	.LANCHOR1
 461 0058 00000000 		.word	.LANCHOR2
 462 005c 00300140 		.word	1073819648
 463 0060 16000106 		.word	100728854
 464 0064 56000106 		.word	100728918
 465 0068 16000108 		.word	134283286
 466 006c 4600010A 		.word	167837766
 467 0070 00340140 		.word	1073820672
 468 0074 16000104 		.word	67174422
 469 0078 4600010E 		.word	234946630
 470 007c 00500140 		.word	1073827840
 471              		.cfi_endproc
 472              	.LFE329:
 473              		.size	spi_lld_init, .-spi_lld_init
 474              		.section	.text.spi_lld_start,"ax",%progbits
 475              		.align	1
 476              		.p2align 2,,3
 477              		.global	spi_lld_start
 478              		.syntax unified
 479              		.thumb
 480              		.thumb_func
 481              		.fpu fpv4-sp-d16
 482              		.type	spi_lld_start, %function
 483              	spi_lld_start:
 484              	.LFB330:
 485              		.loc 1 324 0
 486              		.cfi_startproc
 487              		@ args = 0, pretend = 0, frame = 0
 488              		@ frame_needed = 0, uses_anonymous_args = 0
 489              	.LVL34:
 490 0000 F8B5     		push	{r3, r4, r5, r6, r7, lr}
 491              		.cfi_def_cfa_offset 24
 492              		.cfi_offset 3, -24
 493              		.cfi_offset 4, -20
 494              		.cfi_offset 5, -16
 495              		.cfi_offset 6, -12
 496              		.cfi_offset 7, -8
 497              		.cfi_offset 14, -4
 498              		.loc 1 327 0
 499 0002 0378     		ldrb	r3, [r0]	@ zero_extendqisi2
 500 0004 012B     		cmp	r3, #1
 501              		.loc 1 324 0
 502 0006 0446     		mov	r4, r0
 503              		.loc 1 327 0
 504 0008 32D0     		beq	.L59
 505 000a C368     		ldr	r3, [r0, #12]
 506 000c 454D     		ldr	r5, .L77
 507              	.LVL35:
 508              	.L60:
 509              		.loc 1 430 0
 510 000e 6668     		ldr	r6, [r4, #4]
 511 0010 A269     		ldr	r2, [r4, #24]
 512 0012 B089     		ldrh	r0, [r6, #12]
 513 0014 E169     		ldr	r1, [r4, #28]
ARM GAS  /tmp/ccO1pL7G.s 			page 10


 514 0016 0705     		lsls	r7, r0, #20
 515              		.loc 1 445 0
 516 0018 3778     		ldrb	r7, [r6]	@ zero_extendqisi2
 517 001a 22F4F042 		bic	r2, r2, #30720
 518 001e 21F4F041 		bic	r1, r1, #30720
 519              		.loc 1 440 0
 520 0022 44BF     		itt	mi
 521 0024 42F42052 		orrmi	r2, r2, #10240
 522              		.loc 1 442 0
 523 0028 41F42051 		orrmi	r1, r1, #10240
 524              		.loc 1 445 0
 525 002c DFB1     		cbz	r7, .L66
 526              		.loc 1 446 0
 527 002e 42F48472 		orr	r2, r2, #264
 528              		.loc 1 447 0
 529 0032 41F48471 		orr	r1, r1, #264
 530              	.L67:
 531              		.loc 1 458 0
 532 0036 F689     		ldrh	r6, [r6, #14]
 533              		.loc 1 455 0
 534 0038 1F68     		ldr	r7, [r3]
 535 003a E161     		str	r1, [r4, #28]
 536              		.loc 1 456 0
 537 003c 40F44170 		orr	r0, r0, #772
 538              		.loc 1 458 0
 539 0040 46F00701 		orr	r1, r6, #7
 540              		.loc 1 455 0
 541 0044 27F04007 		bic	r7, r7, #64
 542              		.loc 1 462 0
 543 0048 AC42     		cmp	r4, r5
 544 004a A261     		str	r2, [r4, #24]
 545              		.loc 1 455 0
 546 004c 1F60     		str	r7, [r3]
 547              		.loc 1 456 0
 548 004e 1860     		str	r0, [r3]
 549              		.loc 1 458 0
 550 0050 5960     		str	r1, [r3, #4]
 551              		.loc 1 462 0
 552 0052 03D0     		beq	.L68
 553              		.loc 1 464 0
 554 0054 5A68     		ldr	r2, [r3, #4]
 555 0056 42F00102 		orr	r2, r2, #1
 556 005a 5A60     		str	r2, [r3, #4]
 557              	.L68:
 558              		.loc 1 465 0
 559 005c 1A68     		ldr	r2, [r3]
 560 005e 42F04002 		orr	r2, r2, #64
 561 0062 1A60     		str	r2, [r3]
 562              		.loc 1 466 0
 563 0064 F8BD     		pop	{r3, r4, r5, r6, r7, pc}
 564              	.LVL36:
 565              	.L66:
 566              		.loc 1 450 0
 567 0066 22F48472 		bic	r2, r2, #264
 568              		.loc 1 451 0
 569 006a 21F48471 		bic	r1, r1, #264
 570 006e E2E7     		b	.L67
ARM GAS  /tmp/ccO1pL7G.s 			page 11


 571              	.LVL37:
 572              	.L59:
 573              		.loc 1 329 0
 574 0070 2C4D     		ldr	r5, .L77
 575 0072 A842     		cmp	r0, r5
 576 0074 41D0     		beq	.L75
 577              		.loc 1 376 0
 578 0076 2C4B     		ldr	r3, .L77+4
 579 0078 9842     		cmp	r0, r3
 580 007a 25D0     		beq	.L76
 581              		.loc 1 391 0
 582 007c 2B4B     		ldr	r3, .L77+8
 583 007e 9842     		cmp	r0, r3
 584 0080 09D0     		beq	.L69
 585              	.LVL38:
 586              	.L64:
 587              		.loc 1 425 0
 588 0082 D4E90332 		ldrd	r3, r2, [r4, #12]
 589 0086 1168     		ldr	r1, [r2]
 590 0088 03F10C02 		add	r2, r3, #12
 591 008c 8A60     		str	r2, [r1, #8]
 592              	.L62:
 593              		.loc 1 426 0
 594 008e 6169     		ldr	r1, [r4, #20]
 595 0090 0968     		ldr	r1, [r1]
 596 0092 8A60     		str	r2, [r1, #8]
 597 0094 BBE7     		b	.L60
 598              	.LVL39:
 599              	.L69:
 600              		.loc 1 392 0
 601 0096 2346     		mov	r3, r4
 602 0098 254A     		ldr	r2, .L77+12
 603 009a 0A21     		movs	r1, #10
 604 009c 0B20     		movs	r0, #11
 605              	.LVL40:
 606 009e FFF7FEFF 		bl	dmaStreamAllocI
 607              	.LVL41:
 608              		.loc 1 397 0
 609 00a2 2346     		mov	r3, r4
 610              		.loc 1 392 0
 611 00a4 2061     		str	r0, [r4, #16]
 612              		.loc 1 397 0
 613 00a6 234A     		ldr	r2, .L77+16
 614 00a8 0A21     		movs	r1, #10
 615 00aa 0E20     		movs	r0, #14
 616 00ac FFF7FEFF 		bl	dmaStreamAllocI
 617              	.LVL42:
 618              		.loc 1 402 0
 619 00b0 214B     		ldr	r3, .L77+20
 620              		.loc 1 397 0
 621 00b2 6061     		str	r0, [r4, #20]
 622              		.loc 1 402 0
 623 00b4 5A6C     		ldr	r2, [r3, #68]
 624 00b6 42F48012 		orr	r2, r2, #1048576
 625 00ba 5A64     		str	r2, [r3, #68]
 626 00bc 5A6E     		ldr	r2, [r3, #100]
 627 00be 42F48012 		orr	r2, r2, #1048576
ARM GAS  /tmp/ccO1pL7G.s 			page 12


 628 00c2 5A66     		str	r2, [r3, #100]
 629 00c4 5B6E     		ldr	r3, [r3, #100]
 630 00c6 DCE7     		b	.L64
 631              	.LVL43:
 632              	.L76:
 633              		.loc 1 377 0
 634 00c8 0346     		mov	r3, r0
 635 00ca 194A     		ldr	r2, .L77+12
 636 00cc 0A21     		movs	r1, #10
 637 00ce 0820     		movs	r0, #8
 638              	.LVL44:
 639 00d0 FFF7FEFF 		bl	dmaStreamAllocI
 640              	.LVL45:
 641              		.loc 1 382 0
 642 00d4 2346     		mov	r3, r4
 643              		.loc 1 377 0
 644 00d6 2061     		str	r0, [r4, #16]
 645              		.loc 1 382 0
 646 00d8 164A     		ldr	r2, .L77+16
 647 00da 0A21     		movs	r1, #10
 648 00dc 0C20     		movs	r0, #12
 649 00de FFF7FEFF 		bl	dmaStreamAllocI
 650              	.LVL46:
 651              		.loc 1 387 0
 652 00e2 154B     		ldr	r3, .L77+20
 653              		.loc 1 382 0
 654 00e4 6061     		str	r0, [r4, #20]
 655              		.loc 1 387 0
 656 00e6 5A6C     		ldr	r2, [r3, #68]
 657 00e8 42F40052 		orr	r2, r2, #8192
 658 00ec 5A64     		str	r2, [r3, #68]
 659 00ee 5A6E     		ldr	r2, [r3, #100]
 660 00f0 42F40052 		orr	r2, r2, #8192
 661 00f4 5A66     		str	r2, [r3, #100]
 662 00f6 5B6E     		ldr	r3, [r3, #100]
 663 00f8 C3E7     		b	.L64
 664              	.LVL47:
 665              	.L75:
 666              		.loc 1 337 0
 667 00fa 0346     		mov	r3, r0
 668 00fc 0D4A     		ldr	r2, .L77+16
 669 00fe 0A21     		movs	r1, #10
 670 0100 0D20     		movs	r0, #13
 671              	.LVL48:
 672 0102 FFF7FEFF 		bl	dmaStreamAllocI
 673              	.LVL49:
 674              		.loc 1 342 0
 675 0106 0C4A     		ldr	r2, .L77+20
 676 0108 E368     		ldr	r3, [r4, #12]
 677 010a 516C     		ldr	r1, [r2, #68]
 678              		.loc 1 337 0
 679 010c 6061     		str	r0, [r4, #20]
 680              		.loc 1 342 0
 681 010e 41F48051 		orr	r1, r1, #4096
 682 0112 5164     		str	r1, [r2, #68]
 683 0114 516E     		ldr	r1, [r2, #100]
 684 0116 41F48051 		orr	r1, r1, #4096
ARM GAS  /tmp/ccO1pL7G.s 			page 13


 685 011a 5166     		str	r1, [r2, #100]
 686 011c 526E     		ldr	r2, [r2, #100]
 687 011e 03F10C02 		add	r2, r3, #12
 688 0122 B4E7     		b	.L62
 689              	.L78:
 690              		.align	2
 691              	.L77:
 692 0124 00000000 		.word	.LANCHOR0
 693 0128 00000000 		.word	.LANCHOR1
 694 012c 00000000 		.word	.LANCHOR2
 695 0130 00000000 		.word	spi_lld_serve_rx_interrupt
 696 0134 00000000 		.word	spi_lld_serve_tx_interrupt
 697 0138 00380240 		.word	1073887232
 698              		.cfi_endproc
 699              	.LFE330:
 700              		.size	spi_lld_start, .-spi_lld_start
 701              		.section	.text.spi_lld_stop,"ax",%progbits
 702              		.align	1
 703              		.p2align 2,,3
 704              		.global	spi_lld_stop
 705              		.syntax unified
 706              		.thumb
 707              		.thumb_func
 708              		.fpu fpv4-sp-d16
 709              		.type	spi_lld_stop, %function
 710              	spi_lld_stop:
 711              	.LFB331:
 712              		.loc 1 475 0
 713              		.cfi_startproc
 714              		@ args = 0, pretend = 0, frame = 0
 715              		@ frame_needed = 0, uses_anonymous_args = 0
 716              	.LVL50:
 717 0000 38B5     		push	{r3, r4, r5, lr}
 718              		.cfi_def_cfa_offset 16
 719              		.cfi_offset 3, -16
 720              		.cfi_offset 4, -12
 721              		.cfi_offset 5, -8
 722              		.cfi_offset 14, -4
 723              		.loc 1 478 0
 724 0002 0378     		ldrb	r3, [r0]	@ zero_extendqisi2
 725 0004 022B     		cmp	r3, #2
 726 0006 00D0     		beq	.L86
 727              	.LVL51:
 728              	.L79:
 729              		.loc 1 517 0
 730 0008 38BD     		pop	{r3, r4, r5, pc}
 731              	.LVL52:
 732              	.L86:
 733              		.loc 1 481 0
 734 000a C368     		ldr	r3, [r0, #12]
 735              		.loc 1 485 0
 736 000c 1F49     		ldr	r1, .L88
 737              		.loc 1 481 0
 738 000e 1A68     		ldr	r2, [r3]
 739              		.loc 1 482 0
 740 0010 0025     		movs	r5, #0
 741              		.loc 1 481 0
ARM GAS  /tmp/ccO1pL7G.s 			page 14


 742 0012 22F04002 		bic	r2, r2, #64
 743              		.loc 1 485 0
 744 0016 8842     		cmp	r0, r1
 745              		.loc 1 481 0
 746 0018 1A60     		str	r2, [r3]
 747 001a 0446     		mov	r4, r0
 748              		.loc 1 482 0
 749 001c 1D60     		str	r5, [r3]
 750              		.loc 1 483 0
 751 001e 5D60     		str	r5, [r3, #4]
 752              		.loc 1 485 0
 753 0020 23D0     		beq	.L82
 754              		.loc 1 487 0
 755 0022 0069     		ldr	r0, [r0, #16]
 756              	.LVL53:
 757 0024 FFF7FEFF 		bl	dmaStreamFreeI
 758              	.LVL54:
 759              		.loc 1 488 0
 760 0028 6069     		ldr	r0, [r4, #20]
 761 002a FFF7FEFF 		bl	dmaStreamFreeI
 762              	.LVL55:
 763              		.loc 1 505 0
 764 002e 184B     		ldr	r3, .L88+4
 765 0030 9C42     		cmp	r4, r3
 766              		.loc 1 490 0
 767 0032 C4E90455 		strd	r5, r5, [r4, #16]
 768              		.loc 1 505 0
 769 0036 0DD0     		beq	.L87
 770              		.loc 1 509 0
 771 0038 164B     		ldr	r3, .L88+8
 772 003a 9C42     		cmp	r4, r3
 773 003c E4D1     		bne	.L79
 774              		.loc 1 510 0
 775 003e 164B     		ldr	r3, .L88+12
 776 0040 5A6C     		ldr	r2, [r3, #68]
 777 0042 22F48012 		bic	r2, r2, #1048576
 778 0046 5A64     		str	r2, [r3, #68]
 779 0048 5A6E     		ldr	r2, [r3, #100]
 780 004a 22F48012 		bic	r2, r2, #1048576
 781 004e 5A66     		str	r2, [r3, #100]
 782 0050 5B6E     		ldr	r3, [r3, #100]
 783              		.loc 1 517 0
 784 0052 38BD     		pop	{r3, r4, r5, pc}
 785              	.LVL56:
 786              	.L87:
 787              		.loc 1 506 0
 788 0054 104B     		ldr	r3, .L88+12
 789 0056 5A6C     		ldr	r2, [r3, #68]
 790 0058 22F40052 		bic	r2, r2, #8192
 791 005c 5A64     		str	r2, [r3, #68]
 792 005e 5A6E     		ldr	r2, [r3, #100]
 793 0060 22F40052 		bic	r2, r2, #8192
 794 0064 5A66     		str	r2, [r3, #100]
 795 0066 5B6E     		ldr	r3, [r3, #100]
 796              		.loc 1 517 0
 797 0068 38BD     		pop	{r3, r4, r5, pc}
 798              	.LVL57:
ARM GAS  /tmp/ccO1pL7G.s 			page 15


 799              	.L82:
 800              		.loc 1 488 0
 801 006a 4069     		ldr	r0, [r0, #20]
 802              	.LVL58:
 803 006c FFF7FEFF 		bl	dmaStreamFreeI
 804              	.LVL59:
 805              		.loc 1 494 0
 806 0070 094B     		ldr	r3, .L88+12
 807              		.loc 1 489 0
 808 0072 2561     		str	r5, [r4, #16]
 809              		.loc 1 494 0
 810 0074 5A6C     		ldr	r2, [r3, #68]
 811              		.loc 1 490 0
 812 0076 6561     		str	r5, [r4, #20]
 813              		.loc 1 494 0
 814 0078 22F48052 		bic	r2, r2, #4096
 815 007c 5A64     		str	r2, [r3, #68]
 816 007e 5A6E     		ldr	r2, [r3, #100]
 817 0080 22F48052 		bic	r2, r2, #4096
 818 0084 5A66     		str	r2, [r3, #100]
 819 0086 5B6E     		ldr	r3, [r3, #100]
 820              		.loc 1 517 0
 821 0088 38BD     		pop	{r3, r4, r5, pc}
 822              	.LVL60:
 823              	.L89:
 824 008a 00BF     		.align	2
 825              	.L88:
 826 008c 00000000 		.word	.LANCHOR0
 827 0090 00000000 		.word	.LANCHOR1
 828 0094 00000000 		.word	.LANCHOR2
 829 0098 00380240 		.word	1073887232
 830              		.cfi_endproc
 831              	.LFE331:
 832              		.size	spi_lld_stop, .-spi_lld_stop
 833              		.section	.text.spi_lld_ignore,"ax",%progbits
 834              		.align	1
 835              		.p2align 2,,3
 836              		.global	spi_lld_ignore
 837              		.syntax unified
 838              		.thumb
 839              		.thumb_func
 840              		.fpu fpv4-sp-d16
 841              		.type	spi_lld_ignore, %function
 842              	spi_lld_ignore:
 843              	.LFB332:
 844              		.loc 1 557 0
 845              		.cfi_startproc
 846              		@ args = 0, pretend = 0, frame = 0
 847              		@ frame_needed = 0, uses_anonymous_args = 0
 848              		@ link register save eliminated.
 849              	.LVL61:
 850              		.loc 1 565 0
 851 0000 D0E90423 		ldrd	r2, r3, [r0, #16]
 852              		.loc 1 557 0
 853 0004 30B4     		push	{r4, r5}
 854              		.cfi_def_cfa_offset 8
 855              		.cfi_offset 4, -8
ARM GAS  /tmp/ccO1pL7G.s 			page 16


 856              		.cfi_offset 5, -4
 857              		.loc 1 561 0
 858 0006 1268     		ldr	r2, [r2]
 859              		.loc 1 565 0
 860 0008 1B68     		ldr	r3, [r3]
 861              		.loc 1 561 0
 862 000a 0A4C     		ldr	r4, .L92
 863              		.loc 1 567 0
 864 000c D0E90650 		ldrd	r5, r0, [r0, #24]
 865              	.LVL62:
 866              		.loc 1 561 0
 867 0010 D460     		str	r4, [r2, #12]
 868              		.loc 1 565 0
 869 0012 094C     		ldr	r4, .L92+4
 870              		.loc 1 562 0
 871 0014 5160     		str	r1, [r2, #4]
 872              		.loc 1 563 0
 873 0016 1560     		str	r5, [r2]
 874              		.loc 1 565 0
 875 0018 DC60     		str	r4, [r3, #12]
 876              		.loc 1 566 0
 877 001a 5960     		str	r1, [r3, #4]
 878              		.loc 1 567 0
 879 001c 1860     		str	r0, [r3]
 880              		.loc 1 569 0
 881 001e 1168     		ldr	r1, [r2]
 882              	.LVL63:
 883 0020 41F00101 		orr	r1, r1, #1
 884 0024 1160     		str	r1, [r2]
 885              		.loc 1 570 0
 886 0026 1A68     		ldr	r2, [r3]
 887 0028 42F00102 		orr	r2, r2, #1
 888 002c 1A60     		str	r2, [r3]
 889              		.loc 1 571 0
 890 002e 30BC     		pop	{r4, r5}
 891              		.cfi_restore 5
 892              		.cfi_restore 4
 893              		.cfi_def_cfa_offset 0
 894 0030 7047     		bx	lr
 895              	.L93:
 896 0032 00BF     		.align	2
 897              	.L92:
 898 0034 00000000 		.word	.LANCHOR3
 899 0038 00000000 		.word	.LANCHOR4
 900              		.cfi_endproc
 901              	.LFE332:
 902              		.size	spi_lld_ignore, .-spi_lld_ignore
 903              		.section	.text.spi_lld_exchange,"ax",%progbits
 904              		.align	1
 905              		.p2align 2,,3
 906              		.global	spi_lld_exchange
 907              		.syntax unified
 908              		.thumb
 909              		.thumb_func
 910              		.fpu fpv4-sp-d16
 911              		.type	spi_lld_exchange, %function
 912              	spi_lld_exchange:
ARM GAS  /tmp/ccO1pL7G.s 			page 17


 913              	.LFB333:
 914              		.loc 1 589 0
 915              		.cfi_startproc
 916              		@ args = 0, pretend = 0, frame = 0
 917              		@ frame_needed = 0, uses_anonymous_args = 0
 918              		@ link register save eliminated.
 919              	.LVL64:
 920 0000 70B4     		push	{r4, r5, r6}
 921              		.cfi_def_cfa_offset 12
 922              		.cfi_offset 4, -12
 923              		.cfi_offset 5, -8
 924              		.cfi_offset 6, -4
 925              		.loc 1 597 0
 926 0002 D0E90454 		ldrd	r5, r4, [r0, #16]
 927              		.loc 1 599 0
 928 0006 D0E90660 		ldrd	r6, r0, [r0, #24]
 929              	.LVL65:
 930              		.loc 1 593 0
 931 000a 2D68     		ldr	r5, [r5]
 932              		.loc 1 597 0
 933 000c 2468     		ldr	r4, [r4]
 934              		.loc 1 593 0
 935 000e EB60     		str	r3, [r5, #12]
 936              		.loc 1 595 0
 937 0010 46F48066 		orr	r6, r6, #1024
 938              		.loc 1 599 0
 939 0014 40F48060 		orr	r0, r0, #1024
 940              		.loc 1 594 0
 941 0018 6960     		str	r1, [r5, #4]
 942              		.loc 1 595 0
 943 001a 2E60     		str	r6, [r5]
 944              		.loc 1 597 0
 945 001c E260     		str	r2, [r4, #12]
 946              		.loc 1 598 0
 947 001e 6160     		str	r1, [r4, #4]
 948              		.loc 1 599 0
 949 0020 2060     		str	r0, [r4]
 950              		.loc 1 601 0
 951 0022 2B68     		ldr	r3, [r5]
 952              	.LVL66:
 953 0024 43F00103 		orr	r3, r3, #1
 954 0028 2B60     		str	r3, [r5]
 955              		.loc 1 602 0
 956 002a 2368     		ldr	r3, [r4]
 957 002c 43F00103 		orr	r3, r3, #1
 958 0030 2360     		str	r3, [r4]
 959              		.loc 1 603 0
 960 0032 70BC     		pop	{r4, r5, r6}
 961              		.cfi_restore 6
 962              		.cfi_restore 5
 963              		.cfi_restore 4
 964              		.cfi_def_cfa_offset 0
 965 0034 7047     		bx	lr
 966              		.cfi_endproc
 967              	.LFE333:
 968              		.size	spi_lld_exchange, .-spi_lld_exchange
 969 0036 00BF     		.section	.text.spi_lld_send,"ax",%progbits
ARM GAS  /tmp/ccO1pL7G.s 			page 18


 970              		.align	1
 971              		.p2align 2,,3
 972              		.global	spi_lld_send
 973              		.syntax unified
 974              		.thumb
 975              		.thumb_func
 976              		.fpu fpv4-sp-d16
 977              		.type	spi_lld_send, %function
 978              	spi_lld_send:
 979              	.LFB334:
 980              		.loc 1 618 0
 981              		.cfi_startproc
 982              		@ args = 0, pretend = 0, frame = 0
 983              		@ frame_needed = 0, uses_anonymous_args = 0
 984              		@ link register save eliminated.
 985              	.LVL67:
 986              		.loc 1 623 0
 987 0000 0E4B     		ldr	r3, .L99
 988 0002 9842     		cmp	r0, r3
 989              		.loc 1 618 0
 990 0004 30B4     		push	{r4, r5}
 991              		.cfi_def_cfa_offset 8
 992              		.cfi_offset 4, -8
 993              		.cfi_offset 5, -4
 994              		.loc 1 623 0
 995 0006 0AD0     		beq	.L97
 996              		.loc 1 626 0
 997 0008 0369     		ldr	r3, [r0, #16]
 998              		.loc 1 628 0
 999 000a 8469     		ldr	r4, [r0, #24]
 1000              		.loc 1 626 0
 1001 000c 1B68     		ldr	r3, [r3]
 1002 000e 0C4D     		ldr	r5, .L99+4
 1003 0010 DD60     		str	r5, [r3, #12]
 1004              		.loc 1 627 0
 1005 0012 5960     		str	r1, [r3, #4]
 1006              		.loc 1 628 0
 1007 0014 1C60     		str	r4, [r3]
 1008              		.loc 1 629 0
 1009 0016 1C68     		ldr	r4, [r3]
 1010 0018 44F00104 		orr	r4, r4, #1
 1011 001c 1C60     		str	r4, [r3]
 1012              	.L97:
 1013              		.loc 1 634 0
 1014 001e 4369     		ldr	r3, [r0, #20]
 1015              		.loc 1 636 0
 1016 0020 C069     		ldr	r0, [r0, #28]
 1017              	.LVL68:
 1018              		.loc 1 634 0
 1019 0022 1B68     		ldr	r3, [r3]
 1020              		.loc 1 636 0
 1021 0024 40F48060 		orr	r0, r0, #1024
 1022              		.loc 1 634 0
 1023 0028 DA60     		str	r2, [r3, #12]
 1024              		.loc 1 635 0
 1025 002a 5960     		str	r1, [r3, #4]
 1026              		.loc 1 636 0
ARM GAS  /tmp/ccO1pL7G.s 			page 19


 1027 002c 1860     		str	r0, [r3]
 1028              		.loc 1 638 0
 1029 002e 1A68     		ldr	r2, [r3]
 1030              	.LVL69:
 1031 0030 42F00102 		orr	r2, r2, #1
 1032 0034 1A60     		str	r2, [r3]
 1033              		.loc 1 639 0
 1034 0036 30BC     		pop	{r4, r5}
 1035              		.cfi_restore 5
 1036              		.cfi_restore 4
 1037              		.cfi_def_cfa_offset 0
 1038 0038 7047     		bx	lr
 1039              	.L100:
 1040 003a 00BF     		.align	2
 1041              	.L99:
 1042 003c 00000000 		.word	.LANCHOR0
 1043 0040 00000000 		.word	.LANCHOR3
 1044              		.cfi_endproc
 1045              	.LFE334:
 1046              		.size	spi_lld_send, .-spi_lld_send
 1047              		.section	.text.spi_lld_receive,"ax",%progbits
 1048              		.align	1
 1049              		.p2align 2,,3
 1050              		.global	spi_lld_receive
 1051              		.syntax unified
 1052              		.thumb
 1053              		.thumb_func
 1054              		.fpu fpv4-sp-d16
 1055              		.type	spi_lld_receive, %function
 1056              	spi_lld_receive:
 1057              	.LFB335:
 1058              		.loc 1 654 0
 1059              		.cfi_startproc
 1060              		@ args = 0, pretend = 0, frame = 0
 1061              		@ frame_needed = 0, uses_anonymous_args = 0
 1062              		@ link register save eliminated.
 1063              	.LVL70:
 1064 0000 30B4     		push	{r4, r5}
 1065              		.cfi_def_cfa_offset 8
 1066              		.cfi_offset 4, -8
 1067              		.cfi_offset 5, -4
 1068              		.loc 1 662 0
 1069 0002 D0E90443 		ldrd	r4, r3, [r0, #16]
 1070              		.loc 1 660 0
 1071 0006 8569     		ldr	r5, [r0, #24]
 1072              		.loc 1 658 0
 1073 0008 2468     		ldr	r4, [r4]
 1074              		.loc 1 662 0
 1075 000a 1B68     		ldr	r3, [r3]
 1076              		.loc 1 664 0
 1077 000c C069     		ldr	r0, [r0, #28]
 1078              	.LVL71:
 1079              		.loc 1 658 0
 1080 000e E260     		str	r2, [r4, #12]
 1081              		.loc 1 660 0
 1082 0010 45F48065 		orr	r5, r5, #1024
 1083              		.loc 1 662 0
ARM GAS  /tmp/ccO1pL7G.s 			page 20


 1084 0014 074A     		ldr	r2, .L103
 1085              	.LVL72:
 1086              		.loc 1 659 0
 1087 0016 6160     		str	r1, [r4, #4]
 1088              	.LVL73:
 1089              		.loc 1 660 0
 1090 0018 2560     		str	r5, [r4]
 1091              		.loc 1 662 0
 1092 001a DA60     		str	r2, [r3, #12]
 1093              		.loc 1 663 0
 1094 001c 5960     		str	r1, [r3, #4]
 1095              		.loc 1 664 0
 1096 001e 1860     		str	r0, [r3]
 1097              		.loc 1 666 0
 1098 0020 2268     		ldr	r2, [r4]
 1099 0022 42F00102 		orr	r2, r2, #1
 1100 0026 2260     		str	r2, [r4]
 1101              		.loc 1 667 0
 1102 0028 1A68     		ldr	r2, [r3]
 1103 002a 42F00102 		orr	r2, r2, #1
 1104 002e 1A60     		str	r2, [r3]
 1105              		.loc 1 668 0
 1106 0030 30BC     		pop	{r4, r5}
 1107              		.cfi_restore 5
 1108              		.cfi_restore 4
 1109              		.cfi_def_cfa_offset 0
 1110 0032 7047     		bx	lr
 1111              	.L104:
 1112              		.align	2
 1113              	.L103:
 1114 0034 00000000 		.word	.LANCHOR4
 1115              		.cfi_endproc
 1116              	.LFE335:
 1117              		.size	spi_lld_receive, .-spi_lld_receive
 1118              		.section	.text.spi_lld_abort,"ax",%progbits
 1119              		.align	1
 1120              		.p2align 2,,3
 1121              		.global	spi_lld_abort
 1122              		.syntax unified
 1123              		.thumb
 1124              		.thumb_func
 1125              		.fpu fpv4-sp-d16
 1126              		.type	spi_lld_abort, %function
 1127              	spi_lld_abort:
 1128              	.LFB336:
 1129              		.loc 1 678 0
 1130              		.cfi_startproc
 1131              		@ args = 0, pretend = 0, frame = 0
 1132              		@ frame_needed = 0, uses_anonymous_args = 0
 1133              		@ link register save eliminated.
 1134              	.LVL74:
 1135 0000 30B4     		push	{r4, r5}
 1136              		.cfi_def_cfa_offset 8
 1137              		.cfi_offset 4, -8
 1138              		.cfi_offset 5, -4
 1139              		.loc 1 681 0
 1140 0002 4469     		ldr	r4, [r0, #20]
ARM GAS  /tmp/ccO1pL7G.s 			page 21


 1141 0004 2268     		ldr	r2, [r4]
 1142 0006 1368     		ldr	r3, [r2]
 1143 0008 23F01F03 		bic	r3, r3, #31
 1144 000c 1360     		str	r3, [r2]
 1145              	.L106:
 1146              		.loc 1 681 0 is_stmt 0 discriminator 2
 1147 000e 1368     		ldr	r3, [r2]
 1148 0010 D907     		lsls	r1, r3, #31
 1149 0012 FCD4     		bmi	.L106
 1150              		.loc 1 682 0 is_stmt 1 discriminator 3
 1151 0014 0169     		ldr	r1, [r0, #16]
 1152              		.loc 1 681 0 discriminator 3
 1153 0016 657A     		ldrb	r5, [r4, #9]	@ zero_extendqisi2
 1154 0018 6068     		ldr	r0, [r4, #4]
 1155              	.LVL75:
 1156              		.loc 1 682 0 discriminator 3
 1157 001a 0A68     		ldr	r2, [r1]
 1158              		.loc 1 681 0 discriminator 3
 1159 001c 3D23     		movs	r3, #61
 1160 001e AB40     		lsls	r3, r3, r5
 1161 0020 0360     		str	r3, [r0]
 1162              		.loc 1 682 0 discriminator 3
 1163 0022 1368     		ldr	r3, [r2]
 1164 0024 23F01F03 		bic	r3, r3, #31
 1165 0028 1360     		str	r3, [r2]
 1166              	.L107:
 1167              		.loc 1 682 0 is_stmt 0 discriminator 2
 1168 002a 1368     		ldr	r3, [r2]
 1169 002c DB07     		lsls	r3, r3, #31
 1170 002e FCD4     		bmi	.L107
 1171              		.loc 1 682 0 discriminator 3
 1172 0030 487A     		ldrb	r0, [r1, #9]	@ zero_extendqisi2
 1173 0032 4A68     		ldr	r2, [r1, #4]
 1174 0034 3D23     		movs	r3, #61
 1175 0036 8340     		lsls	r3, r3, r0
 1176 0038 1360     		str	r3, [r2]
 1177              		.loc 1 683 0 is_stmt 1 discriminator 3
 1178 003a 30BC     		pop	{r4, r5}
 1179              		.cfi_restore 5
 1180              		.cfi_restore 4
 1181              		.cfi_def_cfa_offset 0
 1182 003c 7047     		bx	lr
 1183              		.cfi_endproc
 1184              	.LFE336:
 1185              		.size	spi_lld_abort, .-spi_lld_abort
 1186 003e 00BF     		.section	.text.spi_lld_polled_exchange,"ax",%progbits
 1187              		.align	1
 1188              		.p2align 2,,3
 1189              		.global	spi_lld_polled_exchange
 1190              		.syntax unified
 1191              		.thumb
 1192              		.thumb_func
 1193              		.fpu fpv4-sp-d16
 1194              		.type	spi_lld_polled_exchange, %function
 1195              	spi_lld_polled_exchange:
 1196              	.LFB337:
 1197              		.loc 1 698 0
ARM GAS  /tmp/ccO1pL7G.s 			page 22


 1198              		.cfi_startproc
 1199              		@ args = 0, pretend = 0, frame = 0
 1200              		@ frame_needed = 0, uses_anonymous_args = 0
 1201              		@ link register save eliminated.
 1202              	.LVL76:
 1203              		.loc 1 700 0
 1204 0000 C268     		ldr	r2, [r0, #12]
 1205 0002 D160     		str	r1, [r2, #12]
 1206              	.L112:
 1207              		.loc 1 701 0 discriminator 1
 1208 0004 9368     		ldr	r3, [r2, #8]
 1209 0006 DB07     		lsls	r3, r3, #31
 1210 0008 FCD5     		bpl	.L112
 1211              		.loc 1 703 0
 1212 000a D068     		ldr	r0, [r2, #12]
 1213              	.LVL77:
 1214              		.loc 1 704 0
 1215 000c 80B2     		uxth	r0, r0
 1216 000e 7047     		bx	lr
 1217              		.cfi_endproc
 1218              	.LFE337:
 1219              		.size	spi_lld_polled_exchange, .-spi_lld_polled_exchange
 1220              		.global	SPID5
 1221              		.global	SPID4
 1222              		.global	SPID1
 1223              		.section	.bss.SPID1,"aw",%nobits
 1224              		.align	2
 1225              		.set	.LANCHOR0,. + 0
 1226              		.type	SPID1, %object
 1227              		.size	SPID1, 32
 1228              	SPID1:
 1229 0000 00000000 		.space	32
 1229      00000000 
 1229      00000000 
 1229      00000000 
 1229      00000000 
 1230              		.section	.bss.SPID4,"aw",%nobits
 1231              		.align	2
 1232              		.set	.LANCHOR1,. + 0
 1233              		.type	SPID4, %object
 1234              		.size	SPID4, 32
 1235              	SPID4:
 1236 0000 00000000 		.space	32
 1236      00000000 
 1236      00000000 
 1236      00000000 
 1236      00000000 
 1237              		.section	.bss.SPID5,"aw",%nobits
 1238              		.align	2
 1239              		.set	.LANCHOR2,. + 0
 1240              		.type	SPID5, %object
 1241              		.size	SPID5, 32
 1242              	SPID5:
 1243 0000 00000000 		.space	32
 1243      00000000 
 1243      00000000 
 1243      00000000 
ARM GAS  /tmp/ccO1pL7G.s 			page 23


 1243      00000000 
 1244              		.section	.bss.dummyrx,"aw",%nobits
 1245              		.align	1
 1246              		.set	.LANCHOR3,. + 0
 1247              		.type	dummyrx, %object
 1248              		.size	dummyrx, 2
 1249              	dummyrx:
 1250 0000 0000     		.space	2
 1251              		.section	.rodata.dummytx,"a",%progbits
 1252              		.align	1
 1253              		.set	.LANCHOR4,. + 0
 1254              		.type	dummytx, %object
 1255              		.size	dummytx, 2
 1256              	dummytx:
 1257 0000 FFFF     		.short	-1
 1258              		.section	.rodata.spi_lld_serve_rx_interrupt.str1.4,"aMS",%progbits,1
 1259              		.align	2
 1260              	.LC0:
 1261 0000 444D4120 		.ascii	"DMA failure\000"
 1261      6661696C 
 1261      75726500 
 1262              		.text
 1263              	.Letext0:
 1264              		.file 4 "/usr/lib/gcc/arm-none-eabi/7.3.1/include/stddef.h"
 1265              		.file 5 "/usr/arm-none-eabi/include/machine/_default_types.h"
 1266              		.file 6 "/usr/arm-none-eabi/include/sys/_stdint.h"
 1267              		.file 7 "./RM18A-ChibiOS18-Core/chibios/os/common/ports/ARMCMx/compilers/GCC/chtypes.h"
 1268              		.file 8 "./RM18A-ChibiOS18-Core/chibios/os/rt/include/chsystypes.h"
 1269              		.file 9 "./RM18A-ChibiOS18-Core/chibios/os/rt/include/chschd.h"
 1270              		.file 10 "./RM18A-ChibiOS18-Core/chibios/os/rt/include/chtime.h"
 1271              		.file 11 "./RM18A-ChibiOS18-Core/chibios/os/common/ext/ARM/CMSIS/Core/Include/core_cm4.h"
 1272              		.file 12 "./RM18A-ChibiOS18-Core/chibios/os/common/ext/ST/STM32F4xx/system_stm32f4xx.h"
 1273              		.file 13 "./RM18A-ChibiOS18-Core/chibios/os/common/ext/ST/STM32F4xx/stm32f427xx.h"
 1274              		.file 14 "./RM18A-ChibiOS18-Core/chibios/os/common/ports/ARMCMx/chcore.h"
 1275              		.file 15 "./RM18A-ChibiOS18-Core/chibios/os/common/ports/ARMCMx/chcore_v7m.h"
 1276              		.file 16 "./RM18A-ChibiOS18-Core/chibios/os/hal/ports/STM32/LLD/TIMv1/stm32_tim.h"
 1277              		.file 17 "./RM18A-ChibiOS18-Core/chibios/os/rt/include/chtm.h"
 1278              		.file 18 "./RM18A-ChibiOS18-Core/chibios/os/rt/include/chsem.h"
 1279              		.file 19 "./RM18A-ChibiOS18-Core/chibios/os/rt/include/chmtx.h"
 1280              		.file 20 "./RM18A-ChibiOS18-Core/chibios/os/rt/include/chsys.h"
 1281              		.file 21 "./RM18A-ChibiOS18-Core/chibios/os/rt/include/chregistry.h"
 1282              		.file 22 "./RM18A-ChibiOS18-Core/chibios/os/rt/include/chevents.h"
 1283              		.file 23 "./RM18A-ChibiOS18-Core/chibios/os/oslib/include/chmemcore.h"
 1284              		.file 24 "./RM18A-ChibiOS18-Core/chibios/os/oslib/include/chmempools.h"
 1285              		.file 25 "./RM18A-ChibiOS18-Core/chibios/os/oslib/include/chfactory.h"
 1286              		.file 26 "./RM18A-ChibiOS18-Core/chibios/os/hal/ports/STM32/LLD/DMAv2/stm32_dma.h"
 1287              		.file 27 "./RM18A-ChibiOS18-Core/chibios/os/hal/include/hal_queues.h"
 1288              		.file 28 "./RM18A-ChibiOS18-Core/chibios/os/hal/include/hal_pal.h"
 1289              		.file 29 "./RM18A-ChibiOS18-Core/chibios/os/hal/ports/STM32/LLD/GPIOv2/hal_pal_lld.h"
 1290              		.file 30 "./RM18A-ChibiOS18-Core/chibios/os/hal/include/hal_adc.h"
 1291              		.file 31 "./RM18A-ChibiOS18-Core/chibios/os/hal/ports/STM32/LLD/ADCv2/hal_adc_lld.h"
 1292              		.file 32 "./RM18A-ChibiOS18-Core/chibios/os/hal/include/hal_can.h"
 1293              		.file 33 "./RM18A-ChibiOS18-Core/chibios/os/hal/ports/STM32/LLD/CANv1/hal_can_lld.h"
 1294              		.file 34 "./RM18A-ChibiOS18-Core/chibios/os/hal/include/hal_i2c.h"
 1295              		.file 35 "./RM18A-ChibiOS18-Core/chibios/os/hal/lib/fallback/I2C/hal_i2c_lld.h"
 1296              		.file 36 "./RM18A-ChibiOS18-Core/chibios/os/hal/include/hal_icu.h"
 1297              		.file 37 "./RM18A-ChibiOS18-Core/chibios/os/hal/ports/STM32/LLD/TIMv1/hal_icu_lld.h"
ARM GAS  /tmp/ccO1pL7G.s 			page 24


 1298              		.file 38 "./RM18A-ChibiOS18-Core/chibios/os/hal/include/hal_pwm.h"
 1299              		.file 39 "./RM18A-ChibiOS18-Core/chibios/os/hal/ports/STM32/LLD/TIMv1/hal_pwm_lld.h"
 1300              		.file 40 "./RM18A-ChibiOS18-Core/chibios/os/hal/include/hal_serial.h"
 1301              		.file 41 "./RM18A-ChibiOS18-Core/chibios/os/hal/ports/STM32/LLD/USARTv1/hal_serial_lld.h"
 1302              		.file 42 "./RM18A-ChibiOS18-Core/chibios/os/hal/include/hal_spi.h"
 1303              		.file 43 "./RM18A-ChibiOS18-Core/chibios/os/hal/ports/STM32/LLD/SPIv1/hal_spi_lld.h"
 1304              		.file 44 "./RM18A-ChibiOS18-Core/chibios/os/hal/include/hal_uart.h"
 1305              		.file 45 "./RM18A-ChibiOS18-Core/chibios/os/hal/ports/STM32/LLD/USARTv1/hal_uart_lld.h"
 1306              		.file 46 "./RM18A-ChibiOS18-Core/chibios/os/hal/include/hal_usb.h"
 1307              		.file 47 "./RM18A-ChibiOS18-Core/chibios/os/hal/ports/STM32/LLD/OTGv1/hal_usb_lld.h"
 1308              		.file 48 "./RM18A-ChibiOS18-Core/chibios/os/hal/ports/STM32/LLD/OTGv1/stm32_otg.h"
 1309              		.file 49 "./RM18A-ChibiOS18-Core/chibios/os/rt/include/chthreads.h"
 1310              		.file 50 "./RM18A-ChibiOS18-Core/chibios/os/rt/include/ch.h"