ARM GAS  /tmp/ccT9sN73.s 			page 1


   1              		.cpu cortex-m4
   2              		.eabi_attribute 27, 1
   3              		.eabi_attribute 28, 1
   4              		.eabi_attribute 20, 1
   5              		.eabi_attribute 21, 1
   6              		.eabi_attribute 23, 3
   7              		.eabi_attribute 24, 1
   8              		.eabi_attribute 25, 1
   9              		.eabi_attribute 26, 1
  10              		.eabi_attribute 30, 2
  11              		.eabi_attribute 34, 1
  12              		.eabi_attribute 18, 4
  13              		.file	"hal_spi.c"
  14              		.text
  15              	.Ltext0:
  16              		.cfi_sections	.debug_frame
  17              		.section	.text.spiInit,"ax",%progbits
  18              		.align	1
  19              		.p2align 2,,3
  20              		.global	spiInit
  21              		.syntax unified
  22              		.thumb
  23              		.thumb_func
  24              		.fpu fpv4-sp-d16
  25              		.type	spiInit, %function
  26              	spiInit:
  27              	.LFB327:
  28              		.file 1 "./RM18A-ChibiOS18-Core/chibios/os/hal/src/hal_spi.c"
  29              		.loc 1 56 0
  30              		.cfi_startproc
  31              		@ args = 0, pretend = 0, frame = 0
  32              		@ frame_needed = 0, uses_anonymous_args = 0
  33              		@ link register save eliminated.
  34              		.loc 1 58 0
  35 0000 FFF7FEBF 		b	spi_lld_init
  36              	.LVL0:
  37              		.cfi_endproc
  38              	.LFE327:
  39              		.size	spiInit, .-spiInit
  40              		.section	.text.spiObjectInit,"ax",%progbits
  41              		.align	1
  42              		.p2align 2,,3
  43              		.global	spiObjectInit
  44              		.syntax unified
  45              		.thumb
  46              		.thumb_func
  47              		.fpu fpv4-sp-d16
  48              		.type	spiObjectInit, %function
  49              	spiObjectInit:
  50              	.LFB328:
  51              		.loc 1 68 0
  52              		.cfi_startproc
  53              		@ args = 0, pretend = 0, frame = 0
  54              		@ frame_needed = 0, uses_anonymous_args = 0
  55              		@ link register save eliminated.
  56              	.LVL1:
  57              		.loc 1 70 0
ARM GAS  /tmp/ccT9sN73.s 			page 2


  58 0000 0122     		movs	r2, #1
  59              		.loc 1 71 0
  60 0002 0023     		movs	r3, #0
  61              		.loc 1 70 0
  62 0004 0270     		strb	r2, [r0]
  63              		.loc 1 73 0
  64 0006 C0E90133 		strd	r3, r3, [r0, #4]
  65              		.loc 1 81 0
  66 000a 7047     		bx	lr
  67              		.cfi_endproc
  68              	.LFE328:
  69              		.size	spiObjectInit, .-spiObjectInit
  70              		.section	.text.spiStart,"ax",%progbits
  71              		.align	1
  72              		.p2align 2,,3
  73              		.global	spiStart
  74              		.syntax unified
  75              		.thumb
  76              		.thumb_func
  77              		.fpu fpv4-sp-d16
  78              		.type	spiStart, %function
  79              	spiStart:
  80              	.LFB329:
  81              		.loc 1 91 0
  82              		.cfi_startproc
  83              		@ args = 0, pretend = 0, frame = 0
  84              		@ frame_needed = 0, uses_anonymous_args = 0
  85              	.LVL2:
  86 0000 10B5     		push	{r4, lr}
  87              		.cfi_def_cfa_offset 8
  88              		.cfi_offset 4, -8
  89              		.cfi_offset 14, -4
  90              	.LBB209:
  91              	.LBB210:
  92              	.LBB211:
  93              	.LBB212:
  94              	.LBB213:
  95              		.file 2 "./RM18A-ChibiOS18-Core/chibios/os/common/ext/ARM/CMSIS/Core/Include/cmsis_gcc.h"
  96              		.loc 2 493 0
  97 0002 2023     		movs	r3, #32
  98              	.LBE213:
  99              	.LBE212:
 100              	.LBE211:
 101              	.LBE210:
 102              	.LBE209:
 103              		.loc 1 91 0
 104 0004 0446     		mov	r4, r0
 105              	.LBB218:
 106              	.LBB217:
 107              	.LBB216:
 108              	.LBB215:
 109              	.LBB214:
 110              		.loc 2 493 0
 111              		.syntax unified
 112              	@ 493 "./RM18A-ChibiOS18-Core/chibios/os/common/ext/ARM/CMSIS/Core/Include/cmsis_gcc.h" 1
 113 0006 83F31188 		MSR basepri, r3
 114              	@ 0 "" 2
ARM GAS  /tmp/ccT9sN73.s 			page 3


 115              	.LVL3:
 116              		.thumb
 117              		.syntax unified
 118              	.LBE214:
 119              	.LBE215:
 120              	.LBE216:
 121              	.LBE217:
 122              	.LBE218:
 123              		.loc 1 98 0
 124 000a 4160     		str	r1, [r0, #4]
 125              		.loc 1 99 0
 126 000c FFF7FEFF 		bl	spi_lld_start
 127              	.LVL4:
 128              		.loc 1 100 0
 129 0010 0223     		movs	r3, #2
 130 0012 2370     		strb	r3, [r4]
 131              	.LVL5:
 132              	.LBB219:
 133              	.LBB220:
 134              	.LBB221:
 135              	.LBB222:
 136              	.LBB223:
 137              	.LBB224:
 138              		.loc 2 493 0
 139 0014 0023     		movs	r3, #0
 140              		.syntax unified
 141              	@ 493 "./RM18A-ChibiOS18-Core/chibios/os/common/ext/ARM/CMSIS/Core/Include/cmsis_gcc.h" 1
 142 0016 83F31188 		MSR basepri, r3
 143              	@ 0 "" 2
 144              	.LVL6:
 145              		.thumb
 146              		.syntax unified
 147              	.LBE224:
 148              	.LBE223:
 149              	.LBE222:
 150              	.LBE221:
 151              	.LBE220:
 152              	.LBE219:
 153              		.loc 1 102 0
 154 001a 10BD     		pop	{r4, pc}
 155              		.cfi_endproc
 156              	.LFE329:
 157              		.size	spiStart, .-spiStart
 158              		.section	.text.spiStop,"ax",%progbits
 159              		.align	1
 160              		.p2align 2,,3
 161              		.global	spiStop
 162              		.syntax unified
 163              		.thumb
 164              		.thumb_func
 165              		.fpu fpv4-sp-d16
 166              		.type	spiStop, %function
 167              	spiStop:
 168              	.LFB330:
 169              		.loc 1 111 0
 170              		.cfi_startproc
 171              		@ args = 0, pretend = 0, frame = 0
ARM GAS  /tmp/ccT9sN73.s 			page 4


 172              		@ frame_needed = 0, uses_anonymous_args = 0
 173              	.LVL7:
 174 0000 10B5     		push	{r4, lr}
 175              		.cfi_def_cfa_offset 8
 176              		.cfi_offset 4, -8
 177              		.cfi_offset 14, -4
 178              	.LBB225:
 179              	.LBB226:
 180              	.LBB227:
 181              	.LBB228:
 182              	.LBB229:
 183              		.loc 2 493 0
 184 0002 2023     		movs	r3, #32
 185              	.LBE229:
 186              	.LBE228:
 187              	.LBE227:
 188              	.LBE226:
 189              	.LBE225:
 190              		.loc 1 111 0
 191 0004 0446     		mov	r4, r0
 192              	.LBB234:
 193              	.LBB233:
 194              	.LBB232:
 195              	.LBB231:
 196              	.LBB230:
 197              		.loc 2 493 0
 198              		.syntax unified
 199              	@ 493 "./RM18A-ChibiOS18-Core/chibios/os/common/ext/ARM/CMSIS/Core/Include/cmsis_gcc.h" 1
 200 0006 83F31188 		MSR basepri, r3
 201              	@ 0 "" 2
 202              	.LVL8:
 203              		.thumb
 204              		.syntax unified
 205              	.LBE230:
 206              	.LBE231:
 207              	.LBE232:
 208              	.LBE233:
 209              	.LBE234:
 210              		.loc 1 120 0
 211 000a FFF7FEFF 		bl	spi_lld_stop
 212              	.LVL9:
 213              		.loc 1 122 0
 214 000e 0122     		movs	r2, #1
 215              		.loc 1 121 0
 216 0010 0023     		movs	r3, #0
 217              		.loc 1 122 0
 218 0012 2270     		strb	r2, [r4]
 219              	.LVL10:
 220              		.loc 1 121 0
 221 0014 6360     		str	r3, [r4, #4]
 222              	.LBB235:
 223              	.LBB236:
 224              	.LBB237:
 225              	.LBB238:
 226              	.LBB239:
 227              	.LBB240:
 228              		.loc 2 493 0
ARM GAS  /tmp/ccT9sN73.s 			page 5


 229              		.syntax unified
 230              	@ 493 "./RM18A-ChibiOS18-Core/chibios/os/common/ext/ARM/CMSIS/Core/Include/cmsis_gcc.h" 1
 231 0016 83F31188 		MSR basepri, r3
 232              	@ 0 "" 2
 233              	.LVL11:
 234              		.thumb
 235              		.syntax unified
 236              	.LBE240:
 237              	.LBE239:
 238              	.LBE238:
 239              	.LBE237:
 240              	.LBE236:
 241              	.LBE235:
 242              		.loc 1 125 0
 243 001a 10BD     		pop	{r4, pc}
 244              		.cfi_endproc
 245              	.LFE330:
 246              		.size	spiStop, .-spiStop
 247              		.section	.text.spiSelect,"ax",%progbits
 248              		.align	1
 249              		.p2align 2,,3
 250              		.global	spiSelect
 251              		.syntax unified
 252              		.thumb
 253              		.thumb_func
 254              		.fpu fpv4-sp-d16
 255              		.type	spiSelect, %function
 256              	spiSelect:
 257              	.LFB331:
 258              		.loc 1 134 0
 259              		.cfi_startproc
 260              		@ args = 0, pretend = 0, frame = 0
 261              		@ frame_needed = 0, uses_anonymous_args = 0
 262              		@ link register save eliminated.
 263              	.LVL12:
 264              	.LBB241:
 265              	.LBB242:
 266              	.LBB243:
 267              	.LBB244:
 268              	.LBB245:
 269              		.loc 2 493 0
 270 0000 2023     		movs	r3, #32
 271              		.syntax unified
 272              	@ 493 "./RM18A-ChibiOS18-Core/chibios/os/common/ext/ARM/CMSIS/Core/Include/cmsis_gcc.h" 1
 273 0002 83F31188 		MSR basepri, r3
 274              	@ 0 "" 2
 275              	.LVL13:
 276              		.thumb
 277              		.syntax unified
 278              	.LBE245:
 279              	.LBE244:
 280              	.LBE243:
 281              	.LBE242:
 282              	.LBE241:
 283              		.loc 1 140 0
 284 0006 4368     		ldr	r3, [r0, #4]
 285 0008 9A68     		ldr	r2, [r3, #8]
ARM GAS  /tmp/ccT9sN73.s 			page 6


 286 000a 0123     		movs	r3, #1
 287 000c 02F00F01 		and	r1, r2, #15
 288 0010 8B40     		lsls	r3, r3, r1
 289 0012 22F00F02 		bic	r2, r2, #15
 290 0016 9BB2     		uxth	r3, r3
 291 0018 5383     		strh	r3, [r2, #26]	@ movhi
 292              	.LVL14:
 293              	.LBB246:
 294              	.LBB247:
 295              	.LBB248:
 296              	.LBB249:
 297              	.LBB250:
 298              	.LBB251:
 299              		.loc 2 493 0
 300 001a 0023     		movs	r3, #0
 301              		.syntax unified
 302              	@ 493 "./RM18A-ChibiOS18-Core/chibios/os/common/ext/ARM/CMSIS/Core/Include/cmsis_gcc.h" 1
 303 001c 83F31188 		MSR basepri, r3
 304              	@ 0 "" 2
 305              	.LVL15:
 306              		.thumb
 307              		.syntax unified
 308              	.LBE251:
 309              	.LBE250:
 310              	.LBE249:
 311              	.LBE248:
 312              	.LBE247:
 313              	.LBE246:
 314              		.loc 1 142 0
 315 0020 7047     		bx	lr
 316              		.cfi_endproc
 317              	.LFE331:
 318              		.size	spiSelect, .-spiSelect
 319 0022 00BF     		.section	.text.spiUnselect,"ax",%progbits
 320              		.align	1
 321              		.p2align 2,,3
 322              		.global	spiUnselect
 323              		.syntax unified
 324              		.thumb
 325              		.thumb_func
 326              		.fpu fpv4-sp-d16
 327              		.type	spiUnselect, %function
 328              	spiUnselect:
 329              	.LFB332:
 330              		.loc 1 152 0
 331              		.cfi_startproc
 332              		@ args = 0, pretend = 0, frame = 0
 333              		@ frame_needed = 0, uses_anonymous_args = 0
 334              		@ link register save eliminated.
 335              	.LVL16:
 336              	.LBB252:
 337              	.LBB253:
 338              	.LBB254:
 339              	.LBB255:
 340              	.LBB256:
 341              		.loc 2 493 0
 342 0000 2023     		movs	r3, #32
ARM GAS  /tmp/ccT9sN73.s 			page 7


 343              		.syntax unified
 344              	@ 493 "./RM18A-ChibiOS18-Core/chibios/os/common/ext/ARM/CMSIS/Core/Include/cmsis_gcc.h" 1
 345 0002 83F31188 		MSR basepri, r3
 346              	@ 0 "" 2
 347              	.LVL17:
 348              		.thumb
 349              		.syntax unified
 350              	.LBE256:
 351              	.LBE255:
 352              	.LBE254:
 353              	.LBE253:
 354              	.LBE252:
 355              		.loc 1 158 0
 356 0006 4368     		ldr	r3, [r0, #4]
 357 0008 9A68     		ldr	r2, [r3, #8]
 358 000a 0123     		movs	r3, #1
 359 000c 02F00F01 		and	r1, r2, #15
 360 0010 8B40     		lsls	r3, r3, r1
 361 0012 22F00F02 		bic	r2, r2, #15
 362 0016 9BB2     		uxth	r3, r3
 363 0018 1383     		strh	r3, [r2, #24]	@ movhi
 364              	.LVL18:
 365              	.LBB257:
 366              	.LBB258:
 367              	.LBB259:
 368              	.LBB260:
 369              	.LBB261:
 370              	.LBB262:
 371              		.loc 2 493 0
 372 001a 0023     		movs	r3, #0
 373              		.syntax unified
 374              	@ 493 "./RM18A-ChibiOS18-Core/chibios/os/common/ext/ARM/CMSIS/Core/Include/cmsis_gcc.h" 1
 375 001c 83F31188 		MSR basepri, r3
 376              	@ 0 "" 2
 377              	.LVL19:
 378              		.thumb
 379              		.syntax unified
 380              	.LBE262:
 381              	.LBE261:
 382              	.LBE260:
 383              	.LBE259:
 384              	.LBE258:
 385              	.LBE257:
 386              		.loc 1 160 0
 387 0020 7047     		bx	lr
 388              		.cfi_endproc
 389              	.LFE332:
 390              		.size	spiUnselect, .-spiUnselect
 391 0022 00BF     		.section	.text.spiStartIgnore,"ax",%progbits
 392              		.align	1
 393              		.p2align 2,,3
 394              		.global	spiStartIgnore
 395              		.syntax unified
 396              		.thumb
 397              		.thumb_func
 398              		.fpu fpv4-sp-d16
 399              		.type	spiStartIgnore, %function
ARM GAS  /tmp/ccT9sN73.s 			page 8


 400              	spiStartIgnore:
 401              	.LFB333:
 402              		.loc 1 175 0
 403              		.cfi_startproc
 404              		@ args = 0, pretend = 0, frame = 0
 405              		@ frame_needed = 0, uses_anonymous_args = 0
 406              	.LVL20:
 407 0000 08B5     		push	{r3, lr}
 408              		.cfi_def_cfa_offset 8
 409              		.cfi_offset 3, -8
 410              		.cfi_offset 14, -4
 411              	.LBB263:
 412              	.LBB264:
 413              	.LBB265:
 414              	.LBB266:
 415              	.LBB267:
 416              		.loc 2 493 0
 417 0002 2022     		movs	r2, #32
 418              		.syntax unified
 419              	@ 493 "./RM18A-ChibiOS18-Core/chibios/os/common/ext/ARM/CMSIS/Core/Include/cmsis_gcc.h" 1
 420 0004 82F31188 		MSR basepri, r2
 421              	@ 0 "" 2
 422              	.LVL21:
 423              		.thumb
 424              		.syntax unified
 425              	.LBE267:
 426              	.LBE266:
 427              	.LBE265:
 428              	.LBE264:
 429              	.LBE263:
 430              		.loc 1 181 0
 431 0008 0322     		movs	r2, #3
 432 000a 0270     		strb	r2, [r0]
 433 000c FFF7FEFF 		bl	spi_lld_ignore
 434              	.LVL22:
 435              	.LBB268:
 436              	.LBB269:
 437              	.LBB270:
 438              	.LBB271:
 439              	.LBB272:
 440              	.LBB273:
 441              		.loc 2 493 0
 442 0010 0023     		movs	r3, #0
 443              		.syntax unified
 444              	@ 493 "./RM18A-ChibiOS18-Core/chibios/os/common/ext/ARM/CMSIS/Core/Include/cmsis_gcc.h" 1
 445 0012 83F31188 		MSR basepri, r3
 446              	@ 0 "" 2
 447              	.LVL23:
 448              		.thumb
 449              		.syntax unified
 450              	.LBE273:
 451              	.LBE272:
 452              	.LBE271:
 453              	.LBE270:
 454              	.LBE269:
 455              	.LBE268:
 456              		.loc 1 183 0
ARM GAS  /tmp/ccT9sN73.s 			page 9


 457 0016 08BD     		pop	{r3, pc}
 458              		.cfi_endproc
 459              	.LFE333:
 460              		.size	spiStartIgnore, .-spiStartIgnore
 461              		.section	.text.spiStartExchange,"ax",%progbits
 462              		.align	1
 463              		.p2align 2,,3
 464              		.global	spiStartExchange
 465              		.syntax unified
 466              		.thumb
 467              		.thumb_func
 468              		.fpu fpv4-sp-d16
 469              		.type	spiStartExchange, %function
 470              	spiStartExchange:
 471              	.LFB334:
 472              		.loc 1 203 0
 473              		.cfi_startproc
 474              		@ args = 0, pretend = 0, frame = 0
 475              		@ frame_needed = 0, uses_anonymous_args = 0
 476              	.LVL24:
 477 0000 38B5     		push	{r3, r4, r5, lr}
 478              		.cfi_def_cfa_offset 16
 479              		.cfi_offset 3, -16
 480              		.cfi_offset 4, -12
 481              		.cfi_offset 5, -8
 482              		.cfi_offset 14, -4
 483              	.LBB274:
 484              	.LBB275:
 485              	.LBB276:
 486              	.LBB277:
 487              	.LBB278:
 488              		.loc 2 493 0
 489 0002 2025     		movs	r5, #32
 490              		.syntax unified
 491              	@ 493 "./RM18A-ChibiOS18-Core/chibios/os/common/ext/ARM/CMSIS/Core/Include/cmsis_gcc.h" 1
 492 0004 85F31188 		MSR basepri, r5
 493              	@ 0 "" 2
 494              	.LVL25:
 495              		.thumb
 496              		.syntax unified
 497              	.LBE278:
 498              	.LBE277:
 499              	.LBE276:
 500              	.LBE275:
 501              	.LBE274:
 502              		.loc 1 210 0
 503 0008 0325     		movs	r5, #3
 504 000a 0570     		strb	r5, [r0]
 505 000c FFF7FEFF 		bl	spi_lld_exchange
 506              	.LVL26:
 507              	.LBB279:
 508              	.LBB280:
 509              	.LBB281:
 510              	.LBB282:
 511              	.LBB283:
 512              	.LBB284:
 513              		.loc 2 493 0
ARM GAS  /tmp/ccT9sN73.s 			page 10


 514 0010 0023     		movs	r3, #0
 515              		.syntax unified
 516              	@ 493 "./RM18A-ChibiOS18-Core/chibios/os/common/ext/ARM/CMSIS/Core/Include/cmsis_gcc.h" 1
 517 0012 83F31188 		MSR basepri, r3
 518              	@ 0 "" 2
 519              	.LVL27:
 520              		.thumb
 521              		.syntax unified
 522              	.LBE284:
 523              	.LBE283:
 524              	.LBE282:
 525              	.LBE281:
 526              	.LBE280:
 527              	.LBE279:
 528              		.loc 1 212 0
 529 0016 38BD     		pop	{r3, r4, r5, pc}
 530              		.cfi_endproc
 531              	.LFE334:
 532              		.size	spiStartExchange, .-spiStartExchange
 533              		.section	.text.spiStartSend,"ax",%progbits
 534              		.align	1
 535              		.p2align 2,,3
 536              		.global	spiStartSend
 537              		.syntax unified
 538              		.thumb
 539              		.thumb_func
 540              		.fpu fpv4-sp-d16
 541              		.type	spiStartSend, %function
 542              	spiStartSend:
 543              	.LFB335:
 544              		.loc 1 229 0
 545              		.cfi_startproc
 546              		@ args = 0, pretend = 0, frame = 0
 547              		@ frame_needed = 0, uses_anonymous_args = 0
 548              	.LVL28:
 549 0000 10B5     		push	{r4, lr}
 550              		.cfi_def_cfa_offset 8
 551              		.cfi_offset 4, -8
 552              		.cfi_offset 14, -4
 553              	.LBB285:
 554              	.LBB286:
 555              	.LBB287:
 556              	.LBB288:
 557              	.LBB289:
 558              		.loc 2 493 0
 559 0002 2024     		movs	r4, #32
 560              		.syntax unified
 561              	@ 493 "./RM18A-ChibiOS18-Core/chibios/os/common/ext/ARM/CMSIS/Core/Include/cmsis_gcc.h" 1
 562 0004 84F31188 		MSR basepri, r4
 563              	@ 0 "" 2
 564              	.LVL29:
 565              		.thumb
 566              		.syntax unified
 567              	.LBE289:
 568              	.LBE288:
 569              	.LBE287:
 570              	.LBE286:
ARM GAS  /tmp/ccT9sN73.s 			page 11


 571              	.LBE285:
 572              		.loc 1 235 0
 573 0008 0324     		movs	r4, #3
 574 000a 0470     		strb	r4, [r0]
 575 000c FFF7FEFF 		bl	spi_lld_send
 576              	.LVL30:
 577              	.LBB290:
 578              	.LBB291:
 579              	.LBB292:
 580              	.LBB293:
 581              	.LBB294:
 582              	.LBB295:
 583              		.loc 2 493 0
 584 0010 0023     		movs	r3, #0
 585              		.syntax unified
 586              	@ 493 "./RM18A-ChibiOS18-Core/chibios/os/common/ext/ARM/CMSIS/Core/Include/cmsis_gcc.h" 1
 587 0012 83F31188 		MSR basepri, r3
 588              	@ 0 "" 2
 589              	.LVL31:
 590              		.thumb
 591              		.syntax unified
 592              	.LBE295:
 593              	.LBE294:
 594              	.LBE293:
 595              	.LBE292:
 596              	.LBE291:
 597              	.LBE290:
 598              		.loc 1 237 0
 599 0016 10BD     		pop	{r4, pc}
 600              		.cfi_endproc
 601              	.LFE335:
 602              		.size	spiStartSend, .-spiStartSend
 603              		.section	.text.spiStartReceive,"ax",%progbits
 604              		.align	1
 605              		.p2align 2,,3
 606              		.global	spiStartReceive
 607              		.syntax unified
 608              		.thumb
 609              		.thumb_func
 610              		.fpu fpv4-sp-d16
 611              		.type	spiStartReceive, %function
 612              	spiStartReceive:
 613              	.LFB336:
 614              		.loc 1 254 0
 615              		.cfi_startproc
 616              		@ args = 0, pretend = 0, frame = 0
 617              		@ frame_needed = 0, uses_anonymous_args = 0
 618              	.LVL32:
 619 0000 10B5     		push	{r4, lr}
 620              		.cfi_def_cfa_offset 8
 621              		.cfi_offset 4, -8
 622              		.cfi_offset 14, -4
 623              	.LBB296:
 624              	.LBB297:
 625              	.LBB298:
 626              	.LBB299:
 627              	.LBB300:
ARM GAS  /tmp/ccT9sN73.s 			page 12


 628              		.loc 2 493 0
 629 0002 2024     		movs	r4, #32
 630              		.syntax unified
 631              	@ 493 "./RM18A-ChibiOS18-Core/chibios/os/common/ext/ARM/CMSIS/Core/Include/cmsis_gcc.h" 1
 632 0004 84F31188 		MSR basepri, r4
 633              	@ 0 "" 2
 634              	.LVL33:
 635              		.thumb
 636              		.syntax unified
 637              	.LBE300:
 638              	.LBE299:
 639              	.LBE298:
 640              	.LBE297:
 641              	.LBE296:
 642              		.loc 1 260 0
 643 0008 0324     		movs	r4, #3
 644 000a 0470     		strb	r4, [r0]
 645 000c FFF7FEFF 		bl	spi_lld_receive
 646              	.LVL34:
 647              	.LBB301:
 648              	.LBB302:
 649              	.LBB303:
 650              	.LBB304:
 651              	.LBB305:
 652              	.LBB306:
 653              		.loc 2 493 0
 654 0010 0023     		movs	r3, #0
 655              		.syntax unified
 656              	@ 493 "./RM18A-ChibiOS18-Core/chibios/os/common/ext/ARM/CMSIS/Core/Include/cmsis_gcc.h" 1
 657 0012 83F31188 		MSR basepri, r3
 658              	@ 0 "" 2
 659              	.LVL35:
 660              		.thumb
 661              		.syntax unified
 662              	.LBE306:
 663              	.LBE305:
 664              	.LBE304:
 665              	.LBE303:
 666              	.LBE302:
 667              	.LBE301:
 668              		.loc 1 262 0
 669 0016 10BD     		pop	{r4, pc}
 670              		.cfi_endproc
 671              	.LFE336:
 672              		.size	spiStartReceive, .-spiStartReceive
 673              		.section	.text.spiAbortI,"ax",%progbits
 674              		.align	1
 675              		.p2align 2,,3
 676              		.global	spiAbortI
 677              		.syntax unified
 678              		.thumb
 679              		.thumb_func
 680              		.fpu fpv4-sp-d16
 681              		.type	spiAbortI, %function
 682              	spiAbortI:
 683              	.LFB337:
 684              		.loc 1 272 0
ARM GAS  /tmp/ccT9sN73.s 			page 13


 685              		.cfi_startproc
 686              		@ args = 0, pretend = 0, frame = 0
 687              		@ frame_needed = 0, uses_anonymous_args = 0
 688              	.LVL36:
 689 0000 10B5     		push	{r4, lr}
 690              		.cfi_def_cfa_offset 8
 691              		.cfi_offset 4, -8
 692              		.cfi_offset 14, -4
 693              		.loc 1 272 0
 694 0002 0446     		mov	r4, r0
 695              		.loc 1 280 0
 696 0004 FFF7FEFF 		bl	spi_lld_abort
 697              	.LVL37:
 698              		.loc 1 281 0
 699 0008 2046     		mov	r0, r4
 700 000a 0223     		movs	r3, #2
 701 000c 00F8083B 		strb	r3, [r0], #8
 702              	.LVL38:
 703              	.LBB307:
 704              	.LBB308:
 705              		.file 3 "./RM18A-ChibiOS18-Core/chibios/os/hal/osal/rt/osal.h"
 706              		.loc 3 775 0
 707 0010 0021     		movs	r1, #0
 708              	.LBE308:
 709              	.LBE307:
 710              		.loc 1 285 0
 711 0012 BDE81040 		pop	{r4, lr}
 712              		.cfi_restore 14
 713              		.cfi_restore 4
 714              		.cfi_def_cfa_offset 0
 715              	.LVL39:
 716              	.LBB310:
 717              	.LBB309:
 718              		.loc 3 775 0
 719 0016 FFF7FEBF 		b	chThdResumeI
 720              	.LVL40:
 721              	.LBE309:
 722              	.LBE310:
 723              		.cfi_endproc
 724              	.LFE337:
 725              		.size	spiAbortI, .-spiAbortI
 726 001a 00BF     		.section	.text.spiAbort,"ax",%progbits
 727              		.align	1
 728              		.p2align 2,,3
 729              		.global	spiAbort
 730              		.syntax unified
 731              		.thumb
 732              		.thumb_func
 733              		.fpu fpv4-sp-d16
 734              		.type	spiAbort, %function
 735              	spiAbort:
 736              	.LFB338:
 737              		.loc 1 294 0
 738              		.cfi_startproc
 739              		@ args = 0, pretend = 0, frame = 0
 740              		@ frame_needed = 0, uses_anonymous_args = 0
 741              	.LVL41:
ARM GAS  /tmp/ccT9sN73.s 			page 14


 742              	.LBB311:
 743              	.LBB312:
 744              	.LBB313:
 745              	.LBB314:
 746              	.LBB315:
 747              		.loc 2 493 0
 748 0000 2022     		movs	r2, #32
 749              		.syntax unified
 750              	@ 493 "./RM18A-ChibiOS18-Core/chibios/os/common/ext/ARM/CMSIS/Core/Include/cmsis_gcc.h" 1
 751 0002 82F31188 		MSR basepri, r2
 752              	@ 0 "" 2
 753              	.LVL42:
 754              		.thumb
 755              		.syntax unified
 756              	.LBE315:
 757              	.LBE314:
 758              	.LBE313:
 759              	.LBE312:
 760              	.LBE311:
 761              		.loc 1 299 0
 762 0006 0278     		ldrb	r2, [r0]	@ zero_extendqisi2
 763 0008 032A     		cmp	r2, #3
 764 000a 03D0     		beq	.L26
 765              	.LVL43:
 766              	.LBB316:
 767              	.LBB317:
 768              	.LBB318:
 769              	.LBB319:
 770              	.LBB320:
 771              	.LBB321:
 772              		.loc 2 493 0
 773 000c 0023     		movs	r3, #0
 774              		.syntax unified
 775              	@ 493 "./RM18A-ChibiOS18-Core/chibios/os/common/ext/ARM/CMSIS/Core/Include/cmsis_gcc.h" 1
 776 000e 83F31188 		MSR basepri, r3
 777              	@ 0 "" 2
 778              	.LVL44:
 779              		.thumb
 780              		.syntax unified
 781 0012 7047     		bx	lr
 782              	.L26:
 783              	.LBE321:
 784              	.LBE320:
 785              	.LBE319:
 786              	.LBE318:
 787              	.LBE317:
 788              	.LBE316:
 789              		.loc 1 294 0
 790 0014 10B5     		push	{r4, lr}
 791              		.cfi_def_cfa_offset 8
 792              		.cfi_offset 4, -8
 793              		.cfi_offset 14, -4
 794 0016 0446     		mov	r4, r0
 795              	.LVL45:
 796              	.LBB327:
 797              	.LBB328:
 798              		.loc 1 280 0
ARM GAS  /tmp/ccT9sN73.s 			page 15


 799 0018 FFF7FEFF 		bl	spi_lld_abort
 800              	.LVL46:
 801              		.loc 1 281 0
 802 001c 2046     		mov	r0, r4
 803 001e 0223     		movs	r3, #2
 804 0020 00F8083B 		strb	r3, [r0], #8
 805              	.LVL47:
 806              	.LBB329:
 807              	.LBB330:
 808              		.loc 3 775 0
 809 0024 0021     		movs	r1, #0
 810 0026 FFF7FEFF 		bl	chThdResumeI
 811              	.LVL48:
 812              	.LBE330:
 813              	.LBE329:
 814              	.LBE328:
 815              	.LBE327:
 816              	.LBB331:
 817              	.LBB332:
 818              		.loc 3 618 0
 819 002a FFF7FEFF 		bl	chSchRescheduleS
 820              	.LVL49:
 821              	.LBE332:
 822              	.LBE331:
 823              	.LBB333:
 824              	.LBB326:
 825              	.LBB325:
 826              	.LBB324:
 827              	.LBB323:
 828              	.LBB322:
 829              		.loc 2 493 0
 830 002e 0023     		movs	r3, #0
 831              		.syntax unified
 832              	@ 493 "./RM18A-ChibiOS18-Core/chibios/os/common/ext/ARM/CMSIS/Core/Include/cmsis_gcc.h" 1
 833 0030 83F31188 		MSR basepri, r3
 834              	@ 0 "" 2
 835              	.LVL50:
 836              		.thumb
 837              		.syntax unified
 838              	.LBE322:
 839              	.LBE323:
 840              	.LBE324:
 841              	.LBE325:
 842              	.LBE326:
 843              	.LBE333:
 844              		.loc 1 304 0
 845 0034 10BD     		pop	{r4, pc}
 846              		.cfi_endproc
 847              	.LFE338:
 848              		.size	spiAbort, .-spiAbort
 849 0036 00BF     		.section	.text.spiIgnore,"ax",%progbits
 850              		.align	1
 851              		.p2align 2,,3
 852              		.global	spiIgnore
 853              		.syntax unified
 854              		.thumb
 855              		.thumb_func
ARM GAS  /tmp/ccT9sN73.s 			page 16


 856              		.fpu fpv4-sp-d16
 857              		.type	spiIgnore, %function
 858              	spiIgnore:
 859              	.LFB339:
 860              		.loc 1 322 0
 861              		.cfi_startproc
 862              		@ args = 0, pretend = 0, frame = 0
 863              		@ frame_needed = 0, uses_anonymous_args = 0
 864              	.LVL51:
 865 0000 10B5     		push	{r4, lr}
 866              		.cfi_def_cfa_offset 8
 867              		.cfi_offset 4, -8
 868              		.cfi_offset 14, -4
 869              	.LBB334:
 870              	.LBB335:
 871              	.LBB336:
 872              	.LBB337:
 873              	.LBB338:
 874              		.loc 2 493 0
 875 0002 2023     		movs	r3, #32
 876              	.LBE338:
 877              	.LBE337:
 878              	.LBE336:
 879              	.LBE335:
 880              	.LBE334:
 881              		.loc 1 322 0
 882 0004 0446     		mov	r4, r0
 883              	.LBB343:
 884              	.LBB342:
 885              	.LBB341:
 886              	.LBB340:
 887              	.LBB339:
 888              		.loc 2 493 0
 889              		.syntax unified
 890              	@ 493 "./RM18A-ChibiOS18-Core/chibios/os/common/ext/ARM/CMSIS/Core/Include/cmsis_gcc.h" 1
 891 0006 83F31188 		MSR basepri, r3
 892              	@ 0 "" 2
 893              	.LVL52:
 894              		.thumb
 895              		.syntax unified
 896              	.LBE339:
 897              	.LBE340:
 898              	.LBE341:
 899              	.LBE342:
 900              	.LBE343:
 901              		.loc 1 331 0
 902 000a 0323     		movs	r3, #3
 903 000c 04F8083B 		strb	r3, [r4], #8
 904 0010 FFF7FEFF 		bl	spi_lld_ignore
 905              	.LVL53:
 906              	.LBB344:
 907              	.LBB345:
 908              		.loc 3 735 0
 909 0014 2046     		mov	r0, r4
 910 0016 4FF0FF31 		mov	r1, #-1
 911 001a FFF7FEFF 		bl	chThdSuspendTimeoutS
 912              	.LVL54:
ARM GAS  /tmp/ccT9sN73.s 			page 17


 913              	.LBE345:
 914              	.LBE344:
 915              	.LBB346:
 916              	.LBB347:
 917              	.LBB348:
 918              	.LBB349:
 919              	.LBB350:
 920              	.LBB351:
 921              		.loc 2 493 0
 922 001e 0023     		movs	r3, #0
 923              		.syntax unified
 924              	@ 493 "./RM18A-ChibiOS18-Core/chibios/os/common/ext/ARM/CMSIS/Core/Include/cmsis_gcc.h" 1
 925 0020 83F31188 		MSR basepri, r3
 926              	@ 0 "" 2
 927              	.LVL55:
 928              		.thumb
 929              		.syntax unified
 930              	.LBE351:
 931              	.LBE350:
 932              	.LBE349:
 933              	.LBE348:
 934              	.LBE347:
 935              	.LBE346:
 936              		.loc 1 334 0
 937 0024 10BD     		pop	{r4, pc}
 938              		.cfi_endproc
 939              	.LFE339:
 940              		.size	spiIgnore, .-spiIgnore
 941 0026 00BF     		.section	.text.spiExchange,"ax",%progbits
 942              		.align	1
 943              		.p2align 2,,3
 944              		.global	spiExchange
 945              		.syntax unified
 946              		.thumb
 947              		.thumb_func
 948              		.fpu fpv4-sp-d16
 949              		.type	spiExchange, %function
 950              	spiExchange:
 951              	.LFB340:
 952              		.loc 1 355 0
 953              		.cfi_startproc
 954              		@ args = 0, pretend = 0, frame = 0
 955              		@ frame_needed = 0, uses_anonymous_args = 0
 956              	.LVL56:
 957 0000 38B5     		push	{r3, r4, r5, lr}
 958              		.cfi_def_cfa_offset 16
 959              		.cfi_offset 3, -16
 960              		.cfi_offset 4, -12
 961              		.cfi_offset 5, -8
 962              		.cfi_offset 14, -4
 963              		.loc 1 355 0
 964 0002 0446     		mov	r4, r0
 965              	.LBB352:
 966              	.LBB353:
 967              	.LBB354:
 968              	.LBB355:
 969              	.LBB356:
ARM GAS  /tmp/ccT9sN73.s 			page 18


 970              		.loc 2 493 0
 971 0004 2025     		movs	r5, #32
 972              		.syntax unified
 973              	@ 493 "./RM18A-ChibiOS18-Core/chibios/os/common/ext/ARM/CMSIS/Core/Include/cmsis_gcc.h" 1
 974 0006 85F31188 		MSR basepri, r5
 975              	@ 0 "" 2
 976              	.LVL57:
 977              		.thumb
 978              		.syntax unified
 979              	.LBE356:
 980              	.LBE355:
 981              	.LBE354:
 982              	.LBE353:
 983              	.LBE352:
 984              		.loc 1 365 0
 985 000a 0325     		movs	r5, #3
 986 000c 04F8085B 		strb	r5, [r4], #8
 987 0010 FFF7FEFF 		bl	spi_lld_exchange
 988              	.LVL58:
 989              	.LBB357:
 990              	.LBB358:
 991              		.loc 3 735 0
 992 0014 2046     		mov	r0, r4
 993 0016 4FF0FF31 		mov	r1, #-1
 994 001a FFF7FEFF 		bl	chThdSuspendTimeoutS
 995              	.LVL59:
 996              	.LBE358:
 997              	.LBE357:
 998              	.LBB359:
 999              	.LBB360:
 1000              	.LBB361:
 1001              	.LBB362:
 1002              	.LBB363:
 1003              	.LBB364:
 1004              		.loc 2 493 0
 1005 001e 0023     		movs	r3, #0
 1006              		.syntax unified
 1007              	@ 493 "./RM18A-ChibiOS18-Core/chibios/os/common/ext/ARM/CMSIS/Core/Include/cmsis_gcc.h" 1
 1008 0020 83F31188 		MSR basepri, r3
 1009              	@ 0 "" 2
 1010              	.LVL60:
 1011              		.thumb
 1012              		.syntax unified
 1013              	.LBE364:
 1014              	.LBE363:
 1015              	.LBE362:
 1016              	.LBE361:
 1017              	.LBE360:
 1018              	.LBE359:
 1019              		.loc 1 368 0
 1020 0024 38BD     		pop	{r3, r4, r5, pc}
 1021              		.cfi_endproc
 1022              	.LFE340:
 1023              		.size	spiExchange, .-spiExchange
 1024 0026 00BF     		.section	.text.spiSend,"ax",%progbits
 1025              		.align	1
 1026              		.p2align 2,,3
ARM GAS  /tmp/ccT9sN73.s 			page 19


 1027              		.global	spiSend
 1028              		.syntax unified
 1029              		.thumb
 1030              		.thumb_func
 1031              		.fpu fpv4-sp-d16
 1032              		.type	spiSend, %function
 1033              	spiSend:
 1034              	.LFB341:
 1035              		.loc 1 386 0
 1036              		.cfi_startproc
 1037              		@ args = 0, pretend = 0, frame = 0
 1038              		@ frame_needed = 0, uses_anonymous_args = 0
 1039              	.LVL61:
 1040 0000 10B5     		push	{r4, lr}
 1041              		.cfi_def_cfa_offset 8
 1042              		.cfi_offset 4, -8
 1043              		.cfi_offset 14, -4
 1044              	.LBB365:
 1045              	.LBB366:
 1046              	.LBB367:
 1047              	.LBB368:
 1048              	.LBB369:
 1049              		.loc 2 493 0
 1050 0002 2023     		movs	r3, #32
 1051              	.LBE369:
 1052              	.LBE368:
 1053              	.LBE367:
 1054              	.LBE366:
 1055              	.LBE365:
 1056              		.loc 1 386 0
 1057 0004 0446     		mov	r4, r0
 1058              	.LBB374:
 1059              	.LBB373:
 1060              	.LBB372:
 1061              	.LBB371:
 1062              	.LBB370:
 1063              		.loc 2 493 0
 1064              		.syntax unified
 1065              	@ 493 "./RM18A-ChibiOS18-Core/chibios/os/common/ext/ARM/CMSIS/Core/Include/cmsis_gcc.h" 1
 1066 0006 83F31188 		MSR basepri, r3
 1067              	@ 0 "" 2
 1068              	.LVL62:
 1069              		.thumb
 1070              		.syntax unified
 1071              	.LBE370:
 1072              	.LBE371:
 1073              	.LBE372:
 1074              	.LBE373:
 1075              	.LBE374:
 1076              		.loc 1 395 0
 1077 000a 0323     		movs	r3, #3
 1078 000c 04F8083B 		strb	r3, [r4], #8
 1079 0010 FFF7FEFF 		bl	spi_lld_send
 1080              	.LVL63:
 1081              	.LBB375:
 1082              	.LBB376:
 1083              		.loc 3 735 0
ARM GAS  /tmp/ccT9sN73.s 			page 20


 1084 0014 2046     		mov	r0, r4
 1085 0016 4FF0FF31 		mov	r1, #-1
 1086 001a FFF7FEFF 		bl	chThdSuspendTimeoutS
 1087              	.LVL64:
 1088              	.LBE376:
 1089              	.LBE375:
 1090              	.LBB377:
 1091              	.LBB378:
 1092              	.LBB379:
 1093              	.LBB380:
 1094              	.LBB381:
 1095              	.LBB382:
 1096              		.loc 2 493 0
 1097 001e 0023     		movs	r3, #0
 1098              		.syntax unified
 1099              	@ 493 "./RM18A-ChibiOS18-Core/chibios/os/common/ext/ARM/CMSIS/Core/Include/cmsis_gcc.h" 1
 1100 0020 83F31188 		MSR basepri, r3
 1101              	@ 0 "" 2
 1102              	.LVL65:
 1103              		.thumb
 1104              		.syntax unified
 1105              	.LBE382:
 1106              	.LBE381:
 1107              	.LBE380:
 1108              	.LBE379:
 1109              	.LBE378:
 1110              	.LBE377:
 1111              		.loc 1 398 0
 1112 0024 10BD     		pop	{r4, pc}
 1113              		.cfi_endproc
 1114              	.LFE341:
 1115              		.size	spiSend, .-spiSend
 1116 0026 00BF     		.section	.text.spiReceive,"ax",%progbits
 1117              		.align	1
 1118              		.p2align 2,,3
 1119              		.global	spiReceive
 1120              		.syntax unified
 1121              		.thumb
 1122              		.thumb_func
 1123              		.fpu fpv4-sp-d16
 1124              		.type	spiReceive, %function
 1125              	spiReceive:
 1126              	.LFB342:
 1127              		.loc 1 416 0
 1128              		.cfi_startproc
 1129              		@ args = 0, pretend = 0, frame = 0
 1130              		@ frame_needed = 0, uses_anonymous_args = 0
 1131              	.LVL66:
 1132 0000 10B5     		push	{r4, lr}
 1133              		.cfi_def_cfa_offset 8
 1134              		.cfi_offset 4, -8
 1135              		.cfi_offset 14, -4
 1136              	.LBB383:
 1137              	.LBB384:
 1138              	.LBB385:
 1139              	.LBB386:
 1140              	.LBB387:
ARM GAS  /tmp/ccT9sN73.s 			page 21


 1141              		.loc 2 493 0
 1142 0002 2023     		movs	r3, #32
 1143              	.LBE387:
 1144              	.LBE386:
 1145              	.LBE385:
 1146              	.LBE384:
 1147              	.LBE383:
 1148              		.loc 1 416 0
 1149 0004 0446     		mov	r4, r0
 1150              	.LBB392:
 1151              	.LBB391:
 1152              	.LBB390:
 1153              	.LBB389:
 1154              	.LBB388:
 1155              		.loc 2 493 0
 1156              		.syntax unified
 1157              	@ 493 "./RM18A-ChibiOS18-Core/chibios/os/common/ext/ARM/CMSIS/Core/Include/cmsis_gcc.h" 1
 1158 0006 83F31188 		MSR basepri, r3
 1159              	@ 0 "" 2
 1160              	.LVL67:
 1161              		.thumb
 1162              		.syntax unified
 1163              	.LBE388:
 1164              	.LBE389:
 1165              	.LBE390:
 1166              	.LBE391:
 1167              	.LBE392:
 1168              		.loc 1 425 0
 1169 000a 0323     		movs	r3, #3
 1170 000c 04F8083B 		strb	r3, [r4], #8
 1171 0010 FFF7FEFF 		bl	spi_lld_receive
 1172              	.LVL68:
 1173              	.LBB393:
 1174              	.LBB394:
 1175              		.loc 3 735 0
 1176 0014 2046     		mov	r0, r4
 1177 0016 4FF0FF31 		mov	r1, #-1
 1178 001a FFF7FEFF 		bl	chThdSuspendTimeoutS
 1179              	.LVL69:
 1180              	.LBE394:
 1181              	.LBE393:
 1182              	.LBB395:
 1183              	.LBB396:
 1184              	.LBB397:
 1185              	.LBB398:
 1186              	.LBB399:
 1187              	.LBB400:
 1188              		.loc 2 493 0
 1189 001e 0023     		movs	r3, #0
 1190              		.syntax unified
 1191              	@ 493 "./RM18A-ChibiOS18-Core/chibios/os/common/ext/ARM/CMSIS/Core/Include/cmsis_gcc.h" 1
 1192 0020 83F31188 		MSR basepri, r3
 1193              	@ 0 "" 2
 1194              	.LVL70:
 1195              		.thumb
 1196              		.syntax unified
 1197              	.LBE400:
ARM GAS  /tmp/ccT9sN73.s 			page 22


 1198              	.LBE399:
 1199              	.LBE398:
 1200              	.LBE397:
 1201              	.LBE396:
 1202              	.LBE395:
 1203              		.loc 1 428 0
 1204 0024 10BD     		pop	{r4, pc}
 1205              		.cfi_endproc
 1206              	.LFE342:
 1207              		.size	spiReceive, .-spiReceive
 1208 0026 00BF     		.text
 1209              	.Letext0:
 1210              		.file 4 "/usr/lib/gcc/arm-none-eabi/7.3.1/include/stddef.h"
 1211              		.file 5 "/usr/arm-none-eabi/include/machine/_default_types.h"
 1212              		.file 6 "/usr/arm-none-eabi/include/sys/_stdint.h"
 1213              		.file 7 "./RM18A-ChibiOS18-Core/chibios/os/common/ports/ARMCMx/compilers/GCC/chtypes.h"
 1214              		.file 8 "./RM18A-ChibiOS18-Core/chibios/os/rt/include/chsystypes.h"
 1215              		.file 9 "./RM18A-ChibiOS18-Core/chibios/os/rt/include/chschd.h"
 1216              		.file 10 "./RM18A-ChibiOS18-Core/chibios/os/rt/include/chtime.h"
 1217              		.file 11 "./RM18A-ChibiOS18-Core/chibios/os/common/ext/ARM/CMSIS/Core/Include/core_cm4.h"
 1218              		.file 12 "./RM18A-ChibiOS18-Core/chibios/os/common/ext/ST/STM32F4xx/system_stm32f4xx.h"
 1219              		.file 13 "./RM18A-ChibiOS18-Core/chibios/os/common/ext/ST/STM32F4xx/stm32f427xx.h"
 1220              		.file 14 "./RM18A-ChibiOS18-Core/chibios/os/common/ports/ARMCMx/chcore.h"
 1221              		.file 15 "./RM18A-ChibiOS18-Core/chibios/os/common/ports/ARMCMx/chcore_v7m.h"
 1222              		.file 16 "./RM18A-ChibiOS18-Core/chibios/os/hal/ports/STM32/LLD/TIMv1/stm32_tim.h"
 1223              		.file 17 "./RM18A-ChibiOS18-Core/chibios/os/rt/include/chtm.h"
 1224              		.file 18 "./RM18A-ChibiOS18-Core/chibios/os/rt/include/chsem.h"
 1225              		.file 19 "./RM18A-ChibiOS18-Core/chibios/os/rt/include/chmtx.h"
 1226              		.file 20 "./RM18A-ChibiOS18-Core/chibios/os/rt/include/chsys.h"
 1227              		.file 21 "./RM18A-ChibiOS18-Core/chibios/os/rt/include/chregistry.h"
 1228              		.file 22 "./RM18A-ChibiOS18-Core/chibios/os/rt/include/chevents.h"
 1229              		.file 23 "./RM18A-ChibiOS18-Core/chibios/os/oslib/include/chmemcore.h"
 1230              		.file 24 "./RM18A-ChibiOS18-Core/chibios/os/oslib/include/chmempools.h"
 1231              		.file 25 "./RM18A-ChibiOS18-Core/chibios/os/oslib/include/chfactory.h"
 1232              		.file 26 "./RM18A-ChibiOS18-Core/chibios/os/hal/ports/STM32/LLD/DMAv2/stm32_dma.h"
 1233              		.file 27 "./RM18A-ChibiOS18-Core/chibios/os/hal/include/hal_queues.h"
 1234              		.file 28 "./RM18A-ChibiOS18-Core/chibios/os/hal/include/hal_pal.h"
 1235              		.file 29 "./RM18A-ChibiOS18-Core/chibios/os/hal/ports/STM32/LLD/GPIOv2/stm32_gpio.h"
 1236              		.file 30 "./RM18A-ChibiOS18-Core/chibios/os/hal/ports/STM32/LLD/GPIOv2/hal_pal_lld.h"
 1237              		.file 31 "./RM18A-ChibiOS18-Core/chibios/os/hal/include/hal_adc.h"
 1238              		.file 32 "./RM18A-ChibiOS18-Core/chibios/os/hal/ports/STM32/LLD/ADCv2/hal_adc_lld.h"
 1239              		.file 33 "./RM18A-ChibiOS18-Core/chibios/os/hal/include/hal_can.h"
 1240              		.file 34 "./RM18A-ChibiOS18-Core/chibios/os/hal/ports/STM32/LLD/CANv1/hal_can_lld.h"
 1241              		.file 35 "./RM18A-ChibiOS18-Core/chibios/os/hal/include/hal_icu.h"
 1242              		.file 36 "./RM18A-ChibiOS18-Core/chibios/os/hal/ports/STM32/LLD/TIMv1/hal_icu_lld.h"
 1243              		.file 37 "./RM18A-ChibiOS18-Core/chibios/os/hal/include/hal_pwm.h"
 1244              		.file 38 "./RM18A-ChibiOS18-Core/chibios/os/hal/ports/STM32/LLD/TIMv1/hal_pwm_lld.h"
 1245              		.file 39 "./RM18A-ChibiOS18-Core/chibios/os/hal/include/hal_serial.h"
 1246              		.file 40 "./RM18A-ChibiOS18-Core/chibios/os/hal/ports/STM32/LLD/USARTv1/hal_serial_lld.h"
 1247              		.file 41 "./RM18A-ChibiOS18-Core/chibios/os/hal/include/hal_spi.h"
 1248              		.file 42 "./RM18A-ChibiOS18-Core/chibios/os/hal/ports/STM32/LLD/SPIv1/hal_spi_lld.h"
 1249              		.file 43 "./RM18A-ChibiOS18-Core/chibios/os/hal/include/hal_uart.h"
 1250              		.file 44 "./RM18A-ChibiOS18-Core/chibios/os/hal/ports/STM32/LLD/USARTv1/hal_uart_lld.h"
 1251              		.file 45 "./RM18A-ChibiOS18-Core/chibios/os/hal/include/hal_usb.h"
 1252              		.file 46 "./RM18A-ChibiOS18-Core/chibios/os/hal/ports/STM32/LLD/OTGv1/hal_usb_lld.h"
 1253              		.file 47 "./RM18A-ChibiOS18-Core/chibios/os/hal/ports/STM32/LLD/OTGv1/stm32_otg.h"
 1254              		.file 48 "./RM18A-ChibiOS18-Core/chibios/os/rt/include/chthreads.h"
ARM GAS  /tmp/ccT9sN73.s 			page 23

