ARM GAS  /tmp/ccsQmde1.s 			page 1


   1              		.cpu cortex-m4
   2              		.eabi_attribute 27, 1
   3              		.eabi_attribute 28, 1
   4              		.eabi_attribute 20, 1
   5              		.eabi_attribute 21, 1
   6              		.eabi_attribute 23, 3
   7              		.eabi_attribute 24, 1
   8              		.eabi_attribute 25, 1
   9              		.eabi_attribute 26, 1
  10              		.eabi_attribute 30, 2
  11              		.eabi_attribute 34, 1
  12              		.eabi_attribute 18, 4
  13              		.file	"hal_st.c"
  14              		.text
  15              	.Ltext0:
  16              		.cfi_sections	.debug_frame
  17              		.section	.text.stInit,"ax",%progbits
  18              		.align	1
  19              		.p2align 2,,3
  20              		.global	stInit
  21              		.syntax unified
  22              		.thumb
  23              		.thumb_func
  24              		.fpu fpv4-sp-d16
  25              		.type	stInit, %function
  26              	stInit:
  27              	.LFB327:
  28              		.file 1 "./RM18A-ChibiOS18-Core/chibios/os/hal/src/hal_st.c"
  29              		.loc 1 60 0
  30              		.cfi_startproc
  31              		@ args = 0, pretend = 0, frame = 0
  32              		@ frame_needed = 0, uses_anonymous_args = 0
  33              		@ link register save eliminated.
  34              		.loc 1 62 0
  35 0000 FFF7FEBF 		b	st_lld_init
  36              	.LVL0:
  37              		.cfi_endproc
  38              	.LFE327:
  39              		.size	stInit, .-stInit
  40              		.section	.text.stStartAlarm,"ax",%progbits
  41              		.align	1
  42              		.p2align 2,,3
  43              		.global	stStartAlarm
  44              		.syntax unified
  45              		.thumb
  46              		.thumb_func
  47              		.fpu fpv4-sp-d16
  48              		.type	stStartAlarm, %function
  49              	stStartAlarm:
  50              	.LFB328:
  51              		.loc 1 77 0
  52              		.cfi_startproc
  53              		@ args = 0, pretend = 0, frame = 0
  54              		@ frame_needed = 0, uses_anonymous_args = 0
  55              		@ link register save eliminated.
  56              	.LVL1:
  57              	.LBB10:
ARM GAS  /tmp/ccsQmde1.s 			page 2


  58              	.LBB11:
  59              		.file 2 "./RM18A-ChibiOS18-Core/chibios/os/hal/ports/STM32/LLD/TIMv1/hal_st_lld.h"
  60              		.loc 2 161 0
  61 0000 4FF08043 		mov	r3, #1073741824
  62              	.LVL2:
  63              		.loc 2 162 0
  64 0004 0021     		movs	r1, #0
  65              		.loc 2 163 0
  66 0006 0222     		movs	r2, #2
  67              		.loc 2 161 0
  68 0008 5863     		str	r0, [r3, #52]
  69              		.loc 2 162 0
  70 000a 1961     		str	r1, [r3, #16]
  71              		.loc 2 163 0
  72 000c DA60     		str	r2, [r3, #12]
  73              	.LVL3:
  74              	.LBE11:
  75              	.LBE10:
  76              		.loc 1 82 0
  77 000e 7047     		bx	lr
  78              		.cfi_endproc
  79              	.LFE328:
  80              		.size	stStartAlarm, .-stStartAlarm
  81              		.section	.text.stStopAlarm,"ax",%progbits
  82              		.align	1
  83              		.p2align 2,,3
  84              		.global	stStopAlarm
  85              		.syntax unified
  86              		.thumb
  87              		.thumb_func
  88              		.fpu fpv4-sp-d16
  89              		.type	stStopAlarm, %function
  90              	stStopAlarm:
  91              	.LFB329:
  92              		.loc 1 91 0
  93              		.cfi_startproc
  94              		@ args = 0, pretend = 0, frame = 0
  95              		@ frame_needed = 0, uses_anonymous_args = 0
  96              		@ link register save eliminated.
  97              	.LBB12:
  98              	.LBB13:
  99              		.loc 2 173 0
 100 0000 4FF08043 		mov	r3, #1073741824
 101 0004 0022     		movs	r2, #0
 102 0006 DA60     		str	r2, [r3, #12]
 103              	.LBE13:
 104              	.LBE12:
 105              		.loc 1 94 0
 106 0008 7047     		bx	lr
 107              		.cfi_endproc
 108              	.LFE329:
 109              		.size	stStopAlarm, .-stStopAlarm
 110 000a 00BF     		.section	.text.stSetAlarm,"ax",%progbits
 111              		.align	1
 112              		.p2align 2,,3
 113              		.global	stSetAlarm
 114              		.syntax unified
ARM GAS  /tmp/ccsQmde1.s 			page 3


 115              		.thumb
 116              		.thumb_func
 117              		.fpu fpv4-sp-d16
 118              		.type	stSetAlarm, %function
 119              	stSetAlarm:
 120              	.LFB330:
 121              		.loc 1 105 0
 122              		.cfi_startproc
 123              		@ args = 0, pretend = 0, frame = 0
 124              		@ frame_needed = 0, uses_anonymous_args = 0
 125              		@ link register save eliminated.
 126              	.LVL4:
 127              	.LBB14:
 128              	.LBB15:
 129              		.loc 2 185 0
 130 0000 4FF08043 		mov	r3, #1073741824
 131              	.LVL5:
 132 0004 5863     		str	r0, [r3, #52]
 133              	.LVL6:
 134              	.LBE15:
 135              	.LBE14:
 136              		.loc 1 110 0
 137 0006 7047     		bx	lr
 138              		.cfi_endproc
 139              	.LFE330:
 140              		.size	stSetAlarm, .-stSetAlarm
 141              		.section	.text.stGetAlarm,"ax",%progbits
 142              		.align	1
 143              		.p2align 2,,3
 144              		.global	stGetAlarm
 145              		.syntax unified
 146              		.thumb
 147              		.thumb_func
 148              		.fpu fpv4-sp-d16
 149              		.type	stGetAlarm, %function
 150              	stGetAlarm:
 151              	.LFB331:
 152              		.loc 1 121 0
 153              		.cfi_startproc
 154              		@ args = 0, pretend = 0, frame = 0
 155              		@ frame_needed = 0, uses_anonymous_args = 0
 156              		@ link register save eliminated.
 157              	.LBB16:
 158              	.LBB17:
 159              		.loc 2 197 0
 160 0000 4FF08043 		mov	r3, #1073741824
 161 0004 586B     		ldr	r0, [r3, #52]
 162              	.LBE17:
 163              	.LBE16:
 164              		.loc 1 126 0
 165 0006 7047     		bx	lr
 166              		.cfi_endproc
 167              	.LFE331:
 168              		.size	stGetAlarm, .-stGetAlarm
 169              		.text
 170              	.Letext0:
 171              		.file 3 "/usr/lib/gcc/arm-none-eabi/7.3.1/include/stddef.h"
ARM GAS  /tmp/ccsQmde1.s 			page 4


 172              		.file 4 "/usr/arm-none-eabi/include/machine/_default_types.h"
 173              		.file 5 "/usr/arm-none-eabi/include/sys/_stdint.h"
 174              		.file 6 "./RM18A-ChibiOS18-Core/chibios/os/common/ports/ARMCMx/compilers/GCC/chtypes.h"
 175              		.file 7 "./RM18A-ChibiOS18-Core/chibios/os/rt/include/chsystypes.h"
 176              		.file 8 "./RM18A-ChibiOS18-Core/chibios/os/rt/include/chschd.h"
 177              		.file 9 "./RM18A-ChibiOS18-Core/chibios/os/rt/include/chtime.h"
 178              		.file 10 "./RM18A-ChibiOS18-Core/chibios/os/common/ext/ARM/CMSIS/Core/Include/core_cm4.h"
 179              		.file 11 "./RM18A-ChibiOS18-Core/chibios/os/common/ext/ST/STM32F4xx/system_stm32f4xx.h"
 180              		.file 12 "./RM18A-ChibiOS18-Core/chibios/os/common/ext/ST/STM32F4xx/stm32f427xx.h"
 181              		.file 13 "./RM18A-ChibiOS18-Core/chibios/os/common/ports/ARMCMx/chcore.h"
 182              		.file 14 "./RM18A-ChibiOS18-Core/chibios/os/common/ports/ARMCMx/chcore_v7m.h"
 183              		.file 15 "./RM18A-ChibiOS18-Core/chibios/os/hal/ports/STM32/LLD/TIMv1/stm32_tim.h"
 184              		.file 16 "./RM18A-ChibiOS18-Core/chibios/os/rt/include/chtm.h"
 185              		.file 17 "./RM18A-ChibiOS18-Core/chibios/os/rt/include/chsem.h"
 186              		.file 18 "./RM18A-ChibiOS18-Core/chibios/os/rt/include/chmtx.h"
 187              		.file 19 "./RM18A-ChibiOS18-Core/chibios/os/rt/include/chsys.h"
 188              		.file 20 "./RM18A-ChibiOS18-Core/chibios/os/rt/include/chregistry.h"
 189              		.file 21 "./RM18A-ChibiOS18-Core/chibios/os/rt/include/chevents.h"
 190              		.file 22 "./RM18A-ChibiOS18-Core/chibios/os/oslib/include/chmemcore.h"
 191              		.file 23 "./RM18A-ChibiOS18-Core/chibios/os/oslib/include/chmempools.h"
 192              		.file 24 "./RM18A-ChibiOS18-Core/chibios/os/oslib/include/chfactory.h"
 193              		.file 25 "./RM18A-ChibiOS18-Core/chibios/os/hal/ports/STM32/LLD/DMAv2/stm32_dma.h"
 194              		.file 26 "./RM18A-ChibiOS18-Core/chibios/os/hal/include/hal_queues.h"
 195              		.file 27 "./RM18A-ChibiOS18-Core/chibios/os/hal/include/hal_pal.h"
 196              		.file 28 "./RM18A-ChibiOS18-Core/chibios/os/hal/ports/STM32/LLD/GPIOv2/hal_pal_lld.h"
 197              		.file 29 "./RM18A-ChibiOS18-Core/chibios/os/hal/include/hal_adc.h"
 198              		.file 30 "./RM18A-ChibiOS18-Core/chibios/os/hal/ports/STM32/LLD/ADCv2/hal_adc_lld.h"
 199              		.file 31 "./RM18A-ChibiOS18-Core/chibios/os/hal/include/hal_can.h"
 200              		.file 32 "./RM18A-ChibiOS18-Core/chibios/os/hal/ports/STM32/LLD/CANv1/hal_can_lld.h"
 201              		.file 33 "./RM18A-ChibiOS18-Core/chibios/os/hal/include/hal_i2c.h"
 202              		.file 34 "./RM18A-ChibiOS18-Core/chibios/os/hal/lib/fallback/I2C/hal_i2c_lld.h"
 203              		.file 35 "./RM18A-ChibiOS18-Core/chibios/os/hal/include/hal_icu.h"
 204              		.file 36 "./RM18A-ChibiOS18-Core/chibios/os/hal/ports/STM32/LLD/TIMv1/hal_icu_lld.h"
 205              		.file 37 "./RM18A-ChibiOS18-Core/chibios/os/hal/include/hal_pwm.h"
 206              		.file 38 "./RM18A-ChibiOS18-Core/chibios/os/hal/ports/STM32/LLD/TIMv1/hal_pwm_lld.h"
 207              		.file 39 "./RM18A-ChibiOS18-Core/chibios/os/hal/include/hal_serial.h"
 208              		.file 40 "./RM18A-ChibiOS18-Core/chibios/os/hal/ports/STM32/LLD/USARTv1/hal_serial_lld.h"
 209              		.file 41 "./RM18A-ChibiOS18-Core/chibios/os/hal/include/hal_spi.h"
 210              		.file 42 "./RM18A-ChibiOS18-Core/chibios/os/hal/ports/STM32/LLD/SPIv1/hal_spi_lld.h"
 211              		.file 43 "./RM18A-ChibiOS18-Core/chibios/os/hal/include/hal_uart.h"
 212              		.file 44 "./RM18A-ChibiOS18-Core/chibios/os/hal/ports/STM32/LLD/USARTv1/hal_uart_lld.h"
 213              		.file 45 "./RM18A-ChibiOS18-Core/chibios/os/hal/include/hal_usb.h"
 214              		.file 46 "./RM18A-ChibiOS18-Core/chibios/os/hal/ports/STM32/LLD/OTGv1/hal_usb_lld.h"
 215              		.file 47 "./RM18A-ChibiOS18-Core/chibios/os/hal/ports/STM32/LLD/OTGv1/stm32_otg.h"