ARM GAS  /tmp/ccGdnTbJ.s 			page 1


   1              		.cpu cortex-m4
   2              		.eabi_attribute 27, 1
   3              		.eabi_attribute 28, 1
   4              		.eabi_attribute 20, 1
   5              		.eabi_attribute 21, 1
   6              		.eabi_attribute 23, 3
   7              		.eabi_attribute 24, 1
   8              		.eabi_attribute 25, 1
   9              		.eabi_attribute 26, 1
  10              		.eabi_attribute 30, 2
  11              		.eabi_attribute 34, 1
  12              		.eabi_attribute 18, 4
  13              		.file	"hal_serial.c"
  14              		.text
  15              	.Ltext0:
  16              		.cfi_sections	.debug_frame
  17              		.section	.text._readt,"ax",%progbits
  18              		.align	1
  19              		.p2align 2,,3
  20              		.syntax unified
  21              		.thumb
  22              		.thumb_func
  23              		.fpu fpv4-sp-d16
  24              		.type	_readt, %function
  25              	_readt:
  26              	.LFB334:
  27              		.file 1 "./RM18A-ChibiOS18-Core/chibios/os/hal/src/hal_serial.c"
  28              		.loc 1 89 0
  29              		.cfi_startproc
  30              		@ args = 0, pretend = 0, frame = 0
  31              		@ frame_needed = 0, uses_anonymous_args = 0
  32              		@ link register save eliminated.
  33              	.LVL0:
  34              		.loc 1 91 0
  35 0000 0C30     		adds	r0, r0, #12
  36              	.LVL1:
  37 0002 FFF7FEBF 		b	iqReadTimeout
  38              	.LVL2:
  39              		.cfi_endproc
  40              	.LFE334:
  41              		.size	_readt, .-_readt
  42 0006 00BF     		.section	.text._read,"ax",%progbits
  43              		.align	1
  44              		.p2align 2,,3
  45              		.syntax unified
  46              		.thumb
  47              		.thumb_func
  48              		.fpu fpv4-sp-d16
  49              		.type	_read, %function
  50              	_read:
  51              	.LFB328:
  52              		.loc 1 56 0
  53              		.cfi_startproc
  54              		@ args = 0, pretend = 0, frame = 0
  55              		@ frame_needed = 0, uses_anonymous_args = 0
  56              		@ link register save eliminated.
  57              	.LVL3:
ARM GAS  /tmp/ccGdnTbJ.s 			page 2


  58              		.loc 1 58 0
  59 0000 0C30     		adds	r0, r0, #12
  60              	.LVL4:
  61 0002 4FF0FF33 		mov	r3, #-1
  62 0006 FFF7FEBF 		b	iqReadTimeout
  63              	.LVL5:
  64              		.cfi_endproc
  65              	.LFE328:
  66              		.size	_read, .-_read
  67 000a 00BF     		.section	.text._writet,"ax",%progbits
  68              		.align	1
  69              		.p2align 2,,3
  70              		.syntax unified
  71              		.thumb
  72              		.thumb_func
  73              		.fpu fpv4-sp-d16
  74              		.type	_writet, %function
  75              	_writet:
  76              	.LFB333:
  77              		.loc 1 83 0
  78              		.cfi_startproc
  79              		@ args = 0, pretend = 0, frame = 0
  80              		@ frame_needed = 0, uses_anonymous_args = 0
  81              		@ link register save eliminated.
  82              	.LVL6:
  83              		.loc 1 85 0
  84 0000 3030     		adds	r0, r0, #48
  85              	.LVL7:
  86 0002 FFF7FEBF 		b	oqWriteTimeout
  87              	.LVL8:
  88              		.cfi_endproc
  89              	.LFE333:
  90              		.size	_writet, .-_writet
  91 0006 00BF     		.section	.text._write,"ax",%progbits
  92              		.align	1
  93              		.p2align 2,,3
  94              		.syntax unified
  95              		.thumb
  96              		.thumb_func
  97              		.fpu fpv4-sp-d16
  98              		.type	_write, %function
  99              	_write:
 100              	.LFB327:
 101              		.loc 1 50 0
 102              		.cfi_startproc
 103              		@ args = 0, pretend = 0, frame = 0
 104              		@ frame_needed = 0, uses_anonymous_args = 0
 105              		@ link register save eliminated.
 106              	.LVL9:
 107              		.loc 1 52 0
 108 0000 3030     		adds	r0, r0, #48
 109              	.LVL10:
 110 0002 4FF0FF33 		mov	r3, #-1
 111 0006 FFF7FEBF 		b	oqWriteTimeout
 112              	.LVL11:
 113              		.cfi_endproc
 114              	.LFE327:
ARM GAS  /tmp/ccGdnTbJ.s 			page 3


 115              		.size	_write, .-_write
 116 000a 00BF     		.section	.text._gett,"ax",%progbits
 117              		.align	1
 118              		.p2align 2,,3
 119              		.syntax unified
 120              		.thumb
 121              		.thumb_func
 122              		.fpu fpv4-sp-d16
 123              		.type	_gett, %function
 124              	_gett:
 125              	.LFB332:
 126              		.loc 1 77 0
 127              		.cfi_startproc
 128              		@ args = 0, pretend = 0, frame = 0
 129              		@ frame_needed = 0, uses_anonymous_args = 0
 130              		@ link register save eliminated.
 131              	.LVL12:
 132              		.loc 1 79 0
 133 0000 0C30     		adds	r0, r0, #12
 134              	.LVL13:
 135 0002 FFF7FEBF 		b	iqGetTimeout
 136              	.LVL14:
 137              		.cfi_endproc
 138              	.LFE332:
 139              		.size	_gett, .-_gett
 140 0006 00BF     		.section	.text._get,"ax",%progbits
 141              		.align	1
 142              		.p2align 2,,3
 143              		.syntax unified
 144              		.thumb
 145              		.thumb_func
 146              		.fpu fpv4-sp-d16
 147              		.type	_get, %function
 148              	_get:
 149              	.LFB330:
 150              		.loc 1 67 0
 151              		.cfi_startproc
 152              		@ args = 0, pretend = 0, frame = 0
 153              		@ frame_needed = 0, uses_anonymous_args = 0
 154              		@ link register save eliminated.
 155              	.LVL15:
 156              		.loc 1 69 0
 157 0000 0C30     		adds	r0, r0, #12
 158              	.LVL16:
 159 0002 4FF0FF31 		mov	r1, #-1
 160 0006 FFF7FEBF 		b	iqGetTimeout
 161              	.LVL17:
 162              		.cfi_endproc
 163              	.LFE330:
 164              		.size	_get, .-_get
 165 000a 00BF     		.section	.text._putt,"ax",%progbits
 166              		.align	1
 167              		.p2align 2,,3
 168              		.syntax unified
 169              		.thumb
 170              		.thumb_func
 171              		.fpu fpv4-sp-d16
ARM GAS  /tmp/ccGdnTbJ.s 			page 4


 172              		.type	_putt, %function
 173              	_putt:
 174              	.LFB331:
 175              		.loc 1 72 0
 176              		.cfi_startproc
 177              		@ args = 0, pretend = 0, frame = 0
 178              		@ frame_needed = 0, uses_anonymous_args = 0
 179              		@ link register save eliminated.
 180              	.LVL18:
 181              		.loc 1 74 0
 182 0000 3030     		adds	r0, r0, #48
 183              	.LVL19:
 184 0002 FFF7FEBF 		b	oqPutTimeout
 185              	.LVL20:
 186              		.cfi_endproc
 187              	.LFE331:
 188              		.size	_putt, .-_putt
 189 0006 00BF     		.section	.text._put,"ax",%progbits
 190              		.align	1
 191              		.p2align 2,,3
 192              		.syntax unified
 193              		.thumb
 194              		.thumb_func
 195              		.fpu fpv4-sp-d16
 196              		.type	_put, %function
 197              	_put:
 198              	.LFB329:
 199              		.loc 1 62 0
 200              		.cfi_startproc
 201              		@ args = 0, pretend = 0, frame = 0
 202              		@ frame_needed = 0, uses_anonymous_args = 0
 203              		@ link register save eliminated.
 204              	.LVL21:
 205              		.loc 1 64 0
 206 0000 3030     		adds	r0, r0, #48
 207              	.LVL22:
 208 0002 4FF0FF32 		mov	r2, #-1
 209 0006 FFF7FEBF 		b	oqPutTimeout
 210              	.LVL23:
 211              		.cfi_endproc
 212              	.LFE329:
 213              		.size	_put, .-_put
 214 000a 00BF     		.section	.text._ctl,"ax",%progbits
 215              		.align	1
 216              		.p2align 2,,3
 217              		.syntax unified
 218              		.thumb
 219              		.thumb_func
 220              		.fpu fpv4-sp-d16
 221              		.type	_ctl, %function
 222              	_ctl:
 223              	.LFB346:
 224              		.cfi_startproc
 225              		@ args = 0, pretend = 0, frame = 0
 226              		@ frame_needed = 0, uses_anonymous_args = 0
 227              		@ link register save eliminated.
 228 0000 0020     		movs	r0, #0
ARM GAS  /tmp/ccGdnTbJ.s 			page 5


 229 0002 7047     		bx	lr
 230              		.cfi_endproc
 231              	.LFE346:
 232              		.size	_ctl, .-_ctl
 233              		.section	.text.sdInit,"ax",%progbits
 234              		.align	1
 235              		.p2align 2,,3
 236              		.global	sdInit
 237              		.syntax unified
 238              		.thumb
 239              		.thumb_func
 240              		.fpu fpv4-sp-d16
 241              		.type	sdInit, %function
 242              	sdInit:
 243              	.LFB336:
 244              		.loc 1 135 0
 245              		.cfi_startproc
 246              		@ args = 0, pretend = 0, frame = 0
 247              		@ frame_needed = 0, uses_anonymous_args = 0
 248              		@ link register save eliminated.
 249              		.loc 1 137 0
 250 0000 FFF7FEBF 		b	sd_lld_init
 251              	.LVL24:
 252              		.cfi_endproc
 253              	.LFE336:
 254              		.size	sdInit, .-sdInit
 255              		.section	.text.sdObjectInit,"ax",%progbits
 256              		.align	1
 257              		.p2align 2,,3
 258              		.global	sdObjectInit
 259              		.syntax unified
 260              		.thumb
 261              		.thumb_func
 262              		.fpu fpv4-sp-d16
 263              		.type	sdObjectInit, %function
 264              	sdObjectInit:
 265              	.LFB337:
 266              		.loc 1 158 0
 267              		.cfi_startproc
 268              		@ args = 0, pretend = 0, frame = 0
 269              		@ frame_needed = 0, uses_anonymous_args = 0
 270              	.LVL25:
 271 0000 70B5     		push	{r4, r5, r6, lr}
 272              		.cfi_def_cfa_offset 16
 273              		.cfi_offset 4, -16
 274              		.cfi_offset 5, -12
 275              		.cfi_offset 6, -8
 276              		.cfi_offset 14, -4
 277              		.loc 1 160 0
 278 0002 0E4B     		ldr	r3, .L14
 279              		.loc 1 158 0
 280 0004 0446     		mov	r4, r0
 281 0006 82B0     		sub	sp, sp, #8
 282              		.cfi_def_cfa_offset 24
 283              		.loc 1 160 0
 284 0008 40F8043B 		str	r3, [r0], #4
 285              	.LVL26:
ARM GAS  /tmp/ccGdnTbJ.s 			page 6


 286              		.loc 1 162 0
 287 000c 0126     		movs	r6, #1
 288              		.loc 1 163 0
 289 000e 0094     		str	r4, [sp]
 290              		.loc 1 158 0
 291 0010 1546     		mov	r5, r2
 292              		.loc 1 163 0
 293 0012 0B46     		mov	r3, r1
 294              	.LBB92:
 295              	.LBB93:
 296              	.LBB94:
 297              		.file 2 "./RM18A-ChibiOS18-Core/chibios/os/rt/include/chevents.h"
 298              		.loc 2 173 0
 299 0014 6060     		str	r0, [r4, #4]
 300              	.LVL27:
 301              	.LBE94:
 302              	.LBE93:
 303              	.LBE92:
 304              		.loc 1 163 0
 305 0016 04F15401 		add	r1, r4, #84
 306              	.LVL28:
 307 001a 04F10C00 		add	r0, r4, #12
 308              		.loc 1 162 0
 309 001e 2672     		strb	r6, [r4, #8]
 310              		.loc 1 163 0
 311 0020 1022     		movs	r2, #16
 312              	.LVL29:
 313 0022 FFF7FEFF 		bl	iqObjectInit
 314              	.LVL30:
 315              		.loc 1 164 0
 316 0026 0094     		str	r4, [sp]
 317 0028 2B46     		mov	r3, r5
 318 002a 04F16401 		add	r1, r4, #100
 319 002e 04F13000 		add	r0, r4, #48
 320 0032 1022     		movs	r2, #16
 321 0034 FFF7FEFF 		bl	oqObjectInit
 322              	.LVL31:
 323              		.loc 1 165 0
 324 0038 02B0     		add	sp, sp, #8
 325              		.cfi_def_cfa_offset 16
 326              		@ sp needed
 327 003a 70BD     		pop	{r4, r5, r6, pc}
 328              	.LVL32:
 329              	.L15:
 330              		.align	2
 331              	.L14:
 332 003c 00000000 		.word	.LANCHOR0
 333              		.cfi_endproc
 334              	.LFE337:
 335              		.size	sdObjectInit, .-sdObjectInit
 336              		.section	.text.sdStart,"ax",%progbits
 337              		.align	1
 338              		.p2align 2,,3
 339              		.global	sdStart
 340              		.syntax unified
 341              		.thumb
 342              		.thumb_func
ARM GAS  /tmp/ccGdnTbJ.s 			page 7


 343              		.fpu fpv4-sp-d16
 344              		.type	sdStart, %function
 345              	sdStart:
 346              	.LFB338:
 347              		.loc 1 185 0
 348              		.cfi_startproc
 349              		@ args = 0, pretend = 0, frame = 0
 350              		@ frame_needed = 0, uses_anonymous_args = 0
 351              	.LVL33:
 352 0000 10B5     		push	{r4, lr}
 353              		.cfi_def_cfa_offset 8
 354              		.cfi_offset 4, -8
 355              		.cfi_offset 14, -4
 356              	.LBB95:
 357              	.LBB96:
 358              	.LBB97:
 359              	.LBB98:
 360              	.LBB99:
 361              		.file 3 "./RM18A-ChibiOS18-Core/chibios/os/common/ext/ARM/CMSIS/Core/Include/cmsis_gcc.h"
 362              		.loc 3 493 0
 363 0002 2023     		movs	r3, #32
 364              	.LBE99:
 365              	.LBE98:
 366              	.LBE97:
 367              	.LBE96:
 368              	.LBE95:
 369              		.loc 1 185 0
 370 0004 0446     		mov	r4, r0
 371              	.LBB104:
 372              	.LBB103:
 373              	.LBB102:
 374              	.LBB101:
 375              	.LBB100:
 376              		.loc 3 493 0
 377              		.syntax unified
 378              	@ 493 "./RM18A-ChibiOS18-Core/chibios/os/common/ext/ARM/CMSIS/Core/Include/cmsis_gcc.h" 1
 379 0006 83F31188 		MSR basepri, r3
 380              	@ 0 "" 2
 381              	.LVL34:
 382              		.thumb
 383              		.syntax unified
 384              	.LBE100:
 385              	.LBE101:
 386              	.LBE102:
 387              	.LBE103:
 388              	.LBE104:
 389              		.loc 1 192 0
 390 000a FFF7FEFF 		bl	sd_lld_start
 391              	.LVL35:
 392              		.loc 1 193 0
 393 000e 0223     		movs	r3, #2
 394 0010 2372     		strb	r3, [r4, #8]
 395              	.LVL36:
 396              	.LBB105:
 397              	.LBB106:
 398              	.LBB107:
 399              	.LBB108:
ARM GAS  /tmp/ccGdnTbJ.s 			page 8


 400              	.LBB109:
 401              	.LBB110:
 402              		.loc 3 493 0
 403 0012 0023     		movs	r3, #0
 404              		.syntax unified
 405              	@ 493 "./RM18A-ChibiOS18-Core/chibios/os/common/ext/ARM/CMSIS/Core/Include/cmsis_gcc.h" 1
 406 0014 83F31188 		MSR basepri, r3
 407              	@ 0 "" 2
 408              	.LVL37:
 409              		.thumb
 410              		.syntax unified
 411              	.LBE110:
 412              	.LBE109:
 413              	.LBE108:
 414              	.LBE107:
 415              	.LBE106:
 416              	.LBE105:
 417              		.loc 1 195 0
 418 0018 10BD     		pop	{r4, pc}
 419              		.cfi_endproc
 420              	.LFE338:
 421              		.size	sdStart, .-sdStart
 422 001a 00BF     		.section	.text.sdStop,"ax",%progbits
 423              		.align	1
 424              		.p2align 2,,3
 425              		.global	sdStop
 426              		.syntax unified
 427              		.thumb
 428              		.thumb_func
 429              		.fpu fpv4-sp-d16
 430              		.type	sdStop, %function
 431              	sdStop:
 432              	.LFB339:
 433              		.loc 1 206 0
 434              		.cfi_startproc
 435              		@ args = 0, pretend = 0, frame = 0
 436              		@ frame_needed = 0, uses_anonymous_args = 0
 437              	.LVL38:
 438 0000 10B5     		push	{r4, lr}
 439              		.cfi_def_cfa_offset 8
 440              		.cfi_offset 4, -8
 441              		.cfi_offset 14, -4
 442              	.LBB111:
 443              	.LBB112:
 444              	.LBB113:
 445              	.LBB114:
 446              	.LBB115:
 447              		.loc 3 493 0
 448 0002 2023     		movs	r3, #32
 449              	.LBE115:
 450              	.LBE114:
 451              	.LBE113:
 452              	.LBE112:
 453              	.LBE111:
 454              		.loc 1 206 0
 455 0004 0446     		mov	r4, r0
 456              	.LBB120:
ARM GAS  /tmp/ccGdnTbJ.s 			page 9


 457              	.LBB119:
 458              	.LBB118:
 459              	.LBB117:
 460              	.LBB116:
 461              		.loc 3 493 0
 462              		.syntax unified
 463              	@ 493 "./RM18A-ChibiOS18-Core/chibios/os/common/ext/ARM/CMSIS/Core/Include/cmsis_gcc.h" 1
 464 0006 83F31188 		MSR basepri, r3
 465              	@ 0 "" 2
 466              	.LVL39:
 467              		.thumb
 468              		.syntax unified
 469              	.LBE116:
 470              	.LBE117:
 471              	.LBE118:
 472              	.LBE119:
 473              	.LBE120:
 474              		.loc 1 215 0
 475 000a FFF7FEFF 		bl	sd_lld_stop
 476              	.LVL40:
 477              		.loc 1 216 0
 478 000e 0123     		movs	r3, #1
 479 0010 2372     		strb	r3, [r4, #8]
 480              		.loc 1 217 0
 481 0012 04F13000 		add	r0, r4, #48
 482 0016 FFF7FEFF 		bl	oqResetI
 483              	.LVL41:
 484              		.loc 1 218 0
 485 001a 04F10C00 		add	r0, r4, #12
 486 001e FFF7FEFF 		bl	iqResetI
 487              	.LVL42:
 488              	.LBB121:
 489              	.LBB122:
 490              		.file 4 "./RM18A-ChibiOS18-Core/chibios/os/hal/osal/rt/osal.h"
 491              		.loc 4 618 0
 492 0022 FFF7FEFF 		bl	chSchRescheduleS
 493              	.LVL43:
 494              	.LBE122:
 495              	.LBE121:
 496              	.LBB123:
 497              	.LBB124:
 498              	.LBB125:
 499              	.LBB126:
 500              	.LBB127:
 501              	.LBB128:
 502              		.loc 3 493 0
 503 0026 0023     		movs	r3, #0
 504              		.syntax unified
 505              	@ 493 "./RM18A-ChibiOS18-Core/chibios/os/common/ext/ARM/CMSIS/Core/Include/cmsis_gcc.h" 1
 506 0028 83F31188 		MSR basepri, r3
 507              	@ 0 "" 2
 508              	.LVL44:
 509              		.thumb
 510              		.syntax unified
 511              	.LBE128:
 512              	.LBE127:
 513              	.LBE126:
ARM GAS  /tmp/ccGdnTbJ.s 			page 10


 514              	.LBE125:
 515              	.LBE124:
 516              	.LBE123:
 517              		.loc 1 222 0
 518 002c 10BD     		pop	{r4, pc}
 519              		.cfi_endproc
 520              	.LFE339:
 521              		.size	sdStop, .-sdStop
 522 002e 00BF     		.section	.text.sdIncomingDataI,"ax",%progbits
 523              		.align	1
 524              		.p2align 2,,3
 525              		.global	sdIncomingDataI
 526              		.syntax unified
 527              		.thumb
 528              		.thumb_func
 529              		.fpu fpv4-sp-d16
 530              		.type	sdIncomingDataI, %function
 531              	sdIncomingDataI:
 532              	.LFB340:
 533              		.loc 1 240 0
 534              		.cfi_startproc
 535              		@ args = 0, pretend = 0, frame = 0
 536              		@ frame_needed = 0, uses_anonymous_args = 0
 537              	.LVL45:
 538 0000 38B5     		push	{r3, r4, r5, lr}
 539              		.cfi_def_cfa_offset 16
 540              		.cfi_offset 3, -16
 541              		.cfi_offset 4, -12
 542              		.cfi_offset 5, -8
 543              		.cfi_offset 14, -4
 544              		.loc 1 245 0
 545 0002 4369     		ldr	r3, [r0, #20]
 546              		.loc 1 240 0
 547 0004 0446     		mov	r4, r0
 548 0006 0D46     		mov	r5, r1
 549              		.loc 1 245 0
 550 0008 3BB1     		cbz	r3, .L24
 551              		.loc 1 247 0
 552 000a 2946     		mov	r1, r5
 553              	.LVL46:
 554 000c 04F10C00 		add	r0, r4, #12
 555              	.LVL47:
 556 0010 FFF7FEFF 		bl	iqPutI
 557              	.LVL48:
 558 0014 0028     		cmp	r0, #0
 559 0016 0BDB     		blt	.L25
 560              	.L20:
 561              		.loc 1 249 0
 562 0018 38BD     		pop	{r3, r4, r5, pc}
 563              	.LVL49:
 564              	.L24:
 565              	.LBB129:
 566              	.LBB130:
 567              		.loc 4 895 0
 568 001a 0421     		movs	r1, #4
 569              	.LVL50:
 570 001c 0844     		add	r0, r0, r1
ARM GAS  /tmp/ccGdnTbJ.s 			page 11


 571              	.LVL51:
 572 001e FFF7FEFF 		bl	chEvtBroadcastFlagsI
 573              	.LVL52:
 574              	.LBE130:
 575              	.LBE129:
 576              		.loc 1 247 0
 577 0022 2946     		mov	r1, r5
 578 0024 04F10C00 		add	r0, r4, #12
 579 0028 FFF7FEFF 		bl	iqPutI
 580              	.LVL53:
 581 002c 0028     		cmp	r0, #0
 582 002e F3DA     		bge	.L20
 583              	.LVL54:
 584              	.L25:
 585              	.LBB131:
 586              	.LBB132:
 587              		.loc 4 895 0
 588 0030 201D     		adds	r0, r4, #4
 589              	.LVL55:
 590 0032 4FF48061 		mov	r1, #1024
 591              	.LBE132:
 592              	.LBE131:
 593              		.loc 1 249 0
 594 0036 BDE83840 		pop	{r3, r4, r5, lr}
 595              		.cfi_restore 14
 596              		.cfi_restore 5
 597              		.cfi_restore 4
 598              		.cfi_restore 3
 599              		.cfi_def_cfa_offset 0
 600              	.LVL56:
 601              	.LBB134:
 602              	.LBB133:
 603              		.loc 4 895 0
 604 003a FFF7FEBF 		b	chEvtBroadcastFlagsI
 605              	.LVL57:
 606              	.LBE133:
 607              	.LBE134:
 608              		.cfi_endproc
 609              	.LFE340:
 610              		.size	sdIncomingDataI, .-sdIncomingDataI
 611 003e 00BF     		.section	.text.sdRequestDataI,"ax",%progbits
 612              		.align	1
 613              		.p2align 2,,3
 614              		.global	sdRequestDataI
 615              		.syntax unified
 616              		.thumb
 617              		.thumb_func
 618              		.fpu fpv4-sp-d16
 619              		.type	sdRequestDataI, %function
 620              	sdRequestDataI:
 621              	.LFB341:
 622              		.loc 1 266 0
 623              		.cfi_startproc
 624              		@ args = 0, pretend = 0, frame = 0
 625              		@ frame_needed = 0, uses_anonymous_args = 0
 626              	.LVL58:
 627 0000 38B5     		push	{r3, r4, r5, lr}
ARM GAS  /tmp/ccGdnTbJ.s 			page 12


 628              		.cfi_def_cfa_offset 16
 629              		.cfi_offset 3, -16
 630              		.cfi_offset 4, -12
 631              		.cfi_offset 5, -8
 632              		.cfi_offset 14, -4
 633              		.loc 1 266 0
 634 0002 0446     		mov	r4, r0
 635              		.loc 1 272 0
 636 0004 3030     		adds	r0, r0, #48
 637              	.LVL59:
 638 0006 FFF7FEFF 		bl	oqGetI
 639              	.LVL60:
 640              		.loc 1 273 0
 641 000a 051E     		subs	r5, r0, #0
 642 000c 01DB     		blt	.L29
 643              		.loc 1 276 0
 644 000e 2846     		mov	r0, r5
 645 0010 38BD     		pop	{r3, r4, r5, pc}
 646              	.LVL61:
 647              	.L29:
 648              	.LBB135:
 649              	.LBB136:
 650              		.loc 4 895 0
 651 0012 201D     		adds	r0, r4, #4
 652              	.LVL62:
 653 0014 0821     		movs	r1, #8
 654 0016 FFF7FEFF 		bl	chEvtBroadcastFlagsI
 655              	.LVL63:
 656              	.LBE136:
 657              	.LBE135:
 658              		.loc 1 276 0
 659 001a 2846     		mov	r0, r5
 660 001c 38BD     		pop	{r3, r4, r5, pc}
 661              		.cfi_endproc
 662              	.LFE341:
 663              		.size	sdRequestDataI, .-sdRequestDataI
 664 001e 00BF     		.section	.text.sdPutWouldBlock,"ax",%progbits
 665              		.align	1
 666              		.p2align 2,,3
 667              		.global	sdPutWouldBlock
 668              		.syntax unified
 669              		.thumb
 670              		.thumb_func
 671              		.fpu fpv4-sp-d16
 672              		.type	sdPutWouldBlock, %function
 673              	sdPutWouldBlock:
 674              	.LFB342:
 675              		.loc 1 293 0
 676              		.cfi_startproc
 677              		@ args = 0, pretend = 0, frame = 0
 678              		@ frame_needed = 0, uses_anonymous_args = 0
 679              		@ link register save eliminated.
 680              	.LVL64:
 681              	.LBB137:
 682              	.LBB138:
 683              	.LBB139:
 684              	.LBB140:
ARM GAS  /tmp/ccGdnTbJ.s 			page 13


 685              	.LBB141:
 686              		.loc 3 493 0
 687 0000 2023     		movs	r3, #32
 688              		.syntax unified
 689              	@ 493 "./RM18A-ChibiOS18-Core/chibios/os/common/ext/ARM/CMSIS/Core/Include/cmsis_gcc.h" 1
 690 0002 83F31188 		MSR basepri, r3
 691              	@ 0 "" 2
 692              	.LVL65:
 693              		.thumb
 694              		.syntax unified
 695              	.LBE141:
 696              	.LBE140:
 697              	.LBE139:
 698              	.LBE138:
 699              	.LBE137:
 700              	.LBB142:
 701              	.LBB143:
 702              	.LBB144:
 703              	.LBB145:
 704              	.LBB146:
 705              	.LBB147:
 706 0006 0023     		movs	r3, #0
 707              	.LBE147:
 708              	.LBE146:
 709              	.LBE145:
 710              	.LBE144:
 711              	.LBE143:
 712              	.LBE142:
 713              		.loc 1 297 0
 714 0008 806B     		ldr	r0, [r0, #56]
 715              	.LVL66:
 716              	.LBB153:
 717              	.LBB152:
 718              	.LBB151:
 719              	.LBB150:
 720              	.LBB149:
 721              	.LBB148:
 722              		.loc 3 493 0
 723              		.syntax unified
 724              	@ 493 "./RM18A-ChibiOS18-Core/chibios/os/common/ext/ARM/CMSIS/Core/Include/cmsis_gcc.h" 1
 725 000a 83F31188 		MSR basepri, r3
 726              	@ 0 "" 2
 727              	.LVL67:
 728              		.thumb
 729              		.syntax unified
 730              	.LBE148:
 731              	.LBE149:
 732              	.LBE150:
 733              	.LBE151:
 734              	.LBE152:
 735              	.LBE153:
 736              		.loc 1 301 0
 737 000e B0FA80F0 		clz	r0, r0
 738              	.LVL68:
 739 0012 4009     		lsrs	r0, r0, #5
 740 0014 7047     		bx	lr
 741              		.cfi_endproc
ARM GAS  /tmp/ccGdnTbJ.s 			page 14


 742              	.LFE342:
 743              		.size	sdPutWouldBlock, .-sdPutWouldBlock
 744 0016 00BF     		.section	.text.sdGetWouldBlock,"ax",%progbits
 745              		.align	1
 746              		.p2align 2,,3
 747              		.global	sdGetWouldBlock
 748              		.syntax unified
 749              		.thumb
 750              		.thumb_func
 751              		.fpu fpv4-sp-d16
 752              		.type	sdGetWouldBlock, %function
 753              	sdGetWouldBlock:
 754              	.LFB343:
 755              		.loc 1 318 0
 756              		.cfi_startproc
 757              		@ args = 0, pretend = 0, frame = 0
 758              		@ frame_needed = 0, uses_anonymous_args = 0
 759              		@ link register save eliminated.
 760              	.LVL69:
 761              	.LBB154:
 762              	.LBB155:
 763              	.LBB156:
 764              	.LBB157:
 765              	.LBB158:
 766              		.loc 3 493 0
 767 0000 2023     		movs	r3, #32
 768              		.syntax unified
 769              	@ 493 "./RM18A-ChibiOS18-Core/chibios/os/common/ext/ARM/CMSIS/Core/Include/cmsis_gcc.h" 1
 770 0002 83F31188 		MSR basepri, r3
 771              	@ 0 "" 2
 772              	.LVL70:
 773              		.thumb
 774              		.syntax unified
 775              	.LBE158:
 776              	.LBE157:
 777              	.LBE156:
 778              	.LBE155:
 779              	.LBE154:
 780              	.LBB159:
 781              	.LBB160:
 782              	.LBB161:
 783              	.LBB162:
 784              	.LBB163:
 785              	.LBB164:
 786 0006 0023     		movs	r3, #0
 787              	.LBE164:
 788              	.LBE163:
 789              	.LBE162:
 790              	.LBE161:
 791              	.LBE160:
 792              	.LBE159:
 793              		.loc 1 322 0
 794 0008 4069     		ldr	r0, [r0, #20]
 795              	.LVL71:
 796              	.LBB170:
 797              	.LBB169:
 798              	.LBB168:
ARM GAS  /tmp/ccGdnTbJ.s 			page 15


 799              	.LBB167:
 800              	.LBB166:
 801              	.LBB165:
 802              		.loc 3 493 0
 803              		.syntax unified
 804              	@ 493 "./RM18A-ChibiOS18-Core/chibios/os/common/ext/ARM/CMSIS/Core/Include/cmsis_gcc.h" 1
 805 000a 83F31188 		MSR basepri, r3
 806              	@ 0 "" 2
 807              	.LVL72:
 808              		.thumb
 809              		.syntax unified
 810              	.LBE165:
 811              	.LBE166:
 812              	.LBE167:
 813              	.LBE168:
 814              	.LBE169:
 815              	.LBE170:
 816              		.loc 1 326 0
 817 000e B0FA80F0 		clz	r0, r0
 818              	.LVL73:
 819 0012 4009     		lsrs	r0, r0, #5
 820 0014 7047     		bx	lr
 821              		.cfi_endproc
 822              	.LFE343:
 823              		.size	sdGetWouldBlock, .-sdGetWouldBlock
 824 0016 00BF     		.section	.text.sdControl,"ax",%progbits
 825              		.align	1
 826              		.p2align 2,,3
 827              		.global	sdControl
 828              		.syntax unified
 829              		.thumb
 830              		.thumb_func
 831              		.fpu fpv4-sp-d16
 832              		.type	sdControl, %function
 833              	sdControl:
 834              	.LFB344:
 835              		.loc 1 342 0
 836              		.cfi_startproc
 837              		@ args = 0, pretend = 0, frame = 0
 838              		@ frame_needed = 0, uses_anonymous_args = 0
 839              		@ link register save eliminated.
 840              	.LVL74:
 841              		.loc 1 345 0
 842 0000 0020     		movs	r0, #0
 843              	.LVL75:
 844 0002 7047     		bx	lr
 845              		.cfi_endproc
 846              	.LFE344:
 847              		.size	sdControl, .-sdControl
 848              		.section	.rodata.vmt,"a",%progbits
 849              		.align	2
 850              		.set	.LANCHOR0,. + 0
 851              		.type	vmt, %object
 852              		.size	vmt, 40
 853              	vmt:
 854 0000 00000000 		.word	0
 855 0004 00000000 		.word	_write
ARM GAS  /tmp/ccGdnTbJ.s 			page 16


 856 0008 00000000 		.word	_read
 857 000c 00000000 		.word	_put
 858 0010 00000000 		.word	_get
 859 0014 00000000 		.word	_putt
 860 0018 00000000 		.word	_gett
 861 001c 00000000 		.word	_writet
 862 0020 00000000 		.word	_readt
 863 0024 00000000 		.word	_ctl
 864              		.text
 865              	.Letext0:
 866              		.file 5 "/usr/lib/gcc/arm-none-eabi/7.3.1/include/stddef.h"
 867              		.file 6 "/usr/arm-none-eabi/include/machine/_default_types.h"
 868              		.file 7 "/usr/arm-none-eabi/include/sys/_stdint.h"
 869              		.file 8 "./RM18A-ChibiOS18-Core/chibios/os/common/ports/ARMCMx/compilers/GCC/chtypes.h"
 870              		.file 9 "./RM18A-ChibiOS18-Core/chibios/os/rt/include/chsystypes.h"
 871              		.file 10 "./RM18A-ChibiOS18-Core/chibios/os/rt/include/chschd.h"
 872              		.file 11 "./RM18A-ChibiOS18-Core/chibios/os/rt/include/chtime.h"
 873              		.file 12 "./RM18A-ChibiOS18-Core/chibios/os/common/ext/ARM/CMSIS/Core/Include/core_cm4.h"
 874              		.file 13 "./RM18A-ChibiOS18-Core/chibios/os/common/ext/ST/STM32F4xx/system_stm32f4xx.h"
 875              		.file 14 "./RM18A-ChibiOS18-Core/chibios/os/common/ext/ST/STM32F4xx/stm32f427xx.h"
 876              		.file 15 "./RM18A-ChibiOS18-Core/chibios/os/common/ports/ARMCMx/chcore.h"
 877              		.file 16 "./RM18A-ChibiOS18-Core/chibios/os/common/ports/ARMCMx/chcore_v7m.h"
 878              		.file 17 "./RM18A-ChibiOS18-Core/chibios/os/hal/ports/STM32/LLD/TIMv1/stm32_tim.h"
 879              		.file 18 "./RM18A-ChibiOS18-Core/chibios/os/rt/include/chtm.h"
 880              		.file 19 "./RM18A-ChibiOS18-Core/chibios/os/rt/include/chsem.h"
 881              		.file 20 "./RM18A-ChibiOS18-Core/chibios/os/rt/include/chmtx.h"
 882              		.file 21 "./RM18A-ChibiOS18-Core/chibios/os/rt/include/chsys.h"
 883              		.file 22 "./RM18A-ChibiOS18-Core/chibios/os/rt/include/chregistry.h"
 884              		.file 23 "./RM18A-ChibiOS18-Core/chibios/os/oslib/include/chmemcore.h"
 885              		.file 24 "./RM18A-ChibiOS18-Core/chibios/os/oslib/include/chmempools.h"
 886              		.file 25 "./RM18A-ChibiOS18-Core/chibios/os/oslib/include/chfactory.h"
 887              		.file 26 "./RM18A-ChibiOS18-Core/chibios/os/hal/ports/STM32/LLD/DMAv2/stm32_dma.h"
 888              		.file 27 "./RM18A-ChibiOS18-Core/chibios/os/hal/include/hal_queues.h"
 889              		.file 28 "./RM18A-ChibiOS18-Core/chibios/os/hal/include/hal_pal.h"
 890              		.file 29 "./RM18A-ChibiOS18-Core/chibios/os/hal/ports/STM32/LLD/GPIOv2/hal_pal_lld.h"
 891              		.file 30 "./RM18A-ChibiOS18-Core/chibios/os/hal/include/hal_adc.h"
 892              		.file 31 "./RM18A-ChibiOS18-Core/chibios/os/hal/ports/STM32/LLD/ADCv2/hal_adc_lld.h"
 893              		.file 32 "./RM18A-ChibiOS18-Core/chibios/os/hal/include/hal_can.h"
 894              		.file 33 "./RM18A-ChibiOS18-Core/chibios/os/hal/ports/STM32/LLD/CANv1/hal_can_lld.h"
 895              		.file 34 "./RM18A-ChibiOS18-Core/chibios/os/hal/include/hal_icu.h"
 896              		.file 35 "./RM18A-ChibiOS18-Core/chibios/os/hal/ports/STM32/LLD/TIMv1/hal_icu_lld.h"
 897              		.file 36 "./RM18A-ChibiOS18-Core/chibios/os/hal/include/hal_pwm.h"
 898              		.file 37 "./RM18A-ChibiOS18-Core/chibios/os/hal/ports/STM32/LLD/TIMv1/hal_pwm_lld.h"
 899              		.file 38 "./RM18A-ChibiOS18-Core/chibios/os/hal/include/hal_serial.h"
 900              		.file 39 "./RM18A-ChibiOS18-Core/chibios/os/hal/ports/STM32/LLD/USARTv1/hal_serial_lld.h"
 901              		.file 40 "./RM18A-ChibiOS18-Core/chibios/os/hal/include/hal_spi.h"
 902              		.file 41 "./RM18A-ChibiOS18-Core/chibios/os/hal/ports/STM32/LLD/SPIv1/hal_spi_lld.h"
 903              		.file 42 "./RM18A-ChibiOS18-Core/chibios/os/hal/include/hal_uart.h"
 904              		.file 43 "./RM18A-ChibiOS18-Core/chibios/os/hal/ports/STM32/LLD/USARTv1/hal_uart_lld.h"
 905              		.file 44 "./RM18A-ChibiOS18-Core/chibios/os/hal/include/hal_usb.h"
 906              		.file 45 "./RM18A-ChibiOS18-Core/chibios/os/hal/ports/STM32/LLD/OTGv1/hal_usb_lld.h"
 907              		.file 46 "./RM18A-ChibiOS18-Core/chibios/os/hal/ports/STM32/LLD/OTGv1/stm32_otg.h"