ARM GAS  /tmp/ccWFQyS8.s 			page 1


   1              		.cpu cortex-m4
   2              		.eabi_attribute 27, 1
   3              		.eabi_attribute 28, 1
   4              		.eabi_attribute 20, 1
   5              		.eabi_attribute 21, 1
   6              		.eabi_attribute 23, 3
   7              		.eabi_attribute 24, 1
   8              		.eabi_attribute 25, 1
   9              		.eabi_attribute 26, 1
  10              		.eabi_attribute 30, 2
  11              		.eabi_attribute 34, 1
  12              		.eabi_attribute 18, 4
  13              		.file	"hal_pwm_lld.c"
  14              		.text
  15              	.Ltext0:
  16              		.cfi_sections	.debug_frame
  17              		.section	.text.VectorA4,"ax",%progbits
  18              		.align	1
  19              		.p2align 2,,3
  20              		.global	VectorA4
  21              		.syntax unified
  22              		.thumb
  23              		.thumb_func
  24              		.fpu fpv4-sp-d16
  25              		.type	VectorA4, %function
  26              	VectorA4:
  27              	.LFB327:
  28              		.file 1 "./RM18A-ChibiOS18-Core/chibios/os/hal/ports/STM32/LLD/TIMv1/hal_pwm_lld.c"
  29              		.loc 1 150 0
  30              		.cfi_startproc
  31              		@ args = 0, pretend = 0, frame = 0
  32              		@ frame_needed = 0, uses_anonymous_args = 0
  33              	.LVL0:
  34 0000 38B5     		push	{r3, r4, r5, lr}
  35              		.cfi_def_cfa_offset 16
  36              		.cfi_offset 3, -16
  37              		.cfi_offset 4, -12
  38              		.cfi_offset 5, -8
  39              		.cfi_offset 14, -4
  40              	.LBB4:
  41              	.LBB5:
  42              		.loc 1 1028 0
  43 0002 174D     		ldr	r5, .L39
  44 0004 AB69     		ldr	r3, [r5, #24]
  45 0006 1C69     		ldr	r4, [r3, #16]
  46              	.LVL1:
  47              		.loc 1 1029 0
  48 0008 DA68     		ldr	r2, [r3, #12]
  49 000a 1440     		ands	r4, r4, r2
  50              	.LVL2:
  51 000c E2B2     		uxtb	r2, r4
  52              		.loc 1 1030 0
  53 000e D243     		mvns	r2, r2
  54 0010 1A61     		str	r2, [r3, #16]
  55              		.loc 1 1031 0
  56 0012 A307     		lsls	r3, r4, #30
  57 0014 04D5     		bpl	.L2
ARM GAS  /tmp/ccWFQyS8.s 			page 2


  58              		.loc 1 1032 0
  59 0016 6B68     		ldr	r3, [r5, #4]
  60 0018 1B69     		ldr	r3, [r3, #16]
  61              		.loc 1 1031 0
  62 001a 0BB1     		cbz	r3, .L2
  63              		.loc 1 1033 0
  64 001c 2846     		mov	r0, r5
  65 001e 9847     		blx	r3
  66              	.LVL3:
  67              	.L2:
  68              		.loc 1 1034 0
  69 0020 6007     		lsls	r0, r4, #29
  70 0022 04D5     		bpl	.L3
  71              		.loc 1 1035 0
  72 0024 6B68     		ldr	r3, [r5, #4]
  73 0026 9B69     		ldr	r3, [r3, #24]
  74              		.loc 1 1034 0
  75 0028 0BB1     		cbz	r3, .L3
  76              		.loc 1 1036 0
  77 002a 0D48     		ldr	r0, .L39
  78 002c 9847     		blx	r3
  79              	.LVL4:
  80              	.L3:
  81              		.loc 1 1037 0
  82 002e 2107     		lsls	r1, r4, #28
  83 0030 04D5     		bpl	.L4
  84              		.loc 1 1038 0
  85 0032 6B68     		ldr	r3, [r5, #4]
  86 0034 1B6A     		ldr	r3, [r3, #32]
  87              		.loc 1 1037 0
  88 0036 0BB1     		cbz	r3, .L4
  89              		.loc 1 1039 0
  90 0038 0948     		ldr	r0, .L39
  91 003a 9847     		blx	r3
  92              	.LVL5:
  93              	.L4:
  94              		.loc 1 1040 0
  95 003c E206     		lsls	r2, r4, #27
  96 003e 04D5     		bpl	.L5
  97              		.loc 1 1041 0
  98 0040 6B68     		ldr	r3, [r5, #4]
  99 0042 9B6A     		ldr	r3, [r3, #40]
 100              		.loc 1 1040 0
 101 0044 0BB1     		cbz	r3, .L5
 102              		.loc 1 1042 0
 103 0046 0648     		ldr	r0, .L39
 104 0048 9847     		blx	r3
 105              	.LVL6:
 106              	.L5:
 107              		.loc 1 1043 0
 108 004a E307     		lsls	r3, r4, #31
 109 004c 04D5     		bpl	.L6
 110 004e 6B68     		ldr	r3, [r5, #4]
 111 0050 9B68     		ldr	r3, [r3, #8]
 112 0052 0BB1     		cbz	r3, .L6
 113              		.loc 1 1044 0
 114 0054 0248     		ldr	r0, .L39
ARM GAS  /tmp/ccWFQyS8.s 			page 3


 115 0056 9847     		blx	r3
 116              	.LVL7:
 117              	.L6:
 118              	.LBE5:
 119              	.LBE4:
 120              		.loc 1 157 0
 121 0058 BDE83840 		pop	{r3, r4, r5, lr}
 122              		.cfi_restore 14
 123              		.cfi_restore 5
 124              		.cfi_restore 4
 125              		.cfi_restore 3
 126              		.cfi_def_cfa_offset 0
 127              		.loc 1 156 0
 128 005c FFF7FEBF 		b	_port_irq_epilogue
 129              	.LVL8:
 130              	.L40:
 131              		.align	2
 132              	.L39:
 133 0060 00000000 		.word	.LANCHOR0
 134              		.cfi_endproc
 135              	.LFE327:
 136              		.size	VectorA4, .-VectorA4
 137              		.section	.text.VectorAC,"ax",%progbits
 138              		.align	1
 139              		.p2align 2,,3
 140              		.global	VectorAC
 141              		.syntax unified
 142              		.thumb
 143              		.thumb_func
 144              		.fpu fpv4-sp-d16
 145              		.type	VectorAC, %function
 146              	VectorAC:
 147              	.LFB342:
 148              		.cfi_startproc
 149              		@ args = 0, pretend = 0, frame = 0
 150              		@ frame_needed = 0, uses_anonymous_args = 0
 151 0000 38B5     		push	{r3, r4, r5, lr}
 152              		.cfi_def_cfa_offset 16
 153              		.cfi_offset 3, -16
 154              		.cfi_offset 4, -12
 155              		.cfi_offset 5, -8
 156              		.cfi_offset 14, -4
 157 0002 174D     		ldr	r5, .L78
 158 0004 AB69     		ldr	r3, [r5, #24]
 159 0006 1C69     		ldr	r4, [r3, #16]
 160 0008 DA68     		ldr	r2, [r3, #12]
 161 000a 1440     		ands	r4, r4, r2
 162 000c E2B2     		uxtb	r2, r4
 163 000e D243     		mvns	r2, r2
 164 0010 1A61     		str	r2, [r3, #16]
 165 0012 A307     		lsls	r3, r4, #30
 166 0014 04D5     		bpl	.L42
 167 0016 6B68     		ldr	r3, [r5, #4]
 168 0018 1B69     		ldr	r3, [r3, #16]
 169 001a 0BB1     		cbz	r3, .L42
 170 001c 2846     		mov	r0, r5
 171 001e 9847     		blx	r3
ARM GAS  /tmp/ccWFQyS8.s 			page 4


 172              	.L42:
 173 0020 6007     		lsls	r0, r4, #29
 174 0022 04D5     		bpl	.L43
 175 0024 6B68     		ldr	r3, [r5, #4]
 176 0026 9B69     		ldr	r3, [r3, #24]
 177 0028 0BB1     		cbz	r3, .L43
 178 002a 0D48     		ldr	r0, .L78
 179 002c 9847     		blx	r3
 180              	.L43:
 181 002e 2107     		lsls	r1, r4, #28
 182 0030 04D5     		bpl	.L44
 183 0032 6B68     		ldr	r3, [r5, #4]
 184 0034 1B6A     		ldr	r3, [r3, #32]
 185 0036 0BB1     		cbz	r3, .L44
 186 0038 0948     		ldr	r0, .L78
 187 003a 9847     		blx	r3
 188              	.L44:
 189 003c E206     		lsls	r2, r4, #27
 190 003e 04D5     		bpl	.L45
 191 0040 6B68     		ldr	r3, [r5, #4]
 192 0042 9B6A     		ldr	r3, [r3, #40]
 193 0044 0BB1     		cbz	r3, .L45
 194 0046 0648     		ldr	r0, .L78
 195 0048 9847     		blx	r3
 196              	.L45:
 197 004a E307     		lsls	r3, r4, #31
 198 004c 04D5     		bpl	.L46
 199 004e 6B68     		ldr	r3, [r5, #4]
 200 0050 9B68     		ldr	r3, [r3, #8]
 201 0052 0BB1     		cbz	r3, .L46
 202 0054 0248     		ldr	r0, .L78
 203 0056 9847     		blx	r3
 204              	.L46:
 205 0058 BDE83840 		pop	{r3, r4, r5, lr}
 206              		.cfi_restore 14
 207              		.cfi_restore 5
 208              		.cfi_restore 4
 209              		.cfi_restore 3
 210              		.cfi_def_cfa_offset 0
 211 005c FFF7FEBF 		b	_port_irq_epilogue
 212              	.L79:
 213              		.align	2
 214              	.L78:
 215 0060 00000000 		.word	.LANCHOR0
 216              		.cfi_endproc
 217              	.LFE342:
 218              		.size	VectorAC, .-VectorAC
 219              		.section	.text.VectorB4,"ax",%progbits
 220              		.align	1
 221              		.p2align 2,,3
 222              		.global	VectorB4
 223              		.syntax unified
 224              		.thumb
 225              		.thumb_func
 226              		.fpu fpv4-sp-d16
 227              		.type	VectorB4, %function
 228              	VectorB4:
ARM GAS  /tmp/ccWFQyS8.s 			page 5


 229              	.LFB329:
 230              		.loc 1 212 0
 231              		.cfi_startproc
 232              		@ args = 0, pretend = 0, frame = 0
 233              		@ frame_needed = 0, uses_anonymous_args = 0
 234              	.LVL9:
 235              		.loc 1 212 0
 236 0000 38B5     		push	{r3, r4, r5, lr}
 237              		.cfi_def_cfa_offset 16
 238              		.cfi_offset 3, -16
 239              		.cfi_offset 4, -12
 240              		.cfi_offset 5, -8
 241              		.cfi_offset 14, -4
 242              	.LBB8:
 243              	.LBB9:
 244              		.loc 1 1028 0
 245 0002 174D     		ldr	r5, .L117
 246 0004 AB69     		ldr	r3, [r5, #24]
 247 0006 1C69     		ldr	r4, [r3, #16]
 248              	.LVL10:
 249              		.loc 1 1029 0
 250 0008 DA68     		ldr	r2, [r3, #12]
 251 000a 1440     		ands	r4, r4, r2
 252              	.LVL11:
 253 000c E2B2     		uxtb	r2, r4
 254              		.loc 1 1030 0
 255 000e D243     		mvns	r2, r2
 256 0010 1A61     		str	r2, [r3, #16]
 257              		.loc 1 1031 0
 258 0012 A307     		lsls	r3, r4, #30
 259 0014 04D5     		bpl	.L81
 260              		.loc 1 1032 0
 261 0016 6B68     		ldr	r3, [r5, #4]
 262 0018 1B69     		ldr	r3, [r3, #16]
 263              		.loc 1 1031 0
 264 001a 0BB1     		cbz	r3, .L81
 265              		.loc 1 1033 0
 266 001c 2846     		mov	r0, r5
 267 001e 9847     		blx	r3
 268              	.LVL12:
 269              	.L81:
 270              		.loc 1 1034 0
 271 0020 6007     		lsls	r0, r4, #29
 272 0022 04D5     		bpl	.L82
 273              		.loc 1 1035 0
 274 0024 6B68     		ldr	r3, [r5, #4]
 275 0026 9B69     		ldr	r3, [r3, #24]
 276              		.loc 1 1034 0
 277 0028 0BB1     		cbz	r3, .L82
 278              		.loc 1 1036 0
 279 002a 0D48     		ldr	r0, .L117
 280 002c 9847     		blx	r3
 281              	.LVL13:
 282              	.L82:
 283              		.loc 1 1037 0
 284 002e 2107     		lsls	r1, r4, #28
 285 0030 04D5     		bpl	.L83
ARM GAS  /tmp/ccWFQyS8.s 			page 6


 286              		.loc 1 1038 0
 287 0032 6B68     		ldr	r3, [r5, #4]
 288 0034 1B6A     		ldr	r3, [r3, #32]
 289              		.loc 1 1037 0
 290 0036 0BB1     		cbz	r3, .L83
 291              		.loc 1 1039 0
 292 0038 0948     		ldr	r0, .L117
 293 003a 9847     		blx	r3
 294              	.LVL14:
 295              	.L83:
 296              		.loc 1 1040 0
 297 003c E206     		lsls	r2, r4, #27
 298 003e 04D5     		bpl	.L84
 299              		.loc 1 1041 0
 300 0040 6B68     		ldr	r3, [r5, #4]
 301 0042 9B6A     		ldr	r3, [r3, #40]
 302              		.loc 1 1040 0
 303 0044 0BB1     		cbz	r3, .L84
 304              		.loc 1 1042 0
 305 0046 0648     		ldr	r0, .L117
 306 0048 9847     		blx	r3
 307              	.LVL15:
 308              	.L84:
 309              		.loc 1 1043 0
 310 004a E307     		lsls	r3, r4, #31
 311 004c 04D5     		bpl	.L85
 312 004e 6B68     		ldr	r3, [r5, #4]
 313 0050 9B68     		ldr	r3, [r3, #8]
 314 0052 0BB1     		cbz	r3, .L85
 315              		.loc 1 1044 0
 316 0054 0248     		ldr	r0, .L117
 317 0056 9847     		blx	r3
 318              	.LVL16:
 319              	.L85:
 320              	.LBE9:
 321              	.LBE8:
 322              		.loc 1 219 0
 323 0058 BDE83840 		pop	{r3, r4, r5, lr}
 324              		.cfi_restore 14
 325              		.cfi_restore 5
 326              		.cfi_restore 4
 327              		.cfi_restore 3
 328              		.cfi_def_cfa_offset 0
 329              		.loc 1 218 0
 330 005c FFF7FEBF 		b	_port_irq_epilogue
 331              	.LVL17:
 332              	.L118:
 333              		.align	2
 334              	.L117:
 335 0060 00000000 		.word	.LANCHOR1
 336              		.cfi_endproc
 337              	.LFE329:
 338              		.size	VectorB4, .-VectorB4
 339              		.section	.text.VectorEC,"ax",%progbits
 340              		.align	1
 341              		.p2align 2,,3
 342              		.global	VectorEC
ARM GAS  /tmp/ccWFQyS8.s 			page 7


 343              		.syntax unified
 344              		.thumb
 345              		.thumb_func
 346              		.fpu fpv4-sp-d16
 347              		.type	VectorEC, %function
 348              	VectorEC:
 349              	.LFB330:
 350              		.loc 1 340 0
 351              		.cfi_startproc
 352              		@ args = 0, pretend = 0, frame = 0
 353              		@ frame_needed = 0, uses_anonymous_args = 0
 354              	.LVL18:
 355 0000 38B5     		push	{r3, r4, r5, lr}
 356              		.cfi_def_cfa_offset 16
 357              		.cfi_offset 3, -16
 358              		.cfi_offset 4, -12
 359              		.cfi_offset 5, -8
 360              		.cfi_offset 14, -4
 361              	.LBB12:
 362              	.LBB13:
 363              		.loc 1 1028 0
 364 0002 174D     		ldr	r5, .L156
 365 0004 AB69     		ldr	r3, [r5, #24]
 366 0006 1C69     		ldr	r4, [r3, #16]
 367              	.LVL19:
 368              		.loc 1 1029 0
 369 0008 DA68     		ldr	r2, [r3, #12]
 370 000a 1440     		ands	r4, r4, r2
 371              	.LVL20:
 372 000c E2B2     		uxtb	r2, r4
 373              		.loc 1 1030 0
 374 000e D243     		mvns	r2, r2
 375 0010 1A61     		str	r2, [r3, #16]
 376              		.loc 1 1031 0
 377 0012 A307     		lsls	r3, r4, #30
 378 0014 04D5     		bpl	.L120
 379              		.loc 1 1032 0
 380 0016 6B68     		ldr	r3, [r5, #4]
 381 0018 1B69     		ldr	r3, [r3, #16]
 382              		.loc 1 1031 0
 383 001a 0BB1     		cbz	r3, .L120
 384              		.loc 1 1033 0
 385 001c 2846     		mov	r0, r5
 386 001e 9847     		blx	r3
 387              	.LVL21:
 388              	.L120:
 389              		.loc 1 1034 0
 390 0020 6007     		lsls	r0, r4, #29
 391 0022 04D5     		bpl	.L121
 392              		.loc 1 1035 0
 393 0024 6B68     		ldr	r3, [r5, #4]
 394 0026 9B69     		ldr	r3, [r3, #24]
 395              		.loc 1 1034 0
 396 0028 0BB1     		cbz	r3, .L121
 397              		.loc 1 1036 0
 398 002a 0D48     		ldr	r0, .L156
 399 002c 9847     		blx	r3
ARM GAS  /tmp/ccWFQyS8.s 			page 8


 400              	.LVL22:
 401              	.L121:
 402              		.loc 1 1037 0
 403 002e 2107     		lsls	r1, r4, #28
 404 0030 04D5     		bpl	.L122
 405              		.loc 1 1038 0
 406 0032 6B68     		ldr	r3, [r5, #4]
 407 0034 1B6A     		ldr	r3, [r3, #32]
 408              		.loc 1 1037 0
 409 0036 0BB1     		cbz	r3, .L122
 410              		.loc 1 1039 0
 411 0038 0948     		ldr	r0, .L156
 412 003a 9847     		blx	r3
 413              	.LVL23:
 414              	.L122:
 415              		.loc 1 1040 0
 416 003c E206     		lsls	r2, r4, #27
 417 003e 04D5     		bpl	.L123
 418              		.loc 1 1041 0
 419 0040 6B68     		ldr	r3, [r5, #4]
 420 0042 9B6A     		ldr	r3, [r3, #40]
 421              		.loc 1 1040 0
 422 0044 0BB1     		cbz	r3, .L123
 423              		.loc 1 1042 0
 424 0046 0648     		ldr	r0, .L156
 425 0048 9847     		blx	r3
 426              	.LVL24:
 427              	.L123:
 428              		.loc 1 1043 0
 429 004a E307     		lsls	r3, r4, #31
 430 004c 04D5     		bpl	.L124
 431 004e 6B68     		ldr	r3, [r5, #4]
 432 0050 9B68     		ldr	r3, [r3, #8]
 433 0052 0BB1     		cbz	r3, .L124
 434              		.loc 1 1044 0
 435 0054 0248     		ldr	r0, .L156
 436 0056 9847     		blx	r3
 437              	.LVL25:
 438              	.L124:
 439              	.LBE13:
 440              	.LBE12:
 441              		.loc 1 347 0
 442 0058 BDE83840 		pop	{r3, r4, r5, lr}
 443              		.cfi_restore 14
 444              		.cfi_restore 5
 445              		.cfi_restore 4
 446              		.cfi_restore 3
 447              		.cfi_def_cfa_offset 0
 448              		.loc 1 346 0
 449 005c FFF7FEBF 		b	_port_irq_epilogue
 450              	.LVL26:
 451              	.L157:
 452              		.align	2
 453              	.L156:
 454 0060 00000000 		.word	.LANCHOR2
 455              		.cfi_endproc
 456              	.LFE330:
ARM GAS  /tmp/ccWFQyS8.s 			page 9


 457              		.size	VectorEC, .-VectorEC
 458              		.section	.text.pwm_lld_init,"ax",%progbits
 459              		.align	1
 460              		.p2align 2,,3
 461              		.global	pwm_lld_init
 462              		.syntax unified
 463              		.thumb
 464              		.thumb_func
 465              		.fpu fpv4-sp-d16
 466              		.type	pwm_lld_init, %function
 467              	pwm_lld_init:
 468              	.LFB331:
 469              		.loc 1 378 0
 470              		.cfi_startproc
 471              		@ args = 0, pretend = 0, frame = 0
 472              		@ frame_needed = 0, uses_anonymous_args = 0
 473 0000 F8B5     		push	{r3, r4, r5, r6, r7, lr}
 474              		.cfi_def_cfa_offset 24
 475              		.cfi_offset 3, -24
 476              		.cfi_offset 4, -20
 477              		.cfi_offset 5, -16
 478              		.cfi_offset 6, -12
 479              		.cfi_offset 7, -8
 480              		.cfi_offset 14, -4
 481              		.loc 1 382 0
 482 0002 0C4E     		ldr	r6, .L160
 483              		.loc 1 396 0
 484 0004 0C4D     		ldr	r5, .L160+4
 485              		.loc 1 431 0
 486 0006 0D4C     		ldr	r4, .L160+8
 487              		.loc 1 382 0
 488 0008 3046     		mov	r0, r6
 489 000a FFF7FEFF 		bl	pwmObjectInit
 490              	.LVL27:
 491              		.loc 1 383 0
 492 000e 0427     		movs	r7, #4
 493              		.loc 1 384 0
 494 0010 0B4B     		ldr	r3, .L160+12
 495 0012 B361     		str	r3, [r6, #24]
 496              		.loc 1 396 0
 497 0014 2846     		mov	r0, r5
 498              		.loc 1 383 0
 499 0016 3774     		strb	r7, [r6, #16]
 500              		.loc 1 396 0
 501 0018 FFF7FEFF 		bl	pwmObjectInit
 502              	.LVL28:
 503              		.loc 1 398 0
 504 001c 094B     		ldr	r3, .L160+16
 505 001e AB61     		str	r3, [r5, #24]
 506              		.loc 1 431 0
 507 0020 2046     		mov	r0, r4
 508              		.loc 1 397 0
 509 0022 2F74     		strb	r7, [r5, #16]
 510              		.loc 1 431 0
 511 0024 FFF7FEFF 		bl	pwmObjectInit
 512              	.LVL29:
 513              		.loc 1 432 0
ARM GAS  /tmp/ccWFQyS8.s 			page 10


 514 0028 0222     		movs	r2, #2
 515              		.loc 1 433 0
 516 002a 074B     		ldr	r3, .L160+20
 517              		.loc 1 432 0
 518 002c 2274     		strb	r2, [r4, #16]
 519              		.loc 1 433 0
 520 002e A361     		str	r3, [r4, #24]
 521              		.loc 1 456 0
 522 0030 F8BD     		pop	{r3, r4, r5, r6, r7, pc}
 523              	.L161:
 524 0032 00BF     		.align	2
 525              	.L160:
 526 0034 00000000 		.word	.LANCHOR0
 527 0038 00000000 		.word	.LANCHOR1
 528 003c 00000000 		.word	.LANCHOR2
 529 0040 00000140 		.word	1073807360
 530 0044 00040040 		.word	1073742848
 531 0048 00180040 		.word	1073747968
 532              		.cfi_endproc
 533              	.LFE331:
 534              		.size	pwm_lld_init, .-pwm_lld_init
 535              		.section	.text.pwm_lld_start,"ax",%progbits
 536              		.align	1
 537              		.p2align 2,,3
 538              		.global	pwm_lld_start
 539              		.syntax unified
 540              		.thumb
 541              		.thumb_func
 542              		.fpu fpv4-sp-d16
 543              		.type	pwm_lld_start, %function
 544              	pwm_lld_start:
 545              	.LFB332:
 546              		.loc 1 467 0
 547              		.cfi_startproc
 548              		@ args = 0, pretend = 0, frame = 0
 549              		@ frame_needed = 0, uses_anonymous_args = 0
 550              	.LVL30:
 551              		.loc 1 471 0
 552 0000 0378     		ldrb	r3, [r0]	@ zero_extendqisi2
 553 0002 012B     		cmp	r3, #1
 554              		.loc 1 467 0
 555 0004 70B5     		push	{r4, r5, r6, lr}
 556              		.cfi_def_cfa_offset 16
 557              		.cfi_offset 4, -16
 558              		.cfi_offset 5, -12
 559              		.cfi_offset 6, -8
 560              		.cfi_offset 14, -4
 561              		.loc 1 467 0
 562 0006 0446     		mov	r4, r0
 563              		.loc 1 471 0
 564 0008 4ED0     		beq	.L192
 565              		.loc 1 644 0
 566 000a 8369     		ldr	r3, [r0, #24]
 567 000c 0022     		movs	r2, #0
 568 000e 1A60     		str	r2, [r3]
 569              		.loc 1 645 0
 570 0010 5A63     		str	r2, [r3, #52]
ARM GAS  /tmp/ccWFQyS8.s 			page 11


 571              		.loc 1 646 0
 572 0012 9A63     		str	r2, [r3, #56]
 573              		.loc 1 647 0
 574 0014 DA63     		str	r2, [r3, #60]
 575              		.loc 1 648 0
 576 0016 1A64     		str	r2, [r3, #64]
 577              		.loc 1 655 0
 578 0018 5A62     		str	r2, [r3, #36]
 579              	.LVL31:
 580              	.L167:
 581              		.loc 1 664 0
 582 001a D4E90115 		ldrd	r1, r5, [r4, #4]
 583              		.loc 1 669 0
 584 001e CA68     		ldr	r2, [r1, #12]
 585              		.loc 1 659 0
 586 0020 6069     		ldr	r0, [r4, #20]
 587 0022 0E68     		ldr	r6, [r1]
 588 0024 B0FBF6F0 		udiv	r0, r0, r6
 589              		.loc 1 669 0
 590 0028 02F00F02 		and	r2, r2, #15
 591              		.loc 1 664 0
 592 002c 6C1E     		subs	r4, r5, #1
 593              	.LVL32:
 594              		.loc 1 659 0
 595 002e 0138     		subs	r0, r0, #1
 596              	.LVL33:
 597              		.loc 1 665 0
 598 0030 CD6A     		ldr	r5, [r1, #44]
 599              		.loc 1 663 0
 600 0032 9862     		str	r0, [r3, #40]
 601              		.loc 1 669 0
 602 0034 012A     		cmp	r2, #1
 603              		.loc 1 664 0
 604 0036 DC62     		str	r4, [r3, #44]
 605              		.loc 1 665 0
 606 0038 5D60     		str	r5, [r3, #4]
 607              	.LVL34:
 608              		.loc 1 669 0
 609 003a 03D0     		beq	.L168
 610              		.loc 1 668 0
 611 003c 022A     		cmp	r2, #2
 612 003e 0CBF     		ite	eq
 613 0040 0322     		moveq	r2, #3
 614 0042 0022     		movne	r2, #0
 615              	.L168:
 616              	.LVL35:
 617              		.loc 1 679 0
 618 0044 4869     		ldr	r0, [r1, #20]
 619              	.LVL36:
 620 0046 00F00F00 		and	r0, r0, #15
 621 004a 0128     		cmp	r0, #1
 622 004c 29D0     		beq	.L172
 623 004e 0228     		cmp	r0, #2
 624 0050 25D0     		beq	.L193
 625              	.L171:
 626              		.loc 1 689 0
 627 0052 C869     		ldr	r0, [r1, #28]
ARM GAS  /tmp/ccWFQyS8.s 			page 12


 628 0054 00F00F00 		and	r0, r0, #15
 629 0058 0128     		cmp	r0, #1
 630 005a 1DD0     		beq	.L175
 631 005c 0228     		cmp	r0, #2
 632 005e 19D0     		beq	.L194
 633              	.L174:
 634              		.loc 1 699 0
 635 0060 486A     		ldr	r0, [r1, #36]
 636 0062 00F00F00 		and	r0, r0, #15
 637 0066 0128     		cmp	r0, #1
 638 0068 03D0     		beq	.L178
 639 006a 0228     		cmp	r0, #2
 640 006c 03D1     		bne	.L177
 641              		.loc 1 701 0
 642 006e 42F40052 		orr	r2, r2, #8192
 643              	.LVL37:
 644              	.L178:
 645              		.loc 1 704 0
 646 0072 42F48052 		orr	r2, r2, #4096
 647              	.LVL38:
 648              	.L177:
 649              		.loc 1 755 0
 650 0076 096B     		ldr	r1, [r1, #48]
 651              		.loc 1 752 0
 652 0078 1A62     		str	r2, [r3, #32]
 653              		.loc 1 753 0
 654 007a 0125     		movs	r5, #1
 655              		.loc 1 755 0
 656 007c 21F0FF02 		bic	r2, r1, #255
 657              	.LVL39:
 658              		.loc 1 754 0
 659 0080 0024     		movs	r4, #0
 660              		.loc 1 761 0
 661 0082 4FF40040 		mov	r0, #32768
 662              		.loc 1 765 0
 663 0086 8521     		movs	r1, #133
 664              		.loc 1 753 0
 665 0088 5D61     		str	r5, [r3, #20]
 666              	.LVL40:
 667              		.loc 1 754 0
 668 008a 1C61     		str	r4, [r3, #16]
 669              		.loc 1 755 0
 670 008c DA60     		str	r2, [r3, #12]
 671              		.loc 1 761 0
 672 008e 5864     		str	r0, [r3, #68]
 673              		.loc 1 765 0
 674 0090 1960     		str	r1, [r3]
 675              		.loc 1 767 0
 676 0092 70BD     		pop	{r4, r5, r6, pc}
 677              	.LVL41:
 678              	.L194:
 679              		.loc 1 691 0
 680 0094 42F40072 		orr	r2, r2, #512
 681              	.LVL42:
 682              	.L175:
 683              		.loc 1 694 0
 684 0098 42F48072 		orr	r2, r2, #256
ARM GAS  /tmp/ccWFQyS8.s 			page 13


 685              	.LVL43:
 686 009c E0E7     		b	.L174
 687              	.L193:
 688              		.loc 1 681 0
 689 009e 42F02002 		orr	r2, r2, #32
 690              	.LVL44:
 691              	.L172:
 692              		.loc 1 684 0
 693 00a2 42F01002 		orr	r2, r2, #16
 694              	.LVL45:
 695 00a6 D4E7     		b	.L171
 696              	.LVL46:
 697              	.L192:
 698              		.loc 1 474 0
 699 00a8 304B     		ldr	r3, .L198
 700 00aa 9842     		cmp	r0, r3
 701 00ac 3FD0     		beq	.L195
 702              		.loc 1 505 0
 703 00ae 304B     		ldr	r3, .L198+4
 704 00b0 9842     		cmp	r0, r3
 705 00b2 22D0     		beq	.L196
 706              		.loc 1 581 0
 707 00b4 2F4B     		ldr	r3, .L198+8
 708 00b6 9842     		cmp	r0, r3
 709 00b8 05D0     		beq	.L197
 710              	.LVL47:
 711              	.L165:
 712              		.loc 1 633 0
 713 00ba A369     		ldr	r3, [r4, #24]
 714 00bc 46F66802 		movw	r2, #26728
 715 00c0 9A61     		str	r2, [r3, #24]
 716              		.loc 1 635 0
 717 00c2 DA61     		str	r2, [r3, #28]
 718 00c4 A9E7     		b	.L167
 719              	.LVL48:
 720              	.L197:
 721              		.loc 1 582 0
 722 00c6 2C4B     		ldr	r3, .L198+12
 723 00c8 1A6C     		ldr	r2, [r3, #64]
 724 00ca 42F04002 		orr	r2, r2, #64
 725 00ce 1A64     		str	r2, [r3, #64]
 726 00d0 1A6E     		ldr	r2, [r3, #96]
 727 00d2 42F04002 		orr	r2, r2, #64
 728 00d6 1A66     		str	r2, [r3, #96]
 729 00d8 1A6E     		ldr	r2, [r3, #96]
 730              		.loc 1 583 0
 731 00da 1A6A     		ldr	r2, [r3, #32]
 732 00dc 42F04002 		orr	r2, r2, #64
 733 00e0 1A62     		str	r2, [r3, #32]
 734 00e2 1A6A     		ldr	r2, [r3, #32]
 735 00e4 22F04002 		bic	r2, r2, #64
 736 00e8 1A62     		str	r2, [r3, #32]
 737              		.loc 1 585 0
 738 00ea 0721     		movs	r1, #7
 739 00ec 2B20     		movs	r0, #43
 740              	.LVL49:
 741              		.loc 1 583 0
ARM GAS  /tmp/ccWFQyS8.s 			page 14


 742 00ee 1B6A     		ldr	r3, [r3, #32]
 743              		.loc 1 585 0
 744 00f0 FFF7FEFF 		bl	nvicEnableVector
 745              	.LVL50:
 746              		.loc 1 590 0
 747 00f4 214B     		ldr	r3, .L198+16
 748 00f6 6361     		str	r3, [r4, #20]
 749 00f8 DFE7     		b	.L165
 750              	.LVL51:
 751              	.L196:
 752              		.loc 1 506 0
 753 00fa 1F4B     		ldr	r3, .L198+12
 754 00fc 1A6C     		ldr	r2, [r3, #64]
 755 00fe 42F00202 		orr	r2, r2, #2
 756 0102 1A64     		str	r2, [r3, #64]
 757 0104 1A6E     		ldr	r2, [r3, #96]
 758 0106 42F00202 		orr	r2, r2, #2
 759 010a 1A66     		str	r2, [r3, #96]
 760 010c 1A6E     		ldr	r2, [r3, #96]
 761              		.loc 1 507 0
 762 010e 1A6A     		ldr	r2, [r3, #32]
 763 0110 42F00202 		orr	r2, r2, #2
 764 0114 1A62     		str	r2, [r3, #32]
 765 0116 1A6A     		ldr	r2, [r3, #32]
 766 0118 22F00202 		bic	r2, r2, #2
 767 011c 1A62     		str	r2, [r3, #32]
 768              		.loc 1 509 0
 769 011e 0721     		movs	r1, #7
 770 0120 1D20     		movs	r0, #29
 771              	.LVL52:
 772              		.loc 1 507 0
 773 0122 1B6A     		ldr	r3, [r3, #32]
 774              		.loc 1 509 0
 775 0124 FFF7FEFF 		bl	nvicEnableVector
 776              	.LVL53:
 777              		.loc 1 514 0
 778 0128 154B     		ldr	r3, .L198+20
 779 012a 6361     		str	r3, [r4, #20]
 780 012c C5E7     		b	.L165
 781              	.LVL54:
 782              	.L195:
 783              		.loc 1 475 0
 784 012e 124B     		ldr	r3, .L198+12
 785 0130 5A6C     		ldr	r2, [r3, #68]
 786 0132 42F00102 		orr	r2, r2, #1
 787 0136 5A64     		str	r2, [r3, #68]
 788 0138 5A6E     		ldr	r2, [r3, #100]
 789 013a 42F00102 		orr	r2, r2, #1
 790 013e 5A66     		str	r2, [r3, #100]
 791 0140 5A6E     		ldr	r2, [r3, #100]
 792              		.loc 1 476 0
 793 0142 5A6A     		ldr	r2, [r3, #36]
 794 0144 42F00102 		orr	r2, r2, #1
 795 0148 5A62     		str	r2, [r3, #36]
 796 014a 5A6A     		ldr	r2, [r3, #36]
 797 014c 22F00102 		bic	r2, r2, #1
 798 0150 5A62     		str	r2, [r3, #36]
ARM GAS  /tmp/ccWFQyS8.s 			page 15


 799              		.loc 1 478 0
 800 0152 0721     		movs	r1, #7
 801 0154 1920     		movs	r0, #25
 802              	.LVL55:
 803              		.loc 1 476 0
 804 0156 5B6A     		ldr	r3, [r3, #36]
 805              		.loc 1 478 0
 806 0158 FFF7FEFF 		bl	nvicEnableVector
 807              	.LVL56:
 808              		.loc 1 479 0
 809 015c 0721     		movs	r1, #7
 810 015e 1B20     		movs	r0, #27
 811 0160 FFF7FEFF 		bl	nvicEnableVector
 812              	.LVL57:
 813              		.loc 1 484 0
 814 0164 054B     		ldr	r3, .L198+16
 815 0166 6361     		str	r3, [r4, #20]
 816 0168 A7E7     		b	.L165
 817              	.L199:
 818 016a 00BF     		.align	2
 819              	.L198:
 820 016c 00000000 		.word	.LANCHOR0
 821 0170 00000000 		.word	.LANCHOR1
 822 0174 00000000 		.word	.LANCHOR2
 823 0178 00380240 		.word	1073887232
 824 017c 007A030A 		.word	168000000
 825 0180 00BD0105 		.word	84000000
 826              		.cfi_endproc
 827              	.LFE332:
 828              		.size	pwm_lld_start, .-pwm_lld_start
 829              		.section	.text.pwm_lld_stop,"ax",%progbits
 830              		.align	1
 831              		.p2align 2,,3
 832              		.global	pwm_lld_stop
 833              		.syntax unified
 834              		.thumb
 835              		.thumb_func
 836              		.fpu fpv4-sp-d16
 837              		.type	pwm_lld_stop, %function
 838              	pwm_lld_stop:
 839              	.LFB333:
 840              		.loc 1 776 0
 841              		.cfi_startproc
 842              		@ args = 0, pretend = 0, frame = 0
 843              		@ frame_needed = 0, uses_anonymous_args = 0
 844              	.LVL58:
 845 0000 08B5     		push	{r3, lr}
 846              		.cfi_def_cfa_offset 8
 847              		.cfi_offset 3, -8
 848              		.cfi_offset 14, -4
 849              		.loc 1 779 0
 850 0002 0378     		ldrb	r3, [r0]	@ zero_extendqisi2
 851 0004 022B     		cmp	r3, #2
 852 0006 00D0     		beq	.L207
 853              	.L200:
 854              		.loc 1 879 0
 855 0008 08BD     		pop	{r3, pc}
ARM GAS  /tmp/ccWFQyS8.s 			page 16


 856              	.L207:
 857              		.loc 1 788 0
 858 000a 1E49     		ldr	r1, .L210
 859              		.loc 1 780 0
 860 000c 8369     		ldr	r3, [r0, #24]
 861 000e 0022     		movs	r2, #0
 862              		.loc 1 788 0
 863 0010 8842     		cmp	r0, r1
 864              		.loc 1 780 0
 865 0012 1A60     		str	r2, [r3]
 866              		.loc 1 781 0
 867 0014 DA60     		str	r2, [r3, #12]
 868              		.loc 1 782 0
 869 0016 1A61     		str	r2, [r3, #16]
 870              		.loc 1 784 0
 871 0018 5A64     		str	r2, [r3, #68]
 872              		.loc 1 788 0
 873 001a 21D0     		beq	.L208
 874              		.loc 1 807 0
 875 001c 1A4B     		ldr	r3, .L210+4
 876 001e 9842     		cmp	r0, r3
 877 0020 10D0     		beq	.L209
 878              		.loc 1 853 0
 879 0022 1A4B     		ldr	r3, .L210+8
 880 0024 9842     		cmp	r0, r3
 881 0026 EFD1     		bne	.L200
 882              		.loc 1 855 0
 883 0028 2B20     		movs	r0, #43
 884              	.LVL59:
 885 002a FFF7FEFF 		bl	nvicDisableVector
 886              	.LVL60:
 887              		.loc 1 857 0
 888 002e 184B     		ldr	r3, .L210+12
 889 0030 1A6C     		ldr	r2, [r3, #64]
 890 0032 22F04002 		bic	r2, r2, #64
 891 0036 1A64     		str	r2, [r3, #64]
 892 0038 1A6E     		ldr	r2, [r3, #96]
 893 003a 22F04002 		bic	r2, r2, #64
 894 003e 1A66     		str	r2, [r3, #96]
 895 0040 1B6E     		ldr	r3, [r3, #96]
 896              		.loc 1 879 0
 897 0042 08BD     		pop	{r3, pc}
 898              	.LVL61:
 899              	.L209:
 900              		.loc 1 809 0
 901 0044 1D20     		movs	r0, #29
 902              	.LVL62:
 903 0046 FFF7FEFF 		bl	nvicDisableVector
 904              	.LVL63:
 905              		.loc 1 811 0
 906 004a 114B     		ldr	r3, .L210+12
 907 004c 1A6C     		ldr	r2, [r3, #64]
 908 004e 22F00202 		bic	r2, r2, #2
 909 0052 1A64     		str	r2, [r3, #64]
 910 0054 1A6E     		ldr	r2, [r3, #96]
 911 0056 22F00202 		bic	r2, r2, #2
 912 005a 1A66     		str	r2, [r3, #96]
ARM GAS  /tmp/ccWFQyS8.s 			page 17


 913 005c 1B6E     		ldr	r3, [r3, #96]
 914              		.loc 1 879 0
 915 005e 08BD     		pop	{r3, pc}
 916              	.LVL64:
 917              	.L208:
 918              		.loc 1 790 0
 919 0060 1920     		movs	r0, #25
 920              	.LVL65:
 921 0062 FFF7FEFF 		bl	nvicDisableVector
 922              	.LVL66:
 923              		.loc 1 791 0
 924 0066 1B20     		movs	r0, #27
 925 0068 FFF7FEFF 		bl	nvicDisableVector
 926              	.LVL67:
 927              		.loc 1 793 0
 928 006c 084B     		ldr	r3, .L210+12
 929 006e 5A6C     		ldr	r2, [r3, #68]
 930 0070 22F00102 		bic	r2, r2, #1
 931 0074 5A64     		str	r2, [r3, #68]
 932 0076 5A6E     		ldr	r2, [r3, #100]
 933 0078 22F00102 		bic	r2, r2, #1
 934 007c 5A66     		str	r2, [r3, #100]
 935 007e 5B6E     		ldr	r3, [r3, #100]
 936              		.loc 1 879 0
 937 0080 08BD     		pop	{r3, pc}
 938              	.L211:
 939 0082 00BF     		.align	2
 940              	.L210:
 941 0084 00000000 		.word	.LANCHOR0
 942 0088 00000000 		.word	.LANCHOR1
 943 008c 00000000 		.word	.LANCHOR2
 944 0090 00380240 		.word	1073887232
 945              		.cfi_endproc
 946              	.LFE333:
 947              		.size	pwm_lld_stop, .-pwm_lld_stop
 948              		.section	.text.pwm_lld_enable_channel,"ax",%progbits
 949              		.align	1
 950              		.p2align 2,,3
 951              		.global	pwm_lld_enable_channel
 952              		.syntax unified
 953              		.thumb
 954              		.thumb_func
 955              		.fpu fpv4-sp-d16
 956              		.type	pwm_lld_enable_channel, %function
 957              	pwm_lld_enable_channel:
 958              	.LFB334:
 959              		.loc 1 896 0
 960              		.cfi_startproc
 961              		@ args = 0, pretend = 0, frame = 0
 962              		@ frame_needed = 0, uses_anonymous_args = 0
 963              		@ link register save eliminated.
 964              	.LVL68:
 965              		.loc 1 900 0
 966 0000 8369     		ldr	r3, [r0, #24]
 967 0002 0C31     		adds	r1, r1, #12
 968              	.LVL69:
 969 0004 03EB8103 		add	r3, r3, r1, lsl #2
ARM GAS  /tmp/ccWFQyS8.s 			page 18


 970 0008 5A60     		str	r2, [r3, #4]
 971              		.loc 1 907 0
 972 000a 7047     		bx	lr
 973              		.cfi_endproc
 974              	.LFE334:
 975              		.size	pwm_lld_enable_channel, .-pwm_lld_enable_channel
 976              		.section	.text.pwm_lld_disable_channel,"ax",%progbits
 977              		.align	1
 978              		.p2align 2,,3
 979              		.global	pwm_lld_disable_channel
 980              		.syntax unified
 981              		.thumb
 982              		.thumb_func
 983              		.fpu fpv4-sp-d16
 984              		.type	pwm_lld_disable_channel, %function
 985              	pwm_lld_disable_channel:
 986              	.LFB335:
 987              		.loc 1 921 0
 988              		.cfi_startproc
 989              		@ args = 0, pretend = 0, frame = 0
 990              		@ frame_needed = 0, uses_anonymous_args = 0
 991              		@ link register save eliminated.
 992              	.LVL70:
 993              		.loc 1 924 0
 994 0000 8369     		ldr	r3, [r0, #24]
 995 0002 01F10C02 		add	r2, r1, #12
 996 0006 03EB8202 		add	r2, r3, r2, lsl #2
 997 000a 0020     		movs	r0, #0
 998              	.LVL71:
 999 000c 5060     		str	r0, [r2, #4]
 1000              		.loc 1 925 0
 1001 000e DA68     		ldr	r2, [r3, #12]
 1002 0010 0220     		movs	r0, #2
 1003 0012 00FA01F1 		lsl	r1, r0, r1
 1004              	.LVL72:
 1005 0016 22EA0101 		bic	r1, r2, r1
 1006 001a D960     		str	r1, [r3, #12]
 1007              		.loc 1 934 0
 1008 001c 7047     		bx	lr
 1009              		.cfi_endproc
 1010              	.LFE335:
 1011              		.size	pwm_lld_disable_channel, .-pwm_lld_disable_channel
 1012 001e 00BF     		.section	.text.pwm_lld_enable_periodic_notification,"ax",%progbits
 1013              		.align	1
 1014              		.p2align 2,,3
 1015              		.global	pwm_lld_enable_periodic_notification
 1016              		.syntax unified
 1017              		.thumb
 1018              		.thumb_func
 1019              		.fpu fpv4-sp-d16
 1020              		.type	pwm_lld_enable_periodic_notification, %function
 1021              	pwm_lld_enable_periodic_notification:
 1022              	.LFB336:
 1023              		.loc 1 945 0
 1024              		.cfi_startproc
 1025              		@ args = 0, pretend = 0, frame = 0
 1026              		@ frame_needed = 0, uses_anonymous_args = 0
ARM GAS  /tmp/ccWFQyS8.s 			page 19


 1027              		@ link register save eliminated.
 1028              	.LVL73:
 1029              		.loc 1 946 0
 1030 0000 8269     		ldr	r2, [r0, #24]
 1031 0002 D368     		ldr	r3, [r2, #12]
 1032              	.LVL74:
 1033              		.loc 1 950 0
 1034 0004 D907     		lsls	r1, r3, #31
 1035 0006 05D4     		bmi	.L214
 1036              		.loc 1 952 0
 1037 0008 43F00103 		orr	r3, r3, #1
 1038              	.LVL75:
 1039              		.loc 1 951 0
 1040 000c 6FF00101 		mvn	r1, #1
 1041 0010 1161     		str	r1, [r2, #16]
 1042              		.loc 1 952 0
 1043 0012 D360     		str	r3, [r2, #12]
 1044              	.L214:
 1045              		.loc 1 954 0
 1046 0014 7047     		bx	lr
 1047              		.cfi_endproc
 1048              	.LFE336:
 1049              		.size	pwm_lld_enable_periodic_notification, .-pwm_lld_enable_periodic_notification
 1050 0016 00BF     		.section	.text.pwm_lld_disable_periodic_notification,"ax",%progbits
 1051              		.align	1
 1052              		.p2align 2,,3
 1053              		.global	pwm_lld_disable_periodic_notification
 1054              		.syntax unified
 1055              		.thumb
 1056              		.thumb_func
 1057              		.fpu fpv4-sp-d16
 1058              		.type	pwm_lld_disable_periodic_notification, %function
 1059              	pwm_lld_disable_periodic_notification:
 1060              	.LFB337:
 1061              		.loc 1 965 0
 1062              		.cfi_startproc
 1063              		@ args = 0, pretend = 0, frame = 0
 1064              		@ frame_needed = 0, uses_anonymous_args = 0
 1065              		@ link register save eliminated.
 1066              	.LVL76:
 1067              		.loc 1 967 0
 1068 0000 8269     		ldr	r2, [r0, #24]
 1069 0002 D368     		ldr	r3, [r2, #12]
 1070 0004 23F00103 		bic	r3, r3, #1
 1071 0008 D360     		str	r3, [r2, #12]
 1072              		.loc 1 968 0
 1073 000a 7047     		bx	lr
 1074              		.cfi_endproc
 1075              	.LFE337:
 1076              		.size	pwm_lld_disable_periodic_notification, .-pwm_lld_disable_periodic_notification
 1077              		.section	.text.pwm_lld_enable_channel_notification,"ax",%progbits
 1078              		.align	1
 1079              		.p2align 2,,3
 1080              		.global	pwm_lld_enable_channel_notification
 1081              		.syntax unified
 1082              		.thumb
 1083              		.thumb_func
ARM GAS  /tmp/ccWFQyS8.s 			page 20


 1084              		.fpu fpv4-sp-d16
 1085              		.type	pwm_lld_enable_channel_notification, %function
 1086              	pwm_lld_enable_channel_notification:
 1087              	.LFB338:
 1088              		.loc 1 982 0
 1089              		.cfi_startproc
 1090              		@ args = 0, pretend = 0, frame = 0
 1091              		@ frame_needed = 0, uses_anonymous_args = 0
 1092              		@ link register save eliminated.
 1093              	.LVL77:
 1094              		.loc 1 983 0
 1095 0000 8069     		ldr	r0, [r0, #24]
 1096              	.LVL78:
 1097              		.loc 1 992 0
 1098 0002 0223     		movs	r3, #2
 1099              		.loc 1 983 0
 1100 0004 C268     		ldr	r2, [r0, #12]
 1101              	.LVL79:
 1102              		.loc 1 992 0
 1103 0006 03FA01F1 		lsl	r1, r3, r1
 1104              	.LVL80:
 1105 000a 1142     		tst	r1, r2
 1106 000c 03D1     		bne	.L217
 1107              		.loc 1 994 0
 1108 000e 0A43     		orrs	r2, r2, r1
 1109              	.LVL81:
 1110              		.loc 1 993 0
 1111 0010 C943     		mvns	r1, r1
 1112 0012 0161     		str	r1, [r0, #16]
 1113              		.loc 1 994 0
 1114 0014 C260     		str	r2, [r0, #12]
 1115              	.L217:
 1116              		.loc 1 996 0
 1117 0016 7047     		bx	lr
 1118              		.cfi_endproc
 1119              	.LFE338:
 1120              		.size	pwm_lld_enable_channel_notification, .-pwm_lld_enable_channel_notification
 1121              		.section	.text.pwm_lld_disable_channel_notification,"ax",%progbits
 1122              		.align	1
 1123              		.p2align 2,,3
 1124              		.global	pwm_lld_disable_channel_notification
 1125              		.syntax unified
 1126              		.thumb
 1127              		.thumb_func
 1128              		.fpu fpv4-sp-d16
 1129              		.type	pwm_lld_disable_channel_notification, %function
 1130              	pwm_lld_disable_channel_notification:
 1131              	.LFB339:
 1132              		.loc 1 1010 0
 1133              		.cfi_startproc
 1134              		@ args = 0, pretend = 0, frame = 0
 1135              		@ frame_needed = 0, uses_anonymous_args = 0
 1136              		@ link register save eliminated.
 1137              	.LVL82:
 1138              		.loc 1 1012 0
 1139 0000 8069     		ldr	r0, [r0, #24]
 1140              	.LVL83:
ARM GAS  /tmp/ccWFQyS8.s 			page 21


 1141 0002 0222     		movs	r2, #2
 1142 0004 C368     		ldr	r3, [r0, #12]
 1143 0006 02FA01F1 		lsl	r1, r2, r1
 1144              	.LVL84:
 1145 000a 23EA0103 		bic	r3, r3, r1
 1146 000e C360     		str	r3, [r0, #12]
 1147              		.loc 1 1013 0
 1148 0010 7047     		bx	lr
 1149              		.cfi_endproc
 1150              	.LFE339:
 1151              		.size	pwm_lld_disable_channel_notification, .-pwm_lld_disable_channel_notification
 1152 0012 00BF     		.section	.text.pwm_lld_serve_interrupt,"ax",%progbits
 1153              		.align	1
 1154              		.p2align 2,,3
 1155              		.global	pwm_lld_serve_interrupt
 1156              		.syntax unified
 1157              		.thumb
 1158              		.thumb_func
 1159              		.fpu fpv4-sp-d16
 1160              		.type	pwm_lld_serve_interrupt, %function
 1161              	pwm_lld_serve_interrupt:
 1162              	.LFB340:
 1163              		.loc 1 1025 0
 1164              		.cfi_startproc
 1165              		@ args = 0, pretend = 0, frame = 0
 1166              		@ frame_needed = 0, uses_anonymous_args = 0
 1167              	.LVL85:
 1168              		.loc 1 1028 0
 1169 0000 8369     		ldr	r3, [r0, #24]
 1170              		.loc 1 1025 0
 1171 0002 70B5     		push	{r4, r5, r6, lr}
 1172              		.cfi_def_cfa_offset 16
 1173              		.cfi_offset 4, -16
 1174              		.cfi_offset 5, -12
 1175              		.cfi_offset 6, -8
 1176              		.cfi_offset 14, -4
 1177              		.loc 1 1028 0
 1178 0004 1A69     		ldr	r2, [r3, #16]
 1179              	.LVL86:
 1180              		.loc 1 1029 0
 1181 0006 DC68     		ldr	r4, [r3, #12]
 1182 0008 1440     		ands	r4, r4, r2
 1183              	.LVL87:
 1184 000a E2B2     		uxtb	r2, r4
 1185              		.loc 1 1030 0
 1186 000c D243     		mvns	r2, r2
 1187              		.loc 1 1031 0
 1188 000e A607     		lsls	r6, r4, #30
 1189              		.loc 1 1025 0
 1190 0010 0546     		mov	r5, r0
 1191              		.loc 1 1030 0
 1192 0012 1A61     		str	r2, [r3, #16]
 1193              		.loc 1 1031 0
 1194 0014 03D5     		bpl	.L221
 1195              		.loc 1 1032 0 discriminator 1
 1196 0016 4368     		ldr	r3, [r0, #4]
 1197 0018 1B69     		ldr	r3, [r3, #16]
ARM GAS  /tmp/ccWFQyS8.s 			page 22


 1198              		.loc 1 1031 0 discriminator 1
 1199 001a 03B1     		cbz	r3, .L221
 1200              		.loc 1 1033 0
 1201 001c 9847     		blx	r3
 1202              	.LVL88:
 1203              	.L221:
 1204              		.loc 1 1034 0
 1205 001e 6007     		lsls	r0, r4, #29
 1206 0020 04D5     		bpl	.L222
 1207              		.loc 1 1035 0 discriminator 1
 1208 0022 6B68     		ldr	r3, [r5, #4]
 1209 0024 9B69     		ldr	r3, [r3, #24]
 1210              		.loc 1 1034 0 discriminator 1
 1211 0026 0BB1     		cbz	r3, .L222
 1212              		.loc 1 1036 0
 1213 0028 2846     		mov	r0, r5
 1214 002a 9847     		blx	r3
 1215              	.LVL89:
 1216              	.L222:
 1217              		.loc 1 1037 0
 1218 002c 2107     		lsls	r1, r4, #28
 1219 002e 04D5     		bpl	.L223
 1220              		.loc 1 1038 0 discriminator 1
 1221 0030 6B68     		ldr	r3, [r5, #4]
 1222 0032 1B6A     		ldr	r3, [r3, #32]
 1223              		.loc 1 1037 0 discriminator 1
 1224 0034 0BB1     		cbz	r3, .L223
 1225              		.loc 1 1039 0
 1226 0036 2846     		mov	r0, r5
 1227 0038 9847     		blx	r3
 1228              	.LVL90:
 1229              	.L223:
 1230              		.loc 1 1040 0
 1231 003a E206     		lsls	r2, r4, #27
 1232 003c 04D5     		bpl	.L224
 1233              		.loc 1 1041 0 discriminator 1
 1234 003e 6B68     		ldr	r3, [r5, #4]
 1235 0040 9B6A     		ldr	r3, [r3, #40]
 1236              		.loc 1 1040 0 discriminator 1
 1237 0042 0BB1     		cbz	r3, .L224
 1238              		.loc 1 1042 0
 1239 0044 2846     		mov	r0, r5
 1240 0046 9847     		blx	r3
 1241              	.LVL91:
 1242              	.L224:
 1243              		.loc 1 1043 0
 1244 0048 E307     		lsls	r3, r4, #31
 1245 004a 06D5     		bpl	.L220
 1246              		.loc 1 1043 0 is_stmt 0 discriminator 1
 1247 004c 6B68     		ldr	r3, [r5, #4]
 1248 004e 9B68     		ldr	r3, [r3, #8]
 1249 0050 1BB1     		cbz	r3, .L220
 1250              		.loc 1 1044 0 is_stmt 1
 1251 0052 2846     		mov	r0, r5
 1252              		.loc 1 1045 0
 1253 0054 BDE87040 		pop	{r4, r5, r6, lr}
 1254              		.cfi_remember_state
ARM GAS  /tmp/ccWFQyS8.s 			page 23


 1255              		.cfi_restore 14
 1256              		.cfi_restore 6
 1257              		.cfi_restore 5
 1258              		.cfi_restore 4
 1259              		.cfi_def_cfa_offset 0
 1260              	.LVL92:
 1261              		.loc 1 1044 0
 1262 0058 1847     		bx	r3	@ indirect register sibling call
 1263              	.LVL93:
 1264              	.L220:
 1265              		.cfi_restore_state
 1266              		.loc 1 1045 0
 1267 005a 70BD     		pop	{r4, r5, r6, pc}
 1268              		.cfi_endproc
 1269              	.LFE340:
 1270              		.size	pwm_lld_serve_interrupt, .-pwm_lld_serve_interrupt
 1271              		.global	PWMD12
 1272              		.global	PWMD3
 1273              		.global	PWMD1
 1274              		.section	.bss.PWMD1,"aw",%nobits
 1275              		.align	2
 1276              		.set	.LANCHOR0,. + 0
 1277              		.type	PWMD1, %object
 1278              		.size	PWMD1, 28
 1279              	PWMD1:
 1280 0000 00000000 		.space	28
 1280      00000000 
 1280      00000000 
 1280      00000000 
 1280      00000000 
 1281              		.section	.bss.PWMD12,"aw",%nobits
 1282              		.align	2
 1283              		.set	.LANCHOR2,. + 0
 1284              		.type	PWMD12, %object
 1285              		.size	PWMD12, 28
 1286              	PWMD12:
 1287 0000 00000000 		.space	28
 1287      00000000 
 1287      00000000 
 1287      00000000 
 1287      00000000 
 1288              		.section	.bss.PWMD3,"aw",%nobits
 1289              		.align	2
 1290              		.set	.LANCHOR1,. + 0
 1291              		.type	PWMD3, %object
 1292              		.size	PWMD3, 28
 1293              	PWMD3:
 1294 0000 00000000 		.space	28
 1294      00000000 
 1294      00000000 
 1294      00000000 
 1294      00000000 
 1295              		.text
 1296              	.Letext0:
 1297              		.file 2 "/usr/lib/gcc/arm-none-eabi/7.3.1/include/stddef.h"
 1298              		.file 3 "/usr/arm-none-eabi/include/machine/_default_types.h"
 1299              		.file 4 "/usr/arm-none-eabi/include/sys/_stdint.h"
ARM GAS  /tmp/ccWFQyS8.s 			page 24


 1300              		.file 5 "./RM18A-ChibiOS18-Core/chibios/os/common/ports/ARMCMx/compilers/GCC/chtypes.h"
 1301              		.file 6 "./RM18A-ChibiOS18-Core/chibios/os/rt/include/chsystypes.h"
 1302              		.file 7 "./RM18A-ChibiOS18-Core/chibios/os/rt/include/chschd.h"
 1303              		.file 8 "./RM18A-ChibiOS18-Core/chibios/os/rt/include/chtime.h"
 1304              		.file 9 "./RM18A-ChibiOS18-Core/chibios/os/common/ext/ARM/CMSIS/Core/Include/core_cm4.h"
 1305              		.file 10 "./RM18A-ChibiOS18-Core/chibios/os/common/ext/ST/STM32F4xx/system_stm32f4xx.h"
 1306              		.file 11 "./RM18A-ChibiOS18-Core/chibios/os/common/ext/ST/STM32F4xx/stm32f427xx.h"
 1307              		.file 12 "./RM18A-ChibiOS18-Core/chibios/os/common/ports/ARMCMx/chcore.h"
 1308              		.file 13 "./RM18A-ChibiOS18-Core/chibios/os/common/ports/ARMCMx/chcore_v7m.h"
 1309              		.file 14 "./RM18A-ChibiOS18-Core/chibios/os/hal/ports/STM32/LLD/TIMv1/stm32_tim.h"
 1310              		.file 15 "./RM18A-ChibiOS18-Core/chibios/os/rt/include/chtm.h"
 1311              		.file 16 "./RM18A-ChibiOS18-Core/chibios/os/rt/include/chsem.h"
 1312              		.file 17 "./RM18A-ChibiOS18-Core/chibios/os/rt/include/chmtx.h"
 1313              		.file 18 "./RM18A-ChibiOS18-Core/chibios/os/rt/include/chsys.h"
 1314              		.file 19 "./RM18A-ChibiOS18-Core/chibios/os/rt/include/chregistry.h"
 1315              		.file 20 "./RM18A-ChibiOS18-Core/chibios/os/rt/include/chevents.h"
 1316              		.file 21 "./RM18A-ChibiOS18-Core/chibios/os/oslib/include/chmemcore.h"
 1317              		.file 22 "./RM18A-ChibiOS18-Core/chibios/os/oslib/include/chmempools.h"
 1318              		.file 23 "./RM18A-ChibiOS18-Core/chibios/os/oslib/include/chfactory.h"
 1319              		.file 24 "./RM18A-ChibiOS18-Core/chibios/os/hal/ports/STM32/LLD/DMAv2/stm32_dma.h"
 1320              		.file 25 "./RM18A-ChibiOS18-Core/chibios/os/hal/include/hal_queues.h"
 1321              		.file 26 "./RM18A-ChibiOS18-Core/chibios/os/hal/include/hal_pal.h"
 1322              		.file 27 "./RM18A-ChibiOS18-Core/chibios/os/hal/ports/STM32/LLD/GPIOv2/hal_pal_lld.h"
 1323              		.file 28 "./RM18A-ChibiOS18-Core/chibios/os/hal/include/hal_adc.h"
 1324              		.file 29 "./RM18A-ChibiOS18-Core/chibios/os/hal/ports/STM32/LLD/ADCv2/hal_adc_lld.h"
 1325              		.file 30 "./RM18A-ChibiOS18-Core/chibios/os/hal/include/hal_can.h"
 1326              		.file 31 "./RM18A-ChibiOS18-Core/chibios/os/hal/ports/STM32/LLD/CANv1/hal_can_lld.h"
 1327              		.file 32 "./RM18A-ChibiOS18-Core/chibios/os/hal/include/hal_i2c.h"
 1328              		.file 33 "./RM18A-ChibiOS18-Core/chibios/os/hal/lib/fallback/I2C/hal_i2c_lld.h"
 1329              		.file 34 "./RM18A-ChibiOS18-Core/chibios/os/hal/include/hal_icu.h"
 1330              		.file 35 "./RM18A-ChibiOS18-Core/chibios/os/hal/ports/STM32/LLD/TIMv1/hal_icu_lld.h"
 1331              		.file 36 "./RM18A-ChibiOS18-Core/chibios/os/hal/include/hal_pwm.h"
 1332              		.file 37 "./RM18A-ChibiOS18-Core/chibios/os/hal/ports/STM32/LLD/TIMv1/hal_pwm_lld.h"
 1333              		.file 38 "./RM18A-ChibiOS18-Core/chibios/os/hal/include/hal_serial.h"
 1334              		.file 39 "./RM18A-ChibiOS18-Core/chibios/os/hal/ports/STM32/LLD/USARTv1/hal_serial_lld.h"
 1335              		.file 40 "./RM18A-ChibiOS18-Core/chibios/os/hal/include/hal_spi.h"
 1336              		.file 41 "./RM18A-ChibiOS18-Core/chibios/os/hal/ports/STM32/LLD/SPIv1/hal_spi_lld.h"
 1337              		.file 42 "./RM18A-ChibiOS18-Core/chibios/os/hal/include/hal_uart.h"
 1338              		.file 43 "./RM18A-ChibiOS18-Core/chibios/os/hal/ports/STM32/LLD/USARTv1/hal_uart_lld.h"
 1339              		.file 44 "./RM18A-ChibiOS18-Core/chibios/os/hal/include/hal_usb.h"
 1340              		.file 45 "./RM18A-ChibiOS18-Core/chibios/os/hal/ports/STM32/LLD/OTGv1/hal_usb_lld.h"
 1341              		.file 46 "./RM18A-ChibiOS18-Core/chibios/os/hal/ports/STM32/LLD/OTGv1/stm32_otg.h"
 1342              		.file 47 "./RM18A-ChibiOS18-Core/chibios/os/hal/ports/common/ARMCMx/nvic.h"