ARM GAS  /tmp/cceqnmss.s 			page 1


   1              		.cpu cortex-m4
   2              		.eabi_attribute 27, 1
   3              		.eabi_attribute 28, 1
   4              		.eabi_attribute 20, 1
   5              		.eabi_attribute 21, 1
   6              		.eabi_attribute 23, 3
   7              		.eabi_attribute 24, 1
   8              		.eabi_attribute 25, 1
   9              		.eabi_attribute 26, 1
  10              		.eabi_attribute 30, 2
  11              		.eabi_attribute 34, 1
  12              		.eabi_attribute 18, 4
  13              		.file	"hal_serial_usb.c"
  14              		.text
  15              	.Ltext0:
  16              		.cfi_sections	.debug_frame
  17              		.section	.text.obnotify,"ax",%progbits
  18              		.align	1
  19              		.p2align 2,,3
  20              		.syntax unified
  21              		.thumb
  22              		.thumb_func
  23              		.fpu fpv4-sp-d16
  24              		.type	obnotify, %function
  25              	obnotify:
  26              	.LFB338:
  27              		.file 1 "./RM18A-ChibiOS18-Core/chibios/os/hal/src/hal_serial_usb.c"
  28              		.loc 1 178 0
  29              		.cfi_startproc
  30              		@ args = 0, pretend = 0, frame = 8
  31              		@ frame_needed = 0, uses_anonymous_args = 0
  32              	.LVL0:
  33 0000 10B5     		push	{r4, lr}
  34              		.cfi_def_cfa_offset 8
  35              		.cfi_offset 4, -8
  36              		.cfi_offset 14, -4
  37              		.loc 1 180 0
  38 0002 446B     		ldr	r4, [r0, #52]
  39              	.LVL1:
  40              		.loc 1 184 0
  41 0004 D4F88C24 		ldr	r2, [r4, #1164]
  42 0008 1368     		ldr	r3, [r2]
  43 000a 1978     		ldrb	r1, [r3]	@ zero_extendqisi2
  44 000c 0429     		cmp	r1, #4
  45              		.loc 1 178 0
  46 000e 82B0     		sub	sp, sp, #8
  47              		.cfi_def_cfa_offset 16
  48              		.loc 1 184 0
  49 0010 01D0     		beq	.L5
  50              	.LVL2:
  51              	.L1:
  52              		.loc 1 197 0
  53 0012 02B0     		add	sp, sp, #8
  54              		.cfi_remember_state
  55              		.cfi_def_cfa_offset 8
  56              		@ sp needed
  57 0014 10BD     		pop	{r4, pc}
ARM GAS  /tmp/cceqnmss.s 			page 2


  58              	.LVL3:
  59              	.L5:
  60              		.cfi_restore_state
  61              		.loc 1 184 0 discriminator 1
  62 0016 217A     		ldrb	r1, [r4, #8]	@ zero_extendqisi2
  63 0018 0229     		cmp	r1, #2
  64 001a FAD1     		bne	.L1
  65              		.loc 1 190 0
  66 001c 1179     		ldrb	r1, [r2, #4]	@ zero_extendqisi2
  67 001e 1A89     		ldrh	r2, [r3, #8]
  68 0020 0123     		movs	r3, #1
  69 0022 8B40     		lsls	r3, r3, r1
  70 0024 1342     		tst	r3, r2
  71 0026 F4D1     		bne	.L1
  72              	.LBB134:
  73              		.loc 1 193 0
  74 0028 01A9     		add	r1, sp, #4
  75 002a 04F14400 		add	r0, r4, #68
  76              	.LVL4:
  77 002e FFF7FEFF 		bl	obqGetFullBufferI
  78              	.LVL5:
  79              		.loc 1 195 0
  80 0032 D4F88C44 		ldr	r4, [r4, #1164]
  81              	.LVL6:
  82 0036 019B     		ldr	r3, [sp, #4]
  83 0038 2179     		ldrb	r1, [r4, #4]	@ zero_extendqisi2
  84 003a 0246     		mov	r2, r0
  85 003c 2068     		ldr	r0, [r4]
  86              	.LVL7:
  87 003e FFF7FEFF 		bl	usbStartTransmitI
  88              	.LVL8:
  89 0042 E6E7     		b	.L1
  90              	.LBE134:
  91              		.cfi_endproc
  92              	.LFE338:
  93              		.size	obnotify, .-obnotify
  94              		.section	.text._readt,"ax",%progbits
  95              		.align	1
  96              		.p2align 2,,3
  97              		.syntax unified
  98              		.thumb
  99              		.thumb_func
 100              		.fpu fpv4-sp-d16
 101              		.type	_readt, %function
 102              	_readt:
 103              	.LFB335:
 104              		.loc 1 124 0
 105              		.cfi_startproc
 106              		@ args = 0, pretend = 0, frame = 0
 107              		@ frame_needed = 0, uses_anonymous_args = 0
 108              		@ link register save eliminated.
 109              	.LVL9:
 110              		.loc 1 126 0
 111 0000 0C30     		adds	r0, r0, #12
 112              	.LVL10:
 113 0002 FFF7FEBF 		b	ibqReadTimeout
 114              	.LVL11:
ARM GAS  /tmp/cceqnmss.s 			page 3


 115              		.cfi_endproc
 116              	.LFE335:
 117              		.size	_readt, .-_readt
 118 0006 00BF     		.section	.text._read,"ax",%progbits
 119              		.align	1
 120              		.p2align 2,,3
 121              		.syntax unified
 122              		.thumb
 123              		.thumb_func
 124              		.fpu fpv4-sp-d16
 125              		.type	_read, %function
 126              	_read:
 127              	.LFB329:
 128              		.loc 1 91 0
 129              		.cfi_startproc
 130              		@ args = 0, pretend = 0, frame = 0
 131              		@ frame_needed = 0, uses_anonymous_args = 0
 132              		@ link register save eliminated.
 133              	.LVL12:
 134              		.loc 1 93 0
 135 0000 0C30     		adds	r0, r0, #12
 136              	.LVL13:
 137 0002 4FF0FF33 		mov	r3, #-1
 138 0006 FFF7FEBF 		b	ibqReadTimeout
 139              	.LVL14:
 140              		.cfi_endproc
 141              	.LFE329:
 142              		.size	_read, .-_read
 143 000a 00BF     		.section	.text._writet,"ax",%progbits
 144              		.align	1
 145              		.p2align 2,,3
 146              		.syntax unified
 147              		.thumb
 148              		.thumb_func
 149              		.fpu fpv4-sp-d16
 150              		.type	_writet, %function
 151              	_writet:
 152              	.LFB334:
 153              		.loc 1 118 0
 154              		.cfi_startproc
 155              		@ args = 0, pretend = 0, frame = 0
 156              		@ frame_needed = 0, uses_anonymous_args = 0
 157              		@ link register save eliminated.
 158              	.LVL15:
 159              		.loc 1 120 0
 160 0000 4430     		adds	r0, r0, #68
 161              	.LVL16:
 162 0002 FFF7FEBF 		b	obqWriteTimeout
 163              	.LVL17:
 164              		.cfi_endproc
 165              	.LFE334:
 166              		.size	_writet, .-_writet
 167 0006 00BF     		.section	.text._write,"ax",%progbits
 168              		.align	1
 169              		.p2align 2,,3
 170              		.syntax unified
 171              		.thumb
ARM GAS  /tmp/cceqnmss.s 			page 4


 172              		.thumb_func
 173              		.fpu fpv4-sp-d16
 174              		.type	_write, %function
 175              	_write:
 176              	.LFB328:
 177              		.loc 1 85 0
 178              		.cfi_startproc
 179              		@ args = 0, pretend = 0, frame = 0
 180              		@ frame_needed = 0, uses_anonymous_args = 0
 181              		@ link register save eliminated.
 182              	.LVL18:
 183              		.loc 1 87 0
 184 0000 4430     		adds	r0, r0, #68
 185              	.LVL19:
 186 0002 4FF0FF33 		mov	r3, #-1
 187 0006 FFF7FEBF 		b	obqWriteTimeout
 188              	.LVL20:
 189              		.cfi_endproc
 190              	.LFE328:
 191              		.size	_write, .-_write
 192 000a 00BF     		.section	.text._gett,"ax",%progbits
 193              		.align	1
 194              		.p2align 2,,3
 195              		.syntax unified
 196              		.thumb
 197              		.thumb_func
 198              		.fpu fpv4-sp-d16
 199              		.type	_gett, %function
 200              	_gett:
 201              	.LFB333:
 202              		.loc 1 112 0
 203              		.cfi_startproc
 204              		@ args = 0, pretend = 0, frame = 0
 205              		@ frame_needed = 0, uses_anonymous_args = 0
 206              		@ link register save eliminated.
 207              	.LVL21:
 208              		.loc 1 114 0
 209 0000 0C30     		adds	r0, r0, #12
 210              	.LVL22:
 211 0002 FFF7FEBF 		b	ibqGetTimeout
 212              	.LVL23:
 213              		.cfi_endproc
 214              	.LFE333:
 215              		.size	_gett, .-_gett
 216 0006 00BF     		.section	.text._get,"ax",%progbits
 217              		.align	1
 218              		.p2align 2,,3
 219              		.syntax unified
 220              		.thumb
 221              		.thumb_func
 222              		.fpu fpv4-sp-d16
 223              		.type	_get, %function
 224              	_get:
 225              	.LFB331:
 226              		.loc 1 102 0
 227              		.cfi_startproc
 228              		@ args = 0, pretend = 0, frame = 0
ARM GAS  /tmp/cceqnmss.s 			page 5


 229              		@ frame_needed = 0, uses_anonymous_args = 0
 230              		@ link register save eliminated.
 231              	.LVL24:
 232              		.loc 1 104 0
 233 0000 0C30     		adds	r0, r0, #12
 234              	.LVL25:
 235 0002 4FF0FF31 		mov	r1, #-1
 236 0006 FFF7FEBF 		b	ibqGetTimeout
 237              	.LVL26:
 238              		.cfi_endproc
 239              	.LFE331:
 240              		.size	_get, .-_get
 241 000a 00BF     		.section	.text._putt,"ax",%progbits
 242              		.align	1
 243              		.p2align 2,,3
 244              		.syntax unified
 245              		.thumb
 246              		.thumb_func
 247              		.fpu fpv4-sp-d16
 248              		.type	_putt, %function
 249              	_putt:
 250              	.LFB332:
 251              		.loc 1 107 0
 252              		.cfi_startproc
 253              		@ args = 0, pretend = 0, frame = 0
 254              		@ frame_needed = 0, uses_anonymous_args = 0
 255              		@ link register save eliminated.
 256              	.LVL27:
 257              		.loc 1 109 0
 258 0000 4430     		adds	r0, r0, #68
 259              	.LVL28:
 260 0002 FFF7FEBF 		b	obqPutTimeout
 261              	.LVL29:
 262              		.cfi_endproc
 263              	.LFE332:
 264              		.size	_putt, .-_putt
 265 0006 00BF     		.section	.text._put,"ax",%progbits
 266              		.align	1
 267              		.p2align 2,,3
 268              		.syntax unified
 269              		.thumb
 270              		.thumb_func
 271              		.fpu fpv4-sp-d16
 272              		.type	_put, %function
 273              	_put:
 274              	.LFB330:
 275              		.loc 1 97 0
 276              		.cfi_startproc
 277              		@ args = 0, pretend = 0, frame = 0
 278              		@ frame_needed = 0, uses_anonymous_args = 0
 279              		@ link register save eliminated.
 280              	.LVL30:
 281              		.loc 1 99 0
 282 0000 4430     		adds	r0, r0, #68
 283              	.LVL31:
 284 0002 4FF0FF32 		mov	r2, #-1
 285 0006 FFF7FEBF 		b	obqPutTimeout
ARM GAS  /tmp/cceqnmss.s 			page 6


 286              	.LVL32:
 287              		.cfi_endproc
 288              	.LFE330:
 289              		.size	_put, .-_put
 290 000a 00BF     		.section	.text._ctl,"ax",%progbits
 291              		.align	1
 292              		.p2align 2,,3
 293              		.syntax unified
 294              		.thumb
 295              		.thumb_func
 296              		.fpu fpv4-sp-d16
 297              		.type	_ctl, %function
 298              	_ctl:
 299              	.LFB354:
 300              		.cfi_startproc
 301              		@ args = 0, pretend = 0, frame = 0
 302              		@ frame_needed = 0, uses_anonymous_args = 0
 303              		@ link register save eliminated.
 304 0000 0020     		movs	r0, #0
 305 0002 7047     		bx	lr
 306              		.cfi_endproc
 307              	.LFE354:
 308              		.size	_ctl, .-_ctl
 309              		.section	.text.ibnotify,"ax",%progbits
 310              		.align	1
 311              		.p2align 2,,3
 312              		.syntax unified
 313              		.thumb
 314              		.thumb_func
 315              		.fpu fpv4-sp-d16
 316              		.type	ibnotify, %function
 317              	ibnotify:
 318              	.LFB337:
 319              		.loc 1 168 0
 320              		.cfi_startproc
 321              		@ args = 0, pretend = 0, frame = 0
 322              		@ frame_needed = 0, uses_anonymous_args = 0
 323              	.LVL33:
 324              		.loc 1 168 0
 325 0000 10B5     		push	{r4, lr}
 326              		.cfi_def_cfa_offset 8
 327              		.cfi_offset 4, -8
 328              		.cfi_offset 14, -4
 329              		.loc 1 169 0
 330 0002 446B     		ldr	r4, [r0, #52]
 331              	.LVL34:
 332              	.LBB139:
 333              	.LBB140:
 334              		.loc 1 58 0
 335 0004 D4F88C24 		ldr	r2, [r4, #1164]
 336 0008 1368     		ldr	r3, [r2]
 337 000a 1978     		ldrb	r1, [r3]	@ zero_extendqisi2
 338 000c 0429     		cmp	r1, #4
 339 000e 00D0     		beq	.L23
 340              	.LVL35:
 341              	.L15:
 342              	.LBE140:
ARM GAS  /tmp/cceqnmss.s 			page 7


 343              	.LBE139:
 344              		.loc 1 171 0
 345 0010 10BD     		pop	{r4, pc}
 346              	.LVL36:
 347              	.L23:
 348              	.LBB147:
 349              	.LBB145:
 350              		.loc 1 58 0
 351 0012 217A     		ldrb	r1, [r4, #8]	@ zero_extendqisi2
 352 0014 0229     		cmp	r1, #2
 353 0016 FBD1     		bne	.L15
 354              		.loc 1 64 0
 355 0018 1179     		ldrb	r1, [r2, #4]	@ zero_extendqisi2
 356 001a 5A89     		ldrh	r2, [r3, #10]
 357 001c 0123     		movs	r3, #1
 358 001e 8B40     		lsls	r3, r3, r1
 359 0020 1342     		tst	r3, r2
 360 0022 F5D1     		bne	.L15
 361              	.LVL37:
 362              	.LBB141:
 363              	.LBB142:
 364              		.loc 1 69 0
 365 0024 04F10C00 		add	r0, r4, #12
 366              	.LVL38:
 367 0028 FFF7FEFF 		bl	ibqGetEmptyBufferI
 368              	.LVL39:
 369              		.loc 1 70 0
 370 002c 0028     		cmp	r0, #0
 371 002e EFD0     		beq	.L15
 372              		.loc 1 75 0
 373 0030 D4F88C34 		ldr	r3, [r4, #1164]
 374 0034 0246     		mov	r2, r0
 375 0036 5979     		ldrb	r1, [r3, #5]	@ zero_extendqisi2
 376 0038 1868     		ldr	r0, [r3]
 377              	.LVL40:
 378              	.LBE142:
 379              	.LBE141:
 380              	.LBE145:
 381              	.LBE147:
 382              		.loc 1 171 0
 383 003a BDE81040 		pop	{r4, lr}
 384              		.cfi_restore 14
 385              		.cfi_restore 4
 386              		.cfi_def_cfa_offset 0
 387              	.LVL41:
 388              	.LBB148:
 389              	.LBB146:
 390              	.LBB144:
 391              	.LBB143:
 392              		.loc 1 75 0
 393 003e 4FF48073 		mov	r3, #256
 394 0042 FFF7FEBF 		b	usbStartReceiveI
 395              	.LVL42:
 396              	.LBE143:
 397              	.LBE144:
 398              	.LBE146:
 399              	.LBE148:
ARM GAS  /tmp/cceqnmss.s 			page 8


 400              		.cfi_endproc
 401              	.LFE337:
 402              		.size	ibnotify, .-ibnotify
 403 0046 00BF     		.section	.text.sduInit,"ax",%progbits
 404              		.align	1
 405              		.p2align 2,,3
 406              		.global	sduInit
 407              		.syntax unified
 408              		.thumb
 409              		.thumb_func
 410              		.fpu fpv4-sp-d16
 411              		.type	sduInit, %function
 412              	sduInit:
 413              	.LFB339:
 414              		.loc 1 210 0
 415              		.cfi_startproc
 416              		@ args = 0, pretend = 0, frame = 0
 417              		@ frame_needed = 0, uses_anonymous_args = 0
 418              		@ link register save eliminated.
 419              		.loc 1 211 0
 420 0000 7047     		bx	lr
 421              		.cfi_endproc
 422              	.LFE339:
 423              		.size	sduInit, .-sduInit
 424 0002 00BF     		.section	.text.sduObjectInit,"ax",%progbits
 425              		.align	1
 426              		.p2align 2,,3
 427              		.global	sduObjectInit
 428              		.syntax unified
 429              		.thumb
 430              		.thumb_func
 431              		.fpu fpv4-sp-d16
 432              		.type	sduObjectInit, %function
 433              	sduObjectInit:
 434              	.LFB340:
 435              		.loc 1 222 0
 436              		.cfi_startproc
 437              		@ args = 0, pretend = 0, frame = 0
 438              		@ frame_needed = 0, uses_anonymous_args = 0
 439              	.LVL43:
 440 0000 F0B5     		push	{r4, r5, r6, r7, lr}
 441              		.cfi_def_cfa_offset 20
 442              		.cfi_offset 4, -20
 443              		.cfi_offset 5, -16
 444              		.cfi_offset 6, -12
 445              		.cfi_offset 7, -8
 446              		.cfi_offset 14, -4
 447              		.loc 1 224 0
 448 0002 0346     		mov	r3, r0
 449 0004 114A     		ldr	r2, .L27
 450 0006 43F8042B 		str	r2, [r3], #4
 451              	.LVL44:
 452              		.loc 1 222 0
 453 000a 85B0     		sub	sp, sp, #20
 454              		.cfi_def_cfa_offset 40
 455              		.loc 1 227 0
 456 000c 104F     		ldr	r7, .L27+4
ARM GAS  /tmp/cceqnmss.s 			page 9


 457 000e 0290     		str	r0, [sp, #8]
 458              		.loc 1 226 0
 459 0010 0125     		movs	r5, #1
 460              		.loc 1 227 0
 461 0012 0226     		movs	r6, #2
 462              		.loc 1 222 0
 463 0014 0446     		mov	r4, r0
 464              	.LBB149:
 465              	.LBB150:
 466              	.LBB151:
 467              		.file 2 "./RM18A-ChibiOS18-Core/chibios/os/rt/include/chevents.h"
 468              		.loc 2 173 0
 469 0016 4360     		str	r3, [r0, #4]
 470              	.LVL45:
 471              	.LBE151:
 472              	.LBE150:
 473              	.LBE149:
 474              		.loc 1 226 0
 475 0018 0572     		strb	r5, [r0, #8]
 476              		.loc 1 227 0
 477 001a 00F17C02 		add	r2, r0, #124
 478 001e 2946     		mov	r1, r5
 479 0020 0C30     		adds	r0, r0, #12
 480              	.LVL46:
 481 0022 CDE90067 		strd	r6, r7, [sp]
 482 0026 4FF48073 		mov	r3, #256
 483 002a FFF7FEFF 		bl	ibqObjectInit
 484              	.LVL47:
 485              		.loc 1 230 0
 486 002e 094B     		ldr	r3, .L27+8
 487 0030 0193     		str	r3, [sp, #4]
 488 0032 0294     		str	r4, [sp, #8]
 489 0034 0096     		str	r6, [sp]
 490 0036 2946     		mov	r1, r5
 491 0038 04F52172 		add	r2, r4, #644
 492 003c 04F14400 		add	r0, r4, #68
 493 0040 4FF48073 		mov	r3, #256
 494 0044 FFF7FEFF 		bl	obqObjectInit
 495              	.LVL48:
 496              		.loc 1 233 0
 497 0048 05B0     		add	sp, sp, #20
 498              		.cfi_def_cfa_offset 20
 499              		@ sp needed
 500 004a F0BD     		pop	{r4, r5, r6, r7, pc}
 501              	.LVL49:
 502              	.L28:
 503              		.align	2
 504              	.L27:
 505 004c 00000000 		.word	.LANCHOR0
 506 0050 00000000 		.word	ibnotify
 507 0054 00000000 		.word	obnotify
 508              		.cfi_endproc
 509              	.LFE340:
 510              		.size	sduObjectInit, .-sduObjectInit
 511              		.section	.text.sduStart,"ax",%progbits
 512              		.align	1
 513              		.p2align 2,,3
ARM GAS  /tmp/cceqnmss.s 			page 10


 514              		.global	sduStart
 515              		.syntax unified
 516              		.thumb
 517              		.thumb_func
 518              		.fpu fpv4-sp-d16
 519              		.type	sduStart, %function
 520              	sduStart:
 521              	.LFB341:
 522              		.loc 1 243 0
 523              		.cfi_startproc
 524              		@ args = 0, pretend = 0, frame = 0
 525              		@ frame_needed = 0, uses_anonymous_args = 0
 526              		@ link register save eliminated.
 527              	.LVL50:
 528              		.loc 1 244 0
 529 0000 0B68     		ldr	r3, [r1]
 530              	.LVL51:
 531              	.LBB152:
 532              	.LBB153:
 533              	.LBB154:
 534              	.LBB155:
 535              	.LBB156:
 536              		.file 3 "./RM18A-ChibiOS18-Core/chibios/os/common/ext/ARM/CMSIS/Core/Include/cmsis_gcc.h"
 537              		.loc 3 493 0
 538 0002 2022     		movs	r2, #32
 539              		.syntax unified
 540              	@ 493 "./RM18A-ChibiOS18-Core/chibios/os/common/ext/ARM/CMSIS/Core/Include/cmsis_gcc.h" 1
 541 0004 82F31188 		MSR basepri, r2
 542              	@ 0 "" 2
 543              	.LVL52:
 544              		.thumb
 545              		.syntax unified
 546              	.LBE156:
 547              	.LBE155:
 548              	.LBE154:
 549              	.LBE153:
 550              	.LBE152:
 551              		.loc 1 251 0
 552 0008 0A79     		ldrb	r2, [r1, #4]	@ zero_extendqisi2
 553 000a 03EB8202 		add	r2, r3, r2, lsl #2
 554 000e 9061     		str	r0, [r2, #24]
 555              		.loc 1 252 0
 556 0010 4A79     		ldrb	r2, [r1, #5]	@ zero_extendqisi2
 557 0012 0932     		adds	r2, r2, #9
 558 0014 43F82200 		str	r0, [r3, r2, lsl #2]
 559              		.loc 1 253 0
 560 0018 8A79     		ldrb	r2, [r1, #6]	@ zero_extendqisi2
 561 001a 12B1     		cbz	r2, .L30
 562              		.loc 1 254 0
 563 001c 03EB8203 		add	r3, r3, r2, lsl #2
 564              	.LVL53:
 565 0020 9861     		str	r0, [r3, #24]
 566              	.L30:
 567              		.loc 1 257 0
 568 0022 0223     		movs	r3, #2
 569 0024 0372     		strb	r3, [r0, #8]
 570              	.LVL54:
ARM GAS  /tmp/cceqnmss.s 			page 11


 571              		.loc 1 256 0
 572 0026 C0F88C14 		str	r1, [r0, #1164]
 573              	.LBB157:
 574              	.LBB158:
 575              	.LBB159:
 576              	.LBB160:
 577              	.LBB161:
 578              	.LBB162:
 579              		.loc 3 493 0
 580 002a 0023     		movs	r3, #0
 581              		.syntax unified
 582              	@ 493 "./RM18A-ChibiOS18-Core/chibios/os/common/ext/ARM/CMSIS/Core/Include/cmsis_gcc.h" 1
 583 002c 83F31188 		MSR basepri, r3
 584              	@ 0 "" 2
 585              	.LVL55:
 586              		.thumb
 587              		.syntax unified
 588              	.LBE162:
 589              	.LBE161:
 590              	.LBE160:
 591              	.LBE159:
 592              	.LBE158:
 593              	.LBE157:
 594              		.loc 1 259 0
 595 0030 7047     		bx	lr
 596              		.cfi_endproc
 597              	.LFE341:
 598              		.size	sduStart, .-sduStart
 599 0032 00BF     		.section	.text.sduStop,"ax",%progbits
 600              		.align	1
 601              		.p2align 2,,3
 602              		.global	sduStop
 603              		.syntax unified
 604              		.thumb
 605              		.thumb_func
 606              		.fpu fpv4-sp-d16
 607              		.type	sduStop, %function
 608              	sduStop:
 609              	.LFB342:
 610              		.loc 1 270 0
 611              		.cfi_startproc
 612              		@ args = 0, pretend = 0, frame = 0
 613              		@ frame_needed = 0, uses_anonymous_args = 0
 614              	.LVL56:
 615              		.loc 1 271 0
 616 0000 D0F88C24 		ldr	r2, [r0, #1164]
 617              		.loc 1 270 0
 618 0004 38B5     		push	{r3, r4, r5, lr}
 619              		.cfi_def_cfa_offset 16
 620              		.cfi_offset 3, -16
 621              		.cfi_offset 4, -12
 622              		.cfi_offset 5, -8
 623              		.cfi_offset 14, -4
 624              		.loc 1 271 0
 625 0006 1268     		ldr	r2, [r2]
 626              	.LVL57:
 627              		.loc 1 270 0
ARM GAS  /tmp/cceqnmss.s 			page 12


 628 0008 0446     		mov	r4, r0
 629              	.LBB163:
 630              	.LBB164:
 631              	.LBB165:
 632              	.LBB166:
 633              	.LBB167:
 634              		.loc 3 493 0
 635 000a 2023     		movs	r3, #32
 636              		.syntax unified
 637              	@ 493 "./RM18A-ChibiOS18-Core/chibios/os/common/ext/ARM/CMSIS/Core/Include/cmsis_gcc.h" 1
 638 000c 83F31188 		MSR basepri, r3
 639              	@ 0 "" 2
 640              	.LVL58:
 641              		.thumb
 642              		.syntax unified
 643              	.LBE167:
 644              	.LBE166:
 645              	.LBE165:
 646              	.LBE164:
 647              	.LBE163:
 648              		.loc 1 281 0
 649 0010 D0F88C14 		ldr	r1, [r0, #1164]
 650 0014 0B79     		ldrb	r3, [r1, #4]	@ zero_extendqisi2
 651 0016 0533     		adds	r3, r3, #5
 652 0018 02EB8303 		add	r3, r2, r3, lsl #2
 653 001c 0020     		movs	r0, #0
 654              	.LVL59:
 655 001e 5860     		str	r0, [r3, #4]
 656              		.loc 1 282 0
 657 0020 4B79     		ldrb	r3, [r1, #5]	@ zero_extendqisi2
 658 0022 0933     		adds	r3, r3, #9
 659 0024 42F82300 		str	r0, [r2, r3, lsl #2]
 660              		.loc 1 283 0
 661 0028 8B79     		ldrb	r3, [r1, #6]	@ zero_extendqisi2
 662 002a 1BB1     		cbz	r3, .L35
 663              		.loc 1 284 0
 664 002c 0533     		adds	r3, r3, #5
 665 002e 02EB8302 		add	r2, r2, r3, lsl #2
 666              	.LVL60:
 667 0032 5060     		str	r0, [r2, #4]
 668              	.L35:
 669              		.loc 1 287 0
 670 0034 0123     		movs	r3, #1
 671              		.loc 1 286 0
 672 0036 0025     		movs	r5, #0
 673              		.loc 1 287 0
 674 0038 2372     		strb	r3, [r4, #8]
 675              	.LVL61:
 676              	.LBB168:
 677              	.LBB169:
 678              		.file 4 "./RM18A-ChibiOS18-Core/chibios/os/hal/osal/rt/osal.h"
 679              		.loc 4 895 0
 680 003a 0221     		movs	r1, #2
 681 003c 201D     		adds	r0, r4, #4
 682              	.LVL62:
 683              	.LBE169:
 684              	.LBE168:
ARM GAS  /tmp/cceqnmss.s 			page 13


 685              		.loc 1 286 0
 686 003e C4F88C54 		str	r5, [r4, #1164]
 687              	.LVL63:
 688              	.LBB171:
 689              	.LBB170:
 690              		.loc 4 895 0
 691 0042 FFF7FEFF 		bl	chEvtBroadcastFlagsI
 692              	.LVL64:
 693              	.LBE170:
 694              	.LBE171:
 695              		.loc 1 291 0
 696 0046 04F10C00 		add	r0, r4, #12
 697 004a FFF7FEFF 		bl	ibqResetI
 698              	.LVL65:
 699              		.loc 1 292 0
 700 004e 04F14400 		add	r0, r4, #68
 701 0052 FFF7FEFF 		bl	obqResetI
 702              	.LVL66:
 703              	.LBB172:
 704              	.LBB173:
 705              		.loc 4 618 0
 706 0056 FFF7FEFF 		bl	chSchRescheduleS
 707              	.LVL67:
 708              	.LBE173:
 709              	.LBE172:
 710              	.LBB174:
 711              	.LBB175:
 712              	.LBB176:
 713              	.LBB177:
 714              	.LBB178:
 715              	.LBB179:
 716              		.loc 3 493 0
 717              		.syntax unified
 718              	@ 493 "./RM18A-ChibiOS18-Core/chibios/os/common/ext/ARM/CMSIS/Core/Include/cmsis_gcc.h" 1
 719 005a 85F31188 		MSR basepri, r5
 720              	@ 0 "" 2
 721              	.LVL68:
 722              		.thumb
 723              		.syntax unified
 724              	.LBE179:
 725              	.LBE178:
 726              	.LBE177:
 727              	.LBE176:
 728              	.LBE175:
 729              	.LBE174:
 730              		.loc 1 296 0
 731 005e 38BD     		pop	{r3, r4, r5, pc}
 732              		.cfi_endproc
 733              	.LFE342:
 734              		.size	sduStop, .-sduStop
 735              		.section	.text.sduSuspendHookI,"ax",%progbits
 736              		.align	1
 737              		.p2align 2,,3
 738              		.global	sduSuspendHookI
 739              		.syntax unified
 740              		.thumb
 741              		.thumb_func
ARM GAS  /tmp/cceqnmss.s 			page 14


 742              		.fpu fpv4-sp-d16
 743              		.type	sduSuspendHookI, %function
 744              	sduSuspendHookI:
 745              	.LFB343:
 746              		.loc 1 310 0
 747              		.cfi_startproc
 748              		@ args = 0, pretend = 0, frame = 0
 749              		@ frame_needed = 0, uses_anonymous_args = 0
 750              	.LVL69:
 751 0000 38B5     		push	{r3, r4, r5, lr}
 752              		.cfi_def_cfa_offset 16
 753              		.cfi_offset 3, -16
 754              		.cfi_offset 4, -12
 755              		.cfi_offset 5, -8
 756              		.cfi_offset 14, -4
 757              		.loc 1 313 0
 758 0002 037D     		ldrb	r3, [r0, #20]	@ zero_extendqisi2
 759 0004 13B1     		cbz	r3, .L41
 760              		.loc 1 313 0 is_stmt 0 discriminator 1
 761 0006 90F84C30 		ldrb	r3, [r0, #76]	@ zero_extendqisi2
 762 000a B3B9     		cbnz	r3, .L40
 763              	.L41:
 764              	.LVL70:
 765 000c 0446     		mov	r4, r0
 766              		.loc 1 317 0 is_stmt 1
 767 000e 0125     		movs	r5, #1
 768              	.LBB180:
 769              	.LBB181:
 770              		.loc 4 895 0
 771 0010 0221     		movs	r1, #2
 772 0012 0430     		adds	r0, r0, #4
 773              	.LVL71:
 774 0014 FFF7FEFF 		bl	chEvtBroadcastFlagsI
 775              	.LVL72:
 776              	.LBE181:
 777              	.LBE180:
 778              	.LBB182:
 779              	.LBB183:
 780              		.loc 4 857 0
 781 0018 04F10C00 		add	r0, r4, #12
 782              	.LBE183:
 783              	.LBE182:
 784              		.loc 1 317 0
 785 001c 2575     		strb	r5, [r4, #20]
 786              	.LVL73:
 787              	.LBB185:
 788              	.LBB184:
 789              		.loc 4 857 0
 790 001e 6FF00101 		mvn	r1, #1
 791 0022 FFF7FEFF 		bl	chThdDequeueAllI
 792              	.LVL74:
 793              	.LBE184:
 794              	.LBE185:
 795              		.loc 1 318 0
 796 0026 84F84C50 		strb	r5, [r4, #76]
 797              	.LVL75:
 798              	.LBB186:
ARM GAS  /tmp/cceqnmss.s 			page 15


 799              	.LBB187:
 800              		.loc 4 857 0
 801 002a 04F14400 		add	r0, r4, #68
 802              	.LVL76:
 803 002e 6FF00101 		mvn	r1, #1
 804              	.LBE187:
 805              	.LBE186:
 806              		.loc 1 319 0
 807 0032 BDE83840 		pop	{r3, r4, r5, lr}
 808              		.cfi_remember_state
 809              		.cfi_restore 14
 810              		.cfi_restore 5
 811              		.cfi_restore 4
 812              		.cfi_restore 3
 813              		.cfi_def_cfa_offset 0
 814              	.LVL77:
 815              	.LBB189:
 816              	.LBB188:
 817              		.loc 4 857 0
 818 0036 FFF7FEBF 		b	chThdDequeueAllI
 819              	.LVL78:
 820              	.L40:
 821              		.cfi_restore_state
 822              	.LBE188:
 823              	.LBE189:
 824              		.loc 1 319 0
 825 003a 38BD     		pop	{r3, r4, r5, pc}
 826              		.cfi_endproc
 827              	.LFE343:
 828              		.size	sduSuspendHookI, .-sduSuspendHookI
 829              		.section	.text.sduWakeupHookI,"ax",%progbits
 830              		.align	1
 831              		.p2align 2,,3
 832              		.global	sduWakeupHookI
 833              		.syntax unified
 834              		.thumb
 835              		.thumb_func
 836              		.fpu fpv4-sp-d16
 837              		.type	sduWakeupHookI, %function
 838              	sduWakeupHookI:
 839              	.LFB344:
 840              		.loc 1 333 0
 841              		.cfi_startproc
 842              		@ args = 0, pretend = 0, frame = 0
 843              		@ frame_needed = 0, uses_anonymous_args = 0
 844              	.LVL79:
 845 0000 10B5     		push	{r4, lr}
 846              		.cfi_def_cfa_offset 8
 847              		.cfi_offset 4, -8
 848              		.cfi_offset 14, -4
 849              	.LBB190:
 850              	.LBB191:
 851              		.loc 4 895 0
 852 0002 0121     		movs	r1, #1
 853              	.LBE191:
 854              	.LBE190:
 855              		.loc 1 333 0
ARM GAS  /tmp/cceqnmss.s 			page 16


 856 0004 0446     		mov	r4, r0
 857              	.LVL80:
 858              	.LBB193:
 859              	.LBB192:
 860              		.loc 4 895 0
 861 0006 0430     		adds	r0, r0, #4
 862              	.LVL81:
 863 0008 FFF7FEFF 		bl	chEvtBroadcastFlagsI
 864              	.LVL82:
 865              	.LBE192:
 866              	.LBE193:
 867              		.loc 1 336 0
 868 000c 0023     		movs	r3, #0
 869 000e 2375     		strb	r3, [r4, #20]
 870              		.loc 1 337 0
 871 0010 84F84C30 		strb	r3, [r4, #76]
 872              		.loc 1 338 0
 873 0014 10BD     		pop	{r4, pc}
 874              		.cfi_endproc
 875              	.LFE344:
 876              		.size	sduWakeupHookI, .-sduWakeupHookI
 877 0016 00BF     		.section	.text.sduConfigureHookI,"ax",%progbits
 878              		.align	1
 879              		.p2align 2,,3
 880              		.global	sduConfigureHookI
 881              		.syntax unified
 882              		.thumb
 883              		.thumb_func
 884              		.fpu fpv4-sp-d16
 885              		.type	sduConfigureHookI, %function
 886              	sduConfigureHookI:
 887              	.LFB345:
 888              		.loc 1 347 0
 889              		.cfi_startproc
 890              		@ args = 0, pretend = 0, frame = 0
 891              		@ frame_needed = 0, uses_anonymous_args = 0
 892              	.LVL83:
 893 0000 70B5     		push	{r4, r5, r6, lr}
 894              		.cfi_def_cfa_offset 16
 895              		.cfi_offset 4, -16
 896              		.cfi_offset 5, -12
 897              		.cfi_offset 6, -8
 898              		.cfi_offset 14, -4
 899              		.loc 1 347 0
 900 0002 0446     		mov	r4, r0
 901              		.loc 1 349 0
 902 0004 00F10C06 		add	r6, r0, #12
 903 0008 3046     		mov	r0, r6
 904              	.LVL84:
 905              		.loc 1 350 0
 906 000a 0025     		movs	r5, #0
 907              		.loc 1 349 0
 908 000c FFF7FEFF 		bl	ibqResetI
 909              	.LVL85:
 910              		.loc 1 351 0
 911 0010 04F14400 		add	r0, r4, #68
 912              		.loc 1 350 0
ARM GAS  /tmp/cceqnmss.s 			page 17


 913 0014 2575     		strb	r5, [r4, #20]
 914              		.loc 1 351 0
 915 0016 FFF7FEFF 		bl	obqResetI
 916              	.LVL86:
 917              	.LBB200:
 918              	.LBB201:
 919              		.loc 4 895 0
 920 001a 0121     		movs	r1, #1
 921              	.LBE201:
 922              	.LBE200:
 923              		.loc 1 352 0
 924 001c 84F84C50 		strb	r5, [r4, #76]
 925              	.LVL87:
 926              	.LBB203:
 927              	.LBB202:
 928              		.loc 4 895 0
 929 0020 201D     		adds	r0, r4, #4
 930              	.LVL88:
 931 0022 FFF7FEFF 		bl	chEvtBroadcastFlagsI
 932              	.LVL89:
 933              	.LBE202:
 934              	.LBE203:
 935              	.LBB204:
 936              	.LBB205:
 937              		.loc 1 58 0
 938 0026 D4F88C24 		ldr	r2, [r4, #1164]
 939 002a 1368     		ldr	r3, [r2]
 940 002c 1978     		ldrb	r1, [r3]	@ zero_extendqisi2
 941 002e 0429     		cmp	r1, #4
 942 0030 00D0     		beq	.L57
 943              	.L49:
 944              	.LBE205:
 945              	.LBE204:
 946              		.loc 1 355 0
 947 0032 70BD     		pop	{r4, r5, r6, pc}
 948              	.LVL90:
 949              	.L57:
 950              	.LBB212:
 951              	.LBB210:
 952              		.loc 1 58 0
 953 0034 217A     		ldrb	r1, [r4, #8]	@ zero_extendqisi2
 954 0036 0229     		cmp	r1, #2
 955 0038 FBD1     		bne	.L49
 956              		.loc 1 64 0
 957 003a 1179     		ldrb	r1, [r2, #4]	@ zero_extendqisi2
 958 003c 5A89     		ldrh	r2, [r3, #10]
 959 003e 0123     		movs	r3, #1
 960 0040 8B40     		lsls	r3, r3, r1
 961 0042 1342     		tst	r3, r2
 962 0044 F5D1     		bne	.L49
 963              	.LVL91:
 964              	.LBB206:
 965              	.LBB207:
 966              		.loc 1 69 0
 967 0046 3046     		mov	r0, r6
 968 0048 FFF7FEFF 		bl	ibqGetEmptyBufferI
 969              	.LVL92:
ARM GAS  /tmp/cceqnmss.s 			page 18


 970              		.loc 1 70 0
 971 004c 0028     		cmp	r0, #0
 972 004e F0D0     		beq	.L49
 973              		.loc 1 75 0
 974 0050 D4F88C34 		ldr	r3, [r4, #1164]
 975 0054 0246     		mov	r2, r0
 976 0056 5979     		ldrb	r1, [r3, #5]	@ zero_extendqisi2
 977 0058 1868     		ldr	r0, [r3]
 978              	.LVL93:
 979              	.LBE207:
 980              	.LBE206:
 981              	.LBE210:
 982              	.LBE212:
 983              		.loc 1 355 0
 984 005a BDE87040 		pop	{r4, r5, r6, lr}
 985              		.cfi_restore 14
 986              		.cfi_restore 6
 987              		.cfi_restore 5
 988              		.cfi_restore 4
 989              		.cfi_def_cfa_offset 0
 990              	.LVL94:
 991              	.LBB213:
 992              	.LBB211:
 993              	.LBB209:
 994              	.LBB208:
 995              		.loc 1 75 0
 996 005e 4FF48073 		mov	r3, #256
 997 0062 FFF7FEBF 		b	usbStartReceiveI
 998              	.LVL95:
 999              	.LBE208:
 1000              	.LBE209:
 1001              	.LBE211:
 1002              	.LBE213:
 1003              		.cfi_endproc
 1004              	.LFE345:
 1005              		.size	sduConfigureHookI, .-sduConfigureHookI
 1006 0066 00BF     		.section	.text.sduRequestsHook,"ax",%progbits
 1007              		.align	1
 1008              		.p2align 2,,3
 1009              		.global	sduRequestsHook
 1010              		.syntax unified
 1011              		.thumb
 1012              		.thumb_func
 1013              		.fpu fpv4-sp-d16
 1014              		.type	sduRequestsHook, %function
 1015              	sduRequestsHook:
 1016              	.LFB346:
 1017              		.loc 1 372 0
 1018              		.cfi_startproc
 1019              		@ args = 0, pretend = 0, frame = 0
 1020              		@ frame_needed = 0, uses_anonymous_args = 0
 1021              		@ link register save eliminated.
 1022              	.LVL96:
 1023              		.loc 1 374 0
 1024 0000 90F84430 		ldrb	r3, [r0, #68]	@ zero_extendqisi2
 1025 0004 03F06003 		and	r3, r3, #96
 1026 0008 202B     		cmp	r3, #32
ARM GAS  /tmp/cceqnmss.s 			page 19


 1027 000a 01D0     		beq	.L64
 1028              	.L63:
 1029              		.loc 1 387 0
 1030 000c 0020     		movs	r0, #0
 1031              	.LVL97:
 1032              		.loc 1 391 0
 1033 000e 7047     		bx	lr
 1034              	.LVL98:
 1035              	.L64:
 1036              		.loc 1 375 0
 1037 0010 90F84530 		ldrb	r3, [r0, #69]	@ zero_extendqisi2
 1038 0014 202B     		cmp	r3, #32
 1039 0016 F9D3     		bcc	.L63
 1040 0018 212B     		cmp	r3, #33
 1041 001a 07D8     		bhi	.L65
 1042              		.loc 1 377 0
 1043 001c 074B     		ldr	r3, .L66
 1044 001e 8363     		str	r3, [r0, #56]
 1045 0020 0722     		movs	r2, #7
 1046 0022 0023     		movs	r3, #0
 1047 0024 C0E90F23 		strd	r2, r3, [r0, #60]
 1048              		.loc 1 378 0
 1049 0028 0120     		movs	r0, #1
 1050              	.LVL99:
 1051 002a 7047     		bx	lr
 1052              	.LVL100:
 1053              	.L65:
 1054              		.loc 1 375 0
 1055 002c 222B     		cmp	r3, #34
 1056 002e EDD1     		bne	.L63
 1057              		.loc 1 384 0
 1058 0030 0023     		movs	r3, #0
 1059 0032 C0E90E33 		strd	r3, r3, [r0, #56]
 1060 0036 0364     		str	r3, [r0, #64]
 1061              		.loc 1 385 0
 1062 0038 0120     		movs	r0, #1
 1063              	.LVL101:
 1064 003a 7047     		bx	lr
 1065              	.L67:
 1066              		.align	2
 1067              	.L66:
 1068 003c 00000000 		.word	.LANCHOR1
 1069              		.cfi_endproc
 1070              	.LFE346:
 1071              		.size	sduRequestsHook, .-sduRequestsHook
 1072              		.section	.text.sduSOFHookI,"ax",%progbits
 1073              		.align	1
 1074              		.p2align 2,,3
 1075              		.global	sduSOFHookI
 1076              		.syntax unified
 1077              		.thumb
 1078              		.thumb_func
 1079              		.fpu fpv4-sp-d16
 1080              		.type	sduSOFHookI, %function
 1081              	sduSOFHookI:
 1082              	.LFB347:
 1083              		.loc 1 402 0
ARM GAS  /tmp/cceqnmss.s 			page 20


 1084              		.cfi_startproc
 1085              		@ args = 0, pretend = 0, frame = 8
 1086              		@ frame_needed = 0, uses_anonymous_args = 0
 1087              	.LVL102:
 1088              		.loc 1 406 0
 1089 0000 D0F88C24 		ldr	r2, [r0, #1164]
 1090 0004 1368     		ldr	r3, [r2]
 1091 0006 1978     		ldrb	r1, [r3]	@ zero_extendqisi2
 1092 0008 0429     		cmp	r1, #4
 1093 000a 00D0     		beq	.L79
 1094              	.L76:
 1095 000c 7047     		bx	lr
 1096              	.L79:
 1097              		.loc 1 406 0 is_stmt 0 discriminator 1
 1098 000e 017A     		ldrb	r1, [r0, #8]	@ zero_extendqisi2
 1099 0010 0229     		cmp	r1, #2
 1100 0012 FBD1     		bne	.L76
 1101              		.loc 1 413 0 is_stmt 1
 1102 0014 1179     		ldrb	r1, [r2, #4]	@ zero_extendqisi2
 1103 0016 1A89     		ldrh	r2, [r3, #8]
 1104 0018 0123     		movs	r3, #1
 1105 001a 8B40     		lsls	r3, r3, r1
 1106 001c 1342     		tst	r3, r2
 1107 001e F5D1     		bne	.L76
 1108              		.loc 1 402 0
 1109 0020 30B5     		push	{r4, r5, lr}
 1110              		.cfi_def_cfa_offset 12
 1111              		.cfi_offset 4, -12
 1112              		.cfi_offset 5, -8
 1113              		.cfi_offset 14, -4
 1114              		.loc 1 419 0
 1115 0022 00F14405 		add	r5, r0, #68
 1116              		.loc 1 402 0
 1117 0026 83B0     		sub	sp, sp, #12
 1118              		.cfi_def_cfa_offset 24
 1119 0028 0446     		mov	r4, r0
 1120              		.loc 1 419 0
 1121 002a 2846     		mov	r0, r5
 1122              	.LVL103:
 1123 002c FFF7FEFF 		bl	obqTryFlushI
 1124              	.LVL104:
 1125 0030 08B9     		cbnz	r0, .L80
 1126              	.LVL105:
 1127              	.L68:
 1128              		.loc 1 427 0
 1129 0032 03B0     		add	sp, sp, #12
 1130              		.cfi_remember_state
 1131              		.cfi_def_cfa_offset 12
 1132              		@ sp needed
 1133 0034 30BD     		pop	{r4, r5, pc}
 1134              	.LVL106:
 1135              	.L80:
 1136              		.cfi_restore_state
 1137              	.LBB214:
 1138              		.loc 1 421 0
 1139 0036 01A9     		add	r1, sp, #4
 1140 0038 2846     		mov	r0, r5
ARM GAS  /tmp/cceqnmss.s 			page 21


 1141 003a FFF7FEFF 		bl	obqGetFullBufferI
 1142              	.LVL107:
 1143              		.loc 1 425 0
 1144 003e D4F88C44 		ldr	r4, [r4, #1164]
 1145              	.LVL108:
 1146 0042 019B     		ldr	r3, [sp, #4]
 1147 0044 2179     		ldrb	r1, [r4, #4]	@ zero_extendqisi2
 1148 0046 0246     		mov	r2, r0
 1149 0048 2068     		ldr	r0, [r4]
 1150              	.LVL109:
 1151 004a FFF7FEFF 		bl	usbStartTransmitI
 1152              	.LVL110:
 1153 004e F0E7     		b	.L68
 1154              	.LBE214:
 1155              		.cfi_endproc
 1156              	.LFE347:
 1157              		.size	sduSOFHookI, .-sduSOFHookI
 1158              		.section	.text.sduDataTransmitted,"ax",%progbits
 1159              		.align	1
 1160              		.p2align 2,,3
 1161              		.global	sduDataTransmitted
 1162              		.syntax unified
 1163              		.thumb
 1164              		.thumb_func
 1165              		.fpu fpv4-sp-d16
 1166              		.type	sduDataTransmitted, %function
 1167              	sduDataTransmitted:
 1168              	.LFB348:
 1169              		.loc 1 437 0
 1170              		.cfi_startproc
 1171              		@ args = 0, pretend = 0, frame = 8
 1172              		@ frame_needed = 0, uses_anonymous_args = 0
 1173              	.LVL111:
 1174 0000 F0B5     		push	{r4, r5, r6, r7, lr}
 1175              		.cfi_def_cfa_offset 20
 1176              		.cfi_offset 4, -20
 1177              		.cfi_offset 5, -16
 1178              		.cfi_offset 6, -12
 1179              		.cfi_offset 7, -8
 1180              		.cfi_offset 14, -4
 1181              		.loc 1 440 0
 1182 0002 00EB8103 		add	r3, r0, r1, lsl #2
 1183              		.loc 1 437 0
 1184 0006 83B0     		sub	sp, sp, #12
 1185              		.cfi_def_cfa_offset 32
 1186              		.loc 1 440 0
 1187 0008 9C69     		ldr	r4, [r3, #24]
 1188              	.LVL112:
 1189              		.loc 1 442 0
 1190 000a ECB1     		cbz	r4, .L81
 1191              	.LVL113:
 1192 000c 0E46     		mov	r6, r1
 1193 000e 0546     		mov	r5, r0
 1194              	.LBB215:
 1195              	.LBB216:
 1196              	.LBB217:
 1197              	.LBB218:
ARM GAS  /tmp/cceqnmss.s 			page 22


 1198              	.LBB219:
 1199              	.LBB220:
 1200              		.loc 3 493 0
 1201 0010 2023     		movs	r3, #32
 1202              		.syntax unified
 1203              	@ 493 "./RM18A-ChibiOS18-Core/chibios/os/common/ext/ARM/CMSIS/Core/Include/cmsis_gcc.h" 1
 1204 0012 83F31188 		MSR basepri, r3
 1205              	@ 0 "" 2
 1206              	.LVL114:
 1207              		.thumb
 1208              		.syntax unified
 1209 0016 00EB8107 		add	r7, r0, r1, lsl #2
 1210              	.LBE220:
 1211              	.LBE219:
 1212              	.LBE218:
 1213              	.LBE217:
 1214              	.LBE216:
 1215              	.LBE215:
 1216              	.LBB221:
 1217              	.LBB222:
 1218              		.loc 4 895 0
 1219 001a 201D     		adds	r0, r4, #4
 1220              	.LVL115:
 1221 001c 0821     		movs	r1, #8
 1222              	.LVL116:
 1223 001e FFF7FEFF 		bl	chEvtBroadcastFlagsI
 1224              	.LVL117:
 1225              	.LBE222:
 1226              	.LBE221:
 1227              		.loc 1 452 0
 1228 0022 FB68     		ldr	r3, [r7, #12]
 1229 0024 5B69     		ldr	r3, [r3, #20]
 1230 0026 1B68     		ldr	r3, [r3]
 1231 0028 4434     		adds	r4, r4, #68
 1232              	.LVL118:
 1233 002a FBB9     		cbnz	r3, .L97
 1234              		.loc 1 457 0
 1235 002c 2046     		mov	r0, r4
 1236 002e 01A9     		add	r1, sp, #4
 1237 0030 FFF7FEFF 		bl	obqGetFullBufferI
 1238              	.LVL119:
 1239              		.loc 1 459 0
 1240 0034 50B1     		cbz	r0, .L84
 1241              	.L98:
 1242              		.loc 1 462 0
 1243 0036 0246     		mov	r2, r0
 1244 0038 3146     		mov	r1, r6
 1245 003a 2846     		mov	r0, r5
 1246              	.LVL120:
 1247 003c 019B     		ldr	r3, [sp, #4]
 1248 003e FFF7FEFF 		bl	usbStartTransmitI
 1249              	.LVL121:
 1250              	.L85:
 1251              	.LBB223:
 1252              	.LBB224:
 1253              	.LBB225:
 1254              	.LBB226:
ARM GAS  /tmp/cceqnmss.s 			page 23


 1255              	.LBB227:
 1256              	.LBB228:
 1257              		.loc 3 493 0
 1258 0042 0023     		movs	r3, #0
 1259              		.syntax unified
 1260              	@ 493 "./RM18A-ChibiOS18-Core/chibios/os/common/ext/ARM/CMSIS/Core/Include/cmsis_gcc.h" 1
 1261 0044 83F31188 		MSR basepri, r3
 1262              	@ 0 "" 2
 1263              	.LVL122:
 1264              		.thumb
 1265              		.syntax unified
 1266              	.L81:
 1267              	.LBE228:
 1268              	.LBE227:
 1269              	.LBE226:
 1270              	.LBE225:
 1271              	.LBE224:
 1272              	.LBE223:
 1273              		.loc 1 479 0
 1274 0048 03B0     		add	sp, sp, #12
 1275              		.cfi_remember_state
 1276              		.cfi_def_cfa_offset 20
 1277              		@ sp needed
 1278 004a F0BD     		pop	{r4, r5, r6, r7, pc}
 1279              	.LVL123:
 1280              	.L84:
 1281              		.cfi_restore_state
 1282              		.loc 1 464 0
 1283 004c FB68     		ldr	r3, [r7, #12]
 1284 004e 5A69     		ldr	r2, [r3, #20]
 1285 0050 1268     		ldr	r2, [r2]
 1286 0052 002A     		cmp	r2, #0
 1287 0054 F5D0     		beq	.L85
 1288              		.loc 1 466 0 discriminator 1
 1289 0056 1B8A     		ldrh	r3, [r3, #16]
 1290 0058 013B     		subs	r3, r3, #1
 1291              		.loc 1 464 0 discriminator 1
 1292 005a 1340     		ands	r3, r3, r2
 1293 005c F1D1     		bne	.L85
 1294              		.loc 1 471 0
 1295 005e 3146     		mov	r1, r6
 1296 0060 05F14402 		add	r2, r5, #68
 1297 0064 2846     		mov	r0, r5
 1298              	.LVL124:
 1299 0066 FFF7FEFF 		bl	usbStartTransmitI
 1300              	.LVL125:
 1301 006a EAE7     		b	.L85
 1302              	.L97:
 1303              		.loc 1 453 0
 1304 006c 2046     		mov	r0, r4
 1305 006e FFF7FEFF 		bl	obqReleaseEmptyBufferI
 1306              	.LVL126:
 1307              		.loc 1 457 0
 1308 0072 2046     		mov	r0, r4
 1309 0074 01A9     		add	r1, sp, #4
 1310 0076 FFF7FEFF 		bl	obqGetFullBufferI
 1311              	.LVL127:
ARM GAS  /tmp/cceqnmss.s 			page 24


 1312              		.loc 1 459 0
 1313 007a 0028     		cmp	r0, #0
 1314 007c DBD1     		bne	.L98
 1315 007e E5E7     		b	.L84
 1316              		.cfi_endproc
 1317              	.LFE348:
 1318              		.size	sduDataTransmitted, .-sduDataTransmitted
 1319              		.section	.text.sduDataReceived,"ax",%progbits
 1320              		.align	1
 1321              		.p2align 2,,3
 1322              		.global	sduDataReceived
 1323              		.syntax unified
 1324              		.thumb
 1325              		.thumb_func
 1326              		.fpu fpv4-sp-d16
 1327              		.type	sduDataReceived, %function
 1328              	sduDataReceived:
 1329              	.LFB349:
 1330              		.loc 1 489 0
 1331              		.cfi_startproc
 1332              		@ args = 0, pretend = 0, frame = 0
 1333              		@ frame_needed = 0, uses_anonymous_args = 0
 1334              	.LVL128:
 1335              		.loc 1 491 0
 1336 0000 0931     		adds	r1, r1, #9
 1337              	.LVL129:
 1338              		.loc 1 489 0
 1339 0002 38B5     		push	{r3, r4, r5, lr}
 1340              		.cfi_def_cfa_offset 16
 1341              		.cfi_offset 3, -16
 1342              		.cfi_offset 4, -12
 1343              		.cfi_offset 5, -8
 1344              		.cfi_offset 14, -4
 1345              		.loc 1 491 0
 1346 0004 50F82140 		ldr	r4, [r0, r1, lsl #2]
 1347              	.LVL130:
 1348              		.loc 1 493 0
 1349 0008 94B1     		cbz	r4, .L99
 1350              	.LVL131:
 1351              	.LBB247:
 1352              	.LBB248:
 1353              	.LBB249:
 1354              	.LBB250:
 1355              	.LBB251:
 1356              	.LBB252:
 1357              		.loc 3 493 0
 1358 000a 2023     		movs	r3, #32
 1359              		.syntax unified
 1360              	@ 493 "./RM18A-ChibiOS18-Core/chibios/os/common/ext/ARM/CMSIS/Core/Include/cmsis_gcc.h" 1
 1361 000c 83F31188 		MSR basepri, r3
 1362              	@ 0 "" 2
 1363              	.LVL132:
 1364              		.thumb
 1365              		.syntax unified
 1366              	.LBE252:
 1367              	.LBE251:
 1368              	.LBE250:
ARM GAS  /tmp/cceqnmss.s 			page 25


 1369              	.LBE249:
 1370              	.LBE248:
 1371              	.LBE247:
 1372              		.loc 1 500 0
 1373 0010 D4F88C24 		ldr	r2, [r4, #1164]
 1374 0014 1168     		ldr	r1, [r2]
 1375 0016 5379     		ldrb	r3, [r2, #5]	@ zero_extendqisi2
 1376 0018 01EB8303 		add	r3, r1, r3, lsl #2
 1377 001c DB68     		ldr	r3, [r3, #12]
 1378 001e 9B69     		ldr	r3, [r3, #24]
 1379 0020 5D68     		ldr	r5, [r3, #4]
 1380              	.LVL133:
 1381              		.loc 1 502 0
 1382 0022 FDB9     		cbnz	r5, .L115
 1383              	.LVL134:
 1384              	.LBB253:
 1385              	.LBB254:
 1386              		.loc 1 58 0
 1387 0024 0B78     		ldrb	r3, [r1]	@ zero_extendqisi2
 1388 0026 042B     		cmp	r3, #4
 1389 0028 03D0     		beq	.L116
 1390              	.LVL135:
 1391              	.L103:
 1392              	.LBE254:
 1393              	.LBE253:
 1394              	.LBB259:
 1395              	.LBB260:
 1396              	.LBB261:
 1397              	.LBB262:
 1398              	.LBB263:
 1399              	.LBB264:
 1400              		.loc 3 493 0
 1401 002a 0023     		movs	r3, #0
 1402              		.syntax unified
 1403              	@ 493 "./RM18A-ChibiOS18-Core/chibios/os/common/ext/ARM/CMSIS/Core/Include/cmsis_gcc.h" 1
 1404 002c 83F31188 		MSR basepri, r3
 1405              	@ 0 "" 2
 1406              	.LVL136:
 1407              		.thumb
 1408              		.syntax unified
 1409              	.L99:
 1410              	.LBE264:
 1411              	.LBE263:
 1412              	.LBE262:
 1413              	.LBE261:
 1414              	.LBE260:
 1415              	.LBE259:
 1416              		.loc 1 516 0
 1417 0030 38BD     		pop	{r3, r4, r5, pc}
 1418              	.LVL137:
 1419              	.L116:
 1420              	.LBB265:
 1421              	.LBB257:
 1422              		.loc 1 58 0
 1423 0032 237A     		ldrb	r3, [r4, #8]	@ zero_extendqisi2
 1424 0034 022B     		cmp	r3, #2
 1425 0036 F8D1     		bne	.L103
ARM GAS  /tmp/cceqnmss.s 			page 26


 1426              		.loc 1 64 0
 1427 0038 1079     		ldrb	r0, [r2, #4]	@ zero_extendqisi2
 1428 003a 4A89     		ldrh	r2, [r1, #10]
 1429 003c 0123     		movs	r3, #1
 1430 003e 8340     		lsls	r3, r3, r0
 1431 0040 1342     		tst	r3, r2
 1432 0042 F2D1     		bne	.L103
 1433              	.LVL138:
 1434              	.LBB255:
 1435              	.LBB256:
 1436              		.loc 1 69 0
 1437 0044 04F10C00 		add	r0, r4, #12
 1438 0048 FFF7FEFF 		bl	ibqGetEmptyBufferI
 1439              	.LVL139:
 1440              		.loc 1 70 0
 1441 004c 0028     		cmp	r0, #0
 1442 004e ECD0     		beq	.L103
 1443              		.loc 1 75 0
 1444 0050 D4F88C34 		ldr	r3, [r4, #1164]
 1445 0054 0246     		mov	r2, r0
 1446 0056 5979     		ldrb	r1, [r3, #5]	@ zero_extendqisi2
 1447 0058 1868     		ldr	r0, [r3]
 1448              	.LVL140:
 1449 005a 4FF48073 		mov	r3, #256
 1450 005e FFF7FEFF 		bl	usbStartReceiveI
 1451              	.LVL141:
 1452 0062 E2E7     		b	.L103
 1453              	.LVL142:
 1454              	.L115:
 1455              	.LBE256:
 1456              	.LBE255:
 1457              	.LBE257:
 1458              	.LBE265:
 1459              	.LBB266:
 1460              	.LBB267:
 1461              		.loc 4 895 0
 1462 0064 0421     		movs	r1, #4
 1463 0066 6018     		adds	r0, r4, r1
 1464              	.LVL143:
 1465 0068 FFF7FEFF 		bl	chEvtBroadcastFlagsI
 1466              	.LVL144:
 1467              	.LBE267:
 1468              	.LBE266:
 1469              		.loc 1 507 0
 1470 006c 2946     		mov	r1, r5
 1471 006e 04F10C00 		add	r0, r4, #12
 1472 0072 FFF7FEFF 		bl	ibqPostFullBufferI
 1473              	.LVL145:
 1474 0076 D4F88C24 		ldr	r2, [r4, #1164]
 1475 007a 1168     		ldr	r1, [r2]
 1476              	.LVL146:
 1477              	.LBB268:
 1478              	.LBB258:
 1479              		.loc 1 58 0
 1480 007c 0B78     		ldrb	r3, [r1]	@ zero_extendqisi2
 1481 007e 042B     		cmp	r3, #4
 1482 0080 D3D1     		bne	.L103
ARM GAS  /tmp/cceqnmss.s 			page 27


 1483 0082 D6E7     		b	.L116
 1484              	.LBE258:
 1485              	.LBE268:
 1486              		.cfi_endproc
 1487              	.LFE349:
 1488              		.size	sduDataReceived, .-sduDataReceived
 1489              		.section	.text.sduInterruptTransmitted,"ax",%progbits
 1490              		.align	1
 1491              		.p2align 2,,3
 1492              		.global	sduInterruptTransmitted
 1493              		.syntax unified
 1494              		.thumb
 1495              		.thumb_func
 1496              		.fpu fpv4-sp-d16
 1497              		.type	sduInterruptTransmitted, %function
 1498              	sduInterruptTransmitted:
 1499              	.LFB350:
 1500              		.loc 1 526 0
 1501              		.cfi_startproc
 1502              		@ args = 0, pretend = 0, frame = 0
 1503              		@ frame_needed = 0, uses_anonymous_args = 0
 1504              		@ link register save eliminated.
 1505              	.LVL147:
 1506              		.loc 1 530 0
 1507 0000 7047     		bx	lr
 1508              		.cfi_endproc
 1509              	.LFE350:
 1510              		.size	sduInterruptTransmitted, .-sduInterruptTransmitted
 1511 0002 00BF     		.section	.text.sduControl,"ax",%progbits
 1512              		.align	1
 1513              		.p2align 2,,3
 1514              		.global	sduControl
 1515              		.syntax unified
 1516              		.thumb
 1517              		.thumb_func
 1518              		.fpu fpv4-sp-d16
 1519              		.type	sduControl, %function
 1520              	sduControl:
 1521              	.LFB351:
 1522              		.loc 1 546 0
 1523              		.cfi_startproc
 1524              		@ args = 0, pretend = 0, frame = 0
 1525              		@ frame_needed = 0, uses_anonymous_args = 0
 1526              		@ link register save eliminated.
 1527              	.LVL148:
 1528              		.loc 1 549 0
 1529 0000 0020     		movs	r0, #0
 1530              	.LVL149:
 1531 0002 7047     		bx	lr
 1532              		.cfi_endproc
 1533              	.LFE351:
 1534              		.size	sduControl, .-sduControl
 1535              		.section	.data.linecoding,"aw",%progbits
 1536              		.align	2
 1537              		.set	.LANCHOR1,. + 0
 1538              		.type	linecoding, %object
 1539              		.size	linecoding, 7
ARM GAS  /tmp/cceqnmss.s 			page 28


 1540              	linecoding:
 1541 0000 00       		.byte	0
 1542 0001 96       		.byte	-106
 1543 0002 00       		.byte	0
 1544 0003 00       		.byte	0
 1545 0004 00       		.byte	0
 1546 0005 00       		.byte	0
 1547 0006 08       		.byte	8
 1548              		.section	.rodata.vmt,"a",%progbits
 1549              		.align	2
 1550              		.set	.LANCHOR0,. + 0
 1551              		.type	vmt, %object
 1552              		.size	vmt, 40
 1553              	vmt:
 1554 0000 00000000 		.word	0
 1555 0004 00000000 		.word	_write
 1556 0008 00000000 		.word	_read
 1557 000c 00000000 		.word	_put
 1558 0010 00000000 		.word	_get
 1559 0014 00000000 		.word	_putt
 1560 0018 00000000 		.word	_gett
 1561 001c 00000000 		.word	_writet
 1562 0020 00000000 		.word	_readt
 1563 0024 00000000 		.word	_ctl
 1564              		.text
 1565              	.Letext0:
 1566              		.file 5 "/usr/lib/gcc/arm-none-eabi/7.3.1/include/stddef.h"
 1567              		.file 6 "/usr/arm-none-eabi/include/machine/_default_types.h"
 1568              		.file 7 "/usr/arm-none-eabi/include/sys/_stdint.h"
 1569              		.file 8 "./RM18A-ChibiOS18-Core/chibios/os/common/ports/ARMCMx/compilers/GCC/chtypes.h"
 1570              		.file 9 "./RM18A-ChibiOS18-Core/chibios/os/rt/include/chsystypes.h"
 1571              		.file 10 "./RM18A-ChibiOS18-Core/chibios/os/rt/include/chschd.h"
 1572              		.file 11 "./RM18A-ChibiOS18-Core/chibios/os/rt/include/chtime.h"
 1573              		.file 12 "./RM18A-ChibiOS18-Core/chibios/os/common/ext/ARM/CMSIS/Core/Include/core_cm4.h"
 1574              		.file 13 "./RM18A-ChibiOS18-Core/chibios/os/common/ext/ST/STM32F4xx/system_stm32f4xx.h"
 1575              		.file 14 "./RM18A-ChibiOS18-Core/chibios/os/common/ext/ST/STM32F4xx/stm32f427xx.h"
 1576              		.file 15 "./RM18A-ChibiOS18-Core/chibios/os/common/ports/ARMCMx/chcore.h"
 1577              		.file 16 "./RM18A-ChibiOS18-Core/chibios/os/common/ports/ARMCMx/chcore_v7m.h"
 1578              		.file 17 "./RM18A-ChibiOS18-Core/chibios/os/hal/ports/STM32/LLD/TIMv1/stm32_tim.h"
 1579              		.file 18 "./RM18A-ChibiOS18-Core/chibios/os/rt/include/chtm.h"
 1580              		.file 19 "./RM18A-ChibiOS18-Core/chibios/os/rt/include/chsem.h"
 1581              		.file 20 "./RM18A-ChibiOS18-Core/chibios/os/rt/include/chmtx.h"
 1582              		.file 21 "./RM18A-ChibiOS18-Core/chibios/os/rt/include/chsys.h"
 1583              		.file 22 "./RM18A-ChibiOS18-Core/chibios/os/rt/include/chregistry.h"
 1584              		.file 23 "./RM18A-ChibiOS18-Core/chibios/os/oslib/include/chmemcore.h"
 1585              		.file 24 "./RM18A-ChibiOS18-Core/chibios/os/oslib/include/chmempools.h"
 1586              		.file 25 "./RM18A-ChibiOS18-Core/chibios/os/oslib/include/chfactory.h"
 1587              		.file 26 "./RM18A-ChibiOS18-Core/chibios/os/hal/ports/STM32/LLD/DMAv2/stm32_dma.h"
 1588              		.file 27 "./RM18A-ChibiOS18-Core/chibios/os/hal/include/hal_buffers.h"
 1589              		.file 28 "./RM18A-ChibiOS18-Core/chibios/os/hal/include/hal_queues.h"
 1590              		.file 29 "./RM18A-ChibiOS18-Core/chibios/os/hal/include/hal_pal.h"
 1591              		.file 30 "./RM18A-ChibiOS18-Core/chibios/os/hal/ports/STM32/LLD/GPIOv2/hal_pal_lld.h"
 1592              		.file 31 "./RM18A-ChibiOS18-Core/chibios/os/hal/include/hal_adc.h"
 1593              		.file 32 "./RM18A-ChibiOS18-Core/chibios/os/hal/ports/STM32/LLD/ADCv2/hal_adc_lld.h"
 1594              		.file 33 "./RM18A-ChibiOS18-Core/chibios/os/hal/include/hal_can.h"
 1595              		.file 34 "./RM18A-ChibiOS18-Core/chibios/os/hal/ports/STM32/LLD/CANv1/hal_can_lld.h"
 1596              		.file 35 "./RM18A-ChibiOS18-Core/chibios/os/hal/include/hal_i2c.h"
ARM GAS  /tmp/cceqnmss.s 			page 29


 1597              		.file 36 "./RM18A-ChibiOS18-Core/chibios/os/hal/lib/fallback/I2C/hal_i2c_lld.h"
 1598              		.file 37 "./RM18A-ChibiOS18-Core/chibios/os/hal/include/hal_icu.h"
 1599              		.file 38 "./RM18A-ChibiOS18-Core/chibios/os/hal/ports/STM32/LLD/TIMv1/hal_icu_lld.h"
 1600              		.file 39 "./RM18A-ChibiOS18-Core/chibios/os/hal/include/hal_pwm.h"
 1601              		.file 40 "./RM18A-ChibiOS18-Core/chibios/os/hal/ports/STM32/LLD/TIMv1/hal_pwm_lld.h"
 1602              		.file 41 "./RM18A-ChibiOS18-Core/chibios/os/hal/include/hal_serial.h"
 1603              		.file 42 "./RM18A-ChibiOS18-Core/chibios/os/hal/ports/STM32/LLD/USARTv1/hal_serial_lld.h"
 1604              		.file 43 "./RM18A-ChibiOS18-Core/chibios/os/hal/include/hal_spi.h"
 1605              		.file 44 "./RM18A-ChibiOS18-Core/chibios/os/hal/ports/STM32/LLD/SPIv1/hal_spi_lld.h"
 1606              		.file 45 "./RM18A-ChibiOS18-Core/chibios/os/hal/include/hal_uart.h"
 1607              		.file 46 "./RM18A-ChibiOS18-Core/chibios/os/hal/ports/STM32/LLD/USARTv1/hal_uart_lld.h"
 1608              		.file 47 "./RM18A-ChibiOS18-Core/chibios/os/hal/include/hal_usb.h"
 1609              		.file 48 "./RM18A-ChibiOS18-Core/chibios/os/hal/ports/STM32/LLD/OTGv1/hal_usb_lld.h"
 1610              		.file 49 "./RM18A-ChibiOS18-Core/chibios/os/hal/ports/STM32/LLD/OTGv1/stm32_otg.h"
 1611              		.file 50 "./RM18A-ChibiOS18-Core/chibios/os/hal/include/hal_usb_cdc.h"
 1612              		.file 51 "./RM18A-ChibiOS18-Core/chibios/os/hal/include/hal_serial_usb.h"
 1613              		.file 52 "./RM18A-ChibiOS18-Core/chibios/os/rt/include/chthreads.h"