ARM GAS  /tmp/ccQzSp0l.s 			page 1


   1              		.cpu cortex-m4
   2              		.eabi_attribute 27, 1
   3              		.eabi_attribute 28, 1
   4              		.eabi_attribute 20, 1
   5              		.eabi_attribute 21, 1
   6              		.eabi_attribute 23, 3
   7              		.eabi_attribute 24, 1
   8              		.eabi_attribute 25, 1
   9              		.eabi_attribute 26, 1
  10              		.eabi_attribute 30, 2
  11              		.eabi_attribute 34, 1
  12              		.eabi_attribute 18, 4
  13              		.file	"hal_queues.c"
  14              		.text
  15              	.Ltext0:
  16              		.cfi_sections	.debug_frame
  17              		.section	.text.iqObjectInit,"ax",%progbits
  18              		.align	1
  19              		.p2align 2,,3
  20              		.global	iqObjectInit
  21              		.syntax unified
  22              		.thumb
  23              		.thumb_func
  24              		.fpu fpv4-sp-d16
  25              		.type	iqObjectInit, %function
  26              	iqObjectInit:
  27              	.LFB329:
  28              		.file 1 "./RM18A-ChibiOS18-Core/chibios/os/hal/src/hal_queues.c"
  29              		.loc 1 178 0
  30              		.cfi_startproc
  31              		@ args = 4, pretend = 0, frame = 0
  32              		@ frame_needed = 0, uses_anonymous_args = 0
  33              		@ link register save eliminated.
  34              	.LVL0:
  35 0000 30B4     		push	{r4, r5}
  36              		.cfi_def_cfa_offset 8
  37              		.cfi_offset 4, -8
  38              		.cfi_offset 5, -4
  39              		.loc 1 178 0
  40 0002 029C     		ldr	r4, [sp, #8]
  41              		.loc 1 187 0
  42 0004 0462     		str	r4, [r0, #32]
  43              		.loc 1 181 0
  44 0006 0025     		movs	r5, #0
  45              		.loc 1 185 0
  46 0008 0A44     		add	r2, r2, r1
  47              	.LVL1:
  48              		.loc 1 181 0
  49 000a 8560     		str	r5, [r0, #8]
  50              		.loc 1 185 0
  51 000c 0261     		str	r2, [r0, #16]
  52              	.LBB155:
  53              	.LBB156:
  54              	.LBB157:
  55              	.LBB158:
  56              		.file 2 "./RM18A-ChibiOS18-Core/chibios/os/rt/include/chschd.h"
  57              		.loc 2 540 0
ARM GAS  /tmp/ccQzSp0l.s 			page 2


  58 000e C0E90000 		strd	r0, r0, [r0]
  59              	.LVL2:
  60              	.LBE158:
  61              	.LBE157:
  62              	.LBE156:
  63              	.LBE155:
  64              		.loc 1 182 0
  65 0012 C160     		str	r1, [r0, #12]
  66              		.loc 1 184 0
  67 0014 C0E90511 		strd	r1, r1, [r0, #20]
  68              		.loc 1 186 0
  69 0018 C361     		str	r3, [r0, #28]
  70              		.loc 1 188 0
  71 001a 30BC     		pop	{r4, r5}
  72              		.cfi_restore 5
  73              		.cfi_restore 4
  74              		.cfi_def_cfa_offset 0
  75              	.LVL3:
  76 001c 7047     		bx	lr
  77              		.cfi_endproc
  78              	.LFE329:
  79              		.size	iqObjectInit, .-iqObjectInit
  80 001e 00BF     		.section	.text.iqResetI,"ax",%progbits
  81              		.align	1
  82              		.p2align 2,,3
  83              		.global	iqResetI
  84              		.syntax unified
  85              		.thumb
  86              		.thumb_func
  87              		.fpu fpv4-sp-d16
  88              		.type	iqResetI, %function
  89              	iqResetI:
  90              	.LFB330:
  91              		.loc 1 201 0
  92              		.cfi_startproc
  93              		@ args = 0, pretend = 0, frame = 0
  94              		@ frame_needed = 0, uses_anonymous_args = 0
  95              		@ link register save eliminated.
  96              	.LVL4:
  97              		.loc 1 205 0
  98 0000 C268     		ldr	r2, [r0, #12]
  99              		.loc 1 207 0
 100 0002 0021     		movs	r1, #0
 101 0004 8160     		str	r1, [r0, #8]
 102              	.LVL5:
 103              		.loc 1 206 0
 104 0006 C0E90522 		strd	r2, r2, [r0, #20]
 105              	.LBB159:
 106              	.LBB160:
 107              		.file 3 "./RM18A-ChibiOS18-Core/chibios/os/hal/osal/rt/osal.h"
 108              		.loc 3 857 0
 109 000a 6FF00101 		mvn	r1, #1
 110 000e FFF7FEBF 		b	chThdDequeueAllI
 111              	.LVL6:
 112              	.LBE160:
 113              	.LBE159:
 114              		.cfi_endproc
ARM GAS  /tmp/ccQzSp0l.s 			page 3


 115              	.LFE330:
 116              		.size	iqResetI, .-iqResetI
 117 0012 00BF     		.section	.text.iqPutI,"ax",%progbits
 118              		.align	1
 119              		.p2align 2,,3
 120              		.global	iqPutI
 121              		.syntax unified
 122              		.thumb
 123              		.thumb_func
 124              		.fpu fpv4-sp-d16
 125              		.type	iqPutI, %function
 126              	iqPutI:
 127              	.LFB331:
 128              		.loc 1 224 0
 129              		.cfi_startproc
 130              		@ args = 0, pretend = 0, frame = 0
 131              		@ frame_needed = 0, uses_anonymous_args = 0
 132              	.LVL7:
 133              		.loc 1 229 0
 134 0000 D0E90532 		ldrd	r3, r2, [r0, #20]
 135 0004 9342     		cmp	r3, r2
 136 0006 11D0     		beq	.L14
 137              	.L6:
 138              		.loc 1 230 0
 139 0008 8268     		ldr	r2, [r0, #8]
 140              		.loc 1 224 0
 141 000a 10B5     		push	{r4, lr}
 142              		.cfi_def_cfa_offset 8
 143              		.cfi_offset 4, -8
 144              		.cfi_offset 14, -4
 145              		.loc 1 230 0
 146 000c 0132     		adds	r2, r2, #1
 147              		.loc 1 231 0
 148 000e 5C1C     		adds	r4, r3, #1
 149              		.loc 1 230 0
 150 0010 8260     		str	r2, [r0, #8]
 151              		.loc 1 231 0
 152 0012 4461     		str	r4, [r0, #20]
 153 0014 1970     		strb	r1, [r3]
 154              		.loc 1 232 0
 155 0016 D0E90432 		ldrd	r3, r2, [r0, #16]
 156 001a 9A42     		cmp	r2, r3
 157 001c 01D3     		bcc	.L9
 158              		.loc 1 233 0
 159 001e C368     		ldr	r3, [r0, #12]
 160 0020 4361     		str	r3, [r0, #20]
 161              	.L9:
 162              	.LVL8:
 163              	.LBB161:
 164              	.LBB162:
 165              		.loc 3 844 0
 166 0022 0021     		movs	r1, #0
 167              	.LVL9:
 168 0024 FFF7FEFF 		bl	chThdDequeueNextI
 169              	.LVL10:
 170              	.LBE162:
 171              	.LBE161:
ARM GAS  /tmp/ccQzSp0l.s 			page 4


 172              		.loc 1 238 0
 173 0028 0020     		movs	r0, #0
 174              		.loc 1 242 0
 175 002a 10BD     		pop	{r4, pc}
 176              	.LVL11:
 177              	.L14:
 178              		.cfi_def_cfa_offset 0
 179              		.cfi_restore 4
 180              		.cfi_restore 14
 181              		.loc 1 229 0 discriminator 1
 182 002c 8268     		ldr	r2, [r0, #8]
 183 002e 002A     		cmp	r2, #0
 184 0030 EAD0     		beq	.L6
 185              		.loc 1 241 0
 186 0032 4FF0FF30 		mov	r0, #-1
 187              	.LVL12:
 188              		.loc 1 242 0
 189 0036 7047     		bx	lr
 190              		.cfi_endproc
 191              	.LFE331:
 192              		.size	iqPutI, .-iqPutI
 193              		.section	.text.iqGetI,"ax",%progbits
 194              		.align	1
 195              		.p2align 2,,3
 196              		.global	iqGetI
 197              		.syntax unified
 198              		.thumb
 199              		.thumb_func
 200              		.fpu fpv4-sp-d16
 201              		.type	iqGetI, %function
 202              	iqGetI:
 203              	.LFB332:
 204              		.loc 1 258 0
 205              		.cfi_startproc
 206              		@ args = 0, pretend = 0, frame = 0
 207              		@ frame_needed = 0, uses_anonymous_args = 0
 208              	.LVL13:
 209 0000 38B5     		push	{r3, r4, r5, lr}
 210              		.cfi_def_cfa_offset 16
 211              		.cfi_offset 3, -16
 212              		.cfi_offset 4, -12
 213              		.cfi_offset 5, -8
 214              		.cfi_offset 14, -4
 215              		.loc 1 263 0
 216 0002 8368     		ldr	r3, [r0, #8]
 217 0004 8BB1     		cbz	r3, .L19
 218              	.LBB163:
 219              		.loc 1 268 0
 220 0006 8169     		ldr	r1, [r0, #24]
 221              		.loc 1 267 0
 222 0008 8368     		ldr	r3, [r0, #8]
 223              		.loc 1 269 0
 224 000a 0569     		ldr	r5, [r0, #16]
 225              		.loc 1 268 0
 226 000c 4A1C     		adds	r2, r1, #1
 227              		.loc 1 267 0
 228 000e 013B     		subs	r3, r3, #1
ARM GAS  /tmp/ccQzSp0l.s 			page 5


 229              		.loc 1 269 0
 230 0010 AA42     		cmp	r2, r5
 231              		.loc 1 267 0
 232 0012 8360     		str	r3, [r0, #8]
 233              		.loc 1 268 0
 234 0014 8261     		str	r2, [r0, #24]
 235              		.loc 1 270 0
 236 0016 28BF     		it	cs
 237 0018 C368     		ldrcs	r3, [r0, #12]
 238              		.loc 1 268 0
 239 001a 0C78     		ldrb	r4, [r1]	@ zero_extendqisi2
 240              	.LVL14:
 241              		.loc 1 270 0
 242 001c 28BF     		it	cs
 243 001e 8361     		strcs	r3, [r0, #24]
 244              		.loc 1 274 0
 245 0020 C369     		ldr	r3, [r0, #28]
 246 0022 03B1     		cbz	r3, .L18
 247              		.loc 1 275 0
 248 0024 9847     		blx	r3
 249              	.LVL15:
 250              	.L18:
 251              		.loc 1 278 0
 252 0026 2046     		mov	r0, r4
 253              	.LBE163:
 254              		.loc 1 282 0
 255 0028 38BD     		pop	{r3, r4, r5, pc}
 256              	.LVL16:
 257              	.L19:
 258              		.loc 1 281 0
 259 002a 4FF0FF30 		mov	r0, #-1
 260              	.LVL17:
 261              		.loc 1 282 0
 262 002e 38BD     		pop	{r3, r4, r5, pc}
 263              		.cfi_endproc
 264              	.LFE332:
 265              		.size	iqGetI, .-iqGetI
 266              		.section	.text.iqGetTimeout,"ax",%progbits
 267              		.align	1
 268              		.p2align 2,,3
 269              		.global	iqGetTimeout
 270              		.syntax unified
 271              		.thumb
 272              		.thumb_func
 273              		.fpu fpv4-sp-d16
 274              		.type	iqGetTimeout, %function
 275              	iqGetTimeout:
 276              	.LFB333:
 277              		.loc 1 304 0
 278              		.cfi_startproc
 279              		@ args = 0, pretend = 0, frame = 0
 280              		@ frame_needed = 0, uses_anonymous_args = 0
 281              	.LVL18:
 282 0000 70B5     		push	{r4, r5, r6, lr}
 283              		.cfi_def_cfa_offset 16
 284              		.cfi_offset 4, -16
 285              		.cfi_offset 5, -12
ARM GAS  /tmp/ccQzSp0l.s 			page 6


 286              		.cfi_offset 6, -8
 287              		.cfi_offset 14, -4
 288              	.LBB164:
 289              	.LBB165:
 290              	.LBB166:
 291              	.LBB167:
 292              	.LBB168:
 293              		.file 4 "./RM18A-ChibiOS18-Core/chibios/os/common/ext/ARM/CMSIS/Core/Include/cmsis_gcc.h"
 294              		.loc 4 493 0
 295 0002 2023     		movs	r3, #32
 296              	.LBE168:
 297              	.LBE167:
 298              	.LBE166:
 299              	.LBE165:
 300              	.LBE164:
 301              		.loc 1 304 0
 302 0004 0446     		mov	r4, r0
 303 0006 0E46     		mov	r6, r1
 304              	.LBB173:
 305              	.LBB172:
 306              	.LBB171:
 307              	.LBB170:
 308              	.LBB169:
 309              		.loc 4 493 0
 310              		.syntax unified
 311              	@ 493 "./RM18A-ChibiOS18-Core/chibios/os/common/ext/ARM/CMSIS/Core/Include/cmsis_gcc.h" 1
 312 0008 83F31188 		MSR basepri, r3
 313              	@ 0 "" 2
 314              	.LVL19:
 315              		.thumb
 316              		.syntax unified
 317 000c 03E0     		b	.L25
 318              	.LVL20:
 319              	.L27:
 320              	.LBE169:
 321              	.LBE170:
 322              	.LBE171:
 323              	.LBE172:
 324              	.LBE173:
 325              	.LBB174:
 326              	.LBB175:
 327              	.LBB176:
 328              		.loc 3 831 0
 329 000e FFF7FEFF 		bl	chThdEnqueueTimeoutS
 330              	.LVL21:
 331              	.LBE176:
 332              	.LBE175:
 333              		.loc 1 312 0
 334 0012 0028     		cmp	r0, #0
 335 0014 1ADB     		blt	.L35
 336              	.L25:
 337              	.LVL22:
 338              	.LBE174:
 339              		.loc 1 310 0
 340 0016 A568     		ldr	r5, [r4, #8]
 341              	.LBB185:
 342              	.LBB178:
ARM GAS  /tmp/ccQzSp0l.s 			page 7


 343              	.LBB177:
 344              		.loc 3 831 0
 345 0018 3146     		mov	r1, r6
 346 001a 2046     		mov	r0, r4
 347              	.LBE177:
 348              	.LBE178:
 349              	.LBE185:
 350              		.loc 1 310 0
 351 001c 002D     		cmp	r5, #0
 352 001e F6D0     		beq	.L27
 353              	.LVL23:
 354              		.loc 1 320 0
 355 0020 A169     		ldr	r1, [r4, #24]
 356              	.LVL24:
 357              		.loc 1 319 0
 358 0022 A368     		ldr	r3, [r4, #8]
 359              		.loc 1 321 0
 360 0024 2069     		ldr	r0, [r4, #16]
 361              	.LVL25:
 362              		.loc 1 320 0
 363 0026 4A1C     		adds	r2, r1, #1
 364              		.loc 1 319 0
 365 0028 013B     		subs	r3, r3, #1
 366              		.loc 1 321 0
 367 002a 8242     		cmp	r2, r0
 368              		.loc 1 319 0
 369 002c A360     		str	r3, [r4, #8]
 370              		.loc 1 320 0
 371 002e A261     		str	r2, [r4, #24]
 372              		.loc 1 322 0
 373 0030 28BF     		it	cs
 374 0032 E368     		ldrcs	r3, [r4, #12]
 375              		.loc 1 320 0
 376 0034 0D78     		ldrb	r5, [r1]	@ zero_extendqisi2
 377              	.LVL26:
 378              		.loc 1 322 0
 379 0036 28BF     		it	cs
 380 0038 A361     		strcs	r3, [r4, #24]
 381              		.loc 1 326 0
 382 003a E369     		ldr	r3, [r4, #28]
 383 003c 0BB1     		cbz	r3, .L29
 384              		.loc 1 327 0
 385 003e 2046     		mov	r0, r4
 386 0040 9847     		blx	r3
 387              	.LVL27:
 388              	.L29:
 389              	.LBB186:
 390              	.LBB187:
 391              	.LBB188:
 392              	.LBB189:
 393              	.LBB190:
 394              	.LBB191:
 395              		.loc 4 493 0
 396 0042 0023     		movs	r3, #0
 397              		.syntax unified
 398              	@ 493 "./RM18A-ChibiOS18-Core/chibios/os/common/ext/ARM/CMSIS/Core/Include/cmsis_gcc.h" 1
 399 0044 83F31188 		MSR basepri, r3
ARM GAS  /tmp/ccQzSp0l.s 			page 8


 400              	@ 0 "" 2
 401              	.LVL28:
 402              		.thumb
 403              		.syntax unified
 404              	.LBE191:
 405              	.LBE190:
 406              	.LBE189:
 407              	.LBE188:
 408              	.LBE187:
 409              	.LBE186:
 410              		.loc 1 332 0
 411 0048 2846     		mov	r0, r5
 412              		.loc 1 333 0
 413 004a 70BD     		pop	{r4, r5, r6, pc}
 414              	.LVL29:
 415              	.L35:
 416              	.LBB192:
 417              	.LBB179:
 418              	.LBB180:
 419              	.LBB181:
 420              	.LBB182:
 421              	.LBB183:
 422              	.LBB184:
 423              		.loc 4 493 0
 424              		.syntax unified
 425              	@ 493 "./RM18A-ChibiOS18-Core/chibios/os/common/ext/ARM/CMSIS/Core/Include/cmsis_gcc.h" 1
 426 004c 85F31188 		MSR basepri, r5
 427              	@ 0 "" 2
 428              	.LVL30:
 429              		.thumb
 430              		.syntax unified
 431              	.LBE184:
 432              	.LBE183:
 433              	.LBE182:
 434              	.LBE181:
 435              	.LBE180:
 436              	.LBE179:
 437              	.LBE192:
 438              		.loc 1 333 0
 439 0050 70BD     		pop	{r4, r5, r6, pc}
 440              		.cfi_endproc
 441              	.LFE333:
 442              		.size	iqGetTimeout, .-iqGetTimeout
 443 0052 00BF     		.section	.text.iqReadI,"ax",%progbits
 444              		.align	1
 445              		.p2align 2,,3
 446              		.global	iqReadI
 447              		.syntax unified
 448              		.thumb
 449              		.thumb_func
 450              		.fpu fpv4-sp-d16
 451              		.type	iqReadI, %function
 452              	iqReadI:
 453              	.LFB334:
 454              		.loc 1 348 0
 455              		.cfi_startproc
 456              		@ args = 0, pretend = 0, frame = 0
ARM GAS  /tmp/ccQzSp0l.s 			page 9


 457              		@ frame_needed = 0, uses_anonymous_args = 0
 458              	.LVL31:
 459 0000 2DE9F041 		push	{r4, r5, r6, r7, r8, lr}
 460              		.cfi_def_cfa_offset 24
 461              		.cfi_offset 4, -24
 462              		.cfi_offset 5, -20
 463              		.cfi_offset 6, -16
 464              		.cfi_offset 7, -12
 465              		.cfi_offset 8, -8
 466              		.cfi_offset 14, -4
 467              		.loc 1 348 0
 468 0004 1546     		mov	r5, r2
 469              	.LBB195:
 470              	.LBB196:
 471              		.loc 1 66 0
 472 0006 8268     		ldr	r2, [r0, #8]
 473              	.LVL32:
 474              		.loc 1 72 0
 475 0008 0669     		ldr	r6, [r0, #16]
 476              	.LBE196:
 477              	.LBE195:
 478              		.loc 1 349 0
 479 000a C769     		ldr	r7, [r0, #28]
 480              	.LVL33:
 481              	.LBB201:
 482              	.LBB197:
 483              		.loc 1 66 0
 484 000c 9542     		cmp	r5, r2
 485              	.LBE197:
 486              	.LBE201:
 487              		.loc 1 348 0
 488 000e 0B46     		mov	r3, r1
 489              	.LVL34:
 490              	.LBB202:
 491              	.LBB198:
 492              		.loc 1 72 0
 493 0010 8169     		ldr	r1, [r0, #24]
 494              	.LVL35:
 495              		.loc 1 67 0
 496 0012 88BF     		it	hi
 497 0014 8568     		ldrhi	r5, [r0, #8]
 498              	.LVL36:
 499              		.loc 1 72 0
 500 0016 761A     		subs	r6, r6, r1
 501              	.LVL37:
 502              		.loc 1 74 0
 503 0018 AE42     		cmp	r6, r5
 504              	.LBE198:
 505              	.LBE202:
 506              		.loc 1 348 0
 507 001a 0446     		mov	r4, r0
 508              	.LBB203:
 509              	.LBB199:
 510              		.loc 1 74 0
 511 001c 1FD8     		bhi	.L49
 512              		.loc 1 78 0
 513 001e 0FD3     		bcc	.L50
ARM GAS  /tmp/ccQzSp0l.s 			page 10


 514              		.loc 1 86 0
 515 0020 1846     		mov	r0, r3
 516              	.LVL38:
 517 0022 2A46     		mov	r2, r5
 518 0024 FFF7FEFF 		bl	memcpy
 519              	.LVL39:
 520              		.loc 1 87 0
 521 0028 E368     		ldr	r3, [r4, #12]
 522 002a A361     		str	r3, [r4, #24]
 523              	.LVL40:
 524              	.L39:
 525              		.loc 1 90 0
 526 002c A368     		ldr	r3, [r4, #8]
 527 002e 5B1B     		subs	r3, r3, r5
 528 0030 A360     		str	r3, [r4, #8]
 529              	.LVL41:
 530              	.LBE199:
 531              	.LBE203:
 532              		.loc 1 358 0
 533 0032 15B1     		cbz	r5, .L41
 534              		.loc 1 358 0 is_stmt 0 discriminator 1
 535 0034 0FB1     		cbz	r7, .L41
 536              		.loc 1 359 0 is_stmt 1
 537 0036 2046     		mov	r0, r4
 538 0038 B847     		blx	r7
 539              	.LVL42:
 540              	.L41:
 541              		.loc 1 363 0
 542 003a 2846     		mov	r0, r5
 543 003c BDE8F081 		pop	{r4, r5, r6, r7, r8, pc}
 544              	.LVL43:
 545              	.L50:
 546              	.LBB204:
 547              	.LBB200:
 548              		.loc 1 79 0
 549 0040 3246     		mov	r2, r6
 550 0042 1846     		mov	r0, r3
 551              	.LVL44:
 552 0044 FFF7FEFF 		bl	memcpy
 553              	.LVL45:
 554              		.loc 1 81 0
 555 0048 A5EB0608 		sub	r8, r5, r6
 556              	.LVL46:
 557              		.loc 1 82 0
 558 004c 4246     		mov	r2, r8
 559 004e 3044     		add	r0, r0, r6
 560              	.LVL47:
 561 0050 E168     		ldr	r1, [r4, #12]
 562 0052 FFF7FEFF 		bl	memcpy
 563              	.LVL48:
 564              		.loc 1 83 0
 565 0056 E268     		ldr	r2, [r4, #12]
 566 0058 4244     		add	r2, r2, r8
 567 005a A261     		str	r2, [r4, #24]
 568 005c E6E7     		b	.L39
 569              	.LVL49:
 570              	.L49:
ARM GAS  /tmp/ccQzSp0l.s 			page 11


 571              		.loc 1 75 0
 572 005e 1846     		mov	r0, r3
 573              	.LVL50:
 574 0060 2A46     		mov	r2, r5
 575 0062 FFF7FEFF 		bl	memcpy
 576              	.LVL51:
 577              		.loc 1 76 0
 578 0066 A369     		ldr	r3, [r4, #24]
 579 0068 2B44     		add	r3, r3, r5
 580 006a A361     		str	r3, [r4, #24]
 581 006c DEE7     		b	.L39
 582              	.LBE200:
 583              	.LBE204:
 584              		.cfi_endproc
 585              	.LFE334:
 586              		.size	iqReadI, .-iqReadI
 587 006e 00BF     		.section	.text.iqReadTimeout,"ax",%progbits
 588              		.align	1
 589              		.p2align 2,,3
 590              		.global	iqReadTimeout
 591              		.syntax unified
 592              		.thumb
 593              		.thumb_func
 594              		.fpu fpv4-sp-d16
 595              		.type	iqReadTimeout, %function
 596              	iqReadTimeout:
 597              	.LFB335:
 598              		.loc 1 390 0
 599              		.cfi_startproc
 600              		@ args = 0, pretend = 0, frame = 16
 601              		@ frame_needed = 0, uses_anonymous_args = 0
 602              	.LVL52:
 603 0000 2DE9F04F 		push	{r4, r5, r6, r7, r8, r9, r10, fp, lr}
 604              		.cfi_def_cfa_offset 36
 605              		.cfi_offset 4, -36
 606              		.cfi_offset 5, -32
 607              		.cfi_offset 6, -28
 608              		.cfi_offset 7, -24
 609              		.cfi_offset 8, -20
 610              		.cfi_offset 9, -16
 611              		.cfi_offset 10, -12
 612              		.cfi_offset 11, -8
 613              		.cfi_offset 14, -4
 614 0004 85B0     		sub	sp, sp, #20
 615              		.cfi_def_cfa_offset 56
 616              		.loc 1 390 0
 617 0006 CDE90232 		strd	r3, r2, [sp, #8]
 618              		.loc 1 391 0
 619 000a D0F81C90 		ldr	r9, [r0, #28]
 620              	.LVL53:
 621              	.LBB233:
 622              	.LBB234:
 623              	.LBB235:
 624              	.LBB236:
 625              	.LBB237:
 626              		.loc 4 493 0
 627 000e 4FF0200A 		mov	r10, #32
ARM GAS  /tmp/ccQzSp0l.s 			page 12


 628              		.syntax unified
 629              	@ 493 "./RM18A-ChibiOS18-Core/chibios/os/common/ext/ARM/CMSIS/Core/Include/cmsis_gcc.h" 1
 630 0012 8AF31188 		MSR basepri, r10
 631              	@ 0 "" 2
 632              	.LVL54:
 633              		.thumb
 634              		.syntax unified
 635              	.LBE237:
 636              	.LBE236:
 637              	.LBE235:
 638              	.LBE234:
 639              	.LBE233:
 640              		.loc 1 398 0
 641 0016 3AB3     		cbz	r2, .L53
 642 0018 0446     		mov	r4, r0
 643 001a 0F46     		mov	r7, r1
 644 001c 1646     		mov	r6, r2
 645              	.LBB238:
 646              	.LBB239:
 647              	.LBB240:
 648              	.LBB241:
 649              	.LBB242:
 650              	.LBB243:
 651              	.LBB244:
 652              		.loc 4 493 0
 653 001e 4FF0000B 		mov	fp, #0
 654              	.LVL55:
 655              	.L52:
 656              	.LBE244:
 657              	.LBE243:
 658              	.LBE242:
 659              	.LBE241:
 660              	.LBE240:
 661              	.LBE239:
 662              	.LBB250:
 663              	.LBB251:
 664              		.loc 1 66 0
 665 0022 A268     		ldr	r2, [r4, #8]
 666              		.loc 1 72 0
 667 0024 A169     		ldr	r1, [r4, #24]
 668              		.loc 1 66 0
 669 0026 9642     		cmp	r6, r2
 670              		.loc 1 72 0
 671 0028 2269     		ldr	r2, [r4, #16]
 672              		.loc 1 67 0
 673 002a 8CBF     		ite	hi
 674 002c A568     		ldrhi	r5, [r4, #8]
 675              	.LVL56:
 676              		.loc 1 66 0
 677 002e 3546     		movls	r5, r6
 678              	.LVL57:
 679              		.loc 1 72 0
 680 0030 A2EB0108 		sub	r8, r2, r1
 681              	.LVL58:
 682              		.loc 1 74 0
 683 0034 A845     		cmp	r8, r5
 684 0036 40D8     		bhi	.L71
ARM GAS  /tmp/ccQzSp0l.s 			page 13


 685              		.loc 1 78 0
 686 0038 2BD3     		bcc	.L72
 687              		.loc 1 86 0
 688 003a 2A46     		mov	r2, r5
 689 003c 3846     		mov	r0, r7
 690 003e FFF7FEFF 		bl	memcpy
 691              	.LVL59:
 692              		.loc 1 87 0
 693 0042 E268     		ldr	r2, [r4, #12]
 694 0044 A261     		str	r2, [r4, #24]
 695              	.LVL60:
 696              	.L56:
 697              		.loc 1 90 0
 698 0046 A268     		ldr	r2, [r4, #8]
 699 0048 521B     		subs	r2, r2, r5
 700 004a A260     		str	r2, [r4, #8]
 701              	.LVL61:
 702              	.LBE251:
 703              	.LBE250:
 704              		.loc 1 402 0
 705 004c 9DB1     		cbz	r5, .L73
 706              		.loc 1 413 0
 707 004e B9F1000F 		cmp	r9, #0
 708 0052 01D0     		beq	.L61
 709              		.loc 1 414 0
 710 0054 2046     		mov	r0, r4
 711 0056 C847     		blx	r9
 712              	.LVL62:
 713              	.L61:
 714              	.LBB254:
 715              	.LBB249:
 716              	.LBB248:
 717              	.LBB247:
 718              	.LBB246:
 719              	.LBB245:
 720              		.loc 4 493 0
 721              		.syntax unified
 722              	@ 493 "./RM18A-ChibiOS18-Core/chibios/os/common/ext/ARM/CMSIS/Core/Include/cmsis_gcc.h" 1
 723 0058 8BF31188 		MSR basepri, fp
 724              	@ 0 "" 2
 725              	.LVL63:
 726              		.thumb
 727              		.syntax unified
 728              	.LBE245:
 729              	.LBE246:
 730              	.LBE247:
 731              	.LBE248:
 732              	.LBE249:
 733              	.LBE254:
 734              		.loc 1 420 0
 735 005c 761B     		subs	r6, r6, r5
 736              	.LVL64:
 737              		.loc 1 421 0
 738 005e 2F44     		add	r7, r7, r5
 739              	.LVL65:
 740              	.LBB255:
 741              	.LBB256:
ARM GAS  /tmp/ccQzSp0l.s 			page 14


 742              	.LBB257:
 743              	.LBB258:
 744              	.LBB259:
 745              		.loc 4 493 0
 746              		.syntax unified
 747              	@ 493 "./RM18A-ChibiOS18-Core/chibios/os/common/ext/ARM/CMSIS/Core/Include/cmsis_gcc.h" 1
 748 0060 8AF31188 		MSR basepri, r10
 749              	@ 0 "" 2
 750              	.LVL66:
 751              		.thumb
 752              		.syntax unified
 753              	.LBE259:
 754              	.LBE258:
 755              	.LBE257:
 756              	.LBE256:
 757              	.LBE255:
 758              	.LBE238:
 759              		.loc 1 398 0
 760 0064 002E     		cmp	r6, #0
 761 0066 DCD1     		bne	.L52
 762              	.LVL67:
 763              	.L53:
 764              	.LBB265:
 765              	.LBB260:
 766              	.LBB252:
 767              		.loc 1 66 0
 768 0068 0398     		ldr	r0, [sp, #12]
 769              	.LVL68:
 770              	.LBE252:
 771              	.LBE260:
 772              	.LBE265:
 773              	.LBB266:
 774              	.LBB267:
 775              	.LBB268:
 776              	.LBB269:
 777              	.LBB270:
 778              	.LBB271:
 779              		.loc 4 493 0
 780 006a 0023     		movs	r3, #0
 781              		.syntax unified
 782              	@ 493 "./RM18A-ChibiOS18-Core/chibios/os/common/ext/ARM/CMSIS/Core/Include/cmsis_gcc.h" 1
 783 006c 83F31188 		MSR basepri, r3
 784              	@ 0 "" 2
 785              	.LVL69:
 786              		.thumb
 787              		.syntax unified
 788              	.LBE271:
 789              	.LBE270:
 790              	.LBE269:
 791              	.LBE268:
 792              	.LBE267:
 793              	.LBE266:
 794              		.loc 1 429 0
 795 0070 05B0     		add	sp, sp, #20
 796              		.cfi_remember_state
 797              		.cfi_def_cfa_offset 36
 798              		@ sp needed
ARM GAS  /tmp/ccQzSp0l.s 			page 15


 799 0072 BDE8F08F 		pop	{r4, r5, r6, r7, r8, r9, r10, fp, pc}
 800              	.LVL70:
 801              	.L73:
 802              		.cfi_restore_state
 803              	.LBB277:
 804              	.LBB261:
 805              	.LBB262:
 806              	.LBB263:
 807              		.loc 3 831 0
 808 0076 0299     		ldr	r1, [sp, #8]
 809 0078 2046     		mov	r0, r4
 810 007a FFF7FEFF 		bl	chThdEnqueueTimeoutS
 811              	.LVL71:
 812              	.LBE263:
 813              	.LBE262:
 814              		.loc 1 406 0
 815 007e 0028     		cmp	r0, #0
 816 0080 CFD0     		beq	.L52
 817 0082 039B     		ldr	r3, [sp, #12]
 818 0084 981B     		subs	r0, r3, r6
 819              	.LVL72:
 820              	.LBE261:
 821              	.LBE277:
 822              	.LBB278:
 823              	.LBB276:
 824              	.LBB275:
 825              	.LBB274:
 826              	.LBB273:
 827              	.LBB272:
 828              		.loc 4 493 0
 829 0086 0023     		movs	r3, #0
 830              		.syntax unified
 831              	@ 493 "./RM18A-ChibiOS18-Core/chibios/os/common/ext/ARM/CMSIS/Core/Include/cmsis_gcc.h" 1
 832 0088 83F31188 		MSR basepri, r3
 833              	@ 0 "" 2
 834              	.LVL73:
 835              		.thumb
 836              		.syntax unified
 837              	.LBE272:
 838              	.LBE273:
 839              	.LBE274:
 840              	.LBE275:
 841              	.LBE276:
 842              	.LBE278:
 843              		.loc 1 429 0
 844 008c 05B0     		add	sp, sp, #20
 845              		.cfi_remember_state
 846              		.cfi_def_cfa_offset 36
 847              		@ sp needed
 848 008e BDE8F08F 		pop	{r4, r5, r6, r7, r8, r9, r10, fp, pc}
 849              	.LVL74:
 850              	.L72:
 851              		.cfi_restore_state
 852              	.LBB279:
 853              	.LBB264:
 854              	.LBB253:
 855              		.loc 1 81 0
ARM GAS  /tmp/ccQzSp0l.s 			page 16


 856 0092 A5EB0803 		sub	r3, r5, r8
 857              		.loc 1 79 0
 858 0096 4246     		mov	r2, r8
 859 0098 3846     		mov	r0, r7
 860              		.loc 1 81 0
 861 009a 0193     		str	r3, [sp, #4]
 862              		.loc 1 79 0
 863 009c FFF7FEFF 		bl	memcpy
 864              	.LVL75:
 865              		.loc 1 82 0
 866 00a0 07EB0800 		add	r0, r7, r8
 867              	.LVL76:
 868 00a4 DDF80480 		ldr	r8, [sp, #4]
 869              	.LVL77:
 870 00a8 E168     		ldr	r1, [r4, #12]
 871 00aa 4246     		mov	r2, r8
 872 00ac FFF7FEFF 		bl	memcpy
 873              	.LVL78:
 874              		.loc 1 83 0
 875 00b0 E268     		ldr	r2, [r4, #12]
 876 00b2 4346     		mov	r3, r8
 877 00b4 D318     		adds	r3, r2, r3
 878 00b6 A361     		str	r3, [r4, #24]
 879 00b8 C5E7     		b	.L56
 880              	.LVL79:
 881              	.L71:
 882              		.loc 1 75 0
 883 00ba 2A46     		mov	r2, r5
 884 00bc 3846     		mov	r0, r7
 885 00be FFF7FEFF 		bl	memcpy
 886              	.LVL80:
 887              		.loc 1 76 0
 888 00c2 A269     		ldr	r2, [r4, #24]
 889 00c4 2A44     		add	r2, r2, r5
 890 00c6 A261     		str	r2, [r4, #24]
 891 00c8 BDE7     		b	.L56
 892              	.LBE253:
 893              	.LBE264:
 894              	.LBE279:
 895              		.cfi_endproc
 896              	.LFE335:
 897              		.size	iqReadTimeout, .-iqReadTimeout
 898 00ca 00BF     		.section	.text.oqObjectInit,"ax",%progbits
 899              		.align	1
 900              		.p2align 2,,3
 901              		.global	oqObjectInit
 902              		.syntax unified
 903              		.thumb
 904              		.thumb_func
 905              		.fpu fpv4-sp-d16
 906              		.type	oqObjectInit, %function
 907              	oqObjectInit:
 908              	.LFB336:
 909              		.loc 1 447 0
 910              		.cfi_startproc
 911              		@ args = 4, pretend = 0, frame = 0
 912              		@ frame_needed = 0, uses_anonymous_args = 0
ARM GAS  /tmp/ccQzSp0l.s 			page 17


 913              		@ link register save eliminated.
 914              	.LVL81:
 915 0000 30B4     		push	{r4, r5}
 916              		.cfi_def_cfa_offset 8
 917              		.cfi_offset 4, -8
 918              		.cfi_offset 5, -4
 919              		.loc 1 447 0
 920 0002 029C     		ldr	r4, [sp, #8]
 921              		.loc 1 450 0
 922 0004 8260     		str	r2, [r0, #8]
 923              		.loc 1 454 0
 924 0006 8D18     		adds	r5, r1, r2
 925              		.loc 1 451 0
 926 0008 C0E90315 		strd	r1, r5, [r0, #12]
 927              		.loc 1 456 0
 928 000c C0E90734 		strd	r3, r4, [r0, #28]
 929              	.LBB280:
 930              	.LBB281:
 931              	.LBB282:
 932              	.LBB283:
 933              		.loc 2 540 0
 934 0010 C0E90000 		strd	r0, r0, [r0]
 935              	.LVL82:
 936              	.LBE283:
 937              	.LBE282:
 938              	.LBE281:
 939              	.LBE280:
 940              		.loc 1 453 0
 941 0014 C0E90511 		strd	r1, r1, [r0, #20]
 942              		.loc 1 457 0
 943 0018 30BC     		pop	{r4, r5}
 944              		.cfi_restore 5
 945              		.cfi_restore 4
 946              		.cfi_def_cfa_offset 0
 947              	.LVL83:
 948 001a 7047     		bx	lr
 949              		.cfi_endproc
 950              	.LFE336:
 951              		.size	oqObjectInit, .-oqObjectInit
 952              		.section	.text.oqResetI,"ax",%progbits
 953              		.align	1
 954              		.p2align 2,,3
 955              		.global	oqResetI
 956              		.syntax unified
 957              		.thumb
 958              		.thumb_func
 959              		.fpu fpv4-sp-d16
 960              		.type	oqResetI, %function
 961              	oqResetI:
 962              	.LFB337:
 963              		.loc 1 470 0
 964              		.cfi_startproc
 965              		@ args = 0, pretend = 0, frame = 0
 966              		@ frame_needed = 0, uses_anonymous_args = 0
 967              		@ link register save eliminated.
 968              	.LVL84:
 969 0000 10B4     		push	{r4}
ARM GAS  /tmp/ccQzSp0l.s 			page 18


 970              		.cfi_def_cfa_offset 4
 971              		.cfi_offset 4, -4
 972              		.loc 1 476 0
 973 0002 D0E90342 		ldrd	r4, r2, [r0, #12]
 974 0006 121B     		subs	r2, r2, r4
 975              		.loc 1 474 0
 976 0008 8461     		str	r4, [r0, #24]
 977              		.loc 1 475 0
 978 000a 4461     		str	r4, [r0, #20]
 979              	.LBB284:
 980              	.LBB285:
 981              		.loc 3 857 0
 982 000c 6FF00101 		mvn	r1, #1
 983              	.LBE285:
 984              	.LBE284:
 985              		.loc 1 476 0
 986 0010 8260     		str	r2, [r0, #8]
 987              	.LVL85:
 988              		.loc 1 478 0
 989 0012 5DF8044B 		ldr	r4, [sp], #4
 990              		.cfi_restore 4
 991              		.cfi_def_cfa_offset 0
 992              	.LBB287:
 993              	.LBB286:
 994              		.loc 3 857 0
 995 0016 FFF7FEBF 		b	chThdDequeueAllI
 996              	.LVL86:
 997              	.LBE286:
 998              	.LBE287:
 999              		.cfi_endproc
 1000              	.LFE337:
 1001              		.size	oqResetI, .-oqResetI
 1002 001a 00BF     		.section	.text.oqPutI,"ax",%progbits
 1003              		.align	1
 1004              		.p2align 2,,3
 1005              		.global	oqPutI
 1006              		.syntax unified
 1007              		.thumb
 1008              		.thumb_func
 1009              		.fpu fpv4-sp-d16
 1010              		.type	oqPutI, %function
 1011              	oqPutI:
 1012              	.LFB338:
 1013              		.loc 1 494 0
 1014              		.cfi_startproc
 1015              		@ args = 0, pretend = 0, frame = 0
 1016              		@ frame_needed = 0, uses_anonymous_args = 0
 1017              	.LVL87:
 1018              		.loc 1 499 0
 1019 0000 8368     		ldr	r3, [r0, #8]
 1020 0002 A3B1     		cbz	r3, .L81
 1021              		.loc 1 502 0
 1022 0004 4269     		ldr	r2, [r0, #20]
 1023              		.loc 1 501 0
 1024 0006 8368     		ldr	r3, [r0, #8]
 1025              		.loc 1 494 0
 1026 0008 10B5     		push	{r4, lr}
ARM GAS  /tmp/ccQzSp0l.s 			page 19


 1027              		.cfi_def_cfa_offset 8
 1028              		.cfi_offset 4, -8
 1029              		.cfi_offset 14, -4
 1030              		.loc 1 501 0
 1031 000a 013B     		subs	r3, r3, #1
 1032              		.loc 1 502 0
 1033 000c 541C     		adds	r4, r2, #1
 1034 000e 4461     		str	r4, [r0, #20]
 1035              		.loc 1 501 0
 1036 0010 8360     		str	r3, [r0, #8]
 1037              		.loc 1 502 0
 1038 0012 1170     		strb	r1, [r2]
 1039              		.loc 1 503 0
 1040 0014 D0E90432 		ldrd	r3, r2, [r0, #16]
 1041 0018 9A42     		cmp	r2, r3
 1042              		.loc 1 504 0
 1043 001a 24BF     		itt	cs
 1044 001c C368     		ldrcs	r3, [r0, #12]
 1045 001e 4361     		strcs	r3, [r0, #20]
 1046              		.loc 1 508 0
 1047 0020 C369     		ldr	r3, [r0, #28]
 1048 0022 13B1     		cbz	r3, .L82
 1049              		.loc 1 509 0
 1050 0024 9847     		blx	r3
 1051              	.LVL88:
 1052              		.loc 1 512 0
 1053 0026 0020     		movs	r0, #0
 1054              		.loc 1 516 0
 1055 0028 10BD     		pop	{r4, pc}
 1056              	.LVL89:
 1057              	.L82:
 1058              		.loc 1 512 0
 1059 002a 1846     		mov	r0, r3
 1060              	.LVL90:
 1061              		.loc 1 516 0
 1062 002c 10BD     		pop	{r4, pc}
 1063              	.LVL91:
 1064              	.L81:
 1065              		.cfi_def_cfa_offset 0
 1066              		.cfi_restore 4
 1067              		.cfi_restore 14
 1068              		.loc 1 515 0
 1069 002e 4FF0FF30 		mov	r0, #-1
 1070              	.LVL92:
 1071              		.loc 1 516 0
 1072 0032 7047     		bx	lr
 1073              		.cfi_endproc
 1074              	.LFE338:
 1075              		.size	oqPutI, .-oqPutI
 1076              		.section	.text.oqPutTimeout,"ax",%progbits
 1077              		.align	1
 1078              		.p2align 2,,3
 1079              		.global	oqPutTimeout
 1080              		.syntax unified
 1081              		.thumb
 1082              		.thumb_func
 1083              		.fpu fpv4-sp-d16
ARM GAS  /tmp/ccQzSp0l.s 			page 20


 1084              		.type	oqPutTimeout, %function
 1085              	oqPutTimeout:
 1086              	.LFB339:
 1087              		.loc 1 540 0
 1088              		.cfi_startproc
 1089              		@ args = 0, pretend = 0, frame = 0
 1090              		@ frame_needed = 0, uses_anonymous_args = 0
 1091              	.LVL93:
 1092 0000 F8B5     		push	{r3, r4, r5, r6, r7, lr}
 1093              		.cfi_def_cfa_offset 24
 1094              		.cfi_offset 3, -24
 1095              		.cfi_offset 4, -20
 1096              		.cfi_offset 5, -16
 1097              		.cfi_offset 6, -12
 1098              		.cfi_offset 7, -8
 1099              		.cfi_offset 14, -4
 1100              		.loc 1 540 0
 1101 0002 0446     		mov	r4, r0
 1102 0004 0F46     		mov	r7, r1
 1103 0006 1646     		mov	r6, r2
 1104              	.LBB288:
 1105              	.LBB289:
 1106              	.LBB290:
 1107              	.LBB291:
 1108              	.LBB292:
 1109              		.loc 4 493 0
 1110 0008 2023     		movs	r3, #32
 1111              		.syntax unified
 1112              	@ 493 "./RM18A-ChibiOS18-Core/chibios/os/common/ext/ARM/CMSIS/Core/Include/cmsis_gcc.h" 1
 1113 000a 83F31188 		MSR basepri, r3
 1114              	@ 0 "" 2
 1115              	.LVL94:
 1116              		.thumb
 1117              		.syntax unified
 1118 000e 03E0     		b	.L88
 1119              	.LVL95:
 1120              	.L90:
 1121              	.LBE292:
 1122              	.LBE291:
 1123              	.LBE290:
 1124              	.LBE289:
 1125              	.LBE288:
 1126              	.LBB293:
 1127              	.LBB294:
 1128              	.LBB295:
 1129              		.loc 3 831 0
 1130 0010 FFF7FEFF 		bl	chThdEnqueueTimeoutS
 1131              	.LVL96:
 1132              	.LBE295:
 1133              	.LBE294:
 1134              		.loc 1 547 0
 1135 0014 0028     		cmp	r0, #0
 1136 0016 18DB     		blt	.L98
 1137              	.L88:
 1138              	.LVL97:
 1139              	.LBE293:
 1140              		.loc 1 545 0
ARM GAS  /tmp/ccQzSp0l.s 			page 21


 1141 0018 A568     		ldr	r5, [r4, #8]
 1142              	.LBB304:
 1143              	.LBB297:
 1144              	.LBB296:
 1145              		.loc 3 831 0
 1146 001a 3146     		mov	r1, r6
 1147 001c 2046     		mov	r0, r4
 1148              	.LBE296:
 1149              	.LBE297:
 1150              	.LBE304:
 1151              		.loc 1 545 0
 1152 001e 002D     		cmp	r5, #0
 1153 0020 F6D0     		beq	.L90
 1154              	.LVL98:
 1155              		.loc 1 555 0
 1156 0022 6269     		ldr	r2, [r4, #20]
 1157              		.loc 1 554 0
 1158 0024 A368     		ldr	r3, [r4, #8]
 1159              		.loc 1 555 0
 1160 0026 511C     		adds	r1, r2, #1
 1161              	.LVL99:
 1162              		.loc 1 554 0
 1163 0028 013B     		subs	r3, r3, #1
 1164              		.loc 1 555 0
 1165 002a 6161     		str	r1, [r4, #20]
 1166              		.loc 1 554 0
 1167 002c A360     		str	r3, [r4, #8]
 1168              		.loc 1 555 0
 1169 002e 1770     		strb	r7, [r2]
 1170              		.loc 1 556 0
 1171 0030 D4E90432 		ldrd	r3, r2, [r4, #16]
 1172 0034 9A42     		cmp	r2, r3
 1173              		.loc 1 557 0
 1174 0036 24BF     		itt	cs
 1175 0038 E368     		ldrcs	r3, [r4, #12]
 1176 003a 6361     		strcs	r3, [r4, #20]
 1177              		.loc 1 561 0
 1178 003c E369     		ldr	r3, [r4, #28]
 1179 003e 03B1     		cbz	r3, .L92
 1180              		.loc 1 562 0
 1181 0040 9847     		blx	r3
 1182              	.LVL100:
 1183              	.L92:
 1184              	.LBB305:
 1185              	.LBB306:
 1186              	.LBB307:
 1187              	.LBB308:
 1188              	.LBB309:
 1189              	.LBB310:
 1190              		.loc 4 493 0
 1191 0042 0020     		movs	r0, #0
 1192              		.syntax unified
 1193              	@ 493 "./RM18A-ChibiOS18-Core/chibios/os/common/ext/ARM/CMSIS/Core/Include/cmsis_gcc.h" 1
 1194 0044 80F31188 		MSR basepri, r0
 1195              	@ 0 "" 2
 1196              	.LVL101:
 1197              		.thumb
ARM GAS  /tmp/ccQzSp0l.s 			page 22


 1198              		.syntax unified
 1199              	.LBE310:
 1200              	.LBE309:
 1201              	.LBE308:
 1202              	.LBE307:
 1203              	.LBE306:
 1204              	.LBE305:
 1205              		.loc 1 568 0
 1206 0048 F8BD     		pop	{r3, r4, r5, r6, r7, pc}
 1207              	.LVL102:
 1208              	.L98:
 1209              	.LBB311:
 1210              	.LBB298:
 1211              	.LBB299:
 1212              	.LBB300:
 1213              	.LBB301:
 1214              	.LBB302:
 1215              	.LBB303:
 1216              		.loc 4 493 0
 1217              		.syntax unified
 1218              	@ 493 "./RM18A-ChibiOS18-Core/chibios/os/common/ext/ARM/CMSIS/Core/Include/cmsis_gcc.h" 1
 1219 004a 85F31188 		MSR basepri, r5
 1220              	@ 0 "" 2
 1221              	.LVL103:
 1222              		.thumb
 1223              		.syntax unified
 1224              	.LBE303:
 1225              	.LBE302:
 1226              	.LBE301:
 1227              	.LBE300:
 1228              	.LBE299:
 1229              	.LBE298:
 1230              	.LBE311:
 1231              		.loc 1 568 0
 1232 004e F8BD     		pop	{r3, r4, r5, r6, r7, pc}
 1233              		.cfi_endproc
 1234              	.LFE339:
 1235              		.size	oqPutTimeout, .-oqPutTimeout
 1236              		.section	.text.oqGetI,"ax",%progbits
 1237              		.align	1
 1238              		.p2align 2,,3
 1239              		.global	oqGetI
 1240              		.syntax unified
 1241              		.thumb
 1242              		.thumb_func
 1243              		.fpu fpv4-sp-d16
 1244              		.type	oqGetI, %function
 1245              	oqGetI:
 1246              	.LFB340:
 1247              		.loc 1 581 0
 1248              		.cfi_startproc
 1249              		@ args = 0, pretend = 0, frame = 0
 1250              		@ frame_needed = 0, uses_anonymous_args = 0
 1251              	.LVL104:
 1252 0000 38B5     		push	{r3, r4, r5, lr}
 1253              		.cfi_def_cfa_offset 16
 1254              		.cfi_offset 3, -16
ARM GAS  /tmp/ccQzSp0l.s 			page 23


 1255              		.cfi_offset 4, -12
 1256              		.cfi_offset 5, -8
 1257              		.cfi_offset 14, -4
 1258              		.loc 1 586 0
 1259 0002 D0E90523 		ldrd	r2, r3, [r0, #20]
 1260 0006 9A42     		cmp	r2, r3
 1261 0008 0FD0     		beq	.L106
 1262              	.L100:
 1263              	.LBB312:
 1264              		.loc 1 589 0
 1265 000a 8268     		ldr	r2, [r0, #8]
 1266              		.loc 1 591 0
 1267 000c 0569     		ldr	r5, [r0, #16]
 1268              		.loc 1 590 0
 1269 000e 591C     		adds	r1, r3, #1
 1270              		.loc 1 589 0
 1271 0010 0132     		adds	r2, r2, #1
 1272 0012 8260     		str	r2, [r0, #8]
 1273              		.loc 1 590 0
 1274 0014 8161     		str	r1, [r0, #24]
 1275              		.loc 1 591 0
 1276 0016 A942     		cmp	r1, r5
 1277              		.loc 1 590 0
 1278 0018 1C78     		ldrb	r4, [r3]	@ zero_extendqisi2
 1279              	.LVL105:
 1280              		.loc 1 591 0
 1281 001a 01D3     		bcc	.L103
 1282              		.loc 1 592 0
 1283 001c C368     		ldr	r3, [r0, #12]
 1284 001e 8361     		str	r3, [r0, #24]
 1285              	.L103:
 1286              	.LVL106:
 1287              	.LBB313:
 1288              	.LBB314:
 1289              		.loc 3 844 0
 1290 0020 0021     		movs	r1, #0
 1291 0022 FFF7FEFF 		bl	chThdDequeueNextI
 1292              	.LVL107:
 1293              	.LBE314:
 1294              	.LBE313:
 1295              		.loc 1 597 0
 1296 0026 2046     		mov	r0, r4
 1297              	.LBE312:
 1298              		.loc 1 601 0
 1299 0028 38BD     		pop	{r3, r4, r5, pc}
 1300              	.LVL108:
 1301              	.L106:
 1302              		.loc 1 586 0 discriminator 1
 1303 002a 8268     		ldr	r2, [r0, #8]
 1304 002c 002A     		cmp	r2, #0
 1305 002e ECD0     		beq	.L100
 1306              		.loc 1 600 0
 1307 0030 4FF0FF30 		mov	r0, #-1
 1308              	.LVL109:
 1309              		.loc 1 601 0
 1310 0034 38BD     		pop	{r3, r4, r5, pc}
 1311              		.cfi_endproc
ARM GAS  /tmp/ccQzSp0l.s 			page 24


 1312              	.LFE340:
 1313              		.size	oqGetI, .-oqGetI
 1314 0036 00BF     		.section	.text.oqWriteI,"ax",%progbits
 1315              		.align	1
 1316              		.p2align 2,,3
 1317              		.global	oqWriteI
 1318              		.syntax unified
 1319              		.thumb
 1320              		.thumb_func
 1321              		.fpu fpv4-sp-d16
 1322              		.type	oqWriteI, %function
 1323              	oqWriteI:
 1324              	.LFB341:
 1325              		.loc 1 617 0
 1326              		.cfi_startproc
 1327              		@ args = 0, pretend = 0, frame = 0
 1328              		@ frame_needed = 0, uses_anonymous_args = 0
 1329              	.LVL110:
 1330 0000 2DE9F843 		push	{r3, r4, r5, r6, r7, r8, r9, lr}
 1331              		.cfi_def_cfa_offset 32
 1332              		.cfi_offset 3, -32
 1333              		.cfi_offset 4, -28
 1334              		.cfi_offset 5, -24
 1335              		.cfi_offset 6, -20
 1336              		.cfi_offset 7, -16
 1337              		.cfi_offset 8, -12
 1338              		.cfi_offset 9, -8
 1339              		.cfi_offset 14, -4
 1340              	.LBB317:
 1341              	.LBB318:
 1342              		.loc 1 114 0
 1343 0004 8368     		ldr	r3, [r0, #8]
 1344              	.LBE318:
 1345              	.LBE317:
 1346              		.loc 1 618 0
 1347 0006 D0F81C80 		ldr	r8, [r0, #28]
 1348              	.LBB323:
 1349              	.LBB319:
 1350              		.loc 1 114 0
 1351 000a 9A42     		cmp	r2, r3
 1352              		.loc 1 115 0
 1353 000c 88BF     		it	hi
 1354 000e 8568     		ldrhi	r5, [r0, #8]
 1355              	.LVL111:
 1356              	.LBE319:
 1357              	.LBE323:
 1358              		.loc 1 617 0
 1359 0010 0446     		mov	r4, r0
 1360              	.LVL112:
 1361              	.LBB324:
 1362              	.LBB320:
 1363              		.loc 1 120 0
 1364 0012 D0E90460 		ldrd	r6, r0, [r0, #16]
 1365              	.LVL113:
 1366 0016 98BF     		it	ls
 1367 0018 1546     		movls	r5, r2
 1368 001a 361A     		subs	r6, r6, r0
ARM GAS  /tmp/ccQzSp0l.s 			page 25


 1369              		.loc 1 122 0
 1370 001c AE42     		cmp	r6, r5
 1371              	.LBE320:
 1372              	.LBE324:
 1373              		.loc 1 617 0
 1374 001e 0F46     		mov	r7, r1
 1375              	.LVL114:
 1376              	.LBB325:
 1377              	.LBB321:
 1378              		.loc 1 122 0
 1379 0020 1FD8     		bhi	.L121
 1380              		.loc 1 126 0
 1381 0022 10D3     		bcc	.L122
 1382              		.loc 1 134 0
 1383 0024 2A46     		mov	r2, r5
 1384 0026 FFF7FEFF 		bl	memcpy
 1385              	.LVL115:
 1386              		.loc 1 135 0
 1387 002a E368     		ldr	r3, [r4, #12]
 1388 002c 6361     		str	r3, [r4, #20]
 1389              	.LVL116:
 1390              	.L110:
 1391              		.loc 1 138 0
 1392 002e A368     		ldr	r3, [r4, #8]
 1393 0030 5B1B     		subs	r3, r3, r5
 1394 0032 A360     		str	r3, [r4, #8]
 1395              	.LVL117:
 1396              	.LBE321:
 1397              	.LBE325:
 1398              		.loc 1 627 0
 1399 0034 25B1     		cbz	r5, .L112
 1400              		.loc 1 627 0 is_stmt 0 discriminator 1
 1401 0036 B8F1000F 		cmp	r8, #0
 1402 003a 01D0     		beq	.L112
 1403              		.loc 1 628 0 is_stmt 1
 1404 003c 2046     		mov	r0, r4
 1405 003e C047     		blx	r8
 1406              	.LVL118:
 1407              	.L112:
 1408              		.loc 1 632 0
 1409 0040 2846     		mov	r0, r5
 1410 0042 BDE8F883 		pop	{r3, r4, r5, r6, r7, r8, r9, pc}
 1411              	.LVL119:
 1412              	.L122:
 1413              	.LBB326:
 1414              	.LBB322:
 1415              		.loc 1 127 0
 1416 0046 3246     		mov	r2, r6
 1417              		.loc 1 129 0
 1418 0048 A5EB0609 		sub	r9, r5, r6
 1419              		.loc 1 127 0
 1420 004c FFF7FEFF 		bl	memcpy
 1421              	.LVL120:
 1422              		.loc 1 130 0
 1423 0050 4A46     		mov	r2, r9
 1424 0052 B919     		adds	r1, r7, r6
 1425              	.LVL121:
ARM GAS  /tmp/ccQzSp0l.s 			page 26


 1426 0054 E068     		ldr	r0, [r4, #12]
 1427 0056 FFF7FEFF 		bl	memcpy
 1428              	.LVL122:
 1429              		.loc 1 131 0
 1430 005a E268     		ldr	r2, [r4, #12]
 1431 005c 4A44     		add	r2, r2, r9
 1432 005e 6261     		str	r2, [r4, #20]
 1433 0060 E5E7     		b	.L110
 1434              	.LVL123:
 1435              	.L121:
 1436              		.loc 1 123 0
 1437 0062 2A46     		mov	r2, r5
 1438 0064 FFF7FEFF 		bl	memcpy
 1439              	.LVL124:
 1440              		.loc 1 124 0
 1441 0068 6369     		ldr	r3, [r4, #20]
 1442 006a 2B44     		add	r3, r3, r5
 1443 006c 6361     		str	r3, [r4, #20]
 1444 006e DEE7     		b	.L110
 1445              	.LBE322:
 1446              	.LBE326:
 1447              		.cfi_endproc
 1448              	.LFE341:
 1449              		.size	oqWriteI, .-oqWriteI
 1450              		.section	.text.oqWriteTimeout,"ax",%progbits
 1451              		.align	1
 1452              		.p2align 2,,3
 1453              		.global	oqWriteTimeout
 1454              		.syntax unified
 1455              		.thumb
 1456              		.thumb_func
 1457              		.fpu fpv4-sp-d16
 1458              		.type	oqWriteTimeout, %function
 1459              	oqWriteTimeout:
 1460              	.LFB342:
 1461              		.loc 1 659 0
 1462              		.cfi_startproc
 1463              		@ args = 0, pretend = 0, frame = 16
 1464              		@ frame_needed = 0, uses_anonymous_args = 0
 1465              	.LVL125:
 1466 0000 2DE9F04F 		push	{r4, r5, r6, r7, r8, r9, r10, fp, lr}
 1467              		.cfi_def_cfa_offset 36
 1468              		.cfi_offset 4, -36
 1469              		.cfi_offset 5, -32
 1470              		.cfi_offset 6, -28
 1471              		.cfi_offset 7, -24
 1472              		.cfi_offset 8, -20
 1473              		.cfi_offset 9, -16
 1474              		.cfi_offset 10, -12
 1475              		.cfi_offset 11, -8
 1476              		.cfi_offset 14, -4
 1477 0004 85B0     		sub	sp, sp, #20
 1478              		.cfi_def_cfa_offset 56
 1479              		.loc 1 659 0
 1480 0006 CDE90232 		strd	r3, r2, [sp, #8]
 1481              		.loc 1 660 0
 1482 000a D0F81C90 		ldr	r9, [r0, #28]
ARM GAS  /tmp/ccQzSp0l.s 			page 27


 1483              	.LVL126:
 1484              	.LBB355:
 1485              	.LBB356:
 1486              	.LBB357:
 1487              	.LBB358:
 1488              	.LBB359:
 1489              		.loc 4 493 0
 1490 000e 4FF0200A 		mov	r10, #32
 1491              		.syntax unified
 1492              	@ 493 "./RM18A-ChibiOS18-Core/chibios/os/common/ext/ARM/CMSIS/Core/Include/cmsis_gcc.h" 1
 1493 0012 8AF31188 		MSR basepri, r10
 1494              	@ 0 "" 2
 1495              	.LVL127:
 1496              		.thumb
 1497              		.syntax unified
 1498              	.LBE359:
 1499              	.LBE358:
 1500              	.LBE357:
 1501              	.LBE356:
 1502              	.LBE355:
 1503              		.loc 1 667 0
 1504 0016 3AB3     		cbz	r2, .L125
 1505 0018 0446     		mov	r4, r0
 1506 001a 0F46     		mov	r7, r1
 1507 001c 1646     		mov	r6, r2
 1508              	.LBB360:
 1509              	.LBB361:
 1510              	.LBB362:
 1511              	.LBB363:
 1512              	.LBB364:
 1513              	.LBB365:
 1514              	.LBB366:
 1515              		.loc 4 493 0
 1516 001e 4FF0000B 		mov	fp, #0
 1517              	.LVL128:
 1518              	.L124:
 1519              	.LBE366:
 1520              	.LBE365:
 1521              	.LBE364:
 1522              	.LBE363:
 1523              	.LBE362:
 1524              	.LBE361:
 1525              	.LBB372:
 1526              	.LBB373:
 1527              		.loc 1 114 0
 1528 0022 A268     		ldr	r2, [r4, #8]
 1529 0024 9642     		cmp	r6, r2
 1530              		.loc 1 120 0
 1531 0026 D4E90420 		ldrd	r2, r0, [r4, #16]
 1532              		.loc 1 115 0
 1533 002a 8CBF     		ite	hi
 1534 002c A568     		ldrhi	r5, [r4, #8]
 1535              	.LVL129:
 1536              		.loc 1 114 0
 1537 002e 3546     		movls	r5, r6
 1538              	.LVL130:
 1539              		.loc 1 120 0
ARM GAS  /tmp/ccQzSp0l.s 			page 28


 1540 0030 A2EB0008 		sub	r8, r2, r0
 1541              	.LVL131:
 1542              		.loc 1 122 0
 1543 0034 A845     		cmp	r8, r5
 1544 0036 40D8     		bhi	.L143
 1545              		.loc 1 126 0
 1546 0038 2BD3     		bcc	.L144
 1547              		.loc 1 134 0
 1548 003a 2A46     		mov	r2, r5
 1549 003c 3946     		mov	r1, r7
 1550 003e FFF7FEFF 		bl	memcpy
 1551              	.LVL132:
 1552              		.loc 1 135 0
 1553 0042 E268     		ldr	r2, [r4, #12]
 1554 0044 6261     		str	r2, [r4, #20]
 1555              	.LVL133:
 1556              	.L128:
 1557              		.loc 1 138 0
 1558 0046 A268     		ldr	r2, [r4, #8]
 1559 0048 521B     		subs	r2, r2, r5
 1560 004a A260     		str	r2, [r4, #8]
 1561              	.LVL134:
 1562              	.LBE373:
 1563              	.LBE372:
 1564              		.loc 1 671 0
 1565 004c 9DB1     		cbz	r5, .L145
 1566              		.loc 1 682 0
 1567 004e B9F1000F 		cmp	r9, #0
 1568 0052 01D0     		beq	.L133
 1569              		.loc 1 683 0
 1570 0054 2046     		mov	r0, r4
 1571 0056 C847     		blx	r9
 1572              	.LVL135:
 1573              	.L133:
 1574              	.LBB376:
 1575              	.LBB371:
 1576              	.LBB370:
 1577              	.LBB369:
 1578              	.LBB368:
 1579              	.LBB367:
 1580              		.loc 4 493 0
 1581              		.syntax unified
 1582              	@ 493 "./RM18A-ChibiOS18-Core/chibios/os/common/ext/ARM/CMSIS/Core/Include/cmsis_gcc.h" 1
 1583 0058 8BF31188 		MSR basepri, fp
 1584              	@ 0 "" 2
 1585              	.LVL136:
 1586              		.thumb
 1587              		.syntax unified
 1588              	.LBE367:
 1589              	.LBE368:
 1590              	.LBE369:
 1591              	.LBE370:
 1592              	.LBE371:
 1593              	.LBE376:
 1594              		.loc 1 689 0
 1595 005c 761B     		subs	r6, r6, r5
 1596              	.LVL137:
ARM GAS  /tmp/ccQzSp0l.s 			page 29


 1597              		.loc 1 690 0
 1598 005e 2F44     		add	r7, r7, r5
 1599              	.LVL138:
 1600              	.LBB377:
 1601              	.LBB378:
 1602              	.LBB379:
 1603              	.LBB380:
 1604              	.LBB381:
 1605              		.loc 4 493 0
 1606              		.syntax unified
 1607              	@ 493 "./RM18A-ChibiOS18-Core/chibios/os/common/ext/ARM/CMSIS/Core/Include/cmsis_gcc.h" 1
 1608 0060 8AF31188 		MSR basepri, r10
 1609              	@ 0 "" 2
 1610              	.LVL139:
 1611              		.thumb
 1612              		.syntax unified
 1613              	.LBE381:
 1614              	.LBE380:
 1615              	.LBE379:
 1616              	.LBE378:
 1617              	.LBE377:
 1618              	.LBE360:
 1619              		.loc 1 667 0
 1620 0064 002E     		cmp	r6, #0
 1621 0066 DCD1     		bne	.L124
 1622              	.LVL140:
 1623              	.L125:
 1624              	.LBB387:
 1625              	.LBB382:
 1626              	.LBB374:
 1627              		.loc 1 114 0
 1628 0068 0398     		ldr	r0, [sp, #12]
 1629              	.LVL141:
 1630              	.LBE374:
 1631              	.LBE382:
 1632              	.LBE387:
 1633              	.LBB388:
 1634              	.LBB389:
 1635              	.LBB390:
 1636              	.LBB391:
 1637              	.LBB392:
 1638              	.LBB393:
 1639              		.loc 4 493 0
 1640 006a 0023     		movs	r3, #0
 1641              		.syntax unified
 1642              	@ 493 "./RM18A-ChibiOS18-Core/chibios/os/common/ext/ARM/CMSIS/Core/Include/cmsis_gcc.h" 1
 1643 006c 83F31188 		MSR basepri, r3
 1644              	@ 0 "" 2
 1645              	.LVL142:
 1646              		.thumb
 1647              		.syntax unified
 1648              	.LBE393:
 1649              	.LBE392:
 1650              	.LBE391:
 1651              	.LBE390:
 1652              	.LBE389:
 1653              	.LBE388:
ARM GAS  /tmp/ccQzSp0l.s 			page 30


 1654              		.loc 1 698 0
 1655 0070 05B0     		add	sp, sp, #20
 1656              		.cfi_remember_state
 1657              		.cfi_def_cfa_offset 36
 1658              		@ sp needed
 1659 0072 BDE8F08F 		pop	{r4, r5, r6, r7, r8, r9, r10, fp, pc}
 1660              	.LVL143:
 1661              	.L145:
 1662              		.cfi_restore_state
 1663              	.LBB399:
 1664              	.LBB383:
 1665              	.LBB384:
 1666              	.LBB385:
 1667              		.loc 3 831 0
 1668 0076 0299     		ldr	r1, [sp, #8]
 1669 0078 2046     		mov	r0, r4
 1670 007a FFF7FEFF 		bl	chThdEnqueueTimeoutS
 1671              	.LVL144:
 1672              	.LBE385:
 1673              	.LBE384:
 1674              		.loc 1 675 0
 1675 007e 0028     		cmp	r0, #0
 1676 0080 CFD0     		beq	.L124
 1677 0082 039B     		ldr	r3, [sp, #12]
 1678 0084 981B     		subs	r0, r3, r6
 1679              	.LVL145:
 1680              	.LBE383:
 1681              	.LBE399:
 1682              	.LBB400:
 1683              	.LBB398:
 1684              	.LBB397:
 1685              	.LBB396:
 1686              	.LBB395:
 1687              	.LBB394:
 1688              		.loc 4 493 0
 1689 0086 0023     		movs	r3, #0
 1690              		.syntax unified
 1691              	@ 493 "./RM18A-ChibiOS18-Core/chibios/os/common/ext/ARM/CMSIS/Core/Include/cmsis_gcc.h" 1
 1692 0088 83F31188 		MSR basepri, r3
 1693              	@ 0 "" 2
 1694              	.LVL146:
 1695              		.thumb
 1696              		.syntax unified
 1697              	.LBE394:
 1698              	.LBE395:
 1699              	.LBE396:
 1700              	.LBE397:
 1701              	.LBE398:
 1702              	.LBE400:
 1703              		.loc 1 698 0
 1704 008c 05B0     		add	sp, sp, #20
 1705              		.cfi_remember_state
 1706              		.cfi_def_cfa_offset 36
 1707              		@ sp needed
 1708 008e BDE8F08F 		pop	{r4, r5, r6, r7, r8, r9, r10, fp, pc}
 1709              	.LVL147:
 1710              	.L144:
ARM GAS  /tmp/ccQzSp0l.s 			page 31


 1711              		.cfi_restore_state
 1712              	.LBB401:
 1713              	.LBB386:
 1714              	.LBB375:
 1715              		.loc 1 129 0
 1716 0092 A5EB0803 		sub	r3, r5, r8
 1717              		.loc 1 127 0
 1718 0096 4246     		mov	r2, r8
 1719 0098 3946     		mov	r1, r7
 1720              		.loc 1 129 0
 1721 009a 0193     		str	r3, [sp, #4]
 1722              		.loc 1 127 0
 1723 009c FFF7FEFF 		bl	memcpy
 1724              	.LVL148:
 1725              		.loc 1 130 0
 1726 00a0 07EB0801 		add	r1, r7, r8
 1727              	.LVL149:
 1728 00a4 DDF80480 		ldr	r8, [sp, #4]
 1729              	.LVL150:
 1730 00a8 E068     		ldr	r0, [r4, #12]
 1731 00aa 4246     		mov	r2, r8
 1732 00ac FFF7FEFF 		bl	memcpy
 1733              	.LVL151:
 1734              		.loc 1 131 0
 1735 00b0 E268     		ldr	r2, [r4, #12]
 1736 00b2 4346     		mov	r3, r8
 1737 00b4 D318     		adds	r3, r2, r3
 1738 00b6 6361     		str	r3, [r4, #20]
 1739 00b8 C5E7     		b	.L128
 1740              	.LVL152:
 1741              	.L143:
 1742              		.loc 1 123 0
 1743 00ba 2A46     		mov	r2, r5
 1744 00bc 3946     		mov	r1, r7
 1745 00be FFF7FEFF 		bl	memcpy
 1746              	.LVL153:
 1747              		.loc 1 124 0
 1748 00c2 6269     		ldr	r2, [r4, #20]
 1749 00c4 2A44     		add	r2, r2, r5
 1750 00c6 6261     		str	r2, [r4, #20]
 1751 00c8 BDE7     		b	.L128
 1752              	.LBE375:
 1753              	.LBE386:
 1754              	.LBE401:
 1755              		.cfi_endproc
 1756              	.LFE342:
 1757              		.size	oqWriteTimeout, .-oqWriteTimeout
 1758 00ca 00BF     		.text
 1759              	.Letext0:
 1760              		.file 5 "/usr/lib/gcc/arm-none-eabi/7.3.1/include/stddef.h"
 1761              		.file 6 "/usr/arm-none-eabi/include/machine/_default_types.h"
 1762              		.file 7 "/usr/arm-none-eabi/include/sys/lock.h"
 1763              		.file 8 "/usr/arm-none-eabi/include/sys/_types.h"
 1764              		.file 9 "/usr/arm-none-eabi/include/sys/reent.h"
 1765              		.file 10 "/usr/arm-none-eabi/include/sys/_stdint.h"
 1766              		.file 11 "./RM18A-ChibiOS18-Core/chibios/os/common/ports/ARMCMx/compilers/GCC/chtypes.h"
 1767              		.file 12 "./RM18A-ChibiOS18-Core/chibios/os/rt/include/chsystypes.h"
ARM GAS  /tmp/ccQzSp0l.s 			page 32


 1768              		.file 13 "./RM18A-ChibiOS18-Core/chibios/os/rt/include/chtime.h"
 1769              		.file 14 "./RM18A-ChibiOS18-Core/chibios/os/common/ext/ARM/CMSIS/Core/Include/core_cm4.h"
 1770              		.file 15 "./RM18A-ChibiOS18-Core/chibios/os/common/ext/ST/STM32F4xx/system_stm32f4xx.h"
 1771              		.file 16 "./RM18A-ChibiOS18-Core/chibios/os/common/ext/ST/STM32F4xx/stm32f427xx.h"
 1772              		.file 17 "./RM18A-ChibiOS18-Core/chibios/os/common/ports/ARMCMx/chcore.h"
 1773              		.file 18 "./RM18A-ChibiOS18-Core/chibios/os/common/ports/ARMCMx/chcore_v7m.h"
 1774              		.file 19 "./RM18A-ChibiOS18-Core/chibios/os/hal/ports/STM32/LLD/TIMv1/stm32_tim.h"
 1775              		.file 20 "./RM18A-ChibiOS18-Core/chibios/os/rt/include/chtm.h"
 1776              		.file 21 "./RM18A-ChibiOS18-Core/chibios/os/rt/include/chsem.h"
 1777              		.file 22 "./RM18A-ChibiOS18-Core/chibios/os/rt/include/chmtx.h"
 1778              		.file 23 "./RM18A-ChibiOS18-Core/chibios/os/rt/include/chsys.h"
 1779              		.file 24 "./RM18A-ChibiOS18-Core/chibios/os/rt/include/chregistry.h"
 1780              		.file 25 "./RM18A-ChibiOS18-Core/chibios/os/rt/include/chevents.h"
 1781              		.file 26 "./RM18A-ChibiOS18-Core/chibios/os/oslib/include/chmemcore.h"
 1782              		.file 27 "./RM18A-ChibiOS18-Core/chibios/os/oslib/include/chmempools.h"
 1783              		.file 28 "./RM18A-ChibiOS18-Core/chibios/os/oslib/include/chfactory.h"
 1784              		.file 29 "./RM18A-ChibiOS18-Core/chibios/os/hal/ports/STM32/LLD/DMAv2/stm32_dma.h"
 1785              		.file 30 "./RM18A-ChibiOS18-Core/chibios/os/hal/include/hal_queues.h"
 1786              		.file 31 "./RM18A-ChibiOS18-Core/chibios/os/hal/include/hal_pal.h"
 1787              		.file 32 "./RM18A-ChibiOS18-Core/chibios/os/hal/ports/STM32/LLD/GPIOv2/hal_pal_lld.h"
 1788              		.file 33 "./RM18A-ChibiOS18-Core/chibios/os/hal/include/hal_adc.h"
 1789              		.file 34 "./RM18A-ChibiOS18-Core/chibios/os/hal/ports/STM32/LLD/ADCv2/hal_adc_lld.h"
 1790              		.file 35 "./RM18A-ChibiOS18-Core/chibios/os/hal/include/hal_can.h"
 1791              		.file 36 "./RM18A-ChibiOS18-Core/chibios/os/hal/ports/STM32/LLD/CANv1/hal_can_lld.h"
 1792              		.file 37 "./RM18A-ChibiOS18-Core/chibios/os/hal/include/hal_i2c.h"
 1793              		.file 38 "./RM18A-ChibiOS18-Core/chibios/os/hal/lib/fallback/I2C/hal_i2c_lld.h"
 1794              		.file 39 "./RM18A-ChibiOS18-Core/chibios/os/hal/include/hal_icu.h"
 1795              		.file 40 "./RM18A-ChibiOS18-Core/chibios/os/hal/ports/STM32/LLD/TIMv1/hal_icu_lld.h"
 1796              		.file 41 "./RM18A-ChibiOS18-Core/chibios/os/hal/include/hal_pwm.h"
 1797              		.file 42 "./RM18A-ChibiOS18-Core/chibios/os/hal/ports/STM32/LLD/TIMv1/hal_pwm_lld.h"
 1798              		.file 43 "./RM18A-ChibiOS18-Core/chibios/os/hal/include/hal_serial.h"
 1799              		.file 44 "./RM18A-ChibiOS18-Core/chibios/os/hal/ports/STM32/LLD/USARTv1/hal_serial_lld.h"
 1800              		.file 45 "./RM18A-ChibiOS18-Core/chibios/os/hal/include/hal_spi.h"
 1801              		.file 46 "./RM18A-ChibiOS18-Core/chibios/os/hal/ports/STM32/LLD/SPIv1/hal_spi_lld.h"
 1802              		.file 47 "./RM18A-ChibiOS18-Core/chibios/os/hal/include/hal_uart.h"
 1803              		.file 48 "./RM18A-ChibiOS18-Core/chibios/os/hal/ports/STM32/LLD/USARTv1/hal_uart_lld.h"
 1804              		.file 49 "./RM18A-ChibiOS18-Core/chibios/os/hal/include/hal_usb.h"
 1805              		.file 50 "./RM18A-ChibiOS18-Core/chibios/os/hal/ports/STM32/LLD/OTGv1/hal_usb_lld.h"
 1806              		.file 51 "./RM18A-ChibiOS18-Core/chibios/os/hal/ports/STM32/LLD/OTGv1/stm32_otg.h"
 1807              		.file 52 "./RM18A-ChibiOS18-Core/chibios/os/rt/include/chthreads.h"
 1808              		.file 53 "<built-in>"