ARM GAS  /tmp/ccerCR4U.s 			page 1


   1              		.cpu cortex-m4
   2              		.eabi_attribute 27, 1
   3              		.eabi_attribute 28, 1
   4              		.eabi_attribute 20, 1
   5              		.eabi_attribute 21, 1
   6              		.eabi_attribute 23, 3
   7              		.eabi_attribute 24, 1
   8              		.eabi_attribute 25, 1
   9              		.eabi_attribute 26, 1
  10              		.eabi_attribute 30, 2
  11              		.eabi_attribute 34, 1
  12              		.eabi_attribute 18, 4
  13              		.file	"hal_icu.c"
  14              		.text
  15              	.Ltext0:
  16              		.cfi_sections	.debug_frame
  17              		.section	.text.icuInit,"ax",%progbits
  18              		.align	1
  19              		.p2align 2,,3
  20              		.global	icuInit
  21              		.syntax unified
  22              		.thumb
  23              		.thumb_func
  24              		.fpu fpv4-sp-d16
  25              		.type	icuInit, %function
  26              	icuInit:
  27              	.LFB327:
  28              		.file 1 "./RM18A-ChibiOS18-Core/chibios/os/hal/src/hal_icu.c"
  29              		.loc 1 56 0
  30              		.cfi_startproc
  31              		@ args = 0, pretend = 0, frame = 0
  32              		@ frame_needed = 0, uses_anonymous_args = 0
  33              		@ link register save eliminated.
  34              		.loc 1 58 0
  35 0000 FFF7FEBF 		b	icu_lld_init
  36              	.LVL0:
  37              		.cfi_endproc
  38              	.LFE327:
  39              		.size	icuInit, .-icuInit
  40              		.section	.text.icuObjectInit,"ax",%progbits
  41              		.align	1
  42              		.p2align 2,,3
  43              		.global	icuObjectInit
  44              		.syntax unified
  45              		.thumb
  46              		.thumb_func
  47              		.fpu fpv4-sp-d16
  48              		.type	icuObjectInit, %function
  49              	icuObjectInit:
  50              	.LFB328:
  51              		.loc 1 68 0
  52              		.cfi_startproc
  53              		@ args = 0, pretend = 0, frame = 0
  54              		@ frame_needed = 0, uses_anonymous_args = 0
  55              		@ link register save eliminated.
  56              	.LVL1:
  57              		.loc 1 70 0
ARM GAS  /tmp/ccerCR4U.s 			page 2


  58 0000 0122     		movs	r2, #1
  59              		.loc 1 71 0
  60 0002 0023     		movs	r3, #0
  61              		.loc 1 70 0
  62 0004 0270     		strb	r2, [r0]
  63              		.loc 1 71 0
  64 0006 4360     		str	r3, [r0, #4]
  65              		.loc 1 72 0
  66 0008 7047     		bx	lr
  67              		.cfi_endproc
  68              	.LFE328:
  69              		.size	icuObjectInit, .-icuObjectInit
  70 000a 00BF     		.section	.text.icuStart,"ax",%progbits
  71              		.align	1
  72              		.p2align 2,,3
  73              		.global	icuStart
  74              		.syntax unified
  75              		.thumb
  76              		.thumb_func
  77              		.fpu fpv4-sp-d16
  78              		.type	icuStart, %function
  79              	icuStart:
  80              	.LFB329:
  81              		.loc 1 82 0
  82              		.cfi_startproc
  83              		@ args = 0, pretend = 0, frame = 0
  84              		@ frame_needed = 0, uses_anonymous_args = 0
  85              	.LVL2:
  86 0000 10B5     		push	{r4, lr}
  87              		.cfi_def_cfa_offset 8
  88              		.cfi_offset 4, -8
  89              		.cfi_offset 14, -4
  90              	.LBB115:
  91              	.LBB116:
  92              	.LBB117:
  93              	.LBB118:
  94              	.LBB119:
  95              		.file 2 "./RM18A-ChibiOS18-Core/chibios/os/common/ext/ARM/CMSIS/Core/Include/cmsis_gcc.h"
  96              		.loc 2 493 0
  97 0002 2023     		movs	r3, #32
  98              	.LBE119:
  99              	.LBE118:
 100              	.LBE117:
 101              	.LBE116:
 102              	.LBE115:
 103              		.loc 1 82 0
 104 0004 0446     		mov	r4, r0
 105              	.LBB124:
 106              	.LBB123:
 107              	.LBB122:
 108              	.LBB121:
 109              	.LBB120:
 110              		.loc 2 493 0
 111              		.syntax unified
 112              	@ 493 "./RM18A-ChibiOS18-Core/chibios/os/common/ext/ARM/CMSIS/Core/Include/cmsis_gcc.h" 1
 113 0006 83F31188 		MSR basepri, r3
 114              	@ 0 "" 2
ARM GAS  /tmp/ccerCR4U.s 			page 3


 115              	.LVL3:
 116              		.thumb
 117              		.syntax unified
 118              	.LBE120:
 119              	.LBE121:
 120              	.LBE122:
 121              	.LBE123:
 122              	.LBE124:
 123              		.loc 1 89 0
 124 000a 4160     		str	r1, [r0, #4]
 125              		.loc 1 90 0
 126 000c FFF7FEFF 		bl	icu_lld_start
 127              	.LVL4:
 128              		.loc 1 91 0
 129 0010 0223     		movs	r3, #2
 130 0012 2370     		strb	r3, [r4]
 131              	.LVL5:
 132              	.LBB125:
 133              	.LBB126:
 134              	.LBB127:
 135              	.LBB128:
 136              	.LBB129:
 137              	.LBB130:
 138              		.loc 2 493 0
 139 0014 0023     		movs	r3, #0
 140              		.syntax unified
 141              	@ 493 "./RM18A-ChibiOS18-Core/chibios/os/common/ext/ARM/CMSIS/Core/Include/cmsis_gcc.h" 1
 142 0016 83F31188 		MSR basepri, r3
 143              	@ 0 "" 2
 144              	.LVL6:
 145              		.thumb
 146              		.syntax unified
 147              	.LBE130:
 148              	.LBE129:
 149              	.LBE128:
 150              	.LBE127:
 151              	.LBE126:
 152              	.LBE125:
 153              		.loc 1 93 0
 154 001a 10BD     		pop	{r4, pc}
 155              		.cfi_endproc
 156              	.LFE329:
 157              		.size	icuStart, .-icuStart
 158              		.section	.text.icuStop,"ax",%progbits
 159              		.align	1
 160              		.p2align 2,,3
 161              		.global	icuStop
 162              		.syntax unified
 163              		.thumb
 164              		.thumb_func
 165              		.fpu fpv4-sp-d16
 166              		.type	icuStop, %function
 167              	icuStop:
 168              	.LFB330:
 169              		.loc 1 102 0
 170              		.cfi_startproc
 171              		@ args = 0, pretend = 0, frame = 0
ARM GAS  /tmp/ccerCR4U.s 			page 4


 172              		@ frame_needed = 0, uses_anonymous_args = 0
 173              	.LVL7:
 174 0000 10B5     		push	{r4, lr}
 175              		.cfi_def_cfa_offset 8
 176              		.cfi_offset 4, -8
 177              		.cfi_offset 14, -4
 178              	.LBB131:
 179              	.LBB132:
 180              	.LBB133:
 181              	.LBB134:
 182              	.LBB135:
 183              		.loc 2 493 0
 184 0002 2023     		movs	r3, #32
 185              	.LBE135:
 186              	.LBE134:
 187              	.LBE133:
 188              	.LBE132:
 189              	.LBE131:
 190              		.loc 1 102 0
 191 0004 0446     		mov	r4, r0
 192              	.LBB140:
 193              	.LBB139:
 194              	.LBB138:
 195              	.LBB137:
 196              	.LBB136:
 197              		.loc 2 493 0
 198              		.syntax unified
 199              	@ 493 "./RM18A-ChibiOS18-Core/chibios/os/common/ext/ARM/CMSIS/Core/Include/cmsis_gcc.h" 1
 200 0006 83F31188 		MSR basepri, r3
 201              	@ 0 "" 2
 202              	.LVL8:
 203              		.thumb
 204              		.syntax unified
 205              	.LBE136:
 206              	.LBE137:
 207              	.LBE138:
 208              	.LBE139:
 209              	.LBE140:
 210              		.loc 1 111 0
 211 000a FFF7FEFF 		bl	icu_lld_stop
 212              	.LVL9:
 213              		.loc 1 113 0
 214 000e 0122     		movs	r2, #1
 215              		.loc 1 112 0
 216 0010 0023     		movs	r3, #0
 217              		.loc 1 113 0
 218 0012 2270     		strb	r2, [r4]
 219              	.LVL10:
 220              		.loc 1 112 0
 221 0014 6360     		str	r3, [r4, #4]
 222              	.LBB141:
 223              	.LBB142:
 224              	.LBB143:
 225              	.LBB144:
 226              	.LBB145:
 227              	.LBB146:
 228              		.loc 2 493 0
ARM GAS  /tmp/ccerCR4U.s 			page 5


 229              		.syntax unified
 230              	@ 493 "./RM18A-ChibiOS18-Core/chibios/os/common/ext/ARM/CMSIS/Core/Include/cmsis_gcc.h" 1
 231 0016 83F31188 		MSR basepri, r3
 232              	@ 0 "" 2
 233              	.LVL11:
 234              		.thumb
 235              		.syntax unified
 236              	.LBE146:
 237              	.LBE145:
 238              	.LBE144:
 239              	.LBE143:
 240              	.LBE142:
 241              	.LBE141:
 242              		.loc 1 116 0
 243 001a 10BD     		pop	{r4, pc}
 244              		.cfi_endproc
 245              	.LFE330:
 246              		.size	icuStop, .-icuStop
 247              		.section	.text.icuStartCapture,"ax",%progbits
 248              		.align	1
 249              		.p2align 2,,3
 250              		.global	icuStartCapture
 251              		.syntax unified
 252              		.thumb
 253              		.thumb_func
 254              		.fpu fpv4-sp-d16
 255              		.type	icuStartCapture, %function
 256              	icuStartCapture:
 257              	.LFB331:
 258              		.loc 1 125 0
 259              		.cfi_startproc
 260              		@ args = 0, pretend = 0, frame = 0
 261              		@ frame_needed = 0, uses_anonymous_args = 0
 262              	.LVL12:
 263 0000 10B5     		push	{r4, lr}
 264              		.cfi_def_cfa_offset 8
 265              		.cfi_offset 4, -8
 266              		.cfi_offset 14, -4
 267              	.LBB147:
 268              	.LBB148:
 269              	.LBB149:
 270              	.LBB150:
 271              	.LBB151:
 272              		.loc 2 493 0
 273 0002 2023     		movs	r3, #32
 274              	.LBE151:
 275              	.LBE150:
 276              	.LBE149:
 277              	.LBE148:
 278              	.LBE147:
 279              		.loc 1 125 0
 280 0004 0446     		mov	r4, r0
 281              	.LBB156:
 282              	.LBB155:
 283              	.LBB154:
 284              	.LBB153:
 285              	.LBB152:
ARM GAS  /tmp/ccerCR4U.s 			page 6


 286              		.loc 2 493 0
 287              		.syntax unified
 288              	@ 493 "./RM18A-ChibiOS18-Core/chibios/os/common/ext/ARM/CMSIS/Core/Include/cmsis_gcc.h" 1
 289 0006 83F31188 		MSR basepri, r3
 290              	@ 0 "" 2
 291              	.LVL13:
 292              		.thumb
 293              		.syntax unified
 294              	.LBE152:
 295              	.LBE153:
 296              	.LBE154:
 297              	.LBE155:
 298              	.LBE156:
 299              		.loc 1 131 0
 300 000a FFF7FEFF 		bl	icu_lld_start_capture
 301              	.LVL14:
 302 000e 0323     		movs	r3, #3
 303 0010 2370     		strb	r3, [r4]
 304              	.LVL15:
 305              	.LBB157:
 306              	.LBB158:
 307              	.LBB159:
 308              	.LBB160:
 309              	.LBB161:
 310              	.LBB162:
 311              		.loc 2 493 0
 312 0012 0023     		movs	r3, #0
 313              		.syntax unified
 314              	@ 493 "./RM18A-ChibiOS18-Core/chibios/os/common/ext/ARM/CMSIS/Core/Include/cmsis_gcc.h" 1
 315 0014 83F31188 		MSR basepri, r3
 316              	@ 0 "" 2
 317              	.LVL16:
 318              		.thumb
 319              		.syntax unified
 320              	.LBE162:
 321              	.LBE161:
 322              	.LBE160:
 323              	.LBE159:
 324              	.LBE158:
 325              	.LBE157:
 326              		.loc 1 133 0
 327 0018 10BD     		pop	{r4, pc}
 328              		.cfi_endproc
 329              	.LFE331:
 330              		.size	icuStartCapture, .-icuStartCapture
 331 001a 00BF     		.section	.text.icuWaitCapture,"ax",%progbits
 332              		.align	1
 333              		.p2align 2,,3
 334              		.global	icuWaitCapture
 335              		.syntax unified
 336              		.thumb
 337              		.thumb_func
 338              		.fpu fpv4-sp-d16
 339              		.type	icuWaitCapture, %function
 340              	icuWaitCapture:
 341              	.LFB332:
 342              		.loc 1 151 0
ARM GAS  /tmp/ccerCR4U.s 			page 7


 343              		.cfi_startproc
 344              		@ args = 0, pretend = 0, frame = 0
 345              		@ frame_needed = 0, uses_anonymous_args = 0
 346              	.LVL17:
 347 0000 10B5     		push	{r4, lr}
 348              		.cfi_def_cfa_offset 8
 349              		.cfi_offset 4, -8
 350              		.cfi_offset 14, -4
 351              	.LBB163:
 352              	.LBB164:
 353              	.LBB165:
 354              	.LBB166:
 355              	.LBB167:
 356              		.loc 2 493 0
 357 0002 2023     		movs	r3, #32
 358              	.LBE167:
 359              	.LBE166:
 360              	.LBE165:
 361              	.LBE164:
 362              	.LBE163:
 363              		.loc 1 151 0
 364 0004 0446     		mov	r4, r0
 365              	.LBB172:
 366              	.LBB171:
 367              	.LBB170:
 368              	.LBB169:
 369              	.LBB168:
 370              		.loc 2 493 0
 371              		.syntax unified
 372              	@ 493 "./RM18A-ChibiOS18-Core/chibios/os/common/ext/ARM/CMSIS/Core/Include/cmsis_gcc.h" 1
 373 0006 83F31188 		MSR basepri, r3
 374              	@ 0 "" 2
 375              	.LVL18:
 376              		.thumb
 377              		.syntax unified
 378              	.LBE168:
 379              	.LBE169:
 380              	.LBE170:
 381              	.LBE171:
 382              	.LBE172:
 383              		.loc 1 161 0
 384 000a FFF7FEFF 		bl	icu_lld_wait_capture
 385              	.LVL19:
 386              		.loc 1 162 0
 387 000e 0028     		cmp	r0, #0
 388 0010 14BF     		ite	ne
 389 0012 0323     		movne	r3, #3
 390 0014 0423     		moveq	r3, #4
 391 0016 2370     		strb	r3, [r4]
 392              	.LVL20:
 393              	.LBB173:
 394              	.LBB174:
 395              	.LBB175:
 396              	.LBB176:
 397              	.LBB177:
 398              	.LBB178:
 399              		.loc 2 493 0
ARM GAS  /tmp/ccerCR4U.s 			page 8


 400 0018 0023     		movs	r3, #0
 401              		.syntax unified
 402              	@ 493 "./RM18A-ChibiOS18-Core/chibios/os/common/ext/ARM/CMSIS/Core/Include/cmsis_gcc.h" 1
 403 001a 83F31188 		MSR basepri, r3
 404              	@ 0 "" 2
 405              	.LVL21:
 406              		.thumb
 407              		.syntax unified
 408              	.LBE178:
 409              	.LBE177:
 410              	.LBE176:
 411              	.LBE175:
 412              	.LBE174:
 413              	.LBE173:
 414              		.loc 1 166 0
 415 001e 10BD     		pop	{r4, pc}
 416              		.cfi_endproc
 417              	.LFE332:
 418              		.size	icuWaitCapture, .-icuWaitCapture
 419              		.section	.text.icuStopCapture,"ax",%progbits
 420              		.align	1
 421              		.p2align 2,,3
 422              		.global	icuStopCapture
 423              		.syntax unified
 424              		.thumb
 425              		.thumb_func
 426              		.fpu fpv4-sp-d16
 427              		.type	icuStopCapture, %function
 428              	icuStopCapture:
 429              	.LFB333:
 430              		.loc 1 175 0
 431              		.cfi_startproc
 432              		@ args = 0, pretend = 0, frame = 0
 433              		@ frame_needed = 0, uses_anonymous_args = 0
 434              	.LVL22:
 435 0000 10B5     		push	{r4, lr}
 436              		.cfi_def_cfa_offset 8
 437              		.cfi_offset 4, -8
 438              		.cfi_offset 14, -4
 439              	.LBB179:
 440              	.LBB180:
 441              	.LBB181:
 442              	.LBB182:
 443              	.LBB183:
 444              		.loc 2 493 0
 445 0002 2023     		movs	r3, #32
 446              	.LBE183:
 447              	.LBE182:
 448              	.LBE181:
 449              	.LBE180:
 450              	.LBE179:
 451              		.loc 1 175 0
 452 0004 0446     		mov	r4, r0
 453              	.LBB188:
 454              	.LBB187:
 455              	.LBB186:
 456              	.LBB185:
ARM GAS  /tmp/ccerCR4U.s 			page 9


 457              	.LBB184:
 458              		.loc 2 493 0
 459              		.syntax unified
 460              	@ 493 "./RM18A-ChibiOS18-Core/chibios/os/common/ext/ARM/CMSIS/Core/Include/cmsis_gcc.h" 1
 461 0006 83F31188 		MSR basepri, r3
 462              	@ 0 "" 2
 463              	.LVL23:
 464              		.thumb
 465              		.syntax unified
 466              	.LBE184:
 467              	.LBE185:
 468              	.LBE186:
 469              	.LBE187:
 470              	.LBE188:
 471              		.loc 1 183 0
 472 000a FFF7FEFF 		bl	icu_lld_stop_capture
 473              	.LVL24:
 474 000e 0223     		movs	r3, #2
 475 0010 2370     		strb	r3, [r4]
 476              	.LVL25:
 477              	.LBB189:
 478              	.LBB190:
 479              	.LBB191:
 480              	.LBB192:
 481              	.LBB193:
 482              	.LBB194:
 483              		.loc 2 493 0
 484 0012 0023     		movs	r3, #0
 485              		.syntax unified
 486              	@ 493 "./RM18A-ChibiOS18-Core/chibios/os/common/ext/ARM/CMSIS/Core/Include/cmsis_gcc.h" 1
 487 0014 83F31188 		MSR basepri, r3
 488              	@ 0 "" 2
 489              	.LVL26:
 490              		.thumb
 491              		.syntax unified
 492              	.LBE194:
 493              	.LBE193:
 494              	.LBE192:
 495              	.LBE191:
 496              	.LBE190:
 497              	.LBE189:
 498              		.loc 1 185 0
 499 0018 10BD     		pop	{r4, pc}
 500              		.cfi_endproc
 501              	.LFE333:
 502              		.size	icuStopCapture, .-icuStopCapture
 503 001a 00BF     		.section	.text.icuEnableNotifications,"ax",%progbits
 504              		.align	1
 505              		.p2align 2,,3
 506              		.global	icuEnableNotifications
 507              		.syntax unified
 508              		.thumb
 509              		.thumb_func
 510              		.fpu fpv4-sp-d16
 511              		.type	icuEnableNotifications, %function
 512              	icuEnableNotifications:
 513              	.LFB334:
ARM GAS  /tmp/ccerCR4U.s 			page 10


 514              		.loc 1 197 0
 515              		.cfi_startproc
 516              		@ args = 0, pretend = 0, frame = 0
 517              		@ frame_needed = 0, uses_anonymous_args = 0
 518              	.LVL27:
 519 0000 08B5     		push	{r3, lr}
 520              		.cfi_def_cfa_offset 8
 521              		.cfi_offset 3, -8
 522              		.cfi_offset 14, -4
 523              	.LBB195:
 524              	.LBB196:
 525              	.LBB197:
 526              	.LBB198:
 527              	.LBB199:
 528              		.loc 2 493 0
 529 0002 2023     		movs	r3, #32
 530              		.syntax unified
 531              	@ 493 "./RM18A-ChibiOS18-Core/chibios/os/common/ext/ARM/CMSIS/Core/Include/cmsis_gcc.h" 1
 532 0004 83F31188 		MSR basepri, r3
 533              	@ 0 "" 2
 534              	.LVL28:
 535              		.thumb
 536              		.syntax unified
 537              	.LBE199:
 538              	.LBE198:
 539              	.LBE197:
 540              	.LBE196:
 541              	.LBE195:
 542              		.loc 1 204 0
 543 0008 FFF7FEFF 		bl	icu_lld_enable_notifications
 544              	.LVL29:
 545              	.LBB200:
 546              	.LBB201:
 547              	.LBB202:
 548              	.LBB203:
 549              	.LBB204:
 550              	.LBB205:
 551              		.loc 2 493 0
 552 000c 0023     		movs	r3, #0
 553              		.syntax unified
 554              	@ 493 "./RM18A-ChibiOS18-Core/chibios/os/common/ext/ARM/CMSIS/Core/Include/cmsis_gcc.h" 1
 555 000e 83F31188 		MSR basepri, r3
 556              	@ 0 "" 2
 557              	.LVL30:
 558              		.thumb
 559              		.syntax unified
 560              	.LBE205:
 561              	.LBE204:
 562              	.LBE203:
 563              	.LBE202:
 564              	.LBE201:
 565              	.LBE200:
 566              		.loc 1 206 0
 567 0012 08BD     		pop	{r3, pc}
 568              		.cfi_endproc
 569              	.LFE334:
 570              		.size	icuEnableNotifications, .-icuEnableNotifications
ARM GAS  /tmp/ccerCR4U.s 			page 11


 571              		.section	.text.icuDisableNotifications,"ax",%progbits
 572              		.align	1
 573              		.p2align 2,,3
 574              		.global	icuDisableNotifications
 575              		.syntax unified
 576              		.thumb
 577              		.thumb_func
 578              		.fpu fpv4-sp-d16
 579              		.type	icuDisableNotifications, %function
 580              	icuDisableNotifications:
 581              	.LFB335:
 582              		.loc 1 218 0
 583              		.cfi_startproc
 584              		@ args = 0, pretend = 0, frame = 0
 585              		@ frame_needed = 0, uses_anonymous_args = 0
 586              	.LVL31:
 587 0000 08B5     		push	{r3, lr}
 588              		.cfi_def_cfa_offset 8
 589              		.cfi_offset 3, -8
 590              		.cfi_offset 14, -4
 591              	.LBB206:
 592              	.LBB207:
 593              	.LBB208:
 594              	.LBB209:
 595              	.LBB210:
 596              		.loc 2 493 0
 597 0002 2023     		movs	r3, #32
 598              		.syntax unified
 599              	@ 493 "./RM18A-ChibiOS18-Core/chibios/os/common/ext/ARM/CMSIS/Core/Include/cmsis_gcc.h" 1
 600 0004 83F31188 		MSR basepri, r3
 601              	@ 0 "" 2
 602              	.LVL32:
 603              		.thumb
 604              		.syntax unified
 605              	.LBE210:
 606              	.LBE209:
 607              	.LBE208:
 608              	.LBE207:
 609              	.LBE206:
 610              		.loc 1 225 0
 611 0008 FFF7FEFF 		bl	icu_lld_disable_notifications
 612              	.LVL33:
 613              	.LBB211:
 614              	.LBB212:
 615              	.LBB213:
 616              	.LBB214:
 617              	.LBB215:
 618              	.LBB216:
 619              		.loc 2 493 0
 620 000c 0023     		movs	r3, #0
 621              		.syntax unified
 622              	@ 493 "./RM18A-ChibiOS18-Core/chibios/os/common/ext/ARM/CMSIS/Core/Include/cmsis_gcc.h" 1
 623 000e 83F31188 		MSR basepri, r3
 624              	@ 0 "" 2
 625              	.LVL34:
 626              		.thumb
 627              		.syntax unified
ARM GAS  /tmp/ccerCR4U.s 			page 12


 628              	.LBE216:
 629              	.LBE215:
 630              	.LBE214:
 631              	.LBE213:
 632              	.LBE212:
 633              	.LBE211:
 634              		.loc 1 227 0
 635 0012 08BD     		pop	{r3, pc}
 636              		.cfi_endproc
 637              	.LFE335:
 638              		.size	icuDisableNotifications, .-icuDisableNotifications
 639              		.text
 640              	.Letext0:
 641              		.file 3 "/usr/lib/gcc/arm-none-eabi/7.3.1/include/stddef.h"
 642              		.file 4 "/usr/arm-none-eabi/include/machine/_default_types.h"
 643              		.file 5 "/usr/arm-none-eabi/include/sys/_stdint.h"
 644              		.file 6 "./RM18A-ChibiOS18-Core/chibios/os/common/ports/ARMCMx/compilers/GCC/chtypes.h"
 645              		.file 7 "./RM18A-ChibiOS18-Core/chibios/os/rt/include/chsystypes.h"
 646              		.file 8 "./RM18A-ChibiOS18-Core/chibios/os/rt/include/chschd.h"
 647              		.file 9 "./RM18A-ChibiOS18-Core/chibios/os/rt/include/chtime.h"
 648              		.file 10 "./RM18A-ChibiOS18-Core/chibios/os/common/ext/ARM/CMSIS/Core/Include/core_cm4.h"
 649              		.file 11 "./RM18A-ChibiOS18-Core/chibios/os/common/ext/ST/STM32F4xx/system_stm32f4xx.h"
 650              		.file 12 "./RM18A-ChibiOS18-Core/chibios/os/common/ext/ST/STM32F4xx/stm32f427xx.h"
 651              		.file 13 "./RM18A-ChibiOS18-Core/chibios/os/common/ports/ARMCMx/chcore.h"
 652              		.file 14 "./RM18A-ChibiOS18-Core/chibios/os/common/ports/ARMCMx/chcore_v7m.h"
 653              		.file 15 "./RM18A-ChibiOS18-Core/chibios/os/hal/ports/STM32/LLD/TIMv1/stm32_tim.h"
 654              		.file 16 "./RM18A-ChibiOS18-Core/chibios/os/rt/include/chtm.h"
 655              		.file 17 "./RM18A-ChibiOS18-Core/chibios/os/rt/include/chsem.h"
 656              		.file 18 "./RM18A-ChibiOS18-Core/chibios/os/rt/include/chmtx.h"
 657              		.file 19 "./RM18A-ChibiOS18-Core/chibios/os/rt/include/chsys.h"
 658              		.file 20 "./RM18A-ChibiOS18-Core/chibios/os/rt/include/chregistry.h"
 659              		.file 21 "./RM18A-ChibiOS18-Core/chibios/os/rt/include/chevents.h"
 660              		.file 22 "./RM18A-ChibiOS18-Core/chibios/os/oslib/include/chmemcore.h"
 661              		.file 23 "./RM18A-ChibiOS18-Core/chibios/os/oslib/include/chmempools.h"
 662              		.file 24 "./RM18A-ChibiOS18-Core/chibios/os/oslib/include/chfactory.h"
 663              		.file 25 "./RM18A-ChibiOS18-Core/chibios/os/hal/ports/STM32/LLD/DMAv2/stm32_dma.h"
 664              		.file 26 "./RM18A-ChibiOS18-Core/chibios/os/hal/include/hal_queues.h"
 665              		.file 27 "./RM18A-ChibiOS18-Core/chibios/os/hal/include/hal_pal.h"
 666              		.file 28 "./RM18A-ChibiOS18-Core/chibios/os/hal/ports/STM32/LLD/GPIOv2/hal_pal_lld.h"
 667              		.file 29 "./RM18A-ChibiOS18-Core/chibios/os/hal/include/hal_adc.h"
 668              		.file 30 "./RM18A-ChibiOS18-Core/chibios/os/hal/ports/STM32/LLD/ADCv2/hal_adc_lld.h"
 669              		.file 31 "./RM18A-ChibiOS18-Core/chibios/os/hal/include/hal_can.h"
 670              		.file 32 "./RM18A-ChibiOS18-Core/chibios/os/hal/ports/STM32/LLD/CANv1/hal_can_lld.h"
 671              		.file 33 "./RM18A-ChibiOS18-Core/chibios/os/hal/include/hal_i2c.h"
 672              		.file 34 "./RM18A-ChibiOS18-Core/chibios/os/hal/lib/fallback/I2C/hal_i2c_lld.h"
 673              		.file 35 "./RM18A-ChibiOS18-Core/chibios/os/hal/include/hal_icu.h"
 674              		.file 36 "./RM18A-ChibiOS18-Core/chibios/os/hal/ports/STM32/LLD/TIMv1/hal_icu_lld.h"
 675              		.file 37 "./RM18A-ChibiOS18-Core/chibios/os/hal/include/hal_pwm.h"
 676              		.file 38 "./RM18A-ChibiOS18-Core/chibios/os/hal/ports/STM32/LLD/TIMv1/hal_pwm_lld.h"
 677              		.file 39 "./RM18A-ChibiOS18-Core/chibios/os/hal/include/hal_serial.h"
 678              		.file 40 "./RM18A-ChibiOS18-Core/chibios/os/hal/ports/STM32/LLD/USARTv1/hal_serial_lld.h"
 679              		.file 41 "./RM18A-ChibiOS18-Core/chibios/os/hal/include/hal_spi.h"
 680              		.file 42 "./RM18A-ChibiOS18-Core/chibios/os/hal/ports/STM32/LLD/SPIv1/hal_spi_lld.h"
 681              		.file 43 "./RM18A-ChibiOS18-Core/chibios/os/hal/include/hal_uart.h"
 682              		.file 44 "./RM18A-ChibiOS18-Core/chibios/os/hal/ports/STM32/LLD/USARTv1/hal_uart_lld.h"
 683              		.file 45 "./RM18A-ChibiOS18-Core/chibios/os/hal/include/hal_usb.h"
 684              		.file 46 "./RM18A-ChibiOS18-Core/chibios/os/hal/ports/STM32/LLD/OTGv1/hal_usb_lld.h"
ARM GAS  /tmp/ccerCR4U.s 			page 13


 685              		.file 47 "./RM18A-ChibiOS18-Core/chibios/os/hal/ports/STM32/LLD/OTGv1/stm32_otg.h"
 686              		.file 48 "./RM18A-ChibiOS18-Core/chibios/os/hal/osal/rt/osal.h"