ARM GAS  /tmp/cccpuuUl.s 			page 1


   1              		.cpu cortex-m4
   2              		.eabi_attribute 27, 1
   3              		.eabi_attribute 28, 1
   4              		.eabi_attribute 20, 1
   5              		.eabi_attribute 21, 1
   6              		.eabi_attribute 23, 3
   7              		.eabi_attribute 24, 1
   8              		.eabi_attribute 25, 1
   9              		.eabi_attribute 26, 1
  10              		.eabi_attribute 30, 2
  11              		.eabi_attribute 34, 1
  12              		.eabi_attribute 18, 4
  13              		.file	"hal_lld.c"
  14              		.text
  15              	.Ltext0:
  16              		.cfi_sections	.debug_frame
  17              		.section	.text.hal_lld_init,"ax",%progbits
  18              		.align	1
  19              		.p2align 2,,3
  20              		.global	hal_lld_init
  21              		.syntax unified
  22              		.thumb
  23              		.thumb_func
  24              		.fpu fpv4-sp-d16
  25              		.type	hal_lld_init, %function
  26              	hal_lld_init:
  27              	.LFB328:
  28              		.file 1 "./RM18A-ChibiOS18-Core/chibios/os/hal/ports/STM32/STM32F4xx/hal_lld.c"
  29              		.loc 1 114 0
  30              		.cfi_startproc
  31              		@ args = 0, pretend = 0, frame = 0
  32              		@ frame_needed = 0, uses_anonymous_args = 0
  33              		.loc 1 120 0
  34 0000 224B     		ldr	r3, .L8
  35              	.LBB4:
  36              	.LBB5:
  37              		.loc 1 57 0
  38 0002 2348     		ldr	r0, .L8+4
  39              	.LBE5:
  40              	.LBE4:
  41              		.loc 1 120 0
  42 0004 1A69     		ldr	r2, [r3, #16]
  43 0006 6FEAC252 		mvn	r2, r2, lsl #23
  44 000a 6FEAD252 		mvn	r2, r2, lsr #23
  45              		.loc 1 114 0
  46 000e 10B5     		push	{r4, lr}
  47              		.cfi_def_cfa_offset 8
  48              		.cfi_offset 4, -8
  49              		.cfi_offset 14, -4
  50              		.loc 1 120 0
  51 0010 1A61     		str	r2, [r3, #16]
  52 0012 1A69     		ldr	r2, [r3, #16]
  53 0014 C2F30802 		ubfx	r2, r2, #0, #9
  54 0018 1A61     		str	r2, [r3, #16]
  55              		.loc 1 122 0
  56 001a 4FF0FF34 		mov	r4, #-1
  57              		.loc 1 120 0
ARM GAS  /tmp/cccpuuUl.s 			page 2


  58 001e 1A69     		ldr	r2, [r3, #16]
  59              		.loc 1 122 0
  60 0020 5A69     		ldr	r2, [r3, #20]
  61 0022 5C61     		str	r4, [r3, #20]
  62 0024 0021     		movs	r1, #0
  63 0026 5A69     		ldr	r2, [r3, #20]
  64 0028 5961     		str	r1, [r3, #20]
  65 002a 5A69     		ldr	r2, [r3, #20]
  66              		.loc 1 124 0
  67 002c 1A6A     		ldr	r2, [r3, #32]
  68 002e 62F08052 		orn	r2, r2, #268435456
  69 0032 1A62     		str	r2, [r3, #32]
  70 0034 1A6A     		ldr	r2, [r3, #32]
  71 0036 02F08052 		and	r2, r2, #268435456
  72 003a 1A62     		str	r2, [r3, #32]
  73 003c 1A6A     		ldr	r2, [r3, #32]
  74              		.loc 1 125 0
  75 003e 5A6A     		ldr	r2, [r3, #36]
  76 0040 5C62     		str	r4, [r3, #36]
  77 0042 5A6A     		ldr	r2, [r3, #36]
  78 0044 5962     		str	r1, [r3, #36]
  79 0046 5A6A     		ldr	r2, [r3, #36]
  80              		.loc 1 128 0
  81 0048 1A6C     		ldr	r2, [r3, #64]
  82 004a 42F08052 		orr	r2, r2, #268435456
  83 004e 1A64     		str	r2, [r3, #64]
  84 0050 1A6E     		ldr	r2, [r3, #96]
  85 0052 42F08052 		orr	r2, r2, #268435456
  86 0056 1A66     		str	r2, [r3, #96]
  87 0058 1A6E     		ldr	r2, [r3, #96]
  88              	.LBB7:
  89              	.LBB6:
  90              		.loc 1 57 0
  91 005a 0268     		ldr	r2, [r0]
  92 005c 42F48072 		orr	r2, r2, #256
  93 0060 0260     		str	r2, [r0]
  94              		.loc 1 60 0
  95 0062 1A6F     		ldr	r2, [r3, #112]
  96 0064 02F44072 		and	r2, r2, #768
  97 0068 B2F5007F 		cmp	r2, #512
  98 006c 03D0     		beq	.L2
  99              		.loc 1 62 0
 100 006e 4FF48032 		mov	r2, #65536
 101 0072 1A67     		str	r2, [r3, #112]
 102              		.loc 1 63 0
 103 0074 1967     		str	r1, [r3, #112]
 104              	.L2:
 105              		.loc 1 97 0
 106 0076 064A     		ldr	r2, .L8+4
 107 0078 5368     		ldr	r3, [r2, #4]
 108 007a 23F40073 		bic	r3, r3, #512
 109 007e 5360     		str	r3, [r2, #4]
 110              	.LBE6:
 111              	.LBE7:
 112              		.loc 1 135 0
 113 0080 FFF7FEFF 		bl	dmaInit
 114              	.LVL0:
ARM GAS  /tmp/cccpuuUl.s 			page 3


 115              		.loc 1 145 0
 116 0084 BDE81040 		pop	{r4, lr}
 117              		.cfi_restore 14
 118              		.cfi_restore 4
 119              		.cfi_def_cfa_offset 0
 120              		.loc 1 139 0
 121 0088 FFF7FEBF 		b	irqInit
 122              	.LVL1:
 123              	.L9:
 124              		.align	2
 125              	.L8:
 126 008c 00380240 		.word	1073887232
 127 0090 00700040 		.word	1073770496
 128              		.cfi_endproc
 129              	.LFE328:
 130              		.size	hal_lld_init, .-hal_lld_init
 131              		.section	.text.stm32_clock_init,"ax",%progbits
 132              		.align	1
 133              		.p2align 2,,3
 134              		.global	stm32_clock_init
 135              		.syntax unified
 136              		.thumb
 137              		.thumb_func
 138              		.fpu fpv4-sp-d16
 139              		.type	stm32_clock_init, %function
 140              	stm32_clock_init:
 141              	.LFB329:
 142              		.loc 1 154 0
 143              		.cfi_startproc
 144              		@ args = 0, pretend = 0, frame = 0
 145              		@ frame_needed = 0, uses_anonymous_args = 0
 146              		@ link register save eliminated.
 147              		.loc 1 161 0
 148 0000 334B     		ldr	r3, .L33
 149              		.loc 1 166 0
 150 0002 344A     		ldr	r2, .L33+4
 151              		.loc 1 161 0
 152 0004 4FF08050 		mov	r0, #268435456
 153              		.loc 1 166 0
 154 0008 4FF44041 		mov	r1, #49152
 155              		.loc 1 161 0
 156 000c 1864     		str	r0, [r3, #64]
 157              		.loc 1 166 0
 158 000e 1160     		str	r1, [r2]
 159              		.loc 1 173 0
 160 0010 1A68     		ldr	r2, [r3]
 161 0012 42F00102 		orr	r2, r2, #1
 162 0016 1A60     		str	r2, [r3]
 163              	.L11:
 164              		.loc 1 174 0 discriminator 1
 165 0018 1A68     		ldr	r2, [r3]
 166 001a 9207     		lsls	r2, r2, #30
 167 001c FCD5     		bpl	.L11
 168              		.loc 1 180 0
 169 001e 9968     		ldr	r1, [r3, #8]
 170              		.loc 1 181 0
 171 0020 2B4A     		ldr	r2, .L33
ARM GAS  /tmp/cccpuuUl.s 			page 4


 172              		.loc 1 180 0
 173 0022 21F00301 		bic	r1, r1, #3
 174 0026 9960     		str	r1, [r3, #8]
 175              	.L12:
 176              		.loc 1 181 0 discriminator 1
 177 0028 9368     		ldr	r3, [r2, #8]
 178 002a 13F00C03 		ands	r3, r3, #12
 179 002e FBD1     		bne	.L12
 180              		.loc 1 185 0
 181 0030 1068     		ldr	r0, [r2]
 182              		.loc 1 197 0
 183 0032 2749     		ldr	r1, .L33
 184              		.loc 1 185 0
 185 0034 00F0F900 		and	r0, r0, #249
 186 0038 1060     		str	r0, [r2]
 187              		.loc 1 186 0
 188 003a 9360     		str	r3, [r2, #8]
 189              		.loc 1 195 0
 190 003c 1368     		ldr	r3, [r2]
 191 003e 43F48033 		orr	r3, r3, #65536
 192 0042 1360     		str	r3, [r2]
 193              	.L13:
 194              		.loc 1 197 0 discriminator 1
 195 0044 0B68     		ldr	r3, [r1]
 196 0046 9803     		lsls	r0, r3, #14
 197 0048 FCD5     		bpl	.L13
 198              		.loc 1 203 0
 199 004a 4B6F     		ldr	r3, [r1, #116]
 200              		.loc 1 204 0
 201 004c 204A     		ldr	r2, .L33
 202              		.loc 1 203 0
 203 004e 43F00103 		orr	r3, r3, #1
 204 0052 4B67     		str	r3, [r1, #116]
 205              	.L14:
 206              		.loc 1 204 0 discriminator 1
 207 0054 536F     		ldr	r3, [r2, #116]
 208 0056 9907     		lsls	r1, r3, #30
 209 0058 FCD5     		bpl	.L14
 210              		.loc 1 210 0
 211 005a 1F4B     		ldr	r3, .L33+8
 212 005c 5360     		str	r3, [r2, #4]
 213              		.loc 1 212 0
 214 005e 1368     		ldr	r3, [r2]
 215              		.loc 1 216 0
 216 0060 1C49     		ldr	r1, .L33+4
 217              		.loc 1 212 0
 218 0062 43F08073 		orr	r3, r3, #16777216
 219 0066 1360     		str	r3, [r2]
 220              	.L15:
 221              		.loc 1 216 0 discriminator 1
 222 0068 4B68     		ldr	r3, [r1, #4]
 223 006a 5A04     		lsls	r2, r3, #17
 224 006c FCD5     		bpl	.L15
 225              		.loc 1 232 0
 226 006e 184A     		ldr	r2, .L33
 227              	.L16:
 228              		.loc 1 232 0 is_stmt 0 discriminator 1
ARM GAS  /tmp/cccpuuUl.s 			page 5


 229 0070 1368     		ldr	r3, [r2]
 230 0072 9B01     		lsls	r3, r3, #6
 231 0074 FCD5     		bpl	.L16
 232              		.loc 1 260 0 is_stmt 1
 233 0076 1949     		ldr	r1, .L33+12
 234 0078 9160     		str	r1, [r2, #8]
 235              	.LVL2:
 236              		.loc 1 308 0
 237 007a 194B     		ldr	r3, .L33+16
 238              	.LBB8:
 239              		.loc 1 290 0
 240 007c 0321     		movs	r1, #3
 241 007e C2F88C10 		str	r1, [r2, #140]
 242              	.LBE8:
 243              		.loc 1 308 0
 244 0082 1A68     		ldr	r2, [r3]
 245 0084 174B     		ldr	r3, .L33+20
 246 0086 9A42     		cmp	r2, r3
 247 0088 17D0     		beq	.L32
 248              	.L17:
 249              		.loc 1 311 0
 250 008a 174B     		ldr	r3, .L33+24
 251 008c 40F20572 		movw	r2, #1797
 252 0090 1A60     		str	r2, [r3]
 253              	.L18:
 254              		.loc 1 320 0
 255 0092 0F4A     		ldr	r2, .L33
 256 0094 9368     		ldr	r3, [r2, #8]
 257 0096 43F00203 		orr	r3, r3, #2
 258 009a 9360     		str	r3, [r2, #8]
 259              	.L19:
 260              		.loc 1 321 0 discriminator 1
 261 009c 9368     		ldr	r3, [r2, #8]
 262 009e 03F00C03 		and	r3, r3, #12
 263 00a2 082B     		cmp	r3, #8
 264 00a4 FAD1     		bne	.L19
 265              		.loc 1 328 0
 266 00a6 536C     		ldr	r3, [r2, #68]
 267 00a8 43F48043 		orr	r3, r3, #16384
 268 00ac 5364     		str	r3, [r2, #68]
 269 00ae 536E     		ldr	r3, [r2, #100]
 270 00b0 43F48043 		orr	r3, r3, #16384
 271 00b4 5366     		str	r3, [r2, #100]
 272 00b6 536E     		ldr	r3, [r2, #100]
 273              		.loc 1 329 0
 274 00b8 7047     		bx	lr
 275              	.L32:
 276              		.loc 1 308 0 discriminator 1
 277 00ba 0C4A     		ldr	r2, .L33+28
 278 00bc 0C4B     		ldr	r3, .L33+32
 279 00be 1268     		ldr	r2, [r2]
 280 00c0 9A42     		cmp	r2, r3
 281 00c2 E2D1     		bne	.L17
 282              		.loc 1 309 0
 283 00c4 084B     		ldr	r3, .L33+24
 284 00c6 40F20512 		movw	r2, #261
 285 00ca 1A60     		str	r2, [r3]
ARM GAS  /tmp/cccpuuUl.s 			page 6


 286 00cc E1E7     		b	.L18
 287              	.L34:
 288 00ce 00BF     		.align	2
 289              	.L33:
 290 00d0 00380240 		.word	1073887232
 291 00d4 00700040 		.word	1073770496
 292 00d8 0C544007 		.word	121656332
 293 00dc 00948838 		.word	948474880
 294 00e0 002004E0 		.word	-536600576
 295 00e4 11640020 		.word	536896529
 296 00e8 003C0240 		.word	1073888256
 297 00ec 00ED00E0 		.word	-536810240
 298 00f0 41C20F41 		.word	1091551809
 299              		.cfi_endproc
 300              	.LFE329:
 301              		.size	stm32_clock_init, .-stm32_clock_init
 302              		.global	SystemCoreClock
 303              		.section	.data.SystemCoreClock,"aw",%progbits
 304              		.align	2
 305              		.type	SystemCoreClock, %object
 306              		.size	SystemCoreClock, 4
 307              	SystemCoreClock:
 308 0000 007A030A 		.word	168000000
 309              		.text
 310              	.Letext0:
 311              		.file 2 "/usr/lib/gcc/arm-none-eabi/7.3.1/include/stddef.h"
 312              		.file 3 "/usr/arm-none-eabi/include/machine/_default_types.h"
 313              		.file 4 "/usr/arm-none-eabi/include/sys/_stdint.h"
 314              		.file 5 "./RM18A-ChibiOS18-Core/chibios/os/common/ports/ARMCMx/compilers/GCC/chtypes.h"
 315              		.file 6 "./RM18A-ChibiOS18-Core/chibios/os/rt/include/chsystypes.h"
 316              		.file 7 "./RM18A-ChibiOS18-Core/chibios/os/rt/include/chschd.h"
 317              		.file 8 "./RM18A-ChibiOS18-Core/chibios/os/rt/include/chtime.h"
 318              		.file 9 "./RM18A-ChibiOS18-Core/chibios/os/common/ext/ARM/CMSIS/Core/Include/core_cm4.h"
 319              		.file 10 "./RM18A-ChibiOS18-Core/chibios/os/common/ext/ST/STM32F4xx/system_stm32f4xx.h"
 320              		.file 11 "./RM18A-ChibiOS18-Core/chibios/os/common/ext/ST/STM32F4xx/stm32f427xx.h"
 321              		.file 12 "./RM18A-ChibiOS18-Core/chibios/os/common/ports/ARMCMx/chcore.h"
 322              		.file 13 "./RM18A-ChibiOS18-Core/chibios/os/common/ports/ARMCMx/chcore_v7m.h"
 323              		.file 14 "./RM18A-ChibiOS18-Core/chibios/os/hal/ports/STM32/LLD/TIMv1/stm32_tim.h"
 324              		.file 15 "./RM18A-ChibiOS18-Core/chibios/os/rt/include/chtm.h"
 325              		.file 16 "./RM18A-ChibiOS18-Core/chibios/os/rt/include/chsem.h"
 326              		.file 17 "./RM18A-ChibiOS18-Core/chibios/os/rt/include/chmtx.h"
 327              		.file 18 "./RM18A-ChibiOS18-Core/chibios/os/rt/include/chsys.h"
 328              		.file 19 "./RM18A-ChibiOS18-Core/chibios/os/rt/include/chregistry.h"
 329              		.file 20 "./RM18A-ChibiOS18-Core/chibios/os/rt/include/chevents.h"
 330              		.file 21 "./RM18A-ChibiOS18-Core/chibios/os/oslib/include/chmemcore.h"
 331              		.file 22 "./RM18A-ChibiOS18-Core/chibios/os/oslib/include/chmempools.h"
 332              		.file 23 "./RM18A-ChibiOS18-Core/chibios/os/oslib/include/chfactory.h"
 333              		.file 24 "./RM18A-ChibiOS18-Core/chibios/os/hal/ports/STM32/LLD/DMAv2/stm32_dma.h"
 334              		.file 25 "./RM18A-ChibiOS18-Core/chibios/os/hal/include/hal_queues.h"
 335              		.file 26 "./RM18A-ChibiOS18-Core/chibios/os/hal/include/hal_pal.h"
 336              		.file 27 "./RM18A-ChibiOS18-Core/chibios/os/hal/ports/STM32/LLD/GPIOv2/hal_pal_lld.h"
 337              		.file 28 "./RM18A-ChibiOS18-Core/chibios/os/hal/include/hal_adc.h"
 338              		.file 29 "./RM18A-ChibiOS18-Core/chibios/os/hal/ports/STM32/LLD/ADCv2/hal_adc_lld.h"
 339              		.file 30 "./RM18A-ChibiOS18-Core/chibios/os/hal/include/hal_can.h"
 340              		.file 31 "./RM18A-ChibiOS18-Core/chibios/os/hal/ports/STM32/LLD/CANv1/hal_can_lld.h"
 341              		.file 32 "./RM18A-ChibiOS18-Core/chibios/os/hal/include/hal_i2c.h"
 342              		.file 33 "./RM18A-ChibiOS18-Core/chibios/os/hal/lib/fallback/I2C/hal_i2c_lld.h"
ARM GAS  /tmp/cccpuuUl.s 			page 7


 343              		.file 34 "./RM18A-ChibiOS18-Core/chibios/os/hal/include/hal_icu.h"
 344              		.file 35 "./RM18A-ChibiOS18-Core/chibios/os/hal/ports/STM32/LLD/TIMv1/hal_icu_lld.h"
 345              		.file 36 "./RM18A-ChibiOS18-Core/chibios/os/hal/include/hal_pwm.h"
 346              		.file 37 "./RM18A-ChibiOS18-Core/chibios/os/hal/ports/STM32/LLD/TIMv1/hal_pwm_lld.h"
 347              		.file 38 "./RM18A-ChibiOS18-Core/chibios/os/hal/include/hal_serial.h"
 348              		.file 39 "./RM18A-ChibiOS18-Core/chibios/os/hal/ports/STM32/LLD/USARTv1/hal_serial_lld.h"
 349              		.file 40 "./RM18A-ChibiOS18-Core/chibios/os/hal/include/hal_spi.h"
 350              		.file 41 "./RM18A-ChibiOS18-Core/chibios/os/hal/ports/STM32/LLD/SPIv1/hal_spi_lld.h"
 351              		.file 42 "./RM18A-ChibiOS18-Core/chibios/os/hal/include/hal_uart.h"
 352              		.file 43 "./RM18A-ChibiOS18-Core/chibios/os/hal/ports/STM32/LLD/USARTv1/hal_uart_lld.h"
 353              		.file 44 "./RM18A-ChibiOS18-Core/chibios/os/hal/include/hal_usb.h"
 354              		.file 45 "./RM18A-ChibiOS18-Core/chibios/os/hal/ports/STM32/LLD/OTGv1/hal_usb_lld.h"
 355              		.file 46 "./RM18A-ChibiOS18-Core/chibios/os/hal/ports/STM32/LLD/OTGv1/stm32_otg.h"
 356              		.file 47 "./RM18A-ChibiOS18-Core/chibios/os/hal/ports/STM32/STM32F4xx/stm32_isr.h"