ARM GAS  /tmp/cc8p9kza.s 			page 1


   1              		.cpu cortex-m4
   2              		.eabi_attribute 27, 1
   3              		.eabi_attribute 28, 1
   4              		.eabi_attribute 20, 1
   5              		.eabi_attribute 21, 1
   6              		.eabi_attribute 23, 3
   7              		.eabi_attribute 24, 1
   8              		.eabi_attribute 25, 1
   9              		.eabi_attribute 26, 1
  10              		.eabi_attribute 30, 2
  11              		.eabi_attribute 34, 1
  12              		.eabi_attribute 18, 4
  13              		.file	"hal_uart.c"
  14              		.text
  15              	.Ltext0:
  16              		.cfi_sections	.debug_frame
  17              		.section	.text.uartInit,"ax",%progbits
  18              		.align	1
  19              		.p2align 2,,3
  20              		.global	uartInit
  21              		.syntax unified
  22              		.thumb
  23              		.thumb_func
  24              		.fpu fpv4-sp-d16
  25              		.type	uartInit, %function
  26              	uartInit:
  27              	.LFB327:
  28              		.file 1 "./RM18A-ChibiOS18-Core/chibios/os/hal/src/hal_uart.c"
  29              		.loc 1 56 0
  30              		.cfi_startproc
  31              		@ args = 0, pretend = 0, frame = 0
  32              		@ frame_needed = 0, uses_anonymous_args = 0
  33              		@ link register save eliminated.
  34              		.loc 1 58 0
  35 0000 FFF7FEBF 		b	uart_lld_init
  36              	.LVL0:
  37              		.cfi_endproc
  38              	.LFE327:
  39              		.size	uartInit, .-uartInit
  40              		.section	.text.uartObjectInit,"ax",%progbits
  41              		.align	1
  42              		.p2align 2,,3
  43              		.global	uartObjectInit
  44              		.syntax unified
  45              		.thumb
  46              		.thumb_func
  47              		.fpu fpv4-sp-d16
  48              		.type	uartObjectInit, %function
  49              	uartObjectInit:
  50              	.LFB328:
  51              		.loc 1 68 0
  52              		.cfi_startproc
  53              		@ args = 0, pretend = 0, frame = 0
  54              		@ frame_needed = 0, uses_anonymous_args = 0
  55              		@ link register save eliminated.
  56              	.LVL1:
  57              		.loc 1 71 0
ARM GAS  /tmp/cc8p9kza.s 			page 2


  58 0000 0023     		movs	r3, #0
  59              		.loc 1 70 0
  60 0002 0122     		movs	r2, #1
  61 0004 0270     		strb	r2, [r0]
  62              		.loc 1 71 0
  63 0006 4370     		strb	r3, [r0, #1]
  64              		.loc 1 72 0
  65 0008 8370     		strb	r3, [r0, #2]
  66              		.loc 1 73 0
  67 000a 4360     		str	r3, [r0, #4]
  68              		.loc 1 75 0
  69 000c 0372     		strb	r3, [r0, #8]
  70              		.loc 1 77 0
  71 000e C0E90333 		strd	r3, r3, [r0, #12]
  72              		.loc 1 87 0
  73 0012 7047     		bx	lr
  74              		.cfi_endproc
  75              	.LFE328:
  76              		.size	uartObjectInit, .-uartObjectInit
  77              		.section	.text.uartStart,"ax",%progbits
  78              		.align	1
  79              		.p2align 2,,3
  80              		.global	uartStart
  81              		.syntax unified
  82              		.thumb
  83              		.thumb_func
  84              		.fpu fpv4-sp-d16
  85              		.type	uartStart, %function
  86              	uartStart:
  87              	.LFB329:
  88              		.loc 1 97 0
  89              		.cfi_startproc
  90              		@ args = 0, pretend = 0, frame = 0
  91              		@ frame_needed = 0, uses_anonymous_args = 0
  92              	.LVL2:
  93 0000 10B5     		push	{r4, lr}
  94              		.cfi_def_cfa_offset 8
  95              		.cfi_offset 4, -8
  96              		.cfi_offset 14, -4
  97              	.LBB155:
  98              	.LBB156:
  99              	.LBB157:
 100              	.LBB158:
 101              	.LBB159:
 102              		.file 2 "./RM18A-ChibiOS18-Core/chibios/os/common/ext/ARM/CMSIS/Core/Include/cmsis_gcc.h"
 103              		.loc 2 493 0
 104 0002 2023     		movs	r3, #32
 105              	.LBE159:
 106              	.LBE158:
 107              	.LBE157:
 108              	.LBE156:
 109              	.LBE155:
 110              		.loc 1 97 0
 111 0004 0446     		mov	r4, r0
 112              	.LBB164:
 113              	.LBB163:
 114              	.LBB162:
ARM GAS  /tmp/cc8p9kza.s 			page 3


 115              	.LBB161:
 116              	.LBB160:
 117              		.loc 2 493 0
 118              		.syntax unified
 119              	@ 493 "./RM18A-ChibiOS18-Core/chibios/os/common/ext/ARM/CMSIS/Core/Include/cmsis_gcc.h" 1
 120 0006 83F31188 		MSR basepri, r3
 121              	@ 0 "" 2
 122              	.LVL3:
 123              		.thumb
 124              		.syntax unified
 125              	.LBE160:
 126              	.LBE161:
 127              	.LBE162:
 128              	.LBE163:
 129              	.LBE164:
 130              		.loc 1 105 0
 131 000a 4160     		str	r1, [r0, #4]
 132              		.loc 1 106 0
 133 000c FFF7FEFF 		bl	uart_lld_start
 134              	.LVL4:
 135              		.loc 1 107 0
 136 0010 0223     		movs	r3, #2
 137 0012 2370     		strb	r3, [r4]
 138              	.LVL5:
 139              	.LBB165:
 140              	.LBB166:
 141              	.LBB167:
 142              	.LBB168:
 143              	.LBB169:
 144              	.LBB170:
 145              		.loc 2 493 0
 146 0014 0023     		movs	r3, #0
 147              		.syntax unified
 148              	@ 493 "./RM18A-ChibiOS18-Core/chibios/os/common/ext/ARM/CMSIS/Core/Include/cmsis_gcc.h" 1
 149 0016 83F31188 		MSR basepri, r3
 150              	@ 0 "" 2
 151              	.LVL6:
 152              		.thumb
 153              		.syntax unified
 154              	.LBE170:
 155              	.LBE169:
 156              	.LBE168:
 157              	.LBE167:
 158              	.LBE166:
 159              	.LBE165:
 160              		.loc 1 109 0
 161 001a 10BD     		pop	{r4, pc}
 162              		.cfi_endproc
 163              	.LFE329:
 164              		.size	uartStart, .-uartStart
 165              		.section	.text.uartStop,"ax",%progbits
 166              		.align	1
 167              		.p2align 2,,3
 168              		.global	uartStop
 169              		.syntax unified
 170              		.thumb
 171              		.thumb_func
ARM GAS  /tmp/cc8p9kza.s 			page 4


 172              		.fpu fpv4-sp-d16
 173              		.type	uartStop, %function
 174              	uartStop:
 175              	.LFB330:
 176              		.loc 1 118 0
 177              		.cfi_startproc
 178              		@ args = 0, pretend = 0, frame = 0
 179              		@ frame_needed = 0, uses_anonymous_args = 0
 180              	.LVL7:
 181 0000 10B5     		push	{r4, lr}
 182              		.cfi_def_cfa_offset 8
 183              		.cfi_offset 4, -8
 184              		.cfi_offset 14, -4
 185              	.LBB171:
 186              	.LBB172:
 187              	.LBB173:
 188              	.LBB174:
 189              	.LBB175:
 190              		.loc 2 493 0
 191 0002 2023     		movs	r3, #32
 192              	.LBE175:
 193              	.LBE174:
 194              	.LBE173:
 195              	.LBE172:
 196              	.LBE171:
 197              		.loc 1 118 0
 198 0004 0446     		mov	r4, r0
 199              	.LBB180:
 200              	.LBB179:
 201              	.LBB178:
 202              	.LBB177:
 203              	.LBB176:
 204              		.loc 2 493 0
 205              		.syntax unified
 206              	@ 493 "./RM18A-ChibiOS18-Core/chibios/os/common/ext/ARM/CMSIS/Core/Include/cmsis_gcc.h" 1
 207 0006 83F31188 		MSR basepri, r3
 208              	@ 0 "" 2
 209              	.LVL8:
 210              		.thumb
 211              		.syntax unified
 212              	.LBE176:
 213              	.LBE177:
 214              	.LBE178:
 215              	.LBE179:
 216              	.LBE180:
 217              		.loc 1 127 0
 218 000a FFF7FEFF 		bl	uart_lld_stop
 219              	.LVL9:
 220              		.loc 1 128 0
 221 000e 0023     		movs	r3, #0
 222              		.loc 1 129 0
 223 0010 0122     		movs	r2, #1
 224 0012 2270     		strb	r2, [r4]
 225              		.loc 1 128 0
 226 0014 6360     		str	r3, [r4, #4]
 227              		.loc 1 130 0
 228 0016 6370     		strb	r3, [r4, #1]
ARM GAS  /tmp/cc8p9kza.s 			page 5


 229              		.loc 1 131 0
 230 0018 A370     		strb	r3, [r4, #2]
 231              	.LVL10:
 232              	.LBB181:
 233              	.LBB182:
 234              	.LBB183:
 235              	.LBB184:
 236              	.LBB185:
 237              	.LBB186:
 238              		.loc 2 493 0
 239              		.syntax unified
 240              	@ 493 "./RM18A-ChibiOS18-Core/chibios/os/common/ext/ARM/CMSIS/Core/Include/cmsis_gcc.h" 1
 241 001a 83F31188 		MSR basepri, r3
 242              	@ 0 "" 2
 243              	.LVL11:
 244              		.thumb
 245              		.syntax unified
 246              	.LBE186:
 247              	.LBE185:
 248              	.LBE184:
 249              	.LBE183:
 250              	.LBE182:
 251              	.LBE181:
 252              		.loc 1 134 0
 253 001e 10BD     		pop	{r4, pc}
 254              		.cfi_endproc
 255              	.LFE330:
 256              		.size	uartStop, .-uartStop
 257              		.section	.text.uartStartSend,"ax",%progbits
 258              		.align	1
 259              		.p2align 2,,3
 260              		.global	uartStartSend
 261              		.syntax unified
 262              		.thumb
 263              		.thumb_func
 264              		.fpu fpv4-sp-d16
 265              		.type	uartStartSend, %function
 266              	uartStartSend:
 267              	.LFB331:
 268              		.loc 1 147 0
 269              		.cfi_startproc
 270              		@ args = 0, pretend = 0, frame = 0
 271              		@ frame_needed = 0, uses_anonymous_args = 0
 272              	.LVL12:
 273 0000 10B5     		push	{r4, lr}
 274              		.cfi_def_cfa_offset 8
 275              		.cfi_offset 4, -8
 276              		.cfi_offset 14, -4
 277              	.LBB187:
 278              	.LBB188:
 279              	.LBB189:
 280              	.LBB190:
 281              	.LBB191:
 282              		.loc 2 493 0
 283 0002 2023     		movs	r3, #32
 284              	.LBE191:
 285              	.LBE190:
ARM GAS  /tmp/cc8p9kza.s 			page 6


 286              	.LBE189:
 287              	.LBE188:
 288              	.LBE187:
 289              		.loc 1 147 0
 290 0004 0446     		mov	r4, r0
 291              	.LBB196:
 292              	.LBB195:
 293              	.LBB194:
 294              	.LBB193:
 295              	.LBB192:
 296              		.loc 2 493 0
 297              		.syntax unified
 298              	@ 493 "./RM18A-ChibiOS18-Core/chibios/os/common/ext/ARM/CMSIS/Core/Include/cmsis_gcc.h" 1
 299 0006 83F31188 		MSR basepri, r3
 300              	@ 0 "" 2
 301              	.LVL13:
 302              		.thumb
 303              		.syntax unified
 304              	.LBE192:
 305              	.LBE193:
 306              	.LBE194:
 307              	.LBE195:
 308              	.LBE196:
 309              		.loc 1 155 0
 310 000a FFF7FEFF 		bl	uart_lld_start_send
 311              	.LVL14:
 312              		.loc 1 156 0
 313 000e 0123     		movs	r3, #1
 314 0010 6370     		strb	r3, [r4, #1]
 315              	.LVL15:
 316              	.LBB197:
 317              	.LBB198:
 318              	.LBB199:
 319              	.LBB200:
 320              	.LBB201:
 321              	.LBB202:
 322              		.loc 2 493 0
 323 0012 0023     		movs	r3, #0
 324              		.syntax unified
 325              	@ 493 "./RM18A-ChibiOS18-Core/chibios/os/common/ext/ARM/CMSIS/Core/Include/cmsis_gcc.h" 1
 326 0014 83F31188 		MSR basepri, r3
 327              	@ 0 "" 2
 328              	.LVL16:
 329              		.thumb
 330              		.syntax unified
 331              	.LBE202:
 332              	.LBE201:
 333              	.LBE200:
 334              	.LBE199:
 335              	.LBE198:
 336              	.LBE197:
 337              		.loc 1 158 0
 338 0018 10BD     		pop	{r4, pc}
 339              		.cfi_endproc
 340              	.LFE331:
 341              		.size	uartStartSend, .-uartStartSend
 342 001a 00BF     		.section	.text.uartStartSendI,"ax",%progbits
ARM GAS  /tmp/cc8p9kza.s 			page 7


 343              		.align	1
 344              		.p2align 2,,3
 345              		.global	uartStartSendI
 346              		.syntax unified
 347              		.thumb
 348              		.thumb_func
 349              		.fpu fpv4-sp-d16
 350              		.type	uartStartSendI, %function
 351              	uartStartSendI:
 352              	.LFB332:
 353              		.loc 1 172 0
 354              		.cfi_startproc
 355              		@ args = 0, pretend = 0, frame = 0
 356              		@ frame_needed = 0, uses_anonymous_args = 0
 357              	.LVL17:
 358 0000 10B5     		push	{r4, lr}
 359              		.cfi_def_cfa_offset 8
 360              		.cfi_offset 4, -8
 361              		.cfi_offset 14, -4
 362              		.loc 1 172 0
 363 0002 0446     		mov	r4, r0
 364              		.loc 1 179 0
 365 0004 FFF7FEFF 		bl	uart_lld_start_send
 366              	.LVL18:
 367              		.loc 1 180 0
 368 0008 0123     		movs	r3, #1
 369 000a 6370     		strb	r3, [r4, #1]
 370              		.loc 1 181 0
 371 000c 10BD     		pop	{r4, pc}
 372              		.cfi_endproc
 373              	.LFE332:
 374              		.size	uartStartSendI, .-uartStartSendI
 375 000e 00BF     		.section	.text.uartStopSend,"ax",%progbits
 376              		.align	1
 377              		.p2align 2,,3
 378              		.global	uartStopSend
 379              		.syntax unified
 380              		.thumb
 381              		.thumb_func
 382              		.fpu fpv4-sp-d16
 383              		.type	uartStopSend, %function
 384              	uartStopSend:
 385              	.LFB333:
 386              		.loc 1 195 0
 387              		.cfi_startproc
 388              		@ args = 0, pretend = 0, frame = 0
 389              		@ frame_needed = 0, uses_anonymous_args = 0
 390              	.LVL19:
 391              	.LBB203:
 392              	.LBB204:
 393              	.LBB205:
 394              	.LBB206:
 395              	.LBB207:
 396              		.loc 2 493 0
 397 0000 2022     		movs	r2, #32
 398              		.syntax unified
 399              	@ 493 "./RM18A-ChibiOS18-Core/chibios/os/common/ext/ARM/CMSIS/Core/Include/cmsis_gcc.h" 1
ARM GAS  /tmp/cc8p9kza.s 			page 8


 400 0002 82F31188 		MSR basepri, r2
 401              	@ 0 "" 2
 402              	.LVL20:
 403              		.thumb
 404              		.syntax unified
 405              	.LBE207:
 406              	.LBE206:
 407              	.LBE205:
 408              	.LBE204:
 409              	.LBE203:
 410              		.loc 1 203 0
 411 0006 4278     		ldrb	r2, [r0, #1]	@ zero_extendqisi2
 412 0008 012A     		cmp	r2, #1
 413 000a 05D0     		beq	.L19
 414              		.loc 1 208 0
 415 000c 4FF0FF30 		mov	r0, #-1
 416              	.LVL21:
 417              	.LBB208:
 418              	.LBB209:
 419              	.LBB210:
 420              	.LBB211:
 421              	.LBB212:
 422              	.LBB213:
 423              		.loc 2 493 0
 424 0010 0023     		movs	r3, #0
 425              		.syntax unified
 426              	@ 493 "./RM18A-ChibiOS18-Core/chibios/os/common/ext/ARM/CMSIS/Core/Include/cmsis_gcc.h" 1
 427 0012 83F31188 		MSR basepri, r3
 428              	@ 0 "" 2
 429              	.LVL22:
 430              		.thumb
 431              		.syntax unified
 432              	.LBE213:
 433              	.LBE212:
 434              	.LBE211:
 435              	.LBE210:
 436              	.LBE209:
 437              	.LBE208:
 438              		.loc 1 213 0
 439 0016 7047     		bx	lr
 440              	.LVL23:
 441              	.L19:
 442              		.loc 1 195 0
 443 0018 10B5     		push	{r4, lr}
 444              		.cfi_def_cfa_offset 8
 445              		.cfi_offset 4, -8
 446              		.cfi_offset 14, -4
 447 001a 0446     		mov	r4, r0
 448              		.loc 1 204 0
 449 001c FFF7FEFF 		bl	uart_lld_stop_send
 450              	.LVL24:
 451              		.loc 1 205 0
 452 0020 0023     		movs	r3, #0
 453 0022 6370     		strb	r3, [r4, #1]
 454              	.LVL25:
 455              	.LBB219:
 456              	.LBB218:
ARM GAS  /tmp/cc8p9kza.s 			page 9


 457              	.LBB217:
 458              	.LBB216:
 459              	.LBB215:
 460              	.LBB214:
 461              		.loc 2 493 0
 462 0024 0023     		movs	r3, #0
 463              		.syntax unified
 464              	@ 493 "./RM18A-ChibiOS18-Core/chibios/os/common/ext/ARM/CMSIS/Core/Include/cmsis_gcc.h" 1
 465 0026 83F31188 		MSR basepri, r3
 466              	@ 0 "" 2
 467              	.LVL26:
 468              		.thumb
 469              		.syntax unified
 470              	.LBE214:
 471              	.LBE215:
 472              	.LBE216:
 473              	.LBE217:
 474              	.LBE218:
 475              	.LBE219:
 476              		.loc 1 213 0
 477 002a 10BD     		pop	{r4, pc}
 478              		.cfi_endproc
 479              	.LFE333:
 480              		.size	uartStopSend, .-uartStopSend
 481              		.section	.text.uartStopSendI,"ax",%progbits
 482              		.align	1
 483              		.p2align 2,,3
 484              		.global	uartStopSendI
 485              		.syntax unified
 486              		.thumb
 487              		.thumb_func
 488              		.fpu fpv4-sp-d16
 489              		.type	uartStopSendI, %function
 490              	uartStopSendI:
 491              	.LFB334:
 492              		.loc 1 228 0
 493              		.cfi_startproc
 494              		@ args = 0, pretend = 0, frame = 0
 495              		@ frame_needed = 0, uses_anonymous_args = 0
 496              	.LVL27:
 497              		.loc 1 234 0
 498 0000 4278     		ldrb	r2, [r0, #1]	@ zero_extendqisi2
 499 0002 012A     		cmp	r2, #1
 500 0004 02D0     		beq	.L27
 501              		.loc 1 239 0
 502 0006 4FF0FF30 		mov	r0, #-1
 503              	.LVL28:
 504              		.loc 1 240 0
 505 000a 7047     		bx	lr
 506              	.LVL29:
 507              	.L27:
 508              		.loc 1 228 0
 509 000c 10B5     		push	{r4, lr}
 510              		.cfi_def_cfa_offset 8
 511              		.cfi_offset 4, -8
 512              		.cfi_offset 14, -4
 513 000e 0446     		mov	r4, r0
ARM GAS  /tmp/cc8p9kza.s 			page 10


 514              	.LVL30:
 515              	.LBB223:
 516              	.LBB224:
 517              	.LBB225:
 518              		.loc 1 235 0
 519 0010 FFF7FEFF 		bl	uart_lld_stop_send
 520              	.LVL31:
 521              		.loc 1 236 0
 522 0014 0023     		movs	r3, #0
 523 0016 6370     		strb	r3, [r4, #1]
 524              	.LVL32:
 525              	.LBE225:
 526              	.LBE224:
 527              	.LBE223:
 528              		.loc 1 240 0
 529 0018 10BD     		pop	{r4, pc}
 530              		.cfi_endproc
 531              	.LFE334:
 532              		.size	uartStopSendI, .-uartStopSendI
 533 001a 00BF     		.section	.text.uartStartReceive,"ax",%progbits
 534              		.align	1
 535              		.p2align 2,,3
 536              		.global	uartStartReceive
 537              		.syntax unified
 538              		.thumb
 539              		.thumb_func
 540              		.fpu fpv4-sp-d16
 541              		.type	uartStartReceive, %function
 542              	uartStartReceive:
 543              	.LFB335:
 544              		.loc 1 253 0
 545              		.cfi_startproc
 546              		@ args = 0, pretend = 0, frame = 0
 547              		@ frame_needed = 0, uses_anonymous_args = 0
 548              	.LVL33:
 549 0000 10B5     		push	{r4, lr}
 550              		.cfi_def_cfa_offset 8
 551              		.cfi_offset 4, -8
 552              		.cfi_offset 14, -4
 553              	.LBB226:
 554              	.LBB227:
 555              	.LBB228:
 556              	.LBB229:
 557              	.LBB230:
 558              		.loc 2 493 0
 559 0002 2023     		movs	r3, #32
 560              	.LBE230:
 561              	.LBE229:
 562              	.LBE228:
 563              	.LBE227:
 564              	.LBE226:
 565              		.loc 1 253 0
 566 0004 0446     		mov	r4, r0
 567              	.LBB235:
 568              	.LBB234:
 569              	.LBB233:
 570              	.LBB232:
ARM GAS  /tmp/cc8p9kza.s 			page 11


 571              	.LBB231:
 572              		.loc 2 493 0
 573              		.syntax unified
 574              	@ 493 "./RM18A-ChibiOS18-Core/chibios/os/common/ext/ARM/CMSIS/Core/Include/cmsis_gcc.h" 1
 575 0006 83F31188 		MSR basepri, r3
 576              	@ 0 "" 2
 577              	.LVL34:
 578              		.thumb
 579              		.syntax unified
 580              	.LBE231:
 581              	.LBE232:
 582              	.LBE233:
 583              	.LBE234:
 584              	.LBE235:
 585              		.loc 1 261 0
 586 000a FFF7FEFF 		bl	uart_lld_start_receive
 587              	.LVL35:
 588              		.loc 1 262 0
 589 000e 0123     		movs	r3, #1
 590 0010 A370     		strb	r3, [r4, #2]
 591              	.LVL36:
 592              	.LBB236:
 593              	.LBB237:
 594              	.LBB238:
 595              	.LBB239:
 596              	.LBB240:
 597              	.LBB241:
 598              		.loc 2 493 0
 599 0012 0023     		movs	r3, #0
 600              		.syntax unified
 601              	@ 493 "./RM18A-ChibiOS18-Core/chibios/os/common/ext/ARM/CMSIS/Core/Include/cmsis_gcc.h" 1
 602 0014 83F31188 		MSR basepri, r3
 603              	@ 0 "" 2
 604              	.LVL37:
 605              		.thumb
 606              		.syntax unified
 607              	.LBE241:
 608              	.LBE240:
 609              	.LBE239:
 610              	.LBE238:
 611              	.LBE237:
 612              	.LBE236:
 613              		.loc 1 264 0
 614 0018 10BD     		pop	{r4, pc}
 615              		.cfi_endproc
 616              	.LFE335:
 617              		.size	uartStartReceive, .-uartStartReceive
 618 001a 00BF     		.section	.text.uartStartReceiveI,"ax",%progbits
 619              		.align	1
 620              		.p2align 2,,3
 621              		.global	uartStartReceiveI
 622              		.syntax unified
 623              		.thumb
 624              		.thumb_func
 625              		.fpu fpv4-sp-d16
 626              		.type	uartStartReceiveI, %function
 627              	uartStartReceiveI:
ARM GAS  /tmp/cc8p9kza.s 			page 12


 628              	.LFB336:
 629              		.loc 1 278 0
 630              		.cfi_startproc
 631              		@ args = 0, pretend = 0, frame = 0
 632              		@ frame_needed = 0, uses_anonymous_args = 0
 633              	.LVL38:
 634 0000 10B5     		push	{r4, lr}
 635              		.cfi_def_cfa_offset 8
 636              		.cfi_offset 4, -8
 637              		.cfi_offset 14, -4
 638              		.loc 1 278 0
 639 0002 0446     		mov	r4, r0
 640              		.loc 1 285 0
 641 0004 FFF7FEFF 		bl	uart_lld_start_receive
 642              	.LVL39:
 643              		.loc 1 286 0
 644 0008 0123     		movs	r3, #1
 645 000a A370     		strb	r3, [r4, #2]
 646              		.loc 1 287 0
 647 000c 10BD     		pop	{r4, pc}
 648              		.cfi_endproc
 649              	.LFE336:
 650              		.size	uartStartReceiveI, .-uartStartReceiveI
 651 000e 00BF     		.section	.text.uartStopReceive,"ax",%progbits
 652              		.align	1
 653              		.p2align 2,,3
 654              		.global	uartStopReceive
 655              		.syntax unified
 656              		.thumb
 657              		.thumb_func
 658              		.fpu fpv4-sp-d16
 659              		.type	uartStopReceive, %function
 660              	uartStopReceive:
 661              	.LFB337:
 662              		.loc 1 301 0
 663              		.cfi_startproc
 664              		@ args = 0, pretend = 0, frame = 0
 665              		@ frame_needed = 0, uses_anonymous_args = 0
 666              	.LVL40:
 667              	.LBB242:
 668              	.LBB243:
 669              	.LBB244:
 670              	.LBB245:
 671              	.LBB246:
 672              		.loc 2 493 0
 673 0000 2022     		movs	r2, #32
 674              		.syntax unified
 675              	@ 493 "./RM18A-ChibiOS18-Core/chibios/os/common/ext/ARM/CMSIS/Core/Include/cmsis_gcc.h" 1
 676 0002 82F31188 		MSR basepri, r2
 677              	@ 0 "" 2
 678              	.LVL41:
 679              		.thumb
 680              		.syntax unified
 681              	.LBE246:
 682              	.LBE245:
 683              	.LBE244:
 684              	.LBE243:
ARM GAS  /tmp/cc8p9kza.s 			page 13


 685              	.LBE242:
 686              		.loc 1 309 0
 687 0006 8278     		ldrb	r2, [r0, #2]	@ zero_extendqisi2
 688 0008 012A     		cmp	r2, #1
 689 000a 05D0     		beq	.L39
 690              		.loc 1 314 0
 691 000c 4FF0FF30 		mov	r0, #-1
 692              	.LVL42:
 693              	.LBB247:
 694              	.LBB248:
 695              	.LBB249:
 696              	.LBB250:
 697              	.LBB251:
 698              	.LBB252:
 699              		.loc 2 493 0
 700 0010 0023     		movs	r3, #0
 701              		.syntax unified
 702              	@ 493 "./RM18A-ChibiOS18-Core/chibios/os/common/ext/ARM/CMSIS/Core/Include/cmsis_gcc.h" 1
 703 0012 83F31188 		MSR basepri, r3
 704              	@ 0 "" 2
 705              	.LVL43:
 706              		.thumb
 707              		.syntax unified
 708              	.LBE252:
 709              	.LBE251:
 710              	.LBE250:
 711              	.LBE249:
 712              	.LBE248:
 713              	.LBE247:
 714              		.loc 1 319 0
 715 0016 7047     		bx	lr
 716              	.LVL44:
 717              	.L39:
 718              		.loc 1 301 0
 719 0018 10B5     		push	{r4, lr}
 720              		.cfi_def_cfa_offset 8
 721              		.cfi_offset 4, -8
 722              		.cfi_offset 14, -4
 723 001a 0446     		mov	r4, r0
 724              		.loc 1 310 0
 725 001c FFF7FEFF 		bl	uart_lld_stop_receive
 726              	.LVL45:
 727              		.loc 1 311 0
 728 0020 0023     		movs	r3, #0
 729 0022 A370     		strb	r3, [r4, #2]
 730              	.LVL46:
 731              	.LBB258:
 732              	.LBB257:
 733              	.LBB256:
 734              	.LBB255:
 735              	.LBB254:
 736              	.LBB253:
 737              		.loc 2 493 0
 738 0024 0023     		movs	r3, #0
 739              		.syntax unified
 740              	@ 493 "./RM18A-ChibiOS18-Core/chibios/os/common/ext/ARM/CMSIS/Core/Include/cmsis_gcc.h" 1
 741 0026 83F31188 		MSR basepri, r3
ARM GAS  /tmp/cc8p9kza.s 			page 14


 742              	@ 0 "" 2
 743              	.LVL47:
 744              		.thumb
 745              		.syntax unified
 746              	.LBE253:
 747              	.LBE254:
 748              	.LBE255:
 749              	.LBE256:
 750              	.LBE257:
 751              	.LBE258:
 752              		.loc 1 319 0
 753 002a 10BD     		pop	{r4, pc}
 754              		.cfi_endproc
 755              	.LFE337:
 756              		.size	uartStopReceive, .-uartStopReceive
 757              		.section	.text.uartStopReceiveI,"ax",%progbits
 758              		.align	1
 759              		.p2align 2,,3
 760              		.global	uartStopReceiveI
 761              		.syntax unified
 762              		.thumb
 763              		.thumb_func
 764              		.fpu fpv4-sp-d16
 765              		.type	uartStopReceiveI, %function
 766              	uartStopReceiveI:
 767              	.LFB338:
 768              		.loc 1 334 0
 769              		.cfi_startproc
 770              		@ args = 0, pretend = 0, frame = 0
 771              		@ frame_needed = 0, uses_anonymous_args = 0
 772              	.LVL48:
 773              		.loc 1 340 0
 774 0000 8278     		ldrb	r2, [r0, #2]	@ zero_extendqisi2
 775 0002 012A     		cmp	r2, #1
 776 0004 02D0     		beq	.L47
 777              		.loc 1 345 0
 778 0006 4FF0FF30 		mov	r0, #-1
 779              	.LVL49:
 780              		.loc 1 346 0
 781 000a 7047     		bx	lr
 782              	.LVL50:
 783              	.L47:
 784              		.loc 1 334 0
 785 000c 10B5     		push	{r4, lr}
 786              		.cfi_def_cfa_offset 8
 787              		.cfi_offset 4, -8
 788              		.cfi_offset 14, -4
 789 000e 0446     		mov	r4, r0
 790              	.LVL51:
 791              	.LBB262:
 792              	.LBB263:
 793              	.LBB264:
 794              		.loc 1 341 0
 795 0010 FFF7FEFF 		bl	uart_lld_stop_receive
 796              	.LVL52:
 797              		.loc 1 342 0
 798 0014 0023     		movs	r3, #0
ARM GAS  /tmp/cc8p9kza.s 			page 15


 799 0016 A370     		strb	r3, [r4, #2]
 800              	.LVL53:
 801              	.LBE264:
 802              	.LBE263:
 803              	.LBE262:
 804              		.loc 1 346 0
 805 0018 10BD     		pop	{r4, pc}
 806              		.cfi_endproc
 807              	.LFE338:
 808              		.size	uartStopReceiveI, .-uartStopReceiveI
 809 001a 00BF     		.section	.text.uartSendTimeout,"ax",%progbits
 810              		.align	1
 811              		.p2align 2,,3
 812              		.global	uartSendTimeout
 813              		.syntax unified
 814              		.thumb
 815              		.thumb_func
 816              		.fpu fpv4-sp-d16
 817              		.type	uartSendTimeout, %function
 818              	uartSendTimeout:
 819              	.LFB339:
 820              		.loc 1 370 0
 821              		.cfi_startproc
 822              		@ args = 0, pretend = 0, frame = 0
 823              		@ frame_needed = 0, uses_anonymous_args = 0
 824              	.LVL54:
 825 0000 F8B5     		push	{r3, r4, r5, r6, r7, lr}
 826              		.cfi_def_cfa_offset 24
 827              		.cfi_offset 3, -24
 828              		.cfi_offset 4, -20
 829              		.cfi_offset 5, -16
 830              		.cfi_offset 6, -12
 831              		.cfi_offset 7, -8
 832              		.cfi_offset 14, -4
 833              		.loc 1 370 0
 834 0002 1F46     		mov	r7, r3
 835 0004 0D46     		mov	r5, r1
 836 0006 0446     		mov	r4, r0
 837              	.LBB283:
 838              	.LBB284:
 839              	.LBB285:
 840              	.LBB286:
 841              	.LBB287:
 842              		.loc 2 493 0
 843 0008 2023     		movs	r3, #32
 844              	.LVL55:
 845              		.syntax unified
 846              	@ 493 "./RM18A-ChibiOS18-Core/chibios/os/common/ext/ARM/CMSIS/Core/Include/cmsis_gcc.h" 1
 847 000a 83F31188 		MSR basepri, r3
 848              	@ 0 "" 2
 849              	.LVL56:
 850              		.thumb
 851              		.syntax unified
 852              	.LBE287:
 853              	.LBE286:
 854              	.LBE285:
 855              	.LBE284:
ARM GAS  /tmp/cc8p9kza.s 			page 16


 856              	.LBE283:
 857              		.loc 1 380 0
 858 000e 0126     		movs	r6, #1
 859 0010 0672     		strb	r6, [r0, #8]
 860              		.loc 1 381 0
 861 0012 0968     		ldr	r1, [r1]
 862              	.LVL57:
 863 0014 FFF7FEFF 		bl	uart_lld_start_send
 864              	.LVL58:
 865              		.loc 1 382 0
 866 0018 6670     		strb	r6, [r4, #1]
 867              	.LVL59:
 868              	.LBB288:
 869              	.LBB289:
 870              		.file 3 "./RM18A-ChibiOS18-Core/chibios/os/hal/osal/rt/osal.h"
 871              		.loc 3 760 0
 872 001a 3946     		mov	r1, r7
 873 001c 04F11000 		add	r0, r4, #16
 874              	.LVL60:
 875 0020 FFF7FEFF 		bl	chThdSuspendTimeoutS
 876              	.LVL61:
 877              	.LBE289:
 878              	.LBE288:
 879              		.loc 1 386 0
 880 0024 0646     		mov	r6, r0
 881 0026 38B1     		cbz	r0, .L49
 882              	.LVL62:
 883              	.LBB290:
 884              	.LBB291:
 885              		.loc 1 234 0
 886 0028 6378     		ldrb	r3, [r4, #1]	@ zero_extendqisi2
 887 002a 012B     		cmp	r3, #1
 888 002c 09D0     		beq	.L56
 889              		.loc 1 239 0
 890 002e 4FF0FF30 		mov	r0, #-1
 891              	.L50:
 892              	.LVL63:
 893              	.LBE291:
 894              	.LBE290:
 895              		.loc 1 387 0
 896 0032 2B68     		ldr	r3, [r5]
 897 0034 1B1A     		subs	r3, r3, r0
 898 0036 2B60     		str	r3, [r5]
 899              	.L49:
 900              	.LVL64:
 901              	.LBB296:
 902              	.LBB297:
 903              	.LBB298:
 904              	.LBB299:
 905              	.LBB300:
 906              	.LBB301:
 907              		.loc 2 493 0
 908 0038 0023     		movs	r3, #0
 909              		.syntax unified
 910              	@ 493 "./RM18A-ChibiOS18-Core/chibios/os/common/ext/ARM/CMSIS/Core/Include/cmsis_gcc.h" 1
 911 003a 83F31188 		MSR basepri, r3
 912              	@ 0 "" 2
ARM GAS  /tmp/cc8p9kza.s 			page 17


 913              	.LVL65:
 914              		.thumb
 915              		.syntax unified
 916              	.LBE301:
 917              	.LBE300:
 918              	.LBE299:
 919              	.LBE298:
 920              	.LBE297:
 921              	.LBE296:
 922              		.loc 1 392 0
 923 003e 3046     		mov	r0, r6
 924 0040 F8BD     		pop	{r3, r4, r5, r6, r7, pc}
 925              	.LVL66:
 926              	.L56:
 927              	.LBB302:
 928              	.LBB295:
 929              	.LBB292:
 930              	.LBB293:
 931              	.LBB294:
 932              		.loc 1 235 0
 933 0042 2046     		mov	r0, r4
 934 0044 FFF7FEFF 		bl	uart_lld_stop_send
 935              	.LVL67:
 936              		.loc 1 236 0
 937 0048 0023     		movs	r3, #0
 938 004a 6370     		strb	r3, [r4, #1]
 939              	.LVL68:
 940 004c F1E7     		b	.L50
 941              	.LBE294:
 942              	.LBE293:
 943              	.LBE292:
 944              	.LBE295:
 945              	.LBE302:
 946              		.cfi_endproc
 947              	.LFE339:
 948              		.size	uartSendTimeout, .-uartSendTimeout
 949 004e 00BF     		.section	.text.uartSendFullTimeout,"ax",%progbits
 950              		.align	1
 951              		.p2align 2,,3
 952              		.global	uartSendFullTimeout
 953              		.syntax unified
 954              		.thumb
 955              		.thumb_func
 956              		.fpu fpv4-sp-d16
 957              		.type	uartSendFullTimeout, %function
 958              	uartSendFullTimeout:
 959              	.LFB340:
 960              		.loc 1 415 0
 961              		.cfi_startproc
 962              		@ args = 0, pretend = 0, frame = 0
 963              		@ frame_needed = 0, uses_anonymous_args = 0
 964              	.LVL69:
 965 0000 F8B5     		push	{r3, r4, r5, r6, r7, lr}
 966              		.cfi_def_cfa_offset 24
 967              		.cfi_offset 3, -24
 968              		.cfi_offset 4, -20
 969              		.cfi_offset 5, -16
ARM GAS  /tmp/cc8p9kza.s 			page 18


 970              		.cfi_offset 6, -12
 971              		.cfi_offset 7, -8
 972              		.cfi_offset 14, -4
 973              		.loc 1 415 0
 974 0002 1D46     		mov	r5, r3
 975 0004 0E46     		mov	r6, r1
 976 0006 0446     		mov	r4, r0
 977              	.LBB321:
 978              	.LBB322:
 979              	.LBB323:
 980              	.LBB324:
 981              	.LBB325:
 982              		.loc 2 493 0
 983 0008 2023     		movs	r3, #32
 984              	.LVL70:
 985              		.syntax unified
 986              	@ 493 "./RM18A-ChibiOS18-Core/chibios/os/common/ext/ARM/CMSIS/Core/Include/cmsis_gcc.h" 1
 987 000a 83F31188 		MSR basepri, r3
 988              	@ 0 "" 2
 989              	.LVL71:
 990              		.thumb
 991              		.syntax unified
 992              	.LBE325:
 993              	.LBE324:
 994              	.LBE323:
 995              	.LBE322:
 996              	.LBE321:
 997              		.loc 1 425 0
 998 000e 0027     		movs	r7, #0
 999 0010 0772     		strb	r7, [r0, #8]
 1000              		.loc 1 426 0
 1001 0012 0968     		ldr	r1, [r1]
 1002              	.LVL72:
 1003 0014 FFF7FEFF 		bl	uart_lld_start_send
 1004              	.LVL73:
 1005              		.loc 1 427 0
 1006 0018 0122     		movs	r2, #1
 1007              	.LBB326:
 1008              	.LBB327:
 1009              		.loc 3 760 0
 1010 001a 2946     		mov	r1, r5
 1011              	.LBE327:
 1012              	.LBE326:
 1013              		.loc 1 427 0
 1014 001c 6270     		strb	r2, [r4, #1]
 1015              	.LVL74:
 1016              	.LBB329:
 1017              	.LBB328:
 1018              		.loc 3 760 0
 1019 001e 04F11000 		add	r0, r4, #16
 1020              	.LVL75:
 1021 0022 FFF7FEFF 		bl	chThdSuspendTimeoutS
 1022              	.LVL76:
 1023              	.LBE328:
 1024              	.LBE329:
 1025              		.loc 1 431 0
 1026 0026 0546     		mov	r5, r0
ARM GAS  /tmp/cc8p9kza.s 			page 19


 1027              	.LVL77:
 1028 0028 28B1     		cbz	r0, .L58
 1029              	.LVL78:
 1030              	.LBB330:
 1031              	.LBB331:
 1032              		.loc 1 234 0
 1033 002a 6378     		ldrb	r3, [r4, #1]	@ zero_extendqisi2
 1034 002c 012B     		cmp	r3, #1
 1035 002e 07D0     		beq	.L65
 1036              		.loc 1 239 0
 1037 0030 4FF0FF30 		mov	r0, #-1
 1038              	.L59:
 1039              	.LVL79:
 1040              	.LBE331:
 1041              	.LBE330:
 1042              		.loc 1 432 0
 1043 0034 3060     		str	r0, [r6]
 1044              	.L58:
 1045              	.LVL80:
 1046              	.LBB336:
 1047              	.LBB337:
 1048              	.LBB338:
 1049              	.LBB339:
 1050              	.LBB340:
 1051              	.LBB341:
 1052              		.loc 2 493 0
 1053 0036 0023     		movs	r3, #0
 1054              		.syntax unified
 1055              	@ 493 "./RM18A-ChibiOS18-Core/chibios/os/common/ext/ARM/CMSIS/Core/Include/cmsis_gcc.h" 1
 1056 0038 83F31188 		MSR basepri, r3
 1057              	@ 0 "" 2
 1058              	.LVL81:
 1059              		.thumb
 1060              		.syntax unified
 1061              	.LBE341:
 1062              	.LBE340:
 1063              	.LBE339:
 1064              	.LBE338:
 1065              	.LBE337:
 1066              	.LBE336:
 1067              		.loc 1 437 0
 1068 003c 2846     		mov	r0, r5
 1069 003e F8BD     		pop	{r3, r4, r5, r6, r7, pc}
 1070              	.LVL82:
 1071              	.L65:
 1072              	.LBB342:
 1073              	.LBB335:
 1074              	.LBB332:
 1075              	.LBB333:
 1076              	.LBB334:
 1077              		.loc 1 235 0
 1078 0040 2046     		mov	r0, r4
 1079 0042 FFF7FEFF 		bl	uart_lld_stop_send
 1080              	.LVL83:
 1081              		.loc 1 236 0
 1082 0046 6770     		strb	r7, [r4, #1]
 1083              	.LVL84:
ARM GAS  /tmp/cc8p9kza.s 			page 20


 1084 0048 F4E7     		b	.L59
 1085              	.LBE334:
 1086              	.LBE333:
 1087              	.LBE332:
 1088              	.LBE335:
 1089              	.LBE342:
 1090              		.cfi_endproc
 1091              	.LFE340:
 1092              		.size	uartSendFullTimeout, .-uartSendFullTimeout
 1093 004a 00BF     		.section	.text.uartReceiveTimeout,"ax",%progbits
 1094              		.align	1
 1095              		.p2align 2,,3
 1096              		.global	uartReceiveTimeout
 1097              		.syntax unified
 1098              		.thumb
 1099              		.thumb_func
 1100              		.fpu fpv4-sp-d16
 1101              		.type	uartReceiveTimeout, %function
 1102              	uartReceiveTimeout:
 1103              	.LFB341:
 1104              		.loc 1 462 0
 1105              		.cfi_startproc
 1106              		@ args = 0, pretend = 0, frame = 0
 1107              		@ frame_needed = 0, uses_anonymous_args = 0
 1108              	.LVL85:
 1109 0000 70B5     		push	{r4, r5, r6, lr}
 1110              		.cfi_def_cfa_offset 16
 1111              		.cfi_offset 4, -16
 1112              		.cfi_offset 5, -12
 1113              		.cfi_offset 6, -8
 1114              		.cfi_offset 14, -4
 1115              		.loc 1 462 0
 1116 0002 1E46     		mov	r6, r3
 1117 0004 0D46     		mov	r5, r1
 1118 0006 0446     		mov	r4, r0
 1119              	.LBB361:
 1120              	.LBB362:
 1121              	.LBB363:
 1122              	.LBB364:
 1123              	.LBB365:
 1124              		.loc 2 493 0
 1125 0008 2023     		movs	r3, #32
 1126              	.LVL86:
 1127              		.syntax unified
 1128              	@ 493 "./RM18A-ChibiOS18-Core/chibios/os/common/ext/ARM/CMSIS/Core/Include/cmsis_gcc.h" 1
 1129 000a 83F31188 		MSR basepri, r3
 1130              	@ 0 "" 2
 1131              	.LVL87:
 1132              		.thumb
 1133              		.syntax unified
 1134              	.LBE365:
 1135              	.LBE364:
 1136              	.LBE363:
 1137              	.LBE362:
 1138              	.LBE361:
 1139              		.loc 1 472 0
 1140 000e 0968     		ldr	r1, [r1]
ARM GAS  /tmp/cc8p9kza.s 			page 21


 1141              	.LVL88:
 1142 0010 FFF7FEFF 		bl	uart_lld_start_receive
 1143              	.LVL89:
 1144              		.loc 1 473 0
 1145 0014 0122     		movs	r2, #1
 1146              	.LBB366:
 1147              	.LBB367:
 1148              		.loc 3 760 0
 1149 0016 3146     		mov	r1, r6
 1150              	.LBE367:
 1151              	.LBE366:
 1152              		.loc 1 473 0
 1153 0018 A270     		strb	r2, [r4, #2]
 1154              	.LVL90:
 1155              	.LBB369:
 1156              	.LBB368:
 1157              		.loc 3 760 0
 1158 001a 04F10C00 		add	r0, r4, #12
 1159              	.LVL91:
 1160 001e FFF7FEFF 		bl	chThdSuspendTimeoutS
 1161              	.LVL92:
 1162              	.LBE368:
 1163              	.LBE369:
 1164              		.loc 1 477 0
 1165 0022 0646     		mov	r6, r0
 1166              	.LVL93:
 1167 0024 38B1     		cbz	r0, .L67
 1168              	.LVL94:
 1169              	.LBB370:
 1170              	.LBB371:
 1171              		.loc 1 340 0
 1172 0026 A378     		ldrb	r3, [r4, #2]	@ zero_extendqisi2
 1173 0028 012B     		cmp	r3, #1
 1174 002a 09D0     		beq	.L74
 1175              		.loc 1 345 0
 1176 002c 4FF0FF30 		mov	r0, #-1
 1177              	.L68:
 1178              	.LVL95:
 1179              	.LBE371:
 1180              	.LBE370:
 1181              		.loc 1 478 0
 1182 0030 2B68     		ldr	r3, [r5]
 1183 0032 1B1A     		subs	r3, r3, r0
 1184 0034 2B60     		str	r3, [r5]
 1185              	.L67:
 1186              	.LVL96:
 1187              	.LBB376:
 1188              	.LBB377:
 1189              	.LBB378:
 1190              	.LBB379:
 1191              	.LBB380:
 1192              	.LBB381:
 1193              		.loc 2 493 0
 1194 0036 0023     		movs	r3, #0
 1195              		.syntax unified
 1196              	@ 493 "./RM18A-ChibiOS18-Core/chibios/os/common/ext/ARM/CMSIS/Core/Include/cmsis_gcc.h" 1
 1197 0038 83F31188 		MSR basepri, r3
ARM GAS  /tmp/cc8p9kza.s 			page 22


 1198              	@ 0 "" 2
 1199              	.LVL97:
 1200              		.thumb
 1201              		.syntax unified
 1202              	.LBE381:
 1203              	.LBE380:
 1204              	.LBE379:
 1205              	.LBE378:
 1206              	.LBE377:
 1207              	.LBE376:
 1208              		.loc 1 483 0
 1209 003c 3046     		mov	r0, r6
 1210 003e 70BD     		pop	{r4, r5, r6, pc}
 1211              	.LVL98:
 1212              	.L74:
 1213              	.LBB382:
 1214              	.LBB375:
 1215              	.LBB372:
 1216              	.LBB373:
 1217              	.LBB374:
 1218              		.loc 1 341 0
 1219 0040 2046     		mov	r0, r4
 1220 0042 FFF7FEFF 		bl	uart_lld_stop_receive
 1221              	.LVL99:
 1222              		.loc 1 342 0
 1223 0046 0023     		movs	r3, #0
 1224 0048 A370     		strb	r3, [r4, #2]
 1225              	.LVL100:
 1226 004a F1E7     		b	.L68
 1227              	.LBE374:
 1228              	.LBE373:
 1229              	.LBE372:
 1230              	.LBE375:
 1231              	.LBE382:
 1232              		.cfi_endproc
 1233              	.LFE341:
 1234              		.size	uartReceiveTimeout, .-uartReceiveTimeout
 1235              		.text
 1236              	.Letext0:
 1237              		.file 4 "/usr/lib/gcc/arm-none-eabi/7.3.1/include/stddef.h"
 1238              		.file 5 "/usr/arm-none-eabi/include/machine/_default_types.h"
 1239              		.file 6 "/usr/arm-none-eabi/include/sys/_stdint.h"
 1240              		.file 7 "./RM18A-ChibiOS18-Core/chibios/os/common/ports/ARMCMx/compilers/GCC/chtypes.h"
 1241              		.file 8 "./RM18A-ChibiOS18-Core/chibios/os/rt/include/chsystypes.h"
 1242              		.file 9 "./RM18A-ChibiOS18-Core/chibios/os/rt/include/chschd.h"
 1243              		.file 10 "./RM18A-ChibiOS18-Core/chibios/os/rt/include/chtime.h"
 1244              		.file 11 "./RM18A-ChibiOS18-Core/chibios/os/common/ext/ARM/CMSIS/Core/Include/core_cm4.h"
 1245              		.file 12 "./RM18A-ChibiOS18-Core/chibios/os/common/ext/ST/STM32F4xx/system_stm32f4xx.h"
 1246              		.file 13 "./RM18A-ChibiOS18-Core/chibios/os/common/ext/ST/STM32F4xx/stm32f427xx.h"
 1247              		.file 14 "./RM18A-ChibiOS18-Core/chibios/os/common/ports/ARMCMx/chcore.h"
 1248              		.file 15 "./RM18A-ChibiOS18-Core/chibios/os/common/ports/ARMCMx/chcore_v7m.h"
 1249              		.file 16 "./RM18A-ChibiOS18-Core/chibios/os/hal/ports/STM32/LLD/TIMv1/stm32_tim.h"
 1250              		.file 17 "./RM18A-ChibiOS18-Core/chibios/os/rt/include/chtm.h"
 1251              		.file 18 "./RM18A-ChibiOS18-Core/chibios/os/rt/include/chsem.h"
 1252              		.file 19 "./RM18A-ChibiOS18-Core/chibios/os/rt/include/chmtx.h"
 1253              		.file 20 "./RM18A-ChibiOS18-Core/chibios/os/rt/include/chsys.h"
 1254              		.file 21 "./RM18A-ChibiOS18-Core/chibios/os/rt/include/chregistry.h"
ARM GAS  /tmp/cc8p9kza.s 			page 23


 1255              		.file 22 "./RM18A-ChibiOS18-Core/chibios/os/rt/include/chevents.h"
 1256              		.file 23 "./RM18A-ChibiOS18-Core/chibios/os/oslib/include/chmemcore.h"
 1257              		.file 24 "./RM18A-ChibiOS18-Core/chibios/os/oslib/include/chmempools.h"
 1258              		.file 25 "./RM18A-ChibiOS18-Core/chibios/os/oslib/include/chfactory.h"
 1259              		.file 26 "./RM18A-ChibiOS18-Core/chibios/os/hal/ports/STM32/LLD/DMAv2/stm32_dma.h"
 1260              		.file 27 "./RM18A-ChibiOS18-Core/chibios/os/hal/include/hal_queues.h"
 1261              		.file 28 "./RM18A-ChibiOS18-Core/chibios/os/hal/include/hal_pal.h"
 1262              		.file 29 "./RM18A-ChibiOS18-Core/chibios/os/hal/ports/STM32/LLD/GPIOv2/hal_pal_lld.h"
 1263              		.file 30 "./RM18A-ChibiOS18-Core/chibios/os/hal/include/hal_adc.h"
 1264              		.file 31 "./RM18A-ChibiOS18-Core/chibios/os/hal/ports/STM32/LLD/ADCv2/hal_adc_lld.h"
 1265              		.file 32 "./RM18A-ChibiOS18-Core/chibios/os/hal/include/hal_can.h"
 1266              		.file 33 "./RM18A-ChibiOS18-Core/chibios/os/hal/ports/STM32/LLD/CANv1/hal_can_lld.h"
 1267              		.file 34 "./RM18A-ChibiOS18-Core/chibios/os/hal/include/hal_icu.h"
 1268              		.file 35 "./RM18A-ChibiOS18-Core/chibios/os/hal/ports/STM32/LLD/TIMv1/hal_icu_lld.h"
 1269              		.file 36 "./RM18A-ChibiOS18-Core/chibios/os/hal/include/hal_pwm.h"
 1270              		.file 37 "./RM18A-ChibiOS18-Core/chibios/os/hal/ports/STM32/LLD/TIMv1/hal_pwm_lld.h"
 1271              		.file 38 "./RM18A-ChibiOS18-Core/chibios/os/hal/include/hal_serial.h"
 1272              		.file 39 "./RM18A-ChibiOS18-Core/chibios/os/hal/ports/STM32/LLD/USARTv1/hal_serial_lld.h"
 1273              		.file 40 "./RM18A-ChibiOS18-Core/chibios/os/hal/include/hal_spi.h"
 1274              		.file 41 "./RM18A-ChibiOS18-Core/chibios/os/hal/ports/STM32/LLD/SPIv1/hal_spi_lld.h"
 1275              		.file 42 "./RM18A-ChibiOS18-Core/chibios/os/hal/include/hal_uart.h"
 1276              		.file 43 "./RM18A-ChibiOS18-Core/chibios/os/hal/ports/STM32/LLD/USARTv1/hal_uart_lld.h"
 1277              		.file 44 "./RM18A-ChibiOS18-Core/chibios/os/hal/include/hal_usb.h"
 1278              		.file 45 "./RM18A-ChibiOS18-Core/chibios/os/hal/ports/STM32/LLD/OTGv1/hal_usb_lld.h"
 1279              		.file 46 "./RM18A-ChibiOS18-Core/chibios/os/hal/ports/STM32/LLD/OTGv1/stm32_otg.h"
 1280              		.file 47 "./RM18A-ChibiOS18-Core/chibios/os/rt/include/chthreads.h"