ARM GAS  /tmp/ccIDbv0P.s 			page 1


   1              		.cpu cortex-m4
   2              		.eabi_attribute 27, 1
   3              		.eabi_attribute 28, 1
   4              		.eabi_attribute 20, 1
   5              		.eabi_attribute 21, 1
   6              		.eabi_attribute 23, 3
   7              		.eabi_attribute 24, 1
   8              		.eabi_attribute 25, 1
   9              		.eabi_attribute 26, 1
  10              		.eabi_attribute 30, 2
  11              		.eabi_attribute 34, 1
  12              		.eabi_attribute 18, 4
  13              		.file	"hal_adc_lld.c"
  14              		.text
  15              	.Ltext0:
  16              		.cfi_sections	.debug_frame
  17              		.section	.text.adc_lld_serve_rx_interrupt,"ax",%progbits
  18              		.align	1
  19              		.p2align 2,,3
  20              		.syntax unified
  21              		.thumb
  22              		.thumb_func
  23              		.fpu fpv4-sp-d16
  24              		.type	adc_lld_serve_rx_interrupt, %function
  25              	adc_lld_serve_rx_interrupt:
  26              	.LFB327:
  27              		.file 1 "./RM18A-ChibiOS18-Core/chibios/os/hal/ports/STM32/LLD/ADCv2/hal_adc_lld.c"
  28              		.loc 1 75 0
  29              		.cfi_startproc
  30              		@ args = 0, pretend = 0, frame = 0
  31              		@ frame_needed = 0, uses_anonymous_args = 0
  32              	.LVL0:
  33              		.loc 1 78 0
  34 0000 11F00C0F 		tst	r1, #12
  35              		.loc 1 75 0
  36 0004 70B5     		push	{r4, r5, r6, lr}
  37              		.cfi_def_cfa_offset 16
  38              		.cfi_offset 4, -16
  39              		.cfi_offset 5, -12
  40              		.cfi_offset 6, -8
  41              		.cfi_offset 14, -4
  42 0006 0269     		ldr	r2, [r0, #16]
  43              		.loc 1 75 0
  44 0008 0446     		mov	r4, r0
  45              		.loc 1 78 0
  46 000a 22D0     		beq	.L2
  47              	.LVL1:
  48              	.LBB190:
  49              	.LBB191:
  50              		.loc 1 423 0
  51 000c 836A     		ldr	r3, [r0, #40]
  52              	.LBE191:
  53              	.LBE190:
  54              		.loc 1 81 0
  55 000e 9568     		ldr	r5, [r2, #8]
  56              	.LBB193:
  57              	.LBB192:
ARM GAS  /tmp/ccIDbv0P.s 			page 2


  58              		.loc 1 423 0
  59 0010 0021     		movs	r1, #0
  60              	.LVL2:
  61 0012 5960     		str	r1, [r3, #4]
  62              		.loc 1 425 0
  63 0014 9A68     		ldr	r2, [r3, #8]
  64              		.loc 1 426 0
  65 0016 0126     		movs	r6, #1
  66              		.loc 1 425 0
  67 0018 22F08042 		bic	r2, r2, #1073741824
  68 001c 9A60     		str	r2, [r3, #8]
  69              		.loc 1 426 0
  70 001e 9E60     		str	r6, [r3, #8]
  71              	.LVL3:
  72              	.LBE192:
  73              	.LBE193:
  74              		.loc 1 81 0
  75 0020 002D     		cmp	r5, #0
  76 0022 4BD0     		beq	.L3
  77              		.loc 1 81 0 is_stmt 0 discriminator 1
  78 0024 0523     		movs	r3, #5
  79 0026 0370     		strb	r3, [r0]
  80 0028 A847     		blx	r5
  81              	.LVL4:
  82 002a 2378     		ldrb	r3, [r4]	@ zero_extendqisi2
  83 002c 052B     		cmp	r3, #5
  84 002e 04BF     		itt	eq
  85 0030 0223     		moveq	r3, #2
  86 0032 2370     		strbeq	r3, [r4]
  87 0034 0023     		movs	r3, #0
  88 0036 2361     		str	r3, [r4, #16]
  89              	.L5:
  90              	.LVL5:
  91              	.LBB194:
  92              	.LBB195:
  93              	.LBB196:
  94              	.LBB197:
  95              	.LBB198:
  96              	.LBB199:
  97              		.file 2 "./RM18A-ChibiOS18-Core/chibios/os/common/ext/ARM/CMSIS/Core/Include/cmsis_gcc.h"
  98              		.loc 2 493 0 is_stmt 1 discriminator 7
  99 0038 2023     		movs	r3, #32
 100              		.syntax unified
 101              	@ 493 "./RM18A-ChibiOS18-Core/chibios/os/common/ext/ARM/CMSIS/Core/Include/cmsis_gcc.h" 1
 102 003a 83F31188 		MSR basepri, r3
 103              	@ 0 "" 2
 104              	.LVL6:
 105              		.thumb
 106              		.syntax unified
 107              	.LBE199:
 108              	.LBE198:
 109              	.LBE197:
 110              	.LBE196:
 111              	.LBE195:
 112              	.LBE194:
 113              	.LBB200:
 114              	.LBB201:
ARM GAS  /tmp/ccIDbv0P.s 			page 3


 115              		.file 3 "./RM18A-ChibiOS18-Core/chibios/os/hal/osal/rt/osal.h"
 116              		.loc 3 775 0 discriminator 7
 117 003e 4FF0FF31 		mov	r1, #-1
 118 0042 04F11400 		add	r0, r4, #20
 119              	.LVL7:
 120 0046 FFF7FEFF 		bl	chThdResumeI
 121              	.LVL8:
 122              	.LBE201:
 123              	.LBE200:
 124              	.LBB202:
 125              	.LBB203:
 126              	.LBB204:
 127              	.LBB205:
 128              	.LBB206:
 129              	.LBB207:
 130              		.loc 2 493 0 discriminator 7
 131 004a 0023     		movs	r3, #0
 132              		.syntax unified
 133              	@ 493 "./RM18A-ChibiOS18-Core/chibios/os/common/ext/ARM/CMSIS/Core/Include/cmsis_gcc.h" 1
 134 004c 83F31188 		MSR basepri, r3
 135              	@ 0 "" 2
 136              	.LVL9:
 137              		.thumb
 138              		.syntax unified
 139              	.L1:
 140              	.LBE207:
 141              	.LBE206:
 142              	.LBE205:
 143              	.LBE204:
 144              	.LBE203:
 145              	.LBE202:
 146              		.loc 1 98 0
 147 0050 70BD     		pop	{r4, r5, r6, pc}
 148              	.LVL10:
 149              	.L2:
 150              	.LBB208:
 151              	.LBB209:
 152              		.loc 1 86 0
 153 0052 002A     		cmp	r2, #0
 154 0054 FCD0     		beq	.L1
 155              		.loc 1 88 0
 156 0056 8D06     		lsls	r5, r1, #26
 157 0058 0DD5     		bpl	.L8
 158              		.loc 1 90 0
 159 005a 1178     		ldrb	r1, [r2]	@ zero_extendqisi2
 160              	.LVL11:
 161 005c 5368     		ldr	r3, [r2, #4]
 162 005e 91B1     		cbz	r1, .L9
 163 0060 002B     		cmp	r3, #0
 164 0062 F5D0     		beq	.L1
 165 0064 0422     		movs	r2, #4
 166 0066 0270     		strb	r2, [r0]
 167 0068 9847     		blx	r3
 168              	.LVL12:
 169 006a 2378     		ldrb	r3, [r4]	@ zero_extendqisi2
 170 006c 042B     		cmp	r3, #4
 171 006e EFD1     		bne	.L1
ARM GAS  /tmp/ccIDbv0P.s 			page 4


 172 0070 0323     		movs	r3, #3
 173 0072 2370     		strb	r3, [r4]
 174              	.LBE209:
 175              	.LBE208:
 176              		.loc 1 98 0
 177 0074 70BD     		pop	{r4, r5, r6, pc}
 178              	.LVL13:
 179              	.L8:
 180              	.LBB229:
 181              	.LBB226:
 182              		.loc 1 92 0
 183 0076 CB06     		lsls	r3, r1, #27
 184 0078 EAD5     		bpl	.L1
 185              		.loc 1 94 0
 186 007a 5368     		ldr	r3, [r2, #4]
 187 007c 002B     		cmp	r3, #0
 188 007e E7D0     		beq	.L1
 189              	.LBE226:
 190              	.LBE229:
 191              		.loc 1 98 0
 192 0080 BDE87040 		pop	{r4, r5, r6, lr}
 193              		.cfi_remember_state
 194              		.cfi_restore 14
 195              		.cfi_restore 6
 196              		.cfi_restore 5
 197              		.cfi_restore 4
 198              		.cfi_def_cfa_offset 0
 199              	.LBB230:
 200              	.LBB227:
 201              		.loc 1 94 0
 202 0084 1847     		bx	r3	@ indirect register sibling call
 203              	.LVL14:
 204              	.L9:
 205              		.cfi_restore_state
 206              	.LBB210:
 207              	.LBB211:
 208              		.loc 1 423 0
 209 0086 826A     		ldr	r2, [r0, #40]
 210 0088 5160     		str	r1, [r2, #4]
 211              		.loc 1 425 0
 212 008a 9168     		ldr	r1, [r2, #8]
 213              		.loc 1 426 0
 214 008c 0125     		movs	r5, #1
 215              		.loc 1 425 0
 216 008e 21F08041 		bic	r1, r1, #1073741824
 217 0092 9160     		str	r1, [r2, #8]
 218              		.loc 1 426 0
 219 0094 9560     		str	r5, [r2, #8]
 220              	.LVL15:
 221              	.LBE211:
 222              	.LBE210:
 223              		.loc 1 90 0
 224 0096 ABB1     		cbz	r3, .L11
 225 0098 0422     		movs	r2, #4
 226 009a 0270     		strb	r2, [r0]
 227 009c 9847     		blx	r3
 228              	.LVL16:
ARM GAS  /tmp/ccIDbv0P.s 			page 5


 229 009e 2378     		ldrb	r3, [r4]	@ zero_extendqisi2
 230 00a0 042B     		cmp	r3, #4
 231 00a2 0FD0     		beq	.L11
 232              	.L12:
 233              	.LVL17:
 234              	.LBB212:
 235              	.LBB213:
 236              	.LBB214:
 237              	.LBB215:
 238              	.LBB216:
 239              	.LBB217:
 240              		.loc 2 493 0
 241 00a4 2023     		movs	r3, #32
 242              		.syntax unified
 243              	@ 493 "./RM18A-ChibiOS18-Core/chibios/os/common/ext/ARM/CMSIS/Core/Include/cmsis_gcc.h" 1
 244 00a6 83F31188 		MSR basepri, r3
 245              	@ 0 "" 2
 246              	.LVL18:
 247              		.thumb
 248              		.syntax unified
 249              	.LBE217:
 250              	.LBE216:
 251              	.LBE215:
 252              	.LBE214:
 253              	.LBE213:
 254              	.LBE212:
 255              	.LBB218:
 256              	.LBB219:
 257              		.loc 3 775 0
 258 00aa 0021     		movs	r1, #0
 259 00ac 04F11400 		add	r0, r4, #20
 260              	.LVL19:
 261 00b0 FFF7FEFF 		bl	chThdResumeI
 262              	.LVL20:
 263              	.LBE219:
 264              	.LBE218:
 265              	.LBB220:
 266              	.LBB221:
 267              	.LBB222:
 268              	.LBB223:
 269              	.LBB224:
 270              	.LBB225:
 271              		.loc 2 493 0
 272 00b4 0023     		movs	r3, #0
 273              		.syntax unified
 274              	@ 493 "./RM18A-ChibiOS18-Core/chibios/os/common/ext/ARM/CMSIS/Core/Include/cmsis_gcc.h" 1
 275 00b6 83F31188 		MSR basepri, r3
 276              	@ 0 "" 2
 277              	.LVL21:
 278              		.thumb
 279              		.syntax unified
 280              	.LBE225:
 281              	.LBE224:
 282              	.LBE223:
 283              	.LBE222:
 284              	.LBE221:
 285              	.LBE220:
ARM GAS  /tmp/ccIDbv0P.s 			page 6


 286              	.LBE227:
 287              	.LBE230:
 288              		.loc 1 98 0
 289 00ba 70BD     		pop	{r4, r5, r6, pc}
 290              	.LVL22:
 291              	.L3:
 292              		.loc 1 81 0 discriminator 2
 293 00bc 0223     		movs	r3, #2
 294 00be 0561     		str	r5, [r0, #16]
 295 00c0 0370     		strb	r3, [r0]
 296 00c2 B9E7     		b	.L5
 297              	.LVL23:
 298              	.L11:
 299              	.LBB231:
 300              	.LBB228:
 301              		.loc 1 90 0
 302 00c4 0222     		movs	r2, #2
 303 00c6 0023     		movs	r3, #0
 304 00c8 2270     		strb	r2, [r4]
 305 00ca 2361     		str	r3, [r4, #16]
 306 00cc EAE7     		b	.L12
 307              	.LBE228:
 308              	.LBE231:
 309              		.cfi_endproc
 310              	.LFE327:
 311              		.size	adc_lld_serve_rx_interrupt, .-adc_lld_serve_rx_interrupt
 312 00ce 00BF     		.section	.text.Vector88,"ax",%progbits
 313              		.align	1
 314              		.p2align 2,,3
 315              		.global	Vector88
 316              		.syntax unified
 317              		.thumb
 318              		.thumb_func
 319              		.fpu fpv4-sp-d16
 320              		.type	Vector88, %function
 321              	Vector88:
 322              	.LFB328:
 323              		.loc 1 111 0
 324              		.cfi_startproc
 325              		@ args = 0, pretend = 0, frame = 0
 326              		@ frame_needed = 0, uses_anonymous_args = 0
 327              		.loc 1 117 0
 328 0000 344A     		ldr	r2, .L52
 329              		.loc 1 111 0
 330 0002 70B5     		push	{r4, r5, r6, lr}
 331              		.cfi_def_cfa_offset 16
 332              		.cfi_offset 4, -16
 333              		.cfi_offset 5, -12
 334              		.cfi_offset 6, -8
 335              		.cfi_offset 14, -4
 336              		.loc 1 117 0
 337 0004 1568     		ldr	r5, [r2]
 338              	.LVL24:
 339              		.loc 1 118 0
 340 0006 0021     		movs	r1, #0
 341              		.loc 1 121 0
 342 0008 AB06     		lsls	r3, r5, #26
ARM GAS  /tmp/ccIDbv0P.s 			page 7


 343              		.loc 1 118 0
 344 000a 1160     		str	r1, [r2]
 345              		.loc 1 121 0
 346 000c 2CD4     		bmi	.L28
 347 000e 05F00105 		and	r5, r5, #1
 348              	.LVL25:
 349              	.L29:
 350              		.loc 1 127 0
 351 0012 2DB3     		cbz	r5, .L37
 352              	.L51:
 353              		.loc 1 128 0
 354 0014 304C     		ldr	r4, .L52+4
 355 0016 2269     		ldr	r2, [r4, #16]
 356 0018 12B3     		cbz	r2, .L37
 357              	.LVL26:
 358              	.LBB232:
 359              	.LBB233:
 360              		.loc 1 423 0
 361 001a A36A     		ldr	r3, [r4, #40]
 362              	.LBE233:
 363              	.LBE232:
 364              		.loc 1 129 0
 365 001c 9568     		ldr	r5, [r2, #8]
 366              	.LBB235:
 367              	.LBB234:
 368              		.loc 1 423 0
 369 001e 0022     		movs	r2, #0
 370 0020 5A60     		str	r2, [r3, #4]
 371              		.loc 1 425 0
 372 0022 9A68     		ldr	r2, [r3, #8]
 373              		.loc 1 426 0
 374 0024 0121     		movs	r1, #1
 375              		.loc 1 425 0
 376 0026 22F08042 		bic	r2, r2, #1073741824
 377 002a 9A60     		str	r2, [r3, #8]
 378              		.loc 1 426 0
 379 002c 9960     		str	r1, [r3, #8]
 380              	.LVL27:
 381              	.LBE234:
 382              	.LBE235:
 383              		.loc 1 129 0
 384 002e 002D     		cmp	r5, #0
 385 0030 48D0     		beq	.L34
 386              		.loc 1 129 0 is_stmt 0 discriminator 1
 387 0032 0523     		movs	r3, #5
 388 0034 2370     		strb	r3, [r4]
 389 0036 0221     		movs	r1, #2
 390 0038 2046     		mov	r0, r4
 391 003a A847     		blx	r5
 392              	.LVL28:
 393 003c 2378     		ldrb	r3, [r4]	@ zero_extendqisi2
 394 003e 052B     		cmp	r3, #5
 395 0040 04BF     		itt	eq
 396 0042 0223     		moveq	r3, #2
 397 0044 2370     		strbeq	r3, [r4]
 398 0046 0023     		movs	r3, #0
 399 0048 2361     		str	r3, [r4, #16]
ARM GAS  /tmp/ccIDbv0P.s 			page 8


 400              	.L36:
 401              	.LVL29:
 402              	.LBB236:
 403              	.LBB237:
 404              	.LBB238:
 405              	.LBB239:
 406              	.LBB240:
 407              	.LBB241:
 408              		.loc 2 493 0 is_stmt 1 discriminator 7
 409 004a 2023     		movs	r3, #32
 410              		.syntax unified
 411              	@ 493 "./RM18A-ChibiOS18-Core/chibios/os/common/ext/ARM/CMSIS/Core/Include/cmsis_gcc.h" 1
 412 004c 83F31188 		MSR basepri, r3
 413              	@ 0 "" 2
 414              	.LVL30:
 415              		.thumb
 416              		.syntax unified
 417              	.LBE241:
 418              	.LBE240:
 419              	.LBE239:
 420              	.LBE238:
 421              	.LBE237:
 422              	.LBE236:
 423              	.LBB242:
 424              	.LBB243:
 425              		.loc 3 775 0 discriminator 7
 426 0050 4FF0FF31 		mov	r1, #-1
 427 0054 2148     		ldr	r0, .L52+8
 428 0056 FFF7FEFF 		bl	chThdResumeI
 429              	.LVL31:
 430              	.LBE243:
 431              	.LBE242:
 432              	.LBB244:
 433              	.LBB245:
 434              	.LBB246:
 435              	.LBB247:
 436              	.LBB248:
 437              	.LBB249:
 438              		.loc 2 493 0 discriminator 7
 439 005a 0023     		movs	r3, #0
 440              		.syntax unified
 441              	@ 493 "./RM18A-ChibiOS18-Core/chibios/os/common/ext/ARM/CMSIS/Core/Include/cmsis_gcc.h" 1
 442 005c 83F31188 		MSR basepri, r3
 443              	@ 0 "" 2
 444              	.LVL32:
 445              		.thumb
 446              		.syntax unified
 447              	.L37:
 448              	.LBE249:
 449              	.LBE248:
 450              	.LBE247:
 451              	.LBE246:
 452              	.LBE245:
 453              	.LBE244:
 454              		.loc 1 180 0
 455 0060 BDE87040 		pop	{r4, r5, r6, lr}
 456              		.cfi_remember_state
ARM GAS  /tmp/ccIDbv0P.s 			page 9


 457              		.cfi_restore 14
 458              		.cfi_restore 6
 459              		.cfi_restore 5
 460              		.cfi_restore 4
 461              		.cfi_def_cfa_offset 0
 462              		.loc 1 179 0
 463 0064 FFF7FEBF 		b	_port_irq_epilogue
 464              	.LVL33:
 465              	.L28:
 466              		.cfi_restore_state
 467              		.loc 1 121 0 discriminator 1
 468 0068 1B4C     		ldr	r4, .L52+4
 469 006a E26A     		ldr	r2, [r4, #44]
 470 006c 1268     		ldr	r2, [r2]
 471 006e 5268     		ldr	r2, [r2, #4]
 472 0070 05F00105 		and	r5, r5, #1
 473              	.LVL34:
 474 0074 002A     		cmp	r2, #0
 475 0076 CCD0     		beq	.L29
 476              		.loc 1 124 0
 477 0078 2269     		ldr	r2, [r4, #16]
 478 007a 002A     		cmp	r2, #0
 479 007c F0D0     		beq	.L37
 480              	.LVL35:
 481              	.LBB250:
 482              	.LBB251:
 483              		.loc 1 423 0
 484 007e A36A     		ldr	r3, [r4, #40]
 485              	.LBE251:
 486              	.LBE250:
 487              		.loc 1 125 0
 488 0080 9668     		ldr	r6, [r2, #8]
 489              	.LBB253:
 490              	.LBB252:
 491              		.loc 1 423 0
 492 0082 5960     		str	r1, [r3, #4]
 493              		.loc 1 425 0
 494 0084 9A68     		ldr	r2, [r3, #8]
 495              		.loc 1 426 0
 496 0086 0121     		movs	r1, #1
 497              		.loc 1 425 0
 498 0088 22F08042 		bic	r2, r2, #1073741824
 499 008c 9A60     		str	r2, [r3, #8]
 500              		.loc 1 426 0
 501 008e 9960     		str	r1, [r3, #8]
 502              	.LVL36:
 503              	.LBE252:
 504              	.LBE253:
 505              		.loc 1 125 0
 506 0090 E6B1     		cbz	r6, .L31
 507              		.loc 1 125 0 is_stmt 0 discriminator 1
 508 0092 0523     		movs	r3, #5
 509 0094 2370     		strb	r3, [r4]
 510 0096 2046     		mov	r0, r4
 511 0098 B047     		blx	r6
 512              	.LVL37:
 513 009a 2378     		ldrb	r3, [r4]	@ zero_extendqisi2
ARM GAS  /tmp/ccIDbv0P.s 			page 10


 514 009c 052B     		cmp	r3, #5
 515 009e 04BF     		itt	eq
 516 00a0 0223     		moveq	r3, #2
 517 00a2 2370     		strbeq	r3, [r4]
 518 00a4 0023     		movs	r3, #0
 519 00a6 2361     		str	r3, [r4, #16]
 520              	.L33:
 521              	.LVL38:
 522              	.LBB254:
 523              	.LBB255:
 524              	.LBB256:
 525              	.LBB257:
 526              	.LBB258:
 527              	.LBB259:
 528              		.loc 2 493 0 is_stmt 1 discriminator 7
 529 00a8 2023     		movs	r3, #32
 530              		.syntax unified
 531              	@ 493 "./RM18A-ChibiOS18-Core/chibios/os/common/ext/ARM/CMSIS/Core/Include/cmsis_gcc.h" 1
 532 00aa 83F31188 		MSR basepri, r3
 533              	@ 0 "" 2
 534              	.LVL39:
 535              		.thumb
 536              		.syntax unified
 537              	.LBE259:
 538              	.LBE258:
 539              	.LBE257:
 540              	.LBE256:
 541              	.LBE255:
 542              	.LBE254:
 543              	.LBB260:
 544              	.LBB261:
 545              		.loc 3 775 0 discriminator 7
 546 00ae 4FF0FF31 		mov	r1, #-1
 547 00b2 0A48     		ldr	r0, .L52+8
 548 00b4 FFF7FEFF 		bl	chThdResumeI
 549              	.LVL40:
 550              	.LBE261:
 551              	.LBE260:
 552              	.LBB262:
 553              	.LBB263:
 554              	.LBB264:
 555              	.LBB265:
 556              	.LBB266:
 557              	.LBB267:
 558              		.loc 2 493 0 discriminator 7
 559 00b8 0023     		movs	r3, #0
 560              		.syntax unified
 561              	@ 493 "./RM18A-ChibiOS18-Core/chibios/os/common/ext/ARM/CMSIS/Core/Include/cmsis_gcc.h" 1
 562 00ba 83F31188 		MSR basepri, r3
 563              	@ 0 "" 2
 564              	.LVL41:
 565              		.thumb
 566              		.syntax unified
 567              	.LBE267:
 568              	.LBE266:
 569              	.LBE265:
 570              	.LBE264:
ARM GAS  /tmp/ccIDbv0P.s 			page 11


 571              	.LBE263:
 572              	.LBE262:
 573              		.loc 1 127 0 discriminator 7
 574 00be 002D     		cmp	r5, #0
 575 00c0 A8D1     		bne	.L51
 576 00c2 CDE7     		b	.L37
 577              	.L34:
 578              		.loc 1 129 0 discriminator 2
 579 00c4 0223     		movs	r3, #2
 580 00c6 2561     		str	r5, [r4, #16]
 581 00c8 2370     		strb	r3, [r4]
 582 00ca BEE7     		b	.L36
 583              	.L31:
 584              		.loc 1 125 0 discriminator 2
 585 00cc 0223     		movs	r3, #2
 586 00ce 2661     		str	r6, [r4, #16]
 587 00d0 2370     		strb	r3, [r4]
 588 00d2 E9E7     		b	.L33
 589              	.L53:
 590              		.align	2
 591              	.L52:
 592 00d4 00200140 		.word	1073815552
 593 00d8 00000000 		.word	.LANCHOR0
 594 00dc 14000000 		.word	.LANCHOR0+20
 595              		.cfi_endproc
 596              	.LFE328:
 597              		.size	Vector88, .-Vector88
 598              		.section	.text.adc_lld_init,"ax",%progbits
 599              		.align	1
 600              		.p2align 2,,3
 601              		.global	adc_lld_init
 602              		.syntax unified
 603              		.thumb
 604              		.thumb_func
 605              		.fpu fpv4-sp-d16
 606              		.type	adc_lld_init, %function
 607              	adc_lld_init:
 608              	.LFB329:
 609              		.loc 1 192 0
 610              		.cfi_startproc
 611              		@ args = 0, pretend = 0, frame = 0
 612              		@ frame_needed = 0, uses_anonymous_args = 0
 613 0000 10B5     		push	{r4, lr}
 614              		.cfi_def_cfa_offset 8
 615              		.cfi_offset 4, -8
 616              		.cfi_offset 14, -4
 617              		.loc 1 196 0
 618 0002 084C     		ldr	r4, .L56
 619 0004 2046     		mov	r0, r4
 620 0006 FFF7FEFF 		bl	adcObjectInit
 621              	.LVL42:
 622              		.loc 1 197 0
 623 000a 074A     		ldr	r2, .L56+4
 624              		.loc 1 199 0
 625 000c 074B     		ldr	r3, .L56+8
 626              		.loc 1 197 0
 627 000e A262     		str	r2, [r4, #40]
ARM GAS  /tmp/ccIDbv0P.s 			page 12


 628              		.loc 1 198 0
 629 0010 0022     		movs	r2, #0
 630              		.loc 1 199 0
 631 0012 C4E90B23 		strd	r2, r3, [r4, #44]
 632              		.loc 1 235 0
 633 0016 0621     		movs	r1, #6
 634 0018 1220     		movs	r0, #18
 635              		.loc 1 236 0
 636 001a BDE81040 		pop	{r4, lr}
 637              		.cfi_restore 14
 638              		.cfi_restore 4
 639              		.cfi_def_cfa_offset 0
 640              		.loc 1 235 0
 641 001e FFF7FEBF 		b	nvicEnableVector
 642              	.LVL43:
 643              	.L57:
 644 0022 00BF     		.align	2
 645              	.L56:
 646 0024 00000000 		.word	.LANCHOR0
 647 0028 00200140 		.word	1073815552
 648 002c 162C0200 		.word	142358
 649              		.cfi_endproc
 650              	.LFE329:
 651              		.size	adc_lld_init, .-adc_lld_init
 652              		.section	.text.adc_lld_start,"ax",%progbits
 653              		.align	1
 654              		.p2align 2,,3
 655              		.global	adc_lld_start
 656              		.syntax unified
 657              		.thumb
 658              		.thumb_func
 659              		.fpu fpv4-sp-d16
 660              		.type	adc_lld_start, %function
 661              	adc_lld_start:
 662              	.LFB330:
 663              		.loc 1 245 0
 664              		.cfi_startproc
 665              		@ args = 0, pretend = 0, frame = 0
 666              		@ frame_needed = 0, uses_anonymous_args = 0
 667              	.LVL44:
 668              		.loc 1 248 0
 669 0000 0378     		ldrb	r3, [r0]	@ zero_extendqisi2
 670 0002 012B     		cmp	r3, #1
 671 0004 00D0     		beq	.L69
 672 0006 7047     		bx	lr
 673              	.L69:
 674              		.loc 1 250 0
 675 0008 154B     		ldr	r3, .L72
 676 000a 9842     		cmp	r0, r3
 677              		.loc 1 245 0
 678 000c 10B5     		push	{r4, lr}
 679              		.cfi_def_cfa_offset 8
 680              		.cfi_offset 4, -8
 681              		.cfi_offset 14, -4
 682 000e 0446     		mov	r4, r0
 683              		.loc 1 250 0
 684 0010 0DD0     		beq	.L70
ARM GAS  /tmp/ccIDbv0P.s 			page 13


 685              	.LVL45:
 686              	.L60:
 687              		.loc 1 296 0
 688 0012 1448     		ldr	r0, .L72+4
 689              		.loc 1 301 0
 690 0014 A26A     		ldr	r2, [r4, #40]
 691              		.loc 1 296 0
 692 0016 4368     		ldr	r3, [r0, #4]
 693 0018 03F44003 		and	r3, r3, #12582912
 694              		.loc 1 301 0
 695 001c 0021     		movs	r1, #0
 696              		.loc 1 296 0
 697 001e 43F48033 		orr	r3, r3, #65536
 698              		.loc 1 303 0
 699 0022 0124     		movs	r4, #1
 700              	.LVL46:
 701              		.loc 1 296 0
 702 0024 4360     		str	r3, [r0, #4]
 703              		.loc 1 301 0
 704 0026 5160     		str	r1, [r2, #4]
 705              		.loc 1 302 0
 706 0028 9160     		str	r1, [r2, #8]
 707              		.loc 1 303 0
 708 002a 9460     		str	r4, [r2, #8]
 709              		.loc 1 305 0
 710 002c 10BD     		pop	{r4, pc}
 711              	.LVL47:
 712              	.L70:
 713              		.loc 1 251 0
 714 002e 4368     		ldr	r3, [r0, #4]
 715 0030 1B78     		ldrb	r3, [r3]	@ zero_extendqisi2
 716 0032 53B9     		cbnz	r3, .L71
 717              	.LVL48:
 718              	.L61:
 719              		.loc 1 260 0
 720 0034 0C4B     		ldr	r3, .L72+8
 721 0036 5A6C     		ldr	r2, [r3, #68]
 722 0038 42F48072 		orr	r2, r2, #256
 723 003c 5A64     		str	r2, [r3, #68]
 724 003e 5A6E     		ldr	r2, [r3, #100]
 725 0040 42F48072 		orr	r2, r2, #256
 726 0044 5A66     		str	r2, [r3, #100]
 727 0046 5B6E     		ldr	r3, [r3, #100]
 728 0048 E3E7     		b	.L60
 729              	.LVL49:
 730              	.L71:
 731              		.loc 1 253 0
 732 004a 0346     		mov	r3, r0
 733 004c 074A     		ldr	r2, .L72+12
 734 004e 0621     		movs	r1, #6
 735 0050 0C20     		movs	r0, #12
 736              	.LVL50:
 737 0052 FFF7FEFF 		bl	dmaStreamAllocI
 738              	.LVL51:
 739              		.loc 1 258 0
 740 0056 0368     		ldr	r3, [r0]
 741 0058 054A     		ldr	r2, .L72+16
ARM GAS  /tmp/ccIDbv0P.s 			page 14


 742              		.loc 1 253 0
 743 005a E062     		str	r0, [r4, #44]
 744              		.loc 1 258 0
 745 005c 9A60     		str	r2, [r3, #8]
 746 005e E9E7     		b	.L61
 747              	.L73:
 748              		.align	2
 749              	.L72:
 750 0060 00000000 		.word	.LANCHOR0
 751 0064 00230140 		.word	1073816320
 752 0068 00380240 		.word	1073887232
 753 006c 00000000 		.word	adc_lld_serve_rx_interrupt
 754 0070 4C200140 		.word	1073815628
 755              		.cfi_endproc
 756              	.LFE330:
 757              		.size	adc_lld_start, .-adc_lld_start
 758              		.section	.text.adc_lld_stop,"ax",%progbits
 759              		.align	1
 760              		.p2align 2,,3
 761              		.global	adc_lld_stop
 762              		.syntax unified
 763              		.thumb
 764              		.thumb_func
 765              		.fpu fpv4-sp-d16
 766              		.type	adc_lld_stop, %function
 767              	adc_lld_stop:
 768              	.LFB331:
 769              		.loc 1 314 0
 770              		.cfi_startproc
 771              		@ args = 0, pretend = 0, frame = 0
 772              		@ frame_needed = 0, uses_anonymous_args = 0
 773              	.LVL52:
 774              		.loc 1 317 0
 775 0000 0378     		ldrb	r3, [r0]	@ zero_extendqisi2
 776 0002 022B     		cmp	r3, #2
 777 0004 00D0     		beq	.L86
 778 0006 7047     		bx	lr
 779              	.L86:
 780              		.loc 1 318 0
 781 0008 4368     		ldr	r3, [r0, #4]
 782 000a 1B78     		ldrb	r3, [r3]	@ zero_extendqisi2
 783              		.loc 1 314 0
 784 000c 10B5     		push	{r4, lr}
 785              		.cfi_def_cfa_offset 8
 786              		.cfi_offset 4, -8
 787              		.cfi_offset 14, -4
 788 000e 0446     		mov	r4, r0
 789              		.loc 1 318 0
 790 0010 9BB9     		cbnz	r3, .L87
 791              	.LVL53:
 792              	.L77:
 793              		.loc 1 328 0
 794 0012 0C49     		ldr	r1, .L89
 795              		.loc 1 324 0
 796 0014 A26A     		ldr	r2, [r4, #40]
 797              		.loc 1 322 0
 798 0016 0023     		movs	r3, #0
ARM GAS  /tmp/ccIDbv0P.s 			page 15


 799              		.loc 1 328 0
 800 0018 8C42     		cmp	r4, r1
 801              		.loc 1 322 0
 802 001a E362     		str	r3, [r4, #44]
 803              		.loc 1 324 0
 804 001c 5360     		str	r3, [r2, #4]
 805              		.loc 1 325 0
 806 001e 9360     		str	r3, [r2, #8]
 807              		.loc 1 328 0
 808 0020 00D0     		beq	.L88
 809              		.loc 1 342 0
 810 0022 10BD     		pop	{r4, pc}
 811              	.LVL54:
 812              	.L88:
 813              		.loc 1 329 0
 814 0024 084B     		ldr	r3, .L89+4
 815 0026 5A6C     		ldr	r2, [r3, #68]
 816 0028 22F48072 		bic	r2, r2, #256
 817 002c 5A64     		str	r2, [r3, #68]
 818 002e 5A6E     		ldr	r2, [r3, #100]
 819 0030 22F48072 		bic	r2, r2, #256
 820 0034 5A66     		str	r2, [r3, #100]
 821 0036 5B6E     		ldr	r3, [r3, #100]
 822              		.loc 1 342 0
 823 0038 10BD     		pop	{r4, pc}
 824              	.LVL55:
 825              	.L87:
 826              		.loc 1 320 0
 827 003a C06A     		ldr	r0, [r0, #44]
 828              	.LVL56:
 829 003c FFF7FEFF 		bl	dmaStreamFreeI
 830              	.LVL57:
 831 0040 E7E7     		b	.L77
 832              	.L90:
 833 0042 00BF     		.align	2
 834              	.L89:
 835 0044 00000000 		.word	.LANCHOR0
 836 0048 00380240 		.word	1073887232
 837              		.cfi_endproc
 838              	.LFE331:
 839              		.size	adc_lld_stop, .-adc_lld_stop
 840              		.section	.text.adc_lld_start_conversion,"ax",%progbits
 841              		.align	1
 842              		.p2align 2,,3
 843              		.global	adc_lld_start_conversion
 844              		.syntax unified
 845              		.thumb
 846              		.thumb_func
 847              		.fpu fpv4-sp-d16
 848              		.type	adc_lld_start_conversion, %function
 849              	adc_lld_start_conversion:
 850              	.LFB332:
 851              		.loc 1 351 0
 852              		.cfi_startproc
 853              		@ args = 0, pretend = 0, frame = 0
 854              		@ frame_needed = 0, uses_anonymous_args = 0
 855              		@ link register save eliminated.
ARM GAS  /tmp/ccIDbv0P.s 			page 16


 856              	.LVL58:
 857              		.loc 1 356 0
 858 0000 4268     		ldr	r2, [r0, #4]
 859              		.loc 1 354 0
 860 0002 0369     		ldr	r3, [r0, #16]
 861              	.LVL59:
 862              		.loc 1 351 0
 863 0004 F0B4     		push	{r4, r5, r6, r7}
 864              		.cfi_def_cfa_offset 16
 865              		.cfi_offset 4, -16
 866              		.cfi_offset 5, -12
 867              		.cfi_offset 6, -8
 868              		.cfi_offset 7, -4
 869              		.loc 1 356 0
 870 0006 1578     		ldrb	r5, [r2]	@ zero_extendqisi2
 871 0008 5C88     		ldrh	r4, [r3, #2]
 872 000a 85B1     		cbz	r5, .L92
 873              		.loc 1 360 0
 874 000c 1A78     		ldrb	r2, [r3]	@ zero_extendqisi2
 875              		.loc 1 359 0
 876 000e 076B     		ldr	r7, [r0, #48]
 877              	.LVL60:
 878 0010 C168     		ldr	r1, [r0, #12]
 879              		.loc 1 360 0
 880 0012 002A     		cmp	r2, #0
 881 0014 42D1     		bne	.L106
 882              	.L93:
 883              		.loc 1 368 0
 884 0016 C26A     		ldr	r2, [r0, #44]
 885 0018 8668     		ldr	r6, [r0, #8]
 886 001a 1268     		ldr	r2, [r2]
 887              		.loc 1 369 0
 888 001c 01FB04F1 		mul	r1, r1, r4
 889              		.loc 1 368 0
 890 0020 D660     		str	r6, [r2, #12]
 891              		.loc 1 369 0
 892 0022 5160     		str	r1, [r2, #4]
 893              		.loc 1 371 0
 894 0024 1760     		str	r7, [r2]
 895              		.loc 1 372 0
 896 0026 1168     		ldr	r1, [r2]
 897 0028 41F00101 		orr	r1, r1, #1
 898 002c 1160     		str	r1, [r2]
 899              	.LVL61:
 900              	.L92:
 901              		.loc 1 376 0
 902 002e 826A     		ldr	r2, [r0, #40]
 903              		.loc 1 381 0
 904 0030 186A     		ldr	r0, [r3, #32]
 905              	.LVL62:
 906              		.loc 1 386 0
 907 0032 D968     		ldr	r1, [r3, #12]
 908              		.loc 1 381 0
 909 0034 013C     		subs	r4, r4, #1
 910              		.loc 1 376 0
 911 0036 0026     		movs	r6, #0
 912              		.loc 1 381 0
ARM GAS  /tmp/ccIDbv0P.s 			page 17


 913 0038 40EA0454 		orr	r4, r0, r4, lsl #20
 914              		.loc 1 377 0
 915 003c 5869     		ldr	r0, [r3, #20]
 916              		.loc 1 376 0
 917 003e 1660     		str	r6, [r2]
 918              		.loc 1 377 0
 919 0040 D060     		str	r0, [r2, #12]
 920              		.loc 1 378 0
 921 0042 9869     		ldr	r0, [r3, #24]
 922 0044 1061     		str	r0, [r2, #16]
 923              		.loc 1 379 0
 924 0046 988B     		ldrh	r0, [r3, #28]
 925 0048 5062     		str	r0, [r2, #36]
 926              		.loc 1 386 0
 927 004a 41F08061 		orr	r1, r1, #67108864
 928              		.loc 1 380 0
 929 004e D88B     		ldrh	r0, [r3, #30]
 930 0050 9062     		str	r0, [r2, #40]
 931              		.loc 1 382 0
 932 0052 5E6A     		ldr	r6, [r3, #36]
 933              		.loc 1 383 0
 934 0054 986A     		ldr	r0, [r3, #40]
 935              		.loc 1 381 0
 936 0056 D462     		str	r4, [r2, #44]
 937              		.loc 1 386 0
 938 0058 41F48071 		orr	r1, r1, #256
 939              		.loc 1 382 0
 940 005c 1663     		str	r6, [r2, #48]
 941 005e 1B69     		ldr	r3, [r3, #16]
 942              	.LVL63:
 943              		.loc 1 383 0
 944 0060 5063     		str	r0, [r2, #52]
 945              		.loc 1 386 0
 946 0062 5160     		str	r1, [r2, #4]
 947              		.loc 1 389 0
 948 0064 45B1     		cbz	r5, .L95
 949              		.loc 1 391 0
 950 0066 43F44073 		orr	r3, r3, #768
 951 006a 43F00103 		orr	r3, r3, #1
 952              	.LVL64:
 953              		.loc 1 399 0
 954 006e 5900     		lsls	r1, r3, #1
 955 0070 08D4     		bmi	.L107
 956              	.L97:
 957              		.loc 1 407 0
 958 0072 9360     		str	r3, [r2, #8]
 959              		.loc 1 408 0
 960 0074 F0BC     		pop	{r4, r5, r6, r7}
 961              		.cfi_remember_state
 962              		.cfi_restore 7
 963              		.cfi_restore 6
 964              		.cfi_restore 5
 965              		.cfi_restore 4
 966              		.cfi_def_cfa_offset 0
 967 0076 7047     		bx	lr
 968              	.LVL65:
 969              	.L95:
ARM GAS  /tmp/ccIDbv0P.s 			page 18


 970              		.cfi_restore_state
 971              		.loc 1 394 0
 972 0078 43F40073 		orr	r3, r3, #512
 973 007c 43F00103 		orr	r3, r3, #1
 974              	.LVL66:
 975              		.loc 1 399 0
 976 0080 5900     		lsls	r1, r3, #1
 977 0082 F6D5     		bpl	.L97
 978              	.L107:
 979              		.loc 1 401 0
 980 0084 23F08041 		bic	r1, r3, #1073741824
 981 0088 21F00201 		bic	r1, r1, #2
 982 008c 41F00201 		orr	r1, r1, #2
 983              		.loc 1 404 0
 984 0090 43F00203 		orr	r3, r3, #2
 985              	.LVL67:
 986              		.loc 1 401 0
 987 0094 9160     		str	r1, [r2, #8]
 988              		.loc 1 408 0
 989 0096 F0BC     		pop	{r4, r5, r6, r7}
 990              		.cfi_remember_state
 991              		.cfi_restore 7
 992              		.cfi_restore 6
 993              		.cfi_restore 5
 994              		.cfi_restore 4
 995              		.cfi_def_cfa_offset 0
 996              		.loc 1 404 0
 997 0098 9360     		str	r3, [r2, #8]
 998              		.loc 1 408 0
 999 009a 7047     		bx	lr
 1000              	.LVL68:
 1001              	.L106:
 1002              		.cfi_restore_state
 1003              		.loc 1 362 0
 1004 009c 0129     		cmp	r1, #1
 1005              		.loc 1 361 0
 1006 009e 94BF     		ite	ls
 1007 00a0 47F48077 		orrls	r7, r7, #256
 1008              	.LVL69:
 1009              		.loc 1 365 0
 1010 00a4 47F48477 		orrhi	r7, r7, #264
 1011              	.LVL70:
 1012 00a8 B5E7     		b	.L93
 1013              		.cfi_endproc
 1014              	.LFE332:
 1015              		.size	adc_lld_start_conversion, .-adc_lld_start_conversion
 1016 00aa 00BF     		.section	.text.adc_lld_stop_conversion,"ax",%progbits
 1017              		.align	1
 1018              		.p2align 2,,3
 1019              		.global	adc_lld_stop_conversion
 1020              		.syntax unified
 1021              		.thumb
 1022              		.thumb_func
 1023              		.fpu fpv4-sp-d16
 1024              		.type	adc_lld_stop_conversion, %function
 1025              	adc_lld_stop_conversion:
 1026              	.LFB333:
ARM GAS  /tmp/ccIDbv0P.s 			page 19


 1027              		.loc 1 417 0
 1028              		.cfi_startproc
 1029              		@ args = 0, pretend = 0, frame = 0
 1030              		@ frame_needed = 0, uses_anonymous_args = 0
 1031              		@ link register save eliminated.
 1032              	.LVL71:
 1033              		.loc 1 423 0
 1034 0000 836A     		ldr	r3, [r0, #40]
 1035 0002 0022     		movs	r2, #0
 1036 0004 5A60     		str	r2, [r3, #4]
 1037              		.loc 1 425 0
 1038 0006 9A68     		ldr	r2, [r3, #8]
 1039              		.loc 1 426 0
 1040 0008 0121     		movs	r1, #1
 1041              		.loc 1 425 0
 1042 000a 22F08042 		bic	r2, r2, #1073741824
 1043 000e 9A60     		str	r2, [r3, #8]
 1044              		.loc 1 426 0
 1045 0010 9960     		str	r1, [r3, #8]
 1046              		.loc 1 427 0
 1047 0012 7047     		bx	lr
 1048              		.cfi_endproc
 1049              	.LFE333:
 1050              		.size	adc_lld_stop_conversion, .-adc_lld_stop_conversion
 1051              		.section	.text.adcSTM32EnableTSVREFE,"ax",%progbits
 1052              		.align	1
 1053              		.p2align 2,,3
 1054              		.global	adcSTM32EnableTSVREFE
 1055              		.syntax unified
 1056              		.thumb
 1057              		.thumb_func
 1058              		.fpu fpv4-sp-d16
 1059              		.type	adcSTM32EnableTSVREFE, %function
 1060              	adcSTM32EnableTSVREFE:
 1061              	.LFB334:
 1062              		.loc 1 435 0
 1063              		.cfi_startproc
 1064              		@ args = 0, pretend = 0, frame = 0
 1065              		@ frame_needed = 0, uses_anonymous_args = 0
 1066              		@ link register save eliminated.
 1067              		.loc 1 437 0
 1068 0000 024A     		ldr	r2, .L110
 1069 0002 5368     		ldr	r3, [r2, #4]
 1070 0004 43F40003 		orr	r3, r3, #8388608
 1071 0008 5360     		str	r3, [r2, #4]
 1072              		.loc 1 438 0
 1073 000a 7047     		bx	lr
 1074              	.L111:
 1075              		.align	2
 1076              	.L110:
 1077 000c 00230140 		.word	1073816320
 1078              		.cfi_endproc
 1079              	.LFE334:
 1080              		.size	adcSTM32EnableTSVREFE, .-adcSTM32EnableTSVREFE
 1081              		.section	.text.adcSTM32DisableTSVREFE,"ax",%progbits
 1082              		.align	1
 1083              		.p2align 2,,3
ARM GAS  /tmp/ccIDbv0P.s 			page 20


 1084              		.global	adcSTM32DisableTSVREFE
 1085              		.syntax unified
 1086              		.thumb
 1087              		.thumb_func
 1088              		.fpu fpv4-sp-d16
 1089              		.type	adcSTM32DisableTSVREFE, %function
 1090              	adcSTM32DisableTSVREFE:
 1091              	.LFB335:
 1092              		.loc 1 446 0
 1093              		.cfi_startproc
 1094              		@ args = 0, pretend = 0, frame = 0
 1095              		@ frame_needed = 0, uses_anonymous_args = 0
 1096              		@ link register save eliminated.
 1097              		.loc 1 448 0
 1098 0000 024A     		ldr	r2, .L113
 1099 0002 5368     		ldr	r3, [r2, #4]
 1100 0004 23F40003 		bic	r3, r3, #8388608
 1101 0008 5360     		str	r3, [r2, #4]
 1102              		.loc 1 449 0
 1103 000a 7047     		bx	lr
 1104              	.L114:
 1105              		.align	2
 1106              	.L113:
 1107 000c 00230140 		.word	1073816320
 1108              		.cfi_endproc
 1109              	.LFE335:
 1110              		.size	adcSTM32DisableTSVREFE, .-adcSTM32DisableTSVREFE
 1111              		.section	.text.adcSTM32EnableVBATE,"ax",%progbits
 1112              		.align	1
 1113              		.p2align 2,,3
 1114              		.global	adcSTM32EnableVBATE
 1115              		.syntax unified
 1116              		.thumb
 1117              		.thumb_func
 1118              		.fpu fpv4-sp-d16
 1119              		.type	adcSTM32EnableVBATE, %function
 1120              	adcSTM32EnableVBATE:
 1121              	.LFB336:
 1122              		.loc 1 457 0
 1123              		.cfi_startproc
 1124              		@ args = 0, pretend = 0, frame = 0
 1125              		@ frame_needed = 0, uses_anonymous_args = 0
 1126              		@ link register save eliminated.
 1127              		.loc 1 459 0
 1128 0000 024A     		ldr	r2, .L116
 1129 0002 5368     		ldr	r3, [r2, #4]
 1130 0004 43F48003 		orr	r3, r3, #4194304
 1131 0008 5360     		str	r3, [r2, #4]
 1132              		.loc 1 460 0
 1133 000a 7047     		bx	lr
 1134              	.L117:
 1135              		.align	2
 1136              	.L116:
 1137 000c 00230140 		.word	1073816320
 1138              		.cfi_endproc
 1139              	.LFE336:
 1140              		.size	adcSTM32EnableVBATE, .-adcSTM32EnableVBATE
ARM GAS  /tmp/ccIDbv0P.s 			page 21


 1141              		.section	.text.adcSTM32DisableVBATE,"ax",%progbits
 1142              		.align	1
 1143              		.p2align 2,,3
 1144              		.global	adcSTM32DisableVBATE
 1145              		.syntax unified
 1146              		.thumb
 1147              		.thumb_func
 1148              		.fpu fpv4-sp-d16
 1149              		.type	adcSTM32DisableVBATE, %function
 1150              	adcSTM32DisableVBATE:
 1151              	.LFB337:
 1152              		.loc 1 468 0
 1153              		.cfi_startproc
 1154              		@ args = 0, pretend = 0, frame = 0
 1155              		@ frame_needed = 0, uses_anonymous_args = 0
 1156              		@ link register save eliminated.
 1157              		.loc 1 470 0
 1158 0000 024A     		ldr	r2, .L119
 1159 0002 5368     		ldr	r3, [r2, #4]
 1160 0004 23F48003 		bic	r3, r3, #4194304
 1161 0008 5360     		str	r3, [r2, #4]
 1162              		.loc 1 471 0
 1163 000a 7047     		bx	lr
 1164              	.L120:
 1165              		.align	2
 1166              	.L119:
 1167 000c 00230140 		.word	1073816320
 1168              		.cfi_endproc
 1169              	.LFE337:
 1170              		.size	adcSTM32DisableVBATE, .-adcSTM32DisableVBATE
 1171              		.global	ADCD1
 1172              		.section	.bss.ADCD1,"aw",%nobits
 1173              		.align	2
 1174              		.set	.LANCHOR0,. + 0
 1175              		.type	ADCD1, %object
 1176              		.size	ADCD1, 52
 1177              	ADCD1:
 1178 0000 00000000 		.space	52
 1178      00000000 
 1178      00000000 
 1178      00000000 
 1178      00000000 
 1179              		.text
 1180              	.Letext0:
 1181              		.file 4 "/usr/lib/gcc/arm-none-eabi/7.3.1/include/stddef.h"
 1182              		.file 5 "/usr/arm-none-eabi/include/machine/_default_types.h"
 1183              		.file 6 "/usr/arm-none-eabi/include/sys/_stdint.h"
 1184              		.file 7 "./RM18A-ChibiOS18-Core/chibios/os/common/ports/ARMCMx/compilers/GCC/chtypes.h"
 1185              		.file 8 "./RM18A-ChibiOS18-Core/chibios/os/rt/include/chsystypes.h"
 1186              		.file 9 "./RM18A-ChibiOS18-Core/chibios/os/rt/include/chschd.h"
 1187              		.file 10 "./RM18A-ChibiOS18-Core/chibios/os/rt/include/chtime.h"
 1188              		.file 11 "./RM18A-ChibiOS18-Core/chibios/os/common/ext/ARM/CMSIS/Core/Include/core_cm4.h"
 1189              		.file 12 "./RM18A-ChibiOS18-Core/chibios/os/common/ext/ST/STM32F4xx/system_stm32f4xx.h"
 1190              		.file 13 "./RM18A-ChibiOS18-Core/chibios/os/common/ext/ST/STM32F4xx/stm32f427xx.h"
 1191              		.file 14 "./RM18A-ChibiOS18-Core/chibios/os/common/ports/ARMCMx/chcore.h"
 1192              		.file 15 "./RM18A-ChibiOS18-Core/chibios/os/common/ports/ARMCMx/chcore_v7m.h"
 1193              		.file 16 "./RM18A-ChibiOS18-Core/chibios/os/hal/ports/STM32/LLD/TIMv1/stm32_tim.h"
ARM GAS  /tmp/ccIDbv0P.s 			page 22


 1194              		.file 17 "./RM18A-ChibiOS18-Core/chibios/os/rt/include/chtm.h"
 1195              		.file 18 "./RM18A-ChibiOS18-Core/chibios/os/rt/include/chsem.h"
 1196              		.file 19 "./RM18A-ChibiOS18-Core/chibios/os/rt/include/chmtx.h"
 1197              		.file 20 "./RM18A-ChibiOS18-Core/chibios/os/rt/include/chsys.h"
 1198              		.file 21 "./RM18A-ChibiOS18-Core/chibios/os/rt/include/chregistry.h"
 1199              		.file 22 "./RM18A-ChibiOS18-Core/chibios/os/rt/include/chevents.h"
 1200              		.file 23 "./RM18A-ChibiOS18-Core/chibios/os/oslib/include/chmemcore.h"
 1201              		.file 24 "./RM18A-ChibiOS18-Core/chibios/os/oslib/include/chmempools.h"
 1202              		.file 25 "./RM18A-ChibiOS18-Core/chibios/os/oslib/include/chfactory.h"
 1203              		.file 26 "./RM18A-ChibiOS18-Core/chibios/os/hal/ports/STM32/LLD/DMAv2/stm32_dma.h"
 1204              		.file 27 "./RM18A-ChibiOS18-Core/chibios/os/hal/include/hal_queues.h"
 1205              		.file 28 "./RM18A-ChibiOS18-Core/chibios/os/hal/include/hal_pal.h"
 1206              		.file 29 "./RM18A-ChibiOS18-Core/chibios/os/hal/ports/STM32/LLD/GPIOv2/hal_pal_lld.h"
 1207              		.file 30 "./RM18A-ChibiOS18-Core/chibios/os/hal/include/hal_adc.h"
 1208              		.file 31 "./RM18A-ChibiOS18-Core/chibios/os/hal/ports/STM32/LLD/ADCv2/hal_adc_lld.h"
 1209              		.file 32 "./RM18A-ChibiOS18-Core/chibios/os/hal/include/hal_can.h"
 1210              		.file 33 "./RM18A-ChibiOS18-Core/chibios/os/hal/ports/STM32/LLD/CANv1/hal_can_lld.h"
 1211              		.file 34 "./RM18A-ChibiOS18-Core/chibios/os/hal/include/hal_icu.h"
 1212              		.file 35 "./RM18A-ChibiOS18-Core/chibios/os/hal/ports/STM32/LLD/TIMv1/hal_icu_lld.h"
 1213              		.file 36 "./RM18A-ChibiOS18-Core/chibios/os/hal/include/hal_pwm.h"
 1214              		.file 37 "./RM18A-ChibiOS18-Core/chibios/os/hal/ports/STM32/LLD/TIMv1/hal_pwm_lld.h"
 1215              		.file 38 "./RM18A-ChibiOS18-Core/chibios/os/hal/include/hal_serial.h"
 1216              		.file 39 "./RM18A-ChibiOS18-Core/chibios/os/hal/ports/STM32/LLD/USARTv1/hal_serial_lld.h"
 1217              		.file 40 "./RM18A-ChibiOS18-Core/chibios/os/hal/include/hal_spi.h"
 1218              		.file 41 "./RM18A-ChibiOS18-Core/chibios/os/hal/ports/STM32/LLD/SPIv1/hal_spi_lld.h"
 1219              		.file 42 "./RM18A-ChibiOS18-Core/chibios/os/hal/include/hal_uart.h"
 1220              		.file 43 "./RM18A-ChibiOS18-Core/chibios/os/hal/ports/STM32/LLD/USARTv1/hal_uart_lld.h"
 1221              		.file 44 "./RM18A-ChibiOS18-Core/chibios/os/hal/include/hal_usb.h"
 1222              		.file 45 "./RM18A-ChibiOS18-Core/chibios/os/hal/ports/STM32/LLD/OTGv1/hal_usb_lld.h"
 1223              		.file 46 "./RM18A-ChibiOS18-Core/chibios/os/hal/ports/STM32/LLD/OTGv1/stm32_otg.h"
 1224              		.file 47 "./RM18A-ChibiOS18-Core/chibios/os/hal/ports/common/ARMCMx/nvic.h"
 1225              		.file 48 "./RM18A-ChibiOS18-Core/chibios/os/rt/include/chthreads.h"