ARM GAS  /tmp/ccxvl19p.s 			page 1


   1              		.cpu cortex-m4
   2              		.eabi_attribute 27, 1
   3              		.eabi_attribute 28, 1
   4              		.eabi_attribute 20, 1
   5              		.eabi_attribute 21, 1
   6              		.eabi_attribute 23, 3
   7              		.eabi_attribute 24, 1
   8              		.eabi_attribute 25, 1
   9              		.eabi_attribute 26, 1
  10              		.eabi_attribute 30, 2
  11              		.eabi_attribute 34, 1
  12              		.eabi_attribute 18, 4
  13              		.file	"hal_usb_lld.c"
  14              		.text
  15              	.Ltext0:
  16              		.cfi_sections	.debug_frame
  17              		.section	.text.Vector14C,"ax",%progbits
  18              		.align	1
  19              		.p2align 2,,3
  20              		.global	Vector14C
  21              		.syntax unified
  22              		.thumb
  23              		.thumb_func
  24              		.fpu fpv4-sp-d16
  25              		.type	Vector14C, %function
  26              	Vector14C:
  27              	.LFB342:
  28              		.file 1 "./RM18A-ChibiOS18-Core/chibios/os/hal/ports/STM32/LLD/OTGv1/hal_usb_lld.c"
  29              		.loc 1 674 0
  30              		.cfi_startproc
  31              		@ args = 0, pretend = 0, frame = 16
  32              		@ frame_needed = 0, uses_anonymous_args = 0
  33              	.LVL0:
  34 0000 2DE9F04F 		push	{r4, r5, r6, r7, r8, r9, r10, fp, lr}
  35              		.cfi_def_cfa_offset 36
  36              		.cfi_offset 4, -36
  37              		.cfi_offset 5, -32
  38              		.cfi_offset 6, -28
  39              		.cfi_offset 7, -24
  40              		.cfi_offset 8, -20
  41              		.cfi_offset 9, -16
  42              		.cfi_offset 10, -12
  43              		.cfi_offset 11, -8
  44              		.cfi_offset 14, -4
  45              	.LBB335:
  46              	.LBB336:
  47              		.loc 1 529 0
  48 0004 BA4C     		ldr	r4, .L347
  49 0006 D4F854A0 		ldr	r10, [r4, #84]
  50              	.LVL1:
  51              		.loc 1 532 0
  52 000a DAF81420 		ldr	r2, [r10, #20]
  53              	.LVL2:
  54              		.loc 1 533 0
  55 000e DAF81830 		ldr	r3, [r10, #24]
  56 0012 02EA030B 		and	fp, r2, r3
  57              	.LVL3:
ARM GAS  /tmp/ccxvl19p.s 			page 2


  58              		.loc 1 537 0
  59 0016 1BF48055 		ands	r5, fp, #4096
  60              	.LBE336:
  61              	.LBE335:
  62              		.loc 1 674 0
  63 001a 85B0     		sub	sp, sp, #20
  64              		.cfi_def_cfa_offset 56
  65              	.LBB539:
  66              	.LBB536:
  67              		.loc 1 534 0
  68 001c CAF814B0 		str	fp, [r10, #20]
  69              		.loc 1 537 0
  70 0020 40F05E81 		bne	.L321
  71              		.loc 1 546 0
  72 0024 BBF1000F 		cmp	fp, #0
  73 0028 4CDB     		blt	.L322
  74              		.loc 1 561 0
  75 002a 1BF4006F 		tst	fp, #2048
  76 002e 40F02381 		bne	.L323
  77              	.L6:
  78              		.loc 1 567 0
  79 0032 1BF4005F 		tst	fp, #8192
  80 0036 0ED0     		beq	.L7
  81              	.L337:
  82              		.loc 1 569 0
  83 0038 DAF80838 		ldr	r3, [r10, #2056]
  84 003c 13F0060F 		tst	r3, #6
  85              		.loc 1 570 0
  86 0040 DAF80C30 		ldr	r3, [r10, #12]
  87 0044 23F47053 		bic	r3, r3, #15360
  88 0048 0CBF     		ite	eq
  89 004a 43F41053 		orreq	r3, r3, #9216
  90              		.loc 1 574 0
  91 004e 43F4A053 		orrne	r3, r3, #5120
  92 0052 CAF80C30 		str	r3, [r10, #12]
  93              	.L7:
  94              		.loc 1 580 0
  95 0056 1BF0080F 		tst	fp, #8
  96 005a 04D0     		beq	.L9
  97              		.loc 1 581 0
  98 005c 6368     		ldr	r3, [r4, #4]
  99 005e DB68     		ldr	r3, [r3, #12]
 100 0060 0BB1     		cbz	r3, .L9
 101 0062 A348     		ldr	r0, .L347
 102 0064 9847     		blx	r3
 103              	.LVL4:
 104              	.L9:
 105              		.loc 1 585 0
 106 0066 1BF4801F 		tst	fp, #1048576
 107 006a 79D1     		bne	.L324
 108              		.loc 1 590 0
 109 006c 1BF4001F 		tst	fp, #2097152
 110 0070 40F00A81 		bne	.L325
 111              	.LVL5:
 112              	.L22:
 113              		.loc 1 596 0
 114 0074 1BF0100F 		tst	fp, #16
ARM GAS  /tmp/ccxvl19p.s 			page 3


 115 0078 3BD1     		bne	.L326
 116              	.L28:
 117              		.loc 1 602 0
 118 007a 1BF4002F 		tst	fp, #524288
 119              		.loc 1 601 0
 120 007e DAF81858 		ldr	r5, [r10, #2072]
 121              	.LVL6:
 122              		.loc 1 602 0
 123 0082 0BD0     		beq	.L48
 124              		.loc 1 603 0
 125 0084 E903     		lsls	r1, r5, #15
 126 0086 00F16083 		bmi	.L327
 127              	.L50:
 128              		.loc 1 605 0
 129 008a A903     		lsls	r1, r5, #14
 130 008c 00F13883 		bmi	.L328
 131              	.L58:
 132              		.loc 1 607 0
 133 0090 6903     		lsls	r1, r5, #13
 134 0092 00F11083 		bmi	.L329
 135              	.L62:
 136              		.loc 1 609 0
 137 0096 2903     		lsls	r1, r5, #12
 138 0098 00F18B81 		bmi	.L330
 139              	.L48:
 140              		.loc 1 632 0
 141 009c 1BF4802F 		tst	fp, #262144
 142 00a0 0BD0     		beq	.L3
 143              		.loc 1 633 0
 144 00a2 E907     		lsls	r1, r5, #31
 145 00a4 00F13F82 		bmi	.L331
 146              	.L81:
 147              		.loc 1 635 0
 148 00a8 A907     		lsls	r1, r5, #30
 149 00aa 00F1D981 		bmi	.L332
 150              	.L96:
 151              		.loc 1 637 0
 152 00ae 6907     		lsls	r1, r5, #29
 153 00b0 00F19E82 		bmi	.L333
 154              	.L111:
 155              		.loc 1 639 0
 156 00b4 2D07     		lsls	r5, r5, #28
 157              	.LVL7:
 158 00b6 00F11D81 		bmi	.L334
 159              	.L3:
 160              	.LVL8:
 161              	.LBE536:
 162              	.LBE539:
 163              		.loc 1 681 0
 164 00ba 05B0     		add	sp, sp, #20
 165              		.cfi_remember_state
 166              		.cfi_def_cfa_offset 36
 167              		@ sp needed
 168 00bc BDE8F04F 		pop	{r4, r5, r6, r7, r8, r9, r10, fp, lr}
 169              		.cfi_restore 14
 170              		.cfi_restore 11
 171              		.cfi_restore 10
ARM GAS  /tmp/ccxvl19p.s 			page 4


 172              		.cfi_restore 9
 173              		.cfi_restore 8
 174              		.cfi_restore 7
 175              		.cfi_restore 6
 176              		.cfi_restore 5
 177              		.cfi_restore 4
 178              		.cfi_def_cfa_offset 0
 179              		.loc 1 680 0
 180 00c0 FFF7FEBF 		b	_port_irq_epilogue
 181              	.LVL9:
 182              	.L322:
 183              		.cfi_restore_state
 184              	.LBB540:
 185              	.LBB537:
 186              		.loc 1 549 0
 187 00c4 DAF8003E 		ldr	r3, [r10, #3584]
 188 00c8 9A07     		lsls	r2, r3, #30
 189 00ca 05D0     		beq	.L5
 190              		.loc 1 551 0
 191 00cc DAF8003E 		ldr	r3, [r10, #3584]
 192 00d0 23F00303 		bic	r3, r3, #3
 193 00d4 CAF8003E 		str	r3, [r10, #3584]
 194              	.L5:
 195              		.loc 1 555 0
 196 00d8 DAF80438 		ldr	r3, [r10, #2052]
 197              		.loc 1 557 0
 198 00dc 8448     		ldr	r0, .L347
 199              		.loc 1 555 0
 200 00de 23F00103 		bic	r3, r3, #1
 201 00e2 CAF80438 		str	r3, [r10, #2052]
 202              		.loc 1 557 0
 203 00e6 FFF7FEFF 		bl	_usb_wakeup
 204              	.LVL10:
 205              		.loc 1 561 0
 206 00ea 1BF4006F 		tst	fp, #2048
 207 00ee A0D0     		beq	.L6
 208 00f0 C2E0     		b	.L323
 209              	.LVL11:
 210              	.L326:
 211              	.LBB337:
 212              	.LBB338:
 213              		.loc 1 285 0
 214 00f2 656D     		ldr	r5, [r4, #84]
 215 00f4 2B6A     		ldr	r3, [r5, #32]
 216              	.LVL12:
 217              		.loc 1 291 0
 218 00f6 03F4F011 		and	r1, r3, #1966080
 219 00fa B1F5802F 		cmp	r1, #262144
 220              		.loc 1 288 0
 221 00fe C3F30A12 		ubfx	r2, r3, #4, #11
 222              	.LVL13:
 223              		.loc 1 289 0
 224 0102 03F00F03 		and	r3, r3, #15
 225              	.LVL14:
 226              		.loc 1 291 0
 227 0106 00F07981 		beq	.L29
 228 010a B1F5402F 		cmp	r1, #786432
ARM GAS  /tmp/ccxvl19p.s 			page 5


 229 010e B4D1     		bne	.L28
 230              		.loc 1 293 0
 231 0110 04EB8303 		add	r3, r4, r3, lsl #2
 232              	.LVL15:
 233 0114 DB68     		ldr	r3, [r3, #12]
 234 0116 1E6A     		ldr	r6, [r3, #32]
 235              	.LVL16:
 236              	.LBB339:
 237              	.LBB340:
 238              		.loc 1 262 0
 239 0118 002A     		cmp	r2, #0
 240 011a AED0     		beq	.L28
 241 011c 531E     		subs	r3, r2, #1
 242 011e 072B     		cmp	r3, #7
 243 0120 28BF     		it	cs
 244 0122 0723     		movcs	r3, #7
 245              		.loc 1 259 0
 246 0124 0020     		movs	r0, #0
 247 0126 0133     		adds	r3, r3, #1
 248              		.loc 1 260 0
 249 0128 0146     		mov	r1, r0
 250              		.loc 1 264 0
 251 012a 05F58057 		add	r7, r5, #4096
 252              	.LVL17:
 253              	.L32:
 254              		.loc 1 263 0
 255 012e 11F0030F 		tst	r1, #3
 256 0132 40F08581 		bne	.L33
 257              		.loc 1 264 0
 258 0136 3868     		ldr	r0, [r7]
 259              	.LVL18:
 260              		.loc 1 267 0
 261 0138 06F8010B 		strb	r0, [r6], #1
 262              	.LVL19:
 263              		.loc 1 270 0
 264 013c 0131     		adds	r1, r1, #1
 265              	.LVL20:
 266              		.loc 1 262 0
 267 013e 8B42     		cmp	r3, r1
 268              		.loc 1 268 0
 269 0140 4FEA1020 		lsr	r0, r0, #8
 270              	.LVL21:
 271              		.loc 1 262 0
 272 0144 F3D1     		bne	.L32
 273              	.L35:
 274 0146 9A42     		cmp	r2, r3
 275 0148 97D9     		bls	.L28
 276              		.loc 1 264 0
 277 014a 05F58055 		add	r5, r5, #4096
 278              	.LVL22:
 279              	.L37:
 280              		.loc 1 263 0
 281 014e 13F0030F 		tst	r3, #3
 282              		.loc 1 270 0
 283 0152 03F10103 		add	r3, r3, #1
 284              	.LVL23:
 285              		.loc 1 264 0
ARM GAS  /tmp/ccxvl19p.s 			page 6


 286 0156 08BF     		it	eq
 287 0158 2968     		ldreq	r1, [r5]
 288              		.loc 1 262 0
 289 015a 9A42     		cmp	r2, r3
 290 015c F7D1     		bne	.L37
 291 015e 8CE7     		b	.L28
 292              	.LVL24:
 293              	.L324:
 294              	.LBE340:
 295              	.LBE339:
 296              	.LBE338:
 297              	.LBE337:
 298              	.LBB349:
 299              	.LBB350:
 300              		.loc 1 472 0
 301 0160 D4F85480 		ldr	r8, [r4, #84]
 302              	.LVL25:
 303              		.loc 1 474 0
 304 0164 4FF00009 		mov	r9, #0
 305              		.loc 1 487 0
 306 0168 CDE900AB 		strd	r10, fp, [sp]
 307 016c 09E0     		b	.L21
 308              	.LVL26:
 309              	.L319:
 310 016e 09F1010C 		add	ip, r9, #1
 311              	.LVL27:
 312              	.L17:
 313              		.loc 1 474 0
 314 0172 A36D     		ldr	r3, [r4, #88]
 315 0174 9B68     		ldr	r3, [r3, #8]
 316 0176 5FFA8CF9 		uxtb	r9, ip
 317              	.LVL28:
 318 017a 9945     		cmp	r9, r3
 319 017c 4D46     		mov	r5, r9
 320 017e 00F26881 		bhi	.L335
 321              	.LVL29:
 322              	.L21:
 323 0182 08EB4912 		add	r2, r8, r9, lsl #5
 324              		.loc 1 475 0
 325 0186 D2F80039 		ldr	r3, [r2, #2304]
 326 018a 03F44023 		and	r3, r3, #786432
 327 018e B3F5802F 		cmp	r3, #262144
 328 0192 ECD1     		bne	.L319
 329              		.loc 1 476 0
 330 0194 D2F80039 		ldr	r3, [r2, #2304]
 331              		.loc 1 475 0
 332 0198 002B     		cmp	r3, #0
 333 019a E8DA     		bge	.L319
 334              		.loc 1 479 0
 335 019c D2F80039 		ldr	r3, [r2, #2304]
 336 01a0 43F09043 		orr	r3, r3, #1207959552
 337 01a4 C2F80039 		str	r3, [r2, #2304]
 338              	.L12:
 339              		.loc 1 480 0
 340 01a8 D2F80039 		ldr	r3, [r2, #2304]
 341 01ac 002B     		cmp	r3, #0
 342 01ae FBDB     		blt	.L12
ARM GAS  /tmp/ccxvl19p.s 			page 7


 343              	.LBB351:
 344              	.LBB352:
 345              		.loc 1 183 0
 346 01b0 AD01     		lsls	r5, r5, #6
 347              	.LBE352:
 348              	.LBE351:
 349              		.loc 1 484 0
 350 01b2 626D     		ldr	r2, [r4, #84]
 351              	.LVL30:
 352              	.LBB357:
 353              	.LBB355:
 354              		.loc 1 183 0
 355 01b4 45F02005 		orr	r5, r5, #32
 356 01b8 1561     		str	r5, [r2, #16]
 357              	.L13:
 358              		.loc 1 184 0
 359 01ba 1369     		ldr	r3, [r2, #16]
 360 01bc 9B06     		lsls	r3, r3, #26
 361 01be FCD4     		bmi	.L13
 362              	.LVL31:
 363              	.LBE355:
 364              	.LBE357:
 365              		.loc 1 487 0
 366 01c0 09F10205 		add	r5, r9, #2
 367 01c4 04EB8505 		add	r5, r4, r5, lsl #2
 368              	.LBB358:
 369              	.LBB356:
 370              	.LBB353:
 371              	.LBB354:
 372              		.file 2 "./RM18A-ChibiOS18-Core/chibios/os/hal/osal/rt/osal.h"
 373              		.loc 2 591 0
 374 01c8 1220     		movs	r0, #18
 375 01ca FFF7FEFF 		bl	chSysPolledDelayX
 376              	.LVL32:
 377              	.LBE354:
 378              	.LBE353:
 379              	.LBE356:
 380              	.LBE358:
 381              		.loc 1 487 0
 382 01ce 6B68     		ldr	r3, [r5, #4]
 383 01d0 2189     		ldrh	r1, [r4, #8]
 384 01d2 9E68     		ldr	r6, [r3, #8]
 385 01d4 0122     		movs	r2, #1
 386 01d6 02FA09F2 		lsl	r2, r2, r9
 387 01da 21EA0202 		bic	r2, r1, r2
 388 01de 2281     		strh	r2, [r4, #8]	@ movhi
 389 01e0 1EB1     		cbz	r6, .L14
 390 01e2 4946     		mov	r1, r9
 391 01e4 4248     		ldr	r0, .L347
 392 01e6 B047     		blx	r6
 393              	.LVL33:
 394 01e8 6B68     		ldr	r3, [r5, #4]
 395              	.L14:
 396              	.LBB359:
 397              	.LBB360:
 398              		.loc 1 331 0
 399 01ea D3F814E0 		ldr	lr, [r3, #20]
ARM GAS  /tmp/ccxvl19p.s 			page 8


 400 01ee 626D     		ldr	r2, [r4, #84]
 401 01f0 0292     		str	r2, [sp, #8]
 402 01f2 DEE900A7 		ldrd	r10, r7, [lr]
 403 01f6 5745     		cmp	r7, r10
 404 01f8 28BF     		it	cs
 405 01fa 09F1010C 		addcs	ip, r9, #1
 406 01fe 80F0F882 		bcs	.L15
 407              		.loc 1 345 0
 408 0202 02EB4912 		add	r2, r2, r9, lsl #5
 409              		.loc 1 340 0
 410 0206 B3F810B0 		ldrh	fp, [r3, #16]
 411              		.loc 1 345 0
 412 020a D2F81839 		ldr	r3, [r2, #2328]
 413              		.loc 1 339 0
 414 020e AAEB0700 		sub	r0, r10, r7
 415 0212 5845     		cmp	r0, fp
 416              		.loc 1 345 0
 417 0214 9BB2     		uxth	r3, r3
 418 0216 28BF     		it	cs
 419 0218 5846     		movcs	r0, fp
 420              	.LVL34:
 421 021a B0EB830F 		cmp	r0, r3, lsl #2
 422 021e 09F1010C 		add	ip, r9, #1
 423 0222 A6D8     		bhi	.L17
 424              		.loc 1 351 0
 425 0224 029B     		ldr	r3, [sp, #8]
 426 0226 DEF80860 		ldr	r6, [lr, #8]
 427 022a CDF80C90 		str	r9, [sp, #12]
 428 022e 03EB0C35 		add	r5, r3, ip, lsl #12
 429 0232 9146     		mov	r9, r2
 430              	.LVL35:
 431              	.L16:
 432              	.LBB361:
 433              	.LBB362:
 434              		.loc 1 236 0
 435 0234 3368     		ldr	r3, [r6]
 436 0236 2B60     		str	r3, [r5]
 437              		.loc 1 237 0
 438 0238 0428     		cmp	r0, #4
 439 023a 0AD9     		bls	.L18
 440 023c 421F     		subs	r2, r0, #5
 441 023e 22F00302 		bic	r2, r2, #3
 442 0242 0432     		adds	r2, r2, #4
 443 0244 3244     		add	r2, r2, r6
 444 0246 3346     		mov	r3, r6
 445              	.LVL36:
 446              	.L19:
 447              		.loc 1 236 0
 448 0248 53F8041F 		ldr	r1, [r3, #4]!
 449              	.LVL37:
 450 024c 2960     		str	r1, [r5]
 451              		.loc 1 237 0
 452 024e 9342     		cmp	r3, r2
 453 0250 FAD1     		bne	.L19
 454              	.LVL38:
 455              	.L18:
 456              	.LBE362:
ARM GAS  /tmp/ccxvl19p.s 			page 9


 457              	.LBE361:
 458              		.loc 1 355 0
 459 0252 0744     		add	r7, r7, r0
 460              		.loc 1 354 0
 461 0254 0644     		add	r6, r6, r0
 462              		.loc 1 331 0
 463 0256 5745     		cmp	r7, r10
 464              		.loc 1 355 0
 465 0258 CEE90176 		strd	r7, r6, [lr, #4]
 466              		.loc 1 331 0
 467 025c 80F0C782 		bcs	.L336
 468              		.loc 1 339 0
 469 0260 AAEB0700 		sub	r0, r10, r7
 470              	.LVL39:
 471              		.loc 1 345 0
 472 0264 D9F81839 		ldr	r3, [r9, #2328]
 473 0268 5845     		cmp	r0, fp
 474 026a 9BB2     		uxth	r3, r3
 475 026c 28BF     		it	cs
 476 026e 5846     		movcs	r0, fp
 477              	.LVL40:
 478 0270 B0EB830F 		cmp	r0, r3, lsl #2
 479 0274 DED9     		bls	.L16
 480 0276 7CE7     		b	.L17
 481              	.LVL41:
 482              	.L323:
 483              	.LBE360:
 484              	.LBE359:
 485              	.LBE350:
 486              	.LBE349:
 487              		.loc 1 563 0
 488 0278 1D48     		ldr	r0, .L347
 489 027a FFF7FEFF 		bl	_usb_suspend
 490              	.LVL42:
 491              		.loc 1 567 0
 492 027e 1BF4005F 		tst	fp, #8192
 493 0282 3FF4E8AE 		beq	.L7
 494 0286 D7E6     		b	.L337
 495              	.LVL43:
 496              	.L325:
 497              	.LBB366:
 498              	.LBB367:
 499              		.loc 1 504 0
 500 0288 666D     		ldr	r6, [r4, #84]
 501              	.LVL44:
 502              		.loc 1 516 0
 503 028a DFF86480 		ldr	r8, .L347
 504              		.loc 1 506 0
 505 028e 0025     		movs	r5, #0
 506              		.loc 1 516 0
 507 0290 0127     		movs	r7, #1
 508 0292 06E0     		b	.L26
 509              	.LVL45:
 510              	.L24:
 511              		.loc 1 506 0
 512 0294 A36D     		ldr	r3, [r4, #88]
 513 0296 0135     		adds	r5, r5, #1
ARM GAS  /tmp/ccxvl19p.s 			page 10


 514              	.LVL46:
 515 0298 9B68     		ldr	r3, [r3, #8]
 516 029a EDB2     		uxtb	r5, r5
 517              	.LVL47:
 518 029c 9D42     		cmp	r5, r3
 519 029e 3FF6E9AE 		bhi	.L22
 520              	.LVL48:
 521              	.L26:
 522 02a2 06EB4512 		add	r2, r6, r5, lsl #5
 523              		.loc 1 507 0
 524 02a6 D2F8003B 		ldr	r3, [r2, #2816]
 525 02aa 03F44023 		and	r3, r3, #786432
 526 02ae B3F5802F 		cmp	r3, #262144
 527 02b2 EFD1     		bne	.L24
 528              		.loc 1 508 0
 529 02b4 D2F8003B 		ldr	r3, [r2, #2816]
 530              		.loc 1 507 0
 531 02b8 002B     		cmp	r3, #0
 532 02ba EBDA     		bge	.L24
 533              		.loc 1 516 0
 534 02bc 04EB8503 		add	r3, r4, r5, lsl #2
 535 02c0 6289     		ldrh	r2, [r4, #10]
 536 02c2 D968     		ldr	r1, [r3, #12]
 537 02c4 07FA05F3 		lsl	r3, r7, r5
 538 02c8 D1F80C90 		ldr	r9, [r1, #12]
 539 02cc 22EA0303 		bic	r3, r2, r3
 540 02d0 2946     		mov	r1, r5
 541 02d2 4046     		mov	r0, r8
 542 02d4 6381     		strh	r3, [r4, #10]	@ movhi
 543 02d6 B9F1000F 		cmp	r9, #0
 544 02da DBD0     		beq	.L24
 545 02dc C847     		blx	r9
 546              	.LVL49:
 547 02de D9E7     		b	.L24
 548              	.LVL50:
 549              	.L321:
 550              	.LBE367:
 551              	.LBE366:
 552              		.loc 1 539 0
 553 02e0 2046     		mov	r0, r4
 554 02e2 FFF7FEFF 		bl	_usb_reset
 555              	.LVL51:
 556              	.LBE537:
 557              	.LBE540:
 558              		.loc 1 681 0
 559 02e6 05B0     		add	sp, sp, #20
 560              		.cfi_remember_state
 561              		.cfi_def_cfa_offset 36
 562              		@ sp needed
 563 02e8 BDE8F04F 		pop	{r4, r5, r6, r7, r8, r9, r10, fp, lr}
 564              		.cfi_restore 14
 565              		.cfi_restore 11
 566              		.cfi_restore 10
 567              		.cfi_restore 9
 568              		.cfi_restore 8
 569              		.cfi_restore 7
 570              		.cfi_restore 6
ARM GAS  /tmp/ccxvl19p.s 			page 11


 571              		.cfi_restore 5
 572              		.cfi_restore 4
 573              		.cfi_def_cfa_offset 0
 574              		.loc 1 680 0
 575 02ec FFF7FEBF 		b	_port_irq_epilogue
 576              	.LVL52:
 577              	.L348:
 578              		.align	2
 579              	.L347:
 580 02f0 00000000 		.word	.LANCHOR0
 581              	.LVL53:
 582              	.L334:
 583              		.cfi_restore_state
 584              	.LBB541:
 585              	.LBB538:
 586              	.LBB368:
 587              	.LBB369:
 588              		.loc 1 371 0
 589 02f4 656D     		ldr	r5, [r4, #84]
 590              	.LVL54:
 591              		.loc 1 372 0
 592 02f6 D5F86869 		ldr	r6, [r5, #2408]
 593              	.LVL55:
 594              		.loc 1 374 0
 595 02fa C5F86869 		str	r6, [r5, #2408]
 596              		.loc 1 379 0
 597 02fe F007     		lsls	r0, r6, #31
 598 0300 13D5     		bpl	.L116
 599 0302 D5F81038 		ldr	r3, [r5, #2064]
 600 0306 D907     		lsls	r1, r3, #31
 601 0308 0FD5     		bpl	.L116
 602              	.LBB370:
 603              		.loc 1 381 0
 604 030a A169     		ldr	r1, [r4, #24]
 605 030c 4B69     		ldr	r3, [r1, #20]
 606              	.LVL56:
 607              		.loc 1 383 0
 608 030e 1868     		ldr	r0, [r3]
 609 0310 DA68     		ldr	r2, [r3, #12]
 610 0312 9042     		cmp	r0, r2
 611 0314 C0F09682 		bcc	.L338
 612              		.loc 1 395 0
 613 0318 2389     		ldrh	r3, [r4, #8]
 614              	.LVL57:
 615 031a 8A68     		ldr	r2, [r1, #8]
 616 031c 23F00803 		bic	r3, r3, #8
 617 0320 2381     		strh	r3, [r4, #8]	@ movhi
 618 0322 12B1     		cbz	r2, .L116
 619 0324 0321     		movs	r1, #3
 620              	.LVL58:
 621 0326 B148     		ldr	r0, .L349
 622 0328 9047     		blx	r2
 623              	.LVL59:
 624              	.L116:
 625              	.LBE370:
 626              		.loc 1 398 0
 627 032a 3206     		lsls	r2, r6, #24
ARM GAS  /tmp/ccxvl19p.s 			page 12


 628 032c 7FF5C5AE 		bpl	.L3
 629              		.loc 1 399 0
 630 0330 D5F83438 		ldr	r3, [r5, #2100]
 631              		.loc 1 398 0
 632 0334 1B07     		lsls	r3, r3, #28
 633 0336 7FF5C0AE 		bpl	.L3
 634              	.LBB388:
 635              	.LBB389:
 636              		.loc 1 331 0
 637 033a A369     		ldr	r3, [r4, #24]
 638 033c D4F854C0 		ldr	ip, [r4, #84]
 639 0340 5E69     		ldr	r6, [r3, #20]
 640              	.LVL60:
 641 0342 D6E90075 		ldrd	r7, r5, [r6]
 642              	.LVL61:
 643 0346 AF42     		cmp	r7, r5
 644 0348 40F25D82 		bls	.L123
 645              		.loc 1 340 0
 646 034c B3F810E0 		ldrh	lr, [r3, #16]
 647              		.loc 1 345 0
 648 0350 DCF87839 		ldr	r3, [ip, #2424]
 649              		.loc 1 339 0
 650 0354 791B     		subs	r1, r7, r5
 651              	.LVL62:
 652 0356 7145     		cmp	r1, lr
 653 0358 28BF     		it	cs
 654 035a 7146     		movcs	r1, lr
 655              	.LVL63:
 656              		.loc 1 345 0
 657 035c 9BB2     		uxth	r3, r3
 658 035e B1EB830F 		cmp	r1, r3, lsl #2
 659 0362 3FF6AAAE 		bhi	.L3
 660 0366 B468     		ldr	r4, [r6, #8]
 661 0368 0CF58040 		add	r0, ip, #16384
 662 036c B846     		mov	r8, r7
 663              	.L124:
 664              	.LVL64:
 665              	.LBB390:
 666              	.LBB391:
 667              		.loc 1 236 0
 668 036e 2368     		ldr	r3, [r4]
 669 0370 0360     		str	r3, [r0]
 670              		.loc 1 237 0
 671 0372 0429     		cmp	r1, #4
 672 0374 0AD9     		bls	.L125
 673 0376 4A1F     		subs	r2, r1, #5
 674 0378 22F00302 		bic	r2, r2, #3
 675 037c 0432     		adds	r2, r2, #4
 676 037e 2244     		add	r2, r2, r4
 677 0380 2346     		mov	r3, r4
 678              	.LVL65:
 679              	.L126:
 680              		.loc 1 236 0
 681 0382 53F8047F 		ldr	r7, [r3, #4]!
 682              	.LVL66:
 683 0386 0760     		str	r7, [r0]
 684              		.loc 1 237 0
ARM GAS  /tmp/ccxvl19p.s 			page 13


 685 0388 9342     		cmp	r3, r2
 686 038a FAD1     		bne	.L126
 687              	.LVL67:
 688              	.L125:
 689              	.LBE391:
 690              	.LBE390:
 691              		.loc 1 355 0
 692 038c 0D44     		add	r5, r5, r1
 693              		.loc 1 354 0
 694 038e 0C44     		add	r4, r4, r1
 695              		.loc 1 331 0
 696 0390 A845     		cmp	r8, r5
 697              		.loc 1 355 0
 698 0392 C6E90154 		strd	r5, r4, [r6, #4]
 699              		.loc 1 331 0
 700 0396 40F23682 		bls	.L123
 701              		.loc 1 339 0
 702 039a A8EB0501 		sub	r1, r8, r5
 703              	.LVL68:
 704              		.loc 1 345 0
 705 039e DCF87839 		ldr	r3, [ip, #2424]
 706 03a2 7145     		cmp	r1, lr
 707 03a4 9BB2     		uxth	r3, r3
 708 03a6 28BF     		it	cs
 709 03a8 7146     		movcs	r1, lr
 710              	.LVL69:
 711 03aa B1EB830F 		cmp	r1, r3, lsl #2
 712 03ae DED9     		bls	.L124
 713 03b0 83E6     		b	.L3
 714              	.LVL70:
 715              	.L330:
 716              	.LBE389:
 717              	.LBE388:
 718              	.LBE369:
 719              	.LBE368:
 720              	.LBB399:
 721              	.LBB400:
 722              		.loc 1 414 0
 723 03b2 666D     		ldr	r6, [r4, #84]
 724              	.LVL71:
 725              		.loc 1 415 0
 726 03b4 D6F8687B 		ldr	r7, [r6, #2920]
 727              	.LVL72:
 728              		.loc 1 418 0
 729 03b8 C6F8687B 		str	r7, [r6, #2920]
 730              		.loc 1 420 0
 731 03bc 3A07     		lsls	r2, r7, #28
 732 03be 08D5     		bpl	.L66
 733 03c0 D6F81438 		ldr	r3, [r6, #2068]
 734 03c4 1B07     		lsls	r3, r3, #28
 735 03c6 04D5     		bpl	.L66
 736              		.loc 1 423 0
 737 03c8 A369     		ldr	r3, [r4, #24]
 738 03ca 8848     		ldr	r0, .L349
 739 03cc 5B68     		ldr	r3, [r3, #4]
 740 03ce 0321     		movs	r1, #3
 741 03d0 9847     		blx	r3
ARM GAS  /tmp/ccxvl19p.s 			page 14


 742              	.LVL73:
 743              	.L66:
 744              		.loc 1 426 0
 745 03d2 FF07     		lsls	r7, r7, #31
 746              	.LVL74:
 747 03d4 7FF562AE 		bpl	.L48
 748 03d8 D6F81438 		ldr	r3, [r6, #2068]
 749 03dc D807     		lsls	r0, r3, #31
 750 03de 7FF55DAE 		bpl	.L48
 751              	.LBB401:
 752              		.loc 1 430 0
 753 03e2 A269     		ldr	r2, [r4, #24]
 754              	.LVL75:
 755              		.loc 1 459 0
 756 03e4 6389     		ldrh	r3, [r4, #10]
 757 03e6 D268     		ldr	r2, [r2, #12]
 758              	.LVL76:
 759 03e8 23F00803 		bic	r3, r3, #8
 760 03ec 6381     		strh	r3, [r4, #10]	@ movhi
 761 03ee 002A     		cmp	r2, #0
 762 03f0 3FF454AE 		beq	.L48
 763 03f4 0321     		movs	r1, #3
 764 03f6 7D48     		ldr	r0, .L349
 765 03f8 9047     		blx	r2
 766              	.LVL77:
 767 03fa 4FE6     		b	.L48
 768              	.LVL78:
 769              	.L29:
 770              	.LBE401:
 771              	.LBE400:
 772              	.LBE399:
 773              	.LBB402:
 774              	.LBB347:
 775              		.loc 1 300 0
 776 03fc 981C     		adds	r0, r3, #2
 777 03fe 04EB8003 		add	r3, r4, r0, lsl #2
 778              	.LVL79:
 779 0402 5B68     		ldr	r3, [r3, #4]
 780 0404 9969     		ldr	r1, [r3, #24]
 781              		.loc 1 299 0
 782 0406 D1E90037 		ldrd	r3, r7, [r1]
 783 040a 8E68     		ldr	r6, [r1, #8]
 784 040c DB1B     		subs	r3, r3, r7
 785              	.LVL80:
 786              	.LBB342:
 787              	.LBB343:
 788              		.loc 1 262 0
 789 040e 92B1     		cbz	r2, .L38
 790 0410 002B     		cmp	r3, #0
 791 0412 40F0CC81 		bne	.L339
 792              	.LVL81:
 793              	.L39:
 794              		.loc 1 264 0
 795 0416 05F58055 		add	r5, r5, #4096
 796              	.LVL82:
 797              	.L45:
 798              		.loc 1 263 0
ARM GAS  /tmp/ccxvl19p.s 			page 15


 799 041a 13F0030F 		tst	r3, #3
 800              		.loc 1 270 0
 801 041e 03F10103 		add	r3, r3, #1
 802              	.LVL83:
 803              		.loc 1 264 0
 804 0422 08BF     		it	eq
 805 0424 2968     		ldreq	r1, [r5]
 806              		.loc 1 262 0
 807 0426 9A42     		cmp	r2, r3
 808 0428 F7D8     		bhi	.L45
 809              	.LVL84:
 810              	.L46:
 811 042a 04EB8003 		add	r3, r4, r0, lsl #2
 812              	.LVL85:
 813 042e 5B68     		ldr	r3, [r3, #4]
 814 0430 9969     		ldr	r1, [r3, #24]
 815 0432 D1E90176 		ldrd	r7, r6, [r1, #4]
 816              	.L38:
 817              	.LVL86:
 818              	.LBE343:
 819              	.LBE342:
 820              		.loc 1 304 0
 821 0436 1644     		add	r6, r6, r2
 822              		.loc 1 305 0
 823 0438 3A44     		add	r2, r2, r7
 824              	.LVL87:
 825 043a C1E90126 		strd	r2, r6, [r1, #4]
 826 043e 1CE6     		b	.L28
 827              	.LVL88:
 828              	.L33:
 829              	.LBB345:
 830              	.LBB341:
 831              		.loc 1 270 0
 832 0440 0131     		adds	r1, r1, #1
 833              	.LVL89:
 834              		.loc 1 262 0
 835 0442 9942     		cmp	r1, r3
 836              		.loc 1 267 0
 837 0444 06F8010B 		strb	r0, [r6], #1
 838              	.LVL90:
 839              		.loc 1 268 0
 840 0448 4FEA1020 		lsr	r0, r0, #8
 841              	.LVL91:
 842              		.loc 1 262 0
 843 044c 7FF46FAE 		bne	.L32
 844 0450 79E6     		b	.L35
 845              	.LVL92:
 846              	.L335:
 847 0452 DDE900AB 		ldrd	r10, fp, [sp]
 848              	.LBE341:
 849              	.LBE345:
 850              	.LBE347:
 851              	.LBE402:
 852              		.loc 1 590 0
 853 0456 1BF4001F 		tst	fp, #2097152
 854 045a 3FF40BAE 		beq	.L22
 855 045e 13E7     		b	.L325
ARM GAS  /tmp/ccxvl19p.s 			page 16


 856              	.LVL93:
 857              	.L332:
 858              	.LBB403:
 859              	.LBB404:
 860              		.loc 1 371 0
 861 0460 666D     		ldr	r6, [r4, #84]
 862              	.LVL94:
 863              		.loc 1 372 0
 864 0462 D6F82879 		ldr	r7, [r6, #2344]
 865              	.LVL95:
 866              		.loc 1 374 0
 867 0466 C6F82879 		str	r7, [r6, #2344]
 868              		.loc 1 379 0
 869 046a FA07     		lsls	r2, r7, #31
 870 046c 13D5     		bpl	.L87
 871 046e D6F81038 		ldr	r3, [r6, #2064]
 872 0472 DB07     		lsls	r3, r3, #31
 873 0474 0FD5     		bpl	.L87
 874              	.LBB405:
 875              		.loc 1 381 0
 876 0476 2169     		ldr	r1, [r4, #16]
 877 0478 4B69     		ldr	r3, [r1, #20]
 878              	.LVL96:
 879              		.loc 1 383 0
 880 047a 1868     		ldr	r0, [r3]
 881 047c DA68     		ldr	r2, [r3, #12]
 882 047e 9042     		cmp	r0, r2
 883 0480 C0F08082 		bcc	.L340
 884              		.loc 1 395 0
 885 0484 2389     		ldrh	r3, [r4, #8]
 886              	.LVL97:
 887 0486 8A68     		ldr	r2, [r1, #8]
 888 0488 23F00203 		bic	r3, r3, #2
 889 048c 2381     		strh	r3, [r4, #8]	@ movhi
 890 048e 12B1     		cbz	r2, .L87
 891 0490 0121     		movs	r1, #1
 892              	.LVL98:
 893 0492 5648     		ldr	r0, .L349
 894 0494 9047     		blx	r2
 895              	.LVL99:
 896              	.L87:
 897              	.LBE405:
 898              		.loc 1 398 0
 899 0496 3F06     		lsls	r7, r7, #24
 900              	.LVL100:
 901 0498 7FF509AE 		bpl	.L96
 902              		.loc 1 399 0
 903 049c D6F83438 		ldr	r3, [r6, #2100]
 904              		.loc 1 398 0
 905 04a0 9807     		lsls	r0, r3, #30
 906 04a2 7FF504AE 		bpl	.L96
 907              	.LBB423:
 908              	.LBB424:
 909              		.loc 1 331 0
 910 04a6 2369     		ldr	r3, [r4, #16]
 911 04a8 D4F85480 		ldr	r8, [r4, #84]
 912 04ac D3F814C0 		ldr	ip, [r3, #20]
ARM GAS  /tmp/ccxvl19p.s 			page 17


 913 04b0 DCE900E7 		ldrd	lr, r7, [ip]
 914 04b4 BE45     		cmp	lr, r7
 915 04b6 40F2AE81 		bls	.L94
 916              		.loc 1 340 0
 917 04ba B3F81090 		ldrh	r9, [r3, #16]
 918              		.loc 1 345 0
 919 04be D8F83839 		ldr	r3, [r8, #2360]
 920              		.loc 1 339 0
 921 04c2 AEEB0701 		sub	r1, lr, r7
 922              	.LVL101:
 923 04c6 4945     		cmp	r1, r9
 924 04c8 28BF     		it	cs
 925 04ca 4946     		movcs	r1, r9
 926              	.LVL102:
 927              		.loc 1 345 0
 928 04cc 9BB2     		uxth	r3, r3
 929 04ce B1EB830F 		cmp	r1, r3, lsl #2
 930 04d2 3FF6ECAD 		bhi	.L96
 931 04d6 DCF80860 		ldr	r6, [ip, #8]
 932              	.LVL103:
 933 04da 08F50050 		add	r0, r8, #8192
 934 04de AA46     		mov	r10, r5
 935              	.LVL104:
 936              	.L95:
 937              	.LBB425:
 938              	.LBB426:
 939              		.loc 1 236 0
 940 04e0 3368     		ldr	r3, [r6]
 941 04e2 0360     		str	r3, [r0]
 942              		.loc 1 237 0
 943 04e4 0429     		cmp	r1, #4
 944 04e6 0AD9     		bls	.L97
 945 04e8 4A1F     		subs	r2, r1, #5
 946 04ea 22F00302 		bic	r2, r2, #3
 947 04ee 0432     		adds	r2, r2, #4
 948 04f0 3244     		add	r2, r2, r6
 949 04f2 3346     		mov	r3, r6
 950              	.LVL105:
 951              	.L98:
 952              		.loc 1 236 0
 953 04f4 53F8045F 		ldr	r5, [r3, #4]!
 954              	.LVL106:
 955 04f8 0560     		str	r5, [r0]
 956              		.loc 1 237 0
 957 04fa 9342     		cmp	r3, r2
 958 04fc FAD1     		bne	.L98
 959              	.LVL107:
 960              	.L97:
 961              	.LBE426:
 962              	.LBE425:
 963              		.loc 1 355 0
 964 04fe 0F44     		add	r7, r7, r1
 965              		.loc 1 354 0
 966 0500 0E44     		add	r6, r6, r1
 967              		.loc 1 331 0
 968 0502 7745     		cmp	r7, lr
 969              		.loc 1 355 0
ARM GAS  /tmp/ccxvl19p.s 			page 18


 970 0504 CCE90176 		strd	r7, r6, [ip, #4]
 971              		.loc 1 331 0
 972 0508 80F08481 		bcs	.L341
 973              		.loc 1 339 0
 974 050c AEEB0701 		sub	r1, lr, r7
 975              	.LVL108:
 976              		.loc 1 345 0
 977 0510 D8F83839 		ldr	r3, [r8, #2360]
 978 0514 4945     		cmp	r1, r9
 979 0516 9BB2     		uxth	r3, r3
 980 0518 28BF     		it	cs
 981 051a 4946     		movcs	r1, r9
 982              	.LVL109:
 983 051c B1EB830F 		cmp	r1, r3, lsl #2
 984 0520 DED9     		bls	.L95
 985 0522 5546     		mov	r5, r10
 986 0524 C3E5     		b	.L96
 987              	.LVL110:
 988              	.L331:
 989              	.LBE424:
 990              	.LBE423:
 991              	.LBE404:
 992              	.LBE403:
 993              	.LBB434:
 994              	.LBB435:
 995              		.loc 1 371 0
 996 0526 666D     		ldr	r6, [r4, #84]
 997              	.LVL111:
 998              		.loc 1 372 0
 999 0528 D6F80879 		ldr	r7, [r6, #2312]
 1000              	.LVL112:
 1001              		.loc 1 374 0
 1002 052c C6F80879 		str	r7, [r6, #2312]
 1003              		.loc 1 379 0
 1004 0530 FA07     		lsls	r2, r7, #31
 1005 0532 13D5     		bpl	.L70
 1006 0534 D6F81038 		ldr	r3, [r6, #2064]
 1007 0538 DB07     		lsls	r3, r3, #31
 1008 053a 0FD5     		bpl	.L70
 1009              	.LBB436:
 1010              		.loc 1 381 0
 1011 053c E168     		ldr	r1, [r4, #12]
 1012 053e 4B69     		ldr	r3, [r1, #20]
 1013              	.LVL113:
 1014              		.loc 1 383 0
 1015 0540 1868     		ldr	r0, [r3]
 1016 0542 DA68     		ldr	r2, [r3, #12]
 1017 0544 9042     		cmp	r0, r2
 1018 0546 C0F0E981 		bcc	.L342
 1019              		.loc 1 395 0
 1020 054a 2389     		ldrh	r3, [r4, #8]
 1021              	.LVL114:
 1022 054c 8A68     		ldr	r2, [r1, #8]
 1023 054e 23F00103 		bic	r3, r3, #1
 1024 0552 2381     		strh	r3, [r4, #8]	@ movhi
 1025 0554 12B1     		cbz	r2, .L70
 1026 0556 0021     		movs	r1, #0
ARM GAS  /tmp/ccxvl19p.s 			page 19


 1027              	.LVL115:
 1028 0558 2448     		ldr	r0, .L349
 1029 055a 9047     		blx	r2
 1030              	.LVL116:
 1031              	.L70:
 1032              	.LBE436:
 1033              		.loc 1 398 0
 1034 055c 3F06     		lsls	r7, r7, #24
 1035              	.LVL117:
 1036 055e 7FF5A3AD 		bpl	.L81
 1037              		.loc 1 399 0
 1038 0562 D6F83438 		ldr	r3, [r6, #2100]
 1039              		.loc 1 398 0
 1040 0566 D807     		lsls	r0, r3, #31
 1041 0568 7FF59EAD 		bpl	.L81
 1042              	.LBB454:
 1043              	.LBB455:
 1044              		.loc 1 331 0
 1045 056c E368     		ldr	r3, [r4, #12]
 1046 056e D4F85480 		ldr	r8, [r4, #84]
 1047 0572 D3F814C0 		ldr	ip, [r3, #20]
 1048 0576 DCE900E7 		ldrd	lr, r7, [ip]
 1049 057a 7745     		cmp	r7, lr
 1050 057c 80F05381 		bcs	.L79
 1051              		.loc 1 340 0
 1052 0580 B3F81090 		ldrh	r9, [r3, #16]
 1053              		.loc 1 345 0
 1054 0584 D8F81839 		ldr	r3, [r8, #2328]
 1055              		.loc 1 339 0
 1056 0588 AEEB0701 		sub	r1, lr, r7
 1057              	.LVL118:
 1058 058c 4945     		cmp	r1, r9
 1059 058e 28BF     		it	cs
 1060 0590 4946     		movcs	r1, r9
 1061              	.LVL119:
 1062              		.loc 1 345 0
 1063 0592 9BB2     		uxth	r3, r3
 1064 0594 B1EB830F 		cmp	r1, r3, lsl #2
 1065 0598 3FF686AD 		bhi	.L81
 1066 059c DCF80860 		ldr	r6, [ip, #8]
 1067              	.LVL120:
 1068 05a0 08F58050 		add	r0, r8, #4096
 1069 05a4 AA46     		mov	r10, r5
 1070              	.LVL121:
 1071              	.L80:
 1072              	.LBB456:
 1073              	.LBB457:
 1074              		.loc 1 236 0
 1075 05a6 3368     		ldr	r3, [r6]
 1076 05a8 0360     		str	r3, [r0]
 1077              		.loc 1 237 0
 1078 05aa 0429     		cmp	r1, #4
 1079 05ac 0AD9     		bls	.L82
 1080 05ae 4A1F     		subs	r2, r1, #5
 1081 05b0 22F00302 		bic	r2, r2, #3
 1082 05b4 0432     		adds	r2, r2, #4
 1083 05b6 3244     		add	r2, r2, r6
ARM GAS  /tmp/ccxvl19p.s 			page 20


 1084 05b8 3346     		mov	r3, r6
 1085              	.LVL122:
 1086              	.L83:
 1087              		.loc 1 236 0
 1088 05ba 53F8045F 		ldr	r5, [r3, #4]!
 1089              	.LVL123:
 1090 05be 0560     		str	r5, [r0]
 1091              		.loc 1 237 0
 1092 05c0 9A42     		cmp	r2, r3
 1093 05c2 FAD1     		bne	.L83
 1094              	.LVL124:
 1095              	.L82:
 1096              	.LBE457:
 1097              	.LBE456:
 1098              		.loc 1 355 0
 1099 05c4 0F44     		add	r7, r7, r1
 1100              		.loc 1 354 0
 1101 05c6 0E44     		add	r6, r6, r1
 1102              		.loc 1 331 0
 1103 05c8 7745     		cmp	r7, lr
 1104              		.loc 1 355 0
 1105 05ca CCE90176 		strd	r7, r6, [ip, #4]
 1106              		.loc 1 331 0
 1107 05ce 80F02981 		bcs	.L343
 1108              		.loc 1 339 0
 1109 05d2 AEEB0701 		sub	r1, lr, r7
 1110              	.LVL125:
 1111              		.loc 1 345 0
 1112 05d6 D8F81839 		ldr	r3, [r8, #2328]
 1113 05da 4945     		cmp	r1, r9
 1114 05dc 9BB2     		uxth	r3, r3
 1115 05de 28BF     		it	cs
 1116 05e0 4946     		movcs	r1, r9
 1117              	.LVL126:
 1118 05e2 B1EB830F 		cmp	r1, r3, lsl #2
 1119 05e6 DED9     		bls	.L80
 1120 05e8 5546     		mov	r5, r10
 1121 05ea 5DE5     		b	.L81
 1122              	.L350:
 1123              		.align	2
 1124              	.L349:
 1125 05ec 00000000 		.word	.LANCHOR0
 1126              	.LVL127:
 1127              	.L333:
 1128              	.LBE455:
 1129              	.LBE454:
 1130              	.LBE435:
 1131              	.LBE434:
 1132              	.LBB465:
 1133              	.LBB466:
 1134              		.loc 1 371 0
 1135 05f0 666D     		ldr	r6, [r4, #84]
 1136              	.LVL128:
 1137              		.loc 1 372 0
 1138 05f2 D6F84879 		ldr	r7, [r6, #2376]
 1139              	.LVL129:
 1140              		.loc 1 374 0
ARM GAS  /tmp/ccxvl19p.s 			page 21


 1141 05f6 C6F84879 		str	r7, [r6, #2376]
 1142              		.loc 1 379 0
 1143 05fa FA07     		lsls	r2, r7, #31
 1144 05fc 13D5     		bpl	.L102
 1145 05fe D6F81038 		ldr	r3, [r6, #2064]
 1146 0602 DB07     		lsls	r3, r3, #31
 1147 0604 0FD5     		bpl	.L102
 1148              	.LBB467:
 1149              		.loc 1 381 0
 1150 0606 6169     		ldr	r1, [r4, #20]
 1151 0608 4B69     		ldr	r3, [r1, #20]
 1152              	.LVL130:
 1153              		.loc 1 383 0
 1154 060a 1868     		ldr	r0, [r3]
 1155 060c DA68     		ldr	r2, [r3, #12]
 1156 060e 9042     		cmp	r0, r2
 1157 0610 C0F04D81 		bcc	.L344
 1158              		.loc 1 395 0
 1159 0614 2389     		ldrh	r3, [r4, #8]
 1160              	.LVL131:
 1161 0616 8A68     		ldr	r2, [r1, #8]
 1162 0618 23F00403 		bic	r3, r3, #4
 1163 061c 2381     		strh	r3, [r4, #8]	@ movhi
 1164 061e 12B1     		cbz	r2, .L102
 1165 0620 0221     		movs	r1, #2
 1166              	.LVL132:
 1167 0622 BD48     		ldr	r0, .L351
 1168 0624 9047     		blx	r2
 1169              	.LVL133:
 1170              	.L102:
 1171              	.LBE467:
 1172              		.loc 1 398 0
 1173 0626 3F06     		lsls	r7, r7, #24
 1174              	.LVL134:
 1175 0628 7FF544AD 		bpl	.L111
 1176              		.loc 1 399 0
 1177 062c D6F83438 		ldr	r3, [r6, #2100]
 1178              		.loc 1 398 0
 1179 0630 5E07     		lsls	r6, r3, #29
 1180              	.LVL135:
 1181 0632 7FF53FAD 		bpl	.L111
 1182              	.LBB485:
 1183              	.LBB486:
 1184              		.loc 1 331 0
 1185 0636 6369     		ldr	r3, [r4, #20]
 1186 0638 D4F85480 		ldr	r8, [r4, #84]
 1187 063c D3F814C0 		ldr	ip, [r3, #20]
 1188 0640 DCE900E7 		ldrd	lr, r7, [ip]
 1189 0644 BE45     		cmp	lr, r7
 1190 0646 40F2F680 		bls	.L109
 1191              		.loc 1 340 0
 1192 064a B3F81090 		ldrh	r9, [r3, #16]
 1193              		.loc 1 345 0
 1194 064e D8F85839 		ldr	r3, [r8, #2392]
 1195              		.loc 1 339 0
 1196 0652 AEEB0701 		sub	r1, lr, r7
 1197              	.LVL136:
ARM GAS  /tmp/ccxvl19p.s 			page 22


 1198 0656 4945     		cmp	r1, r9
 1199 0658 28BF     		it	cs
 1200 065a 4946     		movcs	r1, r9
 1201              	.LVL137:
 1202              		.loc 1 345 0
 1203 065c 9BB2     		uxth	r3, r3
 1204 065e B1EB830F 		cmp	r1, r3, lsl #2
 1205 0662 3FF627AD 		bhi	.L111
 1206 0666 DCF80860 		ldr	r6, [ip, #8]
 1207 066a 08F54050 		add	r0, r8, #12288
 1208 066e AA46     		mov	r10, r5
 1209              	.LVL138:
 1210              	.L110:
 1211              	.LBB487:
 1212              	.LBB488:
 1213              		.loc 1 236 0
 1214 0670 3368     		ldr	r3, [r6]
 1215 0672 0360     		str	r3, [r0]
 1216              		.loc 1 237 0
 1217 0674 0429     		cmp	r1, #4
 1218 0676 0AD9     		bls	.L112
 1219 0678 4A1F     		subs	r2, r1, #5
 1220 067a 22F00302 		bic	r2, r2, #3
 1221 067e 0432     		adds	r2, r2, #4
 1222 0680 3244     		add	r2, r2, r6
 1223 0682 3346     		mov	r3, r6
 1224              	.LVL139:
 1225              	.L113:
 1226              		.loc 1 236 0
 1227 0684 53F8045F 		ldr	r5, [r3, #4]!
 1228              	.LVL140:
 1229 0688 0560     		str	r5, [r0]
 1230              		.loc 1 237 0
 1231 068a 9342     		cmp	r3, r2
 1232 068c FAD1     		bne	.L113
 1233              	.LVL141:
 1234              	.L112:
 1235              	.LBE488:
 1236              	.LBE487:
 1237              		.loc 1 355 0
 1238 068e 0F44     		add	r7, r7, r1
 1239              		.loc 1 354 0
 1240 0690 0E44     		add	r6, r6, r1
 1241              		.loc 1 331 0
 1242 0692 7745     		cmp	r7, lr
 1243              		.loc 1 355 0
 1244 0694 CCE90176 		strd	r7, r6, [ip, #4]
 1245              		.loc 1 331 0
 1246 0698 80F0CC80 		bcs	.L345
 1247              		.loc 1 339 0
 1248 069c AEEB0701 		sub	r1, lr, r7
 1249              	.LVL142:
 1250              		.loc 1 345 0
 1251 06a0 D8F85839 		ldr	r3, [r8, #2392]
 1252 06a4 4945     		cmp	r1, r9
 1253 06a6 9BB2     		uxth	r3, r3
 1254 06a8 28BF     		it	cs
ARM GAS  /tmp/ccxvl19p.s 			page 23


 1255 06aa 4946     		movcs	r1, r9
 1256              	.LVL143:
 1257 06ac B1EB830F 		cmp	r1, r3, lsl #2
 1258 06b0 DED9     		bls	.L110
 1259 06b2 5546     		mov	r5, r10
 1260 06b4 FEE4     		b	.L111
 1261              	.LVL144:
 1262              	.L329:
 1263              	.LBE486:
 1264              	.LBE485:
 1265              	.LBE466:
 1266              	.LBE465:
 1267              	.LBB496:
 1268              	.LBB497:
 1269              		.loc 1 414 0
 1270 06b6 666D     		ldr	r6, [r4, #84]
 1271              	.LVL145:
 1272              		.loc 1 415 0
 1273 06b8 D6F8487B 		ldr	r7, [r6, #2888]
 1274              	.LVL146:
 1275              		.loc 1 418 0
 1276 06bc C6F8487B 		str	r7, [r6, #2888]
 1277              		.loc 1 420 0
 1278 06c0 3A07     		lsls	r2, r7, #28
 1279 06c2 08D5     		bpl	.L63
 1280 06c4 D6F81438 		ldr	r3, [r6, #2068]
 1281 06c8 1B07     		lsls	r3, r3, #28
 1282 06ca 04D5     		bpl	.L63
 1283              		.loc 1 423 0
 1284 06cc 6369     		ldr	r3, [r4, #20]
 1285 06ce 9248     		ldr	r0, .L351
 1286 06d0 5B68     		ldr	r3, [r3, #4]
 1287 06d2 0221     		movs	r1, #2
 1288 06d4 9847     		blx	r3
 1289              	.LVL147:
 1290              	.L63:
 1291              		.loc 1 426 0
 1292 06d6 FF07     		lsls	r7, r7, #31
 1293              	.LVL148:
 1294 06d8 7FF5DDAC 		bpl	.L62
 1295 06dc D6F81438 		ldr	r3, [r6, #2068]
 1296 06e0 D807     		lsls	r0, r3, #31
 1297 06e2 7FF5D8AC 		bpl	.L62
 1298              	.LBB498:
 1299              		.loc 1 430 0
 1300 06e6 6269     		ldr	r2, [r4, #20]
 1301              	.LVL149:
 1302              		.loc 1 459 0
 1303 06e8 6389     		ldrh	r3, [r4, #10]
 1304 06ea D268     		ldr	r2, [r2, #12]
 1305              	.LVL150:
 1306 06ec 23F00403 		bic	r3, r3, #4
 1307 06f0 6381     		strh	r3, [r4, #10]	@ movhi
 1308 06f2 002A     		cmp	r2, #0
 1309 06f4 3FF4CFAC 		beq	.L62
 1310 06f8 0221     		movs	r1, #2
 1311 06fa 8748     		ldr	r0, .L351
ARM GAS  /tmp/ccxvl19p.s 			page 24


 1312 06fc 9047     		blx	r2
 1313              	.LVL151:
 1314 06fe CAE4     		b	.L62
 1315              	.LVL152:
 1316              	.L328:
 1317              	.LBE498:
 1318              	.LBE497:
 1319              	.LBE496:
 1320              	.LBB499:
 1321              	.LBB500:
 1322              		.loc 1 414 0
 1323 0700 666D     		ldr	r6, [r4, #84]
 1324              	.LVL153:
 1325              		.loc 1 415 0
 1326 0702 D6F8287B 		ldr	r7, [r6, #2856]
 1327              	.LVL154:
 1328              		.loc 1 418 0
 1329 0706 C6F8287B 		str	r7, [r6, #2856]
 1330              		.loc 1 420 0
 1331 070a 3A07     		lsls	r2, r7, #28
 1332 070c 08D5     		bpl	.L59
 1333 070e D6F81438 		ldr	r3, [r6, #2068]
 1334 0712 1B07     		lsls	r3, r3, #28
 1335 0714 04D5     		bpl	.L59
 1336              		.loc 1 423 0
 1337 0716 2369     		ldr	r3, [r4, #16]
 1338 0718 7F48     		ldr	r0, .L351
 1339 071a 5B68     		ldr	r3, [r3, #4]
 1340 071c 0121     		movs	r1, #1
 1341 071e 9847     		blx	r3
 1342              	.LVL155:
 1343              	.L59:
 1344              		.loc 1 426 0
 1345 0720 FF07     		lsls	r7, r7, #31
 1346              	.LVL156:
 1347 0722 7FF5B5AC 		bpl	.L58
 1348 0726 D6F81438 		ldr	r3, [r6, #2068]
 1349 072a D807     		lsls	r0, r3, #31
 1350 072c 7FF5B0AC 		bpl	.L58
 1351              	.LBB501:
 1352              		.loc 1 430 0
 1353 0730 2269     		ldr	r2, [r4, #16]
 1354              	.LVL157:
 1355              		.loc 1 459 0
 1356 0732 6389     		ldrh	r3, [r4, #10]
 1357 0734 D268     		ldr	r2, [r2, #12]
 1358              	.LVL158:
 1359 0736 23F00203 		bic	r3, r3, #2
 1360 073a 6381     		strh	r3, [r4, #10]	@ movhi
 1361 073c 002A     		cmp	r2, #0
 1362 073e 3FF4A7AC 		beq	.L58
 1363 0742 0121     		movs	r1, #1
 1364 0744 7448     		ldr	r0, .L351
 1365 0746 9047     		blx	r2
 1366              	.LVL159:
 1367 0748 A2E4     		b	.L58
 1368              	.LVL160:
ARM GAS  /tmp/ccxvl19p.s 			page 25


 1369              	.L327:
 1370              	.LBE501:
 1371              	.LBE500:
 1372              	.LBE499:
 1373              	.LBB502:
 1374              	.LBB503:
 1375              		.loc 1 414 0
 1376 074a 666D     		ldr	r6, [r4, #84]
 1377              	.LVL161:
 1378              		.loc 1 415 0
 1379 074c D6F8087B 		ldr	r7, [r6, #2824]
 1380              	.LVL162:
 1381              		.loc 1 418 0
 1382 0750 C6F8087B 		str	r7, [r6, #2824]
 1383              		.loc 1 420 0
 1384 0754 3A07     		lsls	r2, r7, #28
 1385 0756 08D5     		bpl	.L51
 1386 0758 D6F81438 		ldr	r3, [r6, #2068]
 1387 075c 1B07     		lsls	r3, r3, #28
 1388 075e 04D5     		bpl	.L51
 1389              		.loc 1 423 0
 1390 0760 E368     		ldr	r3, [r4, #12]
 1391 0762 6D48     		ldr	r0, .L351
 1392 0764 5B68     		ldr	r3, [r3, #4]
 1393 0766 0021     		movs	r1, #0
 1394 0768 9847     		blx	r3
 1395              	.LVL163:
 1396              	.L51:
 1397              		.loc 1 426 0
 1398 076a FF07     		lsls	r7, r7, #31
 1399              	.LVL164:
 1400 076c 7FF58DAC 		bpl	.L50
 1401 0770 D6F81438 		ldr	r3, [r6, #2068]
 1402 0774 D807     		lsls	r0, r3, #31
 1403 0776 7FF588AC 		bpl	.L50
 1404              	.LBB504:
 1405              		.loc 1 430 0
 1406 077a E268     		ldr	r2, [r4, #12]
 1407 077c 9169     		ldr	r1, [r2, #24]
 1408              	.LVL165:
 1409              		.loc 1 447 0
 1410 077e 508A     		ldrh	r0, [r2, #18]
 1411 0780 4E68     		ldr	r6, [r1, #4]
 1412              	.LVL166:
 1413 0782 B6FBF0F3 		udiv	r3, r6, r0
 1414 0786 00FB1363 		mls	r3, r0, r3, r6
 1415 078a 23B9     		cbnz	r3, .L53
 1416              		.loc 1 448 0
 1417 078c 0E68     		ldr	r6, [r1]
 1418 078e C868     		ldr	r0, [r1, #12]
 1419              		.loc 1 447 0
 1420 0790 8642     		cmp	r6, r0
 1421 0792 C0F06A81 		bcc	.L346
 1422              	.L53:
 1423              		.loc 1 459 0
 1424 0796 6389     		ldrh	r3, [r4, #10]
 1425 0798 D268     		ldr	r2, [r2, #12]
ARM GAS  /tmp/ccxvl19p.s 			page 26


 1426 079a 23F00103 		bic	r3, r3, #1
 1427 079e 6381     		strh	r3, [r4, #10]	@ movhi
 1428 07a0 002A     		cmp	r2, #0
 1429 07a2 3FF472AC 		beq	.L50
 1430 07a6 0021     		movs	r1, #0
 1431              	.LVL167:
 1432 07a8 5B48     		ldr	r0, .L351
 1433 07aa 9047     		blx	r2
 1434              	.LVL168:
 1435 07ac 6DE4     		b	.L50
 1436              	.LVL169:
 1437              	.L339:
 1438 07ae 9342     		cmp	r3, r2
 1439 07b0 28BF     		it	cs
 1440 07b2 1346     		movcs	r3, r2
 1441              	.LVL170:
 1442 07b4 1F46     		mov	r7, r3
 1443              	.LVL171:
 1444              	.LBE504:
 1445              	.LBE503:
 1446              	.LBE502:
 1447              	.LBB521:
 1448              	.LBB348:
 1449              	.LBB346:
 1450              	.LBB344:
 1451              		.loc 1 259 0
 1452 07b6 0023     		movs	r3, #0
 1453              		.loc 1 260 0
 1454 07b8 1946     		mov	r1, r3
 1455              	.LVL172:
 1456              		.loc 1 264 0
 1457 07ba 05F5805C 		add	ip, r5, #4096
 1458              	.LVL173:
 1459              	.L40:
 1460              		.loc 1 263 0
 1461 07be 13F0030F 		tst	r3, #3
 1462 07c2 0CD1     		bne	.L41
 1463              		.loc 1 264 0
 1464 07c4 DCF80010 		ldr	r1, [ip]
 1465              	.LVL174:
 1466              		.loc 1 267 0
 1467 07c8 06F8011B 		strb	r1, [r6], #1
 1468              	.LVL175:
 1469              		.loc 1 270 0
 1470 07cc 0133     		adds	r3, r3, #1
 1471              	.LVL176:
 1472              		.loc 1 262 0
 1473 07ce BB42     		cmp	r3, r7
 1474              		.loc 1 268 0
 1475 07d0 4FEA1121 		lsr	r1, r1, #8
 1476              	.LVL177:
 1477              		.loc 1 262 0
 1478 07d4 F3D3     		bcc	.L40
 1479              	.L43:
 1480 07d6 9A42     		cmp	r2, r3
 1481 07d8 3FF61DAE 		bhi	.L39
 1482 07dc 25E6     		b	.L46
ARM GAS  /tmp/ccxvl19p.s 			page 27


 1483              	.LVL178:
 1484              	.L41:
 1485              		.loc 1 270 0
 1486 07de 0133     		adds	r3, r3, #1
 1487              	.LVL179:
 1488              		.loc 1 262 0
 1489 07e0 BB42     		cmp	r3, r7
 1490              		.loc 1 267 0
 1491 07e2 06F8011B 		strb	r1, [r6], #1
 1492              	.LVL180:
 1493              		.loc 1 268 0
 1494 07e6 4FEA1121 		lsr	r1, r1, #8
 1495              	.LVL181:
 1496              		.loc 1 262 0
 1497 07ea E8D3     		bcc	.L40
 1498 07ec F3E7     		b	.L43
 1499              	.LVL182:
 1500              	.L336:
 1501 07ee DDE90229 		ldrd	r2, r9, [sp, #8]
 1502              	.LVL183:
 1503              	.L15:
 1504              	.LBE344:
 1505              	.LBE346:
 1506              	.LBE348:
 1507              	.LBE521:
 1508              	.LBB522:
 1509              	.LBB365:
 1510              	.LBB364:
 1511              	.LBB363:
 1512              		.loc 1 333 0
 1513 07f2 D2F83438 		ldr	r3, [r2, #2100]
 1514 07f6 0121     		movs	r1, #1
 1515 07f8 01FA09F9 		lsl	r9, r1, r9
 1516 07fc 23EA0903 		bic	r3, r3, r9
 1517 0800 C2F83438 		str	r3, [r2, #2100]
 1518 0804 B5E4     		b	.L17
 1519              	.LVL184:
 1520              	.L123:
 1521              	.LBE363:
 1522              	.LBE364:
 1523              	.LBE365:
 1524              	.LBE522:
 1525              	.LBB523:
 1526              	.LBB396:
 1527              	.LBB393:
 1528              	.LBB392:
 1529 0806 DCF83438 		ldr	r3, [ip, #2100]
 1530 080a 23F00803 		bic	r3, r3, #8
 1531 080e CCF83438 		str	r3, [ip, #2100]
 1532 0812 52E4     		b	.L3
 1533              	.LVL185:
 1534              	.L341:
 1535 0814 5546     		mov	r5, r10
 1536              	.LVL186:
 1537              	.L94:
 1538              	.LBE392:
 1539              	.LBE393:
ARM GAS  /tmp/ccxvl19p.s 			page 28


 1540              	.LBE396:
 1541              	.LBE523:
 1542              	.LBB524:
 1543              	.LBB431:
 1544              	.LBB428:
 1545              	.LBB427:
 1546 0816 D8F83438 		ldr	r3, [r8, #2100]
 1547 081a 23F00203 		bic	r3, r3, #2
 1548 081e C8F83438 		str	r3, [r8, #2100]
 1549 0822 44E4     		b	.L96
 1550              	.LVL187:
 1551              	.L343:
 1552 0824 5546     		mov	r5, r10
 1553              	.LVL188:
 1554              	.L79:
 1555              	.LBE427:
 1556              	.LBE428:
 1557              	.LBE431:
 1558              	.LBE524:
 1559              	.LBB525:
 1560              	.LBB462:
 1561              	.LBB459:
 1562              	.LBB458:
 1563 0826 D8F83438 		ldr	r3, [r8, #2100]
 1564 082a 23F00103 		bic	r3, r3, #1
 1565 082e C8F83438 		str	r3, [r8, #2100]
 1566 0832 39E4     		b	.L81
 1567              	.LVL189:
 1568              	.L345:
 1569 0834 5546     		mov	r5, r10
 1570              	.LVL190:
 1571              	.L109:
 1572              	.LBE458:
 1573              	.LBE459:
 1574              	.LBE462:
 1575              	.LBE525:
 1576              	.LBB526:
 1577              	.LBB493:
 1578              	.LBB490:
 1579              	.LBB489:
 1580 0836 D8F83438 		ldr	r3, [r8, #2100]
 1581 083a 23F00403 		bic	r3, r3, #4
 1582 083e C8F83438 		str	r3, [r8, #2100]
 1583 0842 37E4     		b	.L111
 1584              	.LVL191:
 1585              	.L338:
 1586              	.LBE489:
 1587              	.LBE490:
 1588              	.LBE493:
 1589              	.LBE526:
 1590              	.LBB527:
 1591              	.LBB397:
 1592              	.LBB394:
 1593              		.loc 1 387 0
 1594 0844 121A     		subs	r2, r2, r0
 1595              		.loc 1 388 0
 1596 0846 0021     		movs	r1, #0
ARM GAS  /tmp/ccxvl19p.s 			page 29


 1597 0848 C3E90021 		strd	r2, r1, [r3]
 1598              	.LVL192:
 1599              	.LBB371:
 1600              	.LBB372:
 1601              	.LBB373:
 1602              	.LBB374:
 1603              	.LBB375:
 1604              	.LBB376:
 1605              		.file 3 "./RM18A-ChibiOS18-Core/chibios/os/common/ext/ARM/CMSIS/Core/Include/cmsis_gcc.h"
 1606              		.loc 3 493 0
 1607 084c 2023     		movs	r3, #32
 1608              	.LVL193:
 1609              		.syntax unified
 1610              	@ 493 "./RM18A-ChibiOS18-Core/chibios/os/common/ext/ARM/CMSIS/Core/Include/cmsis_gcc.h" 1
 1611 084e 83F31188 		MSR basepri, r3
 1612              	@ 0 "" 2
 1613              	.LVL194:
 1614              		.thumb
 1615              		.syntax unified
 1616              	.LBE376:
 1617              	.LBE375:
 1618              	.LBE374:
 1619              	.LBE373:
 1620              	.LBE372:
 1621              	.LBE371:
 1622              	.LBB377:
 1623              	.LBB378:
 1624              		.loc 1 1170 0
 1625 0852 A169     		ldr	r1, [r4, #24]
 1626 0854 4B69     		ldr	r3, [r1, #20]
 1627              	.LVL195:
 1628              		.loc 1 1173 0
 1629 0856 1A68     		ldr	r2, [r3]
 1630 0858 DA60     		str	r2, [r3, #12]
 1631              		.loc 1 1174 0
 1632 085a 002A     		cmp	r2, #0
 1633 085c 40F0C580 		bne	.L119
 1634              		.loc 1 1176 0
 1635 0860 636D     		ldr	r3, [r4, #84]
 1636              	.LVL196:
 1637 0862 4FF40022 		mov	r2, #524288
 1638 0866 C3F87029 		str	r2, [r3, #2416]
 1639              	.L120:
 1640              		.loc 1 1191 0
 1641 086a 0A68     		ldr	r2, [r1]
 1642 086c 02F00302 		and	r2, r2, #3
 1643 0870 012A     		cmp	r2, #1
 1644 0872 0CD1     		bne	.L121
 1645              		.loc 1 1193 0
 1646 0874 D3F80828 		ldr	r2, [r3, #2056]
 1647 0878 12F4807F 		tst	r2, #256
 1648              		.loc 1 1194 0
 1649 087c D3F86029 		ldr	r2, [r3, #2400]
 1650 0880 14BF     		ite	ne
 1651 0882 42F08052 		orrne	r2, r2, #268435456
 1652              		.loc 1 1196 0
 1653 0886 42F00052 		orreq	r2, r2, #536870912
ARM GAS  /tmp/ccxvl19p.s 			page 30


 1654 088a C3F86029 		str	r2, [r3, #2400]
 1655              	.L121:
 1656              		.loc 1 1200 0
 1657 088e D3F86029 		ldr	r2, [r3, #2400]
 1658 0892 42F00442 		orr	r2, r2, #-2080374784
 1659 0896 C3F86029 		str	r2, [r3, #2400]
 1660              		.loc 1 1201 0
 1661 089a D3F83428 		ldr	r2, [r3, #2100]
 1662 089e 42F00802 		orr	r2, r2, #8
 1663 08a2 C3F83428 		str	r2, [r3, #2100]
 1664              	.LVL197:
 1665              	.LBE378:
 1666              	.LBE377:
 1667              	.LBB381:
 1668              	.LBB382:
 1669              	.LBB383:
 1670              	.LBB384:
 1671              	.LBB385:
 1672              	.LBB386:
 1673              		.loc 3 493 0
 1674 08a6 0023     		movs	r3, #0
 1675              		.syntax unified
 1676              	@ 493 "./RM18A-ChibiOS18-Core/chibios/os/common/ext/ARM/CMSIS/Core/Include/cmsis_gcc.h" 1
 1677 08a8 83F31188 		MSR basepri, r3
 1678              	@ 0 "" 2
 1679              	.LVL198:
 1680              		.thumb
 1681              		.syntax unified
 1682 08ac 3DE5     		b	.L116
 1683              	.LVL199:
 1684              	.L344:
 1685              	.LBE386:
 1686              	.LBE385:
 1687              	.LBE384:
 1688              	.LBE383:
 1689              	.LBE382:
 1690              	.LBE381:
 1691              	.LBE394:
 1692              	.LBE397:
 1693              	.LBE527:
 1694              	.LBB528:
 1695              	.LBB494:
 1696              	.LBB491:
 1697              		.loc 1 387 0
 1698 08ae 121A     		subs	r2, r2, r0
 1699              		.loc 1 388 0
 1700 08b0 0021     		movs	r1, #0
 1701 08b2 C3E90021 		strd	r2, r1, [r3]
 1702              	.LVL200:
 1703              	.LBB468:
 1704              	.LBB469:
 1705              	.LBB470:
 1706              	.LBB471:
 1707              	.LBB472:
 1708              	.LBB473:
 1709              		.loc 3 493 0
 1710 08b6 2023     		movs	r3, #32
ARM GAS  /tmp/ccxvl19p.s 			page 31


 1711              	.LVL201:
 1712              		.syntax unified
 1713              	@ 493 "./RM18A-ChibiOS18-Core/chibios/os/common/ext/ARM/CMSIS/Core/Include/cmsis_gcc.h" 1
 1714 08b8 83F31188 		MSR basepri, r3
 1715              	@ 0 "" 2
 1716              	.LVL202:
 1717              		.thumb
 1718              		.syntax unified
 1719              	.LBE473:
 1720              	.LBE472:
 1721              	.LBE471:
 1722              	.LBE470:
 1723              	.LBE469:
 1724              	.LBE468:
 1725              	.LBB474:
 1726              	.LBB475:
 1727              		.loc 1 1170 0
 1728 08bc 6169     		ldr	r1, [r4, #20]
 1729 08be 4B69     		ldr	r3, [r1, #20]
 1730              	.LVL203:
 1731              		.loc 1 1173 0
 1732 08c0 1A68     		ldr	r2, [r3]
 1733 08c2 DA60     		str	r2, [r3, #12]
 1734              		.loc 1 1174 0
 1735 08c4 002A     		cmp	r2, #0
 1736 08c6 40F0C180 		bne	.L105
 1737              		.loc 1 1176 0
 1738 08ca 636D     		ldr	r3, [r4, #84]
 1739              	.LVL204:
 1740 08cc 4FF40022 		mov	r2, #524288
 1741 08d0 C3F85029 		str	r2, [r3, #2384]
 1742              	.L106:
 1743              		.loc 1 1191 0
 1744 08d4 0A68     		ldr	r2, [r1]
 1745 08d6 02F00302 		and	r2, r2, #3
 1746 08da 012A     		cmp	r2, #1
 1747 08dc 0CD1     		bne	.L107
 1748              		.loc 1 1193 0
 1749 08de D3F80828 		ldr	r2, [r3, #2056]
 1750 08e2 12F4807F 		tst	r2, #256
 1751              		.loc 1 1194 0
 1752 08e6 D3F84029 		ldr	r2, [r3, #2368]
 1753 08ea 14BF     		ite	ne
 1754 08ec 42F08052 		orrne	r2, r2, #268435456
 1755              		.loc 1 1196 0
 1756 08f0 42F00052 		orreq	r2, r2, #536870912
 1757 08f4 C3F84029 		str	r2, [r3, #2368]
 1758              	.L107:
 1759              		.loc 1 1200 0
 1760 08f8 D3F84029 		ldr	r2, [r3, #2368]
 1761 08fc 42F00442 		orr	r2, r2, #-2080374784
 1762 0900 C3F84029 		str	r2, [r3, #2368]
 1763              		.loc 1 1201 0
 1764 0904 D3F83428 		ldr	r2, [r3, #2100]
 1765 0908 42F00402 		orr	r2, r2, #4
 1766 090c C3F83428 		str	r2, [r3, #2100]
 1767              	.LVL205:
ARM GAS  /tmp/ccxvl19p.s 			page 32


 1768              	.LBE475:
 1769              	.LBE474:
 1770              	.LBB478:
 1771              	.LBB479:
 1772              	.LBB480:
 1773              	.LBB481:
 1774              	.LBB482:
 1775              	.LBB483:
 1776              		.loc 3 493 0
 1777 0910 0023     		movs	r3, #0
 1778              		.syntax unified
 1779              	@ 493 "./RM18A-ChibiOS18-Core/chibios/os/common/ext/ARM/CMSIS/Core/Include/cmsis_gcc.h" 1
 1780 0912 83F31188 		MSR basepri, r3
 1781              	@ 0 "" 2
 1782              	.LVL206:
 1783              		.thumb
 1784              		.syntax unified
 1785 0916 86E6     		b	.L102
 1786              	.L352:
 1787              		.align	2
 1788              	.L351:
 1789 0918 00000000 		.word	.LANCHOR0
 1790              	.LVL207:
 1791              	.L342:
 1792              	.LBE483:
 1793              	.LBE482:
 1794              	.LBE481:
 1795              	.LBE480:
 1796              	.LBE479:
 1797              	.LBE478:
 1798              	.LBE491:
 1799              	.LBE494:
 1800              	.LBE528:
 1801              	.LBB529:
 1802              	.LBB463:
 1803              	.LBB460:
 1804              		.loc 1 387 0
 1805 091c 121A     		subs	r2, r2, r0
 1806              		.loc 1 388 0
 1807 091e 0021     		movs	r1, #0
 1808 0920 C3E90021 		strd	r2, r1, [r3]
 1809              	.LVL208:
 1810              	.LBB437:
 1811              	.LBB438:
 1812              	.LBB439:
 1813              	.LBB440:
 1814              	.LBB441:
 1815              	.LBB442:
 1816              		.loc 3 493 0
 1817 0924 2023     		movs	r3, #32
 1818              	.LVL209:
 1819              		.syntax unified
 1820              	@ 493 "./RM18A-ChibiOS18-Core/chibios/os/common/ext/ARM/CMSIS/Core/Include/cmsis_gcc.h" 1
 1821 0926 83F31188 		MSR basepri, r3
 1822              	@ 0 "" 2
 1823              	.LVL210:
 1824              		.thumb
ARM GAS  /tmp/ccxvl19p.s 			page 33


 1825              		.syntax unified
 1826              	.LBE442:
 1827              	.LBE441:
 1828              	.LBE440:
 1829              	.LBE439:
 1830              	.LBE438:
 1831              	.LBE437:
 1832              	.LBB443:
 1833              	.LBB444:
 1834              		.loc 1 1170 0
 1835 092a E168     		ldr	r1, [r4, #12]
 1836 092c 4B69     		ldr	r3, [r1, #20]
 1837              	.LVL211:
 1838              		.loc 1 1173 0
 1839 092e 1A68     		ldr	r2, [r3]
 1840 0930 DA60     		str	r2, [r3, #12]
 1841              		.loc 1 1174 0
 1842 0932 002A     		cmp	r2, #0
 1843 0934 75D1     		bne	.L73
 1844              		.loc 1 1176 0
 1845 0936 636D     		ldr	r3, [r4, #84]
 1846              	.LVL212:
 1847 0938 4FF40022 		mov	r2, #524288
 1848 093c C3F81029 		str	r2, [r3, #2320]
 1849              	.L74:
 1850              		.loc 1 1191 0
 1851 0940 0A68     		ldr	r2, [r1]
 1852 0942 02F00302 		and	r2, r2, #3
 1853 0946 012A     		cmp	r2, #1
 1854 0948 0CD1     		bne	.L77
 1855              		.loc 1 1193 0
 1856 094a D3F80828 		ldr	r2, [r3, #2056]
 1857 094e 12F4807F 		tst	r2, #256
 1858              		.loc 1 1194 0
 1859 0952 D3F80029 		ldr	r2, [r3, #2304]
 1860 0956 14BF     		ite	ne
 1861 0958 42F08052 		orrne	r2, r2, #268435456
 1862              		.loc 1 1196 0
 1863 095c 42F00052 		orreq	r2, r2, #536870912
 1864 0960 C3F80029 		str	r2, [r3, #2304]
 1865              	.L77:
 1866              		.loc 1 1200 0
 1867 0964 D3F80029 		ldr	r2, [r3, #2304]
 1868 0968 42F00442 		orr	r2, r2, #-2080374784
 1869 096c C3F80029 		str	r2, [r3, #2304]
 1870              		.loc 1 1201 0
 1871 0970 D3F83428 		ldr	r2, [r3, #2100]
 1872 0974 42F00102 		orr	r2, r2, #1
 1873 0978 C3F83428 		str	r2, [r3, #2100]
 1874              	.LVL213:
 1875              	.LBE444:
 1876              	.LBE443:
 1877              	.LBB447:
 1878              	.LBB448:
 1879              	.LBB449:
 1880              	.LBB450:
 1881              	.LBB451:
ARM GAS  /tmp/ccxvl19p.s 			page 34


 1882              	.LBB452:
 1883              		.loc 3 493 0
 1884 097c 0023     		movs	r3, #0
 1885              		.syntax unified
 1886              	@ 493 "./RM18A-ChibiOS18-Core/chibios/os/common/ext/ARM/CMSIS/Core/Include/cmsis_gcc.h" 1
 1887 097e 83F31188 		MSR basepri, r3
 1888              	@ 0 "" 2
 1889              	.LVL214:
 1890              		.thumb
 1891              		.syntax unified
 1892 0982 EBE5     		b	.L70
 1893              	.LVL215:
 1894              	.L340:
 1895              	.LBE452:
 1896              	.LBE451:
 1897              	.LBE450:
 1898              	.LBE449:
 1899              	.LBE448:
 1900              	.LBE447:
 1901              	.LBE460:
 1902              	.LBE463:
 1903              	.LBE529:
 1904              	.LBB530:
 1905              	.LBB432:
 1906              	.LBB429:
 1907              		.loc 1 387 0
 1908 0984 121A     		subs	r2, r2, r0
 1909              		.loc 1 388 0
 1910 0986 0021     		movs	r1, #0
 1911 0988 C3E90021 		strd	r2, r1, [r3]
 1912              	.LVL216:
 1913              	.LBB406:
 1914              	.LBB407:
 1915              	.LBB408:
 1916              	.LBB409:
 1917              	.LBB410:
 1918              	.LBB411:
 1919              		.loc 3 493 0
 1920 098c 2023     		movs	r3, #32
 1921              	.LVL217:
 1922              		.syntax unified
 1923              	@ 493 "./RM18A-ChibiOS18-Core/chibios/os/common/ext/ARM/CMSIS/Core/Include/cmsis_gcc.h" 1
 1924 098e 83F31188 		MSR basepri, r3
 1925              	@ 0 "" 2
 1926              	.LVL218:
 1927              		.thumb
 1928              		.syntax unified
 1929              	.LBE411:
 1930              	.LBE410:
 1931              	.LBE409:
 1932              	.LBE408:
 1933              	.LBE407:
 1934              	.LBE406:
 1935              	.LBB412:
 1936              	.LBB413:
 1937              		.loc 1 1170 0
 1938 0992 2169     		ldr	r1, [r4, #16]
ARM GAS  /tmp/ccxvl19p.s 			page 35


 1939 0994 4B69     		ldr	r3, [r1, #20]
 1940              	.LVL219:
 1941              		.loc 1 1173 0
 1942 0996 1A68     		ldr	r2, [r3]
 1943 0998 DA60     		str	r2, [r3, #12]
 1944              		.loc 1 1174 0
 1945 099a 9ABB     		cbnz	r2, .L90
 1946              		.loc 1 1176 0
 1947 099c 636D     		ldr	r3, [r4, #84]
 1948              	.LVL220:
 1949 099e 4FF40022 		mov	r2, #524288
 1950 09a2 C3F83029 		str	r2, [r3, #2352]
 1951              	.L91:
 1952              		.loc 1 1191 0
 1953 09a6 0A68     		ldr	r2, [r1]
 1954 09a8 02F00302 		and	r2, r2, #3
 1955 09ac 012A     		cmp	r2, #1
 1956 09ae 0CD1     		bne	.L92
 1957              		.loc 1 1193 0
 1958 09b0 D3F80828 		ldr	r2, [r3, #2056]
 1959 09b4 12F4807F 		tst	r2, #256
 1960              		.loc 1 1194 0
 1961 09b8 D3F82029 		ldr	r2, [r3, #2336]
 1962 09bc 14BF     		ite	ne
 1963 09be 42F08052 		orrne	r2, r2, #268435456
 1964              		.loc 1 1196 0
 1965 09c2 42F00052 		orreq	r2, r2, #536870912
 1966 09c6 C3F82029 		str	r2, [r3, #2336]
 1967              	.L92:
 1968              		.loc 1 1200 0
 1969 09ca D3F82029 		ldr	r2, [r3, #2336]
 1970 09ce 42F00442 		orr	r2, r2, #-2080374784
 1971 09d2 C3F82029 		str	r2, [r3, #2336]
 1972              		.loc 1 1201 0
 1973 09d6 D3F83428 		ldr	r2, [r3, #2100]
 1974 09da 42F00202 		orr	r2, r2, #2
 1975 09de C3F83428 		str	r2, [r3, #2100]
 1976              	.LVL221:
 1977              	.LBE413:
 1978              	.LBE412:
 1979              	.LBB416:
 1980              	.LBB417:
 1981              	.LBB418:
 1982              	.LBB419:
 1983              	.LBB420:
 1984              	.LBB421:
 1985              		.loc 3 493 0
 1986 09e2 0023     		movs	r3, #0
 1987              		.syntax unified
 1988              	@ 493 "./RM18A-ChibiOS18-Core/chibios/os/common/ext/ARM/CMSIS/Core/Include/cmsis_gcc.h" 1
 1989 09e4 83F31188 		MSR basepri, r3
 1990              	@ 0 "" 2
 1991              	.LVL222:
 1992              		.thumb
 1993              		.syntax unified
 1994 09e8 55E5     		b	.L87
 1995              	.LVL223:
ARM GAS  /tmp/ccxvl19p.s 			page 36


 1996              	.L119:
 1997              	.LBE421:
 1998              	.LBE420:
 1999              	.LBE419:
 2000              	.LBE418:
 2001              	.LBE417:
 2002              	.LBE416:
 2003              	.LBE429:
 2004              	.LBE432:
 2005              	.LBE530:
 2006              	.LBB531:
 2007              	.LBB398:
 2008              	.LBB395:
 2009              	.LBB387:
 2010              	.LBB380:
 2011              	.LBB379:
 2012              		.loc 1 1183 0
 2013 09ea 0F8A     		ldrh	r7, [r1, #16]
 2014              	.LVL224:
 2015              		.loc 1 1186 0
 2016 09ec 636D     		ldr	r3, [r4, #84]
 2017              	.LVL225:
 2018              		.loc 1 1183 0
 2019 09ee D019     		adds	r0, r2, r7
 2020              		.loc 1 1186 0
 2021 09f0 42F00052 		orr	r2, r2, #536870912
 2022              	.LVL226:
 2023              		.loc 1 1183 0
 2024 09f4 0138     		subs	r0, r0, #1
 2025 09f6 B0FBF7F0 		udiv	r0, r0, r7
 2026              	.LVL227:
 2027              		.loc 1 1186 0
 2028 09fa 42EAC042 		orr	r2, r2, r0, lsl #19
 2029 09fe C3F87029 		str	r2, [r3, #2416]
 2030 0a02 32E7     		b	.L120
 2031              	.LVL228:
 2032              	.L90:
 2033              	.LBE379:
 2034              	.LBE380:
 2035              	.LBE387:
 2036              	.LBE395:
 2037              	.LBE398:
 2038              	.LBE531:
 2039              	.LBB532:
 2040              	.LBB433:
 2041              	.LBB430:
 2042              	.LBB422:
 2043              	.LBB415:
 2044              	.LBB414:
 2045              		.loc 1 1183 0
 2046 0a04 B1F810C0 		ldrh	ip, [r1, #16]
 2047              	.LVL229:
 2048              		.loc 1 1186 0
 2049 0a08 636D     		ldr	r3, [r4, #84]
 2050              	.LVL230:
 2051              		.loc 1 1183 0
 2052 0a0a 02EB0C00 		add	r0, r2, ip
ARM GAS  /tmp/ccxvl19p.s 			page 37


 2053              		.loc 1 1186 0
 2054 0a0e 42F00052 		orr	r2, r2, #536870912
 2055              	.LVL231:
 2056              		.loc 1 1183 0
 2057 0a12 0138     		subs	r0, r0, #1
 2058 0a14 B0FBFCF0 		udiv	r0, r0, ip
 2059              	.LVL232:
 2060              		.loc 1 1186 0
 2061 0a18 42EAC042 		orr	r2, r2, r0, lsl #19
 2062 0a1c C3F83029 		str	r2, [r3, #2352]
 2063 0a20 C1E7     		b	.L91
 2064              	.LVL233:
 2065              	.L73:
 2066              	.LBE414:
 2067              	.LBE415:
 2068              	.LBE422:
 2069              	.LBE430:
 2070              	.LBE433:
 2071              	.LBE532:
 2072              	.LBB533:
 2073              	.LBB464:
 2074              	.LBB461:
 2075              	.LBB453:
 2076              	.LBB446:
 2077              	.LBB445:
 2078              		.loc 1 1179 0
 2079 0a22 402A     		cmp	r2, #64
 2080              		.loc 1 1183 0
 2081 0a24 B1F810E0 		ldrh	lr, [r1, #16]
 2082              		.loc 1 1180 0
 2083 0a28 85BF     		ittet	hi
 2084 0a2a DFF8B8C0 		ldrhi	ip, .L353
 2085 0a2e 4022     		movhi	r2, #64
 2086              	.LVL234:
 2087 0a30 42F0005C 		orrls	ip, r2, #536870912
 2088 0a34 1A60     		strhi	r2, [r3]
 2089              		.loc 1 1183 0
 2090 0a36 0EF1FF30 		add	r0, lr, #-1
 2091              		.loc 1 1186 0
 2092 0a3a 636D     		ldr	r3, [r4, #84]
 2093              	.LVL235:
 2094              		.loc 1 1183 0
 2095 0a3c 0244     		add	r2, r2, r0
 2096              	.LVL236:
 2097 0a3e B2FBFEF2 		udiv	r2, r2, lr
 2098              		.loc 1 1186 0
 2099 0a42 4CEAC242 		orr	r2, ip, r2, lsl #19
 2100 0a46 C3F81029 		str	r2, [r3, #2320]
 2101 0a4a 79E7     		b	.L74
 2102              	.LVL237:
 2103              	.L105:
 2104              	.LBE445:
 2105              	.LBE446:
 2106              	.LBE453:
 2107              	.LBE461:
 2108              	.LBE464:
 2109              	.LBE533:
ARM GAS  /tmp/ccxvl19p.s 			page 38


 2110              	.LBB534:
 2111              	.LBB495:
 2112              	.LBB492:
 2113              	.LBB484:
 2114              	.LBB477:
 2115              	.LBB476:
 2116              		.loc 1 1183 0
 2117 0a4c B1F810C0 		ldrh	ip, [r1, #16]
 2118              	.LVL238:
 2119              		.loc 1 1186 0
 2120 0a50 636D     		ldr	r3, [r4, #84]
 2121              	.LVL239:
 2122              		.loc 1 1183 0
 2123 0a52 02EB0C00 		add	r0, r2, ip
 2124              		.loc 1 1186 0
 2125 0a56 42F00052 		orr	r2, r2, #536870912
 2126              	.LVL240:
 2127              		.loc 1 1183 0
 2128 0a5a 0138     		subs	r0, r0, #1
 2129 0a5c B0FBFCF0 		udiv	r0, r0, ip
 2130              	.LVL241:
 2131              		.loc 1 1186 0
 2132 0a60 42EAC042 		orr	r2, r2, r0, lsl #19
 2133 0a64 C3F85029 		str	r2, [r3, #2384]
 2134 0a68 34E7     		b	.L106
 2135              	.LVL242:
 2136              	.L346:
 2137              	.LBE476:
 2138              	.LBE477:
 2139              	.LBE484:
 2140              	.LBE492:
 2141              	.LBE495:
 2142              	.LBE534:
 2143              	.LBB535:
 2144              	.LBB520:
 2145              	.LBB519:
 2146              		.loc 1 449 0
 2147 0a6a 801B     		subs	r0, r0, r6
 2148              		.loc 1 450 0
 2149 0a6c C1E90003 		strd	r0, r3, [r1]
 2150              	.LVL243:
 2151              	.LBB505:
 2152              	.LBB506:
 2153              	.LBB507:
 2154              	.LBB508:
 2155              	.LBB509:
 2156              	.LBB510:
 2157              		.loc 3 493 0
 2158 0a70 2023     		movs	r3, #32
 2159              		.syntax unified
 2160              	@ 493 "./RM18A-ChibiOS18-Core/chibios/os/common/ext/ARM/CMSIS/Core/Include/cmsis_gcc.h" 1
 2161 0a72 83F31188 		MSR basepri, r3
 2162              	@ 0 "" 2
 2163              	.LVL244:
 2164              		.thumb
 2165              		.syntax unified
 2166              	.LBE510:
ARM GAS  /tmp/ccxvl19p.s 			page 39


 2167              	.LBE509:
 2168              	.LBE508:
 2169              	.LBE507:
 2170              	.LBE506:
 2171              	.LBE505:
 2172              	.LBB511:
 2173              	.LBB512:
 2174              		.loc 1 1128 0
 2175 0a76 E268     		ldr	r2, [r4, #12]
 2176 0a78 9369     		ldr	r3, [r2, #24]
 2177              	.LVL245:
 2178              		.loc 1 1149 0
 2179 0a7a 1668     		ldr	r6, [r2]
 2180              		.loc 1 1131 0
 2181 0a7c 1968     		ldr	r1, [r3]
 2182              	.LVL246:
 2183 0a7e D960     		str	r1, [r3, #12]
 2184              		.loc 1 1132 0
 2185 0a80 4029     		cmp	r1, #64
 2186              		.loc 1 1133 0
 2187 0a82 84BF     		itt	hi
 2188 0a84 4021     		movhi	r1, #64
 2189 0a86 1960     		strhi	r1, [r3]
 2190              		.loc 1 1140 0
 2191 0a88 538A     		ldrh	r3, [r2, #18]
 2192              	.LVL247:
 2193              		.loc 1 1145 0
 2194 0a8a 626D     		ldr	r2, [r4, #84]
 2195              	.LVL248:
 2196              		.loc 1 1140 0
 2197 0a8c 581E     		subs	r0, r3, #1
 2198 0a8e 0144     		add	r1, r1, r0
 2199 0a90 B1FBF3F1 		udiv	r1, r1, r3
 2200              	.LVL249:
 2201              		.loc 1 1142 0
 2202 0a94 01FB03F3 		mul	r3, r1, r3
 2203              	.LVL250:
 2204 0a98 0333     		adds	r3, r3, #3
 2205 0a9a 23F00303 		bic	r3, r3, #3
 2206              	.LVL251:
 2207              		.loc 1 1145 0
 2208 0a9e 43EAC143 		orr	r3, r3, r1, lsl #19
 2209              	.LVL252:
 2210              		.loc 1 1149 0
 2211 0aa2 06F00301 		and	r1, r6, #3
 2212              	.LVL253:
 2213              		.loc 1 1145 0
 2214 0aa6 43F0C043 		orr	r3, r3, #1610612736
 2215              		.loc 1 1149 0
 2216 0aaa 0129     		cmp	r1, #1
 2217              	.LVL254:
 2218              		.loc 1 1145 0
 2219 0aac C2F8103B 		str	r3, [r2, #2832]
 2220              		.loc 1 1149 0
 2221 0ab0 0CD1     		bne	.L55
 2222              		.loc 1 1151 0
 2223 0ab2 D2F80838 		ldr	r3, [r2, #2056]
ARM GAS  /tmp/ccxvl19p.s 			page 40


 2224 0ab6 13F4807F 		tst	r3, #256
 2225              		.loc 1 1152 0
 2226 0aba D2F8003B 		ldr	r3, [r2, #2816]
 2227 0abe 14BF     		ite	ne
 2228 0ac0 43F08053 		orrne	r3, r3, #268435456
 2229              		.loc 1 1154 0
 2230 0ac4 43F00053 		orreq	r3, r3, #536870912
 2231 0ac8 C2F8003B 		str	r3, [r2, #2816]
 2232              	.L55:
 2233              		.loc 1 1158 0
 2234 0acc D2F8003B 		ldr	r3, [r2, #2816]
 2235 0ad0 43F00443 		orr	r3, r3, #-2080374784
 2236 0ad4 C2F8003B 		str	r3, [r2, #2816]
 2237              	.LVL255:
 2238              	.LBE512:
 2239              	.LBE511:
 2240              	.LBB513:
 2241              	.LBB514:
 2242              	.LBB515:
 2243              	.LBB516:
 2244              	.LBB517:
 2245              	.LBB518:
 2246              		.loc 3 493 0
 2247 0ad8 0023     		movs	r3, #0
 2248              		.syntax unified
 2249              	@ 493 "./RM18A-ChibiOS18-Core/chibios/os/common/ext/ARM/CMSIS/Core/Include/cmsis_gcc.h" 1
 2250 0ada 83F31188 		MSR basepri, r3
 2251              	@ 0 "" 2
 2252              	.LVL256:
 2253              		.thumb
 2254              		.syntax unified
 2255 0ade FFF7D4BA 		b	.L50
 2256              	.L354:
 2257 0ae2 00BF     		.align	2
 2258              	.L353:
 2259 0ae4 40000020 		.word	536870976
 2260              	.LBE518:
 2261              	.LBE517:
 2262              	.LBE516:
 2263              	.LBE515:
 2264              	.LBE514:
 2265              	.LBE513:
 2266              	.LBE519:
 2267              	.LBE520:
 2268              	.LBE535:
 2269              	.LBE538:
 2270              	.LBE541:
 2271              		.cfi_endproc
 2272              	.LFE342:
 2273              		.size	Vector14C, .-Vector14C
 2274              		.section	.text.usb_lld_init,"ax",%progbits
 2275              		.align	1
 2276              		.p2align 2,,3
 2277              		.global	usb_lld_init
 2278              		.syntax unified
 2279              		.thumb
 2280              		.thumb_func
ARM GAS  /tmp/ccxvl19p.s 			page 41


 2281              		.fpu fpv4-sp-d16
 2282              		.type	usb_lld_init, %function
 2283              	usb_lld_init:
 2284              	.LFB343:
 2285              		.loc 1 709 0
 2286              		.cfi_startproc
 2287              		@ args = 0, pretend = 0, frame = 0
 2288              		@ frame_needed = 0, uses_anonymous_args = 0
 2289 0000 10B5     		push	{r4, lr}
 2290              		.cfi_def_cfa_offset 8
 2291              		.cfi_offset 4, -8
 2292              		.cfi_offset 14, -4
 2293              		.loc 1 713 0
 2294 0002 054C     		ldr	r4, .L357
 2295 0004 2046     		mov	r0, r4
 2296 0006 FFF7FEFF 		bl	usbObjectInit
 2297              	.LVL257:
 2298              		.loc 1 715 0
 2299 000a 044B     		ldr	r3, .L357+4
 2300              		.loc 1 714 0
 2301 000c 4FF0A042 		mov	r2, #1342177280
 2302              		.loc 1 715 0
 2303 0010 C4E91523 		strd	r2, r3, [r4, #84]
 2304              		.loc 1 724 0
 2305 0014 10BD     		pop	{r4, pc}
 2306              	.L358:
 2307 0016 00BF     		.align	2
 2308              	.L357:
 2309 0018 00000000 		.word	.LANCHOR0
 2310 001c 00000000 		.word	.LANCHOR1
 2311              		.cfi_endproc
 2312              	.LFE343:
 2313              		.size	usb_lld_init, .-usb_lld_init
 2314              		.section	.text.usb_lld_start,"ax",%progbits
 2315              		.align	1
 2316              		.p2align 2,,3
 2317              		.global	usb_lld_start
 2318              		.syntax unified
 2319              		.thumb
 2320              		.thumb_func
 2321              		.fpu fpv4-sp-d16
 2322              		.type	usb_lld_start, %function
 2323              	usb_lld_start:
 2324              	.LFB344:
 2325              		.loc 1 736 0
 2326              		.cfi_startproc
 2327              		@ args = 0, pretend = 0, frame = 0
 2328              		@ frame_needed = 0, uses_anonymous_args = 0
 2329              	.LVL258:
 2330              		.loc 1 739 0
 2331 0000 0378     		ldrb	r3, [r0]	@ zero_extendqisi2
 2332 0002 012B     		cmp	r3, #1
 2333 0004 00D0     		beq	.L418
 2334 0006 7047     		bx	lr
 2335              	.L418:
 2336              		.loc 1 743 0
 2337 0008 A24B     		ldr	r3, .L421
ARM GAS  /tmp/ccxvl19p.s 			page 42


 2338 000a 9842     		cmp	r0, r3
 2339              		.loc 1 736 0
 2340 000c 70B5     		push	{r4, r5, r6, lr}
 2341              		.cfi_def_cfa_offset 16
 2342              		.cfi_offset 4, -16
 2343              		.cfi_offset 5, -12
 2344              		.cfi_offset 6, -8
 2345              		.cfi_offset 14, -4
 2346 000e 0646     		mov	r6, r0
 2347              		.loc 1 737 0
 2348 0010 456D     		ldr	r5, [r0, #84]
 2349              		.loc 1 743 0
 2350 0012 00F02081 		beq	.L419
 2351              		.loc 1 737 0
 2352 0016 2C46     		mov	r4, r5
 2353              	.LVL259:
 2354              	.L361:
 2355              		.loc 1 808 0
 2356 0018 0021     		movs	r1, #0
 2357              		.loc 1 811 0
 2358 001a C022     		movs	r2, #192
 2359              		.loc 1 826 0
 2360 001c 4FF43413 		mov	r3, #2949120
 2361              		.loc 1 808 0
 2362 0020 C5F8001E 		str	r1, [r5, #3584]
 2363              		.loc 1 811 0
 2364 0024 2A60     		str	r2, [r5]
 2365              		.loc 1 826 0
 2366 0026 AB63     		str	r3, [r5, #56]
 2367              	.LVL260:
 2368              	.L362:
 2369              	.LBB550:
 2370              	.LBB551:
 2371              		.loc 1 138 0
 2372 0028 2369     		ldr	r3, [r4, #16]
 2373 002a 002B     		cmp	r3, #0
 2374 002c FCDA     		bge	.L362
 2375              		.loc 1 142 0
 2376 002e 0123     		movs	r3, #1
 2377 0030 2361     		str	r3, [r4, #16]
 2378              	.LVL261:
 2379              	.LBB552:
 2380              	.LBB553:
 2381              		.loc 2 591 0
 2382 0032 0C20     		movs	r0, #12
 2383 0034 FFF7FEFF 		bl	chSysPolledDelayX
 2384              	.LVL262:
 2385              	.L363:
 2386              	.LBE553:
 2387              	.LBE552:
 2388              		.loc 1 144 0
 2389 0038 2369     		ldr	r3, [r4, #16]
 2390 003a DB07     		lsls	r3, r3, #31
 2391 003c FCD4     		bmi	.L363
 2392              	.LVL263:
 2393              	.LBB554:
 2394              	.LBB555:
ARM GAS  /tmp/ccxvl19p.s 			page 43


 2395              		.loc 2 591 0
 2396 003e 1220     		movs	r0, #18
 2397 0040 FFF7FEFF 		bl	chSysPolledDelayX
 2398              	.LVL264:
 2399              	.L364:
 2400              	.LBE555:
 2401              	.LBE554:
 2402              		.loc 1 150 0
 2403 0044 2369     		ldr	r3, [r4, #16]
 2404 0046 002B     		cmp	r3, #0
 2405 0048 FCDA     		bge	.L364
 2406              	.LBE551:
 2407              	.LBE550:
 2408              		.loc 1 836 0
 2409 004a D6E91532 		ldrd	r3, r2, [r6, #84]
 2410              	.LVL265:
 2411              	.LBB556:
 2412              	.LBB557:
 2413              		.loc 1 158 0
 2414 004e 9468     		ldr	r4, [r2, #8]
 2415              		.loc 1 161 0
 2416 0050 4FF0FF31 		mov	r1, #-1
 2417              	.LBE557:
 2418              	.LBE556:
 2419              		.loc 1 833 0
 2420 0054 0022     		movs	r2, #0
 2421 0056 AA60     		str	r2, [r5, #8]
 2422              	.LBB561:
 2423              	.LBB558:
 2424              		.loc 1 159 0
 2425 0058 C3F80029 		str	r2, [r3, #2304]
 2426              		.loc 1 160 0
 2427 005c C3F81029 		str	r2, [r3, #2320]
 2428              		.loc 1 161 0
 2429 0060 C3F80819 		str	r1, [r3, #2312]
 2430              		.loc 1 163 0
 2431 0064 C3F8002B 		str	r2, [r3, #2816]
 2432              		.loc 1 164 0
 2433 0068 C3F8102B 		str	r2, [r3, #2832]
 2434              		.loc 1 165 0
 2435 006c C3F8081B 		str	r1, [r3, #2824]
 2436              	.LVL266:
 2437              		.loc 1 158 0
 2438 0070 002C     		cmp	r4, #0
 2439 0072 00F0D580 		beq	.L365
 2440 0076 012C     		cmp	r4, #1
 2441              		.loc 1 159 0
 2442 0078 C3F82029 		str	r2, [r3, #2336]
 2443              		.loc 1 160 0
 2444 007c C3F83029 		str	r2, [r3, #2352]
 2445              		.loc 1 161 0
 2446 0080 C3F82819 		str	r1, [r3, #2344]
 2447              		.loc 1 163 0
 2448 0084 C3F8202B 		str	r2, [r3, #2848]
 2449              		.loc 1 164 0
 2450 0088 C3F8302B 		str	r2, [r3, #2864]
 2451              		.loc 1 165 0
ARM GAS  /tmp/ccxvl19p.s 			page 44


 2452 008c C3F8281B 		str	r1, [r3, #2856]
 2453              	.LVL267:
 2454              		.loc 1 158 0
 2455 0090 40F2C680 		bls	.L365
 2456 0094 022C     		cmp	r4, #2
 2457              		.loc 1 159 0
 2458 0096 C3F84029 		str	r2, [r3, #2368]
 2459              		.loc 1 160 0
 2460 009a C3F85029 		str	r2, [r3, #2384]
 2461              		.loc 1 161 0
 2462 009e C3F84819 		str	r1, [r3, #2376]
 2463              		.loc 1 163 0
 2464 00a2 C3F8402B 		str	r2, [r3, #2880]
 2465              		.loc 1 164 0
 2466 00a6 C3F8502B 		str	r2, [r3, #2896]
 2467              		.loc 1 165 0
 2468 00aa C3F8481B 		str	r1, [r3, #2888]
 2469              	.LVL268:
 2470              		.loc 1 158 0
 2471 00ae 00F0B780 		beq	.L365
 2472 00b2 032C     		cmp	r4, #3
 2473              		.loc 1 159 0
 2474 00b4 C3F86029 		str	r2, [r3, #2400]
 2475              		.loc 1 160 0
 2476 00b8 C3F87029 		str	r2, [r3, #2416]
 2477              		.loc 1 161 0
 2478 00bc C3F86819 		str	r1, [r3, #2408]
 2479              		.loc 1 163 0
 2480 00c0 C3F8602B 		str	r2, [r3, #2912]
 2481              		.loc 1 164 0
 2482 00c4 C3F8702B 		str	r2, [r3, #2928]
 2483              		.loc 1 165 0
 2484 00c8 C3F8681B 		str	r1, [r3, #2920]
 2485              	.LVL269:
 2486              		.loc 1 158 0
 2487 00cc 00F0A880 		beq	.L365
 2488 00d0 042C     		cmp	r4, #4
 2489              		.loc 1 159 0
 2490 00d2 C3F88029 		str	r2, [r3, #2432]
 2491              		.loc 1 160 0
 2492 00d6 C3F89029 		str	r2, [r3, #2448]
 2493              		.loc 1 161 0
 2494 00da C3F88819 		str	r1, [r3, #2440]
 2495              		.loc 1 163 0
 2496 00de C3F8802B 		str	r2, [r3, #2944]
 2497              		.loc 1 164 0
 2498 00e2 C3F8902B 		str	r2, [r3, #2960]
 2499              		.loc 1 165 0
 2500 00e6 C3F8881B 		str	r1, [r3, #2952]
 2501              	.LVL270:
 2502              		.loc 1 158 0
 2503 00ea 00F09980 		beq	.L365
 2504 00ee 052C     		cmp	r4, #5
 2505              		.loc 1 159 0
 2506 00f0 C3F8A029 		str	r2, [r3, #2464]
 2507              		.loc 1 160 0
 2508 00f4 C3F8B029 		str	r2, [r3, #2480]
ARM GAS  /tmp/ccxvl19p.s 			page 45


 2509              		.loc 1 161 0
 2510 00f8 C3F8A819 		str	r1, [r3, #2472]
 2511              		.loc 1 163 0
 2512 00fc C3F8A02B 		str	r2, [r3, #2976]
 2513              		.loc 1 164 0
 2514 0100 C3F8B02B 		str	r2, [r3, #2992]
 2515              		.loc 1 165 0
 2516 0104 C3F8A81B 		str	r1, [r3, #2984]
 2517              	.LVL271:
 2518              		.loc 1 158 0
 2519 0108 00F08A80 		beq	.L365
 2520 010c 062C     		cmp	r4, #6
 2521              		.loc 1 159 0
 2522 010e C3F8C029 		str	r2, [r3, #2496]
 2523              		.loc 1 160 0
 2524 0112 C3F8D029 		str	r2, [r3, #2512]
 2525              		.loc 1 161 0
 2526 0116 C3F8C819 		str	r1, [r3, #2504]
 2527              		.loc 1 163 0
 2528 011a C3F8C02B 		str	r2, [r3, #3008]
 2529              		.loc 1 164 0
 2530 011e C3F8D02B 		str	r2, [r3, #3024]
 2531              		.loc 1 165 0
 2532 0122 C3F8C81B 		str	r1, [r3, #3016]
 2533              	.LVL272:
 2534              		.loc 1 158 0
 2535 0126 7BD0     		beq	.L365
 2536 0128 072C     		cmp	r4, #7
 2537              		.loc 1 159 0
 2538 012a C3F8E029 		str	r2, [r3, #2528]
 2539              		.loc 1 160 0
 2540 012e C3F8F029 		str	r2, [r3, #2544]
 2541              		.loc 1 161 0
 2542 0132 C3F8E819 		str	r1, [r3, #2536]
 2543              		.loc 1 163 0
 2544 0136 C3F8E02B 		str	r2, [r3, #3040]
 2545              		.loc 1 164 0
 2546 013a C3F8F02B 		str	r2, [r3, #3056]
 2547              		.loc 1 165 0
 2548 013e C3F8E81B 		str	r1, [r3, #3048]
 2549              	.LVL273:
 2550              		.loc 1 158 0
 2551 0142 6DD0     		beq	.L365
 2552 0144 082C     		cmp	r4, #8
 2553              		.loc 1 159 0
 2554 0146 C3F8002A 		str	r2, [r3, #2560]
 2555              		.loc 1 160 0
 2556 014a C3F8102A 		str	r2, [r3, #2576]
 2557              		.loc 1 161 0
 2558 014e C3F8081A 		str	r1, [r3, #2568]
 2559              		.loc 1 163 0
 2560 0152 C3F8002C 		str	r2, [r3, #3072]
 2561              		.loc 1 164 0
 2562 0156 C3F8102C 		str	r2, [r3, #3088]
 2563              		.loc 1 165 0
 2564 015a C3F8081C 		str	r1, [r3, #3080]
 2565              	.LVL274:
ARM GAS  /tmp/ccxvl19p.s 			page 46


 2566              		.loc 1 158 0
 2567 015e 5FD0     		beq	.L365
 2568 0160 092C     		cmp	r4, #9
 2569              		.loc 1 159 0
 2570 0162 C3F8202A 		str	r2, [r3, #2592]
 2571              		.loc 1 160 0
 2572 0166 C3F8302A 		str	r2, [r3, #2608]
 2573              		.loc 1 161 0
 2574 016a C3F8281A 		str	r1, [r3, #2600]
 2575              		.loc 1 163 0
 2576 016e C3F8202C 		str	r2, [r3, #3104]
 2577              		.loc 1 164 0
 2578 0172 C3F8302C 		str	r2, [r3, #3120]
 2579              		.loc 1 165 0
 2580 0176 C3F8281C 		str	r1, [r3, #3112]
 2581              	.LVL275:
 2582              		.loc 1 158 0
 2583 017a 51D0     		beq	.L365
 2584 017c 0A2C     		cmp	r4, #10
 2585              		.loc 1 159 0
 2586 017e C3F8402A 		str	r2, [r3, #2624]
 2587              		.loc 1 160 0
 2588 0182 C3F8502A 		str	r2, [r3, #2640]
 2589              		.loc 1 161 0
 2590 0186 C3F8481A 		str	r1, [r3, #2632]
 2591              		.loc 1 163 0
 2592 018a C3F8402C 		str	r2, [r3, #3136]
 2593              		.loc 1 164 0
 2594 018e C3F8502C 		str	r2, [r3, #3152]
 2595              		.loc 1 165 0
 2596 0192 C3F8481C 		str	r1, [r3, #3144]
 2597              	.LVL276:
 2598              		.loc 1 158 0
 2599 0196 43D0     		beq	.L365
 2600 0198 0B2C     		cmp	r4, #11
 2601              		.loc 1 159 0
 2602 019a C3F8602A 		str	r2, [r3, #2656]
 2603              		.loc 1 160 0
 2604 019e C3F8702A 		str	r2, [r3, #2672]
 2605              		.loc 1 161 0
 2606 01a2 C3F8681A 		str	r1, [r3, #2664]
 2607              		.loc 1 163 0
 2608 01a6 C3F8602C 		str	r2, [r3, #3168]
 2609              		.loc 1 164 0
 2610 01aa C3F8702C 		str	r2, [r3, #3184]
 2611              		.loc 1 165 0
 2612 01ae C3F8681C 		str	r1, [r3, #3176]
 2613              	.LVL277:
 2614              		.loc 1 158 0
 2615 01b2 35D0     		beq	.L365
 2616 01b4 0C2C     		cmp	r4, #12
 2617              		.loc 1 159 0
 2618 01b6 C3F8802A 		str	r2, [r3, #2688]
 2619              		.loc 1 160 0
 2620 01ba C3F8902A 		str	r2, [r3, #2704]
 2621              		.loc 1 161 0
 2622 01be C3F8881A 		str	r1, [r3, #2696]
ARM GAS  /tmp/ccxvl19p.s 			page 47


 2623              		.loc 1 163 0
 2624 01c2 C3F8802C 		str	r2, [r3, #3200]
 2625              		.loc 1 164 0
 2626 01c6 C3F8902C 		str	r2, [r3, #3216]
 2627              		.loc 1 165 0
 2628 01ca C3F8881C 		str	r1, [r3, #3208]
 2629              	.LVL278:
 2630              		.loc 1 158 0
 2631 01ce 27D0     		beq	.L365
 2632 01d0 0D2C     		cmp	r4, #13
 2633              		.loc 1 159 0
 2634 01d2 C3F8A02A 		str	r2, [r3, #2720]
 2635              		.loc 1 160 0
 2636 01d6 C3F8B02A 		str	r2, [r3, #2736]
 2637              		.loc 1 161 0
 2638 01da C3F8A81A 		str	r1, [r3, #2728]
 2639              		.loc 1 163 0
 2640 01de C3F8A02C 		str	r2, [r3, #3232]
 2641              		.loc 1 164 0
 2642 01e2 C3F8B02C 		str	r2, [r3, #3248]
 2643              		.loc 1 165 0
 2644 01e6 C3F8A81C 		str	r1, [r3, #3240]
 2645              	.LVL279:
 2646              		.loc 1 158 0
 2647 01ea 19D0     		beq	.L365
 2648 01ec 0E2C     		cmp	r4, #14
 2649              		.loc 1 159 0
 2650 01ee C3F8C02A 		str	r2, [r3, #2752]
 2651              		.loc 1 160 0
 2652 01f2 C3F8D02A 		str	r2, [r3, #2768]
 2653              		.loc 1 161 0
 2654 01f6 C3F8C81A 		str	r1, [r3, #2760]
 2655              		.loc 1 163 0
 2656 01fa C3F8C02C 		str	r2, [r3, #3264]
 2657              		.loc 1 164 0
 2658 01fe C3F8D02C 		str	r2, [r3, #3280]
 2659              		.loc 1 165 0
 2660 0202 C3F8C81C 		str	r1, [r3, #3272]
 2661              	.LVL280:
 2662              		.loc 1 158 0
 2663 0206 0BD0     		beq	.L365
 2664              		.loc 1 159 0
 2665 0208 C3F8E02A 		str	r2, [r3, #2784]
 2666              		.loc 1 160 0
 2667 020c C3F8F02A 		str	r2, [r3, #2800]
 2668              		.loc 1 161 0
 2669 0210 C3F8E81A 		str	r1, [r3, #2792]
 2670              		.loc 1 163 0
 2671 0214 C3F8E02C 		str	r2, [r3, #3296]
 2672              		.loc 1 164 0
 2673 0218 C3F8F02C 		str	r2, [r3, #3312]
 2674              		.loc 1 165 0
 2675 021c C3F8E81C 		str	r1, [r3, #3304]
 2676              	.LVL281:
 2677              	.L365:
 2678              	.LBE558:
 2679              	.LBE561:
ARM GAS  /tmp/ccxvl19p.s 			page 48


 2680              		.loc 1 843 0
 2681 0220 7268     		ldr	r2, [r6, #4]
 2682 0222 D168     		ldr	r1, [r2, #12]
 2683              	.LBB562:
 2684              	.LBB559:
 2685              		.loc 1 167 0
 2686 0224 4FF00110 		mov	r0, #65537
 2687              	.LBE559:
 2688              	.LBE562:
 2689              		.loc 1 840 0
 2690 0228 0022     		movs	r2, #0
 2691              	.LBB563:
 2692              	.LBB560:
 2693              		.loc 1 167 0
 2694 022a C3F81C08 		str	r0, [r3, #2076]
 2695              	.LVL282:
 2696              	.LBE560:
 2697              	.LBE563:
 2698              		.loc 1 840 0
 2699 022e C5F81028 		str	r2, [r5, #2064]
 2700              		.loc 1 841 0
 2701 0232 C5F81428 		str	r2, [r5, #2068]
 2702              		.loc 1 842 0
 2703 0236 C5F81C28 		str	r2, [r5, #2076]
 2704              		.loc 1 843 0
 2705 023a 49B1     		cbz	r1, .L420
 2706              		.loc 1 848 0
 2707 023c 164B     		ldr	r3, .L421+4
 2708 023e AB61     		str	r3, [r5, #24]
 2709              	.L367:
 2710              		.loc 1 854 0
 2711 0240 4FF0FF33 		mov	r3, #-1
 2712 0244 6B61     		str	r3, [r5, #20]
 2713              		.loc 1 857 0
 2714 0246 AB68     		ldr	r3, [r5, #8]
 2715 0248 43F00103 		orr	r3, r3, #1
 2716 024c AB60     		str	r3, [r5, #8]
 2717              		.loc 1 859 0
 2718 024e 70BD     		pop	{r4, r5, r6, pc}
 2719              	.LVL283:
 2720              	.L420:
 2721              		.loc 1 844 0
 2722 0250 124B     		ldr	r3, .L421+8
 2723 0252 AB61     		str	r3, [r5, #24]
 2724 0254 F4E7     		b	.L367
 2725              	.LVL284:
 2726              	.L419:
 2727              		.loc 1 745 0
 2728 0256 124B     		ldr	r3, .L421+12
 2729 0258 5A6B     		ldr	r2, [r3, #52]
 2730 025a 42F08002 		orr	r2, r2, #128
 2731 025e 5A63     		str	r2, [r3, #52]
 2732 0260 5A6D     		ldr	r2, [r3, #84]
 2733 0262 42F08002 		orr	r2, r2, #128
 2734 0266 5A65     		str	r2, [r3, #84]
 2735 0268 5A6D     		ldr	r2, [r3, #84]
 2736              		.loc 1 746 0
ARM GAS  /tmp/ccxvl19p.s 			page 49


 2737 026a 5A69     		ldr	r2, [r3, #20]
 2738 026c 42F08002 		orr	r2, r2, #128
 2739 0270 5A61     		str	r2, [r3, #20]
 2740 0272 5A69     		ldr	r2, [r3, #20]
 2741 0274 22F08002 		bic	r2, r2, #128
 2742 0278 5A61     		str	r2, [r3, #20]
 2743              		.loc 1 749 0
 2744 027a 0E21     		movs	r1, #14
 2745 027c 4320     		movs	r0, #67
 2746              	.LVL285:
 2747              		.loc 1 746 0
 2748 027e 5B69     		ldr	r3, [r3, #20]
 2749              		.loc 1 749 0
 2750 0280 FFF7FEFF 		bl	nvicEnableVector
 2751              	.LVL286:
 2752              		.loc 1 754 0
 2753 0284 074A     		ldr	r2, .L421+16
 2754              		.loc 1 758 0
 2755 0286 084B     		ldr	r3, .L421+20
 2756              		.loc 1 754 0
 2757 0288 EA60     		str	r2, [r5, #12]
 2758 028a 746D     		ldr	r4, [r6, #84]
 2759              		.loc 1 758 0
 2760 028c C5F80038 		str	r3, [r5, #2048]
 2761 0290 C2E6     		b	.L361
 2762              	.L422:
 2763 0292 00BF     		.align	2
 2764              	.L421:
 2765 0294 00000000 		.word	.LANCHOR0
 2766 0298 083C30C0 		.word	-1070580728
 2767 029c 003C30C0 		.word	-1070580736
 2768 02a0 00380240 		.word	1073887232
 2769 02a4 40140040 		.word	1073747008
 2770 02a8 03002002 		.word	35651587
 2771              		.cfi_endproc
 2772              	.LFE344:
 2773              		.size	usb_lld_start, .-usb_lld_start
 2774              		.section	.text.usb_lld_stop,"ax",%progbits
 2775              		.align	1
 2776              		.p2align 2,,3
 2777              		.global	usb_lld_stop
 2778              		.syntax unified
 2779              		.thumb
 2780              		.thumb_func
 2781              		.fpu fpv4-sp-d16
 2782              		.type	usb_lld_stop, %function
 2783              	usb_lld_stop:
 2784              	.LFB345:
 2785              		.loc 1 868 0
 2786              		.cfi_startproc
 2787              		@ args = 0, pretend = 0, frame = 0
 2788              		@ frame_needed = 0, uses_anonymous_args = 0
 2789              	.LVL287:
 2790              		.loc 1 872 0
 2791 0000 0378     		ldrb	r3, [r0]	@ zero_extendqisi2
 2792 0002 012B     		cmp	r3, #1
 2793 0004 00F0F880 		beq	.L471
ARM GAS  /tmp/ccxvl19p.s 			page 50


 2794              		.loc 1 869 0
 2795 0008 D0E91532 		ldrd	r3, r2, [r0, #84]
 2796              	.LVL288:
 2797              		.loc 1 868 0
 2798 000c 10B5     		push	{r4, lr}
 2799              		.cfi_def_cfa_offset 8
 2800              		.cfi_offset 4, -8
 2801              		.cfi_offset 14, -4
 2802              	.LBB564:
 2803              	.LBB565:
 2804              		.loc 1 158 0
 2805 000e 9468     		ldr	r4, [r2, #8]
 2806              		.loc 1 161 0
 2807 0010 4FF0FF31 		mov	r1, #-1
 2808              		.loc 1 159 0
 2809 0014 0022     		movs	r2, #0
 2810 0016 C3F80029 		str	r2, [r3, #2304]
 2811              		.loc 1 160 0
 2812 001a C3F81029 		str	r2, [r3, #2320]
 2813              		.loc 1 161 0
 2814 001e C3F80819 		str	r1, [r3, #2312]
 2815              		.loc 1 163 0
 2816 0022 C3F8002B 		str	r2, [r3, #2816]
 2817              		.loc 1 164 0
 2818 0026 C3F8102B 		str	r2, [r3, #2832]
 2819              		.loc 1 165 0
 2820 002a C3F8081B 		str	r1, [r3, #2824]
 2821              	.LVL289:
 2822              		.loc 1 158 0
 2823 002e 002C     		cmp	r4, #0
 2824 0030 00F0D580 		beq	.L426
 2825 0034 012C     		cmp	r4, #1
 2826              		.loc 1 159 0
 2827 0036 C3F82029 		str	r2, [r3, #2336]
 2828              		.loc 1 160 0
 2829 003a C3F83029 		str	r2, [r3, #2352]
 2830              		.loc 1 161 0
 2831 003e C3F82819 		str	r1, [r3, #2344]
 2832              		.loc 1 163 0
 2833 0042 C3F8202B 		str	r2, [r3, #2848]
 2834              		.loc 1 164 0
 2835 0046 C3F8302B 		str	r2, [r3, #2864]
 2836              		.loc 1 165 0
 2837 004a C3F8281B 		str	r1, [r3, #2856]
 2838              	.LVL290:
 2839              		.loc 1 158 0
 2840 004e 40F2C680 		bls	.L426
 2841 0052 022C     		cmp	r4, #2
 2842              		.loc 1 159 0
 2843 0054 C3F84029 		str	r2, [r3, #2368]
 2844              		.loc 1 160 0
 2845 0058 C3F85029 		str	r2, [r3, #2384]
 2846              		.loc 1 161 0
 2847 005c C3F84819 		str	r1, [r3, #2376]
 2848              		.loc 1 163 0
 2849 0060 C3F8402B 		str	r2, [r3, #2880]
 2850              		.loc 1 164 0
ARM GAS  /tmp/ccxvl19p.s 			page 51


 2851 0064 C3F8502B 		str	r2, [r3, #2896]
 2852              		.loc 1 165 0
 2853 0068 C3F8481B 		str	r1, [r3, #2888]
 2854              	.LVL291:
 2855              		.loc 1 158 0
 2856 006c 00F0B780 		beq	.L426
 2857 0070 032C     		cmp	r4, #3
 2858              		.loc 1 159 0
 2859 0072 C3F86029 		str	r2, [r3, #2400]
 2860              		.loc 1 160 0
 2861 0076 C3F87029 		str	r2, [r3, #2416]
 2862              		.loc 1 161 0
 2863 007a C3F86819 		str	r1, [r3, #2408]
 2864              		.loc 1 163 0
 2865 007e C3F8602B 		str	r2, [r3, #2912]
 2866              		.loc 1 164 0
 2867 0082 C3F8702B 		str	r2, [r3, #2928]
 2868              		.loc 1 165 0
 2869 0086 C3F8681B 		str	r1, [r3, #2920]
 2870              	.LVL292:
 2871              		.loc 1 158 0
 2872 008a 00F0A880 		beq	.L426
 2873 008e 042C     		cmp	r4, #4
 2874              		.loc 1 159 0
 2875 0090 C3F88029 		str	r2, [r3, #2432]
 2876              		.loc 1 160 0
 2877 0094 C3F89029 		str	r2, [r3, #2448]
 2878              		.loc 1 161 0
 2879 0098 C3F88819 		str	r1, [r3, #2440]
 2880              		.loc 1 163 0
 2881 009c C3F8802B 		str	r2, [r3, #2944]
 2882              		.loc 1 164 0
 2883 00a0 C3F8902B 		str	r2, [r3, #2960]
 2884              		.loc 1 165 0
 2885 00a4 C3F8881B 		str	r1, [r3, #2952]
 2886              	.LVL293:
 2887              		.loc 1 158 0
 2888 00a8 00F09980 		beq	.L426
 2889 00ac 052C     		cmp	r4, #5
 2890              		.loc 1 159 0
 2891 00ae C3F8A029 		str	r2, [r3, #2464]
 2892              		.loc 1 160 0
 2893 00b2 C3F8B029 		str	r2, [r3, #2480]
 2894              		.loc 1 161 0
 2895 00b6 C3F8A819 		str	r1, [r3, #2472]
 2896              		.loc 1 163 0
 2897 00ba C3F8A02B 		str	r2, [r3, #2976]
 2898              		.loc 1 164 0
 2899 00be C3F8B02B 		str	r2, [r3, #2992]
 2900              		.loc 1 165 0
 2901 00c2 C3F8A81B 		str	r1, [r3, #2984]
 2902              	.LVL294:
 2903              		.loc 1 158 0
 2904 00c6 00F08A80 		beq	.L426
 2905 00ca 062C     		cmp	r4, #6
 2906              		.loc 1 159 0
 2907 00cc C3F8C029 		str	r2, [r3, #2496]
ARM GAS  /tmp/ccxvl19p.s 			page 52


 2908              		.loc 1 160 0
 2909 00d0 C3F8D029 		str	r2, [r3, #2512]
 2910              		.loc 1 161 0
 2911 00d4 C3F8C819 		str	r1, [r3, #2504]
 2912              		.loc 1 163 0
 2913 00d8 C3F8C02B 		str	r2, [r3, #3008]
 2914              		.loc 1 164 0
 2915 00dc C3F8D02B 		str	r2, [r3, #3024]
 2916              		.loc 1 165 0
 2917 00e0 C3F8C81B 		str	r1, [r3, #3016]
 2918              	.LVL295:
 2919              		.loc 1 158 0
 2920 00e4 7BD0     		beq	.L426
 2921 00e6 072C     		cmp	r4, #7
 2922              		.loc 1 159 0
 2923 00e8 C3F8E029 		str	r2, [r3, #2528]
 2924              		.loc 1 160 0
 2925 00ec C3F8F029 		str	r2, [r3, #2544]
 2926              		.loc 1 161 0
 2927 00f0 C3F8E819 		str	r1, [r3, #2536]
 2928              		.loc 1 163 0
 2929 00f4 C3F8E02B 		str	r2, [r3, #3040]
 2930              		.loc 1 164 0
 2931 00f8 C3F8F02B 		str	r2, [r3, #3056]
 2932              		.loc 1 165 0
 2933 00fc C3F8E81B 		str	r1, [r3, #3048]
 2934              	.LVL296:
 2935              		.loc 1 158 0
 2936 0100 6DD0     		beq	.L426
 2937 0102 082C     		cmp	r4, #8
 2938              		.loc 1 159 0
 2939 0104 C3F8002A 		str	r2, [r3, #2560]
 2940              		.loc 1 160 0
 2941 0108 C3F8102A 		str	r2, [r3, #2576]
 2942              		.loc 1 161 0
 2943 010c C3F8081A 		str	r1, [r3, #2568]
 2944              		.loc 1 163 0
 2945 0110 C3F8002C 		str	r2, [r3, #3072]
 2946              		.loc 1 164 0
 2947 0114 C3F8102C 		str	r2, [r3, #3088]
 2948              		.loc 1 165 0
 2949 0118 C3F8081C 		str	r1, [r3, #3080]
 2950              	.LVL297:
 2951              		.loc 1 158 0
 2952 011c 5FD0     		beq	.L426
 2953 011e 092C     		cmp	r4, #9
 2954              		.loc 1 159 0
 2955 0120 C3F8202A 		str	r2, [r3, #2592]
 2956              		.loc 1 160 0
 2957 0124 C3F8302A 		str	r2, [r3, #2608]
 2958              		.loc 1 161 0
 2959 0128 C3F8281A 		str	r1, [r3, #2600]
 2960              		.loc 1 163 0
 2961 012c C3F8202C 		str	r2, [r3, #3104]
 2962              		.loc 1 164 0
 2963 0130 C3F8302C 		str	r2, [r3, #3120]
 2964              		.loc 1 165 0
ARM GAS  /tmp/ccxvl19p.s 			page 53


 2965 0134 C3F8281C 		str	r1, [r3, #3112]
 2966              	.LVL298:
 2967              		.loc 1 158 0
 2968 0138 51D0     		beq	.L426
 2969 013a 0A2C     		cmp	r4, #10
 2970              		.loc 1 159 0
 2971 013c C3F8402A 		str	r2, [r3, #2624]
 2972              		.loc 1 160 0
 2973 0140 C3F8502A 		str	r2, [r3, #2640]
 2974              		.loc 1 161 0
 2975 0144 C3F8481A 		str	r1, [r3, #2632]
 2976              		.loc 1 163 0
 2977 0148 C3F8402C 		str	r2, [r3, #3136]
 2978              		.loc 1 164 0
 2979 014c C3F8502C 		str	r2, [r3, #3152]
 2980              		.loc 1 165 0
 2981 0150 C3F8481C 		str	r1, [r3, #3144]
 2982              	.LVL299:
 2983              		.loc 1 158 0
 2984 0154 43D0     		beq	.L426
 2985 0156 0B2C     		cmp	r4, #11
 2986              		.loc 1 159 0
 2987 0158 C3F8602A 		str	r2, [r3, #2656]
 2988              		.loc 1 160 0
 2989 015c C3F8702A 		str	r2, [r3, #2672]
 2990              		.loc 1 161 0
 2991 0160 C3F8681A 		str	r1, [r3, #2664]
 2992              		.loc 1 163 0
 2993 0164 C3F8602C 		str	r2, [r3, #3168]
 2994              		.loc 1 164 0
 2995 0168 C3F8702C 		str	r2, [r3, #3184]
 2996              		.loc 1 165 0
 2997 016c C3F8681C 		str	r1, [r3, #3176]
 2998              	.LVL300:
 2999              		.loc 1 158 0
 3000 0170 35D0     		beq	.L426
 3001 0172 0C2C     		cmp	r4, #12
 3002              		.loc 1 159 0
 3003 0174 C3F8802A 		str	r2, [r3, #2688]
 3004              		.loc 1 160 0
 3005 0178 C3F8902A 		str	r2, [r3, #2704]
 3006              		.loc 1 161 0
 3007 017c C3F8881A 		str	r1, [r3, #2696]
 3008              		.loc 1 163 0
 3009 0180 C3F8802C 		str	r2, [r3, #3200]
 3010              		.loc 1 164 0
 3011 0184 C3F8902C 		str	r2, [r3, #3216]
 3012              		.loc 1 165 0
 3013 0188 C3F8881C 		str	r1, [r3, #3208]
 3014              	.LVL301:
 3015              		.loc 1 158 0
 3016 018c 27D0     		beq	.L426
 3017 018e 0D2C     		cmp	r4, #13
 3018              		.loc 1 159 0
 3019 0190 C3F8A02A 		str	r2, [r3, #2720]
 3020              		.loc 1 160 0
 3021 0194 C3F8B02A 		str	r2, [r3, #2736]
ARM GAS  /tmp/ccxvl19p.s 			page 54


 3022              		.loc 1 161 0
 3023 0198 C3F8A81A 		str	r1, [r3, #2728]
 3024              		.loc 1 163 0
 3025 019c C3F8A02C 		str	r2, [r3, #3232]
 3026              		.loc 1 164 0
 3027 01a0 C3F8B02C 		str	r2, [r3, #3248]
 3028              		.loc 1 165 0
 3029 01a4 C3F8A81C 		str	r1, [r3, #3240]
 3030              	.LVL302:
 3031              		.loc 1 158 0
 3032 01a8 19D0     		beq	.L426
 3033 01aa 0E2C     		cmp	r4, #14
 3034              		.loc 1 159 0
 3035 01ac C3F8C02A 		str	r2, [r3, #2752]
 3036              		.loc 1 160 0
 3037 01b0 C3F8D02A 		str	r2, [r3, #2768]
 3038              		.loc 1 161 0
 3039 01b4 C3F8C81A 		str	r1, [r3, #2760]
 3040              		.loc 1 163 0
 3041 01b8 C3F8C02C 		str	r2, [r3, #3264]
 3042              		.loc 1 164 0
 3043 01bc C3F8D02C 		str	r2, [r3, #3280]
 3044              		.loc 1 165 0
 3045 01c0 C3F8C81C 		str	r1, [r3, #3272]
 3046              	.LVL303:
 3047              		.loc 1 158 0
 3048 01c4 0BD0     		beq	.L426
 3049              		.loc 1 159 0
 3050 01c6 C3F8E02A 		str	r2, [r3, #2784]
 3051              		.loc 1 160 0
 3052 01ca C3F8F02A 		str	r2, [r3, #2800]
 3053              		.loc 1 161 0
 3054 01ce C3F8E81A 		str	r1, [r3, #2792]
 3055              		.loc 1 163 0
 3056 01d2 C3F8E02C 		str	r2, [r3, #3296]
 3057              		.loc 1 164 0
 3058 01d6 C3F8F02C 		str	r2, [r3, #3312]
 3059              		.loc 1 165 0
 3060 01da C3F8E81C 		str	r1, [r3, #3304]
 3061              	.LVL304:
 3062              	.L426:
 3063              	.LBE565:
 3064              	.LBE564:
 3065              		.loc 1 883 0
 3066 01de 0E49     		ldr	r1, .L475
 3067              		.loc 1 878 0
 3068 01e0 0022     		movs	r2, #0
 3069              	.LBB568:
 3070              	.LBB566:
 3071              		.loc 1 167 0
 3072 01e2 4FF00114 		mov	r4, #65537
 3073              	.LBE566:
 3074              	.LBE568:
 3075              		.loc 1 883 0
 3076 01e6 8842     		cmp	r0, r1
 3077              	.LBB569:
 3078              	.LBB567:
ARM GAS  /tmp/ccxvl19p.s 			page 55


 3079              		.loc 1 167 0
 3080 01e8 C3F81C48 		str	r4, [r3, #2076]
 3081              	.LVL305:
 3082              	.LBE567:
 3083              	.LBE569:
 3084              		.loc 1 878 0
 3085 01ec C3F81C28 		str	r2, [r3, #2076]
 3086              		.loc 1 879 0
 3087 01f0 9A60     		str	r2, [r3, #8]
 3088              		.loc 1 880 0
 3089 01f2 9A63     		str	r2, [r3, #56]
 3090              		.loc 1 883 0
 3091 01f4 01D0     		beq	.L474
 3092              		.loc 1 899 0
 3093 01f6 10BD     		pop	{r4, pc}
 3094              	.LVL306:
 3095              	.L471:
 3096              		.cfi_def_cfa_offset 0
 3097              		.cfi_restore 4
 3098              		.cfi_restore 14
 3099 01f8 7047     		bx	lr
 3100              	.LVL307:
 3101              	.L474:
 3102              		.cfi_def_cfa_offset 8
 3103              		.cfi_offset 4, -8
 3104              		.cfi_offset 14, -4
 3105              		.loc 1 884 0
 3106 01fa 4320     		movs	r0, #67
 3107              	.LVL308:
 3108 01fc FFF7FEFF 		bl	nvicDisableVector
 3109              	.LVL309:
 3110              		.loc 1 885 0
 3111 0200 064B     		ldr	r3, .L475+4
 3112 0202 5A6B     		ldr	r2, [r3, #52]
 3113 0204 22F08002 		bic	r2, r2, #128
 3114 0208 5A63     		str	r2, [r3, #52]
 3115 020a 5A6D     		ldr	r2, [r3, #84]
 3116 020c 22F08002 		bic	r2, r2, #128
 3117 0210 5A65     		str	r2, [r3, #84]
 3118 0212 5B6D     		ldr	r3, [r3, #84]
 3119              		.loc 1 899 0
 3120 0214 10BD     		pop	{r4, pc}
 3121              	.L476:
 3122 0216 00BF     		.align	2
 3123              	.L475:
 3124 0218 00000000 		.word	.LANCHOR0
 3125 021c 00380240 		.word	1073887232
 3126              		.cfi_endproc
 3127              	.LFE345:
 3128              		.size	usb_lld_stop, .-usb_lld_stop
 3129              		.section	.text.usb_lld_reset,"ax",%progbits
 3130              		.align	1
 3131              		.p2align 2,,3
 3132              		.global	usb_lld_reset
 3133              		.syntax unified
 3134              		.thumb
 3135              		.thumb_func
ARM GAS  /tmp/ccxvl19p.s 			page 56


 3136              		.fpu fpv4-sp-d16
 3137              		.type	usb_lld_reset, %function
 3138              	usb_lld_reset:
 3139              	.LFB346:
 3140              		.loc 1 908 0
 3141              		.cfi_startproc
 3142              		@ args = 0, pretend = 0, frame = 0
 3143              		@ frame_needed = 0, uses_anonymous_args = 0
 3144              	.LVL310:
 3145 0000 70B5     		push	{r4, r5, r6, lr}
 3146              		.cfi_def_cfa_offset 16
 3147              		.cfi_offset 4, -16
 3148              		.cfi_offset 5, -12
 3149              		.cfi_offset 6, -8
 3150              		.cfi_offset 14, -4
 3151              		.loc 1 910 0
 3152 0002 446D     		ldr	r4, [r0, #84]
 3153              	.LVL311:
 3154              	.LBB570:
 3155              	.LBB571:
 3156              		.loc 1 183 0
 3157 0004 2023     		movs	r3, #32
 3158              	.LBE571:
 3159              	.LBE570:
 3160              		.loc 1 908 0
 3161 0006 0646     		mov	r6, r0
 3162              	.LVL312:
 3163              	.LBB575:
 3164              	.LBB574:
 3165              		.loc 1 183 0
 3166 0008 2361     		str	r3, [r4, #16]
 3167              	.L478:
 3168              		.loc 1 184 0
 3169 000a 2569     		ldr	r5, [r4, #16]
 3170 000c 15F02005 		ands	r5, r5, #32
 3171 0010 FBD1     		bne	.L478
 3172              	.LVL313:
 3173              	.LBB572:
 3174              	.LBB573:
 3175              		.loc 2 591 0
 3176 0012 1220     		movs	r0, #18
 3177              	.LVL314:
 3178 0014 FFF7FEFF 		bl	chSysPolledDelayX
 3179              	.LVL315:
 3180              	.LBE573:
 3181              	.LBE572:
 3182              	.LBE574:
 3183              	.LBE575:
 3184              		.loc 1 920 0
 3185 0018 B06D     		ldr	r0, [r6, #88]
 3186              		.loc 1 916 0
 3187 001a C4F83458 		str	r5, [r4, #2100]
 3188              		.loc 1 920 0
 3189 001e 8168     		ldr	r1, [r0, #8]
 3190              		.loc 1 921 0
 3191 0020 4FF00062 		mov	r2, #134217728
 3192              		.loc 1 923 0
ARM GAS  /tmp/ccxvl19p.s 			page 57


 3193 0024 4FF0FF33 		mov	r3, #-1
 3194              		.loc 1 917 0
 3195 0028 4FF00115 		mov	r5, #65537
 3196 002c C4F81C58 		str	r5, [r4, #2076]
 3197              	.LVL316:
 3198              		.loc 1 921 0
 3199 0030 C4F80029 		str	r2, [r4, #2304]
 3200              		.loc 1 922 0
 3201 0034 C4F8002B 		str	r2, [r4, #2816]
 3202              		.loc 1 923 0
 3203 0038 C4F80839 		str	r3, [r4, #2312]
 3204              		.loc 1 924 0
 3205 003c C4F8083B 		str	r3, [r4, #2824]
 3206              	.LVL317:
 3207              		.loc 1 920 0
 3208 0040 0029     		cmp	r1, #0
 3209 0042 00F09580 		beq	.L479
 3210 0046 0129     		cmp	r1, #1
 3211              		.loc 1 921 0
 3212 0048 C4F82029 		str	r2, [r4, #2336]
 3213              		.loc 1 922 0
 3214 004c C4F8202B 		str	r2, [r4, #2848]
 3215              		.loc 1 923 0
 3216 0050 C4F82839 		str	r3, [r4, #2344]
 3217              		.loc 1 924 0
 3218 0054 C4F8283B 		str	r3, [r4, #2856]
 3219              	.LVL318:
 3220              		.loc 1 920 0
 3221 0058 40F28A80 		bls	.L479
 3222 005c 0229     		cmp	r1, #2
 3223              		.loc 1 921 0
 3224 005e C4F84029 		str	r2, [r4, #2368]
 3225              		.loc 1 922 0
 3226 0062 C4F8402B 		str	r2, [r4, #2880]
 3227              		.loc 1 923 0
 3228 0066 C4F84839 		str	r3, [r4, #2376]
 3229              		.loc 1 924 0
 3230 006a C4F8483B 		str	r3, [r4, #2888]
 3231              	.LVL319:
 3232              		.loc 1 920 0
 3233 006e 7FD0     		beq	.L479
 3234 0070 0329     		cmp	r1, #3
 3235              		.loc 1 921 0
 3236 0072 C4F86029 		str	r2, [r4, #2400]
 3237              		.loc 1 922 0
 3238 0076 C4F8602B 		str	r2, [r4, #2912]
 3239              		.loc 1 923 0
 3240 007a C4F86839 		str	r3, [r4, #2408]
 3241              		.loc 1 924 0
 3242 007e C4F8683B 		str	r3, [r4, #2920]
 3243              	.LVL320:
 3244              		.loc 1 920 0
 3245 0082 75D0     		beq	.L479
 3246 0084 0429     		cmp	r1, #4
 3247              		.loc 1 921 0
 3248 0086 C4F88029 		str	r2, [r4, #2432]
 3249              		.loc 1 922 0
ARM GAS  /tmp/ccxvl19p.s 			page 58


 3250 008a C4F8802B 		str	r2, [r4, #2944]
 3251              		.loc 1 923 0
 3252 008e C4F88839 		str	r3, [r4, #2440]
 3253              		.loc 1 924 0
 3254 0092 C4F8883B 		str	r3, [r4, #2952]
 3255              	.LVL321:
 3256              		.loc 1 920 0
 3257 0096 6BD0     		beq	.L479
 3258 0098 0529     		cmp	r1, #5
 3259              		.loc 1 921 0
 3260 009a C4F8A029 		str	r2, [r4, #2464]
 3261              		.loc 1 922 0
 3262 009e C4F8A02B 		str	r2, [r4, #2976]
 3263              		.loc 1 923 0
 3264 00a2 C4F8A839 		str	r3, [r4, #2472]
 3265              		.loc 1 924 0
 3266 00a6 C4F8A83B 		str	r3, [r4, #2984]
 3267              	.LVL322:
 3268              		.loc 1 920 0
 3269 00aa 61D0     		beq	.L479
 3270 00ac 0629     		cmp	r1, #6
 3271              		.loc 1 921 0
 3272 00ae C4F8C029 		str	r2, [r4, #2496]
 3273              		.loc 1 922 0
 3274 00b2 C4F8C02B 		str	r2, [r4, #3008]
 3275              		.loc 1 923 0
 3276 00b6 C4F8C839 		str	r3, [r4, #2504]
 3277              		.loc 1 924 0
 3278 00ba C4F8C83B 		str	r3, [r4, #3016]
 3279              	.LVL323:
 3280              		.loc 1 920 0
 3281 00be 57D0     		beq	.L479
 3282 00c0 0729     		cmp	r1, #7
 3283              		.loc 1 921 0
 3284 00c2 C4F8E029 		str	r2, [r4, #2528]
 3285              		.loc 1 922 0
 3286 00c6 C4F8E02B 		str	r2, [r4, #3040]
 3287              		.loc 1 923 0
 3288 00ca C4F8E839 		str	r3, [r4, #2536]
 3289              		.loc 1 924 0
 3290 00ce C4F8E83B 		str	r3, [r4, #3048]
 3291              	.LVL324:
 3292              		.loc 1 920 0
 3293 00d2 4DD0     		beq	.L479
 3294 00d4 0829     		cmp	r1, #8
 3295              		.loc 1 921 0
 3296 00d6 C4F8002A 		str	r2, [r4, #2560]
 3297              		.loc 1 922 0
 3298 00da C4F8002C 		str	r2, [r4, #3072]
 3299              		.loc 1 923 0
 3300 00de C4F8083A 		str	r3, [r4, #2568]
 3301              		.loc 1 924 0
 3302 00e2 C4F8083C 		str	r3, [r4, #3080]
 3303              	.LVL325:
 3304              		.loc 1 920 0
 3305 00e6 43D0     		beq	.L479
 3306 00e8 0929     		cmp	r1, #9
ARM GAS  /tmp/ccxvl19p.s 			page 59


 3307              		.loc 1 921 0
 3308 00ea C4F8202A 		str	r2, [r4, #2592]
 3309              		.loc 1 922 0
 3310 00ee C4F8202C 		str	r2, [r4, #3104]
 3311              		.loc 1 923 0
 3312 00f2 C4F8283A 		str	r3, [r4, #2600]
 3313              		.loc 1 924 0
 3314 00f6 C4F8283C 		str	r3, [r4, #3112]
 3315              	.LVL326:
 3316              		.loc 1 920 0
 3317 00fa 39D0     		beq	.L479
 3318 00fc 0A29     		cmp	r1, #10
 3319              		.loc 1 921 0
 3320 00fe C4F8402A 		str	r2, [r4, #2624]
 3321              		.loc 1 922 0
 3322 0102 C4F8402C 		str	r2, [r4, #3136]
 3323              		.loc 1 923 0
 3324 0106 C4F8483A 		str	r3, [r4, #2632]
 3325              		.loc 1 924 0
 3326 010a C4F8483C 		str	r3, [r4, #3144]
 3327              	.LVL327:
 3328              		.loc 1 920 0
 3329 010e 2FD0     		beq	.L479
 3330 0110 0B29     		cmp	r1, #11
 3331              		.loc 1 921 0
 3332 0112 C4F8602A 		str	r2, [r4, #2656]
 3333              		.loc 1 922 0
 3334 0116 C4F8602C 		str	r2, [r4, #3168]
 3335              		.loc 1 923 0
 3336 011a C4F8683A 		str	r3, [r4, #2664]
 3337              		.loc 1 924 0
 3338 011e C4F8683C 		str	r3, [r4, #3176]
 3339              	.LVL328:
 3340              		.loc 1 920 0
 3341 0122 25D0     		beq	.L479
 3342 0124 0C29     		cmp	r1, #12
 3343              		.loc 1 921 0
 3344 0126 C4F8802A 		str	r2, [r4, #2688]
 3345              		.loc 1 922 0
 3346 012a C4F8802C 		str	r2, [r4, #3200]
 3347              		.loc 1 923 0
 3348 012e C4F8883A 		str	r3, [r4, #2696]
 3349              		.loc 1 924 0
 3350 0132 C4F8883C 		str	r3, [r4, #3208]
 3351              	.LVL329:
 3352              		.loc 1 920 0
 3353 0136 1BD0     		beq	.L479
 3354 0138 0D29     		cmp	r1, #13
 3355              		.loc 1 921 0
 3356 013a C4F8A02A 		str	r2, [r4, #2720]
 3357              		.loc 1 922 0
 3358 013e C4F8A02C 		str	r2, [r4, #3232]
 3359              		.loc 1 923 0
 3360 0142 C4F8A83A 		str	r3, [r4, #2728]
 3361              		.loc 1 924 0
 3362 0146 C4F8A83C 		str	r3, [r4, #3240]
 3363              	.LVL330:
ARM GAS  /tmp/ccxvl19p.s 			page 60


 3364              		.loc 1 920 0
 3365 014a 11D0     		beq	.L479
 3366 014c 0E29     		cmp	r1, #14
 3367              		.loc 1 921 0
 3368 014e C4F8C02A 		str	r2, [r4, #2752]
 3369              		.loc 1 922 0
 3370 0152 C4F8C02C 		str	r2, [r4, #3264]
 3371              		.loc 1 923 0
 3372 0156 C4F8C83A 		str	r3, [r4, #2760]
 3373              		.loc 1 924 0
 3374 015a C4F8C83C 		str	r3, [r4, #3272]
 3375              	.LVL331:
 3376              		.loc 1 920 0
 3377 015e 07D0     		beq	.L479
 3378              		.loc 1 921 0 discriminator 3
 3379 0160 C4F8E02A 		str	r2, [r4, #2784]
 3380              		.loc 1 922 0 discriminator 3
 3381 0164 C4F8E02C 		str	r2, [r4, #3296]
 3382              		.loc 1 923 0 discriminator 3
 3383 0168 C4F8E83A 		str	r3, [r4, #2792]
 3384              		.loc 1 924 0 discriminator 3
 3385 016c C4F8E83C 		str	r3, [r4, #3304]
 3386              	.LVL332:
 3387              	.L479:
 3388              	.LBB576:
 3389              	.LBB577:
 3390              		.loc 1 199 0
 3391 0170 0368     		ldr	r3, [r0]
 3392 0172 F365     		str	r3, [r6, #92]
 3393              	.LBE577:
 3394              	.LBE576:
 3395              		.loc 1 931 0
 3396 0174 0368     		ldr	r3, [r0]
 3397              		.loc 1 932 0
 3398 0176 726D     		ldr	r2, [r6, #84]
 3399              	.LVL333:
 3400              		.loc 1 931 0
 3401 0178 6362     		str	r3, [r4, #36]
 3402              	.LBB578:
 3403              	.LBB579:
 3404              		.loc 1 173 0
 3405 017a 1023     		movs	r3, #16
 3406 017c 1361     		str	r3, [r2, #16]
 3407              	.L480:
 3408              		.loc 1 174 0
 3409 017e 1569     		ldr	r5, [r2, #16]
 3410 0180 15F01005 		ands	r5, r5, #16
 3411 0184 FBD1     		bne	.L480
 3412              	.LVL334:
 3413              	.LBB580:
 3414              	.LBB581:
 3415              		.loc 2 591 0
 3416 0186 1220     		movs	r0, #18
 3417 0188 FFF7FEFF 		bl	chSysPolledDelayX
 3418              	.LVL335:
 3419              	.LBE581:
 3420              	.LBE580:
ARM GAS  /tmp/ccxvl19p.s 			page 61


 3421              	.LBE579:
 3422              	.LBE578:
 3423              		.loc 1 935 0
 3424 018c D4F80038 		ldr	r3, [r4, #2048]
 3425              		.loc 1 945 0
 3426 0190 114A     		ldr	r2, .L526
 3427              		.loc 1 943 0
 3428 0192 1249     		ldr	r1, .L526+4
 3429              		.loc 1 935 0
 3430 0194 23F4FE63 		bic	r3, r3, #2032
 3431 0198 C4F80038 		str	r3, [r4, #2048]
 3432              		.loc 1 938 0
 3433 019c A369     		ldr	r3, [r4, #24]
 3434 019e 43F44023 		orr	r3, r3, #786432
 3435 01a2 43F01003 		orr	r3, r3, #16
 3436 01a6 A361     		str	r3, [r4, #24]
 3437              		.loc 1 939 0
 3438 01a8 0923     		movs	r3, #9
 3439 01aa C4F81038 		str	r3, [r4, #2064]
 3440              		.loc 1 940 0
 3441 01ae C4F81438 		str	r3, [r4, #2068]
 3442              		.loc 1 944 0
 3443 01b2 4FF0C043 		mov	r3, #1610612736
 3444              		.loc 1 943 0
 3445 01b6 F160     		str	r1, [r6, #12]
 3446              		.loc 1 944 0
 3447 01b8 C4F8103B 		str	r3, [r4, #2832]
 3448              		.loc 1 945 0
 3449 01bc C4F8002B 		str	r2, [r4, #2816]
 3450              		.loc 1 947 0
 3451 01c0 C4F81059 		str	r5, [r4, #2320]
 3452              		.loc 1 948 0
 3453 01c4 C4F80029 		str	r2, [r4, #2304]
 3454              	.LVL336:
 3455              	.LBB582:
 3456              	.LBB583:
 3457              		.loc 1 213 0
 3458 01c8 F36D     		ldr	r3, [r6, #92]
 3459              	.LVL337:
 3460              		.loc 1 214 0
 3461 01ca 03F11002 		add	r2, r3, #16
 3462              	.LBE583:
 3463              	.LBE582:
 3464              		.loc 1 950 0
 3465 01ce 43F48013 		orr	r3, r3, #1048576
 3466              	.LVL338:
 3467              	.LBB585:
 3468              	.LBB584:
 3469              		.loc 1 214 0
 3470 01d2 F265     		str	r2, [r6, #92]
 3471              	.LVL339:
 3472              	.LBE584:
 3473              	.LBE585:
 3474              		.loc 1 950 0
 3475 01d4 A362     		str	r3, [r4, #40]
 3476              		.loc 1 953 0
 3477 01d6 70BD     		pop	{r4, r5, r6, pc}
ARM GAS  /tmp/ccxvl19p.s 			page 62


 3478              	.LVL340:
 3479              	.L527:
 3480              		.align	2
 3481              	.L526:
 3482 01d8 40800010 		.word	268468288
 3483 01dc 00000000 		.word	.LANCHOR2
 3484              		.cfi_endproc
 3485              	.LFE346:
 3486              		.size	usb_lld_reset, .-usb_lld_reset
 3487              		.section	.text.usb_lld_set_address,"ax",%progbits
 3488              		.align	1
 3489              		.p2align 2,,3
 3490              		.global	usb_lld_set_address
 3491              		.syntax unified
 3492              		.thumb
 3493              		.thumb_func
 3494              		.fpu fpv4-sp-d16
 3495              		.type	usb_lld_set_address, %function
 3496              	usb_lld_set_address:
 3497              	.LFB347:
 3498              		.loc 1 962 0
 3499              		.cfi_startproc
 3500              		@ args = 0, pretend = 0, frame = 0
 3501              		@ frame_needed = 0, uses_anonymous_args = 0
 3502              		@ link register save eliminated.
 3503              	.LVL341:
 3504              		.loc 1 963 0
 3505 0000 426D     		ldr	r2, [r0, #84]
 3506              	.LVL342:
 3507              		.loc 1 965 0
 3508 0002 90F84E10 		ldrb	r1, [r0, #78]	@ zero_extendqisi2
 3509 0006 D2F80038 		ldr	r3, [r2, #2048]
 3510 000a 23F4FE63 		bic	r3, r3, #2032
 3511 000e 43EA0113 		orr	r3, r3, r1, lsl #4
 3512 0012 C2F80038 		str	r3, [r2, #2048]
 3513              		.loc 1 966 0
 3514 0016 7047     		bx	lr
 3515              		.cfi_endproc
 3516              	.LFE347:
 3517              		.size	usb_lld_set_address, .-usb_lld_set_address
 3518              		.section	.text.usb_lld_init_endpoint,"ax",%progbits
 3519              		.align	1
 3520              		.p2align 2,,3
 3521              		.global	usb_lld_init_endpoint
 3522              		.syntax unified
 3523              		.thumb
 3524              		.thumb_func
 3525              		.fpu fpv4-sp-d16
 3526              		.type	usb_lld_init_endpoint, %function
 3527              	usb_lld_init_endpoint:
 3528              	.LFB348:
 3529              		.loc 1 976 0
 3530              		.cfi_startproc
 3531              		@ args = 0, pretend = 0, frame = 0
 3532              		@ frame_needed = 0, uses_anonymous_args = 0
 3533              	.LVL343:
 3534 0000 2DE9F843 		push	{r3, r4, r5, r6, r7, r8, r9, lr}
ARM GAS  /tmp/ccxvl19p.s 			page 63


 3535              		.cfi_def_cfa_offset 32
 3536              		.cfi_offset 3, -32
 3537              		.cfi_offset 4, -28
 3538              		.cfi_offset 5, -24
 3539              		.cfi_offset 6, -20
 3540              		.cfi_offset 7, -16
 3541              		.cfi_offset 8, -12
 3542              		.cfi_offset 9, -8
 3543              		.cfi_offset 14, -4
 3544 0004 0FFA81F8 		sxth	r8, r1
 3545 0008 00EB8807 		add	r7, r0, r8, lsl #2
 3546              		.loc 1 976 0
 3547 000c 0D46     		mov	r5, r1
 3548              	.LVL344:
 3549              		.loc 1 981 0
 3550 000e FB68     		ldr	r3, [r7, #12]
 3551 0010 1A68     		ldr	r2, [r3]
 3552 0012 02F00302 		and	r2, r2, #3
 3553 0016 022A     		cmp	r2, #2
 3554 0018 00F09780 		beq	.L531
 3555 001c 032A     		cmp	r2, #3
 3556 001e 00F09180 		beq	.L532
 3557              		.loc 1 983 0
 3558 0022 4B4C     		ldr	r4, .L545
 3559 0024 4B49     		ldr	r1, .L545+4
 3560              	.LVL345:
 3561 0026 012A     		cmp	r2, #1
 3562 0028 0CBF     		ite	eq
 3563 002a A146     		moveq	r9, r4
 3564 002c 8946     		movne	r9, r1
 3565              	.L533:
 3566              		.loc 1 978 0
 3567 002e 446D     		ldr	r4, [r0, #84]
 3568              	.LVL346:
 3569              		.loc 1 1000 0
 3570 0030 9E69     		ldr	r6, [r3, #24]
 3571              		.loc 1 999 0
 3572 0032 6901     		lsls	r1, r5, #5
 3573 0034 6218     		adds	r2, r4, r1
 3574 0036 4FF0000C 		mov	ip, #0
 3575 003a C2F810CB 		str	ip, [r2, #2832]
 3576 003e 05F11002 		add	r2, r5, #16
 3577 0042 4FF0010C 		mov	ip, #1
 3578 0046 0CFA02F2 		lsl	r2, ip, r2
 3579              		.loc 1 1000 0
 3580 004a 002E     		cmp	r6, #0
 3581 004c 4BD0     		beq	.L534
 3582              		.loc 1 1001 0
 3583 004e B3F812C0 		ldrh	ip, [r3, #18]
 3584 0052 05F15806 		add	r6, r5, #88
 3585 0056 7601     		lsls	r6, r6, #5
 3586 0058 4CEA090C 		orr	ip, ip, r9
 3587 005c 44F806C0 		str	ip, [r4, r6]
 3588              		.loc 1 1002 0
 3589 0060 D4F81C68 		ldr	r6, [r4, #2076]
 3590 0064 3243     		orrs	r2, r2, r6
 3591 0066 C4F81C28 		str	r2, [r4, #2076]
ARM GAS  /tmp/ccxvl19p.s 			page 64


 3592              	.L535:
 3593              		.loc 1 1010 0
 3594 006a 6618     		adds	r6, r4, r1
 3595              		.loc 1 1011 0
 3596 006c D3F814C0 		ldr	ip, [r3, #20]
 3597              		.loc 1 1010 0
 3598 0070 0022     		movs	r2, #0
 3599 0072 A901     		lsls	r1, r5, #6
 3600 0074 C6F81029 		str	r2, [r6, #2320]
 3601 0078 41F02001 		orr	r1, r1, #32
 3602 007c 6A1E     		subs	r2, r5, #1
 3603              		.loc 1 1011 0
 3604 007e BCF1000F 		cmp	ip, #0
 3605 0082 3FD0     		beq	.L536
 3606              		.loc 1 1014 0
 3607 0084 B3F81CC0 		ldrh	ip, [r3, #28]
 3608              		.loc 1 1013 0
 3609 0088 1E8A     		ldrh	r6, [r3, #16]
 3610              		.loc 1 1014 0
 3611 008a BCF1010F 		cmp	ip, #1
 3612              		.loc 1 1013 0
 3613 008e 4FEA9603 		lsr	r3, r6, #2
 3614              	.LVL347:
 3615              		.loc 1 1016 0
 3616 0092 02F14002 		add	r2, r2, #64
 3617              	.LBB586:
 3618              	.LBB587:
 3619              		.loc 1 213 0
 3620 0096 C66D     		ldr	r6, [r0, #92]
 3621              	.LBE587:
 3622              	.LBE586:
 3623              		.loc 1 1015 0
 3624 0098 88BF     		it	hi
 3625 009a 0CFB03F3 		mulhi	r3, ip, r3
 3626              	.LVL348:
 3627              		.loc 1 1016 0
 3628 009e 04EB8202 		add	r2, r4, r2, lsl #2
 3629              	.LBB590:
 3630              	.LBB588:
 3631              		.loc 1 214 0
 3632 00a2 03EB060C 		add	ip, r3, r6
 3633              	.LBE588:
 3634              	.LBE590:
 3635              		.loc 1 1016 0
 3636 00a6 46EA0343 		orr	r3, r6, r3, lsl #16
 3637              	.LVL349:
 3638              	.LBB591:
 3639              	.LBB589:
 3640              		.loc 1 214 0
 3641 00aa C0F85CC0 		str	ip, [r0, #92]
 3642              	.LVL350:
 3643              	.LBE589:
 3644              	.LBE591:
 3645              		.loc 1 1016 0
 3646 00ae 5360     		str	r3, [r2, #4]
 3647              	.LVL351:
 3648              	.LBB592:
ARM GAS  /tmp/ccxvl19p.s 			page 65


 3649              	.LBB593:
 3650              		.loc 1 183 0
 3651 00b0 2161     		str	r1, [r4, #16]
 3652              	.L538:
 3653              		.loc 1 184 0
 3654 00b2 2369     		ldr	r3, [r4, #16]
 3655 00b4 9A06     		lsls	r2, r3, #26
 3656 00b6 FCD4     		bmi	.L538
 3657              	.LVL352:
 3658              	.LBB594:
 3659              	.LBB595:
 3660              		.loc 2 591 0
 3661 00b8 1220     		movs	r0, #18
 3662              	.LVL353:
 3663 00ba FFF7FEFF 		bl	chSysPolledDelayX
 3664              	.LVL354:
 3665              	.LBE595:
 3666              	.LBE594:
 3667              	.LBE593:
 3668              	.LBE592:
 3669              		.loc 1 1022 0
 3670 00be FB68     		ldr	r3, [r7, #12]
 3671 00c0 1A8A     		ldrh	r2, [r3, #16]
 3672              		.loc 1 1020 0
 3673 00c2 05F14803 		add	r3, r5, #72
 3674              		.loc 1 1021 0
 3675 00c6 42EA8552 		orr	r2, r2, r5, lsl #22
 3676              		.loc 1 1020 0
 3677 00ca 5B01     		lsls	r3, r3, #5
 3678              		.loc 1 1021 0
 3679 00cc 42EA0902 		orr	r2, r2, r9
 3680              		.loc 1 1020 0
 3681 00d0 E250     		str	r2, [r4, r3]
 3682              		.loc 1 1023 0
 3683 00d2 0121     		movs	r1, #1
 3684 00d4 D4F81C38 		ldr	r3, [r4, #2076]
 3685 00d8 01FA05F5 		lsl	r5, r1, r5
 3686 00dc 1D43     		orrs	r5, r5, r3
 3687 00de C4F81C58 		str	r5, [r4, #2076]
 3688              		.loc 1 1031 0
 3689 00e2 BDE8F883 		pop	{r3, r4, r5, r6, r7, r8, r9, pc}
 3690              	.LVL355:
 3691              	.L534:
 3692 00e6 04EB481C 		add	ip, r4, r8, lsl #5
 3693              		.loc 1 1005 0
 3694 00ea DCF8006B 		ldr	r6, [ip, #2816]
 3695 00ee 26F40046 		bic	r6, r6, #32768
 3696 00f2 CCF8006B 		str	r6, [ip, #2816]
 3697              		.loc 1 1006 0
 3698 00f6 D4F81C68 		ldr	r6, [r4, #2076]
 3699 00fa 26EA0202 		bic	r2, r6, r2
 3700 00fe C4F81C28 		str	r2, [r4, #2076]
 3701 0102 B2E7     		b	.L535
 3702              	.L536:
 3703              		.loc 1 1026 0
 3704 0104 05F13F03 		add	r3, r5, #63
 3705 0108 04EB8303 		add	r3, r4, r3, lsl #2
ARM GAS  /tmp/ccxvl19p.s 			page 66


 3706 010c 124A     		ldr	r2, .L545+8
 3707 010e 5A60     		str	r2, [r3, #4]
 3708              	.LVL356:
 3709              	.LBB596:
 3710              	.LBB597:
 3711              		.loc 1 183 0
 3712 0110 2161     		str	r1, [r4, #16]
 3713              	.L540:
 3714              		.loc 1 184 0
 3715 0112 2369     		ldr	r3, [r4, #16]
 3716 0114 9B06     		lsls	r3, r3, #26
 3717 0116 FCD4     		bmi	.L540
 3718              	.LVL357:
 3719 0118 04EB4818 		add	r8, r4, r8, lsl #5
 3720              	.LBB598:
 3721              	.LBB599:
 3722              		.loc 2 591 0
 3723 011c 1220     		movs	r0, #18
 3724              	.LVL358:
 3725 011e FFF7FEFF 		bl	chSysPolledDelayX
 3726              	.LVL359:
 3727              	.LBE599:
 3728              	.LBE598:
 3729              	.LBE597:
 3730              	.LBE596:
 3731              		.loc 1 1028 0
 3732 0122 D8F80039 		ldr	r3, [r8, #2304]
 3733 0126 23F40043 		bic	r3, r3, #32768
 3734 012a C8F80039 		str	r3, [r8, #2304]
 3735              		.loc 1 1029 0
 3736 012e D4F81C38 		ldr	r3, [r4, #2076]
 3737 0132 0121     		movs	r1, #1
 3738 0134 01FA05F5 		lsl	r5, r1, r5
 3739 0138 23EA0505 		bic	r5, r3, r5
 3740 013c C4F81C58 		str	r5, [r4, #2076]
 3741              		.loc 1 1031 0
 3742 0140 BDE8F883 		pop	{r3, r4, r5, r6, r7, r8, r9, pc}
 3743              	.LVL360:
 3744              	.L532:
 3745              		.loc 1 992 0
 3746 0144 DFF81490 		ldr	r9, .L545+12
 3747              		.loc 1 993 0
 3748 0148 71E7     		b	.L533
 3749              	.LVL361:
 3750              	.L531:
 3751              		.loc 1 989 0
 3752 014a DFF81490 		ldr	r9, .L545+16
 3753              		.loc 1 990 0
 3754 014e 6EE7     		b	.L533
 3755              	.L546:
 3756              		.align	2
 3757              	.L545:
 3758 0150 00800410 		.word	268730368
 3759 0154 00800010 		.word	268468224
 3760 0158 00040002 		.word	33555456
 3761 015c 00800C10 		.word	269254656
 3762 0160 00800810 		.word	268992512
ARM GAS  /tmp/ccxvl19p.s 			page 67


 3763              		.cfi_endproc
 3764              	.LFE348:
 3765              		.size	usb_lld_init_endpoint, .-usb_lld_init_endpoint
 3766              		.section	.text.usb_lld_disable_endpoints,"ax",%progbits
 3767              		.align	1
 3768              		.p2align 2,,3
 3769              		.global	usb_lld_disable_endpoints
 3770              		.syntax unified
 3771              		.thumb
 3772              		.thumb_func
 3773              		.fpu fpv4-sp-d16
 3774              		.type	usb_lld_disable_endpoints, %function
 3775              	usb_lld_disable_endpoints:
 3776              	.LFB349:
 3777              		.loc 1 1040 0
 3778              		.cfi_startproc
 3779              		@ args = 0, pretend = 0, frame = 0
 3780              		@ frame_needed = 0, uses_anonymous_args = 0
 3781              		@ link register save eliminated.
 3782              	.LVL362:
 3783              		.loc 1 1046 0
 3784 0000 D0E91531 		ldrd	r3, r1, [r0, #84]
 3785              	.LVL363:
 3786              		.loc 1 1040 0
 3787 0004 10B4     		push	{r4}
 3788              		.cfi_def_cfa_offset 4
 3789              		.cfi_offset 4, -4
 3790              	.LBB600:
 3791              	.LBB601:
 3792              		.loc 1 199 0
 3793 0006 0C68     		ldr	r4, [r1]
 3794 0008 C465     		str	r4, [r0, #92]
 3795              	.LBE601:
 3796              	.LBE600:
 3797              	.LBB602:
 3798              	.LBB603:
 3799              		.loc 1 158 0
 3800 000a 8868     		ldr	r0, [r1, #8]
 3801              	.LVL364:
 3802              		.loc 1 159 0
 3803 000c 0022     		movs	r2, #0
 3804              		.loc 1 161 0
 3805 000e 4FF0FF31 		mov	r1, #-1
 3806              		.loc 1 159 0
 3807 0012 C3F80029 		str	r2, [r3, #2304]
 3808              		.loc 1 160 0
 3809 0016 C3F81029 		str	r2, [r3, #2320]
 3810              		.loc 1 161 0
 3811 001a C3F80819 		str	r1, [r3, #2312]
 3812              		.loc 1 163 0
 3813 001e C3F8002B 		str	r2, [r3, #2816]
 3814              		.loc 1 164 0
 3815 0022 C3F8102B 		str	r2, [r3, #2832]
 3816              		.loc 1 165 0
 3817 0026 C3F8081B 		str	r1, [r3, #2824]
 3818              	.LVL365:
 3819              		.loc 1 158 0
ARM GAS  /tmp/ccxvl19p.s 			page 68


 3820 002a 0028     		cmp	r0, #0
 3821 002c 00F0D580 		beq	.L548
 3822 0030 0128     		cmp	r0, #1
 3823              		.loc 1 159 0
 3824 0032 C3F82029 		str	r2, [r3, #2336]
 3825              		.loc 1 160 0
 3826 0036 C3F83029 		str	r2, [r3, #2352]
 3827              		.loc 1 161 0
 3828 003a C3F82819 		str	r1, [r3, #2344]
 3829              		.loc 1 163 0
 3830 003e C3F8202B 		str	r2, [r3, #2848]
 3831              		.loc 1 164 0
 3832 0042 C3F8302B 		str	r2, [r3, #2864]
 3833              		.loc 1 165 0
 3834 0046 C3F8281B 		str	r1, [r3, #2856]
 3835              	.LVL366:
 3836              		.loc 1 158 0
 3837 004a 40F2C680 		bls	.L548
 3838 004e 0228     		cmp	r0, #2
 3839              		.loc 1 159 0
 3840 0050 C3F84029 		str	r2, [r3, #2368]
 3841              		.loc 1 160 0
 3842 0054 C3F85029 		str	r2, [r3, #2384]
 3843              		.loc 1 161 0
 3844 0058 C3F84819 		str	r1, [r3, #2376]
 3845              		.loc 1 163 0
 3846 005c C3F8402B 		str	r2, [r3, #2880]
 3847              		.loc 1 164 0
 3848 0060 C3F8502B 		str	r2, [r3, #2896]
 3849              		.loc 1 165 0
 3850 0064 C3F8481B 		str	r1, [r3, #2888]
 3851              	.LVL367:
 3852              		.loc 1 158 0
 3853 0068 00F0B780 		beq	.L548
 3854 006c 0328     		cmp	r0, #3
 3855              		.loc 1 159 0
 3856 006e C3F86029 		str	r2, [r3, #2400]
 3857              		.loc 1 160 0
 3858 0072 C3F87029 		str	r2, [r3, #2416]
 3859              		.loc 1 161 0
 3860 0076 C3F86819 		str	r1, [r3, #2408]
 3861              		.loc 1 163 0
 3862 007a C3F8602B 		str	r2, [r3, #2912]
 3863              		.loc 1 164 0
 3864 007e C3F8702B 		str	r2, [r3, #2928]
 3865              		.loc 1 165 0
 3866 0082 C3F8681B 		str	r1, [r3, #2920]
 3867              	.LVL368:
 3868              		.loc 1 158 0
 3869 0086 00F0A880 		beq	.L548
 3870 008a 0428     		cmp	r0, #4
 3871              		.loc 1 159 0
 3872 008c C3F88029 		str	r2, [r3, #2432]
 3873              		.loc 1 160 0
 3874 0090 C3F89029 		str	r2, [r3, #2448]
 3875              		.loc 1 161 0
 3876 0094 C3F88819 		str	r1, [r3, #2440]
ARM GAS  /tmp/ccxvl19p.s 			page 69


 3877              		.loc 1 163 0
 3878 0098 C3F8802B 		str	r2, [r3, #2944]
 3879              		.loc 1 164 0
 3880 009c C3F8902B 		str	r2, [r3, #2960]
 3881              		.loc 1 165 0
 3882 00a0 C3F8881B 		str	r1, [r3, #2952]
 3883              	.LVL369:
 3884              		.loc 1 158 0
 3885 00a4 00F09980 		beq	.L548
 3886 00a8 0528     		cmp	r0, #5
 3887              		.loc 1 159 0
 3888 00aa C3F8A029 		str	r2, [r3, #2464]
 3889              		.loc 1 160 0
 3890 00ae C3F8B029 		str	r2, [r3, #2480]
 3891              		.loc 1 161 0
 3892 00b2 C3F8A819 		str	r1, [r3, #2472]
 3893              		.loc 1 163 0
 3894 00b6 C3F8A02B 		str	r2, [r3, #2976]
 3895              		.loc 1 164 0
 3896 00ba C3F8B02B 		str	r2, [r3, #2992]
 3897              		.loc 1 165 0
 3898 00be C3F8A81B 		str	r1, [r3, #2984]
 3899              	.LVL370:
 3900              		.loc 1 158 0
 3901 00c2 00F08A80 		beq	.L548
 3902 00c6 0628     		cmp	r0, #6
 3903              		.loc 1 159 0
 3904 00c8 C3F8C029 		str	r2, [r3, #2496]
 3905              		.loc 1 160 0
 3906 00cc C3F8D029 		str	r2, [r3, #2512]
 3907              		.loc 1 161 0
 3908 00d0 C3F8C819 		str	r1, [r3, #2504]
 3909              		.loc 1 163 0
 3910 00d4 C3F8C02B 		str	r2, [r3, #3008]
 3911              		.loc 1 164 0
 3912 00d8 C3F8D02B 		str	r2, [r3, #3024]
 3913              		.loc 1 165 0
 3914 00dc C3F8C81B 		str	r1, [r3, #3016]
 3915              	.LVL371:
 3916              		.loc 1 158 0
 3917 00e0 7BD0     		beq	.L548
 3918 00e2 0728     		cmp	r0, #7
 3919              		.loc 1 159 0
 3920 00e4 C3F8E029 		str	r2, [r3, #2528]
 3921              		.loc 1 160 0
 3922 00e8 C3F8F029 		str	r2, [r3, #2544]
 3923              		.loc 1 161 0
 3924 00ec C3F8E819 		str	r1, [r3, #2536]
 3925              		.loc 1 163 0
 3926 00f0 C3F8E02B 		str	r2, [r3, #3040]
 3927              		.loc 1 164 0
 3928 00f4 C3F8F02B 		str	r2, [r3, #3056]
 3929              		.loc 1 165 0
 3930 00f8 C3F8E81B 		str	r1, [r3, #3048]
 3931              	.LVL372:
 3932              		.loc 1 158 0
 3933 00fc 6DD0     		beq	.L548
ARM GAS  /tmp/ccxvl19p.s 			page 70


 3934 00fe 0828     		cmp	r0, #8
 3935              		.loc 1 159 0
 3936 0100 C3F8002A 		str	r2, [r3, #2560]
 3937              		.loc 1 160 0
 3938 0104 C3F8102A 		str	r2, [r3, #2576]
 3939              		.loc 1 161 0
 3940 0108 C3F8081A 		str	r1, [r3, #2568]
 3941              		.loc 1 163 0
 3942 010c C3F8002C 		str	r2, [r3, #3072]
 3943              		.loc 1 164 0
 3944 0110 C3F8102C 		str	r2, [r3, #3088]
 3945              		.loc 1 165 0
 3946 0114 C3F8081C 		str	r1, [r3, #3080]
 3947              	.LVL373:
 3948              		.loc 1 158 0
 3949 0118 5FD0     		beq	.L548
 3950 011a 0928     		cmp	r0, #9
 3951              		.loc 1 159 0
 3952 011c C3F8202A 		str	r2, [r3, #2592]
 3953              		.loc 1 160 0
 3954 0120 C3F8302A 		str	r2, [r3, #2608]
 3955              		.loc 1 161 0
 3956 0124 C3F8281A 		str	r1, [r3, #2600]
 3957              		.loc 1 163 0
 3958 0128 C3F8202C 		str	r2, [r3, #3104]
 3959              		.loc 1 164 0
 3960 012c C3F8302C 		str	r2, [r3, #3120]
 3961              		.loc 1 165 0
 3962 0130 C3F8281C 		str	r1, [r3, #3112]
 3963              	.LVL374:
 3964              		.loc 1 158 0
 3965 0134 51D0     		beq	.L548
 3966 0136 0A28     		cmp	r0, #10
 3967              		.loc 1 159 0
 3968 0138 C3F8402A 		str	r2, [r3, #2624]
 3969              		.loc 1 160 0
 3970 013c C3F8502A 		str	r2, [r3, #2640]
 3971              		.loc 1 161 0
 3972 0140 C3F8481A 		str	r1, [r3, #2632]
 3973              		.loc 1 163 0
 3974 0144 C3F8402C 		str	r2, [r3, #3136]
 3975              		.loc 1 164 0
 3976 0148 C3F8502C 		str	r2, [r3, #3152]
 3977              		.loc 1 165 0
 3978 014c C3F8481C 		str	r1, [r3, #3144]
 3979              	.LVL375:
 3980              		.loc 1 158 0
 3981 0150 43D0     		beq	.L548
 3982 0152 0B28     		cmp	r0, #11
 3983              		.loc 1 159 0
 3984 0154 C3F8602A 		str	r2, [r3, #2656]
 3985              		.loc 1 160 0
 3986 0158 C3F8702A 		str	r2, [r3, #2672]
 3987              		.loc 1 161 0
 3988 015c C3F8681A 		str	r1, [r3, #2664]
 3989              		.loc 1 163 0
 3990 0160 C3F8602C 		str	r2, [r3, #3168]
ARM GAS  /tmp/ccxvl19p.s 			page 71


 3991              		.loc 1 164 0
 3992 0164 C3F8702C 		str	r2, [r3, #3184]
 3993              		.loc 1 165 0
 3994 0168 C3F8681C 		str	r1, [r3, #3176]
 3995              	.LVL376:
 3996              		.loc 1 158 0
 3997 016c 35D0     		beq	.L548
 3998 016e 0C28     		cmp	r0, #12
 3999              		.loc 1 159 0
 4000 0170 C3F8802A 		str	r2, [r3, #2688]
 4001              		.loc 1 160 0
 4002 0174 C3F8902A 		str	r2, [r3, #2704]
 4003              		.loc 1 161 0
 4004 0178 C3F8881A 		str	r1, [r3, #2696]
 4005              		.loc 1 163 0
 4006 017c C3F8802C 		str	r2, [r3, #3200]
 4007              		.loc 1 164 0
 4008 0180 C3F8902C 		str	r2, [r3, #3216]
 4009              		.loc 1 165 0
 4010 0184 C3F8881C 		str	r1, [r3, #3208]
 4011              	.LVL377:
 4012              		.loc 1 158 0
 4013 0188 27D0     		beq	.L548
 4014 018a 0D28     		cmp	r0, #13
 4015              		.loc 1 159 0
 4016 018c C3F8A02A 		str	r2, [r3, #2720]
 4017              		.loc 1 160 0
 4018 0190 C3F8B02A 		str	r2, [r3, #2736]
 4019              		.loc 1 161 0
 4020 0194 C3F8A81A 		str	r1, [r3, #2728]
 4021              		.loc 1 163 0
 4022 0198 C3F8A02C 		str	r2, [r3, #3232]
 4023              		.loc 1 164 0
 4024 019c C3F8B02C 		str	r2, [r3, #3248]
 4025              		.loc 1 165 0
 4026 01a0 C3F8A81C 		str	r1, [r3, #3240]
 4027              	.LVL378:
 4028              		.loc 1 158 0
 4029 01a4 19D0     		beq	.L548
 4030 01a6 0E28     		cmp	r0, #14
 4031              		.loc 1 159 0
 4032 01a8 C3F8C02A 		str	r2, [r3, #2752]
 4033              		.loc 1 160 0
 4034 01ac C3F8D02A 		str	r2, [r3, #2768]
 4035              		.loc 1 161 0
 4036 01b0 C3F8C81A 		str	r1, [r3, #2760]
 4037              		.loc 1 163 0
 4038 01b4 C3F8C02C 		str	r2, [r3, #3264]
 4039              		.loc 1 164 0
 4040 01b8 C3F8D02C 		str	r2, [r3, #3280]
 4041              		.loc 1 165 0
 4042 01bc C3F8C81C 		str	r1, [r3, #3272]
 4043              	.LVL379:
 4044              		.loc 1 158 0
 4045 01c0 0BD0     		beq	.L548
 4046              		.loc 1 159 0
 4047 01c2 C3F8E02A 		str	r2, [r3, #2784]
ARM GAS  /tmp/ccxvl19p.s 			page 72


 4048              		.loc 1 160 0
 4049 01c6 C3F8F02A 		str	r2, [r3, #2800]
 4050              		.loc 1 161 0
 4051 01ca C3F8E81A 		str	r1, [r3, #2792]
 4052              		.loc 1 163 0
 4053 01ce C3F8E02C 		str	r2, [r3, #3296]
 4054              		.loc 1 164 0
 4055 01d2 C3F8F02C 		str	r2, [r3, #3312]
 4056              		.loc 1 165 0
 4057 01d6 C3F8E81C 		str	r1, [r3, #3304]
 4058              	.LVL380:
 4059              	.L548:
 4060              		.loc 1 167 0
 4061 01da 4FF00112 		mov	r2, #65537
 4062 01de C3F81C28 		str	r2, [r3, #2076]
 4063              	.LVL381:
 4064              	.LBE603:
 4065              	.LBE602:
 4066              		.loc 1 1047 0
 4067 01e2 5DF8044B 		ldr	r4, [sp], #4
 4068              		.cfi_restore 4
 4069              		.cfi_def_cfa_offset 0
 4070 01e6 7047     		bx	lr
 4071              		.cfi_endproc
 4072              	.LFE349:
 4073              		.size	usb_lld_disable_endpoints, .-usb_lld_disable_endpoints
 4074              		.section	.text.usb_lld_get_status_out,"ax",%progbits
 4075              		.align	1
 4076              		.p2align 2,,3
 4077              		.global	usb_lld_get_status_out
 4078              		.syntax unified
 4079              		.thumb
 4080              		.thumb_func
 4081              		.fpu fpv4-sp-d16
 4082              		.type	usb_lld_get_status_out, %function
 4083              	usb_lld_get_status_out:
 4084              	.LFB350:
 4085              		.loc 1 1061 0
 4086              		.cfi_startproc
 4087              		@ args = 0, pretend = 0, frame = 0
 4088              		@ frame_needed = 0, uses_anonymous_args = 0
 4089              		@ link register save eliminated.
 4090              	.LVL382:
 4091              		.loc 1 1066 0
 4092 0000 5831     		adds	r1, r1, #88
 4093              	.LVL383:
 4094 0002 436D     		ldr	r3, [r0, #84]
 4095 0004 4901     		lsls	r1, r1, #5
 4096 0006 5B58     		ldr	r3, [r3, r1]
 4097              	.LVL384:
 4098              		.loc 1 1067 0
 4099 0008 13F40040 		ands	r0, r3, #32768
 4100              	.LVL385:
 4101 000c 04D0     		beq	.L593
 4102              		.loc 1 1069 0
 4103 000e 13F4001F 		tst	r3, #2097152
 4104              		.loc 1 1071 0
ARM GAS  /tmp/ccxvl19p.s 			page 73


 4105 0012 14BF     		ite	ne
 4106 0014 0120     		movne	r0, #1
 4107 0016 0220     		moveq	r0, #2
 4108              	.L593:
 4109              		.loc 1 1072 0
 4110 0018 7047     		bx	lr
 4111              		.cfi_endproc
 4112              	.LFE350:
 4113              		.size	usb_lld_get_status_out, .-usb_lld_get_status_out
 4114 001a 00BF     		.section	.text.usb_lld_get_status_in,"ax",%progbits
 4115              		.align	1
 4116              		.p2align 2,,3
 4117              		.global	usb_lld_get_status_in
 4118              		.syntax unified
 4119              		.thumb
 4120              		.thumb_func
 4121              		.fpu fpv4-sp-d16
 4122              		.type	usb_lld_get_status_in, %function
 4123              	usb_lld_get_status_in:
 4124              	.LFB351:
 4125              		.loc 1 1086 0
 4126              		.cfi_startproc
 4127              		@ args = 0, pretend = 0, frame = 0
 4128              		@ frame_needed = 0, uses_anonymous_args = 0
 4129              		@ link register save eliminated.
 4130              	.LVL386:
 4131              		.loc 1 1091 0
 4132 0000 4831     		adds	r1, r1, #72
 4133              	.LVL387:
 4134 0002 436D     		ldr	r3, [r0, #84]
 4135 0004 4901     		lsls	r1, r1, #5
 4136 0006 5B58     		ldr	r3, [r3, r1]
 4137              	.LVL388:
 4138              		.loc 1 1092 0
 4139 0008 13F40040 		ands	r0, r3, #32768
 4140              	.LVL389:
 4141 000c 04D0     		beq	.L597
 4142              		.loc 1 1094 0
 4143 000e 13F4001F 		tst	r3, #2097152
 4144              		.loc 1 1096 0
 4145 0012 14BF     		ite	ne
 4146 0014 0120     		movne	r0, #1
 4147 0016 0220     		moveq	r0, #2
 4148              	.L597:
 4149              		.loc 1 1097 0
 4150 0018 7047     		bx	lr
 4151              		.cfi_endproc
 4152              	.LFE351:
 4153              		.size	usb_lld_get_status_in, .-usb_lld_get_status_in
 4154 001a 00BF     		.section	.text.usb_lld_read_setup,"ax",%progbits
 4155              		.align	1
 4156              		.p2align 2,,3
 4157              		.global	usb_lld_read_setup
 4158              		.syntax unified
 4159              		.thumb
 4160              		.thumb_func
 4161              		.fpu fpv4-sp-d16
ARM GAS  /tmp/ccxvl19p.s 			page 74


 4162              		.type	usb_lld_read_setup, %function
 4163              	usb_lld_read_setup:
 4164              	.LFB352:
 4165              		.loc 1 1113 0
 4166              		.cfi_startproc
 4167              		@ args = 0, pretend = 0, frame = 0
 4168              		@ frame_needed = 0, uses_anonymous_args = 0
 4169              		@ link register save eliminated.
 4170              	.LVL390:
 4171              		.loc 1 1115 0
 4172 0000 00EB8101 		add	r1, r0, r1, lsl #2
 4173              	.LVL391:
 4174 0004 CB68     		ldr	r3, [r1, #12]
 4175 0006 1B6A     		ldr	r3, [r3, #32]
 4176 0008 1968     		ldr	r1, [r3]	@ unaligned
 4177 000a 5B68     		ldr	r3, [r3, #4]	@ unaligned
 4178 000c 5360     		str	r3, [r2, #4]	@ unaligned
 4179 000e 1160     		str	r1, [r2]	@ unaligned
 4180              		.loc 1 1116 0
 4181 0010 7047     		bx	lr
 4182              		.cfi_endproc
 4183              	.LFE352:
 4184              		.size	usb_lld_read_setup, .-usb_lld_read_setup
 4185 0012 00BF     		.section	.text.usb_lld_start_out,"ax",%progbits
 4186              		.align	1
 4187              		.p2align 2,,3
 4188              		.global	usb_lld_start_out
 4189              		.syntax unified
 4190              		.thumb
 4191              		.thumb_func
 4192              		.fpu fpv4-sp-d16
 4193              		.type	usb_lld_start_out, %function
 4194              	usb_lld_start_out:
 4195              	.LFB353:
 4196              		.loc 1 1126 0
 4197              		.cfi_startproc
 4198              		@ args = 0, pretend = 0, frame = 0
 4199              		@ frame_needed = 0, uses_anonymous_args = 0
 4200              		@ link register save eliminated.
 4201              	.LVL392:
 4202              		.loc 1 1128 0
 4203 0000 00EB8103 		add	r3, r0, r1, lsl #2
 4204              		.loc 1 1126 0
 4205 0004 30B4     		push	{r4, r5}
 4206              		.cfi_def_cfa_offset 8
 4207              		.cfi_offset 4, -8
 4208              		.cfi_offset 5, -4
 4209              		.loc 1 1128 0
 4210 0006 DD68     		ldr	r5, [r3, #12]
 4211 0008 AB69     		ldr	r3, [r5, #24]
 4212              	.LVL393:
 4213              		.loc 1 1131 0
 4214 000a 1C68     		ldr	r4, [r3]
 4215 000c DC60     		str	r4, [r3, #12]
 4216              		.loc 1 1132 0
 4217 000e 19B9     		cbnz	r1, .L602
 4218              		.loc 1 1132 0 is_stmt 0 discriminator 1
ARM GAS  /tmp/ccxvl19p.s 			page 75


 4219 0010 402C     		cmp	r4, #64
 4220              		.loc 1 1133 0 is_stmt 1 discriminator 1
 4221 0012 84BF     		itt	hi
 4222 0014 4024     		movhi	r4, #64
 4223 0016 1C60     		strhi	r4, [r3]
 4224              	.L602:
 4225              		.loc 1 1140 0
 4226 0018 6B8A     		ldrh	r3, [r5, #18]
 4227              	.LVL394:
 4228              		.loc 1 1145 0
 4229 001a 406D     		ldr	r0, [r0, #84]
 4230              	.LVL395:
 4231              		.loc 1 1149 0
 4232 001c 2D68     		ldr	r5, [r5]
 4233              	.LVL396:
 4234              		.loc 1 1140 0
 4235 001e 5A1E     		subs	r2, r3, #1
 4236 0020 2244     		add	r2, r2, r4
 4237 0022 B2FBF3F2 		udiv	r2, r2, r3
 4238              	.LVL397:
 4239              		.loc 1 1142 0
 4240 0026 02FB03F3 		mul	r3, r2, r3
 4241              	.LVL398:
 4242 002a 0333     		adds	r3, r3, #3
 4243 002c 23F00303 		bic	r3, r3, #3
 4244              	.LVL399:
 4245              		.loc 1 1145 0
 4246 0030 43EAC243 		orr	r3, r3, r2, lsl #19
 4247              	.LVL400:
 4248 0034 00EB4114 		add	r4, r0, r1, lsl #5
 4249              		.loc 1 1149 0
 4250 0038 05F00302 		and	r2, r5, #3
 4251              	.LVL401:
 4252              		.loc 1 1145 0
 4253 003c 43F0C043 		orr	r3, r3, #1610612736
 4254              		.loc 1 1149 0
 4255 0040 012A     		cmp	r2, #1
 4256              		.loc 1 1145 0
 4257 0042 C4F8103B 		str	r3, [r4, #2832]
 4258              		.loc 1 1149 0
 4259 0046 0AD0     		beq	.L606
 4260 0048 09B2     		sxth	r1, r1
 4261              	.LVL402:
 4262              	.L603:
 4263 004a 00EB4111 		add	r1, r0, r1, lsl #5
 4264              		.loc 1 1159 0
 4265 004e 30BC     		pop	{r4, r5}
 4266              		.cfi_remember_state
 4267              		.cfi_restore 5
 4268              		.cfi_restore 4
 4269              		.cfi_def_cfa_offset 0
 4270              		.loc 1 1158 0
 4271 0050 D1F8003B 		ldr	r3, [r1, #2816]
 4272 0054 43F00443 		orr	r3, r3, #-2080374784
 4273 0058 C1F8003B 		str	r3, [r1, #2816]
 4274              		.loc 1 1159 0
 4275 005c 7047     		bx	lr
ARM GAS  /tmp/ccxvl19p.s 			page 76


 4276              	.LVL403:
 4277              	.L606:
 4278              		.cfi_restore_state
 4279 005e 09B2     		sxth	r1, r1
 4280              	.LVL404:
 4281              		.loc 1 1151 0
 4282 0060 D0F80838 		ldr	r3, [r0, #2056]
 4283 0064 00EB4112 		add	r2, r0, r1, lsl #5
 4284 0068 13F4807F 		tst	r3, #256
 4285              		.loc 1 1152 0
 4286 006c D2F8003B 		ldr	r3, [r2, #2816]
 4287 0070 14BF     		ite	ne
 4288 0072 43F08053 		orrne	r3, r3, #268435456
 4289              		.loc 1 1154 0
 4290 0076 43F00053 		orreq	r3, r3, #536870912
 4291 007a C2F8003B 		str	r3, [r2, #2816]
 4292 007e E4E7     		b	.L603
 4293              		.cfi_endproc
 4294              	.LFE353:
 4295              		.size	usb_lld_start_out, .-usb_lld_start_out
 4296              		.section	.text.usb_lld_start_in,"ax",%progbits
 4297              		.align	1
 4298              		.p2align 2,,3
 4299              		.global	usb_lld_start_in
 4300              		.syntax unified
 4301              		.thumb
 4302              		.thumb_func
 4303              		.fpu fpv4-sp-d16
 4304              		.type	usb_lld_start_in, %function
 4305              	usb_lld_start_in:
 4306              	.LFB354:
 4307              		.loc 1 1169 0
 4308              		.cfi_startproc
 4309              		@ args = 0, pretend = 0, frame = 0
 4310              		@ frame_needed = 0, uses_anonymous_args = 0
 4311              		@ link register save eliminated.
 4312              	.LVL405:
 4313              		.loc 1 1170 0
 4314 0000 00EB8103 		add	r3, r0, r1, lsl #2
 4315 0004 426D     		ldr	r2, [r0, #84]
 4316 0006 D868     		ldr	r0, [r3, #12]
 4317              	.LVL406:
 4318              		.loc 1 1169 0
 4319 0008 F0B4     		push	{r4, r5, r6, r7}
 4320              		.cfi_def_cfa_offset 16
 4321              		.cfi_offset 4, -16
 4322              		.cfi_offset 5, -12
 4323              		.cfi_offset 6, -8
 4324              		.cfi_offset 7, -4
 4325              		.loc 1 1170 0
 4326 000a 4469     		ldr	r4, [r0, #20]
 4327              	.LVL407:
 4328              		.loc 1 1173 0
 4329 000c 2368     		ldr	r3, [r4]
 4330 000e E360     		str	r3, [r4, #12]
 4331              		.loc 1 1174 0
 4332 0010 EBB9     		cbnz	r3, .L609
ARM GAS  /tmp/ccxvl19p.s 			page 77


 4333              		.loc 1 1176 0
 4334 0012 02EB4113 		add	r3, r2, r1, lsl #5
 4335 0016 4FF40024 		mov	r4, #524288
 4336              	.LVL408:
 4337 001a C3F81049 		str	r4, [r3, #2320]
 4338              		.loc 1 1191 0
 4339 001e 0368     		ldr	r3, [r0]
 4340 0020 03F00303 		and	r3, r3, #3
 4341 0024 012B     		cmp	r3, #1
 4342 0026 25D0     		beq	.L617
 4343              	.L620:
 4344 0028 08B2     		sxth	r0, r1
 4345              	.LVL409:
 4346              	.L614:
 4347 002a 02EB4010 		add	r0, r2, r0, lsl #5
 4348              		.loc 1 1201 0
 4349 002e 0123     		movs	r3, #1
 4350              		.loc 1 1200 0
 4351 0030 D0F80049 		ldr	r4, [r0, #2304]
 4352 0034 44F00444 		orr	r4, r4, #-2080374784
 4353 0038 C0F80049 		str	r4, [r0, #2304]
 4354              		.loc 1 1201 0
 4355 003c D2F83408 		ldr	r0, [r2, #2100]
 4356 0040 03FA01F1 		lsl	r1, r3, r1
 4357              	.LVL410:
 4358 0044 0143     		orrs	r1, r1, r0
 4359 0046 C2F83418 		str	r1, [r2, #2100]
 4360              		.loc 1 1202 0
 4361 004a F0BC     		pop	{r4, r5, r6, r7}
 4362              		.cfi_remember_state
 4363              		.cfi_restore 7
 4364              		.cfi_restore 6
 4365              		.cfi_restore 5
 4366              		.cfi_restore 4
 4367              		.cfi_def_cfa_offset 0
 4368 004c 7047     		bx	lr
 4369              	.LVL411:
 4370              	.L609:
 4371              		.cfi_restore_state
 4372              	.LBB604:
 4373              		.loc 1 1179 0
 4374 004e 11B3     		cbz	r1, .L611
 4375              	.L619:
 4376 0050 43F00056 		orr	r6, r3, #536870912
 4377              	.L612:
 4378              		.loc 1 1183 0
 4379 0054 078A     		ldrh	r7, [r0, #16]
 4380              	.LVL412:
 4381              		.loc 1 1186 0
 4382 0056 02EB4115 		add	r5, r2, r1, lsl #5
 4383              		.loc 1 1183 0
 4384 005a 7C1E     		subs	r4, r7, #1
 4385              	.LVL413:
 4386 005c 2344     		add	r3, r3, r4
 4387              	.LVL414:
 4388 005e B3FBF7F3 		udiv	r3, r3, r7
 4389              		.loc 1 1186 0
ARM GAS  /tmp/ccxvl19p.s 			page 78


 4390 0062 46EAC343 		orr	r3, r6, r3, lsl #19
 4391 0066 C5F81039 		str	r3, [r5, #2320]
 4392              	.LBE604:
 4393              		.loc 1 1191 0
 4394 006a 0368     		ldr	r3, [r0]
 4395 006c 03F00303 		and	r3, r3, #3
 4396 0070 012B     		cmp	r3, #1
 4397 0072 D9D1     		bne	.L620
 4398              	.L617:
 4399 0074 08B2     		sxth	r0, r1
 4400              	.LVL415:
 4401              		.loc 1 1193 0
 4402 0076 D2F80838 		ldr	r3, [r2, #2056]
 4403 007a 02EB4014 		add	r4, r2, r0, lsl #5
 4404 007e 13F4807F 		tst	r3, #256
 4405              		.loc 1 1194 0
 4406 0082 D4F80039 		ldr	r3, [r4, #2304]
 4407 0086 14BF     		ite	ne
 4408 0088 43F08053 		orrne	r3, r3, #268435456
 4409              		.loc 1 1196 0
 4410 008c 43F00053 		orreq	r3, r3, #536870912
 4411 0090 C4F80039 		str	r3, [r4, #2304]
 4412 0094 C9E7     		b	.L614
 4413              	.LVL416:
 4414              	.L611:
 4415              	.LBB605:
 4416              		.loc 1 1179 0 discriminator 1
 4417 0096 402B     		cmp	r3, #64
 4418 0098 DAD9     		bls	.L619
 4419              		.loc 1 1180 0
 4420 009a 4023     		movs	r3, #64
 4421 009c 014E     		ldr	r6, .L621
 4422 009e 2360     		str	r3, [r4]
 4423 00a0 D8E7     		b	.L612
 4424              	.L622:
 4425 00a2 00BF     		.align	2
 4426              	.L621:
 4427 00a4 40000020 		.word	536870976
 4428              	.LBE605:
 4429              		.cfi_endproc
 4430              	.LFE354:
 4431              		.size	usb_lld_start_in, .-usb_lld_start_in
 4432              		.section	.text.usb_lld_stall_out,"ax",%progbits
 4433              		.align	1
 4434              		.p2align 2,,3
 4435              		.global	usb_lld_stall_out
 4436              		.syntax unified
 4437              		.thumb
 4438              		.thumb_func
 4439              		.fpu fpv4-sp-d16
 4440              		.type	usb_lld_stall_out, %function
 4441              	usb_lld_stall_out:
 4442              	.LFB355:
 4443              		.loc 1 1212 0
 4444              		.cfi_startproc
 4445              		@ args = 0, pretend = 0, frame = 0
 4446              		@ frame_needed = 0, uses_anonymous_args = 0
ARM GAS  /tmp/ccxvl19p.s 			page 79


 4447              		@ link register save eliminated.
 4448              	.LVL417:
 4449 0000 436D     		ldr	r3, [r0, #84]
 4450 0002 03EB4111 		add	r1, r3, r1, lsl #5
 4451              	.LVL418:
 4452              		.loc 1 1214 0
 4453 0006 D1F8003B 		ldr	r3, [r1, #2816]
 4454 000a 43F40013 		orr	r3, r3, #2097152
 4455 000e C1F8003B 		str	r3, [r1, #2816]
 4456              		.loc 1 1215 0
 4457 0012 7047     		bx	lr
 4458              		.cfi_endproc
 4459              	.LFE355:
 4460              		.size	usb_lld_stall_out, .-usb_lld_stall_out
 4461              		.section	.text.usb_lld_stall_in,"ax",%progbits
 4462              		.align	1
 4463              		.p2align 2,,3
 4464              		.global	usb_lld_stall_in
 4465              		.syntax unified
 4466              		.thumb
 4467              		.thumb_func
 4468              		.fpu fpv4-sp-d16
 4469              		.type	usb_lld_stall_in, %function
 4470              	usb_lld_stall_in:
 4471              	.LFB356:
 4472              		.loc 1 1225 0
 4473              		.cfi_startproc
 4474              		@ args = 0, pretend = 0, frame = 0
 4475              		@ frame_needed = 0, uses_anonymous_args = 0
 4476              		@ link register save eliminated.
 4477              	.LVL419:
 4478 0000 436D     		ldr	r3, [r0, #84]
 4479 0002 03EB4111 		add	r1, r3, r1, lsl #5
 4480              	.LVL420:
 4481              		.loc 1 1227 0
 4482 0006 D1F80039 		ldr	r3, [r1, #2304]
 4483 000a 43F40013 		orr	r3, r3, #2097152
 4484 000e C1F80039 		str	r3, [r1, #2304]
 4485              		.loc 1 1228 0
 4486 0012 7047     		bx	lr
 4487              		.cfi_endproc
 4488              	.LFE356:
 4489              		.size	usb_lld_stall_in, .-usb_lld_stall_in
 4490              		.section	.text.usb_lld_clear_out,"ax",%progbits
 4491              		.align	1
 4492              		.p2align 2,,3
 4493              		.global	usb_lld_clear_out
 4494              		.syntax unified
 4495              		.thumb
 4496              		.thumb_func
 4497              		.fpu fpv4-sp-d16
 4498              		.type	usb_lld_clear_out, %function
 4499              	usb_lld_clear_out:
 4500              	.LFB357:
 4501              		.loc 1 1238 0
 4502              		.cfi_startproc
 4503              		@ args = 0, pretend = 0, frame = 0
ARM GAS  /tmp/ccxvl19p.s 			page 80


 4504              		@ frame_needed = 0, uses_anonymous_args = 0
 4505              		@ link register save eliminated.
 4506              	.LVL421:
 4507 0000 436D     		ldr	r3, [r0, #84]
 4508 0002 03EB4111 		add	r1, r3, r1, lsl #5
 4509              	.LVL422:
 4510              		.loc 1 1240 0
 4511 0006 D1F8003B 		ldr	r3, [r1, #2816]
 4512 000a 23F40013 		bic	r3, r3, #2097152
 4513 000e C1F8003B 		str	r3, [r1, #2816]
 4514              		.loc 1 1241 0
 4515 0012 7047     		bx	lr
 4516              		.cfi_endproc
 4517              	.LFE357:
 4518              		.size	usb_lld_clear_out, .-usb_lld_clear_out
 4519              		.section	.text.usb_lld_clear_in,"ax",%progbits
 4520              		.align	1
 4521              		.p2align 2,,3
 4522              		.global	usb_lld_clear_in
 4523              		.syntax unified
 4524              		.thumb
 4525              		.thumb_func
 4526              		.fpu fpv4-sp-d16
 4527              		.type	usb_lld_clear_in, %function
 4528              	usb_lld_clear_in:
 4529              	.LFB358:
 4530              		.loc 1 1251 0
 4531              		.cfi_startproc
 4532              		@ args = 0, pretend = 0, frame = 0
 4533              		@ frame_needed = 0, uses_anonymous_args = 0
 4534              		@ link register save eliminated.
 4535              	.LVL423:
 4536 0000 436D     		ldr	r3, [r0, #84]
 4537 0002 03EB4111 		add	r1, r3, r1, lsl #5
 4538              	.LVL424:
 4539              		.loc 1 1253 0
 4540 0006 D1F80039 		ldr	r3, [r1, #2304]
 4541 000a 23F40013 		bic	r3, r3, #2097152
 4542 000e C1F80039 		str	r3, [r1, #2304]
 4543              		.loc 1 1254 0
 4544 0012 7047     		bx	lr
 4545              		.cfi_endproc
 4546              	.LFE358:
 4547              		.size	usb_lld_clear_in, .-usb_lld_clear_in
 4548              		.global	USBD1
 4549              		.section	.bss.USBD1,"aw",%nobits
 4550              		.align	2
 4551              		.set	.LANCHOR0,. + 0
 4552              		.type	USBD1, %object
 4553              		.size	USBD1, 96
 4554              	USBD1:
 4555 0000 00000000 		.space	96
 4555      00000000 
 4555      00000000 
 4555      00000000 
 4555      00000000 
 4556              		.section	.bss.ep0_state,"aw",%nobits
ARM GAS  /tmp/ccxvl19p.s 			page 81


 4557              		.align	2
 4558              		.type	ep0_state, %object
 4559              		.size	ep0_state, 16
 4560              	ep0_state:
 4561 0000 00000000 		.space	16
 4561      00000000 
 4561      00000000 
 4561      00000000 
 4562              		.section	.bss.ep0setup_buffer,"aw",%nobits
 4563              		.align	2
 4564              		.type	ep0setup_buffer, %object
 4565              		.size	ep0setup_buffer, 8
 4566              	ep0setup_buffer:
 4567 0000 00000000 		.space	8
 4567      00000000 
 4568              		.section	.rodata.ep0config,"a",%progbits
 4569              		.align	2
 4570              		.set	.LANCHOR2,. + 0
 4571              		.type	ep0config, %object
 4572              		.size	ep0config, 36
 4573              	ep0config:
 4574 0000 00000000 		.word	0
 4575 0004 00000000 		.word	_usb_ep0setup
 4576 0008 00000000 		.word	_usb_ep0in
 4577 000c 00000000 		.word	_usb_ep0out
 4578 0010 4000     		.short	64
 4579 0012 4000     		.short	64
 4580 0014 00000000 		.word	ep0_state
 4581 0018 00000000 		.word	ep0_state
 4582 001c 0100     		.short	1
 4583 001e 0000     		.space	2
 4584 0020 00000000 		.word	ep0setup_buffer
 4585              		.section	.rodata.fsparams,"a",%progbits
 4586              		.align	2
 4587              		.set	.LANCHOR1,. + 0
 4588              		.type	fsparams, %object
 4589              		.size	fsparams, 12
 4590              	fsparams:
 4591 0000 80000000 		.word	128
 4592 0004 40010000 		.word	320
 4593 0008 03000000 		.word	3
 4594              		.text
 4595              	.Letext0:
 4596              		.file 4 "/usr/lib/gcc/arm-none-eabi/7.3.1/include/stddef.h"
 4597              		.file 5 "/usr/arm-none-eabi/include/machine/_default_types.h"
 4598              		.file 6 "/usr/arm-none-eabi/include/sys/lock.h"
 4599              		.file 7 "/usr/arm-none-eabi/include/sys/_types.h"
 4600              		.file 8 "/usr/arm-none-eabi/include/sys/reent.h"
 4601              		.file 9 "/usr/arm-none-eabi/include/sys/_stdint.h"
 4602              		.file 10 "./RM18A-ChibiOS18-Core/chibios/os/common/ports/ARMCMx/compilers/GCC/chtypes.h"
 4603              		.file 11 "./RM18A-ChibiOS18-Core/chibios/os/rt/include/chsystypes.h"
 4604              		.file 12 "./RM18A-ChibiOS18-Core/chibios/os/rt/include/chschd.h"
 4605              		.file 13 "./RM18A-ChibiOS18-Core/chibios/os/rt/include/chtime.h"
 4606              		.file 14 "./RM18A-ChibiOS18-Core/chibios/os/common/ext/ARM/CMSIS/Core/Include/core_cm4.h"
 4607              		.file 15 "./RM18A-ChibiOS18-Core/chibios/os/common/ext/ST/STM32F4xx/system_stm32f4xx.h"
 4608              		.file 16 "./RM18A-ChibiOS18-Core/chibios/os/common/ext/ST/STM32F4xx/stm32f427xx.h"
 4609              		.file 17 "./RM18A-ChibiOS18-Core/chibios/os/common/ports/ARMCMx/chcore.h"
ARM GAS  /tmp/ccxvl19p.s 			page 82


 4610              		.file 18 "./RM18A-ChibiOS18-Core/chibios/os/common/ports/ARMCMx/chcore_v7m.h"
 4611              		.file 19 "./RM18A-ChibiOS18-Core/chibios/os/hal/ports/STM32/LLD/TIMv1/stm32_tim.h"
 4612              		.file 20 "./RM18A-ChibiOS18-Core/chibios/os/rt/include/chtm.h"
 4613              		.file 21 "./RM18A-ChibiOS18-Core/chibios/os/rt/include/chsem.h"
 4614              		.file 22 "./RM18A-ChibiOS18-Core/chibios/os/rt/include/chmtx.h"
 4615              		.file 23 "./RM18A-ChibiOS18-Core/chibios/os/rt/include/chsys.h"
 4616              		.file 24 "./RM18A-ChibiOS18-Core/chibios/os/rt/include/chregistry.h"
 4617              		.file 25 "./RM18A-ChibiOS18-Core/chibios/os/rt/include/chevents.h"
 4618              		.file 26 "./RM18A-ChibiOS18-Core/chibios/os/oslib/include/chmemcore.h"
 4619              		.file 27 "./RM18A-ChibiOS18-Core/chibios/os/oslib/include/chmempools.h"
 4620              		.file 28 "./RM18A-ChibiOS18-Core/chibios/os/oslib/include/chfactory.h"
 4621              		.file 29 "./RM18A-ChibiOS18-Core/chibios/os/hal/ports/STM32/LLD/DMAv2/stm32_dma.h"
 4622              		.file 30 "./RM18A-ChibiOS18-Core/chibios/os/hal/include/hal_queues.h"
 4623              		.file 31 "./RM18A-ChibiOS18-Core/chibios/os/hal/include/hal_pal.h"
 4624              		.file 32 "./RM18A-ChibiOS18-Core/chibios/os/hal/ports/STM32/LLD/GPIOv2/hal_pal_lld.h"
 4625              		.file 33 "./RM18A-ChibiOS18-Core/chibios/os/hal/include/hal_adc.h"
 4626              		.file 34 "./RM18A-ChibiOS18-Core/chibios/os/hal/ports/STM32/LLD/ADCv2/hal_adc_lld.h"
 4627              		.file 35 "./RM18A-ChibiOS18-Core/chibios/os/hal/include/hal_can.h"
 4628              		.file 36 "./RM18A-ChibiOS18-Core/chibios/os/hal/ports/STM32/LLD/CANv1/hal_can_lld.h"
 4629              		.file 37 "./RM18A-ChibiOS18-Core/chibios/os/hal/include/hal_i2c.h"
 4630              		.file 38 "./RM18A-ChibiOS18-Core/chibios/os/hal/lib/fallback/I2C/hal_i2c_lld.h"
 4631              		.file 39 "./RM18A-ChibiOS18-Core/chibios/os/hal/include/hal_icu.h"
 4632              		.file 40 "./RM18A-ChibiOS18-Core/chibios/os/hal/ports/STM32/LLD/TIMv1/hal_icu_lld.h"
 4633              		.file 41 "./RM18A-ChibiOS18-Core/chibios/os/hal/include/hal_pwm.h"
 4634              		.file 42 "./RM18A-ChibiOS18-Core/chibios/os/hal/ports/STM32/LLD/TIMv1/hal_pwm_lld.h"
 4635              		.file 43 "./RM18A-ChibiOS18-Core/chibios/os/hal/include/hal_serial.h"
 4636              		.file 44 "./RM18A-ChibiOS18-Core/chibios/os/hal/ports/STM32/LLD/USARTv1/hal_serial_lld.h"
 4637              		.file 45 "./RM18A-ChibiOS18-Core/chibios/os/hal/include/hal_spi.h"
 4638              		.file 46 "./RM18A-ChibiOS18-Core/chibios/os/hal/ports/STM32/LLD/SPIv1/hal_spi_lld.h"
 4639              		.file 47 "./RM18A-ChibiOS18-Core/chibios/os/hal/include/hal_uart.h"
 4640              		.file 48 "./RM18A-ChibiOS18-Core/chibios/os/hal/ports/STM32/LLD/USARTv1/hal_uart_lld.h"
 4641              		.file 49 "./RM18A-ChibiOS18-Core/chibios/os/hal/include/hal_usb.h"
 4642              		.file 50 "./RM18A-ChibiOS18-Core/chibios/os/hal/ports/STM32/LLD/OTGv1/hal_usb_lld.h"
 4643              		.file 51 "./RM18A-ChibiOS18-Core/chibios/os/hal/ports/STM32/LLD/OTGv1/stm32_otg.h"
 4644              		.file 52 "./RM18A-ChibiOS18-Core/chibios/os/hal/ports/common/ARMCMx/nvic.h"
 4645              		.section	.debug_info,"",%progbits
 4646              	.Ldebug_info0:
 4647 0000 D34E0000 		.4byte	0x4ed3
 4648 0004 0400     		.2byte	0x4
 4649 0006 00000000 		.4byte	.Ldebug_abbrev0
 4650 000a 04       		.byte	0x4
 4651 000b 01       		.uleb128 0x1
 4652 000c 461E0000 		.4byte	.LASF783
 4653 0010 0C       		.byte	0xc
 4654 0011 54070000 		.4byte	.LASF784
 4655 0015 3F060000 		.4byte	.LASF785
 4656 0019 88030000 		.4byte	.Ldebug_ranges0+0x388
 4657 001d 00000000 		.4byte	0
 4658 0021 00000000 		.4byte	.Ldebug_line0
 4659 0025 02       		.uleb128 0x2
 4660 0026 04       		.byte	0x4
 4661 0027 07       		.byte	0x7
 4662 0028 0F200000 		.4byte	.LASF0
 4663 002c 03       		.uleb128 0x3
 4664 002d 04       		.byte	0x4
 4665 002e 05       		.byte	0x5
 4666 002f 696E7400 		.ascii	"int\000"
ARM GAS  /tmp/ccxvl19p.s 			page 83


 4667 0033 04       		.uleb128 0x4
 4668 0034 A70B0000 		.4byte	.LASF4
 4669 0038 04       		.byte	0x4
 4670 0039 D8       		.byte	0xd8
 4671 003a 25000000 		.4byte	0x25
 4672 003e 05       		.uleb128 0x5
 4673 003f 33000000 		.4byte	0x33
 4674 0043 02       		.uleb128 0x2
 4675 0044 08       		.byte	0x8
 4676 0045 05       		.byte	0x5
 4677 0046 691D0000 		.4byte	.LASF1
 4678 004a 02       		.uleb128 0x2
 4679 004b 08       		.byte	0x8
 4680 004c 04       		.byte	0x4
 4681 004d 83150000 		.4byte	.LASF2
 4682 0051 02       		.uleb128 0x2
 4683 0052 01       		.byte	0x1
 4684 0053 06       		.byte	0x6
 4685 0054 1D120000 		.4byte	.LASF3
 4686 0058 04       		.uleb128 0x4
 4687 0059 BC000000 		.4byte	.LASF5
 4688 005d 05       		.byte	0x5
 4689 005e 2B       		.byte	0x2b
 4690 005f 63000000 		.4byte	0x63
 4691 0063 02       		.uleb128 0x2
 4692 0064 01       		.byte	0x1
 4693 0065 08       		.byte	0x8
 4694 0066 63080000 		.4byte	.LASF6
 4695 006a 02       		.uleb128 0x2
 4696 006b 02       		.byte	0x2
 4697 006c 05       		.byte	0x5
 4698 006d 60200000 		.4byte	.LASF7
 4699 0071 04       		.uleb128 0x4
 4700 0072 E9060000 		.4byte	.LASF8
 4701 0076 05       		.byte	0x5
 4702 0077 39       		.byte	0x39
 4703 0078 7C000000 		.4byte	0x7c
 4704 007c 02       		.uleb128 0x2
 4705 007d 02       		.byte	0x2
 4706 007e 07       		.byte	0x7
 4707 007f 0A120000 		.4byte	.LASF9
 4708 0083 04       		.uleb128 0x4
 4709 0084 B6190000 		.4byte	.LASF10
 4710 0088 05       		.byte	0x5
 4711 0089 4D       		.byte	0x4d
 4712 008a 8E000000 		.4byte	0x8e
 4713 008e 02       		.uleb128 0x2
 4714 008f 04       		.byte	0x4
 4715 0090 05       		.byte	0x5
 4716 0091 67140000 		.4byte	.LASF11
 4717 0095 04       		.uleb128 0x4
 4718 0096 C0190000 		.4byte	.LASF12
 4719 009a 05       		.byte	0x5
 4720 009b 4F       		.byte	0x4f
 4721 009c A0000000 		.4byte	0xa0
 4722 00a0 02       		.uleb128 0x2
 4723 00a1 04       		.byte	0x4
ARM GAS  /tmp/ccxvl19p.s 			page 84


 4724 00a2 07       		.byte	0x7
 4725 00a3 D3150000 		.4byte	.LASF13
 4726 00a7 04       		.uleb128 0x4
 4727 00a8 AB0E0000 		.4byte	.LASF14
 4728 00ac 05       		.byte	0x5
 4729 00ad 69       		.byte	0x69
 4730 00ae B2000000 		.4byte	0xb2
 4731 00b2 02       		.uleb128 0x2
 4732 00b3 08       		.byte	0x8
 4733 00b4 07       		.byte	0x7
 4734 00b5 151B0000 		.4byte	.LASF15
 4735 00b9 04       		.uleb128 0x4
 4736 00ba 2D140000 		.4byte	.LASF16
 4737 00be 06       		.byte	0x6
 4738 00bf 0C       		.byte	0xc
 4739 00c0 2C000000 		.4byte	0x2c
 4740 00c4 04       		.uleb128 0x4
 4741 00c5 7D0B0000 		.4byte	.LASF17
 4742 00c9 07       		.byte	0x7
 4743 00ca 2C       		.byte	0x2c
 4744 00cb 8E000000 		.4byte	0x8e
 4745 00cf 04       		.uleb128 0x4
 4746 00d0 CE180000 		.4byte	.LASF18
 4747 00d4 07       		.byte	0x7
 4748 00d5 72       		.byte	0x72
 4749 00d6 8E000000 		.4byte	0x8e
 4750 00da 06       		.uleb128 0x6
 4751 00db 730D0000 		.4byte	.LASF19
 4752 00df 04       		.byte	0x4
 4753 00e0 6501     		.2byte	0x165
 4754 00e2 25000000 		.4byte	0x25
 4755 00e6 07       		.uleb128 0x7
 4756 00e7 04       		.byte	0x4
 4757 00e8 07       		.byte	0x7
 4758 00e9 A6       		.byte	0xa6
 4759 00ea 05010000 		.4byte	0x105
 4760 00ee 08       		.uleb128 0x8
 4761 00ef B1130000 		.4byte	.LASF20
 4762 00f3 07       		.byte	0x7
 4763 00f4 A8       		.byte	0xa8
 4764 00f5 DA000000 		.4byte	0xda
 4765 00f9 08       		.uleb128 0x8
 4766 00fa 040D0000 		.4byte	.LASF21
 4767 00fe 07       		.byte	0x7
 4768 00ff A9       		.byte	0xa9
 4769 0100 05010000 		.4byte	0x105
 4770 0104 00       		.byte	0
 4771 0105 09       		.uleb128 0x9
 4772 0106 63000000 		.4byte	0x63
 4773 010a 15010000 		.4byte	0x115
 4774 010e 0A       		.uleb128 0xa
 4775 010f 25000000 		.4byte	0x25
 4776 0113 03       		.byte	0x3
 4777 0114 00       		.byte	0
 4778 0115 0B       		.uleb128 0xb
 4779 0116 08       		.byte	0x8
 4780 0117 07       		.byte	0x7
ARM GAS  /tmp/ccxvl19p.s 			page 85


 4781 0118 A3       		.byte	0xa3
 4782 0119 36010000 		.4byte	0x136
 4783 011d 0C       		.uleb128 0xc
 4784 011e C60B0000 		.4byte	.LASF22
 4785 0122 07       		.byte	0x7
 4786 0123 A5       		.byte	0xa5
 4787 0124 2C000000 		.4byte	0x2c
 4788 0128 00       		.byte	0
 4789 0129 0C       		.uleb128 0xc
 4790 012a F4190000 		.4byte	.LASF23
 4791 012e 07       		.byte	0x7
 4792 012f AA       		.byte	0xaa
 4793 0130 E6000000 		.4byte	0xe6
 4794 0134 04       		.byte	0x4
 4795 0135 00       		.byte	0
 4796 0136 04       		.uleb128 0x4
 4797 0137 2A190000 		.4byte	.LASF24
 4798 013b 07       		.byte	0x7
 4799 013c AB       		.byte	0xab
 4800 013d 15010000 		.4byte	0x115
 4801 0141 04       		.uleb128 0x4
 4802 0142 D41C0000 		.4byte	.LASF25
 4803 0146 07       		.byte	0x7
 4804 0147 AF       		.byte	0xaf
 4805 0148 B9000000 		.4byte	0xb9
 4806 014c 0D       		.uleb128 0xd
 4807 014d 04       		.byte	0x4
 4808 014e 0E       		.uleb128 0xe
 4809 014f 04       		.byte	0x4
 4810 0150 54010000 		.4byte	0x154
 4811 0154 02       		.uleb128 0x2
 4812 0155 01       		.byte	0x1
 4813 0156 08       		.byte	0x8
 4814 0157 4E160000 		.4byte	.LASF26
 4815 015b 0F       		.uleb128 0xf
 4816 015c 54010000 		.4byte	0x154
 4817 0160 04       		.uleb128 0x4
 4818 0161 E5100000 		.4byte	.LASF27
 4819 0165 08       		.byte	0x8
 4820 0166 16       		.byte	0x16
 4821 0167 A0000000 		.4byte	0xa0
 4822 016b 10       		.uleb128 0x10
 4823 016c DA160000 		.4byte	.LASF32
 4824 0170 18       		.byte	0x18
 4825 0171 08       		.byte	0x8
 4826 0172 2F       		.byte	0x2f
 4827 0173 BE010000 		.4byte	0x1be
 4828 0177 0C       		.uleb128 0xc
 4829 0178 DB0E0000 		.4byte	.LASF28
 4830 017c 08       		.byte	0x8
 4831 017d 31       		.byte	0x31
 4832 017e BE010000 		.4byte	0x1be
 4833 0182 00       		.byte	0
 4834 0183 11       		.uleb128 0x11
 4835 0184 5F6B00   		.ascii	"_k\000"
 4836 0187 08       		.byte	0x8
 4837 0188 32       		.byte	0x32
ARM GAS  /tmp/ccxvl19p.s 			page 86


 4838 0189 2C000000 		.4byte	0x2c
 4839 018d 04       		.byte	0x4
 4840 018e 0C       		.uleb128 0xc
 4841 018f 5C150000 		.4byte	.LASF29
 4842 0193 08       		.byte	0x8
 4843 0194 32       		.byte	0x32
 4844 0195 2C000000 		.4byte	0x2c
 4845 0199 08       		.byte	0x8
 4846 019a 0C       		.uleb128 0xc
 4847 019b CB1F0000 		.4byte	.LASF30
 4848 019f 08       		.byte	0x8
 4849 01a0 32       		.byte	0x32
 4850 01a1 2C000000 		.4byte	0x2c
 4851 01a5 0C       		.byte	0xc
 4852 01a6 0C       		.uleb128 0xc
 4853 01a7 DC080000 		.4byte	.LASF31
 4854 01ab 08       		.byte	0x8
 4855 01ac 32       		.byte	0x32
 4856 01ad 2C000000 		.4byte	0x2c
 4857 01b1 10       		.byte	0x10
 4858 01b2 11       		.uleb128 0x11
 4859 01b3 5F7800   		.ascii	"_x\000"
 4860 01b6 08       		.byte	0x8
 4861 01b7 33       		.byte	0x33
 4862 01b8 C4010000 		.4byte	0x1c4
 4863 01bc 14       		.byte	0x14
 4864 01bd 00       		.byte	0
 4865 01be 0E       		.uleb128 0xe
 4866 01bf 04       		.byte	0x4
 4867 01c0 6B010000 		.4byte	0x16b
 4868 01c4 09       		.uleb128 0x9
 4869 01c5 60010000 		.4byte	0x160
 4870 01c9 D4010000 		.4byte	0x1d4
 4871 01cd 0A       		.uleb128 0xa
 4872 01ce 25000000 		.4byte	0x25
 4873 01d2 00       		.byte	0
 4874 01d3 00       		.byte	0
 4875 01d4 10       		.uleb128 0x10
 4876 01d5 EE050000 		.4byte	.LASF33
 4877 01d9 24       		.byte	0x24
 4878 01da 08       		.byte	0x8
 4879 01db 37       		.byte	0x37
 4880 01dc 4D020000 		.4byte	0x24d
 4881 01e0 0C       		.uleb128 0xc
 4882 01e1 BA0F0000 		.4byte	.LASF34
 4883 01e5 08       		.byte	0x8
 4884 01e6 39       		.byte	0x39
 4885 01e7 2C000000 		.4byte	0x2c
 4886 01eb 00       		.byte	0
 4887 01ec 0C       		.uleb128 0xc
 4888 01ed DA1F0000 		.4byte	.LASF35
 4889 01f1 08       		.byte	0x8
 4890 01f2 3A       		.byte	0x3a
 4891 01f3 2C000000 		.4byte	0x2c
 4892 01f7 04       		.byte	0x4
 4893 01f8 0C       		.uleb128 0xc
 4894 01f9 340D0000 		.4byte	.LASF36
ARM GAS  /tmp/ccxvl19p.s 			page 87


 4895 01fd 08       		.byte	0x8
 4896 01fe 3B       		.byte	0x3b
 4897 01ff 2C000000 		.4byte	0x2c
 4898 0203 08       		.byte	0x8
 4899 0204 0C       		.uleb128 0xc
 4900 0205 DD0D0000 		.4byte	.LASF37
 4901 0209 08       		.byte	0x8
 4902 020a 3C       		.byte	0x3c
 4903 020b 2C000000 		.4byte	0x2c
 4904 020f 0C       		.byte	0xc
 4905 0210 0C       		.uleb128 0xc
 4906 0211 72010000 		.4byte	.LASF38
 4907 0215 08       		.byte	0x8
 4908 0216 3D       		.byte	0x3d
 4909 0217 2C000000 		.4byte	0x2c
 4910 021b 10       		.byte	0x10
 4911 021c 0C       		.uleb128 0xc
 4912 021d 090A0000 		.4byte	.LASF39
 4913 0221 08       		.byte	0x8
 4914 0222 3E       		.byte	0x3e
 4915 0223 2C000000 		.4byte	0x2c
 4916 0227 14       		.byte	0x14
 4917 0228 0C       		.uleb128 0xc
 4918 0229 15080000 		.4byte	.LASF40
 4919 022d 08       		.byte	0x8
 4920 022e 3F       		.byte	0x3f
 4921 022f 2C000000 		.4byte	0x2c
 4922 0233 18       		.byte	0x18
 4923 0234 0C       		.uleb128 0xc
 4924 0235 8F060000 		.4byte	.LASF41
 4925 0239 08       		.byte	0x8
 4926 023a 40       		.byte	0x40
 4927 023b 2C000000 		.4byte	0x2c
 4928 023f 1C       		.byte	0x1c
 4929 0240 0C       		.uleb128 0xc
 4930 0241 1F080000 		.4byte	.LASF42
 4931 0245 08       		.byte	0x8
 4932 0246 41       		.byte	0x41
 4933 0247 2C000000 		.4byte	0x2c
 4934 024b 20       		.byte	0x20
 4935 024c 00       		.byte	0
 4936 024d 12       		.uleb128 0x12
 4937 024e DB0F0000 		.4byte	.LASF43
 4938 0252 0801     		.2byte	0x108
 4939 0254 08       		.byte	0x8
 4940 0255 4A       		.byte	0x4a
 4941 0256 8D020000 		.4byte	0x28d
 4942 025a 0C       		.uleb128 0xc
 4943 025b 140E0000 		.4byte	.LASF44
 4944 025f 08       		.byte	0x8
 4945 0260 4B       		.byte	0x4b
 4946 0261 8D020000 		.4byte	0x28d
 4947 0265 00       		.byte	0
 4948 0266 0C       		.uleb128 0xc
 4949 0267 F6070000 		.4byte	.LASF45
 4950 026b 08       		.byte	0x8
 4951 026c 4C       		.byte	0x4c
ARM GAS  /tmp/ccxvl19p.s 			page 88


 4952 026d 8D020000 		.4byte	0x28d
 4953 0271 80       		.byte	0x80
 4954 0272 13       		.uleb128 0x13
 4955 0273 7B010000 		.4byte	.LASF46
 4956 0277 08       		.byte	0x8
 4957 0278 4E       		.byte	0x4e
 4958 0279 60010000 		.4byte	0x160
 4959 027d 0001     		.2byte	0x100
 4960 027f 13       		.uleb128 0x13
 4961 0280 FC190000 		.4byte	.LASF47
 4962 0284 08       		.byte	0x8
 4963 0285 51       		.byte	0x51
 4964 0286 60010000 		.4byte	0x160
 4965 028a 0401     		.2byte	0x104
 4966 028c 00       		.byte	0
 4967 028d 09       		.uleb128 0x9
 4968 028e 4C010000 		.4byte	0x14c
 4969 0292 9D020000 		.4byte	0x29d
 4970 0296 0A       		.uleb128 0xa
 4971 0297 25000000 		.4byte	0x25
 4972 029b 1F       		.byte	0x1f
 4973 029c 00       		.byte	0
 4974 029d 10       		.uleb128 0x10
 4975 029e EB000000 		.4byte	.LASF48
 4976 02a2 8C       		.byte	0x8c
 4977 02a3 08       		.byte	0x8
 4978 02a4 55       		.byte	0x55
 4979 02a5 DA020000 		.4byte	0x2da
 4980 02a9 0C       		.uleb128 0xc
 4981 02aa DB0E0000 		.4byte	.LASF28
 4982 02ae 08       		.byte	0x8
 4983 02af 56       		.byte	0x56
 4984 02b0 DA020000 		.4byte	0x2da
 4985 02b4 00       		.byte	0
 4986 02b5 0C       		.uleb128 0xc
 4987 02b6 98010000 		.4byte	.LASF49
 4988 02ba 08       		.byte	0x8
 4989 02bb 57       		.byte	0x57
 4990 02bc 2C000000 		.4byte	0x2c
 4991 02c0 04       		.byte	0x4
 4992 02c1 0C       		.uleb128 0xc
 4993 02c2 08190000 		.4byte	.LASF50
 4994 02c6 08       		.byte	0x8
 4995 02c7 58       		.byte	0x58
 4996 02c8 E0020000 		.4byte	0x2e0
 4997 02cc 08       		.byte	0x8
 4998 02cd 0C       		.uleb128 0xc
 4999 02ce 00000000 		.4byte	.LASF51
 5000 02d2 08       		.byte	0x8
 5001 02d3 59       		.byte	0x59
 5002 02d4 F7020000 		.4byte	0x2f7
 5003 02d8 88       		.byte	0x88
 5004 02d9 00       		.byte	0
 5005 02da 0E       		.uleb128 0xe
 5006 02db 04       		.byte	0x4
 5007 02dc 9D020000 		.4byte	0x29d
 5008 02e0 09       		.uleb128 0x9
ARM GAS  /tmp/ccxvl19p.s 			page 89


 5009 02e1 F0020000 		.4byte	0x2f0
 5010 02e5 F0020000 		.4byte	0x2f0
 5011 02e9 0A       		.uleb128 0xa
 5012 02ea 25000000 		.4byte	0x25
 5013 02ee 1F       		.byte	0x1f
 5014 02ef 00       		.byte	0
 5015 02f0 0E       		.uleb128 0xe
 5016 02f1 04       		.byte	0x4
 5017 02f2 F6020000 		.4byte	0x2f6
 5018 02f6 14       		.uleb128 0x14
 5019 02f7 0E       		.uleb128 0xe
 5020 02f8 04       		.byte	0x4
 5021 02f9 4D020000 		.4byte	0x24d
 5022 02fd 10       		.uleb128 0x10
 5023 02fe 12130000 		.4byte	.LASF52
 5024 0302 08       		.byte	0x8
 5025 0303 08       		.byte	0x8
 5026 0304 75       		.byte	0x75
 5027 0305 22030000 		.4byte	0x322
 5028 0309 0C       		.uleb128 0xc
 5029 030a 75050000 		.4byte	.LASF53
 5030 030e 08       		.byte	0x8
 5031 030f 76       		.byte	0x76
 5032 0310 22030000 		.4byte	0x322
 5033 0314 00       		.byte	0
 5034 0315 0C       		.uleb128 0xc
 5035 0316 01090000 		.4byte	.LASF54
 5036 031a 08       		.byte	0x8
 5037 031b 77       		.byte	0x77
 5038 031c 2C000000 		.4byte	0x2c
 5039 0320 04       		.byte	0x4
 5040 0321 00       		.byte	0
 5041 0322 0E       		.uleb128 0xe
 5042 0323 04       		.byte	0x4
 5043 0324 63000000 		.4byte	0x63
 5044 0328 10       		.uleb128 0x10
 5045 0329 8A030000 		.4byte	.LASF55
 5046 032d 20       		.byte	0x20
 5047 032e 08       		.byte	0x8
 5048 032f 99       		.byte	0x99
 5049 0330 92030000 		.4byte	0x392
 5050 0334 11       		.uleb128 0x11
 5051 0335 5F7000   		.ascii	"_p\000"
 5052 0338 08       		.byte	0x8
 5053 0339 9A       		.byte	0x9a
 5054 033a 22030000 		.4byte	0x322
 5055 033e 00       		.byte	0
 5056 033f 11       		.uleb128 0x11
 5057 0340 5F7200   		.ascii	"_r\000"
 5058 0343 08       		.byte	0x8
 5059 0344 9B       		.byte	0x9b
 5060 0345 2C000000 		.4byte	0x2c
 5061 0349 04       		.byte	0x4
 5062 034a 11       		.uleb128 0x11
 5063 034b 5F7700   		.ascii	"_w\000"
 5064 034e 08       		.byte	0x8
 5065 034f 9C       		.byte	0x9c
ARM GAS  /tmp/ccxvl19p.s 			page 90


 5066 0350 2C000000 		.4byte	0x2c
 5067 0354 08       		.byte	0x8
 5068 0355 0C       		.uleb128 0xc
 5069 0356 FA010000 		.4byte	.LASF56
 5070 035a 08       		.byte	0x8
 5071 035b 9D       		.byte	0x9d
 5072 035c 6A000000 		.4byte	0x6a
 5073 0360 0C       		.byte	0xc
 5074 0361 0C       		.uleb128 0xc
 5075 0362 D6180000 		.4byte	.LASF57
 5076 0366 08       		.byte	0x8
 5077 0367 9E       		.byte	0x9e
 5078 0368 6A000000 		.4byte	0x6a
 5079 036c 0E       		.byte	0xe
 5080 036d 11       		.uleb128 0x11
 5081 036e 5F626600 		.ascii	"_bf\000"
 5082 0372 08       		.byte	0x8
 5083 0373 9F       		.byte	0x9f
 5084 0374 FD020000 		.4byte	0x2fd
 5085 0378 10       		.byte	0x10
 5086 0379 0C       		.uleb128 0xc
 5087 037a 44040000 		.4byte	.LASF58
 5088 037e 08       		.byte	0x8
 5089 037f A0       		.byte	0xa0
 5090 0380 2C000000 		.4byte	0x2c
 5091 0384 18       		.byte	0x18
 5092 0385 0C       		.uleb128 0xc
 5093 0386 A6040000 		.4byte	.LASF59
 5094 038a 08       		.byte	0x8
 5095 038b A2       		.byte	0xa2
 5096 038c C3040000 		.4byte	0x4c3
 5097 0390 1C       		.byte	0x1c
 5098 0391 00       		.byte	0
 5099 0392 0F       		.uleb128 0xf
 5100 0393 28030000 		.4byte	0x328
 5101 0397 15       		.uleb128 0x15
 5102 0398 38050000 		.4byte	.LASF60
 5103 039c 60       		.byte	0x60
 5104 039d 08       		.byte	0x8
 5105 039e 7401     		.2byte	0x174
 5106 03a0 C3040000 		.4byte	0x4c3
 5107 03a4 16       		.uleb128 0x16
 5108 03a5 C30D0000 		.4byte	.LASF61
 5109 03a9 08       		.byte	0x8
 5110 03aa 7801     		.2byte	0x178
 5111 03ac 2C000000 		.4byte	0x2c
 5112 03b0 00       		.byte	0
 5113 03b1 16       		.uleb128 0x16
 5114 03b2 F40A0000 		.4byte	.LASF62
 5115 03b6 08       		.byte	0x8
 5116 03b7 7D01     		.2byte	0x17d
 5117 03b9 F0060000 		.4byte	0x6f0
 5118 03bd 04       		.byte	0x4
 5119 03be 16       		.uleb128 0x16
 5120 03bf 71080000 		.4byte	.LASF63
 5121 03c3 08       		.byte	0x8
 5122 03c4 7D01     		.2byte	0x17d
ARM GAS  /tmp/ccxvl19p.s 			page 91


 5123 03c6 F0060000 		.4byte	0x6f0
 5124 03ca 08       		.byte	0x8
 5125 03cb 16       		.uleb128 0x16
 5126 03cc D0070000 		.4byte	.LASF64
 5127 03d0 08       		.byte	0x8
 5128 03d1 7D01     		.2byte	0x17d
 5129 03d3 F0060000 		.4byte	0x6f0
 5130 03d7 0C       		.byte	0xc
 5131 03d8 16       		.uleb128 0x16
 5132 03d9 93010000 		.4byte	.LASF65
 5133 03dd 08       		.byte	0x8
 5134 03de 7F01     		.2byte	0x17f
 5135 03e0 2C000000 		.4byte	0x2c
 5136 03e4 10       		.byte	0x10
 5137 03e5 16       		.uleb128 0x16
 5138 03e6 C3140000 		.4byte	.LASF66
 5139 03ea 08       		.byte	0x8
 5140 03eb 8101     		.2byte	0x181
 5141 03ed 4E010000 		.4byte	0x14e
 5142 03f1 14       		.byte	0x14
 5143 03f2 16       		.uleb128 0x16
 5144 03f3 6B1C0000 		.4byte	.LASF67
 5145 03f7 08       		.byte	0x8
 5146 03f8 8301     		.2byte	0x183
 5147 03fa 2C000000 		.4byte	0x2c
 5148 03fe 18       		.byte	0x18
 5149 03ff 16       		.uleb128 0x16
 5150 0400 141C0000 		.4byte	.LASF68
 5151 0404 08       		.byte	0x8
 5152 0405 8501     		.2byte	0x185
 5153 0407 2C000000 		.4byte	0x2c
 5154 040b 1C       		.byte	0x1c
 5155 040c 16       		.uleb128 0x16
 5156 040d E31D0000 		.4byte	.LASF69
 5157 0411 08       		.byte	0x8
 5158 0412 8601     		.2byte	0x186
 5159 0414 42080000 		.4byte	0x842
 5160 0418 20       		.byte	0x20
 5161 0419 17       		.uleb128 0x17
 5162 041a 5F6D7000 		.ascii	"_mp\000"
 5163 041e 08       		.byte	0x8
 5164 041f 8801     		.2byte	0x188
 5165 0421 48080000 		.4byte	0x848
 5166 0425 24       		.byte	0x24
 5167 0426 16       		.uleb128 0x16
 5168 0427 6E180000 		.4byte	.LASF70
 5169 042b 08       		.byte	0x8
 5170 042c 8A01     		.2byte	0x18a
 5171 042e 59080000 		.4byte	0x859
 5172 0432 28       		.byte	0x28
 5173 0433 16       		.uleb128 0x16
 5174 0434 591B0000 		.4byte	.LASF71
 5175 0438 08       		.byte	0x8
 5176 0439 8C01     		.2byte	0x18c
 5177 043b 2C000000 		.4byte	0x2c
 5178 043f 2C       		.byte	0x2c
 5179 0440 16       		.uleb128 0x16
ARM GAS  /tmp/ccxvl19p.s 			page 92


 5180 0441 5D020000 		.4byte	.LASF72
 5181 0445 08       		.byte	0x8
 5182 0446 8F01     		.2byte	0x18f
 5183 0448 2C000000 		.4byte	0x2c
 5184 044c 30       		.byte	0x30
 5185 044d 16       		.uleb128 0x16
 5186 044e 980C0000 		.4byte	.LASF73
 5187 0452 08       		.byte	0x8
 5188 0453 9001     		.2byte	0x190
 5189 0455 4E010000 		.4byte	0x14e
 5190 0459 34       		.byte	0x34
 5191 045a 16       		.uleb128 0x16
 5192 045b 26200000 		.4byte	.LASF74
 5193 045f 08       		.byte	0x8
 5194 0460 9201     		.2byte	0x192
 5195 0462 5F080000 		.4byte	0x85f
 5196 0466 38       		.byte	0x38
 5197 0467 16       		.uleb128 0x16
 5198 0468 AE0B0000 		.4byte	.LASF75
 5199 046c 08       		.byte	0x8
 5200 046d 9301     		.2byte	0x193
 5201 046f 65080000 		.4byte	0x865
 5202 0473 3C       		.byte	0x3c
 5203 0474 16       		.uleb128 0x16
 5204 0475 7A130000 		.4byte	.LASF76
 5205 0479 08       		.byte	0x8
 5206 047a 9401     		.2byte	0x194
 5207 047c 4E010000 		.4byte	0x14e
 5208 0480 40       		.byte	0x40
 5209 0481 16       		.uleb128 0x16
 5210 0482 89020000 		.4byte	.LASF77
 5211 0486 08       		.byte	0x8
 5212 0487 9701     		.2byte	0x197
 5213 0489 76080000 		.4byte	0x876
 5214 048d 44       		.byte	0x44
 5215 048e 16       		.uleb128 0x16
 5216 048f 4F180000 		.4byte	.LASF78
 5217 0493 08       		.byte	0x8
 5218 0494 9F01     		.2byte	0x19f
 5219 0496 B5060000 		.4byte	0x6b5
 5220 049a 48       		.byte	0x48
 5221 049b 16       		.uleb128 0x16
 5222 049c 67050000 		.4byte	.LASF79
 5223 04a0 08       		.byte	0x8
 5224 04a1 A001     		.2byte	0x1a0
 5225 04a3 F0060000 		.4byte	0x6f0
 5226 04a7 54       		.byte	0x54
 5227 04a8 16       		.uleb128 0x16
 5228 04a9 E1080000 		.4byte	.LASF80
 5229 04ad 08       		.byte	0x8
 5230 04ae A101     		.2byte	0x1a1
 5231 04b0 82080000 		.4byte	0x882
 5232 04b4 58       		.byte	0x58
 5233 04b5 16       		.uleb128 0x16
 5234 04b6 EF0E0000 		.4byte	.LASF81
 5235 04ba 08       		.byte	0x8
 5236 04bb A201     		.2byte	0x1a2
ARM GAS  /tmp/ccxvl19p.s 			page 93


 5237 04bd 4E010000 		.4byte	0x14e
 5238 04c1 5C       		.byte	0x5c
 5239 04c2 00       		.byte	0
 5240 04c3 0E       		.uleb128 0xe
 5241 04c4 04       		.byte	0x4
 5242 04c5 97030000 		.4byte	0x397
 5243 04c9 0F       		.uleb128 0xf
 5244 04ca C3040000 		.4byte	0x4c3
 5245 04ce 10       		.uleb128 0x10
 5246 04cf 00190000 		.4byte	.LASF82
 5247 04d3 68       		.byte	0x68
 5248 04d4 08       		.byte	0x8
 5249 04d5 B5       		.byte	0xb5
 5250 04d6 F8050000 		.4byte	0x5f8
 5251 04da 11       		.uleb128 0x11
 5252 04db 5F7000   		.ascii	"_p\000"
 5253 04de 08       		.byte	0x8
 5254 04df B6       		.byte	0xb6
 5255 04e0 22030000 		.4byte	0x322
 5256 04e4 00       		.byte	0
 5257 04e5 11       		.uleb128 0x11
 5258 04e6 5F7200   		.ascii	"_r\000"
 5259 04e9 08       		.byte	0x8
 5260 04ea B7       		.byte	0xb7
 5261 04eb 2C000000 		.4byte	0x2c
 5262 04ef 04       		.byte	0x4
 5263 04f0 11       		.uleb128 0x11
 5264 04f1 5F7700   		.ascii	"_w\000"
 5265 04f4 08       		.byte	0x8
 5266 04f5 B8       		.byte	0xb8
 5267 04f6 2C000000 		.4byte	0x2c
 5268 04fa 08       		.byte	0x8
 5269 04fb 0C       		.uleb128 0xc
 5270 04fc FA010000 		.4byte	.LASF56
 5271 0500 08       		.byte	0x8
 5272 0501 B9       		.byte	0xb9
 5273 0502 6A000000 		.4byte	0x6a
 5274 0506 0C       		.byte	0xc
 5275 0507 0C       		.uleb128 0xc
 5276 0508 D6180000 		.4byte	.LASF57
 5277 050c 08       		.byte	0x8
 5278 050d BA       		.byte	0xba
 5279 050e 6A000000 		.4byte	0x6a
 5280 0512 0E       		.byte	0xe
 5281 0513 11       		.uleb128 0x11
 5282 0514 5F626600 		.ascii	"_bf\000"
 5283 0518 08       		.byte	0x8
 5284 0519 BB       		.byte	0xbb
 5285 051a FD020000 		.4byte	0x2fd
 5286 051e 10       		.byte	0x10
 5287 051f 0C       		.uleb128 0xc
 5288 0520 44040000 		.4byte	.LASF58
 5289 0524 08       		.byte	0x8
 5290 0525 BC       		.byte	0xbc
 5291 0526 2C000000 		.4byte	0x2c
 5292 052a 18       		.byte	0x18
 5293 052b 0C       		.uleb128 0xc
ARM GAS  /tmp/ccxvl19p.s 			page 94


 5294 052c A6040000 		.4byte	.LASF59
 5295 0530 08       		.byte	0x8
 5296 0531 BF       		.byte	0xbf
 5297 0532 C3040000 		.4byte	0x4c3
 5298 0536 1C       		.byte	0x1c
 5299 0537 0C       		.uleb128 0xc
 5300 0538 100F0000 		.4byte	.LASF83
 5301 053c 08       		.byte	0x8
 5302 053d C3       		.byte	0xc3
 5303 053e 4C010000 		.4byte	0x14c
 5304 0542 20       		.byte	0x20
 5305 0543 0C       		.uleb128 0xc
 5306 0544 86200000 		.4byte	.LASF84
 5307 0548 08       		.byte	0x8
 5308 0549 C5       		.byte	0xc5
 5309 054a 16060000 		.4byte	0x616
 5310 054e 24       		.byte	0x24
 5311 054f 0C       		.uleb128 0xc
 5312 0550 71090000 		.4byte	.LASF85
 5313 0554 08       		.byte	0x8
 5314 0555 C7       		.byte	0xc7
 5315 0556 45060000 		.4byte	0x645
 5316 055a 28       		.byte	0x28
 5317 055b 0C       		.uleb128 0xc
 5318 055c DE110000 		.4byte	.LASF86
 5319 0560 08       		.byte	0x8
 5320 0561 CA       		.byte	0xca
 5321 0562 69060000 		.4byte	0x669
 5322 0566 2C       		.byte	0x2c
 5323 0567 0C       		.uleb128 0xc
 5324 0568 42160000 		.4byte	.LASF87
 5325 056c 08       		.byte	0x8
 5326 056d CB       		.byte	0xcb
 5327 056e 83060000 		.4byte	0x683
 5328 0572 30       		.byte	0x30
 5329 0573 11       		.uleb128 0x11
 5330 0574 5F756200 		.ascii	"_ub\000"
 5331 0578 08       		.byte	0x8
 5332 0579 CE       		.byte	0xce
 5333 057a FD020000 		.4byte	0x2fd
 5334 057e 34       		.byte	0x34
 5335 057f 11       		.uleb128 0x11
 5336 0580 5F757000 		.ascii	"_up\000"
 5337 0584 08       		.byte	0x8
 5338 0585 CF       		.byte	0xcf
 5339 0586 22030000 		.4byte	0x322
 5340 058a 3C       		.byte	0x3c
 5341 058b 11       		.uleb128 0x11
 5342 058c 5F757200 		.ascii	"_ur\000"
 5343 0590 08       		.byte	0x8
 5344 0591 D0       		.byte	0xd0
 5345 0592 2C000000 		.4byte	0x2c
 5346 0596 40       		.byte	0x40
 5347 0597 0C       		.uleb128 0xc
 5348 0598 2E180000 		.4byte	.LASF88
 5349 059c 08       		.byte	0x8
 5350 059d D3       		.byte	0xd3
ARM GAS  /tmp/ccxvl19p.s 			page 95


 5351 059e 89060000 		.4byte	0x689
 5352 05a2 44       		.byte	0x44
 5353 05a3 0C       		.uleb128 0xc
 5354 05a4 B0020000 		.4byte	.LASF89
 5355 05a8 08       		.byte	0x8
 5356 05a9 D4       		.byte	0xd4
 5357 05aa 99060000 		.4byte	0x699
 5358 05ae 47       		.byte	0x47
 5359 05af 11       		.uleb128 0x11
 5360 05b0 5F6C6200 		.ascii	"_lb\000"
 5361 05b4 08       		.byte	0x8
 5362 05b5 D7       		.byte	0xd7
 5363 05b6 FD020000 		.4byte	0x2fd
 5364 05ba 48       		.byte	0x48
 5365 05bb 0C       		.uleb128 0xc
 5366 05bc 1C180000 		.4byte	.LASF90
 5367 05c0 08       		.byte	0x8
 5368 05c1 DA       		.byte	0xda
 5369 05c2 2C000000 		.4byte	0x2c
 5370 05c6 50       		.byte	0x50
 5371 05c7 0C       		.uleb128 0xc
 5372 05c8 C0120000 		.4byte	.LASF91
 5373 05cc 08       		.byte	0x8
 5374 05cd DB       		.byte	0xdb
 5375 05ce C4000000 		.4byte	0xc4
 5376 05d2 54       		.byte	0x54
 5377 05d3 0C       		.uleb128 0xc
 5378 05d4 AA020000 		.4byte	.LASF92
 5379 05d8 08       		.byte	0x8
 5380 05d9 E2       		.byte	0xe2
 5381 05da 41010000 		.4byte	0x141
 5382 05de 58       		.byte	0x58
 5383 05df 0C       		.uleb128 0xc
 5384 05e0 E2000000 		.4byte	.LASF93
 5385 05e4 08       		.byte	0x8
 5386 05e5 E4       		.byte	0xe4
 5387 05e6 36010000 		.4byte	0x136
 5388 05ea 5C       		.byte	0x5c
 5389 05eb 0C       		.uleb128 0xc
 5390 05ec 921D0000 		.4byte	.LASF94
 5391 05f0 08       		.byte	0x8
 5392 05f1 E5       		.byte	0xe5
 5393 05f2 2C000000 		.4byte	0x2c
 5394 05f6 64       		.byte	0x64
 5395 05f7 00       		.byte	0
 5396 05f8 18       		.uleb128 0x18
 5397 05f9 2C000000 		.4byte	0x2c
 5398 05fd 16060000 		.4byte	0x616
 5399 0601 19       		.uleb128 0x19
 5400 0602 C3040000 		.4byte	0x4c3
 5401 0606 19       		.uleb128 0x19
 5402 0607 4C010000 		.4byte	0x14c
 5403 060b 19       		.uleb128 0x19
 5404 060c 4E010000 		.4byte	0x14e
 5405 0610 19       		.uleb128 0x19
 5406 0611 2C000000 		.4byte	0x2c
 5407 0615 00       		.byte	0
ARM GAS  /tmp/ccxvl19p.s 			page 96


 5408 0616 0E       		.uleb128 0xe
 5409 0617 04       		.byte	0x4
 5410 0618 F8050000 		.4byte	0x5f8
 5411 061c 18       		.uleb128 0x18
 5412 061d 2C000000 		.4byte	0x2c
 5413 0621 3A060000 		.4byte	0x63a
 5414 0625 19       		.uleb128 0x19
 5415 0626 C3040000 		.4byte	0x4c3
 5416 062a 19       		.uleb128 0x19
 5417 062b 4C010000 		.4byte	0x14c
 5418 062f 19       		.uleb128 0x19
 5419 0630 3A060000 		.4byte	0x63a
 5420 0634 19       		.uleb128 0x19
 5421 0635 2C000000 		.4byte	0x2c
 5422 0639 00       		.byte	0
 5423 063a 0E       		.uleb128 0xe
 5424 063b 04       		.byte	0x4
 5425 063c 5B010000 		.4byte	0x15b
 5426 0640 05       		.uleb128 0x5
 5427 0641 3A060000 		.4byte	0x63a
 5428 0645 0E       		.uleb128 0xe
 5429 0646 04       		.byte	0x4
 5430 0647 1C060000 		.4byte	0x61c
 5431 064b 18       		.uleb128 0x18
 5432 064c CF000000 		.4byte	0xcf
 5433 0650 69060000 		.4byte	0x669
 5434 0654 19       		.uleb128 0x19
 5435 0655 C3040000 		.4byte	0x4c3
 5436 0659 19       		.uleb128 0x19
 5437 065a 4C010000 		.4byte	0x14c
 5438 065e 19       		.uleb128 0x19
 5439 065f CF000000 		.4byte	0xcf
 5440 0663 19       		.uleb128 0x19
 5441 0664 2C000000 		.4byte	0x2c
 5442 0668 00       		.byte	0
 5443 0669 0E       		.uleb128 0xe
 5444 066a 04       		.byte	0x4
 5445 066b 4B060000 		.4byte	0x64b
 5446 066f 18       		.uleb128 0x18
 5447 0670 2C000000 		.4byte	0x2c
 5448 0674 83060000 		.4byte	0x683
 5449 0678 19       		.uleb128 0x19
 5450 0679 C3040000 		.4byte	0x4c3
 5451 067d 19       		.uleb128 0x19
 5452 067e 4C010000 		.4byte	0x14c
 5453 0682 00       		.byte	0
 5454 0683 0E       		.uleb128 0xe
 5455 0684 04       		.byte	0x4
 5456 0685 6F060000 		.4byte	0x66f
 5457 0689 09       		.uleb128 0x9
 5458 068a 63000000 		.4byte	0x63
 5459 068e 99060000 		.4byte	0x699
 5460 0692 0A       		.uleb128 0xa
 5461 0693 25000000 		.4byte	0x25
 5462 0697 02       		.byte	0x2
 5463 0698 00       		.byte	0
 5464 0699 09       		.uleb128 0x9
ARM GAS  /tmp/ccxvl19p.s 			page 97


 5465 069a 63000000 		.4byte	0x63
 5466 069e A9060000 		.4byte	0x6a9
 5467 06a2 0A       		.uleb128 0xa
 5468 06a3 25000000 		.4byte	0x25
 5469 06a7 00       		.byte	0
 5470 06a8 00       		.byte	0
 5471 06a9 06       		.uleb128 0x6
 5472 06aa 971F0000 		.4byte	.LASF95
 5473 06ae 08       		.byte	0x8
 5474 06af 1F01     		.2byte	0x11f
 5475 06b1 CE040000 		.4byte	0x4ce
 5476 06b5 15       		.uleb128 0x15
 5477 06b6 5D160000 		.4byte	.LASF96
 5478 06ba 0C       		.byte	0xc
 5479 06bb 08       		.byte	0x8
 5480 06bc 2301     		.2byte	0x123
 5481 06be EA060000 		.4byte	0x6ea
 5482 06c2 16       		.uleb128 0x16
 5483 06c3 DB0E0000 		.4byte	.LASF28
 5484 06c7 08       		.byte	0x8
 5485 06c8 2501     		.2byte	0x125
 5486 06ca EA060000 		.4byte	0x6ea
 5487 06ce 00       		.byte	0
 5488 06cf 16       		.uleb128 0x16
 5489 06d0 A90D0000 		.4byte	.LASF97
 5490 06d4 08       		.byte	0x8
 5491 06d5 2601     		.2byte	0x126
 5492 06d7 2C000000 		.4byte	0x2c
 5493 06db 04       		.byte	0x4
 5494 06dc 16       		.uleb128 0x16
 5495 06dd BD140000 		.4byte	.LASF98
 5496 06e1 08       		.byte	0x8
 5497 06e2 2701     		.2byte	0x127
 5498 06e4 F0060000 		.4byte	0x6f0
 5499 06e8 08       		.byte	0x8
 5500 06e9 00       		.byte	0
 5501 06ea 0E       		.uleb128 0xe
 5502 06eb 04       		.byte	0x4
 5503 06ec B5060000 		.4byte	0x6b5
 5504 06f0 0E       		.uleb128 0xe
 5505 06f1 04       		.byte	0x4
 5506 06f2 A9060000 		.4byte	0x6a9
 5507 06f6 15       		.uleb128 0x15
 5508 06f7 B0200000 		.4byte	.LASF99
 5509 06fb 18       		.byte	0x18
 5510 06fc 08       		.byte	0x8
 5511 06fd 3F01     		.2byte	0x13f
 5512 06ff 38070000 		.4byte	0x738
 5513 0703 16       		.uleb128 0x16
 5514 0704 D8110000 		.4byte	.LASF100
 5515 0708 08       		.byte	0x8
 5516 0709 4001     		.2byte	0x140
 5517 070b 38070000 		.4byte	0x738
 5518 070f 00       		.byte	0
 5519 0710 16       		.uleb128 0x16
 5520 0711 670A0000 		.4byte	.LASF101
 5521 0715 08       		.byte	0x8
ARM GAS  /tmp/ccxvl19p.s 			page 98


 5522 0716 4101     		.2byte	0x141
 5523 0718 38070000 		.4byte	0x738
 5524 071c 06       		.byte	0x6
 5525 071d 16       		.uleb128 0x16
 5526 071e 85030000 		.4byte	.LASF102
 5527 0722 08       		.byte	0x8
 5528 0723 4201     		.2byte	0x142
 5529 0725 7C000000 		.4byte	0x7c
 5530 0729 0C       		.byte	0xc
 5531 072a 16       		.uleb128 0x16
 5532 072b 1D150000 		.4byte	.LASF103
 5533 072f 08       		.byte	0x8
 5534 0730 4501     		.2byte	0x145
 5535 0732 B2000000 		.4byte	0xb2
 5536 0736 10       		.byte	0x10
 5537 0737 00       		.byte	0
 5538 0738 09       		.uleb128 0x9
 5539 0739 7C000000 		.4byte	0x7c
 5540 073d 48070000 		.4byte	0x748
 5541 0741 0A       		.uleb128 0xa
 5542 0742 25000000 		.4byte	0x25
 5543 0746 02       		.byte	0x2
 5544 0747 00       		.byte	0
 5545 0748 15       		.uleb128 0x15
 5546 0749 0D1A0000 		.4byte	.LASF104
 5547 074d 10       		.byte	0x10
 5548 074e 08       		.byte	0x8
 5549 074f 5801     		.2byte	0x158
 5550 0751 8A070000 		.4byte	0x78a
 5551 0755 16       		.uleb128 0x16
 5552 0756 D8070000 		.4byte	.LASF105
 5553 075a 08       		.byte	0x8
 5554 075b 5B01     		.2byte	0x15b
 5555 075d BE010000 		.4byte	0x1be
 5556 0761 00       		.byte	0
 5557 0762 16       		.uleb128 0x16
 5558 0763 C1070000 		.4byte	.LASF106
 5559 0767 08       		.byte	0x8
 5560 0768 5C01     		.2byte	0x15c
 5561 076a 2C000000 		.4byte	0x2c
 5562 076e 04       		.byte	0x4
 5563 076f 16       		.uleb128 0x16
 5564 0770 261A0000 		.4byte	.LASF107
 5565 0774 08       		.byte	0x8
 5566 0775 5D01     		.2byte	0x15d
 5567 0777 BE010000 		.4byte	0x1be
 5568 077b 08       		.byte	0x8
 5569 077c 16       		.uleb128 0x16
 5570 077d 94120000 		.4byte	.LASF108
 5571 0781 08       		.byte	0x8
 5572 0782 5E01     		.2byte	0x15e
 5573 0784 8A070000 		.4byte	0x78a
 5574 0788 0C       		.byte	0xc
 5575 0789 00       		.byte	0
 5576 078a 0E       		.uleb128 0xe
 5577 078b 04       		.byte	0x4
 5578 078c BE010000 		.4byte	0x1be
ARM GAS  /tmp/ccxvl19p.s 			page 99


 5579 0790 15       		.uleb128 0x15
 5580 0791 E2160000 		.4byte	.LASF109
 5581 0795 50       		.byte	0x50
 5582 0796 08       		.byte	0x8
 5583 0797 6201     		.2byte	0x162
 5584 0799 2D080000 		.4byte	0x82d
 5585 079d 16       		.uleb128 0x16
 5586 079e 84110000 		.4byte	.LASF110
 5587 07a2 08       		.byte	0x8
 5588 07a3 6501     		.2byte	0x165
 5589 07a5 4E010000 		.4byte	0x14e
 5590 07a9 00       		.byte	0
 5591 07aa 16       		.uleb128 0x16
 5592 07ab 42180000 		.4byte	.LASF111
 5593 07af 08       		.byte	0x8
 5594 07b0 6601     		.2byte	0x166
 5595 07b2 36010000 		.4byte	0x136
 5596 07b6 04       		.byte	0x4
 5597 07b7 16       		.uleb128 0x16
 5598 07b8 89140000 		.4byte	.LASF112
 5599 07bc 08       		.byte	0x8
 5600 07bd 6701     		.2byte	0x167
 5601 07bf 36010000 		.4byte	0x136
 5602 07c3 0C       		.byte	0xc
 5603 07c4 16       		.uleb128 0x16
 5604 07c5 7B050000 		.4byte	.LASF113
 5605 07c9 08       		.byte	0x8
 5606 07ca 6801     		.2byte	0x168
 5607 07cc 36010000 		.4byte	0x136
 5608 07d0 14       		.byte	0x14
 5609 07d1 16       		.uleb128 0x16
 5610 07d2 34130000 		.4byte	.LASF114
 5611 07d6 08       		.byte	0x8
 5612 07d7 6901     		.2byte	0x169
 5613 07d9 2D080000 		.4byte	0x82d
 5614 07dd 1C       		.byte	0x1c
 5615 07de 16       		.uleb128 0x16
 5616 07df 7F170000 		.4byte	.LASF115
 5617 07e3 08       		.byte	0x8
 5618 07e4 6A01     		.2byte	0x16a
 5619 07e6 2C000000 		.4byte	0x2c
 5620 07ea 24       		.byte	0x24
 5621 07eb 16       		.uleb128 0x16
 5622 07ec 980A0000 		.4byte	.LASF116
 5623 07f0 08       		.byte	0x8
 5624 07f1 6B01     		.2byte	0x16b
 5625 07f3 36010000 		.4byte	0x136
 5626 07f7 28       		.byte	0x28
 5627 07f8 16       		.uleb128 0x16
 5628 07f9 0B0D0000 		.4byte	.LASF117
 5629 07fd 08       		.byte	0x8
 5630 07fe 6C01     		.2byte	0x16c
 5631 0800 36010000 		.4byte	0x136
 5632 0804 30       		.byte	0x30
 5633 0805 16       		.uleb128 0x16
 5634 0806 B1080000 		.4byte	.LASF118
 5635 080a 08       		.byte	0x8
ARM GAS  /tmp/ccxvl19p.s 			page 100


 5636 080b 6D01     		.2byte	0x16d
 5637 080d 36010000 		.4byte	0x136
 5638 0811 38       		.byte	0x38
 5639 0812 16       		.uleb128 0x16
 5640 0813 4D100000 		.4byte	.LASF119
 5641 0817 08       		.byte	0x8
 5642 0818 6E01     		.2byte	0x16e
 5643 081a 36010000 		.4byte	0x136
 5644 081e 40       		.byte	0x40
 5645 081f 16       		.uleb128 0x16
 5646 0820 C4130000 		.4byte	.LASF120
 5647 0824 08       		.byte	0x8
 5648 0825 6F01     		.2byte	0x16f
 5649 0827 36010000 		.4byte	0x136
 5650 082b 48       		.byte	0x48
 5651 082c 00       		.byte	0
 5652 082d 09       		.uleb128 0x9
 5653 082e 54010000 		.4byte	0x154
 5654 0832 3D080000 		.4byte	0x83d
 5655 0836 0A       		.uleb128 0xa
 5656 0837 25000000 		.4byte	0x25
 5657 083b 07       		.byte	0x7
 5658 083c 00       		.byte	0
 5659 083d 1A       		.uleb128 0x1a
 5660 083e 57180000 		.4byte	.LASF786
 5661 0842 0E       		.uleb128 0xe
 5662 0843 04       		.byte	0x4
 5663 0844 3D080000 		.4byte	0x83d
 5664 0848 0E       		.uleb128 0xe
 5665 0849 04       		.byte	0x4
 5666 084a 48070000 		.4byte	0x748
 5667 084e 1B       		.uleb128 0x1b
 5668 084f 59080000 		.4byte	0x859
 5669 0853 19       		.uleb128 0x19
 5670 0854 C3040000 		.4byte	0x4c3
 5671 0858 00       		.byte	0
 5672 0859 0E       		.uleb128 0xe
 5673 085a 04       		.byte	0x4
 5674 085b 4E080000 		.4byte	0x84e
 5675 085f 0E       		.uleb128 0xe
 5676 0860 04       		.byte	0x4
 5677 0861 F6060000 		.4byte	0x6f6
 5678 0865 0E       		.uleb128 0xe
 5679 0866 04       		.byte	0x4
 5680 0867 D4010000 		.4byte	0x1d4
 5681 086b 1B       		.uleb128 0x1b
 5682 086c 76080000 		.4byte	0x876
 5683 0870 19       		.uleb128 0x19
 5684 0871 2C000000 		.4byte	0x2c
 5685 0875 00       		.byte	0
 5686 0876 0E       		.uleb128 0xe
 5687 0877 04       		.byte	0x4
 5688 0878 7C080000 		.4byte	0x87c
 5689 087c 0E       		.uleb128 0xe
 5690 087d 04       		.byte	0x4
 5691 087e 6B080000 		.4byte	0x86b
 5692 0882 0E       		.uleb128 0xe
ARM GAS  /tmp/ccxvl19p.s 			page 101


 5693 0883 04       		.byte	0x4
 5694 0884 90070000 		.4byte	0x790
 5695 0888 1C       		.uleb128 0x1c
 5696 0889 F1080000 		.4byte	.LASF121
 5697 088d 08       		.byte	0x8
 5698 088e CA01     		.2byte	0x1ca
 5699 0890 92030000 		.4byte	0x392
 5700 0894 1C       		.uleb128 0x1c
 5701 0895 041D0000 		.4byte	.LASF122
 5702 0899 08       		.byte	0x8
 5703 089a CB01     		.2byte	0x1cb
 5704 089c 92030000 		.4byte	0x392
 5705 08a0 1C       		.uleb128 0x1c
 5706 08a1 2D1C0000 		.4byte	.LASF123
 5707 08a5 08       		.byte	0x8
 5708 08a6 CC01     		.2byte	0x1cc
 5709 08a8 92030000 		.4byte	0x392
 5710 08ac 1C       		.uleb128 0x1c
 5711 08ad 10180000 		.4byte	.LASF124
 5712 08b1 08       		.byte	0x8
 5713 08b2 2E03     		.2byte	0x32e
 5714 08b4 C3040000 		.4byte	0x4c3
 5715 08b8 1C       		.uleb128 0x1c
 5716 08b9 F11B0000 		.4byte	.LASF125
 5717 08bd 08       		.byte	0x8
 5718 08be 2F03     		.2byte	0x32f
 5719 08c0 C9040000 		.4byte	0x4c9
 5720 08c4 1C       		.uleb128 0x1c
 5721 08c5 84010000 		.4byte	.LASF126
 5722 08c9 08       		.byte	0x8
 5723 08ca 4103     		.2byte	0x341
 5724 08cc DA020000 		.4byte	0x2da
 5725 08d0 04       		.uleb128 0x4
 5726 08d1 D90B0000 		.4byte	.LASF127
 5727 08d5 09       		.byte	0x9
 5728 08d6 18       		.byte	0x18
 5729 08d7 58000000 		.4byte	0x58
 5730 08db 0F       		.uleb128 0xf
 5731 08dc D0080000 		.4byte	0x8d0
 5732 08e0 04       		.uleb128 0x4
 5733 08e1 D1010000 		.4byte	.LASF128
 5734 08e5 09       		.byte	0x9
 5735 08e6 24       		.byte	0x24
 5736 08e7 71000000 		.4byte	0x71
 5737 08eb 05       		.uleb128 0x5
 5738 08ec E0080000 		.4byte	0x8e0
 5739 08f0 04       		.uleb128 0x4
 5740 08f1 69030000 		.4byte	.LASF129
 5741 08f5 09       		.byte	0x9
 5742 08f6 2C       		.byte	0x2c
 5743 08f7 83000000 		.4byte	0x83
 5744 08fb 05       		.uleb128 0x5
 5745 08fc F0080000 		.4byte	0x8f0
 5746 0900 04       		.uleb128 0x4
 5747 0901 46150000 		.4byte	.LASF130
 5748 0905 09       		.byte	0x9
 5749 0906 30       		.byte	0x30
ARM GAS  /tmp/ccxvl19p.s 			page 102


 5750 0907 95000000 		.4byte	0x95
 5751 090b 05       		.uleb128 0x5
 5752 090c 00090000 		.4byte	0x900
 5753 0910 04       		.uleb128 0x4
 5754 0911 B9090000 		.4byte	.LASF131
 5755 0915 09       		.byte	0x9
 5756 0916 3C       		.byte	0x3c
 5757 0917 A7000000 		.4byte	0xa7
 5758 091b 04       		.uleb128 0x4
 5759 091c 400B0000 		.4byte	.LASF132
 5760 0920 0A       		.byte	0xa
 5761 0921 27       		.byte	0x27
 5762 0922 00090000 		.4byte	0x900
 5763 0926 04       		.uleb128 0x4
 5764 0927 E90F0000 		.4byte	.LASF133
 5765 092b 0A       		.byte	0xa
 5766 092c 2A       		.byte	0x2a
 5767 092d D0080000 		.4byte	0x8d0
 5768 0931 04       		.uleb128 0x4
 5769 0932 E81B0000 		.4byte	.LASF134
 5770 0936 0A       		.byte	0xa
 5771 0937 2B       		.byte	0x2b
 5772 0938 D0080000 		.4byte	0x8d0
 5773 093c 04       		.uleb128 0x4
 5774 093d A10F0000 		.4byte	.LASF135
 5775 0941 0A       		.byte	0xa
 5776 0942 2C       		.byte	0x2c
 5777 0943 D0080000 		.4byte	0x8d0
 5778 0947 04       		.uleb128 0x4
 5779 0948 C9050000 		.4byte	.LASF136
 5780 094c 0A       		.byte	0xa
 5781 094d 2E       		.byte	0x2e
 5782 094e 00090000 		.4byte	0x900
 5783 0952 04       		.uleb128 0x4
 5784 0953 4D000000 		.4byte	.LASF137
 5785 0957 0A       		.byte	0xa
 5786 0958 2F       		.byte	0x2f
 5787 0959 F0080000 		.4byte	0x8f0
 5788 095d 04       		.uleb128 0x4
 5789 095e A4150000 		.4byte	.LASF138
 5790 0962 0A       		.byte	0xa
 5791 0963 31       		.byte	0x31
 5792 0964 00090000 		.4byte	0x900
 5793 0968 04       		.uleb128 0x4
 5794 0969 EB1D0000 		.4byte	.LASF139
 5795 096d 0A       		.byte	0xa
 5796 096e 32       		.byte	0x32
 5797 096f 00090000 		.4byte	0x900
 5798 0973 04       		.uleb128 0x4
 5799 0974 B1170000 		.4byte	.LASF140
 5800 0978 0A       		.byte	0xa
 5801 0979 33       		.byte	0x33
 5802 097a F0080000 		.4byte	0x8f0
 5803 097e 04       		.uleb128 0x4
 5804 097f 2F120000 		.4byte	.LASF141
 5805 0983 0A       		.byte	0xa
 5806 0984 34       		.byte	0x34
ARM GAS  /tmp/ccxvl19p.s 			page 103


 5807 0985 00090000 		.4byte	0x900
 5808 0989 04       		.uleb128 0x4
 5809 098a 2F030000 		.4byte	.LASF142
 5810 098e 0B       		.byte	0xb
 5811 098f 34       		.byte	0x34
 5812 0990 94090000 		.4byte	0x994
 5813 0994 10       		.uleb128 0x10
 5814 0995 A7080000 		.4byte	.LASF143
 5815 0999 44       		.byte	0x44
 5816 099a 0C       		.byte	0xc
 5817 099b 8E       		.byte	0x8e
 5818 099c 720A0000 		.4byte	0xa72
 5819 09a0 0C       		.uleb128 0xc
 5820 09a1 ED1A0000 		.4byte	.LASF144
 5821 09a5 0C       		.byte	0xc
 5822 09a6 8F       		.byte	0x8f
 5823 09a7 A70A0000 		.4byte	0xaa7
 5824 09ab 00       		.byte	0
 5825 09ac 0C       		.uleb128 0xc
 5826 09ad 4E010000 		.4byte	.LASF145
 5827 09b1 0C       		.byte	0xc
 5828 09b2 90       		.byte	0x90
 5829 09b3 47090000 		.4byte	0x947
 5830 09b7 08       		.byte	0x8
 5831 09b8 11       		.uleb128 0x11
 5832 09b9 63747800 		.ascii	"ctx\000"
 5833 09bd 0C       		.byte	0xc
 5834 09be 91       		.byte	0x91
 5835 09bf C0130000 		.4byte	0x13c0
 5836 09c3 0C       		.byte	0xc
 5837 09c4 0C       		.uleb128 0xc
 5838 09c5 4E070000 		.4byte	.LASF146
 5839 09c9 0C       		.byte	0xc
 5840 09ca 93       		.byte	0x93
 5841 09cb 7D0A0000 		.4byte	0xa7d
 5842 09cf 10       		.byte	0x10
 5843 09d0 0C       		.uleb128 0xc
 5844 09d1 06020000 		.4byte	.LASF147
 5845 09d5 0C       		.byte	0xc
 5846 09d6 94       		.byte	0x94
 5847 09d7 7D0A0000 		.4byte	0xa7d
 5848 09db 14       		.byte	0x14
 5849 09dc 0C       		.uleb128 0xc
 5850 09dd D6100000 		.4byte	.LASF148
 5851 09e1 0C       		.byte	0xc
 5852 09e2 9B       		.byte	0x9b
 5853 09e3 3A060000 		.4byte	0x63a
 5854 09e7 18       		.byte	0x18
 5855 09e8 0C       		.uleb128 0xc
 5856 09e9 73130000 		.4byte	.LASF149
 5857 09ed 0C       		.byte	0xc
 5858 09ee A4       		.byte	0xa4
 5859 09ef 2C170000 		.4byte	0x172c
 5860 09f3 1C       		.byte	0x1c
 5861 09f4 0C       		.uleb128 0xc
 5862 09f5 0C130000 		.4byte	.LASF150
 5863 09f9 0C       		.byte	0xc
ARM GAS  /tmp/ccxvl19p.s 			page 104


 5864 09fa A9       		.byte	0xa9
 5865 09fb 31090000 		.4byte	0x931
 5866 09ff 20       		.byte	0x20
 5867 0a00 0C       		.uleb128 0xc
 5868 0a01 1B210000 		.4byte	.LASF151
 5869 0a05 0C       		.byte	0xc
 5870 0a06 AD       		.byte	0xad
 5871 0a07 26090000 		.4byte	0x926
 5872 0a0b 21       		.byte	0x21
 5873 0a0c 0C       		.uleb128 0xc
 5874 0a0d 6F040000 		.4byte	.LASF152
 5875 0a11 0C       		.byte	0xc
 5876 0a12 B2       		.byte	0xb2
 5877 0a13 3C090000 		.4byte	0x93c
 5878 0a17 22       		.byte	0x22
 5879 0a18 17       		.uleb128 0x17
 5880 0a19 7500     		.ascii	"u\000"
 5881 0a1b 0C       		.byte	0xc
 5882 0a1c 0301     		.2byte	0x103
 5883 0a1e 62160000 		.4byte	0x1662
 5884 0a22 24       		.byte	0x24
 5885 0a23 16       		.uleb128 0x16
 5886 0a24 96190000 		.4byte	.LASF153
 5887 0a28 0C       		.byte	0xc
 5888 0a29 0801     		.2byte	0x108
 5889 0a2b 830A0000 		.4byte	0xa83
 5890 0a2f 28       		.byte	0x28
 5891 0a30 16       		.uleb128 0x16
 5892 0a31 AE120000 		.4byte	.LASF154
 5893 0a35 0C       		.byte	0xc
 5894 0a36 0E01     		.2byte	0x10e
 5895 0a38 A70A0000 		.4byte	0xaa7
 5896 0a3c 2C       		.byte	0x2c
 5897 0a3d 16       		.uleb128 0x16
 5898 0a3e D9000000 		.4byte	.LASF155
 5899 0a42 0C       		.byte	0xc
 5900 0a43 1401     		.2byte	0x114
 5901 0a45 5D090000 		.4byte	0x95d
 5902 0a49 34       		.byte	0x34
 5903 0a4a 16       		.uleb128 0x16
 5904 0a4b 86040000 		.4byte	.LASF156
 5905 0a4f 0C       		.byte	0xc
 5906 0a50 1B01     		.2byte	0x11b
 5907 0a52 26170000 		.4byte	0x1726
 5908 0a56 38       		.byte	0x38
 5909 0a57 16       		.uleb128 0x16
 5910 0a58 DE200000 		.4byte	.LASF157
 5911 0a5c 0C       		.byte	0xc
 5912 0a5d 1F01     		.2byte	0x11f
 5913 0a5f 47090000 		.4byte	0x947
 5914 0a63 3C       		.byte	0x3c
 5915 0a64 16       		.uleb128 0x16
 5916 0a65 F6130000 		.4byte	.LASF158
 5917 0a69 0C       		.byte	0xc
 5918 0a6a 2601     		.2byte	0x126
 5919 0a6c 4C010000 		.4byte	0x14c
 5920 0a70 40       		.byte	0x40
ARM GAS  /tmp/ccxvl19p.s 			page 105


 5921 0a71 00       		.byte	0
 5922 0a72 04       		.uleb128 0x4
 5923 0a73 7A1F0000 		.4byte	.LASF159
 5924 0a77 0B       		.byte	0xb
 5925 0a78 39       		.byte	0x39
 5926 0a79 7D0A0000 		.4byte	0xa7d
 5927 0a7d 0E       		.uleb128 0xe
 5928 0a7e 04       		.byte	0x4
 5929 0a7f 89090000 		.4byte	0x989
 5930 0a83 04       		.uleb128 0x4
 5931 0a84 F2040000 		.4byte	.LASF160
 5932 0a88 0B       		.byte	0xb
 5933 0a89 3E       		.byte	0x3e
 5934 0a8a 8E0A0000 		.4byte	0xa8e
 5935 0a8e 10       		.uleb128 0x10
 5936 0a8f 21210000 		.4byte	.LASF161
 5937 0a93 04       		.byte	0x4
 5938 0a94 0C       		.byte	0xc
 5939 0a95 7C       		.byte	0x7c
 5940 0a96 A70A0000 		.4byte	0xaa7
 5941 0a9a 0C       		.uleb128 0xc
 5942 0a9b 01020000 		.4byte	.LASF162
 5943 0a9f 0C       		.byte	0xc
 5944 0aa0 7D       		.byte	0x7d
 5945 0aa1 7D0A0000 		.4byte	0xa7d
 5946 0aa5 00       		.byte	0
 5947 0aa6 00       		.byte	0
 5948 0aa7 04       		.uleb128 0x4
 5949 0aa8 14140000 		.4byte	.LASF163
 5950 0aac 0B       		.byte	0xb
 5951 0aad 45       		.byte	0x45
 5952 0aae B20A0000 		.4byte	0xab2
 5953 0ab2 10       		.uleb128 0x10
 5954 0ab3 6B020000 		.4byte	.LASF164
 5955 0ab7 08       		.byte	0x8
 5956 0ab8 0C       		.byte	0xc
 5957 0ab9 83       		.byte	0x83
 5958 0aba D70A0000 		.4byte	0xad7
 5959 0abe 0C       		.uleb128 0xc
 5960 0abf 01020000 		.4byte	.LASF162
 5961 0ac3 0C       		.byte	0xc
 5962 0ac4 84       		.byte	0x84
 5963 0ac5 7D0A0000 		.4byte	0xa7d
 5964 0ac9 00       		.byte	0
 5965 0aca 0C       		.uleb128 0xc
 5966 0acb 94200000 		.4byte	.LASF165
 5967 0acf 0C       		.byte	0xc
 5968 0ad0 85       		.byte	0x85
 5969 0ad1 7D0A0000 		.4byte	0xa7d
 5970 0ad5 04       		.byte	0x4
 5971 0ad6 00       		.byte	0
 5972 0ad7 04       		.uleb128 0x4
 5973 0ad8 9A080000 		.4byte	.LASF166
 5974 0adc 0B       		.byte	0xb
 5975 0add 4C       		.byte	0x4c
 5976 0ade E20A0000 		.4byte	0xae2
 5977 0ae2 15       		.uleb128 0x15
ARM GAS  /tmp/ccxvl19p.s 			page 106


 5978 0ae3 9E190000 		.4byte	.LASF167
 5979 0ae7 1C       		.byte	0x1c
 5980 0ae8 0C       		.byte	0xc
 5981 0ae9 5E01     		.2byte	0x15e
 5982 0aeb 3E0B0000 		.4byte	0xb3e
 5983 0aef 16       		.uleb128 0x16
 5984 0af0 ED1A0000 		.4byte	.LASF144
 5985 0af4 0C       		.byte	0xc
 5986 0af5 5F01     		.2byte	0x15f
 5987 0af7 A70A0000 		.4byte	0xaa7
 5988 0afb 00       		.byte	0
 5989 0afc 16       		.uleb128 0x16
 5990 0afd 4E010000 		.4byte	.LASF145
 5991 0b01 0C       		.byte	0xc
 5992 0b02 6001     		.2byte	0x160
 5993 0b04 47090000 		.4byte	0x947
 5994 0b08 08       		.byte	0x8
 5995 0b09 17       		.uleb128 0x17
 5996 0b0a 63747800 		.ascii	"ctx\000"
 5997 0b0e 0C       		.byte	0xc
 5998 0b0f 6201     		.2byte	0x162
 5999 0b11 C0130000 		.4byte	0x13c0
 6000 0b15 0C       		.byte	0xc
 6001 0b16 16       		.uleb128 0x16
 6002 0b17 4E070000 		.4byte	.LASF146
 6003 0b1b 0C       		.byte	0xc
 6004 0b1c 6501     		.2byte	0x165
 6005 0b1e 7D0A0000 		.4byte	0xa7d
 6006 0b22 10       		.byte	0x10
 6007 0b23 16       		.uleb128 0x16
 6008 0b24 06020000 		.4byte	.LASF147
 6009 0b28 0C       		.byte	0xc
 6010 0b29 6601     		.2byte	0x166
 6011 0b2b 7D0A0000 		.4byte	0xa7d
 6012 0b2f 14       		.byte	0x14
 6013 0b30 16       		.uleb128 0x16
 6014 0b31 4A120000 		.4byte	.LASF168
 6015 0b35 0C       		.byte	0xc
 6016 0b36 6901     		.2byte	0x169
 6017 0b38 7D0A0000 		.4byte	0xa7d
 6018 0b3c 18       		.byte	0x18
 6019 0b3d 00       		.byte	0
 6020 0b3e 04       		.uleb128 0x4
 6021 0b3f A6180000 		.4byte	.LASF169
 6022 0b43 0B       		.byte	0xb
 6023 0b44 51       		.byte	0x51
 6024 0b45 490B0000 		.4byte	0xb49
 6025 0b49 0E       		.uleb128 0xe
 6026 0b4a 04       		.byte	0x4
 6027 0b4b 4F0B0000 		.4byte	0xb4f
 6028 0b4f 1B       		.uleb128 0x1b
 6029 0b50 5A0B0000 		.4byte	0xb5a
 6030 0b54 19       		.uleb128 0x19
 6031 0b55 4C010000 		.4byte	0x14c
 6032 0b59 00       		.byte	0
 6033 0b5a 04       		.uleb128 0x4
 6034 0b5b 1B0B0000 		.4byte	.LASF170
ARM GAS  /tmp/ccxvl19p.s 			page 107


 6035 0b5f 0B       		.byte	0xb
 6036 0b60 56       		.byte	0x56
 6037 0b61 650B0000 		.4byte	0xb65
 6038 0b65 15       		.uleb128 0x15
 6039 0b66 A51B0000 		.4byte	.LASF171
 6040 0b6a 14       		.byte	0x14
 6041 0b6b 0C       		.byte	0xc
 6042 0b6c 3901     		.2byte	0x139
 6043 0b6e B40B0000 		.4byte	0xbb4
 6044 0b72 16       		.uleb128 0x16
 6045 0b73 01020000 		.4byte	.LASF162
 6046 0b77 0C       		.byte	0xc
 6047 0b78 3A01     		.2byte	0x13a
 6048 0b7a 32170000 		.4byte	0x1732
 6049 0b7e 00       		.byte	0
 6050 0b7f 16       		.uleb128 0x16
 6051 0b80 94200000 		.4byte	.LASF165
 6052 0b84 0C       		.byte	0xc
 6053 0b85 3B01     		.2byte	0x13b
 6054 0b87 32170000 		.4byte	0x1732
 6055 0b8b 04       		.byte	0x4
 6056 0b8c 16       		.uleb128 0x16
 6057 0b8d 42090000 		.4byte	.LASF172
 6058 0b91 0C       		.byte	0xc
 6059 0b92 3C01     		.2byte	0x13c
 6060 0b94 8B0C0000 		.4byte	0xc8b
 6061 0b98 08       		.byte	0x8
 6062 0b99 16       		.uleb128 0x16
 6063 0b9a 94130000 		.4byte	.LASF173
 6064 0b9e 0C       		.byte	0xc
 6065 0b9f 3D01     		.2byte	0x13d
 6066 0ba1 3E0B0000 		.4byte	0xb3e
 6067 0ba5 0C       		.byte	0xc
 6068 0ba6 17       		.uleb128 0x17
 6069 0ba7 70617200 		.ascii	"par\000"
 6070 0bab 0C       		.byte	0xc
 6071 0bac 3F01     		.2byte	0x13f
 6072 0bae 4C010000 		.4byte	0x14c
 6073 0bb2 10       		.byte	0x10
 6074 0bb3 00       		.byte	0
 6075 0bb4 04       		.uleb128 0x4
 6076 0bb5 DD1C0000 		.4byte	.LASF174
 6077 0bb9 0B       		.byte	0xb
 6078 0bba 5B       		.byte	0x5b
 6079 0bbb BF0B0000 		.4byte	0xbbf
 6080 0bbf 15       		.uleb128 0x15
 6081 0bc0 43030000 		.4byte	.LASF175
 6082 0bc4 10       		.byte	0x10
 6083 0bc5 0C       		.byte	0xc
 6084 0bc6 4901     		.2byte	0x149
 6085 0bc8 010C0000 		.4byte	0xc01
 6086 0bcc 16       		.uleb128 0x16
 6087 0bcd 01020000 		.4byte	.LASF162
 6088 0bd1 0C       		.byte	0xc
 6089 0bd2 4A01     		.2byte	0x14a
 6090 0bd4 32170000 		.4byte	0x1732
 6091 0bd8 00       		.byte	0
ARM GAS  /tmp/ccxvl19p.s 			page 108


 6092 0bd9 16       		.uleb128 0x16
 6093 0bda 94200000 		.4byte	.LASF165
 6094 0bde 0C       		.byte	0xc
 6095 0bdf 4C01     		.2byte	0x14c
 6096 0be1 32170000 		.4byte	0x1732
 6097 0be5 04       		.byte	0x4
 6098 0be6 16       		.uleb128 0x16
 6099 0be7 42090000 		.4byte	.LASF172
 6100 0beb 0C       		.byte	0xc
 6101 0bec 4E01     		.2byte	0x14e
 6102 0bee 8B0C0000 		.4byte	0xc8b
 6103 0bf2 08       		.byte	0x8
 6104 0bf3 16       		.uleb128 0x16
 6105 0bf4 8B120000 		.4byte	.LASF176
 6106 0bf8 0C       		.byte	0xc
 6107 0bf9 5601     		.2byte	0x156
 6108 0bfb 800C0000 		.4byte	0xc80
 6109 0bff 0C       		.byte	0xc
 6110 0c00 00       		.byte	0
 6111 0c01 04       		.uleb128 0x4
 6112 0c02 13090000 		.4byte	.LASF177
 6113 0c06 0B       		.byte	0xb
 6114 0c07 60       		.byte	0x60
 6115 0c08 0C0C0000 		.4byte	0xc0c
 6116 0c0c 15       		.uleb128 0x15
 6117 0c0d DB190000 		.4byte	.LASF178
 6118 0c11 04       		.byte	0x4
 6119 0c12 0C       		.byte	0xc
 6120 0c13 7001     		.2byte	0x170
 6121 0c15 270C0000 		.4byte	0xc27
 6122 0c19 16       		.uleb128 0x16
 6123 0c1a ED100000 		.4byte	.LASF179
 6124 0c1e 0C       		.byte	0xc
 6125 0c1f 7801     		.2byte	0x178
 6126 0c21 40060000 		.4byte	0x640
 6127 0c25 00       		.byte	0
 6128 0c26 00       		.byte	0
 6129 0c27 04       		.uleb128 0x4
 6130 0c28 B0000000 		.4byte	.LASF180
 6131 0c2c 0B       		.byte	0xb
 6132 0c2d 65       		.byte	0x65
 6133 0c2e 320C0000 		.4byte	0xc32
 6134 0c32 15       		.uleb128 0x15
 6135 0c33 5E130000 		.4byte	.LASF181
 6136 0c37 78       		.byte	0x78
 6137 0c38 0C       		.byte	0xc
 6138 0c39 9001     		.2byte	0x190
 6139 0c3b 800C0000 		.4byte	0xc80
 6140 0c3f 16       		.uleb128 0x16
 6141 0c40 EC040000 		.4byte	.LASF182
 6142 0c44 0C       		.byte	0xc
 6143 0c45 9401     		.2byte	0x194
 6144 0c47 D70A0000 		.4byte	0xad7
 6145 0c4b 00       		.byte	0
 6146 0c4c 16       		.uleb128 0x16
 6147 0c4d AC040000 		.4byte	.LASF183
 6148 0c51 0C       		.byte	0xc
ARM GAS  /tmp/ccxvl19p.s 			page 109


 6149 0c52 9801     		.2byte	0x198
 6150 0c54 B40B0000 		.4byte	0xbb4
 6151 0c58 1C       		.byte	0x1c
 6152 0c59 17       		.uleb128 0x17
 6153 0c5a 64626700 		.ascii	"dbg\000"
 6154 0c5e 0C       		.byte	0xc
 6155 0c5f 9C01     		.2byte	0x19c
 6156 0c61 010C0000 		.4byte	0xc01
 6157 0c65 2C       		.byte	0x2c
 6158 0c66 16       		.uleb128 0x16
 6159 0c67 70140000 		.4byte	.LASF184
 6160 0c6b 0C       		.byte	0xc
 6161 0c6c A001     		.2byte	0x1a0
 6162 0c6e 89090000 		.4byte	0x989
 6163 0c72 30       		.byte	0x30
 6164 0c73 17       		.uleb128 0x17
 6165 0c74 746D00   		.ascii	"tm\000"
 6166 0c77 0C       		.byte	0xc
 6167 0c78 A501     		.2byte	0x1a5
 6168 0c7a 57160000 		.4byte	0x1657
 6169 0c7e 74       		.byte	0x74
 6170 0c7f 00       		.byte	0
 6171 0c80 04       		.uleb128 0x4
 6172 0c81 71030000 		.4byte	.LASF185
 6173 0c85 0D       		.byte	0xd
 6174 0c86 6D       		.byte	0x6d
 6175 0c87 00090000 		.4byte	0x900
 6176 0c8b 04       		.uleb128 0x4
 6177 0c8c 3A190000 		.4byte	.LASF186
 6178 0c90 0D       		.byte	0xd
 6179 0c91 79       		.byte	0x79
 6180 0c92 00090000 		.4byte	0x900
 6181 0c96 09       		.uleb128 0x9
 6182 0c97 00090000 		.4byte	0x900
 6183 0c9b A60C0000 		.4byte	0xca6
 6184 0c9f 0A       		.uleb128 0xa
 6185 0ca0 25000000 		.4byte	0x25
 6186 0ca4 01       		.byte	0x1
 6187 0ca5 00       		.byte	0
 6188 0ca6 09       		.uleb128 0x9
 6189 0ca7 00090000 		.4byte	0x900
 6190 0cab B60C0000 		.4byte	0xcb6
 6191 0caf 0A       		.uleb128 0xa
 6192 0cb0 25000000 		.4byte	0x25
 6193 0cb4 07       		.byte	0x7
 6194 0cb5 00       		.byte	0
 6195 0cb6 1C       		.uleb128 0x1c
 6196 0cb7 FA1A0000 		.4byte	.LASF187
 6197 0cbb 0E       		.byte	0xe
 6198 0cbc 0408     		.2byte	0x804
 6199 0cbe FB080000 		.4byte	0x8fb
 6200 0cc2 1D       		.uleb128 0x1d
 6201 0cc3 C8120000 		.4byte	.LASF188
 6202 0cc7 0F       		.byte	0xf
 6203 0cc8 4C       		.byte	0x4c
 6204 0cc9 00090000 		.4byte	0x900
 6205 0ccd 09       		.uleb128 0x9
ARM GAS  /tmp/ccxvl19p.s 			page 110


 6206 0cce DB080000 		.4byte	0x8db
 6207 0cd2 DD0C0000 		.4byte	0xcdd
 6208 0cd6 0A       		.uleb128 0xa
 6209 0cd7 25000000 		.4byte	0x25
 6210 0cdb 0F       		.byte	0xf
 6211 0cdc 00       		.byte	0
 6212 0cdd 0F       		.uleb128 0xf
 6213 0cde CD0C0000 		.4byte	0xccd
 6214 0ce2 1D       		.uleb128 0x1d
 6215 0ce3 381E0000 		.4byte	.LASF189
 6216 0ce7 0F       		.byte	0xf
 6217 0ce8 4E       		.byte	0x4e
 6218 0ce9 DD0C0000 		.4byte	0xcdd
 6219 0ced 09       		.uleb128 0x9
 6220 0cee DB080000 		.4byte	0x8db
 6221 0cf2 FD0C0000 		.4byte	0xcfd
 6222 0cf6 0A       		.uleb128 0xa
 6223 0cf7 25000000 		.4byte	0x25
 6224 0cfb 07       		.byte	0x7
 6225 0cfc 00       		.byte	0
 6226 0cfd 0F       		.uleb128 0xf
 6227 0cfe ED0C0000 		.4byte	0xced
 6228 0d02 1D       		.uleb128 0x1d
 6229 0d03 8C160000 		.4byte	.LASF190
 6230 0d07 0F       		.byte	0xf
 6231 0d08 4F       		.byte	0x4f
 6232 0d09 FD0C0000 		.4byte	0xcfd
 6233 0d0d 0B       		.uleb128 0xb
 6234 0d0e 50       		.byte	0x50
 6235 0d0f 10       		.byte	0x10
 6236 0d10 CA       		.byte	0xca
 6237 0d11 040E0000 		.4byte	0xe04
 6238 0d15 11       		.uleb128 0x11
 6239 0d16 535200   		.ascii	"SR\000"
 6240 0d19 10       		.byte	0x10
 6241 0d1a CC       		.byte	0xcc
 6242 0d1b 0B090000 		.4byte	0x90b
 6243 0d1f 00       		.byte	0
 6244 0d20 11       		.uleb128 0x11
 6245 0d21 43523100 		.ascii	"CR1\000"
 6246 0d25 10       		.byte	0x10
 6247 0d26 CD       		.byte	0xcd
 6248 0d27 0B090000 		.4byte	0x90b
 6249 0d2b 04       		.byte	0x4
 6250 0d2c 11       		.uleb128 0x11
 6251 0d2d 43523200 		.ascii	"CR2\000"
 6252 0d31 10       		.byte	0x10
 6253 0d32 CE       		.byte	0xce
 6254 0d33 0B090000 		.4byte	0x90b
 6255 0d37 08       		.byte	0x8
 6256 0d38 0C       		.uleb128 0xc
 6257 0d39 9E020000 		.4byte	.LASF191
 6258 0d3d 10       		.byte	0x10
 6259 0d3e CF       		.byte	0xcf
 6260 0d3f 0B090000 		.4byte	0x90b
 6261 0d43 0C       		.byte	0xc
 6262 0d44 0C       		.uleb128 0xc
ARM GAS  /tmp/ccxvl19p.s 			page 111


 6263 0d45 A4020000 		.4byte	.LASF192
 6264 0d49 10       		.byte	0x10
 6265 0d4a D0       		.byte	0xd0
 6266 0d4b 0B090000 		.4byte	0x90b
 6267 0d4f 10       		.byte	0x10
 6268 0d50 0C       		.uleb128 0xc
 6269 0d51 50090000 		.4byte	.LASF193
 6270 0d55 10       		.byte	0x10
 6271 0d56 D1       		.byte	0xd1
 6272 0d57 0B090000 		.4byte	0x90b
 6273 0d5b 14       		.byte	0x14
 6274 0d5c 0C       		.uleb128 0xc
 6275 0d5d 56090000 		.4byte	.LASF194
 6276 0d61 10       		.byte	0x10
 6277 0d62 D2       		.byte	0xd2
 6278 0d63 0B090000 		.4byte	0x90b
 6279 0d67 18       		.byte	0x18
 6280 0d68 0C       		.uleb128 0xc
 6281 0d69 780E0000 		.4byte	.LASF195
 6282 0d6d 10       		.byte	0x10
 6283 0d6e D3       		.byte	0xd3
 6284 0d6f 0B090000 		.4byte	0x90b
 6285 0d73 1C       		.byte	0x1c
 6286 0d74 0C       		.uleb128 0xc
 6287 0d75 5C090000 		.4byte	.LASF196
 6288 0d79 10       		.byte	0x10
 6289 0d7a D4       		.byte	0xd4
 6290 0d7b 0B090000 		.4byte	0x90b
 6291 0d7f 20       		.byte	0x20
 6292 0d80 11       		.uleb128 0x11
 6293 0d81 48545200 		.ascii	"HTR\000"
 6294 0d85 10       		.byte	0x10
 6295 0d86 D5       		.byte	0xd5
 6296 0d87 0B090000 		.4byte	0x90b
 6297 0d8b 24       		.byte	0x24
 6298 0d8c 11       		.uleb128 0x11
 6299 0d8d 4C545200 		.ascii	"LTR\000"
 6300 0d91 10       		.byte	0x10
 6301 0d92 D6       		.byte	0xd6
 6302 0d93 0B090000 		.4byte	0x90b
 6303 0d97 28       		.byte	0x28
 6304 0d98 0C       		.uleb128 0xc
 6305 0d99 04100000 		.4byte	.LASF197
 6306 0d9d 10       		.byte	0x10
 6307 0d9e D7       		.byte	0xd7
 6308 0d9f 0B090000 		.4byte	0x90b
 6309 0da3 2C       		.byte	0x2c
 6310 0da4 0C       		.uleb128 0xc
 6311 0da5 09100000 		.4byte	.LASF198
 6312 0da9 10       		.byte	0x10
 6313 0daa D8       		.byte	0xd8
 6314 0dab 0B090000 		.4byte	0x90b
 6315 0daf 30       		.byte	0x30
 6316 0db0 0C       		.uleb128 0xc
 6317 0db1 0E100000 		.4byte	.LASF199
 6318 0db5 10       		.byte	0x10
 6319 0db6 D9       		.byte	0xd9
ARM GAS  /tmp/ccxvl19p.s 			page 112


 6320 0db7 0B090000 		.4byte	0x90b
 6321 0dbb 34       		.byte	0x34
 6322 0dbc 0C       		.uleb128 0xc
 6323 0dbd DE0A0000 		.4byte	.LASF200
 6324 0dc1 10       		.byte	0x10
 6325 0dc2 DA       		.byte	0xda
 6326 0dc3 0B090000 		.4byte	0x90b
 6327 0dc7 38       		.byte	0x38
 6328 0dc8 0C       		.uleb128 0xc
 6329 0dc9 831C0000 		.4byte	.LASF201
 6330 0dcd 10       		.byte	0x10
 6331 0dce DB       		.byte	0xdb
 6332 0dcf 0B090000 		.4byte	0x90b
 6333 0dd3 3C       		.byte	0x3c
 6334 0dd4 0C       		.uleb128 0xc
 6335 0dd5 881C0000 		.4byte	.LASF202
 6336 0dd9 10       		.byte	0x10
 6337 0dda DC       		.byte	0xdc
 6338 0ddb 0B090000 		.4byte	0x90b
 6339 0ddf 40       		.byte	0x40
 6340 0de0 0C       		.uleb128 0xc
 6341 0de1 8D1C0000 		.4byte	.LASF203
 6342 0de5 10       		.byte	0x10
 6343 0de6 DD       		.byte	0xdd
 6344 0de7 0B090000 		.4byte	0x90b
 6345 0deb 44       		.byte	0x44
 6346 0dec 0C       		.uleb128 0xc
 6347 0ded 921C0000 		.4byte	.LASF204
 6348 0df1 10       		.byte	0x10
 6349 0df2 DE       		.byte	0xde
 6350 0df3 0B090000 		.4byte	0x90b
 6351 0df7 48       		.byte	0x48
 6352 0df8 11       		.uleb128 0x11
 6353 0df9 445200   		.ascii	"DR\000"
 6354 0dfc 10       		.byte	0x10
 6355 0dfd DF       		.byte	0xdf
 6356 0dfe 0B090000 		.4byte	0x90b
 6357 0e02 4C       		.byte	0x4c
 6358 0e03 00       		.byte	0
 6359 0e04 04       		.uleb128 0x4
 6360 0e05 F6110000 		.4byte	.LASF205
 6361 0e09 10       		.byte	0x10
 6362 0e0a E0       		.byte	0xe0
 6363 0e0b 0D0D0000 		.4byte	0xd0d
 6364 0e0f 0B       		.uleb128 0xb
 6365 0e10 10       		.byte	0x10
 6366 0e11 10       		.byte	0x10
 6367 0e12 EF       		.byte	0xef
 6368 0e13 480E0000 		.4byte	0xe48
 6369 0e17 11       		.uleb128 0x11
 6370 0e18 54495200 		.ascii	"TIR\000"
 6371 0e1c 10       		.byte	0x10
 6372 0e1d F1       		.byte	0xf1
 6373 0e1e 0B090000 		.4byte	0x90b
 6374 0e22 00       		.byte	0
 6375 0e23 0C       		.uleb128 0xc
 6376 0e24 260E0000 		.4byte	.LASF206
ARM GAS  /tmp/ccxvl19p.s 			page 113


 6377 0e28 10       		.byte	0x10
 6378 0e29 F2       		.byte	0xf2
 6379 0e2a 0B090000 		.4byte	0x90b
 6380 0e2e 04       		.byte	0x4
 6381 0e2f 0C       		.uleb128 0xc
 6382 0e30 62140000 		.4byte	.LASF207
 6383 0e34 10       		.byte	0x10
 6384 0e35 F3       		.byte	0xf3
 6385 0e36 0B090000 		.4byte	0x90b
 6386 0e3a 08       		.byte	0x8
 6387 0e3b 0C       		.uleb128 0xc
 6388 0e3c 36120000 		.4byte	.LASF208
 6389 0e40 10       		.byte	0x10
 6390 0e41 F4       		.byte	0xf4
 6391 0e42 0B090000 		.4byte	0x90b
 6392 0e46 0C       		.byte	0xc
 6393 0e47 00       		.byte	0
 6394 0e48 04       		.uleb128 0x4
 6395 0e49 D6040000 		.4byte	.LASF209
 6396 0e4d 10       		.byte	0x10
 6397 0e4e F5       		.byte	0xf5
 6398 0e4f 0F0E0000 		.4byte	0xe0f
 6399 0e53 0B       		.uleb128 0xb
 6400 0e54 10       		.byte	0x10
 6401 0e55 10       		.byte	0x10
 6402 0e56 FB       		.byte	0xfb
 6403 0e57 8D0E0000 		.4byte	0xe8d
 6404 0e5b 11       		.uleb128 0x11
 6405 0e5c 52495200 		.ascii	"RIR\000"
 6406 0e60 10       		.byte	0x10
 6407 0e61 FD       		.byte	0xfd
 6408 0e62 0B090000 		.4byte	0x90b
 6409 0e66 00       		.byte	0
 6410 0e67 0C       		.uleb128 0xc
 6411 0e68 35190000 		.4byte	.LASF210
 6412 0e6c 10       		.byte	0x10
 6413 0e6d FE       		.byte	0xfe
 6414 0e6e 0B090000 		.4byte	0x90b
 6415 0e72 04       		.byte	0x4
 6416 0e73 0C       		.uleb128 0xc
 6417 0e74 74150000 		.4byte	.LASF211
 6418 0e78 10       		.byte	0x10
 6419 0e79 FF       		.byte	0xff
 6420 0e7a 0B090000 		.4byte	0x90b
 6421 0e7e 08       		.byte	0x8
 6422 0e7f 16       		.uleb128 0x16
 6423 0e80 4B130000 		.4byte	.LASF212
 6424 0e84 10       		.byte	0x10
 6425 0e85 0001     		.2byte	0x100
 6426 0e87 0B090000 		.4byte	0x90b
 6427 0e8b 0C       		.byte	0xc
 6428 0e8c 00       		.byte	0
 6429 0e8d 06       		.uleb128 0x6
 6430 0e8e AF180000 		.4byte	.LASF213
 6431 0e92 10       		.byte	0x10
 6432 0e93 0101     		.2byte	0x101
 6433 0e95 530E0000 		.4byte	0xe53
ARM GAS  /tmp/ccxvl19p.s 			page 114


 6434 0e99 1E       		.uleb128 0x1e
 6435 0e9a 08       		.byte	0x8
 6436 0e9b 10       		.byte	0x10
 6437 0e9c 0701     		.2byte	0x107
 6438 0e9e BD0E0000 		.4byte	0xebd
 6439 0ea2 17       		.uleb128 0x17
 6440 0ea3 46523100 		.ascii	"FR1\000"
 6441 0ea7 10       		.byte	0x10
 6442 0ea8 0901     		.2byte	0x109
 6443 0eaa 0B090000 		.4byte	0x90b
 6444 0eae 00       		.byte	0
 6445 0eaf 17       		.uleb128 0x17
 6446 0eb0 46523200 		.ascii	"FR2\000"
 6447 0eb4 10       		.byte	0x10
 6448 0eb5 0A01     		.2byte	0x10a
 6449 0eb7 0B090000 		.4byte	0x90b
 6450 0ebb 04       		.byte	0x4
 6451 0ebc 00       		.byte	0
 6452 0ebd 06       		.uleb128 0x6
 6453 0ebe 340E0000 		.4byte	.LASF214
 6454 0ec2 10       		.byte	0x10
 6455 0ec3 0B01     		.2byte	0x10b
 6456 0ec5 990E0000 		.4byte	0xe99
 6457 0ec9 1F       		.uleb128 0x1f
 6458 0eca 2003     		.2byte	0x320
 6459 0ecc 10       		.byte	0x10
 6460 0ecd 1101     		.2byte	0x111
 6461 0ecf FF0F0000 		.4byte	0xfff
 6462 0ed3 17       		.uleb128 0x17
 6463 0ed4 4D435200 		.ascii	"MCR\000"
 6464 0ed8 10       		.byte	0x10
 6465 0ed9 1301     		.2byte	0x113
 6466 0edb 0B090000 		.4byte	0x90b
 6467 0edf 00       		.byte	0
 6468 0ee0 17       		.uleb128 0x17
 6469 0ee1 4D535200 		.ascii	"MSR\000"
 6470 0ee5 10       		.byte	0x10
 6471 0ee6 1401     		.2byte	0x114
 6472 0ee8 0B090000 		.4byte	0x90b
 6473 0eec 04       		.byte	0x4
 6474 0eed 17       		.uleb128 0x17
 6475 0eee 54535200 		.ascii	"TSR\000"
 6476 0ef2 10       		.byte	0x10
 6477 0ef3 1501     		.2byte	0x115
 6478 0ef5 0B090000 		.4byte	0x90b
 6479 0ef9 08       		.byte	0x8
 6480 0efa 16       		.uleb128 0x16
 6481 0efb D60C0000 		.4byte	.LASF215
 6482 0eff 10       		.byte	0x10
 6483 0f00 1601     		.2byte	0x116
 6484 0f02 0B090000 		.4byte	0x90b
 6485 0f06 0C       		.byte	0xc
 6486 0f07 16       		.uleb128 0x16
 6487 0f08 7A0D0000 		.4byte	.LASF216
 6488 0f0c 10       		.byte	0x10
 6489 0f0d 1701     		.2byte	0x117
 6490 0f0f 0B090000 		.4byte	0x90b
ARM GAS  /tmp/ccxvl19p.s 			page 115


 6491 0f13 10       		.byte	0x10
 6492 0f14 17       		.uleb128 0x17
 6493 0f15 49455200 		.ascii	"IER\000"
 6494 0f19 10       		.byte	0x10
 6495 0f1a 1801     		.2byte	0x118
 6496 0f1c 0B090000 		.4byte	0x90b
 6497 0f20 14       		.byte	0x14
 6498 0f21 17       		.uleb128 0x17
 6499 0f22 45535200 		.ascii	"ESR\000"
 6500 0f26 10       		.byte	0x10
 6501 0f27 1901     		.2byte	0x119
 6502 0f29 0B090000 		.4byte	0x90b
 6503 0f2d 18       		.byte	0x18
 6504 0f2e 17       		.uleb128 0x17
 6505 0f2f 42545200 		.ascii	"BTR\000"
 6506 0f33 10       		.byte	0x10
 6507 0f34 1A01     		.2byte	0x11a
 6508 0f36 0B090000 		.4byte	0x90b
 6509 0f3a 1C       		.byte	0x1c
 6510 0f3b 16       		.uleb128 0x16
 6511 0f3c 431A0000 		.4byte	.LASF217
 6512 0f40 10       		.byte	0x10
 6513 0f41 1B01     		.2byte	0x11b
 6514 0f43 FF0F0000 		.4byte	0xfff
 6515 0f47 20       		.byte	0x20
 6516 0f48 20       		.uleb128 0x20
 6517 0f49 260F0000 		.4byte	.LASF218
 6518 0f4d 10       		.byte	0x10
 6519 0f4e 1C01     		.2byte	0x11c
 6520 0f50 0F100000 		.4byte	0x100f
 6521 0f54 8001     		.2byte	0x180
 6522 0f56 20       		.uleb128 0x20
 6523 0f57 2B1E0000 		.4byte	.LASF219
 6524 0f5b 10       		.byte	0x10
 6525 0f5c 1D01     		.2byte	0x11d
 6526 0f5e 1F100000 		.4byte	0x101f
 6527 0f62 B001     		.2byte	0x1b0
 6528 0f64 20       		.uleb128 0x20
 6529 0f65 4D1A0000 		.4byte	.LASF220
 6530 0f69 10       		.byte	0x10
 6531 0f6a 1E01     		.2byte	0x11e
 6532 0f6c 2F100000 		.4byte	0x102f
 6533 0f70 D001     		.2byte	0x1d0
 6534 0f72 21       		.uleb128 0x21
 6535 0f73 464D5200 		.ascii	"FMR\000"
 6536 0f77 10       		.byte	0x10
 6537 0f78 1F01     		.2byte	0x11f
 6538 0f7a 0B090000 		.4byte	0x90b
 6539 0f7e 0002     		.2byte	0x200
 6540 0f80 20       		.uleb128 0x20
 6541 0f81 CB090000 		.4byte	.LASF221
 6542 0f85 10       		.byte	0x10
 6543 0f86 2001     		.2byte	0x120
 6544 0f88 0B090000 		.4byte	0x90b
 6545 0f8c 0402     		.2byte	0x204
 6546 0f8e 20       		.uleb128 0x20
 6547 0f8f 571A0000 		.4byte	.LASF222
ARM GAS  /tmp/ccxvl19p.s 			page 116


 6548 0f93 10       		.byte	0x10
 6549 0f94 2101     		.2byte	0x121
 6550 0f96 00090000 		.4byte	0x900
 6551 0f9a 0802     		.2byte	0x208
 6552 0f9c 20       		.uleb128 0x20
 6553 0f9d E31B0000 		.4byte	.LASF223
 6554 0fa1 10       		.byte	0x10
 6555 0fa2 2201     		.2byte	0x122
 6556 0fa4 0B090000 		.4byte	0x90b
 6557 0fa8 0C02     		.2byte	0x20c
 6558 0faa 20       		.uleb128 0x20
 6559 0fab 611A0000 		.4byte	.LASF224
 6560 0faf 10       		.byte	0x10
 6561 0fb0 2301     		.2byte	0x123
 6562 0fb2 00090000 		.4byte	0x900
 6563 0fb6 1002     		.2byte	0x210
 6564 0fb8 20       		.uleb128 0x20
 6565 0fb9 B6150000 		.4byte	.LASF225
 6566 0fbd 10       		.byte	0x10
 6567 0fbe 2401     		.2byte	0x124
 6568 0fc0 0B090000 		.4byte	0x90b
 6569 0fc4 1402     		.2byte	0x214
 6570 0fc6 20       		.uleb128 0x20
 6571 0fc7 6B1A0000 		.4byte	.LASF226
 6572 0fcb 10       		.byte	0x10
 6573 0fcc 2501     		.2byte	0x125
 6574 0fce 00090000 		.4byte	0x900
 6575 0fd2 1802     		.2byte	0x218
 6576 0fd4 20       		.uleb128 0x20
 6577 0fd5 CF030000 		.4byte	.LASF227
 6578 0fd9 10       		.byte	0x10
 6579 0fda 2601     		.2byte	0x126
 6580 0fdc 0B090000 		.4byte	0x90b
 6581 0fe0 1C02     		.2byte	0x21c
 6582 0fe2 20       		.uleb128 0x20
 6583 0fe3 751A0000 		.4byte	.LASF228
 6584 0fe7 10       		.byte	0x10
 6585 0fe8 2701     		.2byte	0x127
 6586 0fea A60C0000 		.4byte	0xca6
 6587 0fee 2002     		.2byte	0x220
 6588 0ff0 20       		.uleb128 0x20
 6589 0ff1 57050000 		.4byte	.LASF229
 6590 0ff5 10       		.byte	0x10
 6591 0ff6 2801     		.2byte	0x128
 6592 0ff8 3F100000 		.4byte	0x103f
 6593 0ffc 4002     		.2byte	0x240
 6594 0ffe 00       		.byte	0
 6595 0fff 09       		.uleb128 0x9
 6596 1000 00090000 		.4byte	0x900
 6597 1004 0F100000 		.4byte	0x100f
 6598 1008 0A       		.uleb128 0xa
 6599 1009 25000000 		.4byte	0x25
 6600 100d 57       		.byte	0x57
 6601 100e 00       		.byte	0
 6602 100f 09       		.uleb128 0x9
 6603 1010 480E0000 		.4byte	0xe48
 6604 1014 1F100000 		.4byte	0x101f
ARM GAS  /tmp/ccxvl19p.s 			page 117


 6605 1018 0A       		.uleb128 0xa
 6606 1019 25000000 		.4byte	0x25
 6607 101d 02       		.byte	0x2
 6608 101e 00       		.byte	0
 6609 101f 09       		.uleb128 0x9
 6610 1020 8D0E0000 		.4byte	0xe8d
 6611 1024 2F100000 		.4byte	0x102f
 6612 1028 0A       		.uleb128 0xa
 6613 1029 25000000 		.4byte	0x25
 6614 102d 01       		.byte	0x1
 6615 102e 00       		.byte	0
 6616 102f 09       		.uleb128 0x9
 6617 1030 00090000 		.4byte	0x900
 6618 1034 3F100000 		.4byte	0x103f
 6619 1038 0A       		.uleb128 0xa
 6620 1039 25000000 		.4byte	0x25
 6621 103d 0B       		.byte	0xb
 6622 103e 00       		.byte	0
 6623 103f 09       		.uleb128 0x9
 6624 1040 BD0E0000 		.4byte	0xebd
 6625 1044 4F100000 		.4byte	0x104f
 6626 1048 0A       		.uleb128 0xa
 6627 1049 25000000 		.4byte	0x25
 6628 104d 1B       		.byte	0x1b
 6629 104e 00       		.byte	0
 6630 104f 06       		.uleb128 0x6
 6631 1050 710B0000 		.4byte	.LASF230
 6632 1054 10       		.byte	0x10
 6633 1055 2901     		.2byte	0x129
 6634 1057 C90E0000 		.4byte	0xec9
 6635 105b 1E       		.uleb128 0x1e
 6636 105c 18       		.byte	0x18
 6637 105d 10       		.byte	0x10
 6638 105e 7101     		.2byte	0x171
 6639 1060 B2100000 		.4byte	0x10b2
 6640 1064 17       		.uleb128 0x17
 6641 1065 435200   		.ascii	"CR\000"
 6642 1068 10       		.byte	0x10
 6643 1069 7301     		.2byte	0x173
 6644 106b 0B090000 		.4byte	0x90b
 6645 106f 00       		.byte	0
 6646 1070 16       		.uleb128 0x16
 6647 1071 541B0000 		.4byte	.LASF231
 6648 1075 10       		.byte	0x10
 6649 1076 7401     		.2byte	0x174
 6650 1078 0B090000 		.4byte	0x90b
 6651 107c 04       		.byte	0x4
 6652 107d 17       		.uleb128 0x17
 6653 107e 50415200 		.ascii	"PAR\000"
 6654 1082 10       		.byte	0x10
 6655 1083 7501     		.2byte	0x175
 6656 1085 0B090000 		.4byte	0x90b
 6657 1089 08       		.byte	0x8
 6658 108a 16       		.uleb128 0x16
 6659 108b 97030000 		.4byte	.LASF232
 6660 108f 10       		.byte	0x10
 6661 1090 7601     		.2byte	0x176
ARM GAS  /tmp/ccxvl19p.s 			page 118


 6662 1092 0B090000 		.4byte	0x90b
 6663 1096 0C       		.byte	0xc
 6664 1097 16       		.uleb128 0x16
 6665 1098 17070000 		.4byte	.LASF233
 6666 109c 10       		.byte	0x10
 6667 109d 7701     		.2byte	0x177
 6668 109f 0B090000 		.4byte	0x90b
 6669 10a3 10       		.byte	0x10
 6670 10a4 17       		.uleb128 0x17
 6671 10a5 46435200 		.ascii	"FCR\000"
 6672 10a9 10       		.byte	0x10
 6673 10aa 7801     		.2byte	0x178
 6674 10ac 0B090000 		.4byte	0x90b
 6675 10b0 14       		.byte	0x14
 6676 10b1 00       		.byte	0
 6677 10b2 06       		.uleb128 0x6
 6678 10b3 1C070000 		.4byte	.LASF234
 6679 10b7 10       		.byte	0x10
 6680 10b8 7901     		.2byte	0x179
 6681 10ba 5B100000 		.4byte	0x105b
 6682 10be 09       		.uleb128 0x9
 6683 10bf 0B090000 		.4byte	0x90b
 6684 10c3 CE100000 		.4byte	0x10ce
 6685 10c7 0A       		.uleb128 0xa
 6686 10c8 25000000 		.4byte	0x25
 6687 10cc 01       		.byte	0x1
 6688 10cd 00       		.byte	0
 6689 10ce 05       		.uleb128 0x5
 6690 10cf BE100000 		.4byte	0x10be
 6691 10d3 09       		.uleb128 0x9
 6692 10d4 0B090000 		.4byte	0x90b
 6693 10d8 E3100000 		.4byte	0x10e3
 6694 10dc 0A       		.uleb128 0xa
 6695 10dd 25000000 		.4byte	0x25
 6696 10e1 03       		.byte	0x3
 6697 10e2 00       		.byte	0
 6698 10e3 05       		.uleb128 0x5
 6699 10e4 D3100000 		.4byte	0x10d3
 6700 10e8 1E       		.uleb128 0x1e
 6701 10e9 90       		.byte	0x90
 6702 10ea 10       		.byte	0x10
 6703 10eb 9602     		.2byte	0x296
 6704 10ed 91120000 		.4byte	0x1291
 6705 10f1 17       		.uleb128 0x17
 6706 10f2 435200   		.ascii	"CR\000"
 6707 10f5 10       		.byte	0x10
 6708 10f6 9802     		.2byte	0x298
 6709 10f8 0B090000 		.4byte	0x90b
 6710 10fc 00       		.byte	0
 6711 10fd 16       		.uleb128 0x16
 6712 10fe 82180000 		.4byte	.LASF235
 6713 1102 10       		.byte	0x10
 6714 1103 9902     		.2byte	0x299
 6715 1105 0B090000 		.4byte	0x90b
 6716 1109 04       		.byte	0x4
 6717 110a 16       		.uleb128 0x16
 6718 110b 9F110000 		.4byte	.LASF236
ARM GAS  /tmp/ccxvl19p.s 			page 119


 6719 110f 10       		.byte	0x10
 6720 1110 9A02     		.2byte	0x29a
 6721 1112 0B090000 		.4byte	0x90b
 6722 1116 08       		.byte	0x8
 6723 1117 17       		.uleb128 0x17
 6724 1118 43495200 		.ascii	"CIR\000"
 6725 111c 10       		.byte	0x10
 6726 111d 9B02     		.2byte	0x29b
 6727 111f 0B090000 		.4byte	0x90b
 6728 1123 0C       		.byte	0xc
 6729 1124 16       		.uleb128 0x16
 6730 1125 EF200000 		.4byte	.LASF237
 6731 1129 10       		.byte	0x10
 6732 112a 9C02     		.2byte	0x29c
 6733 112c 0B090000 		.4byte	0x90b
 6734 1130 10       		.byte	0x10
 6735 1131 16       		.uleb128 0x16
 6736 1132 7B0A0000 		.4byte	.LASF238
 6737 1136 10       		.byte	0x10
 6738 1137 9D02     		.2byte	0x29d
 6739 1139 0B090000 		.4byte	0x90b
 6740 113d 14       		.byte	0x14
 6741 113e 16       		.uleb128 0x16
 6742 113f 97140000 		.4byte	.LASF239
 6743 1143 10       		.byte	0x10
 6744 1144 9E02     		.2byte	0x29e
 6745 1146 0B090000 		.4byte	0x90b
 6746 114a 18       		.byte	0x18
 6747 114b 16       		.uleb128 0x16
 6748 114c 431A0000 		.4byte	.LASF217
 6749 1150 10       		.byte	0x10
 6750 1151 9F02     		.2byte	0x29f
 6751 1153 00090000 		.4byte	0x900
 6752 1157 1C       		.byte	0x1c
 6753 1158 16       		.uleb128 0x16
 6754 1159 1A040000 		.4byte	.LASF240
 6755 115d 10       		.byte	0x10
 6756 115e A002     		.2byte	0x2a0
 6757 1160 0B090000 		.4byte	0x90b
 6758 1164 20       		.byte	0x20
 6759 1165 16       		.uleb128 0x16
 6760 1166 460F0000 		.4byte	.LASF241
 6761 116a 10       		.byte	0x10
 6762 116b A102     		.2byte	0x2a1
 6763 116d 0B090000 		.4byte	0x90b
 6764 1171 24       		.byte	0x24
 6765 1172 16       		.uleb128 0x16
 6766 1173 4D1A0000 		.4byte	.LASF220
 6767 1177 10       		.byte	0x10
 6768 1178 A202     		.2byte	0x2a2
 6769 117a 960C0000 		.4byte	0xc96
 6770 117e 28       		.byte	0x28
 6771 117f 16       		.uleb128 0x16
 6772 1180 16110000 		.4byte	.LASF242
 6773 1184 10       		.byte	0x10
 6774 1185 A302     		.2byte	0x2a3
 6775 1187 0B090000 		.4byte	0x90b
ARM GAS  /tmp/ccxvl19p.s 			page 120


 6776 118b 30       		.byte	0x30
 6777 118c 16       		.uleb128 0x16
 6778 118d E7200000 		.4byte	.LASF243
 6779 1191 10       		.byte	0x10
 6780 1192 A402     		.2byte	0x2a4
 6781 1194 0B090000 		.4byte	0x90b
 6782 1198 34       		.byte	0x34
 6783 1199 16       		.uleb128 0x16
 6784 119a F10F0000 		.4byte	.LASF244
 6785 119e 10       		.byte	0x10
 6786 119f A502     		.2byte	0x2a5
 6787 11a1 0B090000 		.4byte	0x90b
 6788 11a5 38       		.byte	0x38
 6789 11a6 16       		.uleb128 0x16
 6790 11a7 571A0000 		.4byte	.LASF222
 6791 11ab 10       		.byte	0x10
 6792 11ac A602     		.2byte	0x2a6
 6793 11ae 00090000 		.4byte	0x900
 6794 11b2 3C       		.byte	0x3c
 6795 11b3 16       		.uleb128 0x16
 6796 11b4 1F170000 		.4byte	.LASF245
 6797 11b8 10       		.byte	0x10
 6798 11b9 A702     		.2byte	0x2a7
 6799 11bb 0B090000 		.4byte	0x90b
 6800 11bf 40       		.byte	0x40
 6801 11c0 16       		.uleb128 0x16
 6802 11c1 DD050000 		.4byte	.LASF246
 6803 11c5 10       		.byte	0x10
 6804 11c6 A802     		.2byte	0x2a8
 6805 11c8 0B090000 		.4byte	0x90b
 6806 11cc 44       		.byte	0x44
 6807 11cd 16       		.uleb128 0x16
 6808 11ce 611A0000 		.4byte	.LASF224
 6809 11d2 10       		.byte	0x10
 6810 11d3 A902     		.2byte	0x2a9
 6811 11d5 960C0000 		.4byte	0xc96
 6812 11d9 48       		.byte	0x48
 6813 11da 16       		.uleb128 0x16
 6814 11db 3B1B0000 		.4byte	.LASF247
 6815 11df 10       		.byte	0x10
 6816 11e0 AA02     		.2byte	0x2aa
 6817 11e2 0B090000 		.4byte	0x90b
 6818 11e6 50       		.byte	0x50
 6819 11e7 16       		.uleb128 0x16
 6820 11e8 2E090000 		.4byte	.LASF248
 6821 11ec 10       		.byte	0x10
 6822 11ed AB02     		.2byte	0x2ab
 6823 11ef 0B090000 		.4byte	0x90b
 6824 11f3 54       		.byte	0x54
 6825 11f4 16       		.uleb128 0x16
 6826 11f5 D2080000 		.4byte	.LASF249
 6827 11f9 10       		.byte	0x10
 6828 11fa AC02     		.2byte	0x2ac
 6829 11fc 0B090000 		.4byte	0x90b
 6830 1200 58       		.byte	0x58
 6831 1201 16       		.uleb128 0x16
 6832 1202 6B1A0000 		.4byte	.LASF226
ARM GAS  /tmp/ccxvl19p.s 			page 121


 6833 1206 10       		.byte	0x10
 6834 1207 AD02     		.2byte	0x2ad
 6835 1209 00090000 		.4byte	0x900
 6836 120d 5C       		.byte	0x5c
 6837 120e 16       		.uleb128 0x16
 6838 120f 970F0000 		.4byte	.LASF250
 6839 1213 10       		.byte	0x10
 6840 1214 AE02     		.2byte	0x2ae
 6841 1216 0B090000 		.4byte	0x90b
 6842 121a 60       		.byte	0x60
 6843 121b 16       		.uleb128 0x16
 6844 121c A01C0000 		.4byte	.LASF251
 6845 1220 10       		.byte	0x10
 6846 1221 AF02     		.2byte	0x2af
 6847 1223 0B090000 		.4byte	0x90b
 6848 1227 64       		.byte	0x64
 6849 1228 16       		.uleb128 0x16
 6850 1229 751A0000 		.4byte	.LASF228
 6851 122d 10       		.byte	0x10
 6852 122e B002     		.2byte	0x2b0
 6853 1230 960C0000 		.4byte	0xc96
 6854 1234 68       		.byte	0x68
 6855 1235 16       		.uleb128 0x16
 6856 1236 5F190000 		.4byte	.LASF252
 6857 123a 10       		.byte	0x10
 6858 123b B102     		.2byte	0x2b1
 6859 123d 0B090000 		.4byte	0x90b
 6860 1241 70       		.byte	0x70
 6861 1242 17       		.uleb128 0x17
 6862 1243 43535200 		.ascii	"CSR\000"
 6863 1247 10       		.byte	0x10
 6864 1248 B202     		.2byte	0x2b2
 6865 124a 0B090000 		.4byte	0x90b
 6866 124e 74       		.byte	0x74
 6867 124f 16       		.uleb128 0x16
 6868 1250 7F1A0000 		.4byte	.LASF253
 6869 1254 10       		.byte	0x10
 6870 1255 B302     		.2byte	0x2b3
 6871 1257 960C0000 		.4byte	0xc96
 6872 125b 78       		.byte	0x78
 6873 125c 16       		.uleb128 0x16
 6874 125d 6C120000 		.4byte	.LASF254
 6875 1261 10       		.byte	0x10
 6876 1262 B402     		.2byte	0x2b4
 6877 1264 0B090000 		.4byte	0x90b
 6878 1268 80       		.byte	0x80
 6879 1269 16       		.uleb128 0x16
 6880 126a 68130000 		.4byte	.LASF255
 6881 126e 10       		.byte	0x10
 6882 126f B502     		.2byte	0x2b5
 6883 1271 0B090000 		.4byte	0x90b
 6884 1275 84       		.byte	0x84
 6885 1276 16       		.uleb128 0x16
 6886 1277 72120000 		.4byte	.LASF256
 6887 127b 10       		.byte	0x10
 6888 127c B602     		.2byte	0x2b6
 6889 127e 0B090000 		.4byte	0x90b
ARM GAS  /tmp/ccxvl19p.s 			page 122


 6890 1282 88       		.byte	0x88
 6891 1283 16       		.uleb128 0x16
 6892 1284 48090000 		.4byte	.LASF257
 6893 1288 10       		.byte	0x10
 6894 1289 B702     		.2byte	0x2b7
 6895 128b 0B090000 		.4byte	0x90b
 6896 128f 8C       		.byte	0x8c
 6897 1290 00       		.byte	0
 6898 1291 06       		.uleb128 0x6
 6899 1292 66010000 		.4byte	.LASF258
 6900 1296 10       		.byte	0x10
 6901 1297 B802     		.2byte	0x2b8
 6902 1299 E8100000 		.4byte	0x10e8
 6903 129d 1E       		.uleb128 0x1e
 6904 129e 24       		.byte	0x24
 6905 129f 10       		.byte	0x10
 6906 12a0 1F03     		.2byte	0x31f
 6907 12a2 1A130000 		.4byte	0x131a
 6908 12a6 17       		.uleb128 0x17
 6909 12a7 43523100 		.ascii	"CR1\000"
 6910 12ab 10       		.byte	0x10
 6911 12ac 2103     		.2byte	0x321
 6912 12ae 0B090000 		.4byte	0x90b
 6913 12b2 00       		.byte	0
 6914 12b3 17       		.uleb128 0x17
 6915 12b4 43523200 		.ascii	"CR2\000"
 6916 12b8 10       		.byte	0x10
 6917 12b9 2203     		.2byte	0x322
 6918 12bb 0B090000 		.4byte	0x90b
 6919 12bf 04       		.byte	0x4
 6920 12c0 17       		.uleb128 0x17
 6921 12c1 535200   		.ascii	"SR\000"
 6922 12c4 10       		.byte	0x10
 6923 12c5 2303     		.2byte	0x323
 6924 12c7 0B090000 		.4byte	0x90b
 6925 12cb 08       		.byte	0x8
 6926 12cc 17       		.uleb128 0x17
 6927 12cd 445200   		.ascii	"DR\000"
 6928 12d0 10       		.byte	0x10
 6929 12d1 2403     		.2byte	0x324
 6930 12d3 0B090000 		.4byte	0x90b
 6931 12d7 0C       		.byte	0xc
 6932 12d8 16       		.uleb128 0x16
 6933 12d9 D0060000 		.4byte	.LASF259
 6934 12dd 10       		.byte	0x10
 6935 12de 2503     		.2byte	0x325
 6936 12e0 0B090000 		.4byte	0x90b
 6937 12e4 10       		.byte	0x10
 6938 12e5 16       		.uleb128 0x16
 6939 12e6 5A0A0000 		.4byte	.LASF260
 6940 12ea 10       		.byte	0x10
 6941 12eb 2603     		.2byte	0x326
 6942 12ed 0B090000 		.4byte	0x90b
 6943 12f1 14       		.byte	0x14
 6944 12f2 16       		.uleb128 0x16
 6945 12f3 78090000 		.4byte	.LASF261
 6946 12f7 10       		.byte	0x10
ARM GAS  /tmp/ccxvl19p.s 			page 123


 6947 12f8 2703     		.2byte	0x327
 6948 12fa 0B090000 		.4byte	0x90b
 6949 12fe 18       		.byte	0x18
 6950 12ff 16       		.uleb128 0x16
 6951 1300 551D0000 		.4byte	.LASF262
 6952 1304 10       		.byte	0x10
 6953 1305 2803     		.2byte	0x328
 6954 1307 0B090000 		.4byte	0x90b
 6955 130b 1C       		.byte	0x1c
 6956 130c 16       		.uleb128 0x16
 6957 130d 9E060000 		.4byte	.LASF263
 6958 1311 10       		.byte	0x10
 6959 1312 2903     		.2byte	0x329
 6960 1314 0B090000 		.4byte	0x90b
 6961 1318 20       		.byte	0x20
 6962 1319 00       		.byte	0
 6963 131a 06       		.uleb128 0x6
 6964 131b 7B1B0000 		.4byte	.LASF264
 6965 131f 10       		.byte	0x10
 6966 1320 2A03     		.2byte	0x32a
 6967 1322 9D120000 		.4byte	0x129d
 6968 1326 1E       		.uleb128 0x1e
 6969 1327 1C       		.byte	0x1c
 6970 1328 10       		.byte	0x10
 6971 1329 4E03     		.2byte	0x34e
 6972 132b 89130000 		.4byte	0x1389
 6973 132f 17       		.uleb128 0x17
 6974 1330 535200   		.ascii	"SR\000"
 6975 1333 10       		.byte	0x10
 6976 1334 5003     		.2byte	0x350
 6977 1336 0B090000 		.4byte	0x90b
 6978 133a 00       		.byte	0
 6979 133b 17       		.uleb128 0x17
 6980 133c 445200   		.ascii	"DR\000"
 6981 133f 10       		.byte	0x10
 6982 1340 5103     		.2byte	0x351
 6983 1342 0B090000 		.4byte	0x90b
 6984 1346 04       		.byte	0x4
 6985 1347 17       		.uleb128 0x17
 6986 1348 42525200 		.ascii	"BRR\000"
 6987 134c 10       		.byte	0x10
 6988 134d 5203     		.2byte	0x352
 6989 134f 0B090000 		.4byte	0x90b
 6990 1353 08       		.byte	0x8
 6991 1354 17       		.uleb128 0x17
 6992 1355 43523100 		.ascii	"CR1\000"
 6993 1359 10       		.byte	0x10
 6994 135a 5303     		.2byte	0x353
 6995 135c 0B090000 		.4byte	0x90b
 6996 1360 0C       		.byte	0xc
 6997 1361 17       		.uleb128 0x17
 6998 1362 43523200 		.ascii	"CR2\000"
 6999 1366 10       		.byte	0x10
 7000 1367 5403     		.2byte	0x354
 7001 1369 0B090000 		.4byte	0x90b
 7002 136d 10       		.byte	0x10
 7003 136e 17       		.uleb128 0x17
ARM GAS  /tmp/ccxvl19p.s 			page 124


 7004 136f 43523300 		.ascii	"CR3\000"
 7005 1373 10       		.byte	0x10
 7006 1374 5503     		.2byte	0x355
 7007 1376 0B090000 		.4byte	0x90b
 7008 137a 14       		.byte	0x14
 7009 137b 16       		.uleb128 0x16
 7010 137c F70C0000 		.4byte	.LASF265
 7011 1380 10       		.byte	0x10
 7012 1381 5603     		.2byte	0x356
 7013 1383 0B090000 		.4byte	0x90b
 7014 1387 18       		.byte	0x18
 7015 1388 00       		.byte	0
 7016 1389 06       		.uleb128 0x6
 7017 138a 3F140000 		.4byte	.LASF266
 7018 138e 10       		.byte	0x10
 7019 138f 5703     		.2byte	0x357
 7020 1391 26130000 		.4byte	0x1326
 7021 1395 09       		.uleb128 0x9
 7022 1396 0B090000 		.4byte	0x90b
 7023 139a A5130000 		.4byte	0x13a5
 7024 139e 0A       		.uleb128 0xa
 7025 139f 25000000 		.4byte	0x25
 7026 13a3 0E       		.byte	0xe
 7027 13a4 00       		.byte	0
 7028 13a5 05       		.uleb128 0x5
 7029 13a6 95130000 		.4byte	0x1395
 7030 13aa 04       		.uleb128 0x4
 7031 13ab 9B150000 		.4byte	.LASF267
 7032 13af 11       		.byte	0x11
 7033 13b0 65       		.byte	0x65
 7034 13b1 4C010000 		.4byte	0x14c
 7035 13b5 04       		.uleb128 0x4
 7036 13b6 2A080000 		.4byte	.LASF268
 7037 13ba 11       		.byte	0x11
 7038 13bb 6D       		.byte	0x6d
 7039 13bc 10090000 		.4byte	0x910
 7040 13c0 10       		.uleb128 0x10
 7041 13c1 4F0F0000 		.4byte	.LASF269
 7042 13c5 04       		.byte	0x4
 7043 13c6 11       		.byte	0x11
 7044 13c7 89       		.byte	0x89
 7045 13c8 D8130000 		.4byte	0x13d8
 7046 13cc 11       		.uleb128 0x11
 7047 13cd 737000   		.ascii	"sp\000"
 7048 13d0 11       		.byte	0x11
 7049 13d1 8A       		.byte	0x8a
 7050 13d2 24150000 		.4byte	0x1524
 7051 13d6 00       		.byte	0
 7052 13d7 00       		.byte	0
 7053 13d8 15       		.uleb128 0x15
 7054 13d9 25000000 		.4byte	.LASF270
 7055 13dd 64       		.byte	0x64
 7056 13de 12       		.byte	0x12
 7057 13df 5901     		.2byte	0x159
 7058 13e1 24150000 		.4byte	0x1524
 7059 13e5 17       		.uleb128 0x17
 7060 13e6 73313600 		.ascii	"s16\000"
ARM GAS  /tmp/ccxvl19p.s 			page 125


 7061 13ea 12       		.byte	0x12
 7062 13eb 5B01     		.2byte	0x15b
 7063 13ed AA130000 		.4byte	0x13aa
 7064 13f1 00       		.byte	0
 7065 13f2 17       		.uleb128 0x17
 7066 13f3 73313700 		.ascii	"s17\000"
 7067 13f7 12       		.byte	0x12
 7068 13f8 5C01     		.2byte	0x15c
 7069 13fa AA130000 		.4byte	0x13aa
 7070 13fe 04       		.byte	0x4
 7071 13ff 17       		.uleb128 0x17
 7072 1400 73313800 		.ascii	"s18\000"
 7073 1404 12       		.byte	0x12
 7074 1405 5D01     		.2byte	0x15d
 7075 1407 AA130000 		.4byte	0x13aa
 7076 140b 08       		.byte	0x8
 7077 140c 17       		.uleb128 0x17
 7078 140d 73313900 		.ascii	"s19\000"
 7079 1411 12       		.byte	0x12
 7080 1412 5E01     		.2byte	0x15e
 7081 1414 AA130000 		.4byte	0x13aa
 7082 1418 0C       		.byte	0xc
 7083 1419 17       		.uleb128 0x17
 7084 141a 73323000 		.ascii	"s20\000"
 7085 141e 12       		.byte	0x12
 7086 141f 5F01     		.2byte	0x15f
 7087 1421 AA130000 		.4byte	0x13aa
 7088 1425 10       		.byte	0x10
 7089 1426 17       		.uleb128 0x17
 7090 1427 73323100 		.ascii	"s21\000"
 7091 142b 12       		.byte	0x12
 7092 142c 6001     		.2byte	0x160
 7093 142e AA130000 		.4byte	0x13aa
 7094 1432 14       		.byte	0x14
 7095 1433 17       		.uleb128 0x17
 7096 1434 73323200 		.ascii	"s22\000"
 7097 1438 12       		.byte	0x12
 7098 1439 6101     		.2byte	0x161
 7099 143b AA130000 		.4byte	0x13aa
 7100 143f 18       		.byte	0x18
 7101 1440 17       		.uleb128 0x17
 7102 1441 73323300 		.ascii	"s23\000"
 7103 1445 12       		.byte	0x12
 7104 1446 6201     		.2byte	0x162
 7105 1448 AA130000 		.4byte	0x13aa
 7106 144c 1C       		.byte	0x1c
 7107 144d 17       		.uleb128 0x17
 7108 144e 73323400 		.ascii	"s24\000"
 7109 1452 12       		.byte	0x12
 7110 1453 6301     		.2byte	0x163
 7111 1455 AA130000 		.4byte	0x13aa
 7112 1459 20       		.byte	0x20
 7113 145a 17       		.uleb128 0x17
 7114 145b 73323500 		.ascii	"s25\000"
 7115 145f 12       		.byte	0x12
 7116 1460 6401     		.2byte	0x164
 7117 1462 AA130000 		.4byte	0x13aa
ARM GAS  /tmp/ccxvl19p.s 			page 126


 7118 1466 24       		.byte	0x24
 7119 1467 17       		.uleb128 0x17
 7120 1468 73323600 		.ascii	"s26\000"
 7121 146c 12       		.byte	0x12
 7122 146d 6501     		.2byte	0x165
 7123 146f AA130000 		.4byte	0x13aa
 7124 1473 28       		.byte	0x28
 7125 1474 17       		.uleb128 0x17
 7126 1475 73323700 		.ascii	"s27\000"
 7127 1479 12       		.byte	0x12
 7128 147a 6601     		.2byte	0x166
 7129 147c AA130000 		.4byte	0x13aa
 7130 1480 2C       		.byte	0x2c
 7131 1481 17       		.uleb128 0x17
 7132 1482 73323800 		.ascii	"s28\000"
 7133 1486 12       		.byte	0x12
 7134 1487 6701     		.2byte	0x167
 7135 1489 AA130000 		.4byte	0x13aa
 7136 148d 30       		.byte	0x30
 7137 148e 17       		.uleb128 0x17
 7138 148f 73323900 		.ascii	"s29\000"
 7139 1493 12       		.byte	0x12
 7140 1494 6801     		.2byte	0x168
 7141 1496 AA130000 		.4byte	0x13aa
 7142 149a 34       		.byte	0x34
 7143 149b 17       		.uleb128 0x17
 7144 149c 73333000 		.ascii	"s30\000"
 7145 14a0 12       		.byte	0x12
 7146 14a1 6901     		.2byte	0x169
 7147 14a3 AA130000 		.4byte	0x13aa
 7148 14a7 38       		.byte	0x38
 7149 14a8 17       		.uleb128 0x17
 7150 14a9 73333100 		.ascii	"s31\000"
 7151 14ad 12       		.byte	0x12
 7152 14ae 6A01     		.2byte	0x16a
 7153 14b0 AA130000 		.4byte	0x13aa
 7154 14b4 3C       		.byte	0x3c
 7155 14b5 17       		.uleb128 0x17
 7156 14b6 723400   		.ascii	"r4\000"
 7157 14b9 12       		.byte	0x12
 7158 14ba 6C01     		.2byte	0x16c
 7159 14bc AA130000 		.4byte	0x13aa
 7160 14c0 40       		.byte	0x40
 7161 14c1 17       		.uleb128 0x17
 7162 14c2 723500   		.ascii	"r5\000"
 7163 14c5 12       		.byte	0x12
 7164 14c6 6D01     		.2byte	0x16d
 7165 14c8 AA130000 		.4byte	0x13aa
 7166 14cc 44       		.byte	0x44
 7167 14cd 17       		.uleb128 0x17
 7168 14ce 723600   		.ascii	"r6\000"
 7169 14d1 12       		.byte	0x12
 7170 14d2 6E01     		.2byte	0x16e
 7171 14d4 AA130000 		.4byte	0x13aa
 7172 14d8 48       		.byte	0x48
 7173 14d9 17       		.uleb128 0x17
 7174 14da 723700   		.ascii	"r7\000"
ARM GAS  /tmp/ccxvl19p.s 			page 127


 7175 14dd 12       		.byte	0x12
 7176 14de 6F01     		.2byte	0x16f
 7177 14e0 AA130000 		.4byte	0x13aa
 7178 14e4 4C       		.byte	0x4c
 7179 14e5 17       		.uleb128 0x17
 7180 14e6 723800   		.ascii	"r8\000"
 7181 14e9 12       		.byte	0x12
 7182 14ea 7001     		.2byte	0x170
 7183 14ec AA130000 		.4byte	0x13aa
 7184 14f0 50       		.byte	0x50
 7185 14f1 17       		.uleb128 0x17
 7186 14f2 723900   		.ascii	"r9\000"
 7187 14f5 12       		.byte	0x12
 7188 14f6 7101     		.2byte	0x171
 7189 14f8 AA130000 		.4byte	0x13aa
 7190 14fc 54       		.byte	0x54
 7191 14fd 17       		.uleb128 0x17
 7192 14fe 72313000 		.ascii	"r10\000"
 7193 1502 12       		.byte	0x12
 7194 1503 7201     		.2byte	0x172
 7195 1505 AA130000 		.4byte	0x13aa
 7196 1509 58       		.byte	0x58
 7197 150a 17       		.uleb128 0x17
 7198 150b 72313100 		.ascii	"r11\000"
 7199 150f 12       		.byte	0x12
 7200 1510 7301     		.2byte	0x173
 7201 1512 AA130000 		.4byte	0x13aa
 7202 1516 5C       		.byte	0x5c
 7203 1517 17       		.uleb128 0x17
 7204 1518 6C7200   		.ascii	"lr\000"
 7205 151b 12       		.byte	0x12
 7206 151c 7401     		.2byte	0x174
 7207 151e AA130000 		.4byte	0x13aa
 7208 1522 60       		.byte	0x60
 7209 1523 00       		.byte	0
 7210 1524 0E       		.uleb128 0xe
 7211 1525 04       		.byte	0x4
 7212 1526 D8130000 		.4byte	0x13d8
 7213 152a 1E       		.uleb128 0x1e
 7214 152b 60       		.byte	0x60
 7215 152c 13       		.byte	0x13
 7216 152d F501     		.2byte	0x1f5
 7217 152f 36160000 		.4byte	0x1636
 7218 1533 17       		.uleb128 0x17
 7219 1534 43523100 		.ascii	"CR1\000"
 7220 1538 13       		.byte	0x13
 7221 1539 F601     		.2byte	0x1f6
 7222 153b 0B090000 		.4byte	0x90b
 7223 153f 00       		.byte	0
 7224 1540 17       		.uleb128 0x17
 7225 1541 43523200 		.ascii	"CR2\000"
 7226 1545 13       		.byte	0x13
 7227 1546 F701     		.2byte	0x1f7
 7228 1548 0B090000 		.4byte	0x90b
 7229 154c 04       		.byte	0x4
 7230 154d 16       		.uleb128 0x16
 7231 154e 871B0000 		.4byte	.LASF271
ARM GAS  /tmp/ccxvl19p.s 			page 128


 7232 1552 13       		.byte	0x13
 7233 1553 F801     		.2byte	0x1f8
 7234 1555 0B090000 		.4byte	0x90b
 7235 1559 08       		.byte	0x8
 7236 155a 16       		.uleb128 0x16
 7237 155b 22090000 		.4byte	.LASF272
 7238 155f 13       		.byte	0x13
 7239 1560 F901     		.2byte	0x1f9
 7240 1562 0B090000 		.4byte	0x90b
 7241 1566 0C       		.byte	0xc
 7242 1567 17       		.uleb128 0x17
 7243 1568 535200   		.ascii	"SR\000"
 7244 156b 13       		.byte	0x13
 7245 156c FA01     		.2byte	0x1fa
 7246 156e 0B090000 		.4byte	0x90b
 7247 1572 10       		.byte	0x10
 7248 1573 17       		.uleb128 0x17
 7249 1574 45475200 		.ascii	"EGR\000"
 7250 1578 13       		.byte	0x13
 7251 1579 FB01     		.2byte	0x1fb
 7252 157b 0B090000 		.4byte	0x90b
 7253 157f 14       		.byte	0x14
 7254 1580 16       		.uleb128 0x16
 7255 1581 FD1F0000 		.4byte	.LASF273
 7256 1585 13       		.byte	0x13
 7257 1586 FC01     		.2byte	0x1fc
 7258 1588 0B090000 		.4byte	0x90b
 7259 158c 18       		.byte	0x18
 7260 158d 16       		.uleb128 0x16
 7261 158e 03200000 		.4byte	.LASF274
 7262 1592 13       		.byte	0x13
 7263 1593 FD01     		.2byte	0x1fd
 7264 1595 0B090000 		.4byte	0x90b
 7265 1599 1C       		.byte	0x1c
 7266 159a 16       		.uleb128 0x16
 7267 159b 99060000 		.4byte	.LASF275
 7268 159f 13       		.byte	0x13
 7269 15a0 FE01     		.2byte	0x1fe
 7270 15a2 0B090000 		.4byte	0x90b
 7271 15a6 20       		.byte	0x20
 7272 15a7 17       		.uleb128 0x17
 7273 15a8 434E5400 		.ascii	"CNT\000"
 7274 15ac 13       		.byte	0x13
 7275 15ad FF01     		.2byte	0x1ff
 7276 15af 0B090000 		.4byte	0x90b
 7277 15b3 24       		.byte	0x24
 7278 15b4 17       		.uleb128 0x17
 7279 15b5 50534300 		.ascii	"PSC\000"
 7280 15b9 13       		.byte	0x13
 7281 15ba 0002     		.2byte	0x200
 7282 15bc 0B090000 		.4byte	0x90b
 7283 15c0 28       		.byte	0x28
 7284 15c1 17       		.uleb128 0x17
 7285 15c2 41525200 		.ascii	"ARR\000"
 7286 15c6 13       		.byte	0x13
 7287 15c7 0102     		.2byte	0x201
 7288 15c9 0B090000 		.4byte	0x90b
ARM GAS  /tmp/ccxvl19p.s 			page 129


 7289 15cd 2C       		.byte	0x2c
 7290 15ce 17       		.uleb128 0x17
 7291 15cf 52435200 		.ascii	"RCR\000"
 7292 15d3 13       		.byte	0x13
 7293 15d4 0202     		.2byte	0x202
 7294 15d6 0B090000 		.4byte	0x90b
 7295 15da 30       		.byte	0x30
 7296 15db 17       		.uleb128 0x17
 7297 15dc 43435200 		.ascii	"CCR\000"
 7298 15e0 13       		.byte	0x13
 7299 15e1 0302     		.2byte	0x203
 7300 15e3 E3100000 		.4byte	0x10e3
 7301 15e7 34       		.byte	0x34
 7302 15e8 16       		.uleb128 0x16
 7303 15e9 B0010000 		.4byte	.LASF276
 7304 15ed 13       		.byte	0x13
 7305 15ee 0402     		.2byte	0x204
 7306 15f0 0B090000 		.4byte	0x90b
 7307 15f4 44       		.byte	0x44
 7308 15f5 17       		.uleb128 0x17
 7309 15f6 44435200 		.ascii	"DCR\000"
 7310 15fa 13       		.byte	0x13
 7311 15fb 0502     		.2byte	0x205
 7312 15fd 0B090000 		.4byte	0x90b
 7313 1601 48       		.byte	0x48
 7314 1602 16       		.uleb128 0x16
 7315 1603 50130000 		.4byte	.LASF277
 7316 1607 13       		.byte	0x13
 7317 1608 0602     		.2byte	0x206
 7318 160a 0B090000 		.4byte	0x90b
 7319 160e 4C       		.byte	0x4c
 7320 160f 17       		.uleb128 0x17
 7321 1610 4F5200   		.ascii	"OR\000"
 7322 1613 13       		.byte	0x13
 7323 1614 0702     		.2byte	0x207
 7324 1616 0B090000 		.4byte	0x90b
 7325 161a 50       		.byte	0x50
 7326 161b 16       		.uleb128 0x16
 7327 161c 09200000 		.4byte	.LASF278
 7328 1620 13       		.byte	0x13
 7329 1621 0802     		.2byte	0x208
 7330 1623 0B090000 		.4byte	0x90b
 7331 1627 54       		.byte	0x54
 7332 1628 16       		.uleb128 0x16
 7333 1629 1E110000 		.4byte	.LASF279
 7334 162d 13       		.byte	0x13
 7335 162e 0902     		.2byte	0x209
 7336 1630 CE100000 		.4byte	0x10ce
 7337 1634 58       		.byte	0x58
 7338 1635 00       		.byte	0
 7339 1636 06       		.uleb128 0x6
 7340 1637 D61A0000 		.4byte	.LASF280
 7341 163b 13       		.byte	0x13
 7342 163c 0A02     		.2byte	0x20a
 7343 163e 2A150000 		.4byte	0x152a
 7344 1642 0B       		.uleb128 0xb
 7345 1643 04       		.byte	0x4
ARM GAS  /tmp/ccxvl19p.s 			page 130


 7346 1644 14       		.byte	0x14
 7347 1645 38       		.byte	0x38
 7348 1646 57160000 		.4byte	0x1657
 7349 164a 0C       		.uleb128 0xc
 7350 164b 2C1B0000 		.4byte	.LASF281
 7351 164f 14       		.byte	0x14
 7352 1650 3C       		.byte	0x3c
 7353 1651 1B090000 		.4byte	0x91b
 7354 1655 00       		.byte	0
 7355 1656 00       		.byte	0
 7356 1657 04       		.uleb128 0x4
 7357 1658 01050000 		.4byte	.LASF282
 7358 165c 14       		.byte	0x14
 7359 165d 3D       		.byte	0x3d
 7360 165e 42160000 		.4byte	0x1642
 7361 1662 07       		.uleb128 0x7
 7362 1663 04       		.byte	0x4
 7363 1664 0C       		.byte	0xc
 7364 1665 C6       		.byte	0xc6
 7365 1666 C4160000 		.4byte	0x16c4
 7366 166a 08       		.uleb128 0x8
 7367 166b 0D0E0000 		.4byte	.LASF283
 7368 166f 0C       		.byte	0xc
 7369 1670 CD       		.byte	0xcd
 7370 1671 52090000 		.4byte	0x952
 7371 1675 08       		.uleb128 0x8
 7372 1676 680C0000 		.4byte	.LASF284
 7373 167a 0C       		.byte	0xc
 7374 167b D4       		.byte	0xd4
 7375 167c 52090000 		.4byte	0x952
 7376 1680 08       		.uleb128 0x8
 7377 1681 C7180000 		.4byte	.LASF285
 7378 1685 0C       		.byte	0xc
 7379 1686 DB       		.byte	0xdb
 7380 1687 4C010000 		.4byte	0x14c
 7381 168b 08       		.uleb128 0x8
 7382 168c 01150000 		.4byte	.LASF286
 7383 1690 0C       		.byte	0xc
 7384 1691 E2       		.byte	0xe2
 7385 1692 C4160000 		.4byte	0x16c4
 7386 1696 08       		.uleb128 0x8
 7387 1697 1D000000 		.4byte	.LASF287
 7388 169b 0C       		.byte	0xc
 7389 169c E7       		.byte	0xe7
 7390 169d 52090000 		.4byte	0x952
 7391 16a1 08       		.uleb128 0x8
 7392 16a2 C6000000 		.4byte	.LASF288
 7393 16a6 0C       		.byte	0xc
 7394 16a7 F0       		.byte	0xf0
 7395 16a8 EF160000 		.4byte	0x16ef
 7396 16ac 08       		.uleb128 0x8
 7397 16ad F9180000 		.4byte	.LASF289
 7398 16b1 0C       		.byte	0xc
 7399 16b2 F9       		.byte	0xf9
 7400 16b3 26170000 		.4byte	0x1726
 7401 16b7 22       		.uleb128 0x22
 7402 16b8 B61B0000 		.4byte	.LASF290
ARM GAS  /tmp/ccxvl19p.s 			page 131


 7403 16bc 0C       		.byte	0xc
 7404 16bd 0101     		.2byte	0x101
 7405 16bf 5D090000 		.4byte	0x95d
 7406 16c3 00       		.byte	0
 7407 16c4 0E       		.uleb128 0xe
 7408 16c5 04       		.byte	0x4
 7409 16c6 720A0000 		.4byte	0xa72
 7410 16ca 10       		.uleb128 0x10
 7411 16cb B7130000 		.4byte	.LASF291
 7412 16cf 0C       		.byte	0xc
 7413 16d0 15       		.byte	0x15
 7414 16d1 34       		.byte	0x34
 7415 16d2 EF160000 		.4byte	0x16ef
 7416 16d6 0C       		.uleb128 0xc
 7417 16d7 ED1A0000 		.4byte	.LASF144
 7418 16db 15       		.byte	0x15
 7419 16dc 35       		.byte	0x35
 7420 16dd A70A0000 		.4byte	0xaa7
 7421 16e1 00       		.byte	0
 7422 16e2 11       		.uleb128 0x11
 7423 16e3 636E7400 		.ascii	"cnt\000"
 7424 16e7 15       		.byte	0x15
 7425 16e8 37       		.byte	0x37
 7426 16e9 73090000 		.4byte	0x973
 7427 16ed 08       		.byte	0x8
 7428 16ee 00       		.byte	0
 7429 16ef 0E       		.uleb128 0xe
 7430 16f0 04       		.byte	0x4
 7431 16f1 CA160000 		.4byte	0x16ca
 7432 16f5 10       		.uleb128 0x10
 7433 16f6 6D0A0000 		.4byte	.LASF292
 7434 16fa 10       		.byte	0x10
 7435 16fb 16       		.byte	0x16
 7436 16fc 39       		.byte	0x39
 7437 16fd 26170000 		.4byte	0x1726
 7438 1701 0C       		.uleb128 0xc
 7439 1702 ED1A0000 		.4byte	.LASF144
 7440 1706 16       		.byte	0x16
 7441 1707 3A       		.byte	0x3a
 7442 1708 A70A0000 		.4byte	0xaa7
 7443 170c 00       		.byte	0
 7444 170d 0C       		.uleb128 0xc
 7445 170e 6B0B0000 		.4byte	.LASF293
 7446 1712 16       		.byte	0x16
 7447 1713 3C       		.byte	0x3c
 7448 1714 7D0A0000 		.4byte	0xa7d
 7449 1718 08       		.byte	0x8
 7450 1719 0C       		.uleb128 0xc
 7451 171a 01020000 		.4byte	.LASF162
 7452 171e 16       		.byte	0x16
 7453 171f 3E       		.byte	0x3e
 7454 1720 71180000 		.4byte	0x1871
 7455 1724 0C       		.byte	0xc
 7456 1725 00       		.byte	0
 7457 1726 0E       		.uleb128 0xe
 7458 1727 04       		.byte	0x4
 7459 1728 F5160000 		.4byte	0x16f5
ARM GAS  /tmp/ccxvl19p.s 			page 132


 7460 172c 0E       		.uleb128 0xe
 7461 172d 04       		.byte	0x4
 7462 172e B5130000 		.4byte	0x13b5
 7463 1732 0E       		.uleb128 0xe
 7464 1733 04       		.byte	0x4
 7465 1734 5A0B0000 		.4byte	0xb5a
 7466 1738 23       		.uleb128 0x23
 7467 1739 636800   		.ascii	"ch\000"
 7468 173c 0C       		.byte	0xc
 7469 173d C701     		.2byte	0x1c7
 7470 173f 270C0000 		.4byte	0xc27
 7471 1743 09       		.uleb128 0x9
 7472 1744 B5130000 		.4byte	0x13b5
 7473 1748 4E170000 		.4byte	0x174e
 7474 174c 24       		.uleb128 0x24
 7475 174d 00       		.byte	0
 7476 174e 1C       		.uleb128 0x1c
 7477 174f 530B0000 		.4byte	.LASF294
 7478 1753 17       		.byte	0x17
 7479 1754 1701     		.2byte	0x117
 7480 1756 43170000 		.4byte	0x1743
 7481 175a 0B       		.uleb128 0xb
 7482 175b 16       		.byte	0x16
 7483 175c 18       		.byte	0x18
 7484 175d 34       		.byte	0x34
 7485 175e 3B180000 		.4byte	0x183b
 7486 1762 0C       		.uleb128 0xc
 7487 1763 CE0B0000 		.4byte	.LASF295
 7488 1767 18       		.byte	0x18
 7489 1768 35       		.byte	0x35
 7490 1769 3B180000 		.4byte	0x183b
 7491 176d 00       		.byte	0
 7492 176e 0C       		.uleb128 0xc
 7493 176f 3A060000 		.4byte	.LASF296
 7494 1773 18       		.byte	0x18
 7495 1774 36       		.byte	0x36
 7496 1775 D0080000 		.4byte	0x8d0
 7497 1779 04       		.byte	0x4
 7498 177a 0C       		.uleb128 0xc
 7499 177b 4E0B0000 		.4byte	.LASF297
 7500 177f 18       		.byte	0x18
 7501 1780 37       		.byte	0x37
 7502 1781 D0080000 		.4byte	0x8d0
 7503 1785 05       		.byte	0x5
 7504 1786 0C       		.uleb128 0xc
 7505 1787 E31F0000 		.4byte	.LASF298
 7506 178b 18       		.byte	0x18
 7507 178c 38       		.byte	0x38
 7508 178d E0080000 		.4byte	0x8e0
 7509 1791 06       		.byte	0x6
 7510 1792 0C       		.uleb128 0xc
 7511 1793 4E0D0000 		.4byte	.LASF299
 7512 1797 18       		.byte	0x18
 7513 1798 39       		.byte	0x39
 7514 1799 D0080000 		.4byte	0x8d0
 7515 179d 08       		.byte	0x8
 7516 179e 0C       		.uleb128 0xc
ARM GAS  /tmp/ccxvl19p.s 			page 133


 7517 179f B5030000 		.4byte	.LASF300
 7518 17a3 18       		.byte	0x18
 7519 17a4 3A       		.byte	0x3a
 7520 17a5 D0080000 		.4byte	0x8d0
 7521 17a9 09       		.byte	0x9
 7522 17aa 0C       		.uleb128 0xc
 7523 17ab 8C1B0000 		.4byte	.LASF301
 7524 17af 18       		.byte	0x18
 7525 17b0 3B       		.byte	0x3b
 7526 17b1 D0080000 		.4byte	0x8d0
 7527 17b5 0A       		.byte	0xa
 7528 17b6 0C       		.uleb128 0xc
 7529 17b7 B60E0000 		.4byte	.LASF302
 7530 17bb 18       		.byte	0x18
 7531 17bc 3C       		.byte	0x3c
 7532 17bd D0080000 		.4byte	0x8d0
 7533 17c1 0B       		.byte	0xb
 7534 17c2 0C       		.uleb128 0xc
 7535 17c3 7D120000 		.4byte	.LASF303
 7536 17c7 18       		.byte	0x18
 7537 17c8 3D       		.byte	0x3d
 7538 17c9 D0080000 		.4byte	0x8d0
 7539 17cd 0C       		.byte	0xc
 7540 17ce 0C       		.uleb128 0xc
 7541 17cf BA1A0000 		.4byte	.LASF304
 7542 17d3 18       		.byte	0x18
 7543 17d4 3E       		.byte	0x3e
 7544 17d5 D0080000 		.4byte	0x8d0
 7545 17d9 0D       		.byte	0xd
 7546 17da 0C       		.uleb128 0xc
 7547 17db 2D160000 		.4byte	.LASF305
 7548 17df 18       		.byte	0x18
 7549 17e0 3F       		.byte	0x3f
 7550 17e1 D0080000 		.4byte	0x8d0
 7551 17e5 0E       		.byte	0xe
 7552 17e6 0C       		.uleb128 0xc
 7553 17e7 BD1C0000 		.4byte	.LASF306
 7554 17eb 18       		.byte	0x18
 7555 17ec 40       		.byte	0x40
 7556 17ed D0080000 		.4byte	0x8d0
 7557 17f1 0F       		.byte	0xf
 7558 17f2 0C       		.uleb128 0xc
 7559 17f3 4F150000 		.4byte	.LASF307
 7560 17f7 18       		.byte	0x18
 7561 17f8 41       		.byte	0x41
 7562 17f9 D0080000 		.4byte	0x8d0
 7563 17fd 10       		.byte	0x10
 7564 17fe 0C       		.uleb128 0xc
 7565 17ff 00180000 		.4byte	.LASF308
 7566 1803 18       		.byte	0x18
 7567 1804 42       		.byte	0x42
 7568 1805 D0080000 		.4byte	0x8d0
 7569 1809 11       		.byte	0x11
 7570 180a 0C       		.uleb128 0xc
 7571 180b D5130000 		.4byte	.LASF309
 7572 180f 18       		.byte	0x18
 7573 1810 43       		.byte	0x43
ARM GAS  /tmp/ccxvl19p.s 			page 134


 7574 1811 D0080000 		.4byte	0x8d0
 7575 1815 12       		.byte	0x12
 7576 1816 0C       		.uleb128 0xc
 7577 1817 B7120000 		.4byte	.LASF310
 7578 181b 18       		.byte	0x18
 7579 181c 44       		.byte	0x44
 7580 181d D0080000 		.4byte	0x8d0
 7581 1821 13       		.byte	0x13
 7582 1822 0C       		.uleb128 0xc
 7583 1823 8F150000 		.4byte	.LASF311
 7584 1827 18       		.byte	0x18
 7585 1828 45       		.byte	0x45
 7586 1829 D0080000 		.4byte	0x8d0
 7587 182d 14       		.byte	0x14
 7588 182e 0C       		.uleb128 0xc
 7589 182f 63120000 		.4byte	.LASF312
 7590 1833 18       		.byte	0x18
 7591 1834 46       		.byte	0x46
 7592 1835 D0080000 		.4byte	0x8d0
 7593 1839 15       		.byte	0x15
 7594 183a 00       		.byte	0
 7595 183b 09       		.uleb128 0x9
 7596 183c 54010000 		.4byte	0x154
 7597 1840 4B180000 		.4byte	0x184b
 7598 1844 0A       		.uleb128 0xa
 7599 1845 25000000 		.4byte	0x25
 7600 1849 03       		.byte	0x3
 7601 184a 00       		.byte	0
 7602 184b 04       		.uleb128 0x4
 7603 184c CB190000 		.4byte	.LASF313
 7604 1850 18       		.byte	0x18
 7605 1851 47       		.byte	0x47
 7606 1852 5A170000 		.4byte	0x175a
 7607 1856 0F       		.uleb128 0xf
 7608 1857 4B180000 		.4byte	0x184b
 7609 185b 1D       		.uleb128 0x1d
 7610 185c C2090000 		.4byte	.LASF314
 7611 1860 18       		.byte	0x18
 7612 1861 6C       		.byte	0x6c
 7613 1862 56180000 		.4byte	0x1856
 7614 1866 04       		.uleb128 0x4
 7615 1867 1E1A0000 		.4byte	.LASF315
 7616 186b 16       		.byte	0x16
 7617 186c 34       		.byte	0x34
 7618 186d F5160000 		.4byte	0x16f5
 7619 1871 0E       		.uleb128 0xe
 7620 1872 04       		.byte	0x4
 7621 1873 66180000 		.4byte	0x1866
 7622 1877 04       		.uleb128 0x4
 7623 1878 130A0000 		.4byte	.LASF316
 7624 187c 19       		.byte	0x19
 7625 187d 34       		.byte	0x34
 7626 187e 82180000 		.4byte	0x1882
 7627 1882 10       		.uleb128 0x10
 7628 1883 79080000 		.4byte	.LASF317
 7629 1887 14       		.byte	0x14
 7630 1888 19       		.byte	0x19
ARM GAS  /tmp/ccxvl19p.s 			page 135


 7631 1889 39       		.byte	0x39
 7632 188a CB180000 		.4byte	0x18cb
 7633 188e 0C       		.uleb128 0xc
 7634 188f 01020000 		.4byte	.LASF162
 7635 1893 19       		.byte	0x19
 7636 1894 3A       		.byte	0x3a
 7637 1895 CB180000 		.4byte	0x18cb
 7638 1899 00       		.byte	0
 7639 189a 0C       		.uleb128 0xc
 7640 189b EE0C0000 		.4byte	.LASF318
 7641 189f 19       		.byte	0x19
 7642 18a0 3D       		.byte	0x3d
 7643 18a1 7D0A0000 		.4byte	0xa7d
 7644 18a5 04       		.byte	0x4
 7645 18a6 0C       		.uleb128 0xc
 7646 18a7 EB1F0000 		.4byte	.LASF319
 7647 18ab 19       		.byte	0x19
 7648 18ac 3F       		.byte	0x3f
 7649 18ad 5D090000 		.4byte	0x95d
 7650 18b1 08       		.byte	0x8
 7651 18b2 0C       		.uleb128 0xc
 7652 18b3 1B210000 		.4byte	.LASF151
 7653 18b7 19       		.byte	0x19
 7654 18b8 41       		.byte	0x41
 7655 18b9 68090000 		.4byte	0x968
 7656 18bd 0C       		.byte	0xc
 7657 18be 0C       		.uleb128 0xc
 7658 18bf 80190000 		.4byte	.LASF320
 7659 18c3 19       		.byte	0x19
 7660 18c4 43       		.byte	0x43
 7661 18c5 68090000 		.4byte	0x968
 7662 18c9 10       		.byte	0x10
 7663 18ca 00       		.byte	0
 7664 18cb 0E       		.uleb128 0xe
 7665 18cc 04       		.byte	0x4
 7666 18cd 77180000 		.4byte	0x1877
 7667 18d1 10       		.uleb128 0x10
 7668 18d2 BD1B0000 		.4byte	.LASF321
 7669 18d6 04       		.byte	0x4
 7670 18d7 19       		.byte	0x19
 7671 18d8 4A       		.byte	0x4a
 7672 18d9 EA180000 		.4byte	0x18ea
 7673 18dd 0C       		.uleb128 0xc
 7674 18de 01020000 		.4byte	.LASF162
 7675 18e2 19       		.byte	0x19
 7676 18e3 4B       		.byte	0x4b
 7677 18e4 CB180000 		.4byte	0x18cb
 7678 18e8 00       		.byte	0
 7679 18e9 00       		.byte	0
 7680 18ea 04       		.uleb128 0x4
 7681 18eb AA110000 		.4byte	.LASF322
 7682 18ef 19       		.byte	0x19
 7683 18f0 4E       		.byte	0x4e
 7684 18f1 D1180000 		.4byte	0x18d1
 7685 18f5 02       		.uleb128 0x2
 7686 18f6 01       		.byte	0x1
 7687 18f7 02       		.byte	0x2
ARM GAS  /tmp/ccxvl19p.s 			page 136


 7688 18f8 CD000000 		.4byte	.LASF323
 7689 18fc 04       		.uleb128 0x4
 7690 18fd 13010000 		.4byte	.LASF324
 7691 1901 1A       		.byte	0x1a
 7692 1902 47       		.byte	0x47
 7693 1903 07190000 		.4byte	0x1907
 7694 1907 0E       		.uleb128 0xe
 7695 1908 04       		.byte	0x4
 7696 1909 0D190000 		.4byte	0x190d
 7697 190d 18       		.uleb128 0x18
 7698 190e 4C010000 		.4byte	0x14c
 7699 1912 21190000 		.4byte	0x1921
 7700 1916 19       		.uleb128 0x19
 7701 1917 33000000 		.4byte	0x33
 7702 191b 19       		.uleb128 0x19
 7703 191c 25000000 		.4byte	0x25
 7704 1920 00       		.byte	0
 7705 1921 0B       		.uleb128 0xb
 7706 1922 08       		.byte	0x8
 7707 1923 1A       		.byte	0x1a
 7708 1924 51       		.byte	0x51
 7709 1925 42190000 		.4byte	0x1942
 7710 1929 0C       		.uleb128 0xc
 7711 192a 331B0000 		.4byte	.LASF325
 7712 192e 1A       		.byte	0x1a
 7713 192f 55       		.byte	0x55
 7714 1930 42190000 		.4byte	0x1942
 7715 1934 00       		.byte	0
 7716 1935 0C       		.uleb128 0xc
 7717 1936 FA140000 		.4byte	.LASF326
 7718 193a 1A       		.byte	0x1a
 7719 193b 59       		.byte	0x59
 7720 193c 42190000 		.4byte	0x1942
 7721 1940 04       		.byte	0x4
 7722 1941 00       		.byte	0
 7723 1942 0E       		.uleb128 0xe
 7724 1943 04       		.byte	0x4
 7725 1944 D0080000 		.4byte	0x8d0
 7726 1948 04       		.uleb128 0x4
 7727 1949 D30D0000 		.4byte	.LASF327
 7728 194d 1A       		.byte	0x1a
 7729 194e 5A       		.byte	0x5a
 7730 194f 21190000 		.4byte	0x1921
 7731 1953 1D       		.uleb128 0x1d
 7732 1954 12000000 		.4byte	.LASF328
 7733 1958 1A       		.byte	0x1a
 7734 1959 65       		.byte	0x65
 7735 195a 48190000 		.4byte	0x1948
 7736 195e 10       		.uleb128 0x10
 7737 195f 07090000 		.4byte	.LASF329
 7738 1963 04       		.byte	0x4
 7739 1964 1B       		.byte	0x1b
 7740 1965 38       		.byte	0x38
 7741 1966 77190000 		.4byte	0x1977
 7742 196a 0C       		.uleb128 0xc
 7743 196b 01020000 		.4byte	.LASF162
 7744 196f 1B       		.byte	0x1b
ARM GAS  /tmp/ccxvl19p.s 			page 137


 7745 1970 39       		.byte	0x39
 7746 1971 77190000 		.4byte	0x1977
 7747 1975 00       		.byte	0
 7748 1976 00       		.byte	0
 7749 1977 0E       		.uleb128 0xe
 7750 1978 04       		.byte	0x4
 7751 1979 5E190000 		.4byte	0x195e
 7752 197d 0B       		.uleb128 0xb
 7753 197e 10       		.byte	0x10
 7754 197f 1B       		.byte	0x1b
 7755 1980 40       		.byte	0x40
 7756 1981 B6190000 		.4byte	0x19b6
 7757 1985 0C       		.uleb128 0xc
 7758 1986 01020000 		.4byte	.LASF162
 7759 198a 1B       		.byte	0x1b
 7760 198b 41       		.byte	0x41
 7761 198c 77190000 		.4byte	0x1977
 7762 1990 00       		.byte	0
 7763 1991 0C       		.uleb128 0xc
 7764 1992 2D0C0000 		.4byte	.LASF330
 7765 1996 1B       		.byte	0x1b
 7766 1997 42       		.byte	0x42
 7767 1998 33000000 		.4byte	0x33
 7768 199c 04       		.byte	0x4
 7769 199d 0C       		.uleb128 0xc
 7770 199e AF060000 		.4byte	.LASF331
 7771 19a2 1B       		.byte	0x1b
 7772 19a3 44       		.byte	0x44
 7773 19a4 25000000 		.4byte	0x25
 7774 19a8 08       		.byte	0x8
 7775 19a9 0C       		.uleb128 0xc
 7776 19aa F3000000 		.4byte	.LASF332
 7777 19ae 1B       		.byte	0x1b
 7778 19af 45       		.byte	0x45
 7779 19b0 FC180000 		.4byte	0x18fc
 7780 19b4 0C       		.byte	0xc
 7781 19b5 00       		.byte	0
 7782 19b6 04       		.uleb128 0x4
 7783 19b7 78200000 		.4byte	.LASF333
 7784 19bb 1B       		.byte	0x1b
 7785 19bc 47       		.byte	0x47
 7786 19bd 7D190000 		.4byte	0x197d
 7787 19c1 10       		.uleb128 0x10
 7788 19c2 0C020000 		.4byte	.LASF334
 7789 19c6 10       		.byte	0x10
 7790 19c7 1C       		.byte	0x1c
 7791 19c8 A9       		.byte	0xa9
 7792 19c9 F2190000 		.4byte	0x19f2
 7793 19cd 0C       		.uleb128 0xc
 7794 19ce 01020000 		.4byte	.LASF162
 7795 19d2 1C       		.byte	0x1c
 7796 19d3 AD       		.byte	0xad
 7797 19d4 F2190000 		.4byte	0x19f2
 7798 19d8 00       		.byte	0
 7799 19d9 0C       		.uleb128 0xc
 7800 19da 6F040000 		.4byte	.LASF152
 7801 19de 1C       		.byte	0x1c
ARM GAS  /tmp/ccxvl19p.s 			page 138


 7802 19df B1       		.byte	0xb1
 7803 19e0 7E090000 		.4byte	0x97e
 7804 19e4 04       		.byte	0x4
 7805 19e5 0C       		.uleb128 0xc
 7806 19e6 D6100000 		.4byte	.LASF148
 7807 19ea 1C       		.byte	0x1c
 7808 19eb B3       		.byte	0xb3
 7809 19ec 2D080000 		.4byte	0x82d
 7810 19f0 08       		.byte	0x8
 7811 19f1 00       		.byte	0
 7812 19f2 0E       		.uleb128 0xe
 7813 19f3 04       		.byte	0x4
 7814 19f4 C1190000 		.4byte	0x19c1
 7815 19f8 04       		.uleb128 0x4
 7816 19f9 DF130000 		.4byte	.LASF335
 7817 19fd 1C       		.byte	0x1c
 7818 19fe B7       		.byte	0xb7
 7819 19ff C1190000 		.4byte	0x19c1
 7820 1a03 10       		.uleb128 0x10
 7821 1a04 F3050000 		.4byte	.LASF336
 7822 1a08 04       		.byte	0x4
 7823 1a09 1C       		.byte	0x1c
 7824 1a0a BC       		.byte	0xbc
 7825 1a0b 1C1A0000 		.4byte	0x1a1c
 7826 1a0f 0C       		.uleb128 0xc
 7827 1a10 01020000 		.4byte	.LASF162
 7828 1a14 1C       		.byte	0x1c
 7829 1a15 BD       		.byte	0xbd
 7830 1a16 1C1A0000 		.4byte	0x1a1c
 7831 1a1a 00       		.byte	0
 7832 1a1b 00       		.byte	0
 7833 1a1c 0E       		.uleb128 0xe
 7834 1a1d 04       		.byte	0x4
 7835 1a1e F8190000 		.4byte	0x19f8
 7836 1a22 04       		.uleb128 0x4
 7837 1a23 D00E0000 		.4byte	.LASF337
 7838 1a27 1C       		.byte	0x1c
 7839 1a28 BE       		.byte	0xbe
 7840 1a29 031A0000 		.4byte	0x1a03
 7841 1a2d 15       		.uleb128 0x15
 7842 1a2e E7010000 		.4byte	.LASF338
 7843 1a32 48       		.byte	0x48
 7844 1a33 1C       		.byte	0x1c
 7845 1a34 3E01     		.2byte	0x13e
 7846 1a36 B01A0000 		.4byte	0x1ab0
 7847 1a3a 17       		.uleb128 0x17
 7848 1a3b 6D747800 		.ascii	"mtx\000"
 7849 1a3f 1C       		.byte	0x1c
 7850 1a40 4301     		.2byte	0x143
 7851 1a42 66180000 		.4byte	0x1866
 7852 1a46 00       		.byte	0
 7853 1a47 16       		.uleb128 0x16
 7854 1a48 FB0A0000 		.4byte	.LASF339
 7855 1a4c 1C       		.byte	0x1c
 7856 1a4d 4A01     		.2byte	0x14a
 7857 1a4f 221A0000 		.4byte	0x1a22
 7858 1a53 10       		.byte	0x10
ARM GAS  /tmp/ccxvl19p.s 			page 139


 7859 1a54 16       		.uleb128 0x16
 7860 1a55 DC180000 		.4byte	.LASF340
 7861 1a59 1C       		.byte	0x1c
 7862 1a5a 4E01     		.2byte	0x14e
 7863 1a5c B6190000 		.4byte	0x19b6
 7864 1a60 14       		.byte	0x14
 7865 1a61 16       		.uleb128 0x16
 7866 1a62 3D150000 		.4byte	.LASF341
 7867 1a66 1C       		.byte	0x1c
 7868 1a67 5301     		.2byte	0x153
 7869 1a69 221A0000 		.4byte	0x1a22
 7870 1a6d 24       		.byte	0x24
 7871 1a6e 16       		.uleb128 0x16
 7872 1a6f AA1C0000 		.4byte	.LASF342
 7873 1a73 1C       		.byte	0x1c
 7874 1a74 5901     		.2byte	0x159
 7875 1a76 221A0000 		.4byte	0x1a22
 7876 1a7a 28       		.byte	0x28
 7877 1a7b 16       		.uleb128 0x16
 7878 1a7c 120B0000 		.4byte	.LASF343
 7879 1a80 1C       		.byte	0x1c
 7880 1a81 5D01     		.2byte	0x15d
 7881 1a83 B6190000 		.4byte	0x19b6
 7882 1a87 2C       		.byte	0x2c
 7883 1a88 16       		.uleb128 0x16
 7884 1a89 B11A0000 		.4byte	.LASF344
 7885 1a8d 1C       		.byte	0x1c
 7886 1a8e 6301     		.2byte	0x163
 7887 1a90 221A0000 		.4byte	0x1a22
 7888 1a94 3C       		.byte	0x3c
 7889 1a95 16       		.uleb128 0x16
 7890 1a96 C30C0000 		.4byte	.LASF345
 7891 1a9a 1C       		.byte	0x1c
 7892 1a9b 6901     		.2byte	0x169
 7893 1a9d 221A0000 		.4byte	0x1a22
 7894 1aa1 40       		.byte	0x40
 7895 1aa2 16       		.uleb128 0x16
 7896 1aa3 7E0E0000 		.4byte	.LASF346
 7897 1aa7 1C       		.byte	0x1c
 7898 1aa8 6F01     		.2byte	0x16f
 7899 1aaa 221A0000 		.4byte	0x1a22
 7900 1aae 44       		.byte	0x44
 7901 1aaf 00       		.byte	0
 7902 1ab0 06       		.uleb128 0x6
 7903 1ab1 FC000000 		.4byte	.LASF347
 7904 1ab5 1C       		.byte	0x1c
 7905 1ab6 7101     		.2byte	0x171
 7906 1ab8 2D1A0000 		.4byte	0x1a2d
 7907 1abc 1C       		.uleb128 0x1c
 7908 1abd E5180000 		.4byte	.LASF348
 7909 1ac1 1C       		.byte	0x1c
 7910 1ac2 7C01     		.2byte	0x17c
 7911 1ac4 B01A0000 		.4byte	0x1ab0
 7912 1ac8 1E       		.uleb128 0x1e
 7913 1ac9 0C       		.byte	0xc
 7914 1aca 1D       		.byte	0x1d
 7915 1acb A201     		.2byte	0x1a2
ARM GAS  /tmp/ccxvl19p.s 			page 140


 7916 1acd 201B0000 		.4byte	0x1b20
 7917 1ad1 16       		.uleb128 0x16
 7918 1ad2 3B200000 		.4byte	.LASF349
 7919 1ad6 1D       		.byte	0x1d
 7920 1ad7 A301     		.2byte	0x1a3
 7921 1ad9 201B0000 		.4byte	0x1b20
 7922 1add 00       		.byte	0
 7923 1ade 16       		.uleb128 0x16
 7924 1adf E70D0000 		.4byte	.LASF350
 7925 1ae3 1D       		.byte	0x1d
 7926 1ae4 A401     		.2byte	0x1a4
 7927 1ae6 261B0000 		.4byte	0x1b26
 7928 1aea 04       		.byte	0x4
 7929 1aeb 16       		.uleb128 0x16
 7930 1aec 42200000 		.4byte	.LASF351
 7931 1af0 1D       		.byte	0x1d
 7932 1af1 A801     		.2byte	0x1a8
 7933 1af3 D0080000 		.4byte	0x8d0
 7934 1af7 08       		.byte	0x8
 7935 1af8 16       		.uleb128 0x16
 7936 1af9 3A0B0000 		.4byte	.LASF352
 7937 1afd 1D       		.byte	0x1d
 7938 1afe AA01     		.2byte	0x1aa
 7939 1b00 D0080000 		.4byte	0x8d0
 7940 1b04 09       		.byte	0x9
 7941 1b05 16       		.uleb128 0x16
 7942 1b06 141A0000 		.4byte	.LASF353
 7943 1b0a 1D       		.byte	0x1d
 7944 1b0b AC01     		.2byte	0x1ac
 7945 1b0d D0080000 		.4byte	0x8d0
 7946 1b11 0A       		.byte	0xa
 7947 1b12 16       		.uleb128 0x16
 7948 1b13 5A030000 		.4byte	.LASF354
 7949 1b17 1D       		.byte	0x1d
 7950 1b18 AD01     		.2byte	0x1ad
 7951 1b1a D0080000 		.4byte	0x8d0
 7952 1b1e 0B       		.byte	0xb
 7953 1b1f 00       		.byte	0
 7954 1b20 0E       		.uleb128 0xe
 7955 1b21 04       		.byte	0x4
 7956 1b22 B2100000 		.4byte	0x10b2
 7957 1b26 0E       		.uleb128 0xe
 7958 1b27 04       		.byte	0x4
 7959 1b28 0B090000 		.4byte	0x90b
 7960 1b2c 06       		.uleb128 0x6
 7961 1b2d 29100000 		.4byte	.LASF355
 7962 1b31 1D       		.byte	0x1d
 7963 1b32 AE01     		.2byte	0x1ae
 7964 1b34 C81A0000 		.4byte	0x1ac8
 7965 1b38 0F       		.uleb128 0xf
 7966 1b39 2C1B0000 		.4byte	0x1b2c
 7967 1b3d 09       		.uleb128 0x9
 7968 1b3e 381B0000 		.4byte	0x1b38
 7969 1b42 4D1B0000 		.4byte	0x1b4d
 7970 1b46 0A       		.uleb128 0xa
 7971 1b47 25000000 		.4byte	0x25
 7972 1b4b 0F       		.byte	0xf
ARM GAS  /tmp/ccxvl19p.s 			page 141


 7973 1b4c 00       		.byte	0
 7974 1b4d 0F       		.uleb128 0xf
 7975 1b4e 3D1B0000 		.4byte	0x1b3d
 7976 1b52 1C       		.uleb128 0x1c
 7977 1b53 6C170000 		.4byte	.LASF356
 7978 1b57 1D       		.byte	0x1d
 7979 1b58 9002     		.2byte	0x290
 7980 1b5a 4D1B0000 		.4byte	0x1b4d
 7981 1b5e 18       		.uleb128 0x18
 7982 1b5f 33000000 		.4byte	0x33
 7983 1b63 771B0000 		.4byte	0x1b77
 7984 1b67 19       		.uleb128 0x19
 7985 1b68 4C010000 		.4byte	0x14c
 7986 1b6c 19       		.uleb128 0x19
 7987 1b6d 771B0000 		.4byte	0x1b77
 7988 1b71 19       		.uleb128 0x19
 7989 1b72 33000000 		.4byte	0x33
 7990 1b76 00       		.byte	0
 7991 1b77 0E       		.uleb128 0xe
 7992 1b78 04       		.byte	0x4
 7993 1b79 DB080000 		.4byte	0x8db
 7994 1b7d 0E       		.uleb128 0xe
 7995 1b7e 04       		.byte	0x4
 7996 1b7f 5E1B0000 		.4byte	0x1b5e
 7997 1b83 18       		.uleb128 0x18
 7998 1b84 33000000 		.4byte	0x33
 7999 1b88 9C1B0000 		.4byte	0x1b9c
 8000 1b8c 19       		.uleb128 0x19
 8001 1b8d 4C010000 		.4byte	0x14c
 8002 1b91 19       		.uleb128 0x19
 8003 1b92 42190000 		.4byte	0x1942
 8004 1b96 19       		.uleb128 0x19
 8005 1b97 33000000 		.4byte	0x33
 8006 1b9b 00       		.byte	0
 8007 1b9c 0E       		.uleb128 0xe
 8008 1b9d 04       		.byte	0x4
 8009 1b9e 831B0000 		.4byte	0x1b83
 8010 1ba2 18       		.uleb128 0x18
 8011 1ba3 52090000 		.4byte	0x952
 8012 1ba7 B61B0000 		.4byte	0x1bb6
 8013 1bab 19       		.uleb128 0x19
 8014 1bac 4C010000 		.4byte	0x14c
 8015 1bb0 19       		.uleb128 0x19
 8016 1bb1 D0080000 		.4byte	0x8d0
 8017 1bb5 00       		.byte	0
 8018 1bb6 0E       		.uleb128 0xe
 8019 1bb7 04       		.byte	0x4
 8020 1bb8 A21B0000 		.4byte	0x1ba2
 8021 1bbc 18       		.uleb128 0x18
 8022 1bbd 52090000 		.4byte	0x952
 8023 1bc1 CB1B0000 		.4byte	0x1bcb
 8024 1bc5 19       		.uleb128 0x19
 8025 1bc6 4C010000 		.4byte	0x14c
 8026 1bca 00       		.byte	0
 8027 1bcb 0E       		.uleb128 0xe
 8028 1bcc 04       		.byte	0x4
 8029 1bcd BC1B0000 		.4byte	0x1bbc
ARM GAS  /tmp/ccxvl19p.s 			page 142


 8030 1bd1 18       		.uleb128 0x18
 8031 1bd2 52090000 		.4byte	0x952
 8032 1bd6 EA1B0000 		.4byte	0x1bea
 8033 1bda 19       		.uleb128 0x19
 8034 1bdb 4C010000 		.4byte	0x14c
 8035 1bdf 19       		.uleb128 0x19
 8036 1be0 D0080000 		.4byte	0x8d0
 8037 1be4 19       		.uleb128 0x19
 8038 1be5 8B0C0000 		.4byte	0xc8b
 8039 1be9 00       		.byte	0
 8040 1bea 0E       		.uleb128 0xe
 8041 1beb 04       		.byte	0x4
 8042 1bec D11B0000 		.4byte	0x1bd1
 8043 1bf0 18       		.uleb128 0x18
 8044 1bf1 52090000 		.4byte	0x952
 8045 1bf5 041C0000 		.4byte	0x1c04
 8046 1bf9 19       		.uleb128 0x19
 8047 1bfa 4C010000 		.4byte	0x14c
 8048 1bfe 19       		.uleb128 0x19
 8049 1bff 8B0C0000 		.4byte	0xc8b
 8050 1c03 00       		.byte	0
 8051 1c04 0E       		.uleb128 0xe
 8052 1c05 04       		.byte	0x4
 8053 1c06 F01B0000 		.4byte	0x1bf0
 8054 1c0a 18       		.uleb128 0x18
 8055 1c0b 33000000 		.4byte	0x33
 8056 1c0f 281C0000 		.4byte	0x1c28
 8057 1c13 19       		.uleb128 0x19
 8058 1c14 4C010000 		.4byte	0x14c
 8059 1c18 19       		.uleb128 0x19
 8060 1c19 771B0000 		.4byte	0x1b77
 8061 1c1d 19       		.uleb128 0x19
 8062 1c1e 33000000 		.4byte	0x33
 8063 1c22 19       		.uleb128 0x19
 8064 1c23 8B0C0000 		.4byte	0xc8b
 8065 1c27 00       		.byte	0
 8066 1c28 0E       		.uleb128 0xe
 8067 1c29 04       		.byte	0x4
 8068 1c2a 0A1C0000 		.4byte	0x1c0a
 8069 1c2e 18       		.uleb128 0x18
 8070 1c2f 33000000 		.4byte	0x33
 8071 1c33 4C1C0000 		.4byte	0x1c4c
 8072 1c37 19       		.uleb128 0x19
 8073 1c38 4C010000 		.4byte	0x14c
 8074 1c3c 19       		.uleb128 0x19
 8075 1c3d 42190000 		.4byte	0x1942
 8076 1c41 19       		.uleb128 0x19
 8077 1c42 33000000 		.4byte	0x33
 8078 1c46 19       		.uleb128 0x19
 8079 1c47 8B0C0000 		.4byte	0xc8b
 8080 1c4b 00       		.byte	0
 8081 1c4c 0E       		.uleb128 0xe
 8082 1c4d 04       		.byte	0x4
 8083 1c4e 2E1C0000 		.4byte	0x1c2e
 8084 1c52 18       		.uleb128 0x18
 8085 1c53 52090000 		.4byte	0x952
 8086 1c57 6B1C0000 		.4byte	0x1c6b
ARM GAS  /tmp/ccxvl19p.s 			page 143


 8087 1c5b 19       		.uleb128 0x19
 8088 1c5c 4C010000 		.4byte	0x14c
 8089 1c60 19       		.uleb128 0x19
 8090 1c61 25000000 		.4byte	0x25
 8091 1c65 19       		.uleb128 0x19
 8092 1c66 4C010000 		.4byte	0x14c
 8093 1c6a 00       		.byte	0
 8094 1c6b 0E       		.uleb128 0xe
 8095 1c6c 04       		.byte	0x4
 8096 1c6d 521C0000 		.4byte	0x1c52
 8097 1c71 04       		.uleb128 0x4
 8098 1c72 AA0C0000 		.4byte	.LASF357
 8099 1c76 1E       		.byte	0x1e
 8100 1c77 3A       		.byte	0x3a
 8101 1c78 7C1C0000 		.4byte	0x1c7c
 8102 1c7c 10       		.uleb128 0x10
 8103 1c7d A20E0000 		.4byte	.LASF358
 8104 1c81 24       		.byte	0x24
 8105 1c82 1E       		.byte	0x1e
 8106 1c83 4B       		.byte	0x4b
 8107 1c84 E91C0000 		.4byte	0x1ce9
 8108 1c88 0C       		.uleb128 0xc
 8109 1c89 CC040000 		.4byte	.LASF359
 8110 1c8d 1E       		.byte	0x1e
 8111 1c8e 4C       		.byte	0x4c
 8112 1c8f A70A0000 		.4byte	0xaa7
 8113 1c93 00       		.byte	0
 8114 1c94 0C       		.uleb128 0xc
 8115 1c95 A0140000 		.4byte	.LASF360
 8116 1c99 1E       		.byte	0x1e
 8117 1c9a 4D       		.byte	0x4d
 8118 1c9b 3E000000 		.4byte	0x3e
 8119 1c9f 08       		.byte	0x8
 8120 1ca0 0C       		.uleb128 0xc
 8121 1ca1 3D0F0000 		.4byte	.LASF361
 8122 1ca5 1E       		.byte	0x1e
 8123 1ca6 4E       		.byte	0x4e
 8124 1ca7 42190000 		.4byte	0x1942
 8125 1cab 0C       		.byte	0xc
 8126 1cac 0C       		.uleb128 0xc
 8127 1cad 3E040000 		.4byte	.LASF362
 8128 1cb1 1E       		.byte	0x1e
 8129 1cb2 4F       		.byte	0x4f
 8130 1cb3 42190000 		.4byte	0x1942
 8131 1cb7 10       		.byte	0x10
 8132 1cb8 0C       		.uleb128 0xc
 8133 1cb9 E5150000 		.4byte	.LASF363
 8134 1cbd 1E       		.byte	0x1e
 8135 1cbe 51       		.byte	0x51
 8136 1cbf 42190000 		.4byte	0x1942
 8137 1cc3 14       		.byte	0x14
 8138 1cc4 0C       		.uleb128 0xc
 8139 1cc5 07150000 		.4byte	.LASF364
 8140 1cc9 1E       		.byte	0x1e
 8141 1cca 52       		.byte	0x52
 8142 1ccb 42190000 		.4byte	0x1942
 8143 1ccf 18       		.byte	0x18
ARM GAS  /tmp/ccxvl19p.s 			page 144


 8144 1cd0 0C       		.uleb128 0xc
 8145 1cd1 F0180000 		.4byte	.LASF365
 8146 1cd5 1E       		.byte	0x1e
 8147 1cd6 53       		.byte	0x53
 8148 1cd7 E91C0000 		.4byte	0x1ce9
 8149 1cdb 1C       		.byte	0x1c
 8150 1cdc 0C       		.uleb128 0xc
 8151 1cdd A8160000 		.4byte	.LASF366
 8152 1ce1 1E       		.byte	0x1e
 8153 1ce2 54       		.byte	0x54
 8154 1ce3 4C010000 		.4byte	0x14c
 8155 1ce7 20       		.byte	0x20
 8156 1ce8 00       		.byte	0
 8157 1ce9 04       		.uleb128 0x4
 8158 1cea 05040000 		.4byte	.LASF367
 8159 1cee 1E       		.byte	0x1e
 8160 1cef 41       		.byte	0x41
 8161 1cf0 F41C0000 		.4byte	0x1cf4
 8162 1cf4 0E       		.uleb128 0xe
 8163 1cf5 04       		.byte	0x4
 8164 1cf6 FA1C0000 		.4byte	0x1cfa
 8165 1cfa 1B       		.uleb128 0x1b
 8166 1cfb 051D0000 		.4byte	0x1d05
 8167 1cff 19       		.uleb128 0x19
 8168 1d00 051D0000 		.4byte	0x1d05
 8169 1d04 00       		.byte	0
 8170 1d05 0E       		.uleb128 0xe
 8171 1d06 04       		.byte	0x4
 8172 1d07 711C0000 		.4byte	0x1c71
 8173 1d0b 04       		.uleb128 0x4
 8174 1d0c 12050000 		.4byte	.LASF368
 8175 1d10 1E       		.byte	0x1e
 8176 1d11 61       		.byte	0x61
 8177 1d12 711C0000 		.4byte	0x1c71
 8178 1d16 04       		.uleb128 0x4
 8179 1d17 A1200000 		.4byte	.LASF369
 8180 1d1b 1E       		.byte	0x1e
 8181 1d1c 6D       		.byte	0x6d
 8182 1d1d 711C0000 		.4byte	0x1c71
 8183 1d21 04       		.uleb128 0x4
 8184 1d22 CC160000 		.4byte	.LASF370
 8185 1d26 1F       		.byte	0x1f
 8186 1d27 94       		.byte	0x94
 8187 1d28 490B0000 		.4byte	0xb49
 8188 1d2c 0B       		.uleb128 0xb
 8189 1d2d 10       		.byte	0x10
 8190 1d2e 1F       		.byte	0x1f
 8191 1d2f 9A       		.byte	0x9a
 8192 1d30 581D0000 		.4byte	0x1d58
 8193 1d34 0C       		.uleb128 0xc
 8194 1d35 9E070000 		.4byte	.LASF371
 8195 1d39 1F       		.byte	0x1f
 8196 1d3a 9F       		.byte	0x9f
 8197 1d3b A70A0000 		.4byte	0xaa7
 8198 1d3f 00       		.byte	0
 8199 1d40 11       		.uleb128 0x11
 8200 1d41 636200   		.ascii	"cb\000"
ARM GAS  /tmp/ccxvl19p.s 			page 145


 8201 1d44 1F       		.byte	0x1f
 8202 1d45 A5       		.byte	0xa5
 8203 1d46 211D0000 		.4byte	0x1d21
 8204 1d4a 08       		.byte	0x8
 8205 1d4b 11       		.uleb128 0x11
 8206 1d4c 61726700 		.ascii	"arg\000"
 8207 1d50 1F       		.byte	0x1f
 8208 1d51 A9       		.byte	0xa9
 8209 1d52 4C010000 		.4byte	0x14c
 8210 1d56 0C       		.byte	0xc
 8211 1d57 00       		.byte	0
 8212 1d58 04       		.uleb128 0x4
 8213 1d59 0A080000 		.4byte	.LASF372
 8214 1d5d 1F       		.byte	0x1f
 8215 1d5e AB       		.byte	0xab
 8216 1d5f 2C1D0000 		.4byte	0x1d2c
 8217 1d63 04       		.uleb128 0x4
 8218 1d64 87190000 		.4byte	.LASF373
 8219 1d68 20       		.byte	0x20
 8220 1d69 CC       		.byte	0xcc
 8221 1d6a 00090000 		.4byte	0x900
 8222 1d6e 09       		.uleb128 0x9
 8223 1d6f 581D0000 		.4byte	0x1d58
 8224 1d73 7E1D0000 		.4byte	0x1d7e
 8225 1d77 0A       		.uleb128 0xa
 8226 1d78 25000000 		.4byte	0x25
 8227 1d7c 0F       		.byte	0xf
 8228 1d7d 00       		.byte	0
 8229 1d7e 1C       		.uleb128 0x1c
 8230 1d7f 64190000 		.4byte	.LASF374
 8231 1d83 20       		.byte	0x20
 8232 1d84 EB01     		.2byte	0x1eb
 8233 1d86 6E1D0000 		.4byte	0x1d6e
 8234 1d8a 25       		.uleb128 0x25
 8235 1d8b 07       		.byte	0x7
 8236 1d8c 01       		.byte	0x1
 8237 1d8d 63000000 		.4byte	0x63
 8238 1d91 21       		.byte	0x21
 8239 1d92 46       		.byte	0x46
 8240 1d93 BC1D0000 		.4byte	0x1dbc
 8241 1d97 26       		.uleb128 0x26
 8242 1d98 AC070000 		.4byte	.LASF375
 8243 1d9c 00       		.byte	0
 8244 1d9d 26       		.uleb128 0x26
 8245 1d9e 41120000 		.4byte	.LASF376
 8246 1da2 01       		.byte	0x1
 8247 1da3 26       		.uleb128 0x26
 8248 1da4 B31C0000 		.4byte	.LASF377
 8249 1da8 02       		.byte	0x2
 8250 1da9 26       		.uleb128 0x26
 8251 1daa F90F0000 		.4byte	.LASF378
 8252 1dae 03       		.byte	0x3
 8253 1daf 26       		.uleb128 0x26
 8254 1db0 B2050000 		.4byte	.LASF379
 8255 1db4 04       		.byte	0x4
 8256 1db5 26       		.uleb128 0x26
 8257 1db6 D10F0000 		.4byte	.LASF380
ARM GAS  /tmp/ccxvl19p.s 			page 146


 8258 1dba 05       		.byte	0x5
 8259 1dbb 00       		.byte	0
 8260 1dbc 04       		.uleb128 0x4
 8261 1dbd 0F040000 		.4byte	.LASF381
 8262 1dc1 21       		.byte	0x21
 8263 1dc2 4D       		.byte	0x4d
 8264 1dc3 8A1D0000 		.4byte	0x1d8a
 8265 1dc7 04       		.uleb128 0x4
 8266 1dc8 7F0D0000 		.4byte	.LASF382
 8267 1dcc 21       		.byte	0x21
 8268 1dcd 52       		.byte	0x52
 8269 1dce D21D0000 		.4byte	0x1dd2
 8270 1dd2 10       		.uleb128 0x10
 8271 1dd3 D3140000 		.4byte	.LASF383
 8272 1dd7 34       		.byte	0x34
 8273 1dd8 21       		.byte	0x21
 8274 1dd9 9F       		.byte	0x9f
 8275 1dda 571E0000 		.4byte	0x1e57
 8276 1dde 0C       		.uleb128 0xc
 8277 1ddf 0C130000 		.4byte	.LASF150
 8278 1de3 21       		.byte	0x21
 8279 1de4 A3       		.byte	0xa3
 8280 1de5 BC1D0000 		.4byte	0x1dbc
 8281 1de9 00       		.byte	0
 8282 1dea 0C       		.uleb128 0xc
 8283 1deb 3B180000 		.4byte	.LASF384
 8284 1def 21       		.byte	0x21
 8285 1df0 A7       		.byte	0xa7
 8286 1df1 CD1F0000 		.4byte	0x1fcd
 8287 1df5 04       		.byte	0x4
 8288 1df6 0C       		.uleb128 0xc
 8289 1df7 A2010000 		.4byte	.LASF385
 8290 1dfb 21       		.byte	0x21
 8291 1dfc AB       		.byte	0xab
 8292 1dfd D31F0000 		.4byte	0x1fd3
 8293 1e01 08       		.byte	0x8
 8294 1e02 0C       		.uleb128 0xc
 8295 1e03 B0150000 		.4byte	.LASF386
 8296 1e07 21       		.byte	0x21
 8297 1e08 AF       		.byte	0xaf
 8298 1e09 33000000 		.4byte	0x33
 8299 1e0d 0C       		.byte	0xc
 8300 1e0e 0C       		.uleb128 0xc
 8301 1e0f AC1A0000 		.4byte	.LASF387
 8302 1e13 21       		.byte	0x21
 8303 1e14 B3       		.byte	0xb3
 8304 1e15 D91F0000 		.4byte	0x1fd9
 8305 1e19 10       		.byte	0x10
 8306 1e1a 0C       		.uleb128 0xc
 8307 1e1b 17060000 		.4byte	.LASF388
 8308 1e1f 21       		.byte	0x21
 8309 1e20 B8       		.byte	0xb8
 8310 1e21 720A0000 		.4byte	0xa72
 8311 1e25 14       		.byte	0x14
 8312 1e26 0C       		.uleb128 0xc
 8313 1e27 480B0000 		.4byte	.LASF389
 8314 1e2b 21       		.byte	0x21
ARM GAS  /tmp/ccxvl19p.s 			page 147


 8315 1e2c BE       		.byte	0xbe
 8316 1e2d 66180000 		.4byte	0x1866
 8317 1e31 18       		.byte	0x18
 8318 1e32 11       		.uleb128 0x11
 8319 1e33 61646300 		.ascii	"adc\000"
 8320 1e37 21       		.byte	0x21
 8321 1e38 C4       		.byte	0xc4
 8322 1e39 DF1F0000 		.4byte	0x1fdf
 8323 1e3d 28       		.byte	0x28
 8324 1e3e 0C       		.uleb128 0xc
 8325 1e3f 94090000 		.4byte	.LASF390
 8326 1e43 21       		.byte	0x21
 8327 1e44 C4       		.byte	0xc4
 8328 1e45 E51F0000 		.4byte	0x1fe5
 8329 1e49 2C       		.byte	0x2c
 8330 1e4a 0C       		.uleb128 0xc
 8331 1e4b B5140000 		.4byte	.LASF391
 8332 1e4f 21       		.byte	0x21
 8333 1e50 C4       		.byte	0xc4
 8334 1e51 00090000 		.4byte	0x900
 8335 1e55 30       		.byte	0x30
 8336 1e56 00       		.byte	0
 8337 1e57 04       		.uleb128 0x4
 8338 1e58 970D0000 		.4byte	.LASF392
 8339 1e5c 21       		.byte	0x21
 8340 1e5d 57       		.byte	0x57
 8341 1e5e 671E0000 		.4byte	0x1e67
 8342 1e62 0F       		.uleb128 0xf
 8343 1e63 571E0000 		.4byte	0x1e57
 8344 1e67 10       		.uleb128 0x10
 8345 1e68 08060000 		.4byte	.LASF393
 8346 1e6c 01       		.byte	0x1
 8347 1e6d 21       		.byte	0x21
 8348 1e6e 97       		.byte	0x97
 8349 1e6f 801E0000 		.4byte	0x1e80
 8350 1e73 0C       		.uleb128 0xc
 8351 1e74 27090000 		.4byte	.LASF394
 8352 1e78 21       		.byte	0x21
 8353 1e79 99       		.byte	0x99
 8354 1e7a F5180000 		.4byte	0x18f5
 8355 1e7e 00       		.byte	0
 8356 1e7f 00       		.byte	0
 8357 1e80 04       		.uleb128 0x4
 8358 1e81 20050000 		.4byte	.LASF395
 8359 1e85 21       		.byte	0x21
 8360 1e86 61       		.byte	0x61
 8361 1e87 901E0000 		.4byte	0x1e90
 8362 1e8b 0F       		.uleb128 0xf
 8363 1e8c 801E0000 		.4byte	0x1e80
 8364 1e90 10       		.uleb128 0x10
 8365 1e91 85100000 		.4byte	.LASF396
 8366 1e95 2C       		.byte	0x2c
 8367 1e96 21       		.byte	0x21
 8368 1e97 7F       		.byte	0x7f
 8369 1e98 391F0000 		.4byte	0x1f39
 8370 1e9c 0C       		.uleb128 0xc
 8371 1e9d 391D0000 		.4byte	.LASF397
ARM GAS  /tmp/ccxvl19p.s 			page 148


 8372 1ea1 21       		.byte	0x21
 8373 1ea2 83       		.byte	0x83
 8374 1ea3 F5180000 		.4byte	0x18f5
 8375 1ea7 00       		.byte	0
 8376 1ea8 0C       		.uleb128 0xc
 8377 1ea9 6B0E0000 		.4byte	.LASF398
 8378 1ead 21       		.byte	0x21
 8379 1eae 87       		.byte	0x87
 8380 1eaf 451F0000 		.4byte	0x1f45
 8381 1eb3 02       		.byte	0x2
 8382 1eb4 0C       		.uleb128 0xc
 8383 1eb5 53080000 		.4byte	.LASF399
 8384 1eb9 21       		.byte	0x21
 8385 1eba 8B       		.byte	0x8b
 8386 1ebb 8A1F0000 		.4byte	0x1f8a
 8387 1ebf 04       		.byte	0x4
 8388 1ec0 0C       		.uleb128 0xc
 8389 1ec1 661F0000 		.4byte	.LASF400
 8390 1ec5 21       		.byte	0x21
 8391 1ec6 8F       		.byte	0x8f
 8392 1ec7 AC1F0000 		.4byte	0x1fac
 8393 1ecb 08       		.byte	0x8
 8394 1ecc 11       		.uleb128 0x11
 8395 1ecd 63723100 		.ascii	"cr1\000"
 8396 1ed1 21       		.byte	0x21
 8397 1ed2 91       		.byte	0x91
 8398 1ed3 00090000 		.4byte	0x900
 8399 1ed7 0C       		.byte	0xc
 8400 1ed8 11       		.uleb128 0x11
 8401 1ed9 63723200 		.ascii	"cr2\000"
 8402 1edd 21       		.byte	0x21
 8403 1ede 91       		.byte	0x91
 8404 1edf 00090000 		.4byte	0x900
 8405 1ee3 10       		.byte	0x10
 8406 1ee4 0C       		.uleb128 0xc
 8407 1ee5 08140000 		.4byte	.LASF401
 8408 1ee9 21       		.byte	0x21
 8409 1eea 91       		.byte	0x91
 8410 1eeb 00090000 		.4byte	0x900
 8411 1eef 14       		.byte	0x14
 8412 1ef0 0C       		.uleb128 0xc
 8413 1ef1 0E140000 		.4byte	.LASF402
 8414 1ef5 21       		.byte	0x21
 8415 1ef6 91       		.byte	0x91
 8416 1ef7 00090000 		.4byte	0x900
 8417 1efb 18       		.byte	0x18
 8418 1efc 11       		.uleb128 0x11
 8419 1efd 68747200 		.ascii	"htr\000"
 8420 1f01 21       		.byte	0x21
 8421 1f02 91       		.byte	0x91
 8422 1f03 E0080000 		.4byte	0x8e0
 8423 1f07 1C       		.byte	0x1c
 8424 1f08 11       		.uleb128 0x11
 8425 1f09 6C747200 		.ascii	"ltr\000"
 8426 1f0d 21       		.byte	0x21
 8427 1f0e 91       		.byte	0x91
 8428 1f0f E0080000 		.4byte	0x8e0
ARM GAS  /tmp/ccxvl19p.s 			page 149


 8429 1f13 1E       		.byte	0x1e
 8430 1f14 0C       		.uleb128 0xc
 8431 1f15 0E010000 		.4byte	.LASF403
 8432 1f19 21       		.byte	0x21
 8433 1f1a 91       		.byte	0x91
 8434 1f1b 00090000 		.4byte	0x900
 8435 1f1f 20       		.byte	0x20
 8436 1f20 0C       		.uleb128 0xc
 8437 1f21 1C200000 		.4byte	.LASF404
 8438 1f25 21       		.byte	0x21
 8439 1f26 91       		.byte	0x91
 8440 1f27 00090000 		.4byte	0x900
 8441 1f2b 24       		.byte	0x24
 8442 1f2c 0C       		.uleb128 0xc
 8443 1f2d 21200000 		.4byte	.LASF405
 8444 1f31 21       		.byte	0x21
 8445 1f32 91       		.byte	0x91
 8446 1f33 00090000 		.4byte	0x900
 8447 1f37 28       		.byte	0x28
 8448 1f38 00       		.byte	0
 8449 1f39 06       		.uleb128 0x6
 8450 1f3a 310F0000 		.4byte	.LASF406
 8451 1f3e 22       		.byte	0x22
 8452 1f3f 2E01     		.2byte	0x12e
 8453 1f41 E0080000 		.4byte	0x8e0
 8454 1f45 06       		.uleb128 0x6
 8455 1f46 93180000 		.4byte	.LASF407
 8456 1f4a 22       		.byte	0x22
 8457 1f4b 3301     		.2byte	0x133
 8458 1f4d E0080000 		.4byte	0x8e0
 8459 1f51 27       		.uleb128 0x27
 8460 1f52 07       		.byte	0x7
 8461 1f53 01       		.byte	0x1
 8462 1f54 63000000 		.4byte	0x63
 8463 1f58 22       		.byte	0x22
 8464 1f59 3A01     		.2byte	0x13a
 8465 1f5b 721F0000 		.4byte	0x1f72
 8466 1f5f 26       		.uleb128 0x26
 8467 1f60 DB0C0000 		.4byte	.LASF408
 8468 1f64 00       		.byte	0
 8469 1f65 26       		.uleb128 0x26
 8470 1f66 4C020000 		.4byte	.LASF409
 8471 1f6a 01       		.byte	0x1
 8472 1f6b 26       		.uleb128 0x26
 8473 1f6c 42080000 		.4byte	.LASF410
 8474 1f70 02       		.byte	0x2
 8475 1f71 00       		.byte	0
 8476 1f72 06       		.uleb128 0x6
 8477 1f73 B51D0000 		.4byte	.LASF411
 8478 1f77 22       		.byte	0x22
 8479 1f78 3E01     		.2byte	0x13e
 8480 1f7a 511F0000 		.4byte	0x1f51
 8481 1f7e 1C       		.uleb128 0x1c
 8482 1f7f AA140000 		.4byte	.LASF412
 8483 1f83 22       		.byte	0x22
 8484 1f84 C701     		.2byte	0x1c7
 8485 1f86 C71D0000 		.4byte	0x1dc7
ARM GAS  /tmp/ccxvl19p.s 			page 150


 8486 1f8a 04       		.uleb128 0x4
 8487 1f8b A3170000 		.4byte	.LASF413
 8488 1f8f 21       		.byte	0x21
 8489 1f90 6C       		.byte	0x6c
 8490 1f91 951F0000 		.4byte	0x1f95
 8491 1f95 0E       		.uleb128 0xe
 8492 1f96 04       		.byte	0x4
 8493 1f97 9B1F0000 		.4byte	0x1f9b
 8494 1f9b 1B       		.uleb128 0x1b
 8495 1f9c A61F0000 		.4byte	0x1fa6
 8496 1fa0 19       		.uleb128 0x19
 8497 1fa1 A61F0000 		.4byte	0x1fa6
 8498 1fa5 00       		.byte	0
 8499 1fa6 0E       		.uleb128 0xe
 8500 1fa7 04       		.byte	0x4
 8501 1fa8 C71D0000 		.4byte	0x1dc7
 8502 1fac 04       		.uleb128 0x4
 8503 1fad D8120000 		.4byte	.LASF414
 8504 1fb1 21       		.byte	0x21
 8505 1fb2 75       		.byte	0x75
 8506 1fb3 B71F0000 		.4byte	0x1fb7
 8507 1fb7 0E       		.uleb128 0xe
 8508 1fb8 04       		.byte	0x4
 8509 1fb9 BD1F0000 		.4byte	0x1fbd
 8510 1fbd 1B       		.uleb128 0x1b
 8511 1fbe CD1F0000 		.4byte	0x1fcd
 8512 1fc2 19       		.uleb128 0x19
 8513 1fc3 A61F0000 		.4byte	0x1fa6
 8514 1fc7 19       		.uleb128 0x19
 8515 1fc8 721F0000 		.4byte	0x1f72
 8516 1fcc 00       		.byte	0
 8517 1fcd 0E       		.uleb128 0xe
 8518 1fce 04       		.byte	0x4
 8519 1fcf 621E0000 		.4byte	0x1e62
 8520 1fd3 0E       		.uleb128 0xe
 8521 1fd4 04       		.byte	0x4
 8522 1fd5 391F0000 		.4byte	0x1f39
 8523 1fd9 0E       		.uleb128 0xe
 8524 1fda 04       		.byte	0x4
 8525 1fdb 8B1E0000 		.4byte	0x1e8b
 8526 1fdf 0E       		.uleb128 0xe
 8527 1fe0 04       		.byte	0x4
 8528 1fe1 040E0000 		.4byte	0xe04
 8529 1fe5 0E       		.uleb128 0xe
 8530 1fe6 04       		.byte	0x4
 8531 1fe7 381B0000 		.4byte	0x1b38
 8532 1feb 25       		.uleb128 0x25
 8533 1fec 07       		.byte	0x7
 8534 1fed 01       		.byte	0x1
 8535 1fee 63000000 		.4byte	0x63
 8536 1ff2 23       		.byte	0x23
 8537 1ff3 66       		.byte	0x66
 8538 1ff4 17200000 		.4byte	0x2017
 8539 1ff8 26       		.uleb128 0x26
 8540 1ff9 FA0B0000 		.4byte	.LASF415
 8541 1ffd 00       		.byte	0
 8542 1ffe 26       		.uleb128 0x26
ARM GAS  /tmp/ccxvl19p.s 			page 151


 8543 1fff A7000000 		.4byte	.LASF416
 8544 2003 01       		.byte	0x1
 8545 2004 26       		.uleb128 0x26
 8546 2005 37000000 		.4byte	.LASF417
 8547 2009 02       		.byte	0x2
 8548 200a 26       		.uleb128 0x26
 8549 200b C9150000 		.4byte	.LASF418
 8550 200f 03       		.byte	0x3
 8551 2010 26       		.uleb128 0x26
 8552 2011 E7080000 		.4byte	.LASF419
 8553 2015 04       		.byte	0x4
 8554 2016 00       		.byte	0
 8555 2017 04       		.uleb128 0x4
 8556 2018 4C050000 		.4byte	.LASF420
 8557 201c 23       		.byte	0x23
 8558 201d 6C       		.byte	0x6c
 8559 201e EB1F0000 		.4byte	0x1feb
 8560 2022 04       		.uleb128 0x4
 8561 2023 7B030000 		.4byte	.LASF421
 8562 2027 24       		.byte	0x24
 8563 2028 C2       		.byte	0xc2
 8564 2029 2D200000 		.4byte	0x202d
 8565 202d 15       		.uleb128 0x15
 8566 202e 7B030000 		.4byte	.LASF421
 8567 2032 2C       		.byte	0x2c
 8568 2033 24       		.byte	0x24
 8569 2034 4801     		.2byte	0x148
 8570 2036 B0200000 		.4byte	0x20b0
 8571 203a 16       		.uleb128 0x16
 8572 203b 0C130000 		.4byte	.LASF150
 8573 203f 24       		.byte	0x24
 8574 2040 4C01     		.2byte	0x14c
 8575 2042 17200000 		.4byte	0x2017
 8576 2046 00       		.byte	0
 8577 2047 16       		.uleb128 0x16
 8578 2048 3B180000 		.4byte	.LASF384
 8579 204c 24       		.byte	0x24
 8580 204d 5001     		.2byte	0x150
 8581 204f 1C210000 		.4byte	0x211c
 8582 2053 04       		.byte	0x4
 8583 2054 16       		.uleb128 0x16
 8584 2055 88080000 		.4byte	.LASF422
 8585 2059 24       		.byte	0x24
 8586 205a 5401     		.2byte	0x154
 8587 205c A70A0000 		.4byte	0xaa7
 8588 2060 08       		.byte	0x8
 8589 2061 16       		.uleb128 0x16
 8590 2062 9B1A0000 		.4byte	.LASF423
 8591 2066 24       		.byte	0x24
 8592 2067 5801     		.2byte	0x158
 8593 2069 A70A0000 		.4byte	0xaa7
 8594 206d 10       		.byte	0x10
 8595 206e 16       		.uleb128 0x16
 8596 206f 90080000 		.4byte	.LASF424
 8597 2073 24       		.byte	0x24
 8598 2074 8C01     		.2byte	0x18c
 8599 2076 B0200000 		.4byte	0x20b0
ARM GAS  /tmp/ccxvl19p.s 			page 152


 8600 207a 18       		.byte	0x18
 8601 207b 16       		.uleb128 0x16
 8602 207c E21A0000 		.4byte	.LASF425
 8603 2080 24       		.byte	0x24
 8604 2081 9201     		.2byte	0x192
 8605 2083 B0200000 		.4byte	0x20b0
 8606 2087 1C       		.byte	0x1c
 8607 2088 16       		.uleb128 0x16
 8608 2089 661F0000 		.4byte	.LASF400
 8609 208d 24       		.byte	0x24
 8610 208e 9601     		.2byte	0x196
 8611 2090 B0200000 		.4byte	0x20b0
 8612 2094 20       		.byte	0x20
 8613 2095 16       		.uleb128 0x16
 8614 2096 EC090000 		.4byte	.LASF426
 8615 209a 24       		.byte	0x24
 8616 209b 9B01     		.2byte	0x19b
 8617 209d B0200000 		.4byte	0x20b0
 8618 20a1 24       		.byte	0x24
 8619 20a2 17       		.uleb128 0x17
 8620 20a3 63616E00 		.ascii	"can\000"
 8621 20a7 24       		.byte	0x24
 8622 20a8 A201     		.2byte	0x1a2
 8623 20aa 22210000 		.4byte	0x2122
 8624 20ae 28       		.byte	0x28
 8625 20af 00       		.byte	0
 8626 20b0 04       		.uleb128 0x4
 8627 20b1 E4020000 		.4byte	.LASF427
 8628 20b5 24       		.byte	0x24
 8629 20b6 D1       		.byte	0xd1
 8630 20b7 BB200000 		.4byte	0x20bb
 8631 20bb 0E       		.uleb128 0xe
 8632 20bc 04       		.byte	0x4
 8633 20bd C1200000 		.4byte	0x20c1
 8634 20c1 1B       		.uleb128 0x1b
 8635 20c2 D1200000 		.4byte	0x20d1
 8636 20c6 19       		.uleb128 0x19
 8637 20c7 D1200000 		.4byte	0x20d1
 8638 20cb 19       		.uleb128 0x19
 8639 20cc 00090000 		.4byte	0x900
 8640 20d0 00       		.byte	0
 8641 20d1 0E       		.uleb128 0xe
 8642 20d2 04       		.byte	0x4
 8643 20d3 22200000 		.4byte	0x2022
 8644 20d7 09       		.uleb128 0x9
 8645 20d8 D0080000 		.4byte	0x8d0
 8646 20dc E7200000 		.4byte	0x20e7
 8647 20e0 0A       		.uleb128 0xa
 8648 20e1 25000000 		.4byte	0x25
 8649 20e5 07       		.byte	0x7
 8650 20e6 00       		.byte	0
 8651 20e7 1E       		.uleb128 0x1e
 8652 20e8 08       		.byte	0x8
 8653 20e9 24       		.byte	0x24
 8654 20ea 3601     		.2byte	0x136
 8655 20ec 0B210000 		.4byte	0x210b
 8656 20f0 17       		.uleb128 0x17
ARM GAS  /tmp/ccxvl19p.s 			page 153


 8657 20f1 6D637200 		.ascii	"mcr\000"
 8658 20f5 24       		.byte	0x24
 8659 20f6 3C01     		.2byte	0x13c
 8660 20f8 00090000 		.4byte	0x900
 8661 20fc 00       		.byte	0
 8662 20fd 17       		.uleb128 0x17
 8663 20fe 62747200 		.ascii	"btr\000"
 8664 2102 24       		.byte	0x24
 8665 2103 4201     		.2byte	0x142
 8666 2105 00090000 		.4byte	0x900
 8667 2109 04       		.byte	0x4
 8668 210a 00       		.byte	0
 8669 210b 06       		.uleb128 0x6
 8670 210c 53160000 		.4byte	.LASF428
 8671 2110 24       		.byte	0x24
 8672 2111 4301     		.2byte	0x143
 8673 2113 E7200000 		.4byte	0x20e7
 8674 2117 0F       		.uleb128 0xf
 8675 2118 0B210000 		.4byte	0x210b
 8676 211c 0E       		.uleb128 0xe
 8677 211d 04       		.byte	0x4
 8678 211e 17210000 		.4byte	0x2117
 8679 2122 0E       		.uleb128 0xe
 8680 2123 04       		.byte	0x4
 8681 2124 4F100000 		.4byte	0x104f
 8682 2128 1C       		.uleb128 0x1c
 8683 2129 DD1B0000 		.4byte	.LASF429
 8684 212d 24       		.byte	0x24
 8685 212e AE01     		.2byte	0x1ae
 8686 2130 22200000 		.4byte	0x2022
 8687 2134 1C       		.uleb128 0x1c
 8688 2135 8E090000 		.4byte	.LASF430
 8689 2139 24       		.byte	0x24
 8690 213a B201     		.2byte	0x1b2
 8691 213c 22200000 		.4byte	0x2022
 8692 2140 25       		.uleb128 0x25
 8693 2141 07       		.byte	0x7
 8694 2142 01       		.byte	0x1
 8695 2143 63000000 		.4byte	0x63
 8696 2147 25       		.byte	0x25
 8697 2148 4C       		.byte	0x4c
 8698 2149 72210000 		.4byte	0x2172
 8699 214d 26       		.uleb128 0x26
 8700 214e A7050000 		.4byte	.LASF431
 8701 2152 00       		.byte	0
 8702 2153 26       		.uleb128 0x26
 8703 2154 CD0C0000 		.4byte	.LASF432
 8704 2158 01       		.byte	0x1
 8705 2159 26       		.uleb128 0x26
 8706 215a BD060000 		.4byte	.LASF433
 8707 215e 02       		.byte	0x2
 8708 215f 26       		.uleb128 0x26
 8709 2160 61040000 		.4byte	.LASF434
 8710 2164 03       		.byte	0x3
 8711 2165 26       		.uleb128 0x26
 8712 2166 21030000 		.4byte	.LASF435
 8713 216a 04       		.byte	0x4
ARM GAS  /tmp/ccxvl19p.s 			page 154


 8714 216b 26       		.uleb128 0x26
 8715 216c B2100000 		.4byte	.LASF436
 8716 2170 05       		.byte	0x5
 8717 2171 00       		.byte	0
 8718 2172 04       		.uleb128 0x4
 8719 2173 050F0000 		.4byte	.LASF437
 8720 2177 25       		.byte	0x25
 8721 2178 53       		.byte	0x53
 8722 2179 40210000 		.4byte	0x2140
 8723 217d 04       		.uleb128 0x4
 8724 217e A4030000 		.4byte	.LASF438
 8725 2182 26       		.byte	0x26
 8726 2183 69       		.byte	0x69
 8727 2184 D0080000 		.4byte	0x8d0
 8728 2188 0B       		.uleb128 0xb
 8729 2189 10       		.byte	0x10
 8730 218a 26       		.byte	0x26
 8731 218b 73       		.byte	0x73
 8732 218c C1210000 		.4byte	0x21c1
 8733 2190 0C       		.uleb128 0xc
 8734 2191 530A0000 		.4byte	.LASF439
 8735 2195 26       		.byte	0x26
 8736 2196 77       		.byte	0x77
 8737 2197 F5180000 		.4byte	0x18f5
 8738 219b 00       		.byte	0
 8739 219c 11       		.uleb128 0x11
 8740 219d 73636C00 		.ascii	"scl\000"
 8741 21a1 26       		.byte	0x26
 8742 21a2 7B       		.byte	0x7b
 8743 21a3 631D0000 		.4byte	0x1d63
 8744 21a7 04       		.byte	0x4
 8745 21a8 11       		.uleb128 0x11
 8746 21a9 73646100 		.ascii	"sda\000"
 8747 21ad 26       		.byte	0x26
 8748 21ae 7F       		.byte	0x7f
 8749 21af 631D0000 		.4byte	0x1d63
 8750 21b3 08       		.byte	0x8
 8751 21b4 0C       		.uleb128 0xc
 8752 21b5 0A180000 		.4byte	.LASF440
 8753 21b9 26       		.byte	0x26
 8754 21ba 84       		.byte	0x84
 8755 21bb 800C0000 		.4byte	0xc80
 8756 21bf 0C       		.byte	0xc
 8757 21c0 00       		.byte	0
 8758 21c1 04       		.uleb128 0x4
 8759 21c2 C7010000 		.4byte	.LASF441
 8760 21c6 26       		.byte	0x26
 8761 21c7 8B       		.byte	0x8b
 8762 21c8 88210000 		.4byte	0x2188
 8763 21cc 0F       		.uleb128 0xf
 8764 21cd C1210000 		.4byte	0x21c1
 8765 21d1 04       		.uleb128 0x4
 8766 21d2 57040000 		.4byte	.LASF442
 8767 21d6 26       		.byte	0x26
 8768 21d7 90       		.byte	0x90
 8769 21d8 DC210000 		.4byte	0x21dc
 8770 21dc 10       		.uleb128 0x10
ARM GAS  /tmp/ccxvl19p.s 			page 155


 8771 21dd 57040000 		.4byte	.LASF442
 8772 21e1 24       		.byte	0x24
 8773 21e2 26       		.byte	0x26
 8774 21e3 95       		.byte	0x95
 8775 21e4 31220000 		.4byte	0x2231
 8776 21e8 0C       		.uleb128 0xc
 8777 21e9 0C130000 		.4byte	.LASF150
 8778 21ed 26       		.byte	0x26
 8779 21ee 99       		.byte	0x99
 8780 21ef 72210000 		.4byte	0x2172
 8781 21f3 00       		.byte	0
 8782 21f4 0C       		.uleb128 0xc
 8783 21f5 3B180000 		.4byte	.LASF384
 8784 21f9 26       		.byte	0x26
 8785 21fa 9D       		.byte	0x9d
 8786 21fb 31220000 		.4byte	0x2231
 8787 21ff 04       		.byte	0x4
 8788 2200 0C       		.uleb128 0xc
 8789 2201 29010000 		.4byte	.LASF443
 8790 2205 26       		.byte	0x26
 8791 2206 A1       		.byte	0xa1
 8792 2207 7D210000 		.4byte	0x217d
 8793 220b 08       		.byte	0x8
 8794 220c 0C       		.uleb128 0xc
 8795 220d 480B0000 		.4byte	.LASF389
 8796 2211 26       		.byte	0x26
 8797 2212 A3       		.byte	0xa3
 8798 2213 66180000 		.4byte	0x1866
 8799 2217 0C       		.byte	0xc
 8800 2218 0C       		.uleb128 0xc
 8801 2219 29120000 		.4byte	.LASF444
 8802 221d 26       		.byte	0x26
 8803 221e AC       		.byte	0xac
 8804 221f 800C0000 		.4byte	0xc80
 8805 2223 1C       		.byte	0x1c
 8806 2224 11       		.uleb128 0x11
 8807 2225 656E6400 		.ascii	"end\000"
 8808 2229 26       		.byte	0x26
 8809 222a B0       		.byte	0xb0
 8810 222b 800C0000 		.4byte	0xc80
 8811 222f 20       		.byte	0x20
 8812 2230 00       		.byte	0
 8813 2231 0E       		.uleb128 0xe
 8814 2232 04       		.byte	0x4
 8815 2233 CC210000 		.4byte	0x21cc
 8816 2237 1D       		.uleb128 0x1d
 8817 2238 340B0000 		.4byte	.LASF445
 8818 223c 26       		.byte	0x26
 8819 223d C9       		.byte	0xc9
 8820 223e D1210000 		.4byte	0x21d1
 8821 2242 25       		.uleb128 0x25
 8822 2243 07       		.byte	0x7
 8823 2244 01       		.byte	0x1
 8824 2245 63000000 		.4byte	0x63
 8825 2249 27       		.byte	0x27
 8826 224a 31       		.byte	0x31
 8827 224b 6E220000 		.4byte	0x226e
ARM GAS  /tmp/ccxvl19p.s 			page 156


 8828 224f 26       		.uleb128 0x26
 8829 2250 6F1F0000 		.4byte	.LASF446
 8830 2254 00       		.byte	0
 8831 2255 26       		.uleb128 0x26
 8832 2256 041A0000 		.4byte	.LASF447
 8833 225a 01       		.byte	0x1
 8834 225b 26       		.uleb128 0x26
 8835 225c B3040000 		.4byte	.LASF448
 8836 2260 02       		.byte	0x2
 8837 2261 26       		.uleb128 0x26
 8838 2262 57110000 		.4byte	.LASF449
 8839 2266 03       		.byte	0x3
 8840 2267 26       		.uleb128 0x26
 8841 2268 5B010000 		.4byte	.LASF450
 8842 226c 04       		.byte	0x4
 8843 226d 00       		.byte	0
 8844 226e 04       		.uleb128 0x4
 8845 226f 701B0000 		.4byte	.LASF451
 8846 2273 27       		.byte	0x27
 8847 2274 37       		.byte	0x37
 8848 2275 42220000 		.4byte	0x2242
 8849 2279 04       		.uleb128 0x4
 8850 227a ED150000 		.4byte	.LASF452
 8851 227e 27       		.byte	0x27
 8852 227f 3C       		.byte	0x3c
 8853 2280 84220000 		.4byte	0x2284
 8854 2284 15       		.uleb128 0x15
 8855 2285 ED150000 		.4byte	.LASF452
 8856 2289 18       		.byte	0x18
 8857 228a 28       		.byte	0x28
 8858 228b AC01     		.2byte	0x1ac
 8859 228d E0220000 		.4byte	0x22e0
 8860 2291 16       		.uleb128 0x16
 8861 2292 0C130000 		.4byte	.LASF150
 8862 2296 28       		.byte	0x28
 8863 2297 B001     		.2byte	0x1b0
 8864 2299 6E220000 		.4byte	0x226e
 8865 229d 00       		.byte	0
 8866 229e 16       		.uleb128 0x16
 8867 229f 3B180000 		.4byte	.LASF384
 8868 22a3 28       		.byte	0x28
 8869 22a4 B401     		.2byte	0x1b4
 8870 22a6 D2230000 		.4byte	0x23d2
 8871 22aa 04       		.byte	0x4
 8872 22ab 16       		.uleb128 0x16
 8873 22ac 650B0000 		.4byte	.LASF453
 8874 22b0 28       		.byte	0x28
 8875 22b1 BC01     		.2byte	0x1bc
 8876 22b3 00090000 		.4byte	0x900
 8877 22b7 08       		.byte	0x8
 8878 22b8 17       		.uleb128 0x17
 8879 22b9 74696D00 		.ascii	"tim\000"
 8880 22bd 28       		.byte	0x28
 8881 22be C001     		.2byte	0x1c0
 8882 22c0 D8230000 		.4byte	0x23d8
 8883 22c4 0C       		.byte	0xc
 8884 22c5 16       		.uleb128 0x16
ARM GAS  /tmp/ccxvl19p.s 			page 157


 8885 22c6 D5190000 		.4byte	.LASF454
 8886 22ca 28       		.byte	0x28
 8887 22cb C401     		.2byte	0x1c4
 8888 22cd 261B0000 		.4byte	0x1b26
 8889 22d1 10       		.byte	0x10
 8890 22d2 16       		.uleb128 0x16
 8891 22d3 C6040000 		.4byte	.LASF455
 8892 22d7 28       		.byte	0x28
 8893 22d8 C801     		.2byte	0x1c8
 8894 22da 261B0000 		.4byte	0x1b26
 8895 22de 14       		.byte	0x14
 8896 22df 00       		.byte	0
 8897 22e0 04       		.uleb128 0x4
 8898 22e1 08170000 		.4byte	.LASF456
 8899 22e5 27       		.byte	0x27
 8900 22e6 43       		.byte	0x43
 8901 22e7 EB220000 		.4byte	0x22eb
 8902 22eb 0E       		.uleb128 0xe
 8903 22ec 04       		.byte	0x4
 8904 22ed F1220000 		.4byte	0x22f1
 8905 22f1 1B       		.uleb128 0x1b
 8906 22f2 FC220000 		.4byte	0x22fc
 8907 22f6 19       		.uleb128 0x19
 8908 22f7 FC220000 		.4byte	0x22fc
 8909 22fb 00       		.byte	0
 8910 22fc 0E       		.uleb128 0xe
 8911 22fd 04       		.byte	0x4
 8912 22fe 79220000 		.4byte	0x2279
 8913 2302 27       		.uleb128 0x27
 8914 2303 07       		.byte	0x7
 8915 2304 01       		.byte	0x1
 8916 2305 63000000 		.4byte	0x63
 8917 2309 28       		.byte	0x28
 8918 230a 6901     		.2byte	0x169
 8919 230c 1D230000 		.4byte	0x231d
 8920 2310 26       		.uleb128 0x26
 8921 2311 E0070000 		.4byte	.LASF457
 8922 2315 00       		.byte	0
 8923 2316 26       		.uleb128 0x26
 8924 2317 57170000 		.4byte	.LASF458
 8925 231b 01       		.byte	0x1
 8926 231c 00       		.byte	0
 8927 231d 06       		.uleb128 0x6
 8928 231e AB1D0000 		.4byte	.LASF459
 8929 2322 28       		.byte	0x28
 8930 2323 6C01     		.2byte	0x16c
 8931 2325 02230000 		.4byte	0x2302
 8932 2329 06       		.uleb128 0x6
 8933 232a 8C170000 		.4byte	.LASF460
 8934 232e 28       		.byte	0x28
 8935 232f 7101     		.2byte	0x171
 8936 2331 00090000 		.4byte	0x900
 8937 2335 27       		.uleb128 0x27
 8938 2336 07       		.byte	0x7
 8939 2337 01       		.byte	0x1
 8940 2338 63000000 		.4byte	0x63
 8941 233c 28       		.byte	0x28
ARM GAS  /tmp/ccxvl19p.s 			page 158


 8942 233d 7601     		.2byte	0x176
 8943 233f 50230000 		.4byte	0x2350
 8944 2343 26       		.uleb128 0x26
 8945 2344 BE160000 		.4byte	.LASF461
 8946 2348 00       		.byte	0
 8947 2349 26       		.uleb128 0x26
 8948 234a 071B0000 		.4byte	.LASF462
 8949 234e 01       		.byte	0x1
 8950 234f 00       		.byte	0
 8951 2350 06       		.uleb128 0x6
 8952 2351 3F050000 		.4byte	.LASF463
 8953 2355 28       		.byte	0x28
 8954 2356 7901     		.2byte	0x179
 8955 2358 35230000 		.4byte	0x2335
 8956 235c 1E       		.uleb128 0x1e
 8957 235d 1C       		.byte	0x1c
 8958 235e 28       		.byte	0x28
 8959 235f 8401     		.2byte	0x184
 8960 2361 C1230000 		.4byte	0x23c1
 8961 2365 16       		.uleb128 0x16
 8962 2366 CB070000 		.4byte	.LASF464
 8963 236a 28       		.byte	0x28
 8964 236b 8801     		.2byte	0x188
 8965 236d 1D230000 		.4byte	0x231d
 8966 2371 00       		.byte	0
 8967 2372 16       		.uleb128 0x16
 8968 2373 9E1F0000 		.4byte	.LASF465
 8969 2377 28       		.byte	0x28
 8970 2378 8E01     		.2byte	0x18e
 8971 237a 29230000 		.4byte	0x2329
 8972 237e 04       		.byte	0x4
 8973 237f 16       		.uleb128 0x16
 8974 2380 BD100000 		.4byte	.LASF466
 8975 2384 28       		.byte	0x28
 8976 2385 9201     		.2byte	0x192
 8977 2387 E0220000 		.4byte	0x22e0
 8978 238b 08       		.byte	0x8
 8979 238c 16       		.uleb128 0x16
 8980 238d FB0E0000 		.4byte	.LASF467
 8981 2391 28       		.byte	0x28
 8982 2392 9601     		.2byte	0x196
 8983 2394 E0220000 		.4byte	0x22e0
 8984 2398 0C       		.byte	0xc
 8985 2399 16       		.uleb128 0x16
 8986 239a AD090000 		.4byte	.LASF468
 8987 239e 28       		.byte	0x28
 8988 239f 9A01     		.2byte	0x19a
 8989 23a1 E0220000 		.4byte	0x22e0
 8990 23a5 10       		.byte	0x10
 8991 23a6 16       		.uleb128 0x16
 8992 23a7 860F0000 		.4byte	.LASF469
 8993 23ab 28       		.byte	0x28
 8994 23ac A001     		.2byte	0x1a0
 8995 23ae 50230000 		.4byte	0x2350
 8996 23b2 14       		.byte	0x14
 8997 23b3 16       		.uleb128 0x16
 8998 23b4 040B0000 		.4byte	.LASF470
ARM GAS  /tmp/ccxvl19p.s 			page 159


 8999 23b8 28       		.byte	0x28
 9000 23b9 A601     		.2byte	0x1a6
 9001 23bb 00090000 		.4byte	0x900
 9002 23bf 18       		.byte	0x18
 9003 23c0 00       		.byte	0
 9004 23c1 06       		.uleb128 0x6
 9005 23c2 F7150000 		.4byte	.LASF471
 9006 23c6 28       		.byte	0x28
 9007 23c7 A701     		.2byte	0x1a7
 9008 23c9 5C230000 		.4byte	0x235c
 9009 23cd 0F       		.uleb128 0xf
 9010 23ce C1230000 		.4byte	0x23c1
 9011 23d2 0E       		.uleb128 0xe
 9012 23d3 04       		.byte	0x4
 9013 23d4 CD230000 		.4byte	0x23cd
 9014 23d8 0E       		.uleb128 0xe
 9015 23d9 04       		.byte	0x4
 9016 23da 36160000 		.4byte	0x1636
 9017 23de 1C       		.uleb128 0x1c
 9018 23df 1A0D0000 		.4byte	.LASF472
 9019 23e3 28       		.byte	0x28
 9020 23e4 0502     		.2byte	0x205
 9021 23e6 79220000 		.4byte	0x2279
 9022 23ea 1C       		.uleb128 0x1c
 9023 23eb 200D0000 		.4byte	.LASF473
 9024 23ef 28       		.byte	0x28
 9025 23f0 0902     		.2byte	0x209
 9026 23f2 79220000 		.4byte	0x2279
 9027 23f6 25       		.uleb128 0x25
 9028 23f7 07       		.byte	0x7
 9029 23f8 01       		.byte	0x1
 9030 23f9 63000000 		.4byte	0x63
 9031 23fd 29       		.byte	0x29
 9032 23fe 4A       		.byte	0x4a
 9033 23ff 16240000 		.4byte	0x2416
 9034 2403 26       		.uleb128 0x26
 9035 2404 A4060000 		.4byte	.LASF474
 9036 2408 00       		.byte	0
 9037 2409 26       		.uleb128 0x26
 9038 240a 2B0B0000 		.4byte	.LASF475
 9039 240e 01       		.byte	0x1
 9040 240f 26       		.uleb128 0x26
 9041 2410 1C0E0000 		.4byte	.LASF476
 9042 2414 02       		.byte	0x2
 9043 2415 00       		.byte	0
 9044 2416 04       		.uleb128 0x4
 9045 2417 38030000 		.4byte	.LASF477
 9046 241b 29       		.byte	0x29
 9047 241c 4E       		.byte	0x4e
 9048 241d F6230000 		.4byte	0x23f6
 9049 2421 04       		.uleb128 0x4
 9050 2422 840A0000 		.4byte	.LASF478
 9051 2426 29       		.byte	0x29
 9052 2427 53       		.byte	0x53
 9053 2428 2C240000 		.4byte	0x242c
 9054 242c 15       		.uleb128 0x15
 9055 242d 840A0000 		.4byte	.LASF478
ARM GAS  /tmp/ccxvl19p.s 			page 160


 9056 2431 1C       		.byte	0x1c
 9057 2432 2A       		.byte	0x2a
 9058 2433 6302     		.2byte	0x263
 9059 2435 95240000 		.4byte	0x2495
 9060 2439 16       		.uleb128 0x16
 9061 243a 0C130000 		.4byte	.LASF150
 9062 243e 2A       		.byte	0x2a
 9063 243f 6702     		.2byte	0x267
 9064 2441 16240000 		.4byte	0x2416
 9065 2445 00       		.byte	0
 9066 2446 16       		.uleb128 0x16
 9067 2447 3B180000 		.4byte	.LASF384
 9068 244b 2A       		.byte	0x2a
 9069 244c 6B02     		.2byte	0x26b
 9070 244e 90250000 		.4byte	0x2590
 9071 2452 04       		.byte	0x4
 9072 2453 16       		.uleb128 0x16
 9073 2454 A1100000 		.4byte	.LASF479
 9074 2458 2A       		.byte	0x2a
 9075 2459 6F02     		.2byte	0x26f
 9076 245b DB240000 		.4byte	0x24db
 9077 245f 08       		.byte	0x8
 9078 2460 16       		.uleb128 0x16
 9079 2461 84160000 		.4byte	.LASF480
 9080 2465 2A       		.byte	0x2a
 9081 2466 7302     		.2byte	0x273
 9082 2468 CF240000 		.4byte	0x24cf
 9083 246c 0C       		.byte	0xc
 9084 246d 16       		.uleb128 0x16
 9085 246e 4B1C0000 		.4byte	.LASF481
 9086 2472 2A       		.byte	0x2a
 9087 2473 7702     		.2byte	0x277
 9088 2475 C3240000 		.4byte	0x24c3
 9089 2479 10       		.byte	0x10
 9090 247a 16       		.uleb128 0x16
 9091 247b 650B0000 		.4byte	.LASF453
 9092 247f 2A       		.byte	0x2a
 9093 2480 7F02     		.2byte	0x27f
 9094 2482 00090000 		.4byte	0x900
 9095 2486 14       		.byte	0x14
 9096 2487 17       		.uleb128 0x17
 9097 2488 74696D00 		.ascii	"tim\000"
 9098 248c 2A       		.byte	0x2a
 9099 248d 8302     		.2byte	0x283
 9100 248f D8230000 		.4byte	0x23d8
 9101 2493 18       		.byte	0x18
 9102 2494 00       		.byte	0
 9103 2495 04       		.uleb128 0x4
 9104 2496 E10E0000 		.4byte	.LASF482
 9105 249a 29       		.byte	0x29
 9106 249b 5A       		.byte	0x5a
 9107 249c A0240000 		.4byte	0x24a0
 9108 24a0 0E       		.uleb128 0xe
 9109 24a1 04       		.byte	0x4
 9110 24a2 A6240000 		.4byte	0x24a6
 9111 24a6 1B       		.uleb128 0x1b
 9112 24a7 B1240000 		.4byte	0x24b1
ARM GAS  /tmp/ccxvl19p.s 			page 161


 9113 24ab 19       		.uleb128 0x19
 9114 24ac B1240000 		.4byte	0x24b1
 9115 24b0 00       		.byte	0
 9116 24b1 0E       		.uleb128 0xe
 9117 24b2 04       		.byte	0x4
 9118 24b3 21240000 		.4byte	0x2421
 9119 24b7 06       		.uleb128 0x6
 9120 24b8 52120000 		.4byte	.LASF483
 9121 24bc 2A       		.byte	0x2a
 9122 24bd 0F02     		.2byte	0x20f
 9123 24bf 00090000 		.4byte	0x900
 9124 24c3 06       		.uleb128 0x6
 9125 24c4 55140000 		.4byte	.LASF484
 9126 24c8 2A       		.byte	0x2a
 9127 24c9 1402     		.2byte	0x214
 9128 24cb D0080000 		.4byte	0x8d0
 9129 24cf 06       		.uleb128 0x6
 9130 24d0 C6020000 		.4byte	.LASF485
 9131 24d4 2A       		.byte	0x2a
 9132 24d5 1902     		.2byte	0x219
 9133 24d7 00090000 		.4byte	0x900
 9134 24db 06       		.uleb128 0x6
 9135 24dc 24140000 		.4byte	.LASF486
 9136 24e0 2A       		.byte	0x2a
 9137 24e1 1E02     		.2byte	0x21e
 9138 24e3 00090000 		.4byte	0x900
 9139 24e7 1E       		.uleb128 0x1e
 9140 24e8 08       		.byte	0x8
 9141 24e9 2A       		.byte	0x2a
 9142 24ea 2302     		.2byte	0x223
 9143 24ec 0B250000 		.4byte	0x250b
 9144 24f0 16       		.uleb128 0x16
 9145 24f1 CB070000 		.4byte	.LASF464
 9146 24f5 2A       		.byte	0x2a
 9147 24f6 2702     		.2byte	0x227
 9148 24f8 B7240000 		.4byte	0x24b7
 9149 24fc 00       		.byte	0
 9150 24fd 16       		.uleb128 0x16
 9151 24fe 55130000 		.4byte	.LASF487
 9152 2502 2A       		.byte	0x2a
 9153 2503 2D02     		.2byte	0x22d
 9154 2505 95240000 		.4byte	0x2495
 9155 2509 04       		.byte	0x4
 9156 250a 00       		.byte	0
 9157 250b 06       		.uleb128 0x6
 9158 250c 150C0000 		.4byte	.LASF488
 9159 2510 2A       		.byte	0x2a
 9160 2511 2F02     		.2byte	0x22f
 9161 2513 E7240000 		.4byte	0x24e7
 9162 2517 1E       		.uleb128 0x1e
 9163 2518 34       		.byte	0x34
 9164 2519 2A       		.byte	0x2a
 9165 251a 3402     		.2byte	0x234
 9166 251c 6F250000 		.4byte	0x256f
 9167 2520 16       		.uleb128 0x16
 9168 2521 9E1F0000 		.4byte	.LASF465
 9169 2525 2A       		.byte	0x2a
ARM GAS  /tmp/ccxvl19p.s 			page 162


 9170 2526 3A02     		.2byte	0x23a
 9171 2528 00090000 		.4byte	0x900
 9172 252c 00       		.byte	0
 9173 252d 16       		.uleb128 0x16
 9174 252e A1100000 		.4byte	.LASF479
 9175 2532 2A       		.byte	0x2a
 9176 2533 4002     		.2byte	0x240
 9177 2535 DB240000 		.4byte	0x24db
 9178 2539 04       		.byte	0x4
 9179 253a 16       		.uleb128 0x16
 9180 253b 55130000 		.4byte	.LASF487
 9181 253f 2A       		.byte	0x2a
 9182 2540 4602     		.2byte	0x246
 9183 2542 95240000 		.4byte	0x2495
 9184 2546 08       		.byte	0x8
 9185 2547 16       		.uleb128 0x16
 9186 2548 4B1C0000 		.4byte	.LASF481
 9187 254c 2A       		.byte	0x2a
 9188 254d 4A02     		.2byte	0x24a
 9189 254f 6F250000 		.4byte	0x256f
 9190 2553 0C       		.byte	0xc
 9191 2554 17       		.uleb128 0x17
 9192 2555 63723200 		.ascii	"cr2\000"
 9193 2559 2A       		.byte	0x2a
 9194 255a 5002     		.2byte	0x250
 9195 255c 00090000 		.4byte	0x900
 9196 2560 2C       		.byte	0x2c
 9197 2561 16       		.uleb128 0x16
 9198 2562 040B0000 		.4byte	.LASF470
 9199 2566 2A       		.byte	0x2a
 9200 2567 5D02     		.2byte	0x25d
 9201 2569 00090000 		.4byte	0x900
 9202 256d 30       		.byte	0x30
 9203 256e 00       		.byte	0
 9204 256f 09       		.uleb128 0x9
 9205 2570 0B250000 		.4byte	0x250b
 9206 2574 7F250000 		.4byte	0x257f
 9207 2578 0A       		.uleb128 0xa
 9208 2579 25000000 		.4byte	0x25
 9209 257d 03       		.byte	0x3
 9210 257e 00       		.byte	0
 9211 257f 06       		.uleb128 0x6
 9212 2580 8E0A0000 		.4byte	.LASF489
 9213 2584 2A       		.byte	0x2a
 9214 2585 5E02     		.2byte	0x25e
 9215 2587 17250000 		.4byte	0x2517
 9216 258b 0F       		.uleb128 0xf
 9217 258c 7F250000 		.4byte	0x257f
 9218 2590 0E       		.uleb128 0xe
 9219 2591 04       		.byte	0x4
 9220 2592 8B250000 		.4byte	0x258b
 9221 2596 1C       		.uleb128 0x1c
 9222 2597 800F0000 		.4byte	.LASF490
 9223 259b 2A       		.byte	0x2a
 9224 259c A202     		.2byte	0x2a2
 9225 259e 21240000 		.4byte	0x2421
 9226 25a2 1C       		.uleb128 0x1c
ARM GAS  /tmp/ccxvl19p.s 			page 163


 9227 25a3 A4110000 		.4byte	.LASF491
 9228 25a7 2A       		.byte	0x2a
 9229 25a8 AA02     		.2byte	0x2aa
 9230 25aa 21240000 		.4byte	0x2421
 9231 25ae 1C       		.uleb128 0x1c
 9232 25af 34180000 		.4byte	.LASF492
 9233 25b3 2A       		.byte	0x2a
 9234 25b4 BE02     		.2byte	0x2be
 9235 25b6 21240000 		.4byte	0x2421
 9236 25ba 25       		.uleb128 0x25
 9237 25bb 07       		.byte	0x7
 9238 25bc 01       		.byte	0x1
 9239 25bd 63000000 		.4byte	0x63
 9240 25c1 2B       		.byte	0x2b
 9241 25c2 58       		.byte	0x58
 9242 25c3 DA250000 		.4byte	0x25da
 9243 25c7 26       		.uleb128 0x26
 9244 25c8 BF050000 		.4byte	.LASF493
 9245 25cc 00       		.byte	0
 9246 25cd 26       		.uleb128 0x26
 9247 25ce 980B0000 		.4byte	.LASF494
 9248 25d2 01       		.byte	0x1
 9249 25d3 26       		.uleb128 0x26
 9250 25d4 31210000 		.4byte	.LASF495
 9251 25d8 02       		.byte	0x2
 9252 25d9 00       		.byte	0
 9253 25da 04       		.uleb128 0x4
 9254 25db 38090000 		.4byte	.LASF496
 9255 25df 2B       		.byte	0x2b
 9256 25e0 5C       		.byte	0x5c
 9257 25e1 BA250000 		.4byte	0x25ba
 9258 25e5 04       		.uleb128 0x4
 9259 25e6 761C0000 		.4byte	.LASF497
 9260 25ea 2B       		.byte	0x2b
 9261 25eb 61       		.byte	0x61
 9262 25ec F0250000 		.4byte	0x25f0
 9263 25f0 10       		.uleb128 0x10
 9264 25f1 761C0000 		.4byte	.LASF497
 9265 25f5 7C       		.byte	0x7c
 9266 25f6 2B       		.byte	0x2b
 9267 25f7 7B       		.byte	0x7b
 9268 25f8 67260000 		.4byte	0x2667
 9269 25fc 11       		.uleb128 0x11
 9270 25fd 766D7400 		.ascii	"vmt\000"
 9271 2601 2B       		.byte	0x2b
 9272 2602 7D       		.byte	0x7d
 9273 2603 FD260000 		.4byte	0x26fd
 9274 2607 00       		.byte	0
 9275 2608 0C       		.uleb128 0xc
 9276 2609 31000000 		.4byte	.LASF498
 9277 260d 2B       		.byte	0x2b
 9278 260e 7E       		.byte	0x7e
 9279 260f EA180000 		.4byte	0x18ea
 9280 2613 04       		.byte	0x4
 9281 2614 0C       		.uleb128 0xc
 9282 2615 0C130000 		.4byte	.LASF150
 9283 2619 2B       		.byte	0x2b
ARM GAS  /tmp/ccxvl19p.s 			page 164


 9284 261a 7E       		.byte	0x7e
 9285 261b DA250000 		.4byte	0x25da
 9286 261f 08       		.byte	0x8
 9287 2620 0C       		.uleb128 0xc
 9288 2621 28150000 		.4byte	.LASF499
 9289 2625 2B       		.byte	0x2b
 9290 2626 7E       		.byte	0x7e
 9291 2627 0B1D0000 		.4byte	0x1d0b
 9292 262b 0C       		.byte	0xc
 9293 262c 0C       		.uleb128 0xc
 9294 262d 9B0E0000 		.4byte	.LASF500
 9295 2631 2B       		.byte	0x2b
 9296 2632 7E       		.byte	0x7e
 9297 2633 161D0000 		.4byte	0x1d16
 9298 2637 30       		.byte	0x30
 9299 2638 11       		.uleb128 0x11
 9300 2639 696200   		.ascii	"ib\000"
 9301 263c 2B       		.byte	0x2b
 9302 263d 7E       		.byte	0x7e
 9303 263e 03270000 		.4byte	0x2703
 9304 2642 54       		.byte	0x54
 9305 2643 11       		.uleb128 0x11
 9306 2644 6F6200   		.ascii	"ob\000"
 9307 2647 2B       		.byte	0x2b
 9308 2648 7E       		.byte	0x7e
 9309 2649 03270000 		.4byte	0x2703
 9310 264d 64       		.byte	0x64
 9311 264e 0C       		.uleb128 0xc
 9312 264f A2160000 		.4byte	.LASF501
 9313 2653 2B       		.byte	0x2b
 9314 2654 7E       		.byte	0x7e
 9315 2655 13270000 		.4byte	0x2713
 9316 2659 74       		.byte	0x74
 9317 265a 0C       		.uleb128 0xc
 9318 265b BF170000 		.4byte	.LASF502
 9319 265f 2B       		.byte	0x2b
 9320 2660 7E       		.byte	0x7e
 9321 2661 D0080000 		.4byte	0x8d0
 9322 2665 78       		.byte	0x78
 9323 2666 00       		.byte	0
 9324 2667 23       		.uleb128 0x23
 9325 2668 53443700 		.ascii	"SD7\000"
 9326 266c 2C       		.byte	0x2c
 9327 266d 5601     		.2byte	0x156
 9328 266f E5250000 		.4byte	0x25e5
 9329 2673 10       		.uleb128 0x10
 9330 2674 3E0D0000 		.4byte	.LASF503
 9331 2678 28       		.byte	0x28
 9332 2679 2B       		.byte	0x2b
 9333 267a 70       		.byte	0x70
 9334 267b F8260000 		.4byte	0x26f8
 9335 267f 0C       		.uleb128 0xc
 9336 2680 30010000 		.4byte	.LASF504
 9337 2684 2B       		.byte	0x2b
 9338 2685 71       		.byte	0x71
 9339 2686 33000000 		.4byte	0x33
 9340 268a 00       		.byte	0
ARM GAS  /tmp/ccxvl19p.s 			page 165


 9341 268b 0C       		.uleb128 0xc
 9342 268c 17150000 		.4byte	.LASF505
 9343 2690 2B       		.byte	0x2b
 9344 2691 71       		.byte	0x71
 9345 2692 7D1B0000 		.4byte	0x1b7d
 9346 2696 04       		.byte	0x4
 9347 2697 0C       		.uleb128 0xc
 9348 2698 9D010000 		.4byte	.LASF506
 9349 269c 2B       		.byte	0x2b
 9350 269d 71       		.byte	0x71
 9351 269e 9C1B0000 		.4byte	0x1b9c
 9352 26a2 08       		.byte	0x8
 9353 26a3 11       		.uleb128 0x11
 9354 26a4 70757400 		.ascii	"put\000"
 9355 26a8 2B       		.byte	0x2b
 9356 26a9 71       		.byte	0x71
 9357 26aa B61B0000 		.4byte	0x1bb6
 9358 26ae 0C       		.byte	0xc
 9359 26af 11       		.uleb128 0x11
 9360 26b0 67657400 		.ascii	"get\000"
 9361 26b4 2B       		.byte	0x2b
 9362 26b5 71       		.byte	0x71
 9363 26b6 CB1B0000 		.4byte	0x1bcb
 9364 26ba 10       		.byte	0x10
 9365 26bb 0C       		.uleb128 0xc
 9366 26bc 7F110000 		.4byte	.LASF507
 9367 26c0 2B       		.byte	0x2b
 9368 26c1 71       		.byte	0x71
 9369 26c2 EA1B0000 		.4byte	0x1bea
 9370 26c6 14       		.byte	0x14
 9371 26c7 0C       		.uleb128 0xc
 9372 26c8 CE140000 		.4byte	.LASF508
 9373 26cc 2B       		.byte	0x2b
 9374 26cd 71       		.byte	0x71
 9375 26ce 041C0000 		.4byte	0x1c04
 9376 26d2 18       		.byte	0x18
 9377 26d3 0C       		.uleb128 0xc
 9378 26d4 621D0000 		.4byte	.LASF509
 9379 26d8 2B       		.byte	0x2b
 9380 26d9 71       		.byte	0x71
 9381 26da 281C0000 		.4byte	0x1c28
 9382 26de 1C       		.byte	0x1c
 9383 26df 0C       		.uleb128 0xc
 9384 26e0 D0100000 		.4byte	.LASF510
 9385 26e4 2B       		.byte	0x2b
 9386 26e5 71       		.byte	0x71
 9387 26e6 4C1C0000 		.4byte	0x1c4c
 9388 26ea 20       		.byte	0x20
 9389 26eb 11       		.uleb128 0x11
 9390 26ec 63746C00 		.ascii	"ctl\000"
 9391 26f0 2B       		.byte	0x2b
 9392 26f1 71       		.byte	0x71
 9393 26f2 6B1C0000 		.4byte	0x1c6b
 9394 26f6 24       		.byte	0x24
 9395 26f7 00       		.byte	0
 9396 26f8 0F       		.uleb128 0xf
 9397 26f9 73260000 		.4byte	0x2673
ARM GAS  /tmp/ccxvl19p.s 			page 166


 9398 26fd 0E       		.uleb128 0xe
 9399 26fe 04       		.byte	0x4
 9400 26ff F8260000 		.4byte	0x26f8
 9401 2703 09       		.uleb128 0x9
 9402 2704 D0080000 		.4byte	0x8d0
 9403 2708 13270000 		.4byte	0x2713
 9404 270c 0A       		.uleb128 0xa
 9405 270d 25000000 		.4byte	0x25
 9406 2711 0F       		.byte	0xf
 9407 2712 00       		.byte	0
 9408 2713 0E       		.uleb128 0xe
 9409 2714 04       		.byte	0x4
 9410 2715 89130000 		.4byte	0x1389
 9411 2719 25       		.uleb128 0x25
 9412 271a 07       		.byte	0x7
 9413 271b 01       		.byte	0x1
 9414 271c 63000000 		.4byte	0x63
 9415 2720 2D       		.byte	0x2d
 9416 2721 74       		.byte	0x74
 9417 2722 45270000 		.4byte	0x2745
 9418 2726 26       		.uleb128 0x26
 9419 2727 2F060000 		.4byte	.LASF511
 9420 272b 00       		.byte	0
 9421 272c 26       		.uleb128 0x26
 9422 272d B6020000 		.4byte	.LASF512
 9423 2731 01       		.byte	0x1
 9424 2732 26       		.uleb128 0x26
 9425 2733 F81D0000 		.4byte	.LASF513
 9426 2737 02       		.byte	0x2
 9427 2738 26       		.uleb128 0x26
 9428 2739 020E0000 		.4byte	.LASF514
 9429 273d 03       		.byte	0x3
 9430 273e 26       		.uleb128 0x26
 9431 273f F7100000 		.4byte	.LASF515
 9432 2743 04       		.byte	0x4
 9433 2744 00       		.byte	0
 9434 2745 04       		.uleb128 0x4
 9435 2746 09030000 		.4byte	.LASF516
 9436 274a 2D       		.byte	0x2d
 9437 274b 7A       		.byte	0x7a
 9438 274c 19270000 		.4byte	0x2719
 9439 2750 04       		.uleb128 0x4
 9440 2751 421D0000 		.4byte	.LASF517
 9441 2755 2D       		.byte	0x2d
 9442 2756 7F       		.byte	0x7f
 9443 2757 5B270000 		.4byte	0x275b
 9444 275b 10       		.uleb128 0x10
 9445 275c F6030000 		.4byte	.LASF518
 9446 2760 20       		.byte	0x20
 9447 2761 2D       		.byte	0x2d
 9448 2762 C0       		.byte	0xc0
 9449 2763 C8270000 		.4byte	0x27c8
 9450 2767 0C       		.uleb128 0xc
 9451 2768 0C130000 		.4byte	.LASF150
 9452 276c 2D       		.byte	0x2d
 9453 276d C4       		.byte	0xc4
 9454 276e 45270000 		.4byte	0x2745
ARM GAS  /tmp/ccxvl19p.s 			page 167


 9455 2772 00       		.byte	0
 9456 2773 0C       		.uleb128 0xc
 9457 2774 3B180000 		.4byte	.LASF384
 9458 2778 2D       		.byte	0x2d
 9459 2779 C8       		.byte	0xc8
 9460 277a 67280000 		.4byte	0x2867
 9461 277e 04       		.byte	0x4
 9462 277f 0C       		.uleb128 0xc
 9463 2780 17060000 		.4byte	.LASF388
 9464 2784 2D       		.byte	0x2d
 9465 2785 CD       		.byte	0xcd
 9466 2786 720A0000 		.4byte	0xa72
 9467 278a 08       		.byte	0x8
 9468 278b 11       		.uleb128 0x11
 9469 278c 73706900 		.ascii	"spi\000"
 9470 2790 2D       		.byte	0x2d
 9471 2791 D9       		.byte	0xd9
 9472 2792 6D280000 		.4byte	0x286d
 9473 2796 0C       		.byte	0xc
 9474 2797 0C       		.uleb128 0xc
 9475 2798 D3000000 		.4byte	.LASF519
 9476 279c 2D       		.byte	0x2d
 9477 279d D9       		.byte	0xd9
 9478 279e E51F0000 		.4byte	0x1fe5
 9479 27a2 10       		.byte	0x10
 9480 27a3 0C       		.uleb128 0xc
 9481 27a4 DA010000 		.4byte	.LASF520
 9482 27a8 2D       		.byte	0x2d
 9483 27a9 D9       		.byte	0xd9
 9484 27aa E51F0000 		.4byte	0x1fe5
 9485 27ae 14       		.byte	0x14
 9486 27af 0C       		.uleb128 0xc
 9487 27b0 B7070000 		.4byte	.LASF521
 9488 27b4 2D       		.byte	0x2d
 9489 27b5 D9       		.byte	0xd9
 9490 27b6 00090000 		.4byte	0x900
 9491 27ba 18       		.byte	0x18
 9492 27bb 0C       		.uleb128 0xc
 9493 27bc 5C100000 		.4byte	.LASF522
 9494 27c0 2D       		.byte	0x2d
 9495 27c1 D9       		.byte	0xd9
 9496 27c2 00090000 		.4byte	0x900
 9497 27c6 1C       		.byte	0x1c
 9498 27c7 00       		.byte	0
 9499 27c8 04       		.uleb128 0x4
 9500 27c9 0A1C0000 		.4byte	.LASF523
 9501 27cd 2D       		.byte	0x2d
 9502 27ce 83       		.byte	0x83
 9503 27cf D8270000 		.4byte	0x27d8
 9504 27d3 0F       		.uleb128 0xf
 9505 27d4 C8270000 		.4byte	0x27c8
 9506 27d8 10       		.uleb128 0x10
 9507 27d9 A81F0000 		.4byte	.LASF524
 9508 27dd 10       		.byte	0x10
 9509 27de 2D       		.byte	0x2d
 9510 27df 94       		.byte	0x94
 9511 27e0 21280000 		.4byte	0x2821
ARM GAS  /tmp/ccxvl19p.s 			page 168


 9512 27e4 0C       		.uleb128 0xc
 9513 27e5 391D0000 		.4byte	.LASF397
 9514 27e9 2D       		.byte	0x2d
 9515 27ea 99       		.byte	0x99
 9516 27eb F5180000 		.4byte	0x18f5
 9517 27ef 00       		.byte	0
 9518 27f0 0C       		.uleb128 0xc
 9519 27f1 53080000 		.4byte	.LASF399
 9520 27f5 2D       		.byte	0x2d
 9521 27f6 9E       		.byte	0x9e
 9522 27f7 21280000 		.4byte	0x2821
 9523 27fb 04       		.byte	0x4
 9524 27fc 0C       		.uleb128 0xc
 9525 27fd 260C0000 		.4byte	.LASF525
 9526 2801 2D       		.byte	0x2d
 9527 2802 A3       		.byte	0xa3
 9528 2803 631D0000 		.4byte	0x1d63
 9529 2807 08       		.byte	0x8
 9530 2808 11       		.uleb128 0x11
 9531 2809 63723100 		.ascii	"cr1\000"
 9532 280d 2D       		.byte	0x2d
 9533 280e BA       		.byte	0xba
 9534 280f E0080000 		.4byte	0x8e0
 9535 2813 0C       		.byte	0xc
 9536 2814 11       		.uleb128 0x11
 9537 2815 63723200 		.ascii	"cr2\000"
 9538 2819 2D       		.byte	0x2d
 9539 281a BA       		.byte	0xba
 9540 281b E0080000 		.4byte	0x8e0
 9541 281f 0E       		.byte	0xe
 9542 2820 00       		.byte	0
 9543 2821 04       		.uleb128 0x4
 9544 2822 40010000 		.4byte	.LASF526
 9545 2826 2D       		.byte	0x2d
 9546 2827 8B       		.byte	0x8b
 9547 2828 2C280000 		.4byte	0x282c
 9548 282c 0E       		.uleb128 0xe
 9549 282d 04       		.byte	0x4
 9550 282e 32280000 		.4byte	0x2832
 9551 2832 1B       		.uleb128 0x1b
 9552 2833 3D280000 		.4byte	0x283d
 9553 2837 19       		.uleb128 0x19
 9554 2838 3D280000 		.4byte	0x283d
 9555 283c 00       		.byte	0
 9556 283d 0E       		.uleb128 0xe
 9557 283e 04       		.byte	0x4
 9558 283f 50270000 		.4byte	0x2750
 9559 2843 1C       		.uleb128 0x1c
 9560 2844 4E1B0000 		.4byte	.LASF527
 9561 2848 2E       		.byte	0x2e
 9562 2849 BD01     		.2byte	0x1bd
 9563 284b 50270000 		.4byte	0x2750
 9564 284f 1C       		.uleb128 0x1c
 9565 2850 E2140000 		.4byte	.LASF528
 9566 2854 2E       		.byte	0x2e
 9567 2855 C901     		.2byte	0x1c9
 9568 2857 50270000 		.4byte	0x2750
ARM GAS  /tmp/ccxvl19p.s 			page 169


 9569 285b 1C       		.uleb128 0x1c
 9570 285c E8140000 		.4byte	.LASF529
 9571 2860 2E       		.byte	0x2e
 9572 2861 CD01     		.2byte	0x1cd
 9573 2863 50270000 		.4byte	0x2750
 9574 2867 0E       		.uleb128 0xe
 9575 2868 04       		.byte	0x4
 9576 2869 D3270000 		.4byte	0x27d3
 9577 286d 0E       		.uleb128 0xe
 9578 286e 04       		.byte	0x4
 9579 286f 1A130000 		.4byte	0x131a
 9580 2873 25       		.uleb128 0x25
 9581 2874 07       		.byte	0x7
 9582 2875 01       		.byte	0x1
 9583 2876 63000000 		.4byte	0x63
 9584 287a 2F       		.byte	0x2f
 9585 287b 59       		.byte	0x59
 9586 287c 93280000 		.4byte	0x2893
 9587 2880 26       		.uleb128 0x26
 9588 2881 B70A0000 		.4byte	.LASF530
 9589 2885 00       		.byte	0
 9590 2886 26       		.uleb128 0x26
 9591 2887 78180000 		.4byte	.LASF531
 9592 288b 01       		.byte	0x1
 9593 288c 26       		.uleb128 0x26
 9594 288d F21F0000 		.4byte	.LASF532
 9595 2891 02       		.byte	0x2
 9596 2892 00       		.byte	0
 9597 2893 04       		.uleb128 0x4
 9598 2894 EE140000 		.4byte	.LASF533
 9599 2898 2F       		.byte	0x2f
 9600 2899 5D       		.byte	0x5d
 9601 289a 73280000 		.4byte	0x2873
 9602 289e 25       		.uleb128 0x25
 9603 289f 07       		.byte	0x7
 9604 28a0 01       		.byte	0x1
 9605 28a1 63000000 		.4byte	0x63
 9606 28a5 2F       		.byte	0x2f
 9607 28a6 62       		.byte	0x62
 9608 28a7 BE280000 		.4byte	0x28be
 9609 28ab 26       		.uleb128 0x26
 9610 28ac 68000000 		.4byte	.LASF534
 9611 28b0 00       		.byte	0
 9612 28b1 26       		.uleb128 0x26
 9613 28b2 7F090000 		.4byte	.LASF535
 9614 28b6 01       		.byte	0x1
 9615 28b7 26       		.uleb128 0x26
 9616 28b8 0A210000 		.4byte	.LASF536
 9617 28bc 02       		.byte	0x2
 9618 28bd 00       		.byte	0
 9619 28be 04       		.uleb128 0x4
 9620 28bf 151D0000 		.4byte	.LASF537
 9621 28c3 2F       		.byte	0x2f
 9622 28c4 66       		.byte	0x66
 9623 28c5 9E280000 		.4byte	0x289e
 9624 28c9 25       		.uleb128 0x25
 9625 28ca 07       		.byte	0x7
ARM GAS  /tmp/ccxvl19p.s 			page 170


 9626 28cb 01       		.byte	0x1
 9627 28cc 63000000 		.4byte	0x63
 9628 28d0 2F       		.byte	0x2f
 9629 28d1 6B       		.byte	0x6b
 9630 28d2 E9280000 		.4byte	0x28e9
 9631 28d6 26       		.uleb128 0x26
 9632 28d7 87130000 		.4byte	.LASF538
 9633 28db 00       		.byte	0
 9634 28dc 26       		.uleb128 0x26
 9635 28dd 62090000 		.4byte	.LASF539
 9636 28e1 01       		.byte	0x1
 9637 28e2 26       		.uleb128 0x26
 9638 28e3 1C160000 		.4byte	.LASF540
 9639 28e7 02       		.byte	0x2
 9640 28e8 00       		.byte	0
 9641 28e9 04       		.uleb128 0x4
 9642 28ea C61C0000 		.4byte	.LASF541
 9643 28ee 2F       		.byte	0x2f
 9644 28ef 6F       		.byte	0x6f
 9645 28f0 C9280000 		.4byte	0x28c9
 9646 28f4 06       		.uleb128 0x6
 9647 28f5 62180000 		.4byte	.LASF542
 9648 28f9 30       		.byte	0x30
 9649 28fa 2602     		.2byte	0x226
 9650 28fc 00090000 		.4byte	0x900
 9651 2900 06       		.uleb128 0x6
 9652 2901 13100000 		.4byte	.LASF543
 9653 2905 30       		.byte	0x30
 9654 2906 2B02     		.2byte	0x22b
 9655 2908 0C290000 		.4byte	0x290c
 9656 290c 15       		.uleb128 0x15
 9657 290d 13100000 		.4byte	.LASF543
 9658 2911 28       		.byte	0x28
 9659 2912 30       		.byte	0x30
 9660 2913 7302     		.2byte	0x273
 9661 2915 B6290000 		.4byte	0x29b6
 9662 2919 16       		.uleb128 0x16
 9663 291a 0C130000 		.4byte	.LASF150
 9664 291e 30       		.byte	0x30
 9665 291f 7702     		.2byte	0x277
 9666 2921 93280000 		.4byte	0x2893
 9667 2925 00       		.byte	0
 9668 2926 16       		.uleb128 0x16
 9669 2927 99200000 		.4byte	.LASF544
 9670 292b 30       		.byte	0x30
 9671 292c 7B02     		.2byte	0x27b
 9672 292e BE280000 		.4byte	0x28be
 9673 2932 01       		.byte	0x1
 9674 2933 16       		.uleb128 0x16
 9675 2934 9E120000 		.4byte	.LASF545
 9676 2938 30       		.byte	0x30
 9677 2939 7F02     		.2byte	0x27f
 9678 293b E9280000 		.4byte	0x28e9
 9679 293f 02       		.byte	0x2
 9680 2940 16       		.uleb128 0x16
 9681 2941 3B180000 		.4byte	.LASF384
 9682 2945 30       		.byte	0x30
ARM GAS  /tmp/ccxvl19p.s 			page 171


 9683 2946 8302     		.2byte	0x283
 9684 2948 AD2A0000 		.4byte	0x2aad
 9685 294c 04       		.byte	0x4
 9686 294d 16       		.uleb128 0x16
 9687 294e 14030000 		.4byte	.LASF546
 9688 2952 30       		.byte	0x30
 9689 2953 8802     		.2byte	0x288
 9690 2955 F5180000 		.4byte	0x18f5
 9691 2959 08       		.byte	0x8
 9692 295a 16       		.uleb128 0x16
 9693 295b 4F0E0000 		.4byte	.LASF547
 9694 295f 30       		.byte	0x30
 9695 2960 8C02     		.2byte	0x28c
 9696 2962 720A0000 		.4byte	0xa72
 9697 2966 0C       		.byte	0xc
 9698 2967 16       		.uleb128 0x16
 9699 2968 8E0F0000 		.4byte	.LASF548
 9700 296c 30       		.byte	0x30
 9701 296d 9002     		.2byte	0x290
 9702 296f 720A0000 		.4byte	0xa72
 9703 2973 10       		.byte	0x10
 9704 2974 16       		.uleb128 0x16
 9705 2975 A2160000 		.4byte	.LASF501
 9706 2979 30       		.byte	0x30
 9707 297a 9F02     		.2byte	0x29f
 9708 297c 13270000 		.4byte	0x2713
 9709 2980 14       		.byte	0x14
 9710 2981 16       		.uleb128 0x16
 9711 2982 B5140000 		.4byte	.LASF391
 9712 2986 30       		.byte	0x30
 9713 2987 A302     		.2byte	0x2a3
 9714 2989 00090000 		.4byte	0x900
 9715 298d 18       		.byte	0x18
 9716 298e 16       		.uleb128 0x16
 9717 298f D3000000 		.4byte	.LASF519
 9718 2993 30       		.byte	0x30
 9719 2994 A702     		.2byte	0x2a7
 9720 2996 E51F0000 		.4byte	0x1fe5
 9721 299a 1C       		.byte	0x1c
 9722 299b 16       		.uleb128 0x16
 9723 299c DA010000 		.4byte	.LASF520
 9724 29a0 30       		.byte	0x30
 9725 29a1 AB02     		.2byte	0x2ab
 9726 29a3 E51F0000 		.4byte	0x1fe5
 9727 29a7 20       		.byte	0x20
 9728 29a8 16       		.uleb128 0x16
 9729 29a9 610A0000 		.4byte	.LASF549
 9730 29ad 30       		.byte	0x30
 9731 29ae AF02     		.2byte	0x2af
 9732 29b0 EB080000 		.4byte	0x8eb
 9733 29b4 24       		.byte	0x24
 9734 29b5 00       		.byte	0
 9735 29b6 06       		.uleb128 0x6
 9736 29b7 13160000 		.4byte	.LASF550
 9737 29bb 30       		.byte	0x30
 9738 29bc 3202     		.2byte	0x232
 9739 29be C2290000 		.4byte	0x29c2
ARM GAS  /tmp/ccxvl19p.s 			page 172


 9740 29c2 0E       		.uleb128 0xe
 9741 29c3 04       		.byte	0x4
 9742 29c4 C8290000 		.4byte	0x29c8
 9743 29c8 1B       		.uleb128 0x1b
 9744 29c9 D3290000 		.4byte	0x29d3
 9745 29cd 19       		.uleb128 0x19
 9746 29ce D3290000 		.4byte	0x29d3
 9747 29d2 00       		.byte	0
 9748 29d3 0E       		.uleb128 0xe
 9749 29d4 04       		.byte	0x4
 9750 29d5 00290000 		.4byte	0x2900
 9751 29d9 06       		.uleb128 0x6
 9752 29da DB100000 		.4byte	.LASF551
 9753 29de 30       		.byte	0x30
 9754 29df 3A02     		.2byte	0x23a
 9755 29e1 E5290000 		.4byte	0x29e5
 9756 29e5 0E       		.uleb128 0xe
 9757 29e6 04       		.byte	0x4
 9758 29e7 EB290000 		.4byte	0x29eb
 9759 29eb 1B       		.uleb128 0x1b
 9760 29ec FB290000 		.4byte	0x29fb
 9761 29f0 19       		.uleb128 0x19
 9762 29f1 D3290000 		.4byte	0x29d3
 9763 29f5 19       		.uleb128 0x19
 9764 29f6 E0080000 		.4byte	0x8e0
 9765 29fa 00       		.byte	0
 9766 29fb 06       		.uleb128 0x6
 9767 29fc E6030000 		.4byte	.LASF552
 9768 2a00 30       		.byte	0x30
 9769 2a01 4202     		.2byte	0x242
 9770 2a03 072A0000 		.4byte	0x2a07
 9771 2a07 0E       		.uleb128 0xe
 9772 2a08 04       		.byte	0x4
 9773 2a09 0D2A0000 		.4byte	0x2a0d
 9774 2a0d 1B       		.uleb128 0x1b
 9775 2a0e 1D2A0000 		.4byte	0x2a1d
 9776 2a12 19       		.uleb128 0x19
 9777 2a13 D3290000 		.4byte	0x29d3
 9778 2a17 19       		.uleb128 0x19
 9779 2a18 F4280000 		.4byte	0x28f4
 9780 2a1c 00       		.byte	0
 9781 2a1d 1E       		.uleb128 0x1e
 9782 2a1e 20       		.byte	0x20
 9783 2a1f 30       		.byte	0x30
 9784 2a20 4802     		.2byte	0x248
 9785 2a22 9C2A0000 		.4byte	0x2a9c
 9786 2a26 16       		.uleb128 0x16
 9787 2a27 6D100000 		.4byte	.LASF553
 9788 2a2b 30       		.byte	0x30
 9789 2a2c 4C02     		.2byte	0x24c
 9790 2a2e B6290000 		.4byte	0x29b6
 9791 2a32 00       		.byte	0
 9792 2a33 16       		.uleb128 0x16
 9793 2a34 AC190000 		.4byte	.LASF554
 9794 2a38 30       		.byte	0x30
 9795 2a39 5002     		.2byte	0x250
 9796 2a3b B6290000 		.4byte	0x29b6
ARM GAS  /tmp/ccxvl19p.s 			page 173


 9797 2a3f 04       		.byte	0x4
 9798 2a40 16       		.uleb128 0x16
 9799 2a41 8A180000 		.4byte	.LASF555
 9800 2a45 30       		.byte	0x30
 9801 2a46 5402     		.2byte	0x254
 9802 2a48 B6290000 		.4byte	0x29b6
 9803 2a4c 08       		.byte	0x8
 9804 2a4d 16       		.uleb128 0x16
 9805 2a4e A8100000 		.4byte	.LASF556
 9806 2a52 30       		.byte	0x30
 9807 2a53 5802     		.2byte	0x258
 9808 2a55 D9290000 		.4byte	0x29d9
 9809 2a59 0C       		.byte	0xc
 9810 2a5a 16       		.uleb128 0x16
 9811 2a5b 451B0000 		.4byte	.LASF557
 9812 2a5f 30       		.byte	0x30
 9813 2a60 5C02     		.2byte	0x25c
 9814 2a62 FB290000 		.4byte	0x29fb
 9815 2a66 10       		.byte	0x10
 9816 2a67 16       		.uleb128 0x16
 9817 2a68 90190000 		.4byte	.LASF558
 9818 2a6c 30       		.byte	0x30
 9819 2a6d 6102     		.2byte	0x261
 9820 2a6f 00090000 		.4byte	0x900
 9821 2a73 14       		.byte	0x14
 9822 2a74 17       		.uleb128 0x17
 9823 2a75 63723100 		.ascii	"cr1\000"
 9824 2a79 30       		.byte	0x30
 9825 2a7a 6502     		.2byte	0x265
 9826 2a7c E0080000 		.4byte	0x8e0
 9827 2a80 18       		.byte	0x18
 9828 2a81 17       		.uleb128 0x17
 9829 2a82 63723200 		.ascii	"cr2\000"
 9830 2a86 30       		.byte	0x30
 9831 2a87 6902     		.2byte	0x269
 9832 2a89 E0080000 		.4byte	0x8e0
 9833 2a8d 1A       		.byte	0x1a
 9834 2a8e 17       		.uleb128 0x17
 9835 2a8f 63723300 		.ascii	"cr3\000"
 9836 2a93 30       		.byte	0x30
 9837 2a94 6D02     		.2byte	0x26d
 9838 2a96 E0080000 		.4byte	0x8e0
 9839 2a9a 1C       		.byte	0x1c
 9840 2a9b 00       		.byte	0
 9841 2a9c 06       		.uleb128 0x6
 9842 2a9d 1E100000 		.4byte	.LASF559
 9843 2aa1 30       		.byte	0x30
 9844 2aa2 6E02     		.2byte	0x26e
 9845 2aa4 1D2A0000 		.4byte	0x2a1d
 9846 2aa8 0F       		.uleb128 0xf
 9847 2aa9 9C2A0000 		.4byte	0x2a9c
 9848 2aad 0E       		.uleb128 0xe
 9849 2aae 04       		.byte	0x4
 9850 2aaf A82A0000 		.4byte	0x2aa8
 9851 2ab3 1C       		.uleb128 0x1c
 9852 2ab4 77100000 		.4byte	.LASF560
 9853 2ab8 30       		.byte	0x30
ARM GAS  /tmp/ccxvl19p.s 			page 174


 9854 2ab9 BB02     		.2byte	0x2bb
 9855 2abb 00290000 		.4byte	0x2900
 9856 2abf 1C       		.uleb128 0x1c
 9857 2ac0 7E100000 		.4byte	.LASF561
 9858 2ac4 30       		.byte	0x30
 9859 2ac5 CF02     		.2byte	0x2cf
 9860 2ac7 00290000 		.4byte	0x2900
 9861 2acb 1C       		.uleb128 0x1c
 9862 2acc F8200000 		.4byte	.LASF562
 9863 2ad0 30       		.byte	0x30
 9864 2ad1 D702     		.2byte	0x2d7
 9865 2ad3 00290000 		.4byte	0x2900
 9866 2ad7 06       		.uleb128 0x6
 9867 2ad8 5C0F0000 		.4byte	.LASF563
 9868 2adc 31       		.byte	0x31
 9869 2add 0301     		.2byte	0x103
 9870 2adf E32A0000 		.4byte	0x2ae3
 9871 2ae3 15       		.uleb128 0x15
 9872 2ae4 5C0F0000 		.4byte	.LASF563
 9873 2ae8 60       		.byte	0x60
 9874 2ae9 32       		.byte	0x32
 9875 2aea A401     		.2byte	0x1a4
 9876 2aec E82B0000 		.4byte	0x2be8
 9877 2af0 16       		.uleb128 0x16
 9878 2af1 0C130000 		.4byte	.LASF150
 9879 2af5 32       		.byte	0x32
 9880 2af6 A801     		.2byte	0x1a8
 9881 2af8 272C0000 		.4byte	0x2c27
 9882 2afc 00       		.byte	0
 9883 2afd 16       		.uleb128 0x16
 9884 2afe 3B180000 		.4byte	.LASF384
 9885 2b02 32       		.byte	0x32
 9886 2b03 AC01     		.2byte	0x1ac
 9887 2b05 CE340000 		.4byte	0x34ce
 9888 2b09 04       		.byte	0x4
 9889 2b0a 16       		.uleb128 0x16
 9890 2b0b 3E1C0000 		.4byte	.LASF564
 9891 2b0f 32       		.byte	0x32
 9892 2b10 B001     		.2byte	0x1b0
 9893 2b12 E0080000 		.4byte	0x8e0
 9894 2b16 08       		.byte	0x8
 9895 2b17 16       		.uleb128 0x16
 9896 2b18 8D1F0000 		.4byte	.LASF565
 9897 2b1c 32       		.byte	0x32
 9898 2b1d B401     		.2byte	0x1b4
 9899 2b1f E0080000 		.4byte	0x8e0
 9900 2b23 0A       		.byte	0xa
 9901 2b24 17       		.uleb128 0x17
 9902 2b25 65706300 		.ascii	"epc\000"
 9903 2b29 32       		.byte	0x32
 9904 2b2a B801     		.2byte	0x1b8
 9905 2b2c D4340000 		.4byte	0x34d4
 9906 2b30 0C       		.byte	0xc
 9907 2b31 16       		.uleb128 0x16
 9908 2b32 2B020000 		.4byte	.LASF566
 9909 2b36 32       		.byte	0x32
 9910 2b37 BF01     		.2byte	0x1bf
ARM GAS  /tmp/ccxvl19p.s 			page 175


 9911 2b39 EA340000 		.4byte	0x34ea
 9912 2b3d 1C       		.byte	0x1c
 9913 2b3e 16       		.uleb128 0x16
 9914 2b3f D30A0000 		.4byte	.LASF567
 9915 2b43 32       		.byte	0x32
 9916 2b44 C601     		.2byte	0x1c6
 9917 2b46 EA340000 		.4byte	0x34ea
 9918 2b4a 28       		.byte	0x28
 9919 2b4b 16       		.uleb128 0x16
 9920 2b4c CA0D0000 		.4byte	.LASF568
 9921 2b50 32       		.byte	0x32
 9922 2b51 CA01     		.2byte	0x1ca
 9923 2b53 992C0000 		.4byte	0x2c99
 9924 2b57 34       		.byte	0x34
 9925 2b58 16       		.uleb128 0x16
 9926 2b59 B7170000 		.4byte	.LASF569
 9927 2b5d 32       		.byte	0x32
 9928 2b5e CE01     		.2byte	0x1ce
 9929 2b60 42190000 		.4byte	0x1942
 9930 2b64 38       		.byte	0x38
 9931 2b65 16       		.uleb128 0x16
 9932 2b66 7B140000 		.4byte	.LASF570
 9933 2b6a 32       		.byte	0x32
 9934 2b6b D201     		.2byte	0x1d2
 9935 2b6d 33000000 		.4byte	0x33
 9936 2b71 3C       		.byte	0x3c
 9937 2b72 16       		.uleb128 0x16
 9938 2b73 74040000 		.4byte	.LASF571
 9939 2b77 32       		.byte	0x32
 9940 2b78 D601     		.2byte	0x1d6
 9941 2b7a 1F2D0000 		.4byte	0x2d1f
 9942 2b7e 40       		.byte	0x40
 9943 2b7f 16       		.uleb128 0x16
 9944 2b80 29060000 		.4byte	.LASF572
 9945 2b84 32       		.byte	0x32
 9946 2b85 DA01     		.2byte	0x1da
 9947 2b87 D7200000 		.4byte	0x20d7
 9948 2b8b 44       		.byte	0x44
 9949 2b8c 16       		.uleb128 0x16
 9950 2b8d 5C120000 		.4byte	.LASF573
 9951 2b91 32       		.byte	0x32
 9952 2b92 DE01     		.2byte	0x1de
 9953 2b94 E0080000 		.4byte	0x8e0
 9954 2b98 4C       		.byte	0x4c
 9955 2b99 16       		.uleb128 0x16
 9956 2b9a A6120000 		.4byte	.LASF574
 9957 2b9e 32       		.byte	0x32
 9958 2b9f E201     		.2byte	0x1e2
 9959 2ba1 D0080000 		.4byte	0x8d0
 9960 2ba5 4E       		.byte	0x4e
 9961 2ba6 16       		.uleb128 0x16
 9962 2ba7 27170000 		.4byte	.LASF575
 9963 2bab 32       		.byte	0x32
 9964 2bac E601     		.2byte	0x1e6
 9965 2bae D0080000 		.4byte	0x8d0
 9966 2bb2 4F       		.byte	0x4f
 9967 2bb3 16       		.uleb128 0x16
ARM GAS  /tmp/ccxvl19p.s 			page 176


 9968 2bb4 D1050000 		.4byte	.LASF576
 9969 2bb8 32       		.byte	0x32
 9970 2bb9 EA01     		.2byte	0x1ea
 9971 2bbb 272C0000 		.4byte	0x2c27
 9972 2bbf 50       		.byte	0x50
 9973 2bc0 17       		.uleb128 0x17
 9974 2bc1 6F746700 		.ascii	"otg\000"
 9975 2bc5 32       		.byte	0x32
 9976 2bc6 F201     		.2byte	0x1f2
 9977 2bc8 FA340000 		.4byte	0x34fa
 9978 2bcc 54       		.byte	0x54
 9979 2bcd 16       		.uleb128 0x16
 9980 2bce 5E0C0000 		.4byte	.LASF577
 9981 2bd2 32       		.byte	0x32
 9982 2bd3 F601     		.2byte	0x1f6
 9983 2bd5 00350000 		.4byte	0x3500
 9984 2bd9 58       		.byte	0x58
 9985 2bda 16       		.uleb128 0x16
 9986 2bdb F31A0000 		.4byte	.LASF578
 9987 2bdf 32       		.byte	0x32
 9988 2be0 FA01     		.2byte	0x1fa
 9989 2be2 00090000 		.4byte	0x900
 9990 2be6 5C       		.byte	0x5c
 9991 2be7 00       		.byte	0
 9992 2be8 06       		.uleb128 0x6
 9993 2be9 53010000 		.4byte	.LASF579
 9994 2bed 31       		.byte	0x31
 9995 2bee 0801     		.2byte	0x108
 9996 2bf0 D0080000 		.4byte	0x8d0
 9997 2bf4 27       		.uleb128 0x27
 9998 2bf5 07       		.byte	0x7
 9999 2bf6 01       		.byte	0x1
 10000 2bf7 63000000 		.4byte	0x63
 10001 2bfb 31       		.byte	0x31
 10002 2bfc 0D01     		.2byte	0x10d
 10003 2bfe 272C0000 		.4byte	0x2c27
 10004 2c02 26       		.uleb128 0x26
 10005 2c03 30200000 		.4byte	.LASF580
 10006 2c07 00       		.byte	0
 10007 2c08 26       		.uleb128 0x26
 10008 2c09 45070000 		.4byte	.LASF581
 10009 2c0d 01       		.byte	0x1
 10010 2c0e 26       		.uleb128 0x26
 10011 2c0f C6100000 		.4byte	.LASF582
 10012 2c13 02       		.byte	0x2
 10013 2c14 26       		.uleb128 0x26
 10014 2c15 BC150000 		.4byte	.LASF583
 10015 2c19 03       		.byte	0x3
 10016 2c1a 26       		.uleb128 0x26
 10017 2c1b 3A070000 		.4byte	.LASF584
 10018 2c1f 04       		.byte	0x4
 10019 2c20 26       		.uleb128 0x26
 10020 2c21 231D0000 		.4byte	.LASF585
 10021 2c25 05       		.byte	0x5
 10022 2c26 00       		.byte	0
 10023 2c27 06       		.uleb128 0x6
 10024 2c28 3A210000 		.4byte	.LASF586
ARM GAS  /tmp/ccxvl19p.s 			page 177


 10025 2c2c 31       		.byte	0x31
 10026 2c2d 1401     		.2byte	0x114
 10027 2c2f F42B0000 		.4byte	0x2bf4
 10028 2c33 27       		.uleb128 0x27
 10029 2c34 07       		.byte	0x7
 10030 2c35 01       		.byte	0x1
 10031 2c36 63000000 		.4byte	0x63
 10032 2c3a 31       		.byte	0x31
 10033 2c3b 1901     		.2byte	0x119
 10034 2c3d 542C0000 		.4byte	0x2c54
 10035 2c41 26       		.uleb128 0x26
 10036 2c42 2B1A0000 		.4byte	.LASF587
 10037 2c46 00       		.byte	0
 10038 2c47 26       		.uleb128 0x26
 10039 2c48 440C0000 		.4byte	.LASF588
 10040 2c4c 01       		.byte	0x1
 10041 2c4d 26       		.uleb128 0x26
 10042 2c4e BE030000 		.4byte	.LASF589
 10043 2c52 02       		.byte	0x2
 10044 2c53 00       		.byte	0
 10045 2c54 06       		.uleb128 0x6
 10046 2c55 F3020000 		.4byte	.LASF590
 10047 2c59 31       		.byte	0x31
 10048 2c5a 1D01     		.2byte	0x11d
 10049 2c5c 332C0000 		.4byte	0x2c33
 10050 2c60 27       		.uleb128 0x27
 10051 2c61 07       		.byte	0x7
 10052 2c62 01       		.byte	0x1
 10053 2c63 63000000 		.4byte	0x63
 10054 2c67 31       		.byte	0x31
 10055 2c68 2201     		.2byte	0x122
 10056 2c6a 992C0000 		.4byte	0x2c99
 10057 2c6e 26       		.uleb128 0x26
 10058 2c6f EC170000 		.4byte	.LASF591
 10059 2c73 00       		.byte	0
 10060 2c74 26       		.uleb128 0x26
 10061 2c75 021E0000 		.4byte	.LASF592
 10062 2c79 09       		.byte	0x9
 10063 2c7a 26       		.uleb128 0x26
 10064 2c7b 35020000 		.4byte	.LASF593
 10065 2c7f 0A       		.byte	0xa
 10066 2c80 26       		.uleb128 0x26
 10067 2c81 48190000 		.4byte	.LASF594
 10068 2c85 0B       		.byte	0xb
 10069 2c86 26       		.uleb128 0x26
 10070 2c87 35170000 		.4byte	.LASF595
 10071 2c8b 14       		.byte	0x14
 10072 2c8c 26       		.uleb128 0x26
 10073 2c8d 640D0000 		.4byte	.LASF596
 10074 2c91 15       		.byte	0x15
 10075 2c92 26       		.uleb128 0x26
 10076 2c93 560D0000 		.4byte	.LASF597
 10077 2c97 06       		.byte	0x6
 10078 2c98 00       		.byte	0
 10079 2c99 06       		.uleb128 0x6
 10080 2c9a 180F0000 		.4byte	.LASF598
 10081 2c9e 31       		.byte	0x31
ARM GAS  /tmp/ccxvl19p.s 			page 178


 10082 2c9f 2A01     		.2byte	0x12a
 10083 2ca1 602C0000 		.4byte	0x2c60
 10084 2ca5 27       		.uleb128 0x27
 10085 2ca6 07       		.byte	0x7
 10086 2ca7 01       		.byte	0x1
 10087 2ca8 63000000 		.4byte	0x63
 10088 2cac 31       		.byte	0x31
 10089 2cad 2F01     		.2byte	0x12f
 10090 2caf DE2C0000 		.4byte	0x2cde
 10091 2cb3 26       		.uleb128 0x26
 10092 2cb4 70190000 		.4byte	.LASF599
 10093 2cb8 00       		.byte	0
 10094 2cb9 26       		.uleb128 0x26
 10095 2cba 01160000 		.4byte	.LASF600
 10096 2cbe 01       		.byte	0x1
 10097 2cbf 26       		.uleb128 0x26
 10098 2cc0 6A110000 		.4byte	.LASF601
 10099 2cc4 02       		.byte	0x2
 10100 2cc5 26       		.uleb128 0x26
 10101 2cc6 81000000 		.4byte	.LASF602
 10102 2cca 03       		.byte	0x3
 10103 2ccb 26       		.uleb128 0x26
 10104 2ccc E4110000 		.4byte	.LASF603
 10105 2cd0 04       		.byte	0x4
 10106 2cd1 26       		.uleb128 0x26
 10107 2cd2 351F0000 		.4byte	.LASF604
 10108 2cd6 05       		.byte	0x5
 10109 2cd7 26       		.uleb128 0x26
 10110 2cd8 04110000 		.4byte	.LASF605
 10111 2cdc 06       		.byte	0x6
 10112 2cdd 00       		.byte	0
 10113 2cde 06       		.uleb128 0x6
 10114 2cdf 37160000 		.4byte	.LASF606
 10115 2ce3 31       		.byte	0x31
 10116 2ce4 3701     		.2byte	0x137
 10117 2ce6 A52C0000 		.4byte	0x2ca5
 10118 2cea 1E       		.uleb128 0x1e
 10119 2ceb 08       		.byte	0x8
 10120 2cec 31       		.byte	0x31
 10121 2ced 3C01     		.2byte	0x13c
 10122 2cef 0E2D0000 		.4byte	0x2d0e
 10123 2cf3 16       		.uleb128 0x16
 10124 2cf4 D6200000 		.4byte	.LASF607
 10125 2cf8 31       		.byte	0x31
 10126 2cf9 4001     		.2byte	0x140
 10127 2cfb 33000000 		.4byte	0x33
 10128 2cff 00       		.byte	0
 10129 2d00 16       		.uleb128 0x16
 10130 2d01 4D040000 		.4byte	.LASF608
 10131 2d05 31       		.byte	0x31
 10132 2d06 4401     		.2byte	0x144
 10133 2d08 771B0000 		.4byte	0x1b77
 10134 2d0c 04       		.byte	0x4
 10135 2d0d 00       		.byte	0
 10136 2d0e 06       		.uleb128 0x6
 10137 2d0f 63160000 		.4byte	.LASF609
 10138 2d13 31       		.byte	0x31
ARM GAS  /tmp/ccxvl19p.s 			page 179


 10139 2d14 4501     		.2byte	0x145
 10140 2d16 EA2C0000 		.4byte	0x2cea
 10141 2d1a 0F       		.uleb128 0xf
 10142 2d1b 0E2D0000 		.4byte	0x2d0e
 10143 2d1f 06       		.uleb128 0x6
 10144 2d20 6A200000 		.4byte	.LASF610
 10145 2d24 31       		.byte	0x31
 10146 2d25 4D01     		.2byte	0x14d
 10147 2d27 2B2D0000 		.4byte	0x2d2b
 10148 2d2b 0E       		.uleb128 0xe
 10149 2d2c 04       		.byte	0x4
 10150 2d2d 312D0000 		.4byte	0x2d31
 10151 2d31 1B       		.uleb128 0x1b
 10152 2d32 3C2D0000 		.4byte	0x2d3c
 10153 2d36 19       		.uleb128 0x19
 10154 2d37 3C2D0000 		.4byte	0x2d3c
 10155 2d3b 00       		.byte	0
 10156 2d3c 0E       		.uleb128 0xe
 10157 2d3d 04       		.byte	0x4
 10158 2d3e D72A0000 		.4byte	0x2ad7
 10159 2d42 06       		.uleb128 0x6
 10160 2d43 96040000 		.4byte	.LASF611
 10161 2d47 31       		.byte	0x31
 10162 2d48 5601     		.2byte	0x156
 10163 2d4a 4E2D0000 		.4byte	0x2d4e
 10164 2d4e 0E       		.uleb128 0xe
 10165 2d4f 04       		.byte	0x4
 10166 2d50 542D0000 		.4byte	0x2d54
 10167 2d54 1B       		.uleb128 0x1b
 10168 2d55 642D0000 		.4byte	0x2d64
 10169 2d59 19       		.uleb128 0x19
 10170 2d5a 3C2D0000 		.4byte	0x2d3c
 10171 2d5e 19       		.uleb128 0x19
 10172 2d5f E82B0000 		.4byte	0x2be8
 10173 2d63 00       		.byte	0
 10174 2d64 06       		.uleb128 0x6
 10175 2d65 FC090000 		.4byte	.LASF612
 10176 2d69 31       		.byte	0x31
 10177 2d6a 5F01     		.2byte	0x15f
 10178 2d6c 702D0000 		.4byte	0x2d70
 10179 2d70 0E       		.uleb128 0xe
 10180 2d71 04       		.byte	0x4
 10181 2d72 762D0000 		.4byte	0x2d76
 10182 2d76 1B       		.uleb128 0x1b
 10183 2d77 862D0000 		.4byte	0x2d86
 10184 2d7b 19       		.uleb128 0x19
 10185 2d7c 3C2D0000 		.4byte	0x2d3c
 10186 2d80 19       		.uleb128 0x19
 10187 2d81 DE2C0000 		.4byte	0x2cde
 10188 2d85 00       		.byte	0
 10189 2d86 06       		.uleb128 0x6
 10190 2d87 64150000 		.4byte	.LASF613
 10191 2d8b 31       		.byte	0x31
 10192 2d8c 6B01     		.2byte	0x16b
 10193 2d8e 922D0000 		.4byte	0x2d92
 10194 2d92 0E       		.uleb128 0xe
 10195 2d93 04       		.byte	0x4
ARM GAS  /tmp/ccxvl19p.s 			page 180


 10196 2d94 982D0000 		.4byte	0x2d98
 10197 2d98 18       		.uleb128 0x18
 10198 2d99 F5180000 		.4byte	0x18f5
 10199 2d9d A72D0000 		.4byte	0x2da7
 10200 2da1 19       		.uleb128 0x19
 10201 2da2 3C2D0000 		.4byte	0x2d3c
 10202 2da6 00       		.byte	0
 10203 2da7 06       		.uleb128 0x6
 10204 2da8 B00D0000 		.4byte	.LASF614
 10205 2dac 31       		.byte	0x31
 10206 2dad 7001     		.2byte	0x170
 10207 2daf B32D0000 		.4byte	0x2db3
 10208 2db3 0E       		.uleb128 0xe
 10209 2db4 04       		.byte	0x4
 10210 2db5 B92D0000 		.4byte	0x2db9
 10211 2db9 18       		.uleb128 0x18
 10212 2dba D72D0000 		.4byte	0x2dd7
 10213 2dbe D72D0000 		.4byte	0x2dd7
 10214 2dc2 19       		.uleb128 0x19
 10215 2dc3 3C2D0000 		.4byte	0x2d3c
 10216 2dc7 19       		.uleb128 0x19
 10217 2dc8 D0080000 		.4byte	0x8d0
 10218 2dcc 19       		.uleb128 0x19
 10219 2dcd D0080000 		.4byte	0x8d0
 10220 2dd1 19       		.uleb128 0x19
 10221 2dd2 E0080000 		.4byte	0x8e0
 10222 2dd6 00       		.byte	0
 10223 2dd7 0E       		.uleb128 0xe
 10224 2dd8 04       		.byte	0x4
 10225 2dd9 1A2D0000 		.4byte	0x2d1a
 10226 2ddd 0B       		.uleb128 0xb
 10227 2dde 20       		.byte	0x20
 10228 2ddf 33       		.byte	0x33
 10229 2de0 29       		.byte	0x29
 10230 2de1 462E0000 		.4byte	0x2e46
 10231 2de5 0C       		.uleb128 0xc
 10232 2de6 1A030000 		.4byte	.LASF615
 10233 2dea 33       		.byte	0x33
 10234 2deb 2A       		.byte	0x2a
 10235 2dec 0B090000 		.4byte	0x90b
 10236 2df0 00       		.byte	0
 10237 2df1 0C       		.uleb128 0xc
 10238 2df2 A00B0000 		.4byte	.LASF616
 10239 2df6 33       		.byte	0x33
 10240 2df7 2C       		.byte	0x2c
 10241 2df8 0B090000 		.4byte	0x90b
 10242 2dfc 04       		.byte	0x4
 10243 2dfd 0C       		.uleb128 0xc
 10244 2dfe 98020000 		.4byte	.LASF617
 10245 2e02 33       		.byte	0x33
 10246 2e03 2D       		.byte	0x2d
 10247 2e04 0B090000 		.4byte	0x90b
 10248 2e08 08       		.byte	0x8
 10249 2e09 0C       		.uleb128 0xc
 10250 2e0a 25180000 		.4byte	.LASF618
 10251 2e0e 33       		.byte	0x33
 10252 2e0f 2E       		.byte	0x2e
ARM GAS  /tmp/ccxvl19p.s 			page 181


 10253 2e10 0B090000 		.4byte	0x90b
 10254 2e14 0C       		.byte	0xc
 10255 2e15 0C       		.uleb128 0xc
 10256 2e16 63110000 		.4byte	.LASF619
 10257 2e1a 33       		.byte	0x33
 10258 2e1b 30       		.byte	0x30
 10259 2e1c 0B090000 		.4byte	0x90b
 10260 2e20 10       		.byte	0x10
 10261 2e21 0C       		.uleb128 0xc
 10262 2e22 F20B0000 		.4byte	.LASF620
 10263 2e26 33       		.byte	0x33
 10264 2e27 32       		.byte	0x32
 10265 2e28 0B090000 		.4byte	0x90b
 10266 2e2c 14       		.byte	0x14
 10267 2e2d 0C       		.uleb128 0xc
 10268 2e2e 050C0000 		.4byte	.LASF621
 10269 2e32 33       		.byte	0x33
 10270 2e33 33       		.byte	0x33
 10271 2e34 0B090000 		.4byte	0x90b
 10272 2e38 18       		.byte	0x18
 10273 2e39 0C       		.uleb128 0xc
 10274 2e3a 9C030000 		.4byte	.LASF622
 10275 2e3e 33       		.byte	0x33
 10276 2e3f 34       		.byte	0x34
 10277 2e40 0B090000 		.4byte	0x90b
 10278 2e44 1C       		.byte	0x1c
 10279 2e45 00       		.byte	0
 10280 2e46 04       		.uleb128 0x4
 10281 2e47 C6170000 		.4byte	.LASF623
 10282 2e4b 33       		.byte	0x33
 10283 2e4c 35       		.byte	0x35
 10284 2e4d DD2D0000 		.4byte	0x2ddd
 10285 2e51 0B       		.uleb128 0xb
 10286 2e52 20       		.byte	0x20
 10287 2e53 33       		.byte	0x33
 10288 2e54 3A       		.byte	0x3a
 10289 2e55 BA2E0000 		.4byte	0x2eba
 10290 2e59 0C       		.uleb128 0xc
 10291 2e5a 560C0000 		.4byte	.LASF624
 10292 2e5e 33       		.byte	0x33
 10293 2e5f 3B       		.byte	0x3b
 10294 2e60 0B090000 		.4byte	0x90b
 10295 2e64 00       		.byte	0
 10296 2e65 0C       		.uleb128 0xc
 10297 2e66 910B0000 		.4byte	.LASF625
 10298 2e6a 33       		.byte	0x33
 10299 2e6b 3D       		.byte	0x3d
 10300 2e6c 0B090000 		.4byte	0x90b
 10301 2e70 04       		.byte	0x4
 10302 2e71 0C       		.uleb128 0xc
 10303 2e72 681B0000 		.4byte	.LASF626
 10304 2e76 33       		.byte	0x33
 10305 2e77 3E       		.byte	0x3e
 10306 2e78 0B090000 		.4byte	0x90b
 10307 2e7c 08       		.byte	0x8
 10308 2e7d 0C       		.uleb128 0xc
 10309 2e7e 790F0000 		.4byte	.LASF627
ARM GAS  /tmp/ccxvl19p.s 			page 182


 10310 2e82 33       		.byte	0x33
 10311 2e83 40       		.byte	0x40
 10312 2e84 0B090000 		.4byte	0x90b
 10313 2e88 0C       		.byte	0xc
 10314 2e89 0C       		.uleb128 0xc
 10315 2e8a ED130000 		.4byte	.LASF628
 10316 2e8e 33       		.byte	0x33
 10317 2e8f 41       		.byte	0x41
 10318 2e90 0B090000 		.4byte	0x90b
 10319 2e94 10       		.byte	0x10
 10320 2e95 0C       		.uleb128 0xc
 10321 2e96 F20B0000 		.4byte	.LASF620
 10322 2e9a 33       		.byte	0x33
 10323 2e9b 43       		.byte	0x43
 10324 2e9c 0B090000 		.4byte	0x90b
 10325 2ea0 14       		.byte	0x14
 10326 2ea1 0C       		.uleb128 0xc
 10327 2ea2 96170000 		.4byte	.LASF629
 10328 2ea6 33       		.byte	0x33
 10329 2ea7 44       		.byte	0x44
 10330 2ea8 0B090000 		.4byte	0x90b
 10331 2eac 18       		.byte	0x18
 10332 2ead 0C       		.uleb128 0xc
 10333 2eae 0D0C0000 		.4byte	.LASF630
 10334 2eb2 33       		.byte	0x33
 10335 2eb3 46       		.byte	0x46
 10336 2eb4 0B090000 		.4byte	0x90b
 10337 2eb8 1C       		.byte	0x1c
 10338 2eb9 00       		.byte	0
 10339 2eba 04       		.uleb128 0x4
 10340 2ebb EE160000 		.4byte	.LASF631
 10341 2ebf 33       		.byte	0x33
 10342 2ec0 47       		.byte	0x47
 10343 2ec1 512E0000 		.4byte	0x2e51
 10344 2ec5 0B       		.uleb128 0xb
 10345 2ec6 20       		.byte	0x20
 10346 2ec7 33       		.byte	0x33
 10347 2ec8 4C       		.byte	0x4c
 10348 2ec9 2E2F0000 		.4byte	0x2f2e
 10349 2ecd 0C       		.uleb128 0xc
 10350 2ece 02120000 		.4byte	.LASF632
 10351 2ed2 33       		.byte	0x33
 10352 2ed3 4D       		.byte	0x4d
 10353 2ed4 0B090000 		.4byte	0x90b
 10354 2ed8 00       		.byte	0
 10355 2ed9 0C       		.uleb128 0xc
 10356 2eda 910B0000 		.4byte	.LASF625
 10357 2ede 33       		.byte	0x33
 10358 2edf 4F       		.byte	0x4f
 10359 2ee0 0B090000 		.4byte	0x90b
 10360 2ee4 04       		.byte	0x4
 10361 2ee5 0C       		.uleb128 0xc
 10362 2ee6 35150000 		.4byte	.LASF633
 10363 2eea 33       		.byte	0x33
 10364 2eeb 50       		.byte	0x50
 10365 2eec 0B090000 		.4byte	0x90b
 10366 2ef0 08       		.byte	0x8
ARM GAS  /tmp/ccxvl19p.s 			page 183


 10367 2ef1 0C       		.uleb128 0xc
 10368 2ef2 790F0000 		.4byte	.LASF627
 10369 2ef6 33       		.byte	0x33
 10370 2ef7 52       		.byte	0x52
 10371 2ef8 0B090000 		.4byte	0x90b
 10372 2efc 0C       		.byte	0xc
 10373 2efd 0C       		.uleb128 0xc
 10374 2efe 971C0000 		.4byte	.LASF634
 10375 2f02 33       		.byte	0x33
 10376 2f03 53       		.byte	0x53
 10377 2f04 0B090000 		.4byte	0x90b
 10378 2f08 10       		.byte	0x10
 10379 2f09 0C       		.uleb128 0xc
 10380 2f0a F20B0000 		.4byte	.LASF620
 10381 2f0e 33       		.byte	0x33
 10382 2f0f 55       		.byte	0x55
 10383 2f10 0B090000 		.4byte	0x90b
 10384 2f14 14       		.byte	0x14
 10385 2f15 0C       		.uleb128 0xc
 10386 2f16 050C0000 		.4byte	.LASF621
 10387 2f1a 33       		.byte	0x33
 10388 2f1b 56       		.byte	0x56
 10389 2f1c 0B090000 		.4byte	0x90b
 10390 2f20 18       		.byte	0x18
 10391 2f21 0C       		.uleb128 0xc
 10392 2f22 0D0C0000 		.4byte	.LASF630
 10393 2f26 33       		.byte	0x33
 10394 2f27 57       		.byte	0x57
 10395 2f28 0B090000 		.4byte	0x90b
 10396 2f2c 1C       		.byte	0x1c
 10397 2f2d 00       		.byte	0
 10398 2f2e 04       		.uleb128 0x4
 10399 2f2f F4060000 		.4byte	.LASF635
 10400 2f33 33       		.byte	0x33
 10401 2f34 58       		.byte	0x58
 10402 2f35 C52E0000 		.4byte	0x2ec5
 10403 2f39 28       		.uleb128 0x28
 10404 2f3a 00100100 		.4byte	0x11000
 10405 2f3e 33       		.byte	0x33
 10406 2f3f 5D       		.byte	0x5d
 10407 2f40 16320000 		.4byte	0x3216
 10408 2f44 0C       		.uleb128 0xc
 10409 2f45 8E040000 		.4byte	.LASF636
 10410 2f49 33       		.byte	0x33
 10411 2f4a 5E       		.byte	0x5e
 10412 2f4b 0B090000 		.4byte	0x90b
 10413 2f4f 00       		.byte	0
 10414 2f50 0C       		.uleb128 0xc
 10415 2f51 0F150000 		.4byte	.LASF637
 10416 2f55 33       		.byte	0x33
 10417 2f56 5F       		.byte	0x5f
 10418 2f57 0B090000 		.4byte	0x90b
 10419 2f5b 04       		.byte	0x4
 10420 2f5c 0C       		.uleb128 0xc
 10421 2f5d B5060000 		.4byte	.LASF638
 10422 2f61 33       		.byte	0x33
 10423 2f62 60       		.byte	0x60
ARM GAS  /tmp/ccxvl19p.s 			page 184


 10424 2f63 0B090000 		.4byte	0x90b
 10425 2f67 08       		.byte	0x8
 10426 2f68 0C       		.uleb128 0xc
 10427 2f69 8C200000 		.4byte	.LASF639
 10428 2f6d 33       		.byte	0x33
 10429 2f6e 61       		.byte	0x61
 10430 2f6f 0B090000 		.4byte	0x90b
 10431 2f73 0C       		.byte	0xc
 10432 2f74 0C       		.uleb128 0xc
 10433 2f75 311D0000 		.4byte	.LASF640
 10434 2f79 33       		.byte	0x33
 10435 2f7a 62       		.byte	0x62
 10436 2f7b 0B090000 		.4byte	0x90b
 10437 2f7f 10       		.byte	0x10
 10438 2f80 0C       		.uleb128 0xc
 10439 2f81 61030000 		.4byte	.LASF641
 10440 2f85 33       		.byte	0x33
 10441 2f86 63       		.byte	0x63
 10442 2f87 0B090000 		.4byte	0x90b
 10443 2f8b 14       		.byte	0x14
 10444 2f8c 0C       		.uleb128 0xc
 10445 2f8d 00170000 		.4byte	.LASF642
 10446 2f91 33       		.byte	0x33
 10447 2f92 64       		.byte	0x64
 10448 2f93 0B090000 		.4byte	0x90b
 10449 2f97 18       		.byte	0x18
 10450 2f98 0C       		.uleb128 0xc
 10451 2f99 0F070000 		.4byte	.LASF643
 10452 2f9d 33       		.byte	0x33
 10453 2f9e 65       		.byte	0x65
 10454 2f9f 0B090000 		.4byte	0x90b
 10455 2fa3 1C       		.byte	0x1c
 10456 2fa4 0C       		.uleb128 0xc
 10457 2fa5 07070000 		.4byte	.LASF644
 10458 2fa9 33       		.byte	0x33
 10459 2faa 67       		.byte	0x67
 10460 2fab 0B090000 		.4byte	0x90b
 10461 2faf 20       		.byte	0x20
 10462 2fb0 0C       		.uleb128 0xc
 10463 2fb1 9A160000 		.4byte	.LASF645
 10464 2fb5 33       		.byte	0x33
 10465 2fb6 69       		.byte	0x69
 10466 2fb7 0B090000 		.4byte	0x90b
 10467 2fbb 24       		.byte	0x24
 10468 2fbc 0C       		.uleb128 0xc
 10469 2fbd 98000000 		.4byte	.LASF646
 10470 2fc1 33       		.byte	0x33
 10471 2fc2 6A       		.byte	0x6a
 10472 2fc3 0B090000 		.4byte	0x90b
 10473 2fc7 28       		.byte	0x28
 10474 2fc8 0C       		.uleb128 0xc
 10475 2fc9 16170000 		.4byte	.LASF647
 10476 2fcd 33       		.byte	0x33
 10477 2fce 6C       		.byte	0x6c
 10478 2fcf 0B090000 		.4byte	0x90b
 10479 2fd3 2C       		.byte	0x2c
 10480 2fd4 0C       		.uleb128 0xc
ARM GAS  /tmp/ccxvl19p.s 			page 185


 10481 2fd5 FC0C0000 		.4byte	.LASF648
 10482 2fd9 33       		.byte	0x33
 10483 2fda 6E       		.byte	0x6e
 10484 2fdb 0B090000 		.4byte	0x90b
 10485 2fdf 30       		.byte	0x30
 10486 2fe0 0C       		.uleb128 0xc
 10487 2fe1 5E1F0000 		.4byte	.LASF649
 10488 2fe5 33       		.byte	0x33
 10489 2fe6 6F       		.byte	0x6f
 10490 2fe7 0B090000 		.4byte	0x90b
 10491 2feb 34       		.byte	0x34
 10492 2fec 0C       		.uleb128 0xc
 10493 2fed AA010000 		.4byte	.LASF650
 10494 2ff1 33       		.byte	0x33
 10495 2ff2 70       		.byte	0x70
 10496 2ff3 0B090000 		.4byte	0x90b
 10497 2ff7 38       		.byte	0x38
 10498 2ff8 11       		.uleb128 0x11
 10499 2ff9 43494400 		.ascii	"CID\000"
 10500 2ffd 33       		.byte	0x33
 10501 2ffe 71       		.byte	0x71
 10502 2fff 0B090000 		.4byte	0x90b
 10503 3003 3C       		.byte	0x3c
 10504 3004 0C       		.uleb128 0xc
 10505 3005 02080000 		.4byte	.LASF651
 10506 3009 33       		.byte	0x33
 10507 300a 72       		.byte	0x72
 10508 300b 26320000 		.4byte	0x3226
 10509 300f 40       		.byte	0x40
 10510 3010 13       		.uleb128 0x13
 10511 3011 771D0000 		.4byte	.LASF652
 10512 3015 33       		.byte	0x33
 10513 3016 73       		.byte	0x73
 10514 3017 0B090000 		.4byte	0x90b
 10515 301b 0001     		.2byte	0x100
 10516 301d 13       		.uleb128 0x13
 10517 301e 23020000 		.4byte	.LASF653
 10518 3022 33       		.byte	0x33
 10519 3023 75       		.byte	0x75
 10520 3024 A5130000 		.4byte	0x13a5
 10521 3028 0401     		.2byte	0x104
 10522 302a 13       		.uleb128 0x13
 10523 302b B9110000 		.4byte	.LASF654
 10524 302f 33       		.byte	0x33
 10525 3030 77       		.byte	0x77
 10526 3031 3B320000 		.4byte	0x323b
 10527 3035 4001     		.2byte	0x140
 10528 3037 13       		.uleb128 0x13
 10529 3038 B0140000 		.4byte	.LASF655
 10530 303c 33       		.byte	0x33
 10531 303d 78       		.byte	0x78
 10532 303e 0B090000 		.4byte	0x90b
 10533 3042 0004     		.2byte	0x400
 10534 3044 13       		.uleb128 0x13
 10535 3045 2B200000 		.4byte	.LASF656
 10536 3049 33       		.byte	0x33
 10537 304a 79       		.byte	0x79
ARM GAS  /tmp/ccxvl19p.s 			page 186


 10538 304b 0B090000 		.4byte	0x90b
 10539 304f 0404     		.2byte	0x404
 10540 3051 13       		.uleb128 0x13
 10541 3052 F0030000 		.4byte	.LASF657
 10542 3056 33       		.byte	0x33
 10543 3057 7A       		.byte	0x7a
 10544 3058 0B090000 		.4byte	0x90b
 10545 305c 0804     		.2byte	0x408
 10546 305e 13       		.uleb128 0x13
 10547 305f 090B0000 		.4byte	.LASF658
 10548 3063 33       		.byte	0x33
 10549 3064 7C       		.byte	0x7c
 10550 3065 0B090000 		.4byte	0x90b
 10551 3069 0C04     		.2byte	0x40c
 10552 306b 13       		.uleb128 0x13
 10553 306c DC020000 		.4byte	.LASF659
 10554 3070 33       		.byte	0x33
 10555 3071 7D       		.byte	0x7d
 10556 3072 0B090000 		.4byte	0x90b
 10557 3076 1004     		.2byte	0x410
 10558 3078 13       		.uleb128 0x13
 10559 3079 AF030000 		.4byte	.LASF660
 10560 307d 33       		.byte	0x33
 10561 307e 7F       		.byte	0x7f
 10562 307f 0B090000 		.4byte	0x90b
 10563 3083 1404     		.2byte	0x414
 10564 3085 13       		.uleb128 0x13
 10565 3086 CA0A0000 		.4byte	.LASF661
 10566 308a 33       		.byte	0x33
 10567 308b 81       		.byte	0x81
 10568 308c 0B090000 		.4byte	0x90b
 10569 3090 1804     		.2byte	0x418
 10570 3092 13       		.uleb128 0x13
 10571 3093 21190000 		.4byte	.LASF662
 10572 3097 33       		.byte	0x33
 10573 3098 83       		.byte	0x83
 10574 3099 50320000 		.4byte	0x3250
 10575 309d 1C04     		.2byte	0x41c
 10576 309f 13       		.uleb128 0x13
 10577 30a0 93020000 		.4byte	.LASF663
 10578 30a4 33       		.byte	0x33
 10579 30a5 84       		.byte	0x84
 10580 30a6 0B090000 		.4byte	0x90b
 10581 30aa 4004     		.2byte	0x440
 10582 30ac 13       		.uleb128 0x13
 10583 30ad A31A0000 		.4byte	.LASF664
 10584 30b1 33       		.byte	0x33
 10585 30b2 86       		.byte	0x86
 10586 30b3 65320000 		.4byte	0x3265
 10587 30b7 4404     		.2byte	0x444
 10588 30b9 29       		.uleb128 0x29
 10589 30ba 686300   		.ascii	"hc\000"
 10590 30bd 33       		.byte	0x33
 10591 30be 87       		.byte	0x87
 10592 30bf 6A320000 		.4byte	0x326a
 10593 30c3 0005     		.2byte	0x500
 10594 30c5 13       		.uleb128 0x13
ARM GAS  /tmp/ccxvl19p.s 			page 187


 10595 30c6 4C1D0000 		.4byte	.LASF665
 10596 30ca 33       		.byte	0x33
 10597 30cb 88       		.byte	0x88
 10598 30cc 8A320000 		.4byte	0x328a
 10599 30d0 0007     		.2byte	0x700
 10600 30d2 13       		.uleb128 0x13
 10601 30d3 3E1A0000 		.4byte	.LASF666
 10602 30d7 33       		.byte	0x33
 10603 30d8 89       		.byte	0x89
 10604 30d9 0B090000 		.4byte	0x90b
 10605 30dd 0008     		.2byte	0x800
 10606 30df 13       		.uleb128 0x13
 10607 30e0 221F0000 		.4byte	.LASF667
 10608 30e4 33       		.byte	0x33
 10609 30e5 8A       		.byte	0x8a
 10610 30e6 0B090000 		.4byte	0x90b
 10611 30ea 0408     		.2byte	0x804
 10612 30ec 13       		.uleb128 0x13
 10613 30ed 33050000 		.4byte	.LASF668
 10614 30f1 33       		.byte	0x33
 10615 30f2 8B       		.byte	0x8b
 10616 30f3 0B090000 		.4byte	0x90b
 10617 30f7 0808     		.2byte	0x808
 10618 30f9 13       		.uleb128 0x13
 10619 30fa 7D040000 		.4byte	.LASF669
 10620 30fe 33       		.byte	0x33
 10621 30ff 8C       		.byte	0x8c
 10622 3100 0B090000 		.4byte	0x90b
 10623 3104 0C08     		.2byte	0x80c
 10624 3106 13       		.uleb128 0x13
 10625 3107 A60A0000 		.4byte	.LASF670
 10626 310b 33       		.byte	0x33
 10627 310c 8D       		.byte	0x8d
 10628 310d 0B090000 		.4byte	0x90b
 10629 3111 1008     		.2byte	0x810
 10630 3113 13       		.uleb128 0x13
 10631 3114 01030000 		.4byte	.LASF671
 10632 3118 33       		.byte	0x33
 10633 3119 8F       		.byte	0x8f
 10634 311a 0B090000 		.4byte	0x90b
 10635 311e 1408     		.2byte	0x814
 10636 3120 13       		.uleb128 0x13
 10637 3121 041C0000 		.4byte	.LASF672
 10638 3125 33       		.byte	0x33
 10639 3126 91       		.byte	0x91
 10640 3127 0B090000 		.4byte	0x90b
 10641 312b 1808     		.2byte	0x818
 10642 312d 13       		.uleb128 0x13
 10643 312e EB190000 		.4byte	.LASF673
 10644 3132 33       		.byte	0x33
 10645 3133 93       		.byte	0x93
 10646 3134 0B090000 		.4byte	0x90b
 10647 3138 1C08     		.2byte	0x81c
 10648 313a 13       		.uleb128 0x13
 10649 313b 6C050000 		.4byte	.LASF674
 10650 313f 33       		.byte	0x33
 10651 3140 95       		.byte	0x95
ARM GAS  /tmp/ccxvl19p.s 			page 188


 10652 3141 0B090000 		.4byte	0x90b
 10653 3145 2008     		.2byte	0x820
 10654 3147 13       		.uleb128 0x13
 10655 3148 BD040000 		.4byte	.LASF675
 10656 314c 33       		.byte	0x33
 10657 314d 96       		.byte	0x96
 10658 314e 0B090000 		.4byte	0x90b
 10659 3152 2408     		.2byte	0x824
 10660 3154 13       		.uleb128 0x13
 10661 3155 20010000 		.4byte	.LASF676
 10662 3159 33       		.byte	0x33
 10663 315a 97       		.byte	0x97
 10664 315b 0B090000 		.4byte	0x90b
 10665 315f 2808     		.2byte	0x828
 10666 3161 13       		.uleb128 0x13
 10667 3162 1E060000 		.4byte	.LASF677
 10668 3166 33       		.byte	0x33
 10669 3167 99       		.byte	0x99
 10670 3168 0B090000 		.4byte	0x90b
 10671 316c 2C08     		.2byte	0x82c
 10672 316e 13       		.uleb128 0x13
 10673 316f E5050000 		.4byte	.LASF678
 10674 3173 33       		.byte	0x33
 10675 3174 9B       		.byte	0x9b
 10676 3175 0B090000 		.4byte	0x90b
 10677 3179 3008     		.2byte	0x830
 10678 317b 13       		.uleb128 0x13
 10679 317c 390C0000 		.4byte	.LASF679
 10680 3180 33       		.byte	0x33
 10681 3181 9C       		.byte	0x9c
 10682 3182 0B090000 		.4byte	0x90b
 10683 3186 3408     		.2byte	0x834
 10684 3188 13       		.uleb128 0x13
 10685 3189 FF050000 		.4byte	.LASF680
 10686 318d 33       		.byte	0x33
 10687 318e 9E       		.byte	0x9e
 10688 318f 0B090000 		.4byte	0x90b
 10689 3193 3808     		.2byte	0x838
 10690 3195 13       		.uleb128 0x13
 10691 3196 86060000 		.4byte	.LASF681
 10692 319a 33       		.byte	0x33
 10693 319b 9F       		.byte	0x9f
 10694 319c 0B090000 		.4byte	0x90b
 10695 31a0 3C08     		.2byte	0x83c
 10696 31a2 13       		.uleb128 0x13
 10697 31a3 C7060000 		.4byte	.LASF682
 10698 31a7 33       		.byte	0x33
 10699 31a8 A0       		.byte	0xa0
 10700 31a9 9F320000 		.4byte	0x329f
 10701 31ad 4008     		.2byte	0x840
 10702 31af 13       		.uleb128 0x13
 10703 31b0 BD0B0000 		.4byte	.LASF683
 10704 31b4 33       		.byte	0x33
 10705 31b5 A1       		.byte	0xa1
 10706 31b6 9F320000 		.4byte	0x329f
 10707 31ba 8008     		.2byte	0x880
 10708 31bc 13       		.uleb128 0x13
ARM GAS  /tmp/ccxvl19p.s 			page 189


 10709 31bd 660F0000 		.4byte	.LASF684
 10710 31c1 33       		.byte	0x33
 10711 31c2 A2       		.byte	0xa2
 10712 31c3 9F320000 		.4byte	0x329f
 10713 31c7 C008     		.2byte	0x8c0
 10714 31c9 29       		.uleb128 0x29
 10715 31ca 696500   		.ascii	"ie\000"
 10716 31cd 33       		.byte	0x33
 10717 31ce A3       		.byte	0xa3
 10718 31cf A4320000 		.4byte	0x32a4
 10719 31d3 0009     		.2byte	0x900
 10720 31d5 29       		.uleb128 0x29
 10721 31d6 6F6500   		.ascii	"oe\000"
 10722 31d9 33       		.byte	0x33
 10723 31da A4       		.byte	0xa4
 10724 31db B4320000 		.4byte	0x32b4
 10725 31df 000B     		.2byte	0xb00
 10726 31e1 13       		.uleb128 0x13
 10727 31e2 2B0E0000 		.4byte	.LASF685
 10728 31e6 33       		.byte	0x33
 10729 31e7 A5       		.byte	0xa5
 10730 31e8 8A320000 		.4byte	0x328a
 10731 31ec 000D     		.2byte	0xd00
 10732 31ee 13       		.uleb128 0x13
 10733 31ef 2D1F0000 		.4byte	.LASF686
 10734 31f3 33       		.byte	0x33
 10735 31f4 A6       		.byte	0xa6
 10736 31f5 0B090000 		.4byte	0x90b
 10737 31f9 000E     		.2byte	0xe00
 10738 31fb 13       		.uleb128 0x13
 10739 31fc 80140000 		.4byte	.LASF687
 10740 3200 33       		.byte	0x33
 10741 3201 A8       		.byte	0xa8
 10742 3202 D4320000 		.4byte	0x32d4
 10743 3206 040E     		.2byte	0xe04
 10744 3208 13       		.uleb128 0x13
 10745 3209 261E0000 		.4byte	.LASF688
 10746 320d 33       		.byte	0x33
 10747 320e A9       		.byte	0xa9
 10748 320f F0320000 		.4byte	0x32f0
 10749 3213 0010     		.2byte	0x1000
 10750 3215 00       		.byte	0
 10751 3216 09       		.uleb128 0x9
 10752 3217 0B090000 		.4byte	0x90b
 10753 321b 26320000 		.4byte	0x3226
 10754 321f 0A       		.uleb128 0xa
 10755 3220 25000000 		.4byte	0x25
 10756 3224 2F       		.byte	0x2f
 10757 3225 00       		.byte	0
 10758 3226 05       		.uleb128 0x5
 10759 3227 16320000 		.4byte	0x3216
 10760 322b 09       		.uleb128 0x9
 10761 322c 0B090000 		.4byte	0x90b
 10762 3230 3B320000 		.4byte	0x323b
 10763 3234 0A       		.uleb128 0xa
 10764 3235 25000000 		.4byte	0x25
 10765 3239 AF       		.byte	0xaf
ARM GAS  /tmp/ccxvl19p.s 			page 190


 10766 323a 00       		.byte	0
 10767 323b 05       		.uleb128 0x5
 10768 323c 2B320000 		.4byte	0x322b
 10769 3240 09       		.uleb128 0x9
 10770 3241 0B090000 		.4byte	0x90b
 10771 3245 50320000 		.4byte	0x3250
 10772 3249 0A       		.uleb128 0xa
 10773 324a 25000000 		.4byte	0x25
 10774 324e 08       		.byte	0x8
 10775 324f 00       		.byte	0
 10776 3250 05       		.uleb128 0x5
 10777 3251 40320000 		.4byte	0x3240
 10778 3255 09       		.uleb128 0x9
 10779 3256 0B090000 		.4byte	0x90b
 10780 325a 65320000 		.4byte	0x3265
 10781 325e 0A       		.uleb128 0xa
 10782 325f 25000000 		.4byte	0x25
 10783 3263 2E       		.byte	0x2e
 10784 3264 00       		.byte	0
 10785 3265 05       		.uleb128 0x5
 10786 3266 55320000 		.4byte	0x3255
 10787 326a 09       		.uleb128 0x9
 10788 326b 462E0000 		.4byte	0x2e46
 10789 326f 7A320000 		.4byte	0x327a
 10790 3273 0A       		.uleb128 0xa
 10791 3274 25000000 		.4byte	0x25
 10792 3278 0F       		.byte	0xf
 10793 3279 00       		.byte	0
 10794 327a 09       		.uleb128 0x9
 10795 327b 0B090000 		.4byte	0x90b
 10796 327f 8A320000 		.4byte	0x328a
 10797 3283 0A       		.uleb128 0xa
 10798 3284 25000000 		.4byte	0x25
 10799 3288 3F       		.byte	0x3f
 10800 3289 00       		.byte	0
 10801 328a 05       		.uleb128 0x5
 10802 328b 7A320000 		.4byte	0x327a
 10803 328f 09       		.uleb128 0x9
 10804 3290 0B090000 		.4byte	0x90b
 10805 3294 9F320000 		.4byte	0x329f
 10806 3298 0A       		.uleb128 0xa
 10807 3299 25000000 		.4byte	0x25
 10808 329d 0F       		.byte	0xf
 10809 329e 00       		.byte	0
 10810 329f 05       		.uleb128 0x5
 10811 32a0 8F320000 		.4byte	0x328f
 10812 32a4 09       		.uleb128 0x9
 10813 32a5 BA2E0000 		.4byte	0x2eba
 10814 32a9 B4320000 		.4byte	0x32b4
 10815 32ad 0A       		.uleb128 0xa
 10816 32ae 25000000 		.4byte	0x25
 10817 32b2 0F       		.byte	0xf
 10818 32b3 00       		.byte	0
 10819 32b4 09       		.uleb128 0x9
 10820 32b5 2E2F0000 		.4byte	0x2f2e
 10821 32b9 C4320000 		.4byte	0x32c4
 10822 32bd 0A       		.uleb128 0xa
ARM GAS  /tmp/ccxvl19p.s 			page 191


 10823 32be 25000000 		.4byte	0x25
 10824 32c2 0F       		.byte	0xf
 10825 32c3 00       		.byte	0
 10826 32c4 09       		.uleb128 0x9
 10827 32c5 0B090000 		.4byte	0x90b
 10828 32c9 D4320000 		.4byte	0x32d4
 10829 32cd 0A       		.uleb128 0xa
 10830 32ce 25000000 		.4byte	0x25
 10831 32d2 7E       		.byte	0x7e
 10832 32d3 00       		.byte	0
 10833 32d4 05       		.uleb128 0x5
 10834 32d5 C4320000 		.4byte	0x32c4
 10835 32d9 09       		.uleb128 0x9
 10836 32da 0B090000 		.4byte	0x90b
 10837 32de F0320000 		.4byte	0x32f0
 10838 32e2 0A       		.uleb128 0xa
 10839 32e3 25000000 		.4byte	0x25
 10840 32e7 0F       		.byte	0xf
 10841 32e8 2A       		.uleb128 0x2a
 10842 32e9 25000000 		.4byte	0x25
 10843 32ed FF03     		.2byte	0x3ff
 10844 32ef 00       		.byte	0
 10845 32f0 05       		.uleb128 0x5
 10846 32f1 D9320000 		.4byte	0x32d9
 10847 32f5 04       		.uleb128 0x4
 10848 32f6 B8200000 		.4byte	.LASF689
 10849 32fa 33       		.byte	0x33
 10850 32fb AA       		.byte	0xaa
 10851 32fc 392F0000 		.4byte	0x2f39
 10852 3300 1E       		.uleb128 0x1e
 10853 3301 0C       		.byte	0xc
 10854 3302 32       		.byte	0x32
 10855 3303 0301     		.2byte	0x103
 10856 3305 31330000 		.4byte	0x3331
 10857 3309 16       		.uleb128 0x16
 10858 330a 35080000 		.4byte	.LASF690
 10859 330e 32       		.byte	0x32
 10860 330f 0401     		.2byte	0x104
 10861 3311 00090000 		.4byte	0x900
 10862 3315 00       		.byte	0
 10863 3316 16       		.uleb128 0x16
 10864 3317 240A0000 		.4byte	.LASF691
 10865 331b 32       		.byte	0x32
 10866 331c 0501     		.2byte	0x105
 10867 331e 00090000 		.4byte	0x900
 10868 3322 04       		.byte	0x4
 10869 3323 16       		.uleb128 0x16
 10870 3324 890D0000 		.4byte	.LASF692
 10871 3328 32       		.byte	0x32
 10872 3329 0601     		.2byte	0x106
 10873 332b 00090000 		.4byte	0x900
 10874 332f 08       		.byte	0x8
 10875 3330 00       		.byte	0
 10876 3331 06       		.uleb128 0x6
 10877 3332 400A0000 		.4byte	.LASF693
 10878 3336 32       		.byte	0x32
 10879 3337 0701     		.2byte	0x107
ARM GAS  /tmp/ccxvl19p.s 			page 192


 10880 3339 00330000 		.4byte	0x3300
 10881 333d 0F       		.uleb128 0xf
 10882 333e 31330000 		.4byte	0x3331
 10883 3342 1E       		.uleb128 0x1e
 10884 3343 10       		.byte	0x10
 10885 3344 32       		.byte	0x32
 10886 3345 0C01     		.2byte	0x10c
 10887 3347 80330000 		.4byte	0x3380
 10888 334b 16       		.uleb128 0x16
 10889 334c 66100000 		.4byte	.LASF694
 10890 3350 32       		.byte	0x32
 10891 3351 1001     		.2byte	0x110
 10892 3353 33000000 		.4byte	0x33
 10893 3357 00       		.byte	0
 10894 3358 16       		.uleb128 0x16
 10895 3359 F6090000 		.4byte	.LASF695
 10896 335d 32       		.byte	0x32
 10897 335e 1401     		.2byte	0x114
 10898 3360 33000000 		.4byte	0x33
 10899 3364 04       		.byte	0x4
 10900 3365 16       		.uleb128 0x16
 10901 3366 271F0000 		.4byte	.LASF696
 10902 336a 32       		.byte	0x32
 10903 336b 1801     		.2byte	0x118
 10904 336d 771B0000 		.4byte	0x1b77
 10905 3371 08       		.byte	0x8
 10906 3372 16       		.uleb128 0x16
 10907 3373 A10D0000 		.4byte	.LASF697
 10908 3377 32       		.byte	0x32
 10909 3378 2301     		.2byte	0x123
 10910 337a 33000000 		.4byte	0x33
 10911 337e 0C       		.byte	0xc
 10912 337f 00       		.byte	0
 10913 3380 06       		.uleb128 0x6
 10914 3381 880E0000 		.4byte	.LASF698
 10915 3385 32       		.byte	0x32
 10916 3386 2401     		.2byte	0x124
 10917 3388 42330000 		.4byte	0x3342
 10918 338c 1E       		.uleb128 0x1e
 10919 338d 10       		.byte	0x10
 10920 338e 32       		.byte	0x32
 10921 338f 2901     		.2byte	0x129
 10922 3391 CA330000 		.4byte	0x33ca
 10923 3395 16       		.uleb128 0x16
 10924 3396 36110000 		.4byte	.LASF699
 10925 339a 32       		.byte	0x32
 10926 339b 2D01     		.2byte	0x12d
 10927 339d 33000000 		.4byte	0x33
 10928 33a1 00       		.byte	0
 10929 33a2 16       		.uleb128 0x16
 10930 33a3 A6070000 		.4byte	.LASF700
 10931 33a7 32       		.byte	0x32
 10932 33a8 3101     		.2byte	0x131
 10933 33aa 33000000 		.4byte	0x33
 10934 33ae 04       		.byte	0x4
 10935 33af 16       		.uleb128 0x16
 10936 33b0 610A0000 		.4byte	.LASF549
ARM GAS  /tmp/ccxvl19p.s 			page 193


 10937 33b4 32       		.byte	0x32
 10938 33b5 3501     		.2byte	0x135
 10939 33b7 42190000 		.4byte	0x1942
 10940 33bb 08       		.byte	0x8
 10941 33bc 16       		.uleb128 0x16
 10942 33bd A10D0000 		.4byte	.LASF697
 10943 33c1 32       		.byte	0x32
 10944 33c2 4001     		.2byte	0x140
 10945 33c4 33000000 		.4byte	0x33
 10946 33c8 0C       		.byte	0xc
 10947 33c9 00       		.byte	0
 10948 33ca 06       		.uleb128 0x6
 10949 33cb 0D190000 		.4byte	.LASF701
 10950 33cf 32       		.byte	0x32
 10951 33d0 4101     		.2byte	0x141
 10952 33d2 8C330000 		.4byte	0x338c
 10953 33d6 1E       		.uleb128 0x1e
 10954 33d7 24       		.byte	0x24
 10955 33d8 32       		.byte	0x32
 10956 33d9 4701     		.2byte	0x147
 10957 33db 62340000 		.4byte	0x3462
 10958 33df 16       		.uleb128 0x16
 10959 33e0 4D140000 		.4byte	.LASF702
 10960 33e4 32       		.byte	0x32
 10961 33e5 4B01     		.2byte	0x14b
 10962 33e7 00090000 		.4byte	0x900
 10963 33eb 00       		.byte	0
 10964 33ec 16       		.uleb128 0x16
 10965 33ed 5A080000 		.4byte	.LASF703
 10966 33f1 32       		.byte	0x32
 10967 33f2 5601     		.2byte	0x156
 10968 33f4 422D0000 		.4byte	0x2d42
 10969 33f8 04       		.byte	0x4
 10970 33f9 16       		.uleb128 0x16
 10971 33fa 2F150000 		.4byte	.LASF704
 10972 33fe 32       		.byte	0x32
 10973 33ff 5B01     		.2byte	0x15b
 10974 3401 422D0000 		.4byte	0x2d42
 10975 3405 08       		.byte	0x8
 10976 3406 16       		.uleb128 0x16
 10977 3407 C30A0000 		.4byte	.LASF705
 10978 340b 32       		.byte	0x32
 10979 340c 6001     		.2byte	0x160
 10980 340e 422D0000 		.4byte	0x2d42
 10981 3412 0C       		.byte	0xc
 10982 3413 16       		.uleb128 0x16
 10983 3414 FF200000 		.4byte	.LASF706
 10984 3418 32       		.byte	0x32
 10985 3419 6501     		.2byte	0x165
 10986 341b E0080000 		.4byte	0x8e0
 10987 341f 10       		.byte	0x10
 10988 3420 16       		.uleb128 0x16
 10989 3421 F60D0000 		.4byte	.LASF707
 10990 3425 32       		.byte	0x32
 10991 3426 6A01     		.2byte	0x16a
 10992 3428 E0080000 		.4byte	0x8e0
 10993 342c 12       		.byte	0x12
ARM GAS  /tmp/ccxvl19p.s 			page 194


 10994 342d 16       		.uleb128 0x16
 10995 342e D11F0000 		.4byte	.LASF708
 10996 3432 32       		.byte	0x32
 10997 3433 7001     		.2byte	0x170
 10998 3435 62340000 		.4byte	0x3462
 10999 3439 14       		.byte	0x14
 11000 343a 16       		.uleb128 0x16
 11001 343b A00C0000 		.4byte	.LASF709
 11002 343f 32       		.byte	0x32
 11003 3440 7601     		.2byte	0x176
 11004 3442 68340000 		.4byte	0x3468
 11005 3446 18       		.byte	0x18
 11006 3447 16       		.uleb128 0x16
 11007 3448 C30F0000 		.4byte	.LASF710
 11008 344c 32       		.byte	0x32
 11009 344d 7D01     		.2byte	0x17d
 11010 344f E0080000 		.4byte	0x8e0
 11011 3453 1C       		.byte	0x1c
 11012 3454 16       		.uleb128 0x16
 11013 3455 541F0000 		.4byte	.LASF711
 11014 3459 32       		.byte	0x32
 11015 345a 8301     		.2byte	0x183
 11016 345c 42190000 		.4byte	0x1942
 11017 3460 20       		.byte	0x20
 11018 3461 00       		.byte	0
 11019 3462 0E       		.uleb128 0xe
 11020 3463 04       		.byte	0x4
 11021 3464 80330000 		.4byte	0x3380
 11022 3468 0E       		.uleb128 0xe
 11023 3469 04       		.byte	0x4
 11024 346a CA330000 		.4byte	0x33ca
 11025 346e 06       		.uleb128 0x6
 11026 346f 891A0000 		.4byte	.LASF712
 11027 3473 32       		.byte	0x32
 11028 3474 8401     		.2byte	0x184
 11029 3476 D6330000 		.4byte	0x33d6
 11030 347a 0F       		.uleb128 0xf
 11031 347b 6E340000 		.4byte	0x346e
 11032 347f 1E       		.uleb128 0x1e
 11033 3480 10       		.byte	0x10
 11034 3481 32       		.byte	0x32
 11035 3482 8901     		.2byte	0x189
 11036 3484 BD340000 		.4byte	0x34bd
 11037 3488 16       		.uleb128 0x16
 11038 3489 AE0A0000 		.4byte	.LASF713
 11039 348d 32       		.byte	0x32
 11040 348e 8E01     		.2byte	0x18e
 11041 3490 642D0000 		.4byte	0x2d64
 11042 3494 00       		.byte	0
 11043 3495 16       		.uleb128 0x16
 11044 3496 D11D0000 		.4byte	.LASF714
 11045 349a 32       		.byte	0x32
 11046 349b 9301     		.2byte	0x193
 11047 349d A72D0000 		.4byte	0x2da7
 11048 34a1 04       		.byte	0x4
 11049 34a2 16       		.uleb128 0x16
 11050 34a3 3C100000 		.4byte	.LASF715
ARM GAS  /tmp/ccxvl19p.s 			page 195


 11051 34a7 32       		.byte	0x32
 11052 34a8 9901     		.2byte	0x199
 11053 34aa 862D0000 		.4byte	0x2d86
 11054 34ae 08       		.byte	0x8
 11055 34af 16       		.uleb128 0x16
 11056 34b0 E0010000 		.4byte	.LASF716
 11057 34b4 32       		.byte	0x32
 11058 34b5 9D01     		.2byte	0x19d
 11059 34b7 1F2D0000 		.4byte	0x2d1f
 11060 34bb 0C       		.byte	0xc
 11061 34bc 00       		.byte	0
 11062 34bd 06       		.uleb128 0x6
 11063 34be 6F0F0000 		.4byte	.LASF717
 11064 34c2 32       		.byte	0x32
 11065 34c3 9F01     		.2byte	0x19f
 11066 34c5 7F340000 		.4byte	0x347f
 11067 34c9 0F       		.uleb128 0xf
 11068 34ca BD340000 		.4byte	0x34bd
 11069 34ce 0E       		.uleb128 0xe
 11070 34cf 04       		.byte	0x4
 11071 34d0 C9340000 		.4byte	0x34c9
 11072 34d4 09       		.uleb128 0x9
 11073 34d5 E4340000 		.4byte	0x34e4
 11074 34d9 E4340000 		.4byte	0x34e4
 11075 34dd 0A       		.uleb128 0xa
 11076 34de 25000000 		.4byte	0x25
 11077 34e2 03       		.byte	0x3
 11078 34e3 00       		.byte	0
 11079 34e4 0E       		.uleb128 0xe
 11080 34e5 04       		.byte	0x4
 11081 34e6 7A340000 		.4byte	0x347a
 11082 34ea 09       		.uleb128 0x9
 11083 34eb 4C010000 		.4byte	0x14c
 11084 34ef FA340000 		.4byte	0x34fa
 11085 34f3 0A       		.uleb128 0xa
 11086 34f4 25000000 		.4byte	0x25
 11087 34f8 02       		.byte	0x2
 11088 34f9 00       		.byte	0
 11089 34fa 0E       		.uleb128 0xe
 11090 34fb 04       		.byte	0x4
 11091 34fc F5320000 		.4byte	0x32f5
 11092 3500 0E       		.uleb128 0xe
 11093 3501 04       		.byte	0x4
 11094 3502 3D330000 		.4byte	0x333d
 11095 3506 1C       		.uleb128 0x1c
 11096 3507 A1000000 		.4byte	.LASF718
 11097 350b 32       		.byte	0x32
 11098 350c 3902     		.2byte	0x239
 11099 350e D72A0000 		.4byte	0x2ad7
 11100 3512 2B       		.uleb128 0x2b
 11101 3513 06350000 		.4byte	0x3506
 11102 3517 01       		.byte	0x1
 11103 3518 41       		.byte	0x41
 11104 3519 05       		.uleb128 0x5
 11105 351a 03       		.byte	0x3
 11106 351b 00000000 		.4byte	USBD1
 11107 351f 07       		.uleb128 0x7
ARM GAS  /tmp/ccxvl19p.s 			page 196


 11108 3520 10       		.byte	0x10
 11109 3521 01       		.byte	0x1
 11110 3522 52       		.byte	0x52
 11111 3523 3D350000 		.4byte	0x353d
 11112 3527 2C       		.uleb128 0x2c
 11113 3528 696E00   		.ascii	"in\000"
 11114 352b 01       		.byte	0x1
 11115 352c 56       		.byte	0x56
 11116 352d 80330000 		.4byte	0x3380
 11117 3531 2C       		.uleb128 0x2c
 11118 3532 6F757400 		.ascii	"out\000"
 11119 3536 01       		.byte	0x1
 11120 3537 5A       		.byte	0x5a
 11121 3538 CA330000 		.4byte	0x33ca
 11122 353c 00       		.byte	0
 11123 353d 2D       		.uleb128 0x2d
 11124 353e 4D170000 		.4byte	.LASF719
 11125 3542 01       		.byte	0x1
 11126 3543 5B       		.byte	0x5b
 11127 3544 1F350000 		.4byte	0x351f
 11128 3548 05       		.uleb128 0x5
 11129 3549 03       		.byte	0x3
 11130 354a 00000000 		.4byte	ep0_state
 11131 354e 2D       		.uleb128 0x2d
 11132 354f C2080000 		.4byte	.LASF720
 11133 3553 01       		.byte	0x1
 11134 3554 60       		.byte	0x60
 11135 3555 D7200000 		.4byte	0x20d7
 11136 3559 05       		.uleb128 0x5
 11137 355a 03       		.byte	0x3
 11138 355b 00000000 		.4byte	ep0setup_buffer
 11139 355f 2D       		.uleb128 0x2d
 11140 3560 D2020000 		.4byte	.LASF721
 11141 3564 01       		.byte	0x1
 11142 3565 65       		.byte	0x65
 11143 3566 7A340000 		.4byte	0x347a
 11144 356a 05       		.uleb128 0x5
 11145 356b 03       		.byte	0x3
 11146 356c 00000000 		.4byte	ep0config
 11147 3570 2D       		.uleb128 0x2d
 11148 3571 89050000 		.4byte	.LASF722
 11149 3575 01       		.byte	0x1
 11150 3576 73       		.byte	0x73
 11151 3577 3D330000 		.4byte	0x333d
 11152 357b 05       		.uleb128 0x5
 11153 357c 03       		.byte	0x3
 11154 357d 00000000 		.4byte	fsparams
 11155 3581 2E       		.uleb128 0x2e
 11156 3582 E30A0000 		.4byte	.LASF724
 11157 3586 01       		.byte	0x1
 11158 3587 E304     		.2byte	0x4e3
 11159 3589 00000000 		.4byte	.LFB358
 11160 358d 14000000 		.4byte	.LFE358-.LFB358
 11161 3591 01       		.uleb128 0x1
 11162 3592 9C       		.byte	0x9c
 11163 3593 B5350000 		.4byte	0x35b5
 11164 3597 2F       		.uleb128 0x2f
ARM GAS  /tmp/ccxvl19p.s 			page 197


 11165 3598 5D1D0000 		.4byte	.LASF723
 11166 359c 01       		.byte	0x1
 11167 359d E304     		.2byte	0x4e3
 11168 359f 3C2D0000 		.4byte	0x2d3c
 11169 35a3 01       		.uleb128 0x1
 11170 35a4 50       		.byte	0x50
 11171 35a5 30       		.uleb128 0x30
 11172 35a6 657000   		.ascii	"ep\000"
 11173 35a9 01       		.byte	0x1
 11174 35aa E304     		.2byte	0x4e3
 11175 35ac E82B0000 		.4byte	0x2be8
 11176 35b0 00000000 		.4byte	.LLST189
 11177 35b4 00       		.byte	0
 11178 35b5 2E       		.uleb128 0x2e
 11179 35b6 801D0000 		.4byte	.LASF725
 11180 35ba 01       		.byte	0x1
 11181 35bb D604     		.2byte	0x4d6
 11182 35bd 00000000 		.4byte	.LFB357
 11183 35c1 14000000 		.4byte	.LFE357-.LFB357
 11184 35c5 01       		.uleb128 0x1
 11185 35c6 9C       		.byte	0x9c
 11186 35c7 E9350000 		.4byte	0x35e9
 11187 35cb 2F       		.uleb128 0x2f
 11188 35cc 5D1D0000 		.4byte	.LASF723
 11189 35d0 01       		.byte	0x1
 11190 35d1 D604     		.2byte	0x4d6
 11191 35d3 3C2D0000 		.4byte	0x2d3c
 11192 35d7 01       		.uleb128 0x1
 11193 35d8 50       		.byte	0x50
 11194 35d9 30       		.uleb128 0x30
 11195 35da 657000   		.ascii	"ep\000"
 11196 35dd 01       		.byte	0x1
 11197 35de D604     		.2byte	0x4d6
 11198 35e0 E82B0000 		.4byte	0x2be8
 11199 35e4 21000000 		.4byte	.LLST188
 11200 35e8 00       		.byte	0
 11201 35e9 2E       		.uleb128 0x2e
 11202 35ea BF0E0000 		.4byte	.LASF726
 11203 35ee 01       		.byte	0x1
 11204 35ef C904     		.2byte	0x4c9
 11205 35f1 00000000 		.4byte	.LFB356
 11206 35f5 14000000 		.4byte	.LFE356-.LFB356
 11207 35f9 01       		.uleb128 0x1
 11208 35fa 9C       		.byte	0x9c
 11209 35fb 1D360000 		.4byte	0x361d
 11210 35ff 2F       		.uleb128 0x2f
 11211 3600 5D1D0000 		.4byte	.LASF723
 11212 3604 01       		.byte	0x1
 11213 3605 C904     		.2byte	0x4c9
 11214 3607 3C2D0000 		.4byte	0x2d3c
 11215 360b 01       		.uleb128 0x1
 11216 360c 50       		.byte	0x50
 11217 360d 30       		.uleb128 0x30
 11218 360e 657000   		.ascii	"ep\000"
 11219 3611 01       		.byte	0x1
 11220 3612 C904     		.2byte	0x4c9
 11221 3614 E82B0000 		.4byte	0x2be8
ARM GAS  /tmp/ccxvl19p.s 			page 198


 11222 3618 42000000 		.4byte	.LLST187
 11223 361c 00       		.byte	0
 11224 361d 2E       		.uleb128 0x2e
 11225 361e C4200000 		.4byte	.LASF727
 11226 3622 01       		.byte	0x1
 11227 3623 BC04     		.2byte	0x4bc
 11228 3625 00000000 		.4byte	.LFB355
 11229 3629 14000000 		.4byte	.LFE355-.LFB355
 11230 362d 01       		.uleb128 0x1
 11231 362e 9C       		.byte	0x9c
 11232 362f 51360000 		.4byte	0x3651
 11233 3633 2F       		.uleb128 0x2f
 11234 3634 5D1D0000 		.4byte	.LASF723
 11235 3638 01       		.byte	0x1
 11236 3639 BC04     		.2byte	0x4bc
 11237 363b 3C2D0000 		.4byte	0x2d3c
 11238 363f 01       		.uleb128 0x1
 11239 3640 50       		.byte	0x50
 11240 3641 30       		.uleb128 0x30
 11241 3642 657000   		.ascii	"ep\000"
 11242 3645 01       		.byte	0x1
 11243 3646 BC04     		.2byte	0x4bc
 11244 3648 E82B0000 		.4byte	0x2be8
 11245 364c 63000000 		.4byte	.LLST186
 11246 3650 00       		.byte	0
 11247 3651 31       		.uleb128 0x31
 11248 3652 E10B0000 		.4byte	.LASF729
 11249 3656 01       		.byte	0x1
 11250 3657 9104     		.2byte	0x491
 11251 3659 01       		.byte	0x1
 11252 365a 90360000 		.4byte	0x3690
 11253 365e 32       		.uleb128 0x32
 11254 365f 5D1D0000 		.4byte	.LASF723
 11255 3663 01       		.byte	0x1
 11256 3664 9104     		.2byte	0x491
 11257 3666 3C2D0000 		.4byte	0x2d3c
 11258 366a 33       		.uleb128 0x33
 11259 366b 657000   		.ascii	"ep\000"
 11260 366e 01       		.byte	0x1
 11261 366f 9104     		.2byte	0x491
 11262 3671 E82B0000 		.4byte	0x2be8
 11263 3675 34       		.uleb128 0x34
 11264 3676 69737000 		.ascii	"isp\000"
 11265 367a 01       		.byte	0x1
 11266 367b 9204     		.2byte	0x492
 11267 367d 62340000 		.4byte	0x3462
 11268 3681 35       		.uleb128 0x35
 11269 3682 36       		.uleb128 0x36
 11270 3683 49160000 		.4byte	.LASF728
 11271 3687 01       		.byte	0x1
 11272 3688 9F04     		.2byte	0x49f
 11273 368a 00090000 		.4byte	0x900
 11274 368e 00       		.byte	0
 11275 368f 00       		.byte	0
 11276 3690 31       		.uleb128 0x31
 11277 3691 9B090000 		.4byte	.LASF730
 11278 3695 01       		.byte	0x1
ARM GAS  /tmp/ccxvl19p.s 			page 199


 11279 3696 6604     		.2byte	0x466
 11280 3698 01       		.byte	0x1
 11281 3699 D9360000 		.4byte	0x36d9
 11282 369d 32       		.uleb128 0x32
 11283 369e 5D1D0000 		.4byte	.LASF723
 11284 36a2 01       		.byte	0x1
 11285 36a3 6604     		.2byte	0x466
 11286 36a5 3C2D0000 		.4byte	0x2d3c
 11287 36a9 33       		.uleb128 0x33
 11288 36aa 657000   		.ascii	"ep\000"
 11289 36ad 01       		.byte	0x1
 11290 36ae 6604     		.2byte	0x466
 11291 36b0 E82B0000 		.4byte	0x2be8
 11292 36b4 36       		.uleb128 0x36
 11293 36b5 49160000 		.4byte	.LASF728
 11294 36b9 01       		.byte	0x1
 11295 36ba 6704     		.2byte	0x467
 11296 36bc 00090000 		.4byte	0x900
 11297 36c0 36       		.uleb128 0x36
 11298 36c1 36110000 		.4byte	.LASF699
 11299 36c5 01       		.byte	0x1
 11300 36c6 6704     		.2byte	0x467
 11301 36c8 00090000 		.4byte	0x900
 11302 36cc 34       		.uleb128 0x34
 11303 36cd 6F737000 		.ascii	"osp\000"
 11304 36d1 01       		.byte	0x1
 11305 36d2 6804     		.2byte	0x468
 11306 36d4 68340000 		.4byte	0x3468
 11307 36d8 00       		.byte	0
 11308 36d9 2E       		.uleb128 0x2e
 11309 36da 580E0000 		.4byte	.LASF731
 11310 36de 01       		.byte	0x1
 11311 36df 5904     		.2byte	0x459
 11312 36e1 00000000 		.4byte	.LFB352
 11313 36e5 12000000 		.4byte	.LFE352-.LFB352
 11314 36e9 01       		.uleb128 0x1
 11315 36ea 9C       		.byte	0x9c
 11316 36eb 1B370000 		.4byte	0x371b
 11317 36ef 2F       		.uleb128 0x2f
 11318 36f0 5D1D0000 		.4byte	.LASF723
 11319 36f4 01       		.byte	0x1
 11320 36f5 5904     		.2byte	0x459
 11321 36f7 3C2D0000 		.4byte	0x2d3c
 11322 36fb 01       		.uleb128 0x1
 11323 36fc 50       		.byte	0x50
 11324 36fd 30       		.uleb128 0x30
 11325 36fe 657000   		.ascii	"ep\000"
 11326 3701 01       		.byte	0x1
 11327 3702 5904     		.2byte	0x459
 11328 3704 E82B0000 		.4byte	0x2be8
 11329 3708 84000000 		.4byte	.LLST176
 11330 370c 37       		.uleb128 0x37
 11331 370d 62756600 		.ascii	"buf\000"
 11332 3711 01       		.byte	0x1
 11333 3712 5904     		.2byte	0x459
 11334 3714 42190000 		.4byte	0x1942
 11335 3718 01       		.uleb128 0x1
ARM GAS  /tmp/ccxvl19p.s 			page 200


 11336 3719 52       		.byte	0x52
 11337 371a 00       		.byte	0
 11338 371b 38       		.uleb128 0x38
 11339 371c C2110000 		.4byte	.LASF732
 11340 3720 01       		.byte	0x1
 11341 3721 3E04     		.2byte	0x43e
 11342 3723 542C0000 		.4byte	0x2c54
 11343 3727 00000000 		.4byte	.LFB351
 11344 372b 1A000000 		.4byte	.LFE351-.LFB351
 11345 372f 01       		.uleb128 0x1
 11346 3730 9C       		.byte	0x9c
 11347 3731 63370000 		.4byte	0x3763
 11348 3735 39       		.uleb128 0x39
 11349 3736 5D1D0000 		.4byte	.LASF723
 11350 373a 01       		.byte	0x1
 11351 373b 3E04     		.2byte	0x43e
 11352 373d 3C2D0000 		.4byte	0x2d3c
 11353 3741 A5000000 		.4byte	.LLST174
 11354 3745 30       		.uleb128 0x30
 11355 3746 657000   		.ascii	"ep\000"
 11356 3749 01       		.byte	0x1
 11357 374a 3E04     		.2byte	0x43e
 11358 374c E82B0000 		.4byte	0x2be8
 11359 3750 C6000000 		.4byte	.LLST175
 11360 3754 3A       		.uleb128 0x3a
 11361 3755 63746C00 		.ascii	"ctl\000"
 11362 3759 01       		.byte	0x1
 11363 375a 3F04     		.2byte	0x43f
 11364 375c 00090000 		.4byte	0x900
 11365 3760 01       		.uleb128 0x1
 11366 3761 53       		.byte	0x53
 11367 3762 00       		.byte	0
 11368 3763 38       		.uleb128 0x38
 11369 3764 541C0000 		.4byte	.LASF733
 11370 3768 01       		.byte	0x1
 11371 3769 2504     		.2byte	0x425
 11372 376b 542C0000 		.4byte	0x2c54
 11373 376f 00000000 		.4byte	.LFB350
 11374 3773 1A000000 		.4byte	.LFE350-.LFB350
 11375 3777 01       		.uleb128 0x1
 11376 3778 9C       		.byte	0x9c
 11377 3779 AB370000 		.4byte	0x37ab
 11378 377d 39       		.uleb128 0x39
 11379 377e 5D1D0000 		.4byte	.LASF723
 11380 3782 01       		.byte	0x1
 11381 3783 2504     		.2byte	0x425
 11382 3785 3C2D0000 		.4byte	0x2d3c
 11383 3789 E7000000 		.4byte	.LLST172
 11384 378d 30       		.uleb128 0x30
 11385 378e 657000   		.ascii	"ep\000"
 11386 3791 01       		.byte	0x1
 11387 3792 2504     		.2byte	0x425
 11388 3794 E82B0000 		.4byte	0x2be8
 11389 3798 08010000 		.4byte	.LLST173
 11390 379c 3A       		.uleb128 0x3a
 11391 379d 63746C00 		.ascii	"ctl\000"
 11392 37a1 01       		.byte	0x1
ARM GAS  /tmp/ccxvl19p.s 			page 201


 11393 37a2 2604     		.2byte	0x426
 11394 37a4 00090000 		.4byte	0x900
 11395 37a8 01       		.uleb128 0x1
 11396 37a9 53       		.byte	0x53
 11397 37aa 00       		.byte	0
 11398 37ab 2E       		.uleb128 0x2e
 11399 37ac 3D110000 		.4byte	.LASF734
 11400 37b0 01       		.byte	0x1
 11401 37b1 1004     		.2byte	0x410
 11402 37b3 00000000 		.4byte	.LFB349
 11403 37b7 E8010000 		.4byte	.LFE349-.LFB349
 11404 37bb 01       		.uleb128 0x1
 11405 37bc 9C       		.byte	0x9c
 11406 37bd 30380000 		.4byte	0x3830
 11407 37c1 39       		.uleb128 0x39
 11408 37c2 5D1D0000 		.4byte	.LASF723
 11409 37c6 01       		.byte	0x1
 11410 37c7 1004     		.2byte	0x410
 11411 37c9 3C2D0000 		.4byte	0x2d3c
 11412 37cd 29010000 		.4byte	.LLST167
 11413 37d1 3B       		.uleb128 0x3b
 11414 37d2 C54C0000 		.4byte	0x4cc5
 11415 37d6 06000000 		.4byte	.LBB600
 11416 37da 04000000 		.4byte	.LBE600-.LBB600
 11417 37de 01       		.byte	0x1
 11418 37df 1304     		.2byte	0x413
 11419 37e1 F0370000 		.4byte	0x37f0
 11420 37e5 3C       		.uleb128 0x3c
 11421 37e6 D14C0000 		.4byte	0x4cd1
 11422 37ea 3C       		.uleb128 0x3c
 11423 37eb D14C0000 		.4byte	0x4cd1
 11424 37ef 00       		.byte	0
 11425 37f0 3D       		.uleb128 0x3d
 11426 37f1 2E4D0000 		.4byte	0x4d2e
 11427 37f5 0A000000 		.4byte	.LBB602
 11428 37f9 D8010000 		.4byte	.LBE602-.LBB602
 11429 37fd 01       		.byte	0x1
 11430 37fe 1604     		.2byte	0x416
 11431 3800 3E       		.uleb128 0x3e
 11432 3801 3A4D0000 		.4byte	0x4d3a
 11433 3805 4A010000 		.4byte	.LLST168
 11434 3809 3E       		.uleb128 0x3e
 11435 380a 3A4D0000 		.4byte	0x4d3a
 11436 380e 6B010000 		.4byte	.LLST169
 11437 3812 3F       		.uleb128 0x3f
 11438 3813 0A000000 		.4byte	.LBB603
 11439 3817 D8010000 		.4byte	.LBE603-.LBB603
 11440 381b 40       		.uleb128 0x40
 11441 381c 454D0000 		.4byte	0x4d45
 11442 3820 8C010000 		.4byte	.LLST170
 11443 3824 40       		.uleb128 0x40
 11444 3825 504D0000 		.4byte	0x4d50
 11445 3829 9F010000 		.4byte	.LLST171
 11446 382d 00       		.byte	0
 11447 382e 00       		.byte	0
 11448 382f 00       		.byte	0
 11449 3830 2E       		.uleb128 0x2e
ARM GAS  /tmp/ccxvl19p.s 			page 202


 11450 3831 101E0000 		.4byte	.LASF735
 11451 3835 01       		.byte	0x1
 11452 3836 D003     		.2byte	0x3d0
 11453 3838 00000000 		.4byte	.LFB348
 11454 383c 64010000 		.4byte	.LFE348-.LFB348
 11455 3840 01       		.uleb128 0x1
 11456 3841 9C       		.byte	0x9c
 11457 3842 8C390000 		.4byte	0x398c
 11458 3846 39       		.uleb128 0x39
 11459 3847 5D1D0000 		.4byte	.LASF723
 11460 384b 01       		.byte	0x1
 11461 384c D003     		.2byte	0x3d0
 11462 384e 3C2D0000 		.4byte	0x2d3c
 11463 3852 67020000 		.4byte	.LLST151
 11464 3856 30       		.uleb128 0x30
 11465 3857 657000   		.ascii	"ep\000"
 11466 385a 01       		.byte	0x1
 11467 385b D003     		.2byte	0x3d0
 11468 385d E82B0000 		.4byte	0x2be8
 11469 3861 AC020000 		.4byte	.LLST152
 11470 3865 41       		.uleb128 0x41
 11471 3866 63746C00 		.ascii	"ctl\000"
 11472 386a 01       		.byte	0x1
 11473 386b D103     		.2byte	0x3d1
 11474 386d 00090000 		.4byte	0x900
 11475 3871 D8020000 		.4byte	.LLST153
 11476 3875 42       		.uleb128 0x42
 11477 3876 3B120000 		.4byte	.LASF736
 11478 387a 01       		.byte	0x1
 11479 387b D103     		.2byte	0x3d1
 11480 387d 00090000 		.4byte	0x900
 11481 3881 0B030000 		.4byte	.LLST154
 11482 3885 42       		.uleb128 0x42
 11483 3886 9E170000 		.4byte	.LASF737
 11484 388a 01       		.byte	0x1
 11485 388b D203     		.2byte	0x3d2
 11486 388d FA340000 		.4byte	0x34fa
 11487 3891 1E030000 		.4byte	.LLST155
 11488 3895 43       		.uleb128 0x43
 11489 3896 714C0000 		.4byte	0x4c71
 11490 389a 96000000 		.4byte	.LBB586
 11491 389e 50030000 		.4byte	.Ldebug_ranges0+0x350
 11492 38a2 01       		.byte	0x1
 11493 38a3 F903     		.2byte	0x3f9
 11494 38a5 CB380000 		.4byte	0x38cb
 11495 38a9 3E       		.uleb128 0x3e
 11496 38aa 814C0000 		.4byte	0x4c81
 11497 38ae 6B030000 		.4byte	.LLST156
 11498 38b2 3E       		.uleb128 0x3e
 11499 38b3 8C4C0000 		.4byte	0x4c8c
 11500 38b7 8C030000 		.4byte	.LLST157
 11501 38bb 44       		.uleb128 0x44
 11502 38bc 50030000 		.4byte	.Ldebug_ranges0+0x350
 11503 38c0 40       		.uleb128 0x40
 11504 38c1 974C0000 		.4byte	0x4c97
 11505 38c5 9F030000 		.4byte	.LLST158
 11506 38c9 00       		.byte	0
ARM GAS  /tmp/ccxvl19p.s 			page 203


 11507 38ca 00       		.byte	0
 11508 38cb 3B       		.uleb128 0x3b
 11509 38cc DD4C0000 		.4byte	0x4cdd
 11510 38d0 B0000000 		.4byte	.LBB592
 11511 38d4 0E000000 		.4byte	.LBE592-.LBB592
 11512 38d8 01       		.byte	0x1
 11513 38d9 FA03     		.2byte	0x3fa
 11514 38db 2D390000 		.4byte	0x392d
 11515 38df 3E       		.uleb128 0x3e
 11516 38e0 E94C0000 		.4byte	0x4ce9
 11517 38e4 B2030000 		.4byte	.LLST159
 11518 38e8 3E       		.uleb128 0x3e
 11519 38e9 F44C0000 		.4byte	0x4cf4
 11520 38ed D3030000 		.4byte	.LLST160
 11521 38f1 3F       		.uleb128 0x3f
 11522 38f2 B0000000 		.4byte	.LBB593
 11523 38f6 0E000000 		.4byte	.LBE593-.LBB593
 11524 38fa 40       		.uleb128 0x40
 11525 38fb FF4C0000 		.4byte	0x4cff
 11526 38ff EB030000 		.4byte	.LLST161
 11527 3903 45       		.uleb128 0x45
 11528 3904 7D4D0000 		.4byte	0x4d7d
 11529 3908 B8000000 		.4byte	.LBB594
 11530 390c 06000000 		.4byte	.LBE594-.LBB594
 11531 3910 01       		.byte	0x1
 11532 3911 BB       		.byte	0xbb
 11533 3912 3E       		.uleb128 0x3e
 11534 3913 8A4D0000 		.4byte	0x4d8a
 11535 3917 0F040000 		.4byte	.LLST162
 11536 391b 46       		.uleb128 0x46
 11537 391c BE000000 		.4byte	.LVL354
 11538 3920 784E0000 		.4byte	0x4e78
 11539 3924 47       		.uleb128 0x47
 11540 3925 01       		.uleb128 0x1
 11541 3926 50       		.byte	0x50
 11542 3927 01       		.uleb128 0x1
 11543 3928 42       		.byte	0x42
 11544 3929 00       		.byte	0
 11545 392a 00       		.byte	0
 11546 392b 00       		.byte	0
 11547 392c 00       		.byte	0
 11548 392d 3D       		.uleb128 0x3d
 11549 392e DD4C0000 		.4byte	0x4cdd
 11550 3932 10010000 		.4byte	.LBB596
 11551 3936 12000000 		.4byte	.LBE596-.LBB596
 11552 393a 01       		.byte	0x1
 11553 393b 0304     		.2byte	0x403
 11554 393d 3E       		.uleb128 0x3e
 11555 393e E94C0000 		.4byte	0x4ce9
 11556 3942 23040000 		.4byte	.LLST163
 11557 3946 3E       		.uleb128 0x3e
 11558 3947 F44C0000 		.4byte	0x4cf4
 11559 394b 44040000 		.4byte	.LLST164
 11560 394f 3F       		.uleb128 0x3f
 11561 3950 10010000 		.4byte	.LBB597
 11562 3954 12000000 		.4byte	.LBE597-.LBB597
 11563 3958 40       		.uleb128 0x40
ARM GAS  /tmp/ccxvl19p.s 			page 204


 11564 3959 FF4C0000 		.4byte	0x4cff
 11565 395d 5C040000 		.4byte	.LLST165
 11566 3961 45       		.uleb128 0x45
 11567 3962 7D4D0000 		.4byte	0x4d7d
 11568 3966 1C010000 		.4byte	.LBB598
 11569 396a 06000000 		.4byte	.LBE598-.LBB598
 11570 396e 01       		.byte	0x1
 11571 396f BB       		.byte	0xbb
 11572 3970 3E       		.uleb128 0x3e
 11573 3971 8A4D0000 		.4byte	0x4d8a
 11574 3975 80040000 		.4byte	.LLST166
 11575 3979 46       		.uleb128 0x46
 11576 397a 22010000 		.4byte	.LVL359
 11577 397e 784E0000 		.4byte	0x4e78
 11578 3982 47       		.uleb128 0x47
 11579 3983 01       		.uleb128 0x1
 11580 3984 50       		.byte	0x50
 11581 3985 01       		.uleb128 0x1
 11582 3986 42       		.byte	0x42
 11583 3987 00       		.byte	0
 11584 3988 00       		.byte	0
 11585 3989 00       		.byte	0
 11586 398a 00       		.byte	0
 11587 398b 00       		.byte	0
 11588 398c 2E       		.uleb128 0x2e
 11589 398d 710C0000 		.4byte	.LASF738
 11590 3991 01       		.byte	0x1
 11591 3992 C203     		.2byte	0x3c2
 11592 3994 00000000 		.4byte	.LFB347
 11593 3998 18000000 		.4byte	.LFE347-.LFB347
 11594 399c 01       		.uleb128 0x1
 11595 399d 9C       		.byte	0x9c
 11596 399e BF390000 		.4byte	0x39bf
 11597 39a2 2F       		.uleb128 0x2f
 11598 39a3 5D1D0000 		.4byte	.LASF723
 11599 39a7 01       		.byte	0x1
 11600 39a8 C203     		.2byte	0x3c2
 11601 39aa 3C2D0000 		.4byte	0x2d3c
 11602 39ae 01       		.uleb128 0x1
 11603 39af 50       		.byte	0x50
 11604 39b0 48       		.uleb128 0x48
 11605 39b1 9E170000 		.4byte	.LASF737
 11606 39b5 01       		.byte	0x1
 11607 39b6 C303     		.2byte	0x3c3
 11608 39b8 FA340000 		.4byte	0x34fa
 11609 39bc 01       		.uleb128 0x1
 11610 39bd 52       		.byte	0x52
 11611 39be 00       		.byte	0
 11612 39bf 2E       		.uleb128 0x2e
 11613 39c0 91110000 		.4byte	.LASF739
 11614 39c4 01       		.byte	0x1
 11615 39c5 8C03     		.2byte	0x38c
 11616 39c7 00000000 		.4byte	.LFB346
 11617 39cb E0010000 		.4byte	.LFE346-.LFB346
 11618 39cf 01       		.uleb128 0x1
 11619 39d0 9C       		.byte	0x9c
 11620 39d1 143B0000 		.4byte	0x3b14
ARM GAS  /tmp/ccxvl19p.s 			page 205


 11621 39d5 39       		.uleb128 0x39
 11622 39d6 5D1D0000 		.4byte	.LASF723
 11623 39da 01       		.byte	0x1
 11624 39db 8C03     		.2byte	0x38c
 11625 39dd 3C2D0000 		.4byte	0x2d3c
 11626 39e1 94040000 		.4byte	.LLST136
 11627 39e5 41       		.uleb128 0x41
 11628 39e6 6900     		.ascii	"i\000"
 11629 39e8 01       		.byte	0x1
 11630 39e9 8D03     		.2byte	0x38d
 11631 39eb 25000000 		.4byte	0x25
 11632 39ef C0040000 		.4byte	.LLST137
 11633 39f3 42       		.uleb128 0x42
 11634 39f4 9E170000 		.4byte	.LASF737
 11635 39f8 01       		.byte	0x1
 11636 39f9 8E03     		.2byte	0x38e
 11637 39fb FA340000 		.4byte	0x34fa
 11638 39ff 88050000 		.4byte	.LLST138
 11639 3a03 43       		.uleb128 0x43
 11640 3a04 DD4C0000 		.4byte	0x4cdd
 11641 3a08 04000000 		.4byte	.LBB570
 11642 3a0c 20030000 		.4byte	.Ldebug_ranges0+0x320
 11643 3a10 01       		.byte	0x1
 11644 3a11 9103     		.2byte	0x391
 11645 3a13 613A0000 		.4byte	0x3a61
 11646 3a17 3E       		.uleb128 0x3e
 11647 3a18 E94C0000 		.4byte	0x4ce9
 11648 3a1c 9B050000 		.4byte	.LLST139
 11649 3a20 3E       		.uleb128 0x3e
 11650 3a21 F44C0000 		.4byte	0x4cf4
 11651 3a25 C7050000 		.4byte	.LLST140
 11652 3a29 44       		.uleb128 0x44
 11653 3a2a 20030000 		.4byte	.Ldebug_ranges0+0x320
 11654 3a2e 40       		.uleb128 0x40
 11655 3a2f FF4C0000 		.4byte	0x4cff
 11656 3a33 DB050000 		.4byte	.LLST141
 11657 3a37 45       		.uleb128 0x45
 11658 3a38 7D4D0000 		.4byte	0x4d7d
 11659 3a3c 12000000 		.4byte	.LBB572
 11660 3a40 06000000 		.4byte	.LBE572-.LBB572
 11661 3a44 01       		.byte	0x1
 11662 3a45 BB       		.byte	0xbb
 11663 3a46 3E       		.uleb128 0x3e
 11664 3a47 8A4D0000 		.4byte	0x4d8a
 11665 3a4b EE050000 		.4byte	.LLST142
 11666 3a4f 46       		.uleb128 0x46
 11667 3a50 18000000 		.4byte	.LVL315
 11668 3a54 784E0000 		.4byte	0x4e78
 11669 3a58 47       		.uleb128 0x47
 11670 3a59 01       		.uleb128 0x1
 11671 3a5a 50       		.byte	0x50
 11672 3a5b 01       		.uleb128 0x1
 11673 3a5c 42       		.byte	0x42
 11674 3a5d 00       		.byte	0
 11675 3a5e 00       		.byte	0
 11676 3a5f 00       		.byte	0
 11677 3a60 00       		.byte	0
ARM GAS  /tmp/ccxvl19p.s 			page 206


 11678 3a61 3B       		.uleb128 0x3b
 11679 3a62 C54C0000 		.4byte	0x4cc5
 11680 3a66 70010000 		.4byte	.LBB576
 11681 3a6a 04000000 		.4byte	.LBE576-.LBB576
 11682 3a6e 01       		.byte	0x1
 11683 3a6f A003     		.2byte	0x3a0
 11684 3a71 883A0000 		.4byte	0x3a88
 11685 3a75 3E       		.uleb128 0x3e
 11686 3a76 D14C0000 		.4byte	0x4cd1
 11687 3a7a 02060000 		.4byte	.LLST143
 11688 3a7e 3E       		.uleb128 0x3e
 11689 3a7f D14C0000 		.4byte	0x4cd1
 11690 3a83 23060000 		.4byte	.LLST144
 11691 3a87 00       		.byte	0
 11692 3a88 3B       		.uleb128 0x3b
 11693 3a89 0B4D0000 		.4byte	0x4d0b
 11694 3a8d 7A010000 		.4byte	.LBB578
 11695 3a91 12000000 		.4byte	.LBE578-.LBB578
 11696 3a95 01       		.byte	0x1
 11697 3a96 A403     		.2byte	0x3a4
 11698 3a98 E13A0000 		.4byte	0x3ae1
 11699 3a9c 3E       		.uleb128 0x3e
 11700 3a9d 174D0000 		.4byte	0x4d17
 11701 3aa1 44060000 		.4byte	.LLST145
 11702 3aa5 3F       		.uleb128 0x3f
 11703 3aa6 7A010000 		.4byte	.LBB579
 11704 3aaa 12000000 		.4byte	.LBE579-.LBB579
 11705 3aae 40       		.uleb128 0x40
 11706 3aaf 224D0000 		.4byte	0x4d22
 11707 3ab3 65060000 		.4byte	.LLST146
 11708 3ab7 45       		.uleb128 0x45
 11709 3ab8 7D4D0000 		.4byte	0x4d7d
 11710 3abc 86010000 		.4byte	.LBB580
 11711 3ac0 06000000 		.4byte	.LBE580-.LBB580
 11712 3ac4 01       		.byte	0x1
 11713 3ac5 B1       		.byte	0xb1
 11714 3ac6 3E       		.uleb128 0x3e
 11715 3ac7 8A4D0000 		.4byte	0x4d8a
 11716 3acb 78060000 		.4byte	.LLST147
 11717 3acf 46       		.uleb128 0x46
 11718 3ad0 8C010000 		.4byte	.LVL335
 11719 3ad4 784E0000 		.4byte	0x4e78
 11720 3ad8 47       		.uleb128 0x47
 11721 3ad9 01       		.uleb128 0x1
 11722 3ada 50       		.byte	0x50
 11723 3adb 01       		.uleb128 0x1
 11724 3adc 42       		.byte	0x42
 11725 3add 00       		.byte	0
 11726 3ade 00       		.byte	0
 11727 3adf 00       		.byte	0
 11728 3ae0 00       		.byte	0
 11729 3ae1 49       		.uleb128 0x49
 11730 3ae2 714C0000 		.4byte	0x4c71
 11731 3ae6 C8010000 		.4byte	.LBB582
 11732 3aea 38030000 		.4byte	.Ldebug_ranges0+0x338
 11733 3aee 01       		.byte	0x1
 11734 3aef B703     		.2byte	0x3b7
ARM GAS  /tmp/ccxvl19p.s 			page 207


 11735 3af1 3E       		.uleb128 0x3e
 11736 3af2 814C0000 		.4byte	0x4c81
 11737 3af6 8C060000 		.4byte	.LLST148
 11738 3afa 3E       		.uleb128 0x3e
 11739 3afb 8C4C0000 		.4byte	0x4c8c
 11740 3aff AD060000 		.4byte	.LLST149
 11741 3b03 44       		.uleb128 0x44
 11742 3b04 38030000 		.4byte	.Ldebug_ranges0+0x338
 11743 3b08 40       		.uleb128 0x40
 11744 3b09 974C0000 		.4byte	0x4c97
 11745 3b0d C1060000 		.4byte	.LLST150
 11746 3b11 00       		.byte	0
 11747 3b12 00       		.byte	0
 11748 3b13 00       		.byte	0
 11749 3b14 2E       		.uleb128 0x2e
 11750 3b15 7C020000 		.4byte	.LASF740
 11751 3b19 01       		.byte	0x1
 11752 3b1a 6403     		.2byte	0x364
 11753 3b1c 00000000 		.4byte	.LFB345
 11754 3b20 20020000 		.4byte	.LFE345-.LFB345
 11755 3b24 01       		.uleb128 0x1
 11756 3b25 9C       		.byte	0x9c
 11757 3b26 9A3B0000 		.4byte	0x3b9a
 11758 3b2a 39       		.uleb128 0x39
 11759 3b2b 5D1D0000 		.4byte	.LASF723
 11760 3b2f 01       		.byte	0x1
 11761 3b30 6403     		.2byte	0x364
 11762 3b32 3C2D0000 		.4byte	0x2d3c
 11763 3b36 E1060000 		.4byte	.LLST130
 11764 3b3a 42       		.uleb128 0x42
 11765 3b3b 9E170000 		.4byte	.LASF737
 11766 3b3f 01       		.byte	0x1
 11767 3b40 6503     		.2byte	0x365
 11768 3b42 FA340000 		.4byte	0x34fa
 11769 3b46 02070000 		.4byte	.LLST131
 11770 3b4a 43       		.uleb128 0x43
 11771 3b4b 2E4D0000 		.4byte	0x4d2e
 11772 3b4f 0E000000 		.4byte	.LBB564
 11773 3b53 00030000 		.4byte	.Ldebug_ranges0+0x300
 11774 3b57 01       		.byte	0x1
 11775 3b58 6C03     		.2byte	0x36c
 11776 3b5a 893B0000 		.4byte	0x3b89
 11777 3b5e 3E       		.uleb128 0x3e
 11778 3b5f 3A4D0000 		.4byte	0x4d3a
 11779 3b63 22070000 		.4byte	.LLST132
 11780 3b67 3E       		.uleb128 0x3e
 11781 3b68 3A4D0000 		.4byte	0x4d3a
 11782 3b6c 4E070000 		.4byte	.LLST133
 11783 3b70 44       		.uleb128 0x44
 11784 3b71 00030000 		.4byte	.Ldebug_ranges0+0x300
 11785 3b75 40       		.uleb128 0x40
 11786 3b76 454D0000 		.4byte	0x4d45
 11787 3b7a 7A070000 		.4byte	.LLST134
 11788 3b7e 40       		.uleb128 0x40
 11789 3b7f 504D0000 		.4byte	0x4d50
 11790 3b83 8F070000 		.4byte	.LLST135
 11791 3b87 00       		.byte	0
ARM GAS  /tmp/ccxvl19p.s 			page 208


 11792 3b88 00       		.byte	0
 11793 3b89 46       		.uleb128 0x46
 11794 3b8a 00020000 		.4byte	.LVL309
 11795 3b8e 844E0000 		.4byte	0x4e84
 11796 3b92 47       		.uleb128 0x47
 11797 3b93 01       		.uleb128 0x1
 11798 3b94 50       		.byte	0x50
 11799 3b95 02       		.uleb128 0x2
 11800 3b96 08       		.byte	0x8
 11801 3b97 43       		.byte	0x43
 11802 3b98 00       		.byte	0
 11803 3b99 00       		.byte	0
 11804 3b9a 2E       		.uleb128 0x2e
 11805 3b9b B50C0000 		.4byte	.LASF741
 11806 3b9f 01       		.byte	0x1
 11807 3ba0 E002     		.2byte	0x2e0
 11808 3ba2 00000000 		.4byte	.LFB344
 11809 3ba6 AC020000 		.4byte	.LFE344-.LFB344
 11810 3baa 01       		.uleb128 0x1
 11811 3bab 9C       		.byte	0x9c
 11812 3bac AA3C0000 		.4byte	0x3caa
 11813 3bb0 39       		.uleb128 0x39
 11814 3bb1 5D1D0000 		.4byte	.LASF723
 11815 3bb5 01       		.byte	0x1
 11816 3bb6 E002     		.2byte	0x2e0
 11817 3bb8 3C2D0000 		.4byte	0x2d3c
 11818 3bbc 57080000 		.4byte	.LLST120
 11819 3bc0 42       		.uleb128 0x42
 11820 3bc1 9E170000 		.4byte	.LASF737
 11821 3bc5 01       		.byte	0x1
 11822 3bc6 E102     		.2byte	0x2e1
 11823 3bc8 FA340000 		.4byte	0x34fa
 11824 3bcc 8B080000 		.4byte	.LLST121
 11825 3bd0 3B       		.uleb128 0x3b
 11826 3bd1 5A4D0000 		.4byte	0x4d5a
 11827 3bd5 28000000 		.4byte	.LBB550
 11828 3bd9 22000000 		.4byte	.LBE550-.LBB550
 11829 3bdd 01       		.byte	0x1
 11830 3bde 3E03     		.2byte	0x33e
 11831 3be0 553C0000 		.4byte	0x3c55
 11832 3be4 3E       		.uleb128 0x3e
 11833 3be5 664D0000 		.4byte	0x4d66
 11834 3be9 BA080000 		.4byte	.LLST122
 11835 3bed 3F       		.uleb128 0x3f
 11836 3bee 28000000 		.4byte	.LBB551
 11837 3bf2 22000000 		.4byte	.LBE551-.LBB551
 11838 3bf6 40       		.uleb128 0x40
 11839 3bf7 714D0000 		.4byte	0x4d71
 11840 3bfb CD080000 		.4byte	.LLST123
 11841 3bff 4A       		.uleb128 0x4a
 11842 3c00 7D4D0000 		.4byte	0x4d7d
 11843 3c04 32000000 		.4byte	.LBB552
 11844 3c08 06000000 		.4byte	.LBE552-.LBB552
 11845 3c0c 01       		.byte	0x1
 11846 3c0d 8F       		.byte	0x8f
 11847 3c0e 2B3C0000 		.4byte	0x3c2b
 11848 3c12 3E       		.uleb128 0x3e
ARM GAS  /tmp/ccxvl19p.s 			page 209


 11849 3c13 8A4D0000 		.4byte	0x4d8a
 11850 3c17 E2080000 		.4byte	.LLST124
 11851 3c1b 46       		.uleb128 0x46
 11852 3c1c 38000000 		.4byte	.LVL262
 11853 3c20 784E0000 		.4byte	0x4e78
 11854 3c24 47       		.uleb128 0x47
 11855 3c25 01       		.uleb128 0x1
 11856 3c26 50       		.byte	0x50
 11857 3c27 01       		.uleb128 0x1
 11858 3c28 3C       		.byte	0x3c
 11859 3c29 00       		.byte	0
 11860 3c2a 00       		.byte	0
 11861 3c2b 45       		.uleb128 0x45
 11862 3c2c 7D4D0000 		.4byte	0x4d7d
 11863 3c30 3E000000 		.4byte	.LBB554
 11864 3c34 06000000 		.4byte	.LBE554-.LBB554
 11865 3c38 01       		.byte	0x1
 11866 3c39 93       		.byte	0x93
 11867 3c3a 3E       		.uleb128 0x3e
 11868 3c3b 8A4D0000 		.4byte	0x4d8a
 11869 3c3f F6080000 		.4byte	.LLST125
 11870 3c43 46       		.uleb128 0x46
 11871 3c44 44000000 		.4byte	.LVL264
 11872 3c48 784E0000 		.4byte	0x4e78
 11873 3c4c 47       		.uleb128 0x47
 11874 3c4d 01       		.uleb128 0x1
 11875 3c4e 50       		.byte	0x50
 11876 3c4f 01       		.uleb128 0x1
 11877 3c50 42       		.byte	0x42
 11878 3c51 00       		.byte	0
 11879 3c52 00       		.byte	0
 11880 3c53 00       		.byte	0
 11881 3c54 00       		.byte	0
 11882 3c55 43       		.uleb128 0x43
 11883 3c56 2E4D0000 		.4byte	0x4d2e
 11884 3c5a 4E000000 		.4byte	.LBB556
 11885 3c5e D8020000 		.4byte	.Ldebug_ranges0+0x2d8
 11886 3c62 01       		.byte	0x1
 11887 3c63 4403     		.2byte	0x344
 11888 3c65 943C0000 		.4byte	0x3c94
 11889 3c69 3E       		.uleb128 0x3e
 11890 3c6a 3A4D0000 		.4byte	0x4d3a
 11891 3c6e 0A090000 		.4byte	.LLST126
 11892 3c72 3E       		.uleb128 0x3e
 11893 3c73 3A4D0000 		.4byte	0x4d3a
 11894 3c77 0A090000 		.4byte	.LLST126
 11895 3c7b 44       		.uleb128 0x44
 11896 3c7c D8020000 		.4byte	.Ldebug_ranges0+0x2d8
 11897 3c80 40       		.uleb128 0x40
 11898 3c81 454D0000 		.4byte	0x4d45
 11899 3c85 1D090000 		.4byte	.LLST128
 11900 3c89 40       		.uleb128 0x40
 11901 3c8a 504D0000 		.4byte	0x4d50
 11902 3c8e 30090000 		.4byte	.LLST129
 11903 3c92 00       		.byte	0
 11904 3c93 00       		.byte	0
 11905 3c94 46       		.uleb128 0x46
ARM GAS  /tmp/ccxvl19p.s 			page 210


 11906 3c95 84020000 		.4byte	.LVL286
 11907 3c99 8F4E0000 		.4byte	0x4e8f
 11908 3c9d 47       		.uleb128 0x47
 11909 3c9e 01       		.uleb128 0x1
 11910 3c9f 50       		.byte	0x50
 11911 3ca0 02       		.uleb128 0x2
 11912 3ca1 08       		.byte	0x8
 11913 3ca2 43       		.byte	0x43
 11914 3ca3 47       		.uleb128 0x47
 11915 3ca4 01       		.uleb128 0x1
 11916 3ca5 51       		.byte	0x51
 11917 3ca6 01       		.uleb128 0x1
 11918 3ca7 3E       		.byte	0x3e
 11919 3ca8 00       		.byte	0
 11920 3ca9 00       		.byte	0
 11921 3caa 2E       		.uleb128 0x2e
 11922 3cab 3E130000 		.4byte	.LASF742
 11923 3caf 01       		.byte	0x1
 11924 3cb0 C502     		.2byte	0x2c5
 11925 3cb2 00000000 		.4byte	.LFB343
 11926 3cb6 20000000 		.4byte	.LFE343-.LFB343
 11927 3cba 01       		.uleb128 0x1
 11928 3cbb 9C       		.byte	0x9c
 11929 3cbc D13C0000 		.4byte	0x3cd1
 11930 3cc0 46       		.uleb128 0x46
 11931 3cc1 0A000000 		.4byte	.LVL257
 11932 3cc5 9A4E0000 		.4byte	0x4e9a
 11933 3cc9 47       		.uleb128 0x47
 11934 3cca 01       		.uleb128 0x1
 11935 3ccb 50       		.byte	0x50
 11936 3ccc 02       		.uleb128 0x2
 11937 3ccd 74       		.byte	0x74
 11938 3cce 00       		.sleb128 0
 11939 3ccf 00       		.byte	0
 11940 3cd0 00       		.byte	0
 11941 3cd1 2E       		.uleb128 0x2e
 11942 3cd2 EC0D0000 		.4byte	.LASF743
 11943 3cd6 01       		.byte	0x1
 11944 3cd7 A202     		.2byte	0x2a2
 11945 3cd9 00000000 		.4byte	.LFB342
 11946 3cdd E80A0000 		.4byte	.LFE342-.LFB342
 11947 3ce1 01       		.uleb128 0x1
 11948 3ce2 9C       		.byte	0x9c
 11949 3ce3 2D4A0000 		.4byte	0x4a2d
 11950 3ce7 43       		.uleb128 0x43
 11951 3ce8 2D4A0000 		.4byte	0x4a2d
 11952 3cec 04000000 		.4byte	.LBB335
 11953 3cf0 00000000 		.4byte	.Ldebug_ranges0+0
 11954 3cf4 01       		.byte	0x1
 11955 3cf5 A602     		.2byte	0x2a6
 11956 3cf7 1A4A0000 		.4byte	0x4a1a
 11957 3cfb 3E       		.uleb128 0x3e
 11958 3cfc 3A4A0000 		.4byte	0x4a3a
 11959 3d00 F8090000 		.4byte	.LLST0
 11960 3d04 44       		.uleb128 0x44
 11961 3d05 00000000 		.4byte	.Ldebug_ranges0+0
 11962 3d09 40       		.uleb128 0x40
ARM GAS  /tmp/ccxvl19p.s 			page 211


 11963 3d0a 464A0000 		.4byte	0x4a46
 11964 3d0e 300A0000 		.4byte	.LLST1
 11965 3d12 40       		.uleb128 0x40
 11966 3d13 524A0000 		.4byte	0x4a52
 11967 3d17 930A0000 		.4byte	.LLST2
 11968 3d1b 40       		.uleb128 0x40
 11969 3d1c 5E4A0000 		.4byte	0x4a5e
 11970 3d20 010B0000 		.4byte	.LLST3
 11971 3d24 43       		.uleb128 0x43
 11972 3d25 984B0000 		.4byte	0x4b98
 11973 3d29 F2000000 		.4byte	.LBB337
 11974 3d2d 28000000 		.4byte	.Ldebug_ranges0+0x28
 11975 3d31 01       		.byte	0x1
 11976 3d32 5502     		.2byte	0x255
 11977 3d34 013E0000 		.4byte	0x3e01
 11978 3d38 3E       		.uleb128 0x3e
 11979 3d39 A54B0000 		.4byte	0x4ba5
 11980 3d3d C40B0000 		.4byte	.LLST4
 11981 3d41 44       		.uleb128 0x44
 11982 3d42 28000000 		.4byte	.Ldebug_ranges0+0x28
 11983 3d46 40       		.uleb128 0x40
 11984 3d47 B14B0000 		.4byte	0x4bb1
 11985 3d4b FC0B0000 		.4byte	.LLST5
 11986 3d4f 40       		.uleb128 0x40
 11987 3d50 BD4B0000 		.4byte	0x4bbd
 11988 3d54 0F0C0000 		.4byte	.LLST6
 11989 3d58 40       		.uleb128 0x40
 11990 3d59 C94B0000 		.4byte	0x4bc9
 11991 3d5d 430C0000 		.4byte	.LLST7
 11992 3d61 43       		.uleb128 0x43
 11993 3d62 D54B0000 		.4byte	0x4bd5
 11994 3d66 18010000 		.4byte	.LBB339
 11995 3d6a 48000000 		.4byte	.Ldebug_ranges0+0x48
 11996 3d6e 01       		.byte	0x1
 11997 3d6f 2501     		.2byte	0x125
 11998 3d71 B23D0000 		.4byte	0x3db2
 11999 3d75 3E       		.uleb128 0x3e
 12000 3d76 024C0000 		.4byte	0x4c02
 12001 3d7a 7B0C0000 		.4byte	.LLST8
 12002 3d7e 3E       		.uleb128 0x3e
 12003 3d7f F84B0000 		.4byte	0x4bf8
 12004 3d83 9B0C0000 		.4byte	.LLST9
 12005 3d87 3E       		.uleb128 0x3e
 12006 3d88 EC4B0000 		.4byte	0x4bec
 12007 3d8c B90C0000 		.4byte	.LLST10
 12008 3d90 3E       		.uleb128 0x3e
 12009 3d91 E14B0000 		.4byte	0x4be1
 12010 3d95 070D0000 		.4byte	.LLST11
 12011 3d99 44       		.uleb128 0x44
 12012 3d9a 48000000 		.4byte	.Ldebug_ranges0+0x48
 12013 3d9e 40       		.uleb128 0x40
 12014 3d9f 0E4C0000 		.4byte	0x4c0e
 12015 3da3 330D0000 		.4byte	.LLST12
 12016 3da7 40       		.uleb128 0x40
 12017 3da8 184C0000 		.4byte	0x4c18
 12018 3dac 6C0D0000 		.4byte	.LLST13
 12019 3db0 00       		.byte	0
ARM GAS  /tmp/ccxvl19p.s 			page 212


 12020 3db1 00       		.byte	0
 12021 3db2 49       		.uleb128 0x49
 12022 3db3 D54B0000 		.4byte	0x4bd5
 12023 3db7 0E040000 		.4byte	.LBB342
 12024 3dbb 60000000 		.4byte	.Ldebug_ranges0+0x60
 12025 3dbf 01       		.byte	0x1
 12026 3dc0 2B01     		.2byte	0x12b
 12027 3dc2 3E       		.uleb128 0x3e
 12028 3dc3 024C0000 		.4byte	0x4c02
 12029 3dc7 D10D0000 		.4byte	.LLST14
 12030 3dcb 3E       		.uleb128 0x3e
 12031 3dcc F84B0000 		.4byte	0x4bf8
 12032 3dd0 3C0E0000 		.4byte	.LLST15
 12033 3dd4 3E       		.uleb128 0x3e
 12034 3dd5 EC4B0000 		.4byte	0x4bec
 12035 3dd9 5A0E0000 		.4byte	.LLST16
 12036 3ddd 3E       		.uleb128 0x3e
 12037 3dde E14B0000 		.4byte	0x4be1
 12038 3de2 A80E0000 		.4byte	.LLST17
 12039 3de6 44       		.uleb128 0x44
 12040 3de7 60000000 		.4byte	.Ldebug_ranges0+0x60
 12041 3deb 40       		.uleb128 0x40
 12042 3dec 0E4C0000 		.4byte	0x4c0e
 12043 3df0 D70E0000 		.4byte	.LLST18
 12044 3df4 40       		.uleb128 0x40
 12045 3df5 184C0000 		.4byte	0x4c18
 12046 3df9 1C0F0000 		.4byte	.LLST19
 12047 3dfd 00       		.byte	0
 12048 3dfe 00       		.byte	0
 12049 3dff 00       		.byte	0
 12050 3e00 00       		.byte	0
 12051 3e01 43       		.uleb128 0x43
 12052 3e02 9C4A0000 		.4byte	0x4a9c
 12053 3e06 60010000 		.4byte	.LBB349
 12054 3e0a 78000000 		.4byte	.Ldebug_ranges0+0x78
 12055 3e0e 01       		.byte	0x1
 12056 3e0f 4A02     		.2byte	0x24a
 12057 3e11 0D3F0000 		.4byte	0x3f0d
 12058 3e15 3E       		.uleb128 0x3e
 12059 3e16 A94A0000 		.4byte	0x4aa9
 12060 3e1a 820F0000 		.4byte	.LLST20
 12061 3e1e 44       		.uleb128 0x44
 12062 3e1f 78000000 		.4byte	.Ldebug_ranges0+0x78
 12063 3e23 40       		.uleb128 0x40
 12064 3e24 B54A0000 		.4byte	0x4ab5
 12065 3e28 BA0F0000 		.4byte	.LLST21
 12066 3e2c 40       		.uleb128 0x40
 12067 3e2d C04A0000 		.4byte	0x4ac0
 12068 3e31 EF0F0000 		.4byte	.LLST22
 12069 3e35 43       		.uleb128 0x43
 12070 3e36 DD4C0000 		.4byte	0x4cdd
 12071 3e3a B0010000 		.4byte	.LBB351
 12072 3e3e 90000000 		.4byte	.Ldebug_ranges0+0x90
 12073 3e42 01       		.byte	0x1
 12074 3e43 E401     		.2byte	0x1e4
 12075 3e45 8F3E0000 		.4byte	0x3e8f
 12076 3e49 3E       		.uleb128 0x3e
ARM GAS  /tmp/ccxvl19p.s 			page 213


 12077 3e4a E94C0000 		.4byte	0x4ce9
 12078 3e4e 18100000 		.4byte	.LLST23
 12079 3e52 3C       		.uleb128 0x3c
 12080 3e53 F44C0000 		.4byte	0x4cf4
 12081 3e57 44       		.uleb128 0x44
 12082 3e58 90000000 		.4byte	.Ldebug_ranges0+0x90
 12083 3e5c 40       		.uleb128 0x40
 12084 3e5d FF4C0000 		.4byte	0x4cff
 12085 3e61 40100000 		.4byte	.LLST24
 12086 3e65 45       		.uleb128 0x45
 12087 3e66 7D4D0000 		.4byte	0x4d7d
 12088 3e6a C8010000 		.4byte	.LBB353
 12089 3e6e 06000000 		.4byte	.LBE353-.LBB353
 12090 3e72 01       		.byte	0x1
 12091 3e73 BB       		.byte	0xbb
 12092 3e74 3E       		.uleb128 0x3e
 12093 3e75 8A4D0000 		.4byte	0x4d8a
 12094 3e79 53100000 		.4byte	.LLST25
 12095 3e7d 46       		.uleb128 0x46
 12096 3e7e CE010000 		.4byte	.LVL32
 12097 3e82 784E0000 		.4byte	0x4e78
 12098 3e86 47       		.uleb128 0x47
 12099 3e87 01       		.uleb128 0x1
 12100 3e88 50       		.byte	0x50
 12101 3e89 01       		.uleb128 0x1
 12102 3e8a 42       		.byte	0x42
 12103 3e8b 00       		.byte	0
 12104 3e8c 00       		.byte	0
 12105 3e8d 00       		.byte	0
 12106 3e8e 00       		.byte	0
 12107 3e8f 43       		.uleb128 0x43
 12108 3e90 634B0000 		.4byte	0x4b63
 12109 3e94 EA010000 		.4byte	.LBB359
 12110 3e98 B0000000 		.4byte	.Ldebug_ranges0+0xb0
 12111 3e9c 01       		.byte	0x1
 12112 3e9d EA01     		.2byte	0x1ea
 12113 3e9f F63E0000 		.4byte	0x3ef6
 12114 3ea3 3C       		.uleb128 0x3c
 12115 3ea4 744B0000 		.4byte	0x4b74
 12116 3ea8 3C       		.uleb128 0x3c
 12117 3ea9 804B0000 		.4byte	0x4b80
 12118 3ead 4B       		.uleb128 0x4b
 12119 3eae 8B4B0000 		.4byte	0x4b8b
 12120 3eb2 B0000000 		.4byte	.Ldebug_ranges0+0xb0
 12121 3eb6 40       		.uleb128 0x40
 12122 3eb7 8C4B0000 		.4byte	0x4b8c
 12123 3ebb 67100000 		.4byte	.LLST26
 12124 3ebf 3D       		.uleb128 0x3d
 12125 3ec0 234C0000 		.4byte	0x4c23
 12126 3ec4 34020000 		.4byte	.LBB361
 12127 3ec8 1E000000 		.4byte	.LBE361-.LBB361
 12128 3ecc 01       		.byte	0x1
 12129 3ecd 5F01     		.2byte	0x15f
 12130 3ecf 3E       		.uleb128 0x3e
 12131 3ed0 454C0000 		.4byte	0x4c45
 12132 3ed4 90100000 		.4byte	.LLST27
 12133 3ed8 3E       		.uleb128 0x3e
ARM GAS  /tmp/ccxvl19p.s 			page 214


 12134 3ed9 3A4C0000 		.4byte	0x4c3a
 12135 3edd A3100000 		.4byte	.LLST28
 12136 3ee1 3E       		.uleb128 0x3e
 12137 3ee2 2F4C0000 		.4byte	0x4c2f
 12138 3ee6 C3100000 		.4byte	.LLST29
 12139 3eea 4C       		.uleb128 0x4c
 12140 3eeb 34020000 		.4byte	.LBB362
 12141 3eef 1E000000 		.4byte	.LBE362-.LBB362
 12142 3ef3 00       		.byte	0
 12143 3ef4 00       		.byte	0
 12144 3ef5 00       		.byte	0
 12145 3ef6 4D       		.uleb128 0x4d
 12146 3ef7 E8010000 		.4byte	.LVL33
 12147 3efb 02       		.uleb128 0x2
 12148 3efc 76       		.byte	0x76
 12149 3efd 00       		.sleb128 0
 12150 3efe 47       		.uleb128 0x47
 12151 3eff 01       		.uleb128 0x1
 12152 3f00 50       		.byte	0x50
 12153 3f01 02       		.uleb128 0x2
 12154 3f02 74       		.byte	0x74
 12155 3f03 00       		.sleb128 0
 12156 3f04 47       		.uleb128 0x47
 12157 3f05 01       		.uleb128 0x1
 12158 3f06 51       		.byte	0x51
 12159 3f07 02       		.uleb128 0x2
 12160 3f08 79       		.byte	0x79
 12161 3f09 00       		.sleb128 0
 12162 3f0a 00       		.byte	0
 12163 3f0b 00       		.byte	0
 12164 3f0c 00       		.byte	0
 12165 3f0d 3B       		.uleb128 0x3b
 12166 3f0e 6B4A0000 		.4byte	0x4a6b
 12167 3f12 88020000 		.4byte	.LBB366
 12168 3f16 58000000 		.4byte	.LBE366-.LBB366
 12169 3f1a 01       		.byte	0x1
 12170 3f1b 4F02     		.2byte	0x24f
 12171 3f1d 5C3F0000 		.4byte	0x3f5c
 12172 3f21 3E       		.uleb128 0x3e
 12173 3f22 784A0000 		.4byte	0x4a78
 12174 3f26 E1100000 		.4byte	.LLST30
 12175 3f2a 3F       		.uleb128 0x3f
 12176 3f2b 88020000 		.4byte	.LBB367
 12177 3f2f 58000000 		.4byte	.LBE367-.LBB367
 12178 3f33 40       		.uleb128 0x40
 12179 3f34 844A0000 		.4byte	0x4a84
 12180 3f38 F9100000 		.4byte	.LLST31
 12181 3f3c 40       		.uleb128 0x40
 12182 3f3d 8F4A0000 		.4byte	0x4a8f
 12183 3f41 23110000 		.4byte	.LLST32
 12184 3f45 4D       		.uleb128 0x4d
 12185 3f46 DE020000 		.4byte	.LVL49
 12186 3f4a 02       		.uleb128 0x2
 12187 3f4b 79       		.byte	0x79
 12188 3f4c 00       		.sleb128 0
 12189 3f4d 47       		.uleb128 0x47
 12190 3f4e 01       		.uleb128 0x1
ARM GAS  /tmp/ccxvl19p.s 			page 215


 12191 3f4f 50       		.byte	0x50
 12192 3f50 02       		.uleb128 0x2
 12193 3f51 74       		.byte	0x74
 12194 3f52 00       		.sleb128 0
 12195 3f53 47       		.uleb128 0x47
 12196 3f54 01       		.uleb128 0x1
 12197 3f55 51       		.byte	0x51
 12198 3f56 02       		.uleb128 0x2
 12199 3f57 75       		.byte	0x75
 12200 3f58 00       		.sleb128 0
 12201 3f59 00       		.byte	0
 12202 3f5a 00       		.byte	0
 12203 3f5b 00       		.byte	0
 12204 3f5c 43       		.uleb128 0x43
 12205 3f5d 184B0000 		.4byte	0x4b18
 12206 3f61 F4020000 		.4byte	.LBB368
 12207 3f65 C8000000 		.4byte	.Ldebug_ranges0+0xc8
 12208 3f69 01       		.byte	0x1
 12209 3f6a 8002     		.2byte	0x280
 12210 3f6c 37410000 		.4byte	0x4137
 12211 3f70 3E       		.uleb128 0x3e
 12212 3f71 254B0000 		.4byte	0x4b25
 12213 3f75 36110000 		.4byte	.LLST33
 12214 3f79 3E       		.uleb128 0x3e
 12215 3f7a 314B0000 		.4byte	0x4b31
 12216 3f7e 7E110000 		.4byte	.LLST34
 12217 3f82 44       		.uleb128 0x44
 12218 3f83 C8000000 		.4byte	.Ldebug_ranges0+0xc8
 12219 3f87 40       		.uleb128 0x40
 12220 3f88 3C4B0000 		.4byte	0x4b3c
 12221 3f8c B6110000 		.4byte	.LLST35
 12222 3f90 40       		.uleb128 0x40
 12223 3f91 484B0000 		.4byte	0x4b48
 12224 3f95 DF110000 		.4byte	.LLST36
 12225 3f99 4E       		.uleb128 0x4e
 12226 3f9a 544B0000 		.4byte	0x4b54
 12227 3f9e F0000000 		.4byte	.Ldebug_ranges0+0xf0
 12228 3fa2 D2400000 		.4byte	0x40d2
 12229 3fa6 40       		.uleb128 0x40
 12230 3fa7 554B0000 		.4byte	0x4b55
 12231 3fab 08120000 		.4byte	.LLST37
 12232 3faf 3B       		.uleb128 0x3b
 12233 3fb0 A04D0000 		.4byte	0x4da0
 12234 3fb4 4C080000 		.4byte	.LBB371
 12235 3fb8 06000000 		.4byte	.LBE371-.LBB371
 12236 3fbc 01       		.byte	0x1
 12237 3fbd 8501     		.2byte	0x185
 12238 3fbf 11400000 		.4byte	0x4011
 12239 3fc3 3D       		.uleb128 0x3d
 12240 3fc4 B24D0000 		.4byte	0x4db2
 12241 3fc8 4C080000 		.4byte	.LBB372
 12242 3fcc 06000000 		.4byte	.LBE372-.LBB372
 12243 3fd0 02       		.byte	0x2
 12244 3fd1 1502     		.2byte	0x215
 12245 3fd3 3D       		.uleb128 0x3d
 12246 3fd4 C44D0000 		.4byte	0x4dc4
 12247 3fd8 4C080000 		.4byte	.LBB373
ARM GAS  /tmp/ccxvl19p.s 			page 216


 12248 3fdc 06000000 		.4byte	.LBE373-.LBB373
 12249 3fe0 17       		.byte	0x17
 12250 3fe1 8B01     		.2byte	0x18b
 12251 3fe3 3D       		.uleb128 0x3d
 12252 3fe4 D64D0000 		.4byte	0x4dd6
 12253 3fe8 4C080000 		.4byte	.LBB374
 12254 3fec 06000000 		.4byte	.LBE374-.LBB374
 12255 3ff0 12       		.byte	0x12
 12256 3ff1 8302     		.2byte	0x283
 12257 3ff3 3D       		.uleb128 0x3d
 12258 3ff4 DF4D0000 		.4byte	0x4ddf
 12259 3ff8 4C080000 		.4byte	.LBB375
 12260 3ffc 06000000 		.4byte	.LBE375-.LBB375
 12261 4000 12       		.byte	0x12
 12262 4001 6202     		.2byte	0x262
 12263 4003 3E       		.uleb128 0x3e
 12264 4004 EC4D0000 		.4byte	0x4dec
 12265 4008 5F120000 		.4byte	.LLST38
 12266 400c 00       		.byte	0
 12267 400d 00       		.byte	0
 12268 400e 00       		.byte	0
 12269 400f 00       		.byte	0
 12270 4010 00       		.byte	0
 12271 4011 43       		.uleb128 0x43
 12272 4012 51360000 		.4byte	0x3651
 12273 4016 52080000 		.4byte	.LBB377
 12274 401a 10010000 		.4byte	.Ldebug_ranges0+0x110
 12275 401e 01       		.byte	0x1
 12276 401f 8601     		.2byte	0x186
 12277 4021 5E400000 		.4byte	0x405e
 12278 4025 3E       		.uleb128 0x3e
 12279 4026 6A360000 		.4byte	0x366a
 12280 402a 74120000 		.4byte	.LLST39
 12281 402e 3E       		.uleb128 0x3e
 12282 402f 5E360000 		.4byte	0x365e
 12283 4033 94120000 		.4byte	.LLST40
 12284 4037 44       		.uleb128 0x44
 12285 4038 10010000 		.4byte	.Ldebug_ranges0+0x110
 12286 403c 40       		.uleb128 0x40
 12287 403d 75360000 		.4byte	0x3675
 12288 4041 BC120000 		.4byte	.LLST41
 12289 4045 4F       		.uleb128 0x4f
 12290 4046 81360000 		.4byte	0x3681
 12291 404a EA090000 		.4byte	.LBB379
 12292 404e 1A000000 		.4byte	.LBE379-.LBB379
 12293 4052 40       		.uleb128 0x40
 12294 4053 82360000 		.4byte	0x3682
 12295 4057 F2120000 		.4byte	.LLST42
 12296 405b 00       		.byte	0
 12297 405c 00       		.byte	0
 12298 405d 00       		.byte	0
 12299 405e 3B       		.uleb128 0x3b
 12300 405f 974D0000 		.4byte	0x4d97
 12301 4063 A6080000 		.4byte	.LBB381
 12302 4067 08000000 		.4byte	.LBE381-.LBB381
 12303 406b 01       		.byte	0x1
 12304 406c 8701     		.2byte	0x187
ARM GAS  /tmp/ccxvl19p.s 			page 217


 12305 406e C0400000 		.4byte	0x40c0
 12306 4072 3D       		.uleb128 0x3d
 12307 4073 A94D0000 		.4byte	0x4da9
 12308 4077 A6080000 		.4byte	.LBB382
 12309 407b 08000000 		.4byte	.LBE382-.LBB382
 12310 407f 02       		.byte	0x2
 12311 4080 2002     		.2byte	0x220
 12312 4082 3D       		.uleb128 0x3d
 12313 4083 BB4D0000 		.4byte	0x4dbb
 12314 4087 A6080000 		.4byte	.LBB383
 12315 408b 08000000 		.4byte	.LBE383-.LBB383
 12316 408f 17       		.byte	0x17
 12317 4090 A101     		.2byte	0x1a1
 12318 4092 3D       		.uleb128 0x3d
 12319 4093 CD4D0000 		.4byte	0x4dcd
 12320 4097 A6080000 		.4byte	.LBB384
 12321 409b 08000000 		.4byte	.LBE384-.LBB384
 12322 409f 12       		.byte	0x12
 12323 40a0 8E02     		.2byte	0x28e
 12324 40a2 3D       		.uleb128 0x3d
 12325 40a3 DF4D0000 		.4byte	0x4ddf
 12326 40a7 A6080000 		.4byte	.LBB385
 12327 40ab 08000000 		.4byte	.LBE385-.LBB385
 12328 40af 12       		.byte	0x12
 12329 40b0 7502     		.2byte	0x275
 12330 40b2 3E       		.uleb128 0x3e
 12331 40b3 EC4D0000 		.4byte	0x4dec
 12332 40b7 3D130000 		.4byte	.LLST43
 12333 40bb 00       		.byte	0
 12334 40bc 00       		.byte	0
 12335 40bd 00       		.byte	0
 12336 40be 00       		.byte	0
 12337 40bf 00       		.byte	0
 12338 40c0 50       		.uleb128 0x50
 12339 40c1 2A030000 		.4byte	.LVL59
 12340 40c5 47       		.uleb128 0x47
 12341 40c6 01       		.uleb128 0x1
 12342 40c7 50       		.byte	0x50
 12343 40c8 02       		.uleb128 0x2
 12344 40c9 74       		.byte	0x74
 12345 40ca 00       		.sleb128 0
 12346 40cb 47       		.uleb128 0x47
 12347 40cc 01       		.uleb128 0x1
 12348 40cd 51       		.byte	0x51
 12349 40ce 01       		.uleb128 0x1
 12350 40cf 33       		.byte	0x33
 12351 40d0 00       		.byte	0
 12352 40d1 00       		.byte	0
 12353 40d2 49       		.uleb128 0x49
 12354 40d3 634B0000 		.4byte	0x4b63
 12355 40d7 3A030000 		.4byte	.LBB388
 12356 40db 28010000 		.4byte	.Ldebug_ranges0+0x128
 12357 40df 01       		.byte	0x1
 12358 40e0 9101     		.2byte	0x191
 12359 40e2 3C       		.uleb128 0x3c
 12360 40e3 744B0000 		.4byte	0x4b74
 12361 40e7 3C       		.uleb128 0x3c
ARM GAS  /tmp/ccxvl19p.s 			page 218


 12362 40e8 804B0000 		.4byte	0x4b80
 12363 40ec 4B       		.uleb128 0x4b
 12364 40ed 8B4B0000 		.4byte	0x4b8b
 12365 40f1 28010000 		.4byte	.Ldebug_ranges0+0x128
 12366 40f5 40       		.uleb128 0x40
 12367 40f6 8C4B0000 		.4byte	0x4b8c
 12368 40fa 51130000 		.4byte	.LLST44
 12369 40fe 3D       		.uleb128 0x3d
 12370 40ff 234C0000 		.4byte	0x4c23
 12371 4103 6E030000 		.4byte	.LBB390
 12372 4107 1E000000 		.4byte	.LBE390-.LBB390
 12373 410b 01       		.byte	0x1
 12374 410c 5F01     		.2byte	0x15f
 12375 410e 3E       		.uleb128 0x3e
 12376 410f 454C0000 		.4byte	0x4c45
 12377 4113 6F130000 		.4byte	.LLST45
 12378 4117 3E       		.uleb128 0x3e
 12379 4118 3A4C0000 		.4byte	0x4c3a
 12380 411c 82130000 		.4byte	.LLST46
 12381 4120 3E       		.uleb128 0x3e
 12382 4121 2F4C0000 		.4byte	0x4c2f
 12383 4125 A2130000 		.4byte	.LLST47
 12384 4129 4C       		.uleb128 0x4c
 12385 412a 6E030000 		.4byte	.LBB391
 12386 412e 1E000000 		.4byte	.LBE391-.LBB391
 12387 4132 00       		.byte	0
 12388 4133 00       		.byte	0
 12389 4134 00       		.byte	0
 12390 4135 00       		.byte	0
 12391 4136 00       		.byte	0
 12392 4137 3B       		.uleb128 0x3b
 12393 4138 CD4A0000 		.4byte	0x4acd
 12394 413c B2030000 		.4byte	.LBB399
 12395 4140 4A000000 		.4byte	.LBE399-.LBB399
 12396 4144 01       		.byte	0x1
 12397 4145 6202     		.2byte	0x262
 12398 4147 B7410000 		.4byte	0x41b7
 12399 414b 3E       		.uleb128 0x3e
 12400 414c DA4A0000 		.4byte	0x4ada
 12401 4150 B9130000 		.4byte	.LLST48
 12402 4154 3E       		.uleb128 0x3e
 12403 4155 E64A0000 		.4byte	0x4ae6
 12404 4159 D1130000 		.4byte	.LLST49
 12405 415d 3F       		.uleb128 0x3f
 12406 415e B2030000 		.4byte	.LBB400
 12407 4162 4A000000 		.4byte	.LBE400-.LBB400
 12408 4166 40       		.uleb128 0x40
 12409 4167 F14A0000 		.4byte	0x4af1
 12410 416b E5130000 		.4byte	.LLST50
 12411 416f 40       		.uleb128 0x40
 12412 4170 FD4A0000 		.4byte	0x4afd
 12413 4174 F8130000 		.4byte	.LLST51
 12414 4178 51       		.uleb128 0x51
 12415 4179 094B0000 		.4byte	0x4b09
 12416 417d E2030000 		.4byte	.LBB401
 12417 4181 1A000000 		.4byte	.LBE401-.LBB401
 12418 4185 A4410000 		.4byte	0x41a4
ARM GAS  /tmp/ccxvl19p.s 			page 219


 12419 4189 40       		.uleb128 0x40
 12420 418a 0A4B0000 		.4byte	0x4b0a
 12421 418e 0B140000 		.4byte	.LLST52
 12422 4192 50       		.uleb128 0x50
 12423 4193 FA030000 		.4byte	.LVL77
 12424 4197 47       		.uleb128 0x47
 12425 4198 01       		.uleb128 0x1
 12426 4199 50       		.byte	0x50
 12427 419a 02       		.uleb128 0x2
 12428 419b 74       		.byte	0x74
 12429 419c 00       		.sleb128 0
 12430 419d 47       		.uleb128 0x47
 12431 419e 01       		.uleb128 0x1
 12432 419f 51       		.byte	0x51
 12433 41a0 01       		.uleb128 0x1
 12434 41a1 33       		.byte	0x33
 12435 41a2 00       		.byte	0
 12436 41a3 00       		.byte	0
 12437 41a4 50       		.uleb128 0x50
 12438 41a5 D2030000 		.4byte	.LVL73
 12439 41a9 47       		.uleb128 0x47
 12440 41aa 01       		.uleb128 0x1
 12441 41ab 50       		.byte	0x50
 12442 41ac 02       		.uleb128 0x2
 12443 41ad 74       		.byte	0x74
 12444 41ae 00       		.sleb128 0
 12445 41af 47       		.uleb128 0x47
 12446 41b0 01       		.uleb128 0x1
 12447 41b1 51       		.byte	0x51
 12448 41b2 01       		.uleb128 0x1
 12449 41b3 33       		.byte	0x33
 12450 41b4 00       		.byte	0
 12451 41b5 00       		.byte	0
 12452 41b6 00       		.byte	0
 12453 41b7 43       		.uleb128 0x43
 12454 41b8 184B0000 		.4byte	0x4b18
 12455 41bc 60040000 		.4byte	.LBB403
 12456 41c0 40010000 		.4byte	.Ldebug_ranges0+0x140
 12457 41c4 01       		.byte	0x1
 12458 41c5 7C02     		.2byte	0x27c
 12459 41c7 92430000 		.4byte	0x4392
 12460 41cb 3E       		.uleb128 0x3e
 12461 41cc 254B0000 		.4byte	0x4b25
 12462 41d0 2E140000 		.4byte	.LLST53
 12463 41d4 3E       		.uleb128 0x3e
 12464 41d5 314B0000 		.4byte	0x4b31
 12465 41d9 76140000 		.4byte	.LLST54
 12466 41dd 44       		.uleb128 0x44
 12467 41de 40010000 		.4byte	.Ldebug_ranges0+0x140
 12468 41e2 40       		.uleb128 0x40
 12469 41e3 3C4B0000 		.4byte	0x4b3c
 12470 41e7 AE140000 		.4byte	.LLST55
 12471 41eb 40       		.uleb128 0x40
 12472 41ec 484B0000 		.4byte	0x4b48
 12473 41f0 D7140000 		.4byte	.LLST56
 12474 41f4 4E       		.uleb128 0x4e
 12475 41f5 544B0000 		.4byte	0x4b54
ARM GAS  /tmp/ccxvl19p.s 			page 220


 12476 41f9 68010000 		.4byte	.Ldebug_ranges0+0x168
 12477 41fd 2D430000 		.4byte	0x432d
 12478 4201 40       		.uleb128 0x40
 12479 4202 554B0000 		.4byte	0x4b55
 12480 4206 00150000 		.4byte	.LLST57
 12481 420a 3B       		.uleb128 0x3b
 12482 420b A04D0000 		.4byte	0x4da0
 12483 420f 8C090000 		.4byte	.LBB406
 12484 4213 06000000 		.4byte	.LBE406-.LBB406
 12485 4217 01       		.byte	0x1
 12486 4218 8501     		.2byte	0x185
 12487 421a 6C420000 		.4byte	0x426c
 12488 421e 3D       		.uleb128 0x3d
 12489 421f B24D0000 		.4byte	0x4db2
 12490 4223 8C090000 		.4byte	.LBB407
 12491 4227 06000000 		.4byte	.LBE407-.LBB407
 12492 422b 02       		.byte	0x2
 12493 422c 1502     		.2byte	0x215
 12494 422e 3D       		.uleb128 0x3d
 12495 422f C44D0000 		.4byte	0x4dc4
 12496 4233 8C090000 		.4byte	.LBB408
 12497 4237 06000000 		.4byte	.LBE408-.LBB408
 12498 423b 17       		.byte	0x17
 12499 423c 8B01     		.2byte	0x18b
 12500 423e 3D       		.uleb128 0x3d
 12501 423f D64D0000 		.4byte	0x4dd6
 12502 4243 8C090000 		.4byte	.LBB409
 12503 4247 06000000 		.4byte	.LBE409-.LBB409
 12504 424b 12       		.byte	0x12
 12505 424c 8302     		.2byte	0x283
 12506 424e 3D       		.uleb128 0x3d
 12507 424f DF4D0000 		.4byte	0x4ddf
 12508 4253 8C090000 		.4byte	.LBB410
 12509 4257 06000000 		.4byte	.LBE410-.LBB410
 12510 425b 12       		.byte	0x12
 12511 425c 6202     		.2byte	0x262
 12512 425e 3E       		.uleb128 0x3e
 12513 425f EC4D0000 		.4byte	0x4dec
 12514 4263 57150000 		.4byte	.LLST58
 12515 4267 00       		.byte	0
 12516 4268 00       		.byte	0
 12517 4269 00       		.byte	0
 12518 426a 00       		.byte	0
 12519 426b 00       		.byte	0
 12520 426c 43       		.uleb128 0x43
 12521 426d 51360000 		.4byte	0x3651
 12522 4271 92090000 		.4byte	.LBB412
 12523 4275 88010000 		.4byte	.Ldebug_ranges0+0x188
 12524 4279 01       		.byte	0x1
 12525 427a 8601     		.2byte	0x186
 12526 427c B9420000 		.4byte	0x42b9
 12527 4280 3E       		.uleb128 0x3e
 12528 4281 6A360000 		.4byte	0x366a
 12529 4285 6C150000 		.4byte	.LLST59
 12530 4289 3E       		.uleb128 0x3e
 12531 428a 5E360000 		.4byte	0x365e
 12532 428e 8C150000 		.4byte	.LLST60
ARM GAS  /tmp/ccxvl19p.s 			page 221


 12533 4292 44       		.uleb128 0x44
 12534 4293 88010000 		.4byte	.Ldebug_ranges0+0x188
 12535 4297 40       		.uleb128 0x40
 12536 4298 75360000 		.4byte	0x3675
 12537 429c B4150000 		.4byte	.LLST61
 12538 42a0 4F       		.uleb128 0x4f
 12539 42a1 81360000 		.4byte	0x3681
 12540 42a5 040A0000 		.4byte	.LBB414
 12541 42a9 1E000000 		.4byte	.LBE414-.LBB414
 12542 42ad 40       		.uleb128 0x40
 12543 42ae 82360000 		.4byte	0x3682
 12544 42b2 EA150000 		.4byte	.LLST62
 12545 42b6 00       		.byte	0
 12546 42b7 00       		.byte	0
 12547 42b8 00       		.byte	0
 12548 42b9 3B       		.uleb128 0x3b
 12549 42ba 974D0000 		.4byte	0x4d97
 12550 42be E2090000 		.4byte	.LBB416
 12551 42c2 08000000 		.4byte	.LBE416-.LBB416
 12552 42c6 01       		.byte	0x1
 12553 42c7 8701     		.2byte	0x187
 12554 42c9 1B430000 		.4byte	0x431b
 12555 42cd 3D       		.uleb128 0x3d
 12556 42ce A94D0000 		.4byte	0x4da9
 12557 42d2 E2090000 		.4byte	.LBB417
 12558 42d6 08000000 		.4byte	.LBE417-.LBB417
 12559 42da 02       		.byte	0x2
 12560 42db 2002     		.2byte	0x220
 12561 42dd 3D       		.uleb128 0x3d
 12562 42de BB4D0000 		.4byte	0x4dbb
 12563 42e2 E2090000 		.4byte	.LBB418
 12564 42e6 08000000 		.4byte	.LBE418-.LBB418
 12565 42ea 17       		.byte	0x17
 12566 42eb A101     		.2byte	0x1a1
 12567 42ed 3D       		.uleb128 0x3d
 12568 42ee CD4D0000 		.4byte	0x4dcd
 12569 42f2 E2090000 		.4byte	.LBB419
 12570 42f6 08000000 		.4byte	.LBE419-.LBB419
 12571 42fa 12       		.byte	0x12
 12572 42fb 8E02     		.2byte	0x28e
 12573 42fd 3D       		.uleb128 0x3d
 12574 42fe DF4D0000 		.4byte	0x4ddf
 12575 4302 E2090000 		.4byte	.LBB420
 12576 4306 08000000 		.4byte	.LBE420-.LBB420
 12577 430a 12       		.byte	0x12
 12578 430b 7502     		.2byte	0x275
 12579 430d 3E       		.uleb128 0x3e
 12580 430e EC4D0000 		.4byte	0x4dec
 12581 4312 35160000 		.4byte	.LLST63
 12582 4316 00       		.byte	0
 12583 4317 00       		.byte	0
 12584 4318 00       		.byte	0
 12585 4319 00       		.byte	0
 12586 431a 00       		.byte	0
 12587 431b 50       		.uleb128 0x50
 12588 431c 96040000 		.4byte	.LVL99
 12589 4320 47       		.uleb128 0x47
ARM GAS  /tmp/ccxvl19p.s 			page 222


 12590 4321 01       		.uleb128 0x1
 12591 4322 50       		.byte	0x50
 12592 4323 02       		.uleb128 0x2
 12593 4324 74       		.byte	0x74
 12594 4325 00       		.sleb128 0
 12595 4326 47       		.uleb128 0x47
 12596 4327 01       		.uleb128 0x1
 12597 4328 51       		.byte	0x51
 12598 4329 01       		.uleb128 0x1
 12599 432a 31       		.byte	0x31
 12600 432b 00       		.byte	0
 12601 432c 00       		.byte	0
 12602 432d 49       		.uleb128 0x49
 12603 432e 634B0000 		.4byte	0x4b63
 12604 4332 A6040000 		.4byte	.LBB423
 12605 4336 A0010000 		.4byte	.Ldebug_ranges0+0x1a0
 12606 433a 01       		.byte	0x1
 12607 433b 9101     		.2byte	0x191
 12608 433d 3C       		.uleb128 0x3c
 12609 433e 744B0000 		.4byte	0x4b74
 12610 4342 3C       		.uleb128 0x3c
 12611 4343 804B0000 		.4byte	0x4b80
 12612 4347 4B       		.uleb128 0x4b
 12613 4348 8B4B0000 		.4byte	0x4b8b
 12614 434c A0010000 		.4byte	.Ldebug_ranges0+0x1a0
 12615 4350 40       		.uleb128 0x40
 12616 4351 8C4B0000 		.4byte	0x4b8c
 12617 4355 49160000 		.4byte	.LLST64
 12618 4359 3D       		.uleb128 0x3d
 12619 435a 234C0000 		.4byte	0x4c23
 12620 435e E0040000 		.4byte	.LBB425
 12621 4362 1E000000 		.4byte	.LBE425-.LBB425
 12622 4366 01       		.byte	0x1
 12623 4367 5F01     		.2byte	0x15f
 12624 4369 3E       		.uleb128 0x3e
 12625 436a 454C0000 		.4byte	0x4c45
 12626 436e 72160000 		.4byte	.LLST65
 12627 4372 3E       		.uleb128 0x3e
 12628 4373 3A4C0000 		.4byte	0x4c3a
 12629 4377 85160000 		.4byte	.LLST66
 12630 437b 3E       		.uleb128 0x3e
 12631 437c 2F4C0000 		.4byte	0x4c2f
 12632 4380 A5160000 		.4byte	.LLST67
 12633 4384 4C       		.uleb128 0x4c
 12634 4385 E0040000 		.4byte	.LBB426
 12635 4389 1E000000 		.4byte	.LBE426-.LBB426
 12636 438d 00       		.byte	0
 12637 438e 00       		.byte	0
 12638 438f 00       		.byte	0
 12639 4390 00       		.byte	0
 12640 4391 00       		.byte	0
 12641 4392 43       		.uleb128 0x43
 12642 4393 184B0000 		.4byte	0x4b18
 12643 4397 26050000 		.4byte	.LBB434
 12644 439b B8010000 		.4byte	.Ldebug_ranges0+0x1b8
 12645 439f 01       		.byte	0x1
 12646 43a0 7A02     		.2byte	0x27a
ARM GAS  /tmp/ccxvl19p.s 			page 223


 12647 43a2 6D450000 		.4byte	0x456d
 12648 43a6 3E       		.uleb128 0x3e
 12649 43a7 254B0000 		.4byte	0x4b25
 12650 43ab BC160000 		.4byte	.LLST68
 12651 43af 3E       		.uleb128 0x3e
 12652 43b0 314B0000 		.4byte	0x4b31
 12653 43b4 04170000 		.4byte	.LLST69
 12654 43b8 44       		.uleb128 0x44
 12655 43b9 B8010000 		.4byte	.Ldebug_ranges0+0x1b8
 12656 43bd 40       		.uleb128 0x40
 12657 43be 3C4B0000 		.4byte	0x4b3c
 12658 43c2 3C170000 		.4byte	.LLST70
 12659 43c6 40       		.uleb128 0x40
 12660 43c7 484B0000 		.4byte	0x4b48
 12661 43cb 65170000 		.4byte	.LLST71
 12662 43cf 4E       		.uleb128 0x4e
 12663 43d0 544B0000 		.4byte	0x4b54
 12664 43d4 E0010000 		.4byte	.Ldebug_ranges0+0x1e0
 12665 43d8 08450000 		.4byte	0x4508
 12666 43dc 40       		.uleb128 0x40
 12667 43dd 554B0000 		.4byte	0x4b55
 12668 43e1 8E170000 		.4byte	.LLST72
 12669 43e5 3B       		.uleb128 0x3b
 12670 43e6 A04D0000 		.4byte	0x4da0
 12671 43ea 24090000 		.4byte	.LBB437
 12672 43ee 06000000 		.4byte	.LBE437-.LBB437
 12673 43f2 01       		.byte	0x1
 12674 43f3 8501     		.2byte	0x185
 12675 43f5 47440000 		.4byte	0x4447
 12676 43f9 3D       		.uleb128 0x3d
 12677 43fa B24D0000 		.4byte	0x4db2
 12678 43fe 24090000 		.4byte	.LBB438
 12679 4402 06000000 		.4byte	.LBE438-.LBB438
 12680 4406 02       		.byte	0x2
 12681 4407 1502     		.2byte	0x215
 12682 4409 3D       		.uleb128 0x3d
 12683 440a C44D0000 		.4byte	0x4dc4
 12684 440e 24090000 		.4byte	.LBB439
 12685 4412 06000000 		.4byte	.LBE439-.LBB439
 12686 4416 17       		.byte	0x17
 12687 4417 8B01     		.2byte	0x18b
 12688 4419 3D       		.uleb128 0x3d
 12689 441a D64D0000 		.4byte	0x4dd6
 12690 441e 24090000 		.4byte	.LBB440
 12691 4422 06000000 		.4byte	.LBE440-.LBB440
 12692 4426 12       		.byte	0x12
 12693 4427 8302     		.2byte	0x283
 12694 4429 3D       		.uleb128 0x3d
 12695 442a DF4D0000 		.4byte	0x4ddf
 12696 442e 24090000 		.4byte	.LBB441
 12697 4432 06000000 		.4byte	.LBE441-.LBB441
 12698 4436 12       		.byte	0x12
 12699 4437 6202     		.2byte	0x262
 12700 4439 3E       		.uleb128 0x3e
 12701 443a EC4D0000 		.4byte	0x4dec
 12702 443e E5170000 		.4byte	.LLST73
 12703 4442 00       		.byte	0
ARM GAS  /tmp/ccxvl19p.s 			page 224


 12704 4443 00       		.byte	0
 12705 4444 00       		.byte	0
 12706 4445 00       		.byte	0
 12707 4446 00       		.byte	0
 12708 4447 43       		.uleb128 0x43
 12709 4448 51360000 		.4byte	0x3651
 12710 444c 2A090000 		.4byte	.LBB443
 12711 4450 00020000 		.4byte	.Ldebug_ranges0+0x200
 12712 4454 01       		.byte	0x1
 12713 4455 8601     		.2byte	0x186
 12714 4457 94440000 		.4byte	0x4494
 12715 445b 3E       		.uleb128 0x3e
 12716 445c 6A360000 		.4byte	0x366a
 12717 4460 FA170000 		.4byte	.LLST74
 12718 4464 3E       		.uleb128 0x3e
 12719 4465 5E360000 		.4byte	0x365e
 12720 4469 1A180000 		.4byte	.LLST75
 12721 446d 44       		.uleb128 0x44
 12722 446e 00020000 		.4byte	.Ldebug_ranges0+0x200
 12723 4472 40       		.uleb128 0x40
 12724 4473 75360000 		.4byte	0x3675
 12725 4477 42180000 		.4byte	.LLST76
 12726 447b 4F       		.uleb128 0x4f
 12727 447c 81360000 		.4byte	0x3681
 12728 4480 220A0000 		.4byte	.LBB445
 12729 4484 2A000000 		.4byte	.LBE445-.LBB445
 12730 4488 40       		.uleb128 0x40
 12731 4489 82360000 		.4byte	0x3682
 12732 448d 78180000 		.4byte	.LLST77
 12733 4491 00       		.byte	0
 12734 4492 00       		.byte	0
 12735 4493 00       		.byte	0
 12736 4494 3B       		.uleb128 0x3b
 12737 4495 974D0000 		.4byte	0x4d97
 12738 4499 7C090000 		.4byte	.LBB447
 12739 449d 08000000 		.4byte	.LBE447-.LBB447
 12740 44a1 01       		.byte	0x1
 12741 44a2 8701     		.2byte	0x187
 12742 44a4 F6440000 		.4byte	0x44f6
 12743 44a8 3D       		.uleb128 0x3d
 12744 44a9 A94D0000 		.4byte	0x4da9
 12745 44ad 7C090000 		.4byte	.LBB448
 12746 44b1 08000000 		.4byte	.LBE448-.LBB448
 12747 44b5 02       		.byte	0x2
 12748 44b6 2002     		.2byte	0x220
 12749 44b8 3D       		.uleb128 0x3d
 12750 44b9 BB4D0000 		.4byte	0x4dbb
 12751 44bd 7C090000 		.4byte	.LBB449
 12752 44c1 08000000 		.4byte	.LBE449-.LBB449
 12753 44c5 17       		.byte	0x17
 12754 44c6 A101     		.2byte	0x1a1
 12755 44c8 3D       		.uleb128 0x3d
 12756 44c9 CD4D0000 		.4byte	0x4dcd
 12757 44cd 7C090000 		.4byte	.LBB450
 12758 44d1 08000000 		.4byte	.LBE450-.LBB450
 12759 44d5 12       		.byte	0x12
 12760 44d6 8E02     		.2byte	0x28e
ARM GAS  /tmp/ccxvl19p.s 			page 225


 12761 44d8 3D       		.uleb128 0x3d
 12762 44d9 DF4D0000 		.4byte	0x4ddf
 12763 44dd 7C090000 		.4byte	.LBB451
 12764 44e1 08000000 		.4byte	.LBE451-.LBB451
 12765 44e5 12       		.byte	0x12
 12766 44e6 7502     		.2byte	0x275
 12767 44e8 3E       		.uleb128 0x3e
 12768 44e9 EC4D0000 		.4byte	0x4dec
 12769 44ed 9B180000 		.4byte	.LLST78
 12770 44f1 00       		.byte	0
 12771 44f2 00       		.byte	0
 12772 44f3 00       		.byte	0
 12773 44f4 00       		.byte	0
 12774 44f5 00       		.byte	0
 12775 44f6 50       		.uleb128 0x50
 12776 44f7 5C050000 		.4byte	.LVL116
 12777 44fb 47       		.uleb128 0x47
 12778 44fc 01       		.uleb128 0x1
 12779 44fd 50       		.byte	0x50
 12780 44fe 02       		.uleb128 0x2
 12781 44ff 74       		.byte	0x74
 12782 4500 00       		.sleb128 0
 12783 4501 47       		.uleb128 0x47
 12784 4502 01       		.uleb128 0x1
 12785 4503 51       		.byte	0x51
 12786 4504 01       		.uleb128 0x1
 12787 4505 30       		.byte	0x30
 12788 4506 00       		.byte	0
 12789 4507 00       		.byte	0
 12790 4508 49       		.uleb128 0x49
 12791 4509 634B0000 		.4byte	0x4b63
 12792 450d 6C050000 		.4byte	.LBB454
 12793 4511 18020000 		.4byte	.Ldebug_ranges0+0x218
 12794 4515 01       		.byte	0x1
 12795 4516 9101     		.2byte	0x191
 12796 4518 3C       		.uleb128 0x3c
 12797 4519 744B0000 		.4byte	0x4b74
 12798 451d 3C       		.uleb128 0x3c
 12799 451e 804B0000 		.4byte	0x4b80
 12800 4522 4B       		.uleb128 0x4b
 12801 4523 8B4B0000 		.4byte	0x4b8b
 12802 4527 18020000 		.4byte	.Ldebug_ranges0+0x218
 12803 452b 40       		.uleb128 0x40
 12804 452c 8C4B0000 		.4byte	0x4b8c
 12805 4530 AF180000 		.4byte	.LLST79
 12806 4534 3D       		.uleb128 0x3d
 12807 4535 234C0000 		.4byte	0x4c23
 12808 4539 A6050000 		.4byte	.LBB456
 12809 453d 1E000000 		.4byte	.LBE456-.LBB456
 12810 4541 01       		.byte	0x1
 12811 4542 5F01     		.2byte	0x15f
 12812 4544 3E       		.uleb128 0x3e
 12813 4545 454C0000 		.4byte	0x4c45
 12814 4549 D8180000 		.4byte	.LLST80
 12815 454d 3E       		.uleb128 0x3e
 12816 454e 3A4C0000 		.4byte	0x4c3a
 12817 4552 EB180000 		.4byte	.LLST81
ARM GAS  /tmp/ccxvl19p.s 			page 226


 12818 4556 3E       		.uleb128 0x3e
 12819 4557 2F4C0000 		.4byte	0x4c2f
 12820 455b 0B190000 		.4byte	.LLST82
 12821 455f 4C       		.uleb128 0x4c
 12822 4560 A6050000 		.4byte	.LBB457
 12823 4564 1E000000 		.4byte	.LBE457-.LBB457
 12824 4568 00       		.byte	0
 12825 4569 00       		.byte	0
 12826 456a 00       		.byte	0
 12827 456b 00       		.byte	0
 12828 456c 00       		.byte	0
 12829 456d 43       		.uleb128 0x43
 12830 456e 184B0000 		.4byte	0x4b18
 12831 4572 F0050000 		.4byte	.LBB465
 12832 4576 30020000 		.4byte	.Ldebug_ranges0+0x230
 12833 457a 01       		.byte	0x1
 12834 457b 7E02     		.2byte	0x27e
 12835 457d 48470000 		.4byte	0x4748
 12836 4581 3E       		.uleb128 0x3e
 12837 4582 254B0000 		.4byte	0x4b25
 12838 4586 21190000 		.4byte	.LLST83
 12839 458a 3E       		.uleb128 0x3e
 12840 458b 314B0000 		.4byte	0x4b31
 12841 458f 69190000 		.4byte	.LLST84
 12842 4593 44       		.uleb128 0x44
 12843 4594 30020000 		.4byte	.Ldebug_ranges0+0x230
 12844 4598 40       		.uleb128 0x40
 12845 4599 3C4B0000 		.4byte	0x4b3c
 12846 459d A1190000 		.4byte	.LLST85
 12847 45a1 40       		.uleb128 0x40
 12848 45a2 484B0000 		.4byte	0x4b48
 12849 45a6 CA190000 		.4byte	.LLST86
 12850 45aa 4E       		.uleb128 0x4e
 12851 45ab 544B0000 		.4byte	0x4b54
 12852 45af 58020000 		.4byte	.Ldebug_ranges0+0x258
 12853 45b3 E3460000 		.4byte	0x46e3
 12854 45b7 40       		.uleb128 0x40
 12855 45b8 554B0000 		.4byte	0x4b55
 12856 45bc F3190000 		.4byte	.LLST87
 12857 45c0 3B       		.uleb128 0x3b
 12858 45c1 A04D0000 		.4byte	0x4da0
 12859 45c5 B6080000 		.4byte	.LBB468
 12860 45c9 06000000 		.4byte	.LBE468-.LBB468
 12861 45cd 01       		.byte	0x1
 12862 45ce 8501     		.2byte	0x185
 12863 45d0 22460000 		.4byte	0x4622
 12864 45d4 3D       		.uleb128 0x3d
 12865 45d5 B24D0000 		.4byte	0x4db2
 12866 45d9 B6080000 		.4byte	.LBB469
 12867 45dd 06000000 		.4byte	.LBE469-.LBB469
 12868 45e1 02       		.byte	0x2
 12869 45e2 1502     		.2byte	0x215
 12870 45e4 3D       		.uleb128 0x3d
 12871 45e5 C44D0000 		.4byte	0x4dc4
 12872 45e9 B6080000 		.4byte	.LBB470
 12873 45ed 06000000 		.4byte	.LBE470-.LBB470
 12874 45f1 17       		.byte	0x17
ARM GAS  /tmp/ccxvl19p.s 			page 227


 12875 45f2 8B01     		.2byte	0x18b
 12876 45f4 3D       		.uleb128 0x3d
 12877 45f5 D64D0000 		.4byte	0x4dd6
 12878 45f9 B6080000 		.4byte	.LBB471
 12879 45fd 06000000 		.4byte	.LBE471-.LBB471
 12880 4601 12       		.byte	0x12
 12881 4602 8302     		.2byte	0x283
 12882 4604 3D       		.uleb128 0x3d
 12883 4605 DF4D0000 		.4byte	0x4ddf
 12884 4609 B6080000 		.4byte	.LBB472
 12885 460d 06000000 		.4byte	.LBE472-.LBB472
 12886 4611 12       		.byte	0x12
 12887 4612 6202     		.2byte	0x262
 12888 4614 3E       		.uleb128 0x3e
 12889 4615 EC4D0000 		.4byte	0x4dec
 12890 4619 4A1A0000 		.4byte	.LLST88
 12891 461d 00       		.byte	0
 12892 461e 00       		.byte	0
 12893 461f 00       		.byte	0
 12894 4620 00       		.byte	0
 12895 4621 00       		.byte	0
 12896 4622 43       		.uleb128 0x43
 12897 4623 51360000 		.4byte	0x3651
 12898 4627 BC080000 		.4byte	.LBB474
 12899 462b 78020000 		.4byte	.Ldebug_ranges0+0x278
 12900 462f 01       		.byte	0x1
 12901 4630 8601     		.2byte	0x186
 12902 4632 6F460000 		.4byte	0x466f
 12903 4636 3E       		.uleb128 0x3e
 12904 4637 6A360000 		.4byte	0x366a
 12905 463b 5F1A0000 		.4byte	.LLST89
 12906 463f 3E       		.uleb128 0x3e
 12907 4640 5E360000 		.4byte	0x365e
 12908 4644 7F1A0000 		.4byte	.LLST90
 12909 4648 44       		.uleb128 0x44
 12910 4649 78020000 		.4byte	.Ldebug_ranges0+0x278
 12911 464d 40       		.uleb128 0x40
 12912 464e 75360000 		.4byte	0x3675
 12913 4652 A71A0000 		.4byte	.LLST91
 12914 4656 4F       		.uleb128 0x4f
 12915 4657 81360000 		.4byte	0x3681
 12916 465b 4C0A0000 		.4byte	.LBB476
 12917 465f 1E000000 		.4byte	.LBE476-.LBB476
 12918 4663 40       		.uleb128 0x40
 12919 4664 82360000 		.4byte	0x3682
 12920 4668 DD1A0000 		.4byte	.LLST92
 12921 466c 00       		.byte	0
 12922 466d 00       		.byte	0
 12923 466e 00       		.byte	0
 12924 466f 3B       		.uleb128 0x3b
 12925 4670 974D0000 		.4byte	0x4d97
 12926 4674 10090000 		.4byte	.LBB478
 12927 4678 0C000000 		.4byte	.LBE478-.LBB478
 12928 467c 01       		.byte	0x1
 12929 467d 8701     		.2byte	0x187
 12930 467f D1460000 		.4byte	0x46d1
 12931 4683 3D       		.uleb128 0x3d
ARM GAS  /tmp/ccxvl19p.s 			page 228


 12932 4684 A94D0000 		.4byte	0x4da9
 12933 4688 10090000 		.4byte	.LBB479
 12934 468c 0C000000 		.4byte	.LBE479-.LBB479
 12935 4690 02       		.byte	0x2
 12936 4691 2002     		.2byte	0x220
 12937 4693 3D       		.uleb128 0x3d
 12938 4694 BB4D0000 		.4byte	0x4dbb
 12939 4698 10090000 		.4byte	.LBB480
 12940 469c 0C000000 		.4byte	.LBE480-.LBB480
 12941 46a0 17       		.byte	0x17
 12942 46a1 A101     		.2byte	0x1a1
 12943 46a3 3D       		.uleb128 0x3d
 12944 46a4 CD4D0000 		.4byte	0x4dcd
 12945 46a8 10090000 		.4byte	.LBB481
 12946 46ac 0C000000 		.4byte	.LBE481-.LBB481
 12947 46b0 12       		.byte	0x12
 12948 46b1 8E02     		.2byte	0x28e
 12949 46b3 3D       		.uleb128 0x3d
 12950 46b4 DF4D0000 		.4byte	0x4ddf
 12951 46b8 10090000 		.4byte	.LBB482
 12952 46bc 0C000000 		.4byte	.LBE482-.LBB482
 12953 46c0 12       		.byte	0x12
 12954 46c1 7502     		.2byte	0x275
 12955 46c3 3E       		.uleb128 0x3e
 12956 46c4 EC4D0000 		.4byte	0x4dec
 12957 46c8 281B0000 		.4byte	.LLST93
 12958 46cc 00       		.byte	0
 12959 46cd 00       		.byte	0
 12960 46ce 00       		.byte	0
 12961 46cf 00       		.byte	0
 12962 46d0 00       		.byte	0
 12963 46d1 50       		.uleb128 0x50
 12964 46d2 26060000 		.4byte	.LVL133
 12965 46d6 47       		.uleb128 0x47
 12966 46d7 01       		.uleb128 0x1
 12967 46d8 50       		.byte	0x50
 12968 46d9 02       		.uleb128 0x2
 12969 46da 74       		.byte	0x74
 12970 46db 00       		.sleb128 0
 12971 46dc 47       		.uleb128 0x47
 12972 46dd 01       		.uleb128 0x1
 12973 46de 51       		.byte	0x51
 12974 46df 01       		.uleb128 0x1
 12975 46e0 32       		.byte	0x32
 12976 46e1 00       		.byte	0
 12977 46e2 00       		.byte	0
 12978 46e3 49       		.uleb128 0x49
 12979 46e4 634B0000 		.4byte	0x4b63
 12980 46e8 36060000 		.4byte	.LBB485
 12981 46ec 90020000 		.4byte	.Ldebug_ranges0+0x290
 12982 46f0 01       		.byte	0x1
 12983 46f1 9101     		.2byte	0x191
 12984 46f3 3C       		.uleb128 0x3c
 12985 46f4 744B0000 		.4byte	0x4b74
 12986 46f8 3C       		.uleb128 0x3c
 12987 46f9 804B0000 		.4byte	0x4b80
 12988 46fd 4B       		.uleb128 0x4b
ARM GAS  /tmp/ccxvl19p.s 			page 229


 12989 46fe 8B4B0000 		.4byte	0x4b8b
 12990 4702 90020000 		.4byte	.Ldebug_ranges0+0x290
 12991 4706 40       		.uleb128 0x40
 12992 4707 8C4B0000 		.4byte	0x4b8c
 12993 470b 3C1B0000 		.4byte	.LLST94
 12994 470f 3D       		.uleb128 0x3d
 12995 4710 234C0000 		.4byte	0x4c23
 12996 4714 70060000 		.4byte	.LBB487
 12997 4718 1E000000 		.4byte	.LBE487-.LBB487
 12998 471c 01       		.byte	0x1
 12999 471d 5F01     		.2byte	0x15f
 13000 471f 3E       		.uleb128 0x3e
 13001 4720 454C0000 		.4byte	0x4c45
 13002 4724 651B0000 		.4byte	.LLST95
 13003 4728 3E       		.uleb128 0x3e
 13004 4729 3A4C0000 		.4byte	0x4c3a
 13005 472d 781B0000 		.4byte	.LLST96
 13006 4731 3E       		.uleb128 0x3e
 13007 4732 2F4C0000 		.4byte	0x4c2f
 13008 4736 981B0000 		.4byte	.LLST97
 13009 473a 4C       		.uleb128 0x4c
 13010 473b 70060000 		.4byte	.LBB488
 13011 473f 1E000000 		.4byte	.LBE488-.LBB488
 13012 4743 00       		.byte	0
 13013 4744 00       		.byte	0
 13014 4745 00       		.byte	0
 13015 4746 00       		.byte	0
 13016 4747 00       		.byte	0
 13017 4748 3B       		.uleb128 0x3b
 13018 4749 CD4A0000 		.4byte	0x4acd
 13019 474d B6060000 		.4byte	.LBB496
 13020 4751 4A000000 		.4byte	.LBE496-.LBB496
 13021 4755 01       		.byte	0x1
 13022 4756 6002     		.2byte	0x260
 13023 4758 C8470000 		.4byte	0x47c8
 13024 475c 3E       		.uleb128 0x3e
 13025 475d DA4A0000 		.4byte	0x4ada
 13026 4761 AF1B0000 		.4byte	.LLST98
 13027 4765 3E       		.uleb128 0x3e
 13028 4766 E64A0000 		.4byte	0x4ae6
 13029 476a C71B0000 		.4byte	.LLST99
 13030 476e 3F       		.uleb128 0x3f
 13031 476f B6060000 		.4byte	.LBB497
 13032 4773 4A000000 		.4byte	.LBE497-.LBB497
 13033 4777 40       		.uleb128 0x40
 13034 4778 F14A0000 		.4byte	0x4af1
 13035 477c DB1B0000 		.4byte	.LLST100
 13036 4780 40       		.uleb128 0x40
 13037 4781 FD4A0000 		.4byte	0x4afd
 13038 4785 EE1B0000 		.4byte	.LLST101
 13039 4789 51       		.uleb128 0x51
 13040 478a 094B0000 		.4byte	0x4b09
 13041 478e E6060000 		.4byte	.LBB498
 13042 4792 1A000000 		.4byte	.LBE498-.LBB498
 13043 4796 B5470000 		.4byte	0x47b5
 13044 479a 40       		.uleb128 0x40
 13045 479b 0A4B0000 		.4byte	0x4b0a
ARM GAS  /tmp/ccxvl19p.s 			page 230


 13046 479f 011C0000 		.4byte	.LLST102
 13047 47a3 50       		.uleb128 0x50
 13048 47a4 FE060000 		.4byte	.LVL151
 13049 47a8 47       		.uleb128 0x47
 13050 47a9 01       		.uleb128 0x1
 13051 47aa 50       		.byte	0x50
 13052 47ab 02       		.uleb128 0x2
 13053 47ac 74       		.byte	0x74
 13054 47ad 00       		.sleb128 0
 13055 47ae 47       		.uleb128 0x47
 13056 47af 01       		.uleb128 0x1
 13057 47b0 51       		.byte	0x51
 13058 47b1 01       		.uleb128 0x1
 13059 47b2 32       		.byte	0x32
 13060 47b3 00       		.byte	0
 13061 47b4 00       		.byte	0
 13062 47b5 50       		.uleb128 0x50
 13063 47b6 D6060000 		.4byte	.LVL147
 13064 47ba 47       		.uleb128 0x47
 13065 47bb 01       		.uleb128 0x1
 13066 47bc 50       		.byte	0x50
 13067 47bd 02       		.uleb128 0x2
 13068 47be 74       		.byte	0x74
 13069 47bf 00       		.sleb128 0
 13070 47c0 47       		.uleb128 0x47
 13071 47c1 01       		.uleb128 0x1
 13072 47c2 51       		.byte	0x51
 13073 47c3 01       		.uleb128 0x1
 13074 47c4 32       		.byte	0x32
 13075 47c5 00       		.byte	0
 13076 47c6 00       		.byte	0
 13077 47c7 00       		.byte	0
 13078 47c8 3B       		.uleb128 0x3b
 13079 47c9 CD4A0000 		.4byte	0x4acd
 13080 47cd 00070000 		.4byte	.LBB499
 13081 47d1 4A000000 		.4byte	.LBE499-.LBB499
 13082 47d5 01       		.byte	0x1
 13083 47d6 5E02     		.2byte	0x25e
 13084 47d8 48480000 		.4byte	0x4848
 13085 47dc 3E       		.uleb128 0x3e
 13086 47dd DA4A0000 		.4byte	0x4ada
 13087 47e1 241C0000 		.4byte	.LLST103
 13088 47e5 3E       		.uleb128 0x3e
 13089 47e6 E64A0000 		.4byte	0x4ae6
 13090 47ea 3C1C0000 		.4byte	.LLST104
 13091 47ee 3F       		.uleb128 0x3f
 13092 47ef 00070000 		.4byte	.LBB500
 13093 47f3 4A000000 		.4byte	.LBE500-.LBB500
 13094 47f7 40       		.uleb128 0x40
 13095 47f8 F14A0000 		.4byte	0x4af1
 13096 47fc 501C0000 		.4byte	.LLST105
 13097 4800 40       		.uleb128 0x40
 13098 4801 FD4A0000 		.4byte	0x4afd
 13099 4805 631C0000 		.4byte	.LLST106
 13100 4809 51       		.uleb128 0x51
 13101 480a 094B0000 		.4byte	0x4b09
 13102 480e 30070000 		.4byte	.LBB501
ARM GAS  /tmp/ccxvl19p.s 			page 231


 13103 4812 1A000000 		.4byte	.LBE501-.LBB501
 13104 4816 35480000 		.4byte	0x4835
 13105 481a 40       		.uleb128 0x40
 13106 481b 0A4B0000 		.4byte	0x4b0a
 13107 481f 761C0000 		.4byte	.LLST107
 13108 4823 50       		.uleb128 0x50
 13109 4824 48070000 		.4byte	.LVL159
 13110 4828 47       		.uleb128 0x47
 13111 4829 01       		.uleb128 0x1
 13112 482a 50       		.byte	0x50
 13113 482b 02       		.uleb128 0x2
 13114 482c 74       		.byte	0x74
 13115 482d 00       		.sleb128 0
 13116 482e 47       		.uleb128 0x47
 13117 482f 01       		.uleb128 0x1
 13118 4830 51       		.byte	0x51
 13119 4831 01       		.uleb128 0x1
 13120 4832 31       		.byte	0x31
 13121 4833 00       		.byte	0
 13122 4834 00       		.byte	0
 13123 4835 50       		.uleb128 0x50
 13124 4836 20070000 		.4byte	.LVL155
 13125 483a 47       		.uleb128 0x47
 13126 483b 01       		.uleb128 0x1
 13127 483c 50       		.byte	0x50
 13128 483d 02       		.uleb128 0x2
 13129 483e 74       		.byte	0x74
 13130 483f 00       		.sleb128 0
 13131 4840 47       		.uleb128 0x47
 13132 4841 01       		.uleb128 0x1
 13133 4842 51       		.byte	0x51
 13134 4843 01       		.uleb128 0x1
 13135 4844 31       		.byte	0x31
 13136 4845 00       		.byte	0
 13137 4846 00       		.byte	0
 13138 4847 00       		.byte	0
 13139 4848 43       		.uleb128 0x43
 13140 4849 CD4A0000 		.4byte	0x4acd
 13141 484d 4A070000 		.4byte	.LBB502
 13142 4851 A8020000 		.4byte	.Ldebug_ranges0+0x2a8
 13143 4855 01       		.byte	0x1
 13144 4856 5C02     		.2byte	0x25c
 13145 4858 D0490000 		.4byte	0x49d0
 13146 485c 3E       		.uleb128 0x3e
 13147 485d DA4A0000 		.4byte	0x4ada
 13148 4861 991C0000 		.4byte	.LLST108
 13149 4865 3E       		.uleb128 0x3e
 13150 4866 E64A0000 		.4byte	0x4ae6
 13151 486a C11C0000 		.4byte	.LLST109
 13152 486e 44       		.uleb128 0x44
 13153 486f A8020000 		.4byte	.Ldebug_ranges0+0x2a8
 13154 4873 40       		.uleb128 0x40
 13155 4874 F14A0000 		.4byte	0x4af1
 13156 4878 E11C0000 		.4byte	.LLST110
 13157 487c 40       		.uleb128 0x40
 13158 487d FD4A0000 		.4byte	0x4afd
 13159 4881 F41C0000 		.4byte	.LLST111
ARM GAS  /tmp/ccxvl19p.s 			page 232


 13160 4885 4E       		.uleb128 0x4e
 13161 4886 094B0000 		.4byte	0x4b09
 13162 488a C0020000 		.4byte	.Ldebug_ranges0+0x2c0
 13163 488e BD490000 		.4byte	0x49bd
 13164 4892 40       		.uleb128 0x40
 13165 4893 0A4B0000 		.4byte	0x4b0a
 13166 4897 071D0000 		.4byte	.LLST112
 13167 489b 3B       		.uleb128 0x3b
 13168 489c A04D0000 		.4byte	0x4da0
 13169 48a0 700A0000 		.4byte	.LBB505
 13170 48a4 06000000 		.4byte	.LBE505-.LBB505
 13171 48a8 01       		.byte	0x1
 13172 48a9 C301     		.2byte	0x1c3
 13173 48ab FD480000 		.4byte	0x48fd
 13174 48af 3D       		.uleb128 0x3d
 13175 48b0 B24D0000 		.4byte	0x4db2
 13176 48b4 700A0000 		.4byte	.LBB506
 13177 48b8 06000000 		.4byte	.LBE506-.LBB506
 13178 48bc 02       		.byte	0x2
 13179 48bd 1502     		.2byte	0x215
 13180 48bf 3D       		.uleb128 0x3d
 13181 48c0 C44D0000 		.4byte	0x4dc4
 13182 48c4 700A0000 		.4byte	.LBB507
 13183 48c8 06000000 		.4byte	.LBE507-.LBB507
 13184 48cc 17       		.byte	0x17
 13185 48cd 8B01     		.2byte	0x18b
 13186 48cf 3D       		.uleb128 0x3d
 13187 48d0 D64D0000 		.4byte	0x4dd6
 13188 48d4 700A0000 		.4byte	.LBB508
 13189 48d8 06000000 		.4byte	.LBE508-.LBB508
 13190 48dc 12       		.byte	0x12
 13191 48dd 8302     		.2byte	0x283
 13192 48df 3D       		.uleb128 0x3d
 13193 48e0 DF4D0000 		.4byte	0x4ddf
 13194 48e4 700A0000 		.4byte	.LBB509
 13195 48e8 06000000 		.4byte	.LBE509-.LBB509
 13196 48ec 12       		.byte	0x12
 13197 48ed 6202     		.2byte	0x262
 13198 48ef 3E       		.uleb128 0x3e
 13199 48f0 EC4D0000 		.4byte	0x4dec
 13200 48f4 431D0000 		.4byte	.LLST113
 13201 48f8 00       		.byte	0
 13202 48f9 00       		.byte	0
 13203 48fa 00       		.byte	0
 13204 48fb 00       		.byte	0
 13205 48fc 00       		.byte	0
 13206 48fd 3B       		.uleb128 0x3b
 13207 48fe 90360000 		.4byte	0x3690
 13208 4902 760A0000 		.4byte	.LBB511
 13209 4906 62000000 		.4byte	.LBE511-.LBB511
 13210 490a 01       		.byte	0x1
 13211 490b C401     		.2byte	0x1c4
 13212 490d 49490000 		.4byte	0x4949
 13213 4911 3E       		.uleb128 0x3e
 13214 4912 A9360000 		.4byte	0x36a9
 13215 4916 581D0000 		.4byte	.LLST114
 13216 491a 3E       		.uleb128 0x3e
ARM GAS  /tmp/ccxvl19p.s 			page 233


 13217 491b 9D360000 		.4byte	0x369d
 13218 491f 6C1D0000 		.4byte	.LLST115
 13219 4923 3F       		.uleb128 0x3f
 13220 4924 760A0000 		.4byte	.LBB512
 13221 4928 62000000 		.4byte	.LBE512-.LBB512
 13222 492c 40       		.uleb128 0x40
 13223 492d B4360000 		.4byte	0x36b4
 13224 4931 841D0000 		.4byte	.LLST116
 13225 4935 40       		.uleb128 0x40
 13226 4936 C0360000 		.4byte	0x36c0
 13227 493a D11D0000 		.4byte	.LLST117
 13228 493e 40       		.uleb128 0x40
 13229 493f CC360000 		.4byte	0x36cc
 13230 4943 651E0000 		.4byte	.LLST118
 13231 4947 00       		.byte	0
 13232 4948 00       		.byte	0
 13233 4949 3B       		.uleb128 0x3b
 13234 494a 974D0000 		.4byte	0x4d97
 13235 494e D80A0000 		.4byte	.LBB513
 13236 4952 10000000 		.4byte	.LBE513-.LBB513
 13237 4956 01       		.byte	0x1
 13238 4957 C501     		.2byte	0x1c5
 13239 4959 AB490000 		.4byte	0x49ab
 13240 495d 3D       		.uleb128 0x3d
 13241 495e A94D0000 		.4byte	0x4da9
 13242 4962 D80A0000 		.4byte	.LBB514
 13243 4966 10000000 		.4byte	.LBE514-.LBB514
 13244 496a 02       		.byte	0x2
 13245 496b 2002     		.2byte	0x220
 13246 496d 3D       		.uleb128 0x3d
 13247 496e BB4D0000 		.4byte	0x4dbb
 13248 4972 D80A0000 		.4byte	.LBB515
 13249 4976 10000000 		.4byte	.LBE515-.LBB515
 13250 497a 17       		.byte	0x17
 13251 497b A101     		.2byte	0x1a1
 13252 497d 3D       		.uleb128 0x3d
 13253 497e CD4D0000 		.4byte	0x4dcd
 13254 4982 D80A0000 		.4byte	.LBB516
 13255 4986 10000000 		.4byte	.LBE516-.LBB516
 13256 498a 12       		.byte	0x12
 13257 498b 8E02     		.2byte	0x28e
 13258 498d 3D       		.uleb128 0x3d
 13259 498e DF4D0000 		.4byte	0x4ddf
 13260 4992 D80A0000 		.4byte	.LBB517
 13261 4996 10000000 		.4byte	.LBE517-.LBB517
 13262 499a 12       		.byte	0x12
 13263 499b 7502     		.2byte	0x275
 13264 499d 3E       		.uleb128 0x3e
 13265 499e EC4D0000 		.4byte	0x4dec
 13266 49a2 931E0000 		.4byte	.LLST119
 13267 49a6 00       		.byte	0
 13268 49a7 00       		.byte	0
 13269 49a8 00       		.byte	0
 13270 49a9 00       		.byte	0
 13271 49aa 00       		.byte	0
 13272 49ab 50       		.uleb128 0x50
 13273 49ac AC070000 		.4byte	.LVL168
ARM GAS  /tmp/ccxvl19p.s 			page 234


 13274 49b0 47       		.uleb128 0x47
 13275 49b1 01       		.uleb128 0x1
 13276 49b2 50       		.byte	0x50
 13277 49b3 02       		.uleb128 0x2
 13278 49b4 74       		.byte	0x74
 13279 49b5 00       		.sleb128 0
 13280 49b6 47       		.uleb128 0x47
 13281 49b7 01       		.uleb128 0x1
 13282 49b8 51       		.byte	0x51
 13283 49b9 01       		.uleb128 0x1
 13284 49ba 30       		.byte	0x30
 13285 49bb 00       		.byte	0
 13286 49bc 00       		.byte	0
 13287 49bd 50       		.uleb128 0x50
 13288 49be 6A070000 		.4byte	.LVL163
 13289 49c2 47       		.uleb128 0x47
 13290 49c3 01       		.uleb128 0x1
 13291 49c4 50       		.byte	0x50
 13292 49c5 02       		.uleb128 0x2
 13293 49c6 74       		.byte	0x74
 13294 49c7 00       		.sleb128 0
 13295 49c8 47       		.uleb128 0x47
 13296 49c9 01       		.uleb128 0x1
 13297 49ca 51       		.byte	0x51
 13298 49cb 01       		.uleb128 0x1
 13299 49cc 30       		.byte	0x30
 13300 49cd 00       		.byte	0
 13301 49ce 00       		.byte	0
 13302 49cf 00       		.byte	0
 13303 49d0 52       		.uleb128 0x52
 13304 49d1 66000000 		.4byte	.LVL4
 13305 49d5 E0490000 		.4byte	0x49e0
 13306 49d9 47       		.uleb128 0x47
 13307 49da 01       		.uleb128 0x1
 13308 49db 50       		.byte	0x50
 13309 49dc 02       		.uleb128 0x2
 13310 49dd 74       		.byte	0x74
 13311 49de 00       		.sleb128 0
 13312 49df 00       		.byte	0
 13313 49e0 53       		.uleb128 0x53
 13314 49e1 EA000000 		.4byte	.LVL10
 13315 49e5 A64E0000 		.4byte	0x4ea6
 13316 49e9 F4490000 		.4byte	0x49f4
 13317 49ed 47       		.uleb128 0x47
 13318 49ee 01       		.uleb128 0x1
 13319 49ef 50       		.byte	0x50
 13320 49f0 02       		.uleb128 0x2
 13321 49f1 74       		.byte	0x74
 13322 49f2 00       		.sleb128 0
 13323 49f3 00       		.byte	0
 13324 49f4 53       		.uleb128 0x53
 13325 49f5 7E020000 		.4byte	.LVL42
 13326 49f9 B24E0000 		.4byte	0x4eb2
 13327 49fd 084A0000 		.4byte	0x4a08
 13328 4a01 47       		.uleb128 0x47
 13329 4a02 01       		.uleb128 0x1
 13330 4a03 50       		.byte	0x50
ARM GAS  /tmp/ccxvl19p.s 			page 235


 13331 4a04 02       		.uleb128 0x2
 13332 4a05 74       		.byte	0x74
 13333 4a06 00       		.sleb128 0
 13334 4a07 00       		.byte	0
 13335 4a08 46       		.uleb128 0x46
 13336 4a09 E6020000 		.4byte	.LVL51
 13337 4a0d BE4E0000 		.4byte	0x4ebe
 13338 4a11 47       		.uleb128 0x47
 13339 4a12 01       		.uleb128 0x1
 13340 4a13 50       		.byte	0x50
 13341 4a14 02       		.uleb128 0x2
 13342 4a15 74       		.byte	0x74
 13343 4a16 00       		.sleb128 0
 13344 4a17 00       		.byte	0
 13345 4a18 00       		.byte	0
 13346 4a19 00       		.byte	0
 13347 4a1a 54       		.uleb128 0x54
 13348 4a1b C4000000 		.4byte	.LVL9
 13349 4a1f CA4E0000 		.4byte	0x4eca
 13350 4a23 54       		.uleb128 0x54
 13351 4a24 F0020000 		.4byte	.LVL52
 13352 4a28 CA4E0000 		.4byte	0x4eca
 13353 4a2c 00       		.byte	0
 13354 4a2d 55       		.uleb128 0x55
 13355 4a2e 99130000 		.4byte	.LASF744
 13356 4a32 01       		.byte	0x1
 13357 4a33 1002     		.2byte	0x210
 13358 4a35 01       		.byte	0x1
 13359 4a36 6B4A0000 		.4byte	0x4a6b
 13360 4a3a 32       		.uleb128 0x32
 13361 4a3b 5D1D0000 		.4byte	.LASF723
 13362 4a3f 01       		.byte	0x1
 13363 4a40 1002     		.2byte	0x210
 13364 4a42 3C2D0000 		.4byte	0x2d3c
 13365 4a46 36       		.uleb128 0x36
 13366 4a47 9E170000 		.4byte	.LASF737
 13367 4a4b 01       		.byte	0x1
 13368 4a4c 1102     		.2byte	0x211
 13369 4a4e FA340000 		.4byte	0x34fa
 13370 4a52 34       		.uleb128 0x34
 13371 4a53 73747300 		.ascii	"sts\000"
 13372 4a57 01       		.byte	0x1
 13373 4a58 1202     		.2byte	0x212
 13374 4a5a 00090000 		.4byte	0x900
 13375 4a5e 34       		.uleb128 0x34
 13376 4a5f 73726300 		.ascii	"src\000"
 13377 4a63 01       		.byte	0x1
 13378 4a64 1202     		.2byte	0x212
 13379 4a66 00090000 		.4byte	0x900
 13380 4a6a 00       		.byte	0
 13381 4a6b 55       		.uleb128 0x55
 13382 4a6c D0090000 		.4byte	.LASF745
 13383 4a70 01       		.byte	0x1
 13384 4a71 F601     		.2byte	0x1f6
 13385 4a73 01       		.byte	0x1
 13386 4a74 9C4A0000 		.4byte	0x4a9c
 13387 4a78 32       		.uleb128 0x32
ARM GAS  /tmp/ccxvl19p.s 			page 236


 13388 4a79 5D1D0000 		.4byte	.LASF723
 13389 4a7d 01       		.byte	0x1
 13390 4a7e F601     		.2byte	0x1f6
 13391 4a80 3C2D0000 		.4byte	0x2d3c
 13392 4a84 34       		.uleb128 0x34
 13393 4a85 657000   		.ascii	"ep\000"
 13394 4a88 01       		.byte	0x1
 13395 4a89 F701     		.2byte	0x1f7
 13396 4a8b E82B0000 		.4byte	0x2be8
 13397 4a8f 36       		.uleb128 0x36
 13398 4a90 9E170000 		.4byte	.LASF737
 13399 4a94 01       		.byte	0x1
 13400 4a95 F801     		.2byte	0x1f8
 13401 4a97 FA340000 		.4byte	0x34fa
 13402 4a9b 00       		.byte	0
 13403 4a9c 55       		.uleb128 0x55
 13404 4a9d 19130000 		.4byte	.LASF746
 13405 4aa1 01       		.byte	0x1
 13406 4aa2 D601     		.2byte	0x1d6
 13407 4aa4 01       		.byte	0x1
 13408 4aa5 CD4A0000 		.4byte	0x4acd
 13409 4aa9 32       		.uleb128 0x32
 13410 4aaa 5D1D0000 		.4byte	.LASF723
 13411 4aae 01       		.byte	0x1
 13412 4aaf D601     		.2byte	0x1d6
 13413 4ab1 3C2D0000 		.4byte	0x2d3c
 13414 4ab5 34       		.uleb128 0x34
 13415 4ab6 657000   		.ascii	"ep\000"
 13416 4ab9 01       		.byte	0x1
 13417 4aba D701     		.2byte	0x1d7
 13418 4abc E82B0000 		.4byte	0x2be8
 13419 4ac0 36       		.uleb128 0x36
 13420 4ac1 9E170000 		.4byte	.LASF737
 13421 4ac5 01       		.byte	0x1
 13422 4ac6 D801     		.2byte	0x1d8
 13423 4ac8 FA340000 		.4byte	0x34fa
 13424 4acc 00       		.byte	0
 13425 4acd 55       		.uleb128 0x55
 13426 4ace B5010000 		.4byte	.LASF747
 13427 4ad2 01       		.byte	0x1
 13428 4ad3 9D01     		.2byte	0x19d
 13429 4ad5 01       		.byte	0x1
 13430 4ad6 184B0000 		.4byte	0x4b18
 13431 4ada 32       		.uleb128 0x32
 13432 4adb 5D1D0000 		.4byte	.LASF723
 13433 4adf 01       		.byte	0x1
 13434 4ae0 9D01     		.2byte	0x19d
 13435 4ae2 3C2D0000 		.4byte	0x2d3c
 13436 4ae6 33       		.uleb128 0x33
 13437 4ae7 657000   		.ascii	"ep\000"
 13438 4aea 01       		.byte	0x1
 13439 4aeb 9D01     		.2byte	0x19d
 13440 4aed E82B0000 		.4byte	0x2be8
 13441 4af1 36       		.uleb128 0x36
 13442 4af2 9E170000 		.4byte	.LASF737
 13443 4af6 01       		.byte	0x1
 13444 4af7 9E01     		.2byte	0x19e
ARM GAS  /tmp/ccxvl19p.s 			page 237


 13445 4af9 FA340000 		.4byte	0x34fa
 13446 4afd 36       		.uleb128 0x36
 13447 4afe 65020000 		.4byte	.LASF748
 13448 4b02 01       		.byte	0x1
 13449 4b03 9F01     		.2byte	0x19f
 13450 4b05 00090000 		.4byte	0x900
 13451 4b09 35       		.uleb128 0x35
 13452 4b0a 34       		.uleb128 0x34
 13453 4b0b 6F737000 		.ascii	"osp\000"
 13454 4b0f 01       		.byte	0x1
 13455 4b10 AB01     		.2byte	0x1ab
 13456 4b12 68340000 		.4byte	0x3468
 13457 4b16 00       		.byte	0
 13458 4b17 00       		.byte	0
 13459 4b18 55       		.uleb128 0x55
 13460 4b19 DB170000 		.4byte	.LASF749
 13461 4b1d 01       		.byte	0x1
 13462 4b1e 7201     		.2byte	0x172
 13463 4b20 01       		.byte	0x1
 13464 4b21 634B0000 		.4byte	0x4b63
 13465 4b25 32       		.uleb128 0x32
 13466 4b26 5D1D0000 		.4byte	.LASF723
 13467 4b2a 01       		.byte	0x1
 13468 4b2b 7201     		.2byte	0x172
 13469 4b2d 3C2D0000 		.4byte	0x2d3c
 13470 4b31 33       		.uleb128 0x33
 13471 4b32 657000   		.ascii	"ep\000"
 13472 4b35 01       		.byte	0x1
 13473 4b36 7201     		.2byte	0x172
 13474 4b38 E82B0000 		.4byte	0x2be8
 13475 4b3c 36       		.uleb128 0x36
 13476 4b3d 9E170000 		.4byte	.LASF737
 13477 4b41 01       		.byte	0x1
 13478 4b42 7301     		.2byte	0x173
 13479 4b44 FA340000 		.4byte	0x34fa
 13480 4b48 36       		.uleb128 0x36
 13481 4b49 65020000 		.4byte	.LASF748
 13482 4b4d 01       		.byte	0x1
 13483 4b4e 7401     		.2byte	0x174
 13484 4b50 00090000 		.4byte	0x900
 13485 4b54 35       		.uleb128 0x35
 13486 4b55 34       		.uleb128 0x34
 13487 4b56 69737000 		.ascii	"isp\000"
 13488 4b5a 01       		.byte	0x1
 13489 4b5b 7D01     		.2byte	0x17d
 13490 4b5d 62340000 		.4byte	0x3462
 13491 4b61 00       		.byte	0
 13492 4b62 00       		.byte	0
 13493 4b63 56       		.uleb128 0x56
 13494 4b64 850C0000 		.4byte	.LASF755
 13495 4b68 01       		.byte	0x1
 13496 4b69 4401     		.2byte	0x144
 13497 4b6b F5180000 		.4byte	0x18f5
 13498 4b6f 01       		.byte	0x1
 13499 4b70 984B0000 		.4byte	0x4b98
 13500 4b74 32       		.uleb128 0x32
 13501 4b75 5D1D0000 		.4byte	.LASF723
ARM GAS  /tmp/ccxvl19p.s 			page 238


 13502 4b79 01       		.byte	0x1
 13503 4b7a 4401     		.2byte	0x144
 13504 4b7c 3C2D0000 		.4byte	0x2d3c
 13505 4b80 33       		.uleb128 0x33
 13506 4b81 657000   		.ascii	"ep\000"
 13507 4b84 01       		.byte	0x1
 13508 4b85 4401     		.2byte	0x144
 13509 4b87 E82B0000 		.4byte	0x2be8
 13510 4b8b 35       		.uleb128 0x35
 13511 4b8c 34       		.uleb128 0x34
 13512 4b8d 6E00     		.ascii	"n\000"
 13513 4b8f 01       		.byte	0x1
 13514 4b90 4801     		.2byte	0x148
 13515 4b92 00090000 		.4byte	0x900
 13516 4b96 00       		.byte	0
 13517 4b97 00       		.byte	0
 13518 4b98 55       		.uleb128 0x55
 13519 4b99 D6060000 		.4byte	.LASF750
 13520 4b9d 01       		.byte	0x1
 13521 4b9e 1901     		.2byte	0x119
 13522 4ba0 01       		.byte	0x1
 13523 4ba1 D54B0000 		.4byte	0x4bd5
 13524 4ba5 32       		.uleb128 0x32
 13525 4ba6 5D1D0000 		.4byte	.LASF723
 13526 4baa 01       		.byte	0x1
 13527 4bab 1901     		.2byte	0x119
 13528 4bad 3C2D0000 		.4byte	0x2d3c
 13529 4bb1 34       		.uleb128 0x34
 13530 4bb2 73747300 		.ascii	"sts\000"
 13531 4bb6 01       		.byte	0x1
 13532 4bb7 1A01     		.2byte	0x11a
 13533 4bb9 00090000 		.4byte	0x900
 13534 4bbd 34       		.uleb128 0x34
 13535 4bbe 636E7400 		.ascii	"cnt\000"
 13536 4bc2 01       		.byte	0x1
 13537 4bc3 1A01     		.2byte	0x11a
 13538 4bc5 00090000 		.4byte	0x900
 13539 4bc9 34       		.uleb128 0x34
 13540 4bca 657000   		.ascii	"ep\000"
 13541 4bcd 01       		.byte	0x1
 13542 4bce 1A01     		.2byte	0x11a
 13543 4bd0 00090000 		.4byte	0x900
 13544 4bd4 00       		.byte	0
 13545 4bd5 57       		.uleb128 0x57
 13546 4bd6 48200000 		.4byte	.LASF751
 13547 4bda 01       		.byte	0x1
 13548 4bdb FF       		.byte	0xff
 13549 4bdc 01       		.byte	0x1
 13550 4bdd 234C0000 		.4byte	0x4c23
 13551 4be1 58       		.uleb128 0x58
 13552 4be2 85120000 		.4byte	.LASF752
 13553 4be6 01       		.byte	0x1
 13554 4be7 FF       		.byte	0xff
 13555 4be8 261B0000 		.4byte	0x1b26
 13556 4bec 33       		.uleb128 0x33
 13557 4bed 62756600 		.ascii	"buf\000"
 13558 4bf1 01       		.byte	0x1
ARM GAS  /tmp/ccxvl19p.s 			page 239


 13559 4bf2 0001     		.2byte	0x100
 13560 4bf4 42190000 		.4byte	0x1942
 13561 4bf8 33       		.uleb128 0x33
 13562 4bf9 6E00     		.ascii	"n\000"
 13563 4bfb 01       		.byte	0x1
 13564 4bfc 0101     		.2byte	0x101
 13565 4bfe 33000000 		.4byte	0x33
 13566 4c02 33       		.uleb128 0x33
 13567 4c03 6D617800 		.ascii	"max\000"
 13568 4c07 01       		.byte	0x1
 13569 4c08 0201     		.2byte	0x102
 13570 4c0a 33000000 		.4byte	0x33
 13571 4c0e 34       		.uleb128 0x34
 13572 4c0f 7700     		.ascii	"w\000"
 13573 4c11 01       		.byte	0x1
 13574 4c12 0301     		.2byte	0x103
 13575 4c14 00090000 		.4byte	0x900
 13576 4c18 34       		.uleb128 0x34
 13577 4c19 6900     		.ascii	"i\000"
 13578 4c1b 01       		.byte	0x1
 13579 4c1c 0401     		.2byte	0x104
 13580 4c1e 33000000 		.4byte	0x33
 13581 4c22 00       		.byte	0
 13582 4c23 57       		.uleb128 0x57
 13583 4c24 23040000 		.4byte	.LASF753
 13584 4c28 01       		.byte	0x1
 13585 4c29 E5       		.byte	0xe5
 13586 4c2a 01       		.byte	0x1
 13587 4c2b 5C4C0000 		.4byte	0x4c5c
 13588 4c2f 58       		.uleb128 0x58
 13589 4c30 85120000 		.4byte	.LASF752
 13590 4c34 01       		.byte	0x1
 13591 4c35 E5       		.byte	0xe5
 13592 4c36 261B0000 		.4byte	0x1b26
 13593 4c3a 59       		.uleb128 0x59
 13594 4c3b 62756600 		.ascii	"buf\000"
 13595 4c3f 01       		.byte	0x1
 13596 4c40 E6       		.byte	0xe6
 13597 4c41 771B0000 		.4byte	0x1b77
 13598 4c45 59       		.uleb128 0x59
 13599 4c46 6E00     		.ascii	"n\000"
 13600 4c48 01       		.byte	0x1
 13601 4c49 E7       		.byte	0xe7
 13602 4c4a 33000000 		.4byte	0x33
 13603 4c4e 5A       		.uleb128 0x5a
 13604 4c4f 44000000 		.4byte	.LASF754
 13605 4c53 6C4C0000 		.4byte	0x4c6c
 13606 4c57 23040000 		.4byte	.LASF753
 13607 4c5b 00       		.byte	0
 13608 4c5c 09       		.uleb128 0x9
 13609 4c5d 5B010000 		.4byte	0x15b
 13610 4c61 6C4C0000 		.4byte	0x4c6c
 13611 4c65 0A       		.uleb128 0xa
 13612 4c66 25000000 		.4byte	0x25
 13613 4c6a 1A       		.byte	0x1a
 13614 4c6b 00       		.byte	0
 13615 4c6c 0F       		.uleb128 0xf
ARM GAS  /tmp/ccxvl19p.s 			page 240


 13616 4c6d 5C4C0000 		.4byte	0x4c5c
 13617 4c71 5B       		.uleb128 0x5b
 13618 4c72 260D0000 		.4byte	.LASF756
 13619 4c76 01       		.byte	0x1
 13620 4c77 D2       		.byte	0xd2
 13621 4c78 00090000 		.4byte	0x900
 13622 4c7c 01       		.byte	0x1
 13623 4c7d B04C0000 		.4byte	0x4cb0
 13624 4c81 58       		.uleb128 0x58
 13625 4c82 5D1D0000 		.4byte	.LASF723
 13626 4c86 01       		.byte	0x1
 13627 4c87 D2       		.byte	0xd2
 13628 4c88 3C2D0000 		.4byte	0x2d3c
 13629 4c8c 58       		.uleb128 0x58
 13630 4c8d 4E0B0000 		.4byte	.LASF297
 13631 4c91 01       		.byte	0x1
 13632 4c92 D2       		.byte	0xd2
 13633 4c93 33000000 		.4byte	0x33
 13634 4c97 5C       		.uleb128 0x5c
 13635 4c98 01020000 		.4byte	.LASF162
 13636 4c9c 01       		.byte	0x1
 13637 4c9d D3       		.byte	0xd3
 13638 4c9e 00090000 		.4byte	0x900
 13639 4ca2 5A       		.uleb128 0x5a
 13640 4ca3 44000000 		.4byte	.LASF754
 13641 4ca7 C04C0000 		.4byte	0x4cc0
 13642 4cab 260D0000 		.4byte	.LASF756
 13643 4caf 00       		.byte	0
 13644 4cb0 09       		.uleb128 0x9
 13645 4cb1 5B010000 		.4byte	0x15b
 13646 4cb5 C04C0000 		.4byte	0x4cc0
 13647 4cb9 0A       		.uleb128 0xa
 13648 4cba 25000000 		.4byte	0x25
 13649 4cbe 0D       		.byte	0xd
 13650 4cbf 00       		.byte	0
 13651 4cc0 0F       		.uleb128 0xf
 13652 4cc1 B04C0000 		.4byte	0x4cb0
 13653 4cc5 57       		.uleb128 0x57
 13654 4cc6 971B0000 		.4byte	.LASF757
 13655 4cca 01       		.byte	0x1
 13656 4ccb C5       		.byte	0xc5
 13657 4ccc 01       		.byte	0x1
 13658 4ccd DD4C0000 		.4byte	0x4cdd
 13659 4cd1 58       		.uleb128 0x58
 13660 4cd2 5D1D0000 		.4byte	.LASF723
 13661 4cd6 01       		.byte	0x1
 13662 4cd7 C5       		.byte	0xc5
 13663 4cd8 3C2D0000 		.4byte	0x2d3c
 13664 4cdc 00       		.byte	0
 13665 4cdd 57       		.uleb128 0x57
 13666 4cde A90F0000 		.4byte	.LASF758
 13667 4ce2 01       		.byte	0x1
 13668 4ce3 B4       		.byte	0xb4
 13669 4ce4 01       		.byte	0x1
 13670 4ce5 0B4D0000 		.4byte	0x4d0b
 13671 4ce9 58       		.uleb128 0x58
 13672 4cea 5D1D0000 		.4byte	.LASF723
ARM GAS  /tmp/ccxvl19p.s 			page 241


 13673 4cee 01       		.byte	0x1
 13674 4cef B4       		.byte	0xb4
 13675 4cf0 3C2D0000 		.4byte	0x2d3c
 13676 4cf4 58       		.uleb128 0x58
 13677 4cf5 760A0000 		.4byte	.LASF759
 13678 4cf9 01       		.byte	0x1
 13679 4cfa B4       		.byte	0xb4
 13680 4cfb 00090000 		.4byte	0x900
 13681 4cff 5C       		.uleb128 0x5c
 13682 4d00 9E170000 		.4byte	.LASF737
 13683 4d04 01       		.byte	0x1
 13684 4d05 B5       		.byte	0xb5
 13685 4d06 FA340000 		.4byte	0x34fa
 13686 4d0a 00       		.byte	0
 13687 4d0b 57       		.uleb128 0x57
 13688 4d0c C01D0000 		.4byte	.LASF760
 13689 4d10 01       		.byte	0x1
 13690 4d11 AA       		.byte	0xaa
 13691 4d12 01       		.byte	0x1
 13692 4d13 2E4D0000 		.4byte	0x4d2e
 13693 4d17 58       		.uleb128 0x58
 13694 4d18 5D1D0000 		.4byte	.LASF723
 13695 4d1c 01       		.byte	0x1
 13696 4d1d AA       		.byte	0xaa
 13697 4d1e 3C2D0000 		.4byte	0x2d3c
 13698 4d22 5C       		.uleb128 0x5c
 13699 4d23 9E170000 		.4byte	.LASF737
 13700 4d27 01       		.byte	0x1
 13701 4d28 AB       		.byte	0xab
 13702 4d29 FA340000 		.4byte	0x34fa
 13703 4d2d 00       		.byte	0
 13704 4d2e 57       		.uleb128 0x57
 13705 4d2f AF160000 		.4byte	.LASF761
 13706 4d33 01       		.byte	0x1
 13707 4d34 9A       		.byte	0x9a
 13708 4d35 01       		.byte	0x1
 13709 4d36 5A4D0000 		.4byte	0x4d5a
 13710 4d3a 58       		.uleb128 0x58
 13711 4d3b 5D1D0000 		.4byte	.LASF723
 13712 4d3f 01       		.byte	0x1
 13713 4d40 9A       		.byte	0x9a
 13714 4d41 3C2D0000 		.4byte	0x2d3c
 13715 4d45 5C       		.uleb128 0x5c
 13716 4d46 9E170000 		.4byte	.LASF737
 13717 4d4a 01       		.byte	0x1
 13718 4d4b 9B       		.byte	0x9b
 13719 4d4c FA340000 		.4byte	0x34fa
 13720 4d50 5D       		.uleb128 0x5d
 13721 4d51 6900     		.ascii	"i\000"
 13722 4d53 01       		.byte	0x1
 13723 4d54 9C       		.byte	0x9c
 13724 4d55 25000000 		.4byte	0x25
 13725 4d59 00       		.byte	0
 13726 4d5a 57       		.uleb128 0x57
 13727 4d5b 310A0000 		.4byte	.LASF762
 13728 4d5f 01       		.byte	0x1
 13729 4d60 86       		.byte	0x86
ARM GAS  /tmp/ccxvl19p.s 			page 242


 13730 4d61 01       		.byte	0x1
 13731 4d62 7D4D0000 		.4byte	0x4d7d
 13732 4d66 58       		.uleb128 0x58
 13733 4d67 5D1D0000 		.4byte	.LASF723
 13734 4d6b 01       		.byte	0x1
 13735 4d6c 86       		.byte	0x86
 13736 4d6d 3C2D0000 		.4byte	0x2d3c
 13737 4d71 5C       		.uleb128 0x5c
 13738 4d72 9E170000 		.4byte	.LASF737
 13739 4d76 01       		.byte	0x1
 13740 4d77 87       		.byte	0x87
 13741 4d78 FA340000 		.4byte	0x34fa
 13742 4d7c 00       		.byte	0
 13743 4d7d 55       		.uleb128 0x55
 13744 4d7e B71F0000 		.4byte	.LASF763
 13745 4d82 02       		.byte	0x2
 13746 4d83 4D02     		.2byte	0x24d
 13747 4d85 03       		.byte	0x3
 13748 4d86 974D0000 		.4byte	0x4d97
 13749 4d8a 32       		.uleb128 0x32
 13750 4d8b BF020000 		.4byte	.LASF764
 13751 4d8f 02       		.byte	0x2
 13752 4d90 4D02     		.2byte	0x24d
 13753 4d92 1B090000 		.4byte	0x91b
 13754 4d96 00       		.byte	0
 13755 4d97 5E       		.uleb128 0x5e
 13756 4d98 92050000 		.4byte	.LASF765
 13757 4d9c 02       		.byte	0x2
 13758 4d9d 1E02     		.2byte	0x21e
 13759 4d9f 03       		.byte	0x3
 13760 4da0 5E       		.uleb128 0x5e
 13761 4da1 EB120000 		.4byte	.LASF766
 13762 4da5 02       		.byte	0x2
 13763 4da6 1302     		.2byte	0x213
 13764 4da8 03       		.byte	0x3
 13765 4da9 5E       		.uleb128 0x5e
 13766 4daa 71160000 		.4byte	.LASF767
 13767 4dae 17       		.byte	0x17
 13768 4daf 9D01     		.2byte	0x19d
 13769 4db1 03       		.byte	0x3
 13770 4db2 5E       		.uleb128 0x5e
 13771 4db3 9A1D0000 		.4byte	.LASF768
 13772 4db7 17       		.byte	0x17
 13773 4db8 8901     		.2byte	0x189
 13774 4dba 03       		.byte	0x3
 13775 4dbb 5E       		.uleb128 0x5e
 13776 4dbc 53000000 		.4byte	.LASF769
 13777 4dc0 12       		.byte	0x12
 13778 4dc1 8C02     		.2byte	0x28c
 13779 4dc3 03       		.byte	0x3
 13780 4dc4 5E       		.uleb128 0x5e
 13781 4dc5 23110000 		.4byte	.LASF770
 13782 4dc9 12       		.byte	0x12
 13783 4dca 8102     		.2byte	0x281
 13784 4dcc 03       		.byte	0x3
 13785 4dcd 5E       		.uleb128 0x5e
 13786 4dce FC130000 		.4byte	.LASF771
ARM GAS  /tmp/ccxvl19p.s 			page 243


 13787 4dd2 12       		.byte	0x12
 13788 4dd3 7202     		.2byte	0x272
 13789 4dd5 03       		.byte	0x3
 13790 4dd6 5E       		.uleb128 0x5e
 13791 4dd7 79150000 		.4byte	.LASF772
 13792 4ddb 12       		.byte	0x12
 13793 4ddc 5A02     		.2byte	0x25a
 13794 4dde 03       		.byte	0x3
 13795 4ddf 55       		.uleb128 0x55
 13796 4de0 461F0000 		.4byte	.LASF773
 13797 4de4 03       		.byte	0x3
 13798 4de5 EB01     		.2byte	0x1eb
 13799 4de7 03       		.byte	0x3
 13800 4de8 F94D0000 		.4byte	0x4df9
 13801 4dec 32       		.uleb128 0x32
 13802 4ded 1B020000 		.4byte	.LASF774
 13803 4df1 03       		.byte	0x3
 13804 4df2 EB01     		.2byte	0x1eb
 13805 4df4 00090000 		.4byte	0x900
 13806 4df8 00       		.byte	0
 13807 4df9 5F       		.uleb128 0x5f
 13808 4dfa 90360000 		.4byte	0x3690
 13809 4dfe 00000000 		.4byte	.LFB353
 13810 4e02 80000000 		.4byte	.LFE353-.LFB353
 13811 4e06 01       		.uleb128 0x1
 13812 4e07 9C       		.byte	0x9c
 13813 4e08 3A4E0000 		.4byte	0x4e3a
 13814 4e0c 3E       		.uleb128 0x3e
 13815 4e0d 9D360000 		.4byte	0x369d
 13816 4e11 A71E0000 		.4byte	.LLST177
 13817 4e15 3E       		.uleb128 0x3e
 13818 4e16 A9360000 		.4byte	0x36a9
 13819 4e1a C81E0000 		.4byte	.LLST178
 13820 4e1e 40       		.uleb128 0x40
 13821 4e1f B4360000 		.4byte	0x36b4
 13822 4e23 021F0000 		.4byte	.LLST179
 13823 4e27 40       		.uleb128 0x40
 13824 4e28 C0360000 		.4byte	0x36c0
 13825 4e2c 151F0000 		.4byte	.LLST180
 13826 4e30 40       		.uleb128 0x40
 13827 4e31 CC360000 		.4byte	0x36cc
 13828 4e35 891F0000 		.4byte	.LLST181
 13829 4e39 00       		.byte	0
 13830 4e3a 5F       		.uleb128 0x5f
 13831 4e3b 51360000 		.4byte	0x3651
 13832 4e3f 00000000 		.4byte	.LFB354
 13833 4e43 A8000000 		.4byte	.LFE354-.LFB354
 13834 4e47 01       		.uleb128 0x1
 13835 4e48 9C       		.byte	0x9c
 13836 4e49 784E0000 		.4byte	0x4e78
 13837 4e4d 3E       		.uleb128 0x3e
 13838 4e4e 5E360000 		.4byte	0x365e
 13839 4e52 D61F0000 		.4byte	.LLST182
 13840 4e56 3E       		.uleb128 0x3e
 13841 4e57 6A360000 		.4byte	0x366a
 13842 4e5b F71F0000 		.4byte	.LLST183
 13843 4e5f 40       		.uleb128 0x40
ARM GAS  /tmp/ccxvl19p.s 			page 244


 13844 4e60 75360000 		.4byte	0x3675
 13845 4e64 23200000 		.4byte	.LLST184
 13846 4e68 44       		.uleb128 0x44
 13847 4e69 70030000 		.4byte	.Ldebug_ranges0+0x370
 13848 4e6d 40       		.uleb128 0x40
 13849 4e6e 82360000 		.4byte	0x3682
 13850 4e72 92200000 		.4byte	.LLST185
 13851 4e76 00       		.byte	0
 13852 4e77 00       		.byte	0
 13853 4e78 60       		.uleb128 0x60
 13854 4e79 C41A0000 		.4byte	.LASF775
 13855 4e7d C41A0000 		.4byte	.LASF775
 13856 4e81 17       		.byte	0x17
 13857 4e82 2401     		.2byte	0x124
 13858 4e84 61       		.uleb128 0x61
 13859 4e85 D4030000 		.4byte	.LASF776
 13860 4e89 D4030000 		.4byte	.LASF776
 13861 4e8d 34       		.byte	0x34
 13862 4e8e 4F       		.byte	0x4f
 13863 4e8f 61       		.uleb128 0x61
 13864 4e90 F31C0000 		.4byte	.LASF777
 13865 4e94 F31C0000 		.4byte	.LASF777
 13866 4e98 34       		.byte	0x34
 13867 4e99 4E       		.byte	0x4e
 13868 4e9a 60       		.uleb128 0x60
 13869 4e9b FE120000 		.4byte	.LASF778
 13870 4e9f FE120000 		.4byte	.LASF778
 13871 4ea3 31       		.byte	0x31
 13872 4ea4 5E02     		.2byte	0x25e
 13873 4ea6 60       		.uleb128 0x60
 13874 4ea7 75000000 		.4byte	.LASF779
 13875 4eab 75000000 		.4byte	.LASF779
 13876 4eaf 31       		.byte	0x31
 13877 4eb0 7202     		.2byte	0x272
 13878 4eb2 60       		.uleb128 0x60
 13879 4eb3 840B0000 		.4byte	.LASF780
 13880 4eb7 840B0000 		.4byte	.LASF780
 13881 4ebb 31       		.byte	0x31
 13882 4ebc 7102     		.2byte	0x271
 13883 4ebe 60       		.uleb128 0x60
 13884 4ebf 2F070000 		.4byte	.LASF781
 13885 4ec3 2F070000 		.4byte	.LASF781
 13886 4ec7 31       		.byte	0x31
 13887 4ec8 7002     		.2byte	0x270
 13888 4eca 60       		.uleb128 0x60
 13889 4ecb CA1B0000 		.4byte	.LASF782
 13890 4ecf CA1B0000 		.4byte	.LASF782
 13891 4ed3 12       		.byte	0x12
 13892 4ed4 F201     		.2byte	0x1f2
 13893 4ed6 00       		.byte	0
 13894              		.section	.debug_abbrev,"",%progbits
 13895              	.Ldebug_abbrev0:
 13896 0000 01       		.uleb128 0x1
 13897 0001 11       		.uleb128 0x11
 13898 0002 01       		.byte	0x1
 13899 0003 25       		.uleb128 0x25
 13900 0004 0E       		.uleb128 0xe
ARM GAS  /tmp/ccxvl19p.s 			page 245


 13901 0005 13       		.uleb128 0x13
 13902 0006 0B       		.uleb128 0xb
 13903 0007 03       		.uleb128 0x3
 13904 0008 0E       		.uleb128 0xe
 13905 0009 1B       		.uleb128 0x1b
 13906 000a 0E       		.uleb128 0xe
 13907 000b 55       		.uleb128 0x55
 13908 000c 17       		.uleb128 0x17
 13909 000d 11       		.uleb128 0x11
 13910 000e 01       		.uleb128 0x1
 13911 000f 10       		.uleb128 0x10
 13912 0010 17       		.uleb128 0x17
 13913 0011 00       		.byte	0
 13914 0012 00       		.byte	0
 13915 0013 02       		.uleb128 0x2
 13916 0014 24       		.uleb128 0x24
 13917 0015 00       		.byte	0
 13918 0016 0B       		.uleb128 0xb
 13919 0017 0B       		.uleb128 0xb
 13920 0018 3E       		.uleb128 0x3e
 13921 0019 0B       		.uleb128 0xb
 13922 001a 03       		.uleb128 0x3
 13923 001b 0E       		.uleb128 0xe
 13924 001c 00       		.byte	0
 13925 001d 00       		.byte	0
 13926 001e 03       		.uleb128 0x3
 13927 001f 24       		.uleb128 0x24
 13928 0020 00       		.byte	0
 13929 0021 0B       		.uleb128 0xb
 13930 0022 0B       		.uleb128 0xb
 13931 0023 3E       		.uleb128 0x3e
 13932 0024 0B       		.uleb128 0xb
 13933 0025 03       		.uleb128 0x3
 13934 0026 08       		.uleb128 0x8
 13935 0027 00       		.byte	0
 13936 0028 00       		.byte	0
 13937 0029 04       		.uleb128 0x4
 13938 002a 16       		.uleb128 0x16
 13939 002b 00       		.byte	0
 13940 002c 03       		.uleb128 0x3
 13941 002d 0E       		.uleb128 0xe
 13942 002e 3A       		.uleb128 0x3a
 13943 002f 0B       		.uleb128 0xb
 13944 0030 3B       		.uleb128 0x3b
 13945 0031 0B       		.uleb128 0xb
 13946 0032 49       		.uleb128 0x49
 13947 0033 13       		.uleb128 0x13
 13948 0034 00       		.byte	0
 13949 0035 00       		.byte	0
 13950 0036 05       		.uleb128 0x5
 13951 0037 35       		.uleb128 0x35
 13952 0038 00       		.byte	0
 13953 0039 49       		.uleb128 0x49
 13954 003a 13       		.uleb128 0x13
 13955 003b 00       		.byte	0
 13956 003c 00       		.byte	0
 13957 003d 06       		.uleb128 0x6
ARM GAS  /tmp/ccxvl19p.s 			page 246


 13958 003e 16       		.uleb128 0x16
 13959 003f 00       		.byte	0
 13960 0040 03       		.uleb128 0x3
 13961 0041 0E       		.uleb128 0xe
 13962 0042 3A       		.uleb128 0x3a
 13963 0043 0B       		.uleb128 0xb
 13964 0044 3B       		.uleb128 0x3b
 13965 0045 05       		.uleb128 0x5
 13966 0046 49       		.uleb128 0x49
 13967 0047 13       		.uleb128 0x13
 13968 0048 00       		.byte	0
 13969 0049 00       		.byte	0
 13970 004a 07       		.uleb128 0x7
 13971 004b 17       		.uleb128 0x17
 13972 004c 01       		.byte	0x1
 13973 004d 0B       		.uleb128 0xb
 13974 004e 0B       		.uleb128 0xb
 13975 004f 3A       		.uleb128 0x3a
 13976 0050 0B       		.uleb128 0xb
 13977 0051 3B       		.uleb128 0x3b
 13978 0052 0B       		.uleb128 0xb
 13979 0053 01       		.uleb128 0x1
 13980 0054 13       		.uleb128 0x13
 13981 0055 00       		.byte	0
 13982 0056 00       		.byte	0
 13983 0057 08       		.uleb128 0x8
 13984 0058 0D       		.uleb128 0xd
 13985 0059 00       		.byte	0
 13986 005a 03       		.uleb128 0x3
 13987 005b 0E       		.uleb128 0xe
 13988 005c 3A       		.uleb128 0x3a
 13989 005d 0B       		.uleb128 0xb
 13990 005e 3B       		.uleb128 0x3b
 13991 005f 0B       		.uleb128 0xb
 13992 0060 49       		.uleb128 0x49
 13993 0061 13       		.uleb128 0x13
 13994 0062 00       		.byte	0
 13995 0063 00       		.byte	0
 13996 0064 09       		.uleb128 0x9
 13997 0065 01       		.uleb128 0x1
 13998 0066 01       		.byte	0x1
 13999 0067 49       		.uleb128 0x49
 14000 0068 13       		.uleb128 0x13
 14001 0069 01       		.uleb128 0x1
 14002 006a 13       		.uleb128 0x13
 14003 006b 00       		.byte	0
 14004 006c 00       		.byte	0
 14005 006d 0A       		.uleb128 0xa
 14006 006e 21       		.uleb128 0x21
 14007 006f 00       		.byte	0
 14008 0070 49       		.uleb128 0x49
 14009 0071 13       		.uleb128 0x13
 14010 0072 2F       		.uleb128 0x2f
 14011 0073 0B       		.uleb128 0xb
 14012 0074 00       		.byte	0
 14013 0075 00       		.byte	0
 14014 0076 0B       		.uleb128 0xb
ARM GAS  /tmp/ccxvl19p.s 			page 247


 14015 0077 13       		.uleb128 0x13
 14016 0078 01       		.byte	0x1
 14017 0079 0B       		.uleb128 0xb
 14018 007a 0B       		.uleb128 0xb
 14019 007b 3A       		.uleb128 0x3a
 14020 007c 0B       		.uleb128 0xb
 14021 007d 3B       		.uleb128 0x3b
 14022 007e 0B       		.uleb128 0xb
 14023 007f 01       		.uleb128 0x1
 14024 0080 13       		.uleb128 0x13
 14025 0081 00       		.byte	0
 14026 0082 00       		.byte	0
 14027 0083 0C       		.uleb128 0xc
 14028 0084 0D       		.uleb128 0xd
 14029 0085 00       		.byte	0
 14030 0086 03       		.uleb128 0x3
 14031 0087 0E       		.uleb128 0xe
 14032 0088 3A       		.uleb128 0x3a
 14033 0089 0B       		.uleb128 0xb
 14034 008a 3B       		.uleb128 0x3b
 14035 008b 0B       		.uleb128 0xb
 14036 008c 49       		.uleb128 0x49
 14037 008d 13       		.uleb128 0x13
 14038 008e 38       		.uleb128 0x38
 14039 008f 0B       		.uleb128 0xb
 14040 0090 00       		.byte	0
 14041 0091 00       		.byte	0
 14042 0092 0D       		.uleb128 0xd
 14043 0093 0F       		.uleb128 0xf
 14044 0094 00       		.byte	0
 14045 0095 0B       		.uleb128 0xb
 14046 0096 0B       		.uleb128 0xb
 14047 0097 00       		.byte	0
 14048 0098 00       		.byte	0
 14049 0099 0E       		.uleb128 0xe
 14050 009a 0F       		.uleb128 0xf
 14051 009b 00       		.byte	0
 14052 009c 0B       		.uleb128 0xb
 14053 009d 0B       		.uleb128 0xb
 14054 009e 49       		.uleb128 0x49
 14055 009f 13       		.uleb128 0x13
 14056 00a0 00       		.byte	0
 14057 00a1 00       		.byte	0
 14058 00a2 0F       		.uleb128 0xf
 14059 00a3 26       		.uleb128 0x26
 14060 00a4 00       		.byte	0
 14061 00a5 49       		.uleb128 0x49
 14062 00a6 13       		.uleb128 0x13
 14063 00a7 00       		.byte	0
 14064 00a8 00       		.byte	0
 14065 00a9 10       		.uleb128 0x10
 14066 00aa 13       		.uleb128 0x13
 14067 00ab 01       		.byte	0x1
 14068 00ac 03       		.uleb128 0x3
 14069 00ad 0E       		.uleb128 0xe
 14070 00ae 0B       		.uleb128 0xb
 14071 00af 0B       		.uleb128 0xb
ARM GAS  /tmp/ccxvl19p.s 			page 248


 14072 00b0 3A       		.uleb128 0x3a
 14073 00b1 0B       		.uleb128 0xb
 14074 00b2 3B       		.uleb128 0x3b
 14075 00b3 0B       		.uleb128 0xb
 14076 00b4 01       		.uleb128 0x1
 14077 00b5 13       		.uleb128 0x13
 14078 00b6 00       		.byte	0
 14079 00b7 00       		.byte	0
 14080 00b8 11       		.uleb128 0x11
 14081 00b9 0D       		.uleb128 0xd
 14082 00ba 00       		.byte	0
 14083 00bb 03       		.uleb128 0x3
 14084 00bc 08       		.uleb128 0x8
 14085 00bd 3A       		.uleb128 0x3a
 14086 00be 0B       		.uleb128 0xb
 14087 00bf 3B       		.uleb128 0x3b
 14088 00c0 0B       		.uleb128 0xb
 14089 00c1 49       		.uleb128 0x49
 14090 00c2 13       		.uleb128 0x13
 14091 00c3 38       		.uleb128 0x38
 14092 00c4 0B       		.uleb128 0xb
 14093 00c5 00       		.byte	0
 14094 00c6 00       		.byte	0
 14095 00c7 12       		.uleb128 0x12
 14096 00c8 13       		.uleb128 0x13
 14097 00c9 01       		.byte	0x1
 14098 00ca 03       		.uleb128 0x3
 14099 00cb 0E       		.uleb128 0xe
 14100 00cc 0B       		.uleb128 0xb
 14101 00cd 05       		.uleb128 0x5
 14102 00ce 3A       		.uleb128 0x3a
 14103 00cf 0B       		.uleb128 0xb
 14104 00d0 3B       		.uleb128 0x3b
 14105 00d1 0B       		.uleb128 0xb
 14106 00d2 01       		.uleb128 0x1
 14107 00d3 13       		.uleb128 0x13
 14108 00d4 00       		.byte	0
 14109 00d5 00       		.byte	0
 14110 00d6 13       		.uleb128 0x13
 14111 00d7 0D       		.uleb128 0xd
 14112 00d8 00       		.byte	0
 14113 00d9 03       		.uleb128 0x3
 14114 00da 0E       		.uleb128 0xe
 14115 00db 3A       		.uleb128 0x3a
 14116 00dc 0B       		.uleb128 0xb
 14117 00dd 3B       		.uleb128 0x3b
 14118 00de 0B       		.uleb128 0xb
 14119 00df 49       		.uleb128 0x49
 14120 00e0 13       		.uleb128 0x13
 14121 00e1 38       		.uleb128 0x38
 14122 00e2 05       		.uleb128 0x5
 14123 00e3 00       		.byte	0
 14124 00e4 00       		.byte	0
 14125 00e5 14       		.uleb128 0x14
 14126 00e6 15       		.uleb128 0x15
 14127 00e7 00       		.byte	0
 14128 00e8 27       		.uleb128 0x27
ARM GAS  /tmp/ccxvl19p.s 			page 249


 14129 00e9 19       		.uleb128 0x19
 14130 00ea 00       		.byte	0
 14131 00eb 00       		.byte	0
 14132 00ec 15       		.uleb128 0x15
 14133 00ed 13       		.uleb128 0x13
 14134 00ee 01       		.byte	0x1
 14135 00ef 03       		.uleb128 0x3
 14136 00f0 0E       		.uleb128 0xe
 14137 00f1 0B       		.uleb128 0xb
 14138 00f2 0B       		.uleb128 0xb
 14139 00f3 3A       		.uleb128 0x3a
 14140 00f4 0B       		.uleb128 0xb
 14141 00f5 3B       		.uleb128 0x3b
 14142 00f6 05       		.uleb128 0x5
 14143 00f7 01       		.uleb128 0x1
 14144 00f8 13       		.uleb128 0x13
 14145 00f9 00       		.byte	0
 14146 00fa 00       		.byte	0
 14147 00fb 16       		.uleb128 0x16
 14148 00fc 0D       		.uleb128 0xd
 14149 00fd 00       		.byte	0
 14150 00fe 03       		.uleb128 0x3
 14151 00ff 0E       		.uleb128 0xe
 14152 0100 3A       		.uleb128 0x3a
 14153 0101 0B       		.uleb128 0xb
 14154 0102 3B       		.uleb128 0x3b
 14155 0103 05       		.uleb128 0x5
 14156 0104 49       		.uleb128 0x49
 14157 0105 13       		.uleb128 0x13
 14158 0106 38       		.uleb128 0x38
 14159 0107 0B       		.uleb128 0xb
 14160 0108 00       		.byte	0
 14161 0109 00       		.byte	0
 14162 010a 17       		.uleb128 0x17
 14163 010b 0D       		.uleb128 0xd
 14164 010c 00       		.byte	0
 14165 010d 03       		.uleb128 0x3
 14166 010e 08       		.uleb128 0x8
 14167 010f 3A       		.uleb128 0x3a
 14168 0110 0B       		.uleb128 0xb
 14169 0111 3B       		.uleb128 0x3b
 14170 0112 05       		.uleb128 0x5
 14171 0113 49       		.uleb128 0x49
 14172 0114 13       		.uleb128 0x13
 14173 0115 38       		.uleb128 0x38
 14174 0116 0B       		.uleb128 0xb
 14175 0117 00       		.byte	0
 14176 0118 00       		.byte	0
 14177 0119 18       		.uleb128 0x18
 14178 011a 15       		.uleb128 0x15
 14179 011b 01       		.byte	0x1
 14180 011c 27       		.uleb128 0x27
 14181 011d 19       		.uleb128 0x19
 14182 011e 49       		.uleb128 0x49
 14183 011f 13       		.uleb128 0x13
 14184 0120 01       		.uleb128 0x1
 14185 0121 13       		.uleb128 0x13
ARM GAS  /tmp/ccxvl19p.s 			page 250


 14186 0122 00       		.byte	0
 14187 0123 00       		.byte	0
 14188 0124 19       		.uleb128 0x19
 14189 0125 05       		.uleb128 0x5
 14190 0126 00       		.byte	0
 14191 0127 49       		.uleb128 0x49
 14192 0128 13       		.uleb128 0x13
 14193 0129 00       		.byte	0
 14194 012a 00       		.byte	0
 14195 012b 1A       		.uleb128 0x1a
 14196 012c 13       		.uleb128 0x13
 14197 012d 00       		.byte	0
 14198 012e 03       		.uleb128 0x3
 14199 012f 0E       		.uleb128 0xe
 14200 0130 3C       		.uleb128 0x3c
 14201 0131 19       		.uleb128 0x19
 14202 0132 00       		.byte	0
 14203 0133 00       		.byte	0
 14204 0134 1B       		.uleb128 0x1b
 14205 0135 15       		.uleb128 0x15
 14206 0136 01       		.byte	0x1
 14207 0137 27       		.uleb128 0x27
 14208 0138 19       		.uleb128 0x19
 14209 0139 01       		.uleb128 0x1
 14210 013a 13       		.uleb128 0x13
 14211 013b 00       		.byte	0
 14212 013c 00       		.byte	0
 14213 013d 1C       		.uleb128 0x1c
 14214 013e 34       		.uleb128 0x34
 14215 013f 00       		.byte	0
 14216 0140 03       		.uleb128 0x3
 14217 0141 0E       		.uleb128 0xe
 14218 0142 3A       		.uleb128 0x3a
 14219 0143 0B       		.uleb128 0xb
 14220 0144 3B       		.uleb128 0x3b
 14221 0145 05       		.uleb128 0x5
 14222 0146 49       		.uleb128 0x49
 14223 0147 13       		.uleb128 0x13
 14224 0148 3F       		.uleb128 0x3f
 14225 0149 19       		.uleb128 0x19
 14226 014a 3C       		.uleb128 0x3c
 14227 014b 19       		.uleb128 0x19
 14228 014c 00       		.byte	0
 14229 014d 00       		.byte	0
 14230 014e 1D       		.uleb128 0x1d
 14231 014f 34       		.uleb128 0x34
 14232 0150 00       		.byte	0
 14233 0151 03       		.uleb128 0x3
 14234 0152 0E       		.uleb128 0xe
 14235 0153 3A       		.uleb128 0x3a
 14236 0154 0B       		.uleb128 0xb
 14237 0155 3B       		.uleb128 0x3b
 14238 0156 0B       		.uleb128 0xb
 14239 0157 49       		.uleb128 0x49
 14240 0158 13       		.uleb128 0x13
 14241 0159 3F       		.uleb128 0x3f
 14242 015a 19       		.uleb128 0x19
ARM GAS  /tmp/ccxvl19p.s 			page 251


 14243 015b 3C       		.uleb128 0x3c
 14244 015c 19       		.uleb128 0x19
 14245 015d 00       		.byte	0
 14246 015e 00       		.byte	0
 14247 015f 1E       		.uleb128 0x1e
 14248 0160 13       		.uleb128 0x13
 14249 0161 01       		.byte	0x1
 14250 0162 0B       		.uleb128 0xb
 14251 0163 0B       		.uleb128 0xb
 14252 0164 3A       		.uleb128 0x3a
 14253 0165 0B       		.uleb128 0xb
 14254 0166 3B       		.uleb128 0x3b
 14255 0167 05       		.uleb128 0x5
 14256 0168 01       		.uleb128 0x1
 14257 0169 13       		.uleb128 0x13
 14258 016a 00       		.byte	0
 14259 016b 00       		.byte	0
 14260 016c 1F       		.uleb128 0x1f
 14261 016d 13       		.uleb128 0x13
 14262 016e 01       		.byte	0x1
 14263 016f 0B       		.uleb128 0xb
 14264 0170 05       		.uleb128 0x5
 14265 0171 3A       		.uleb128 0x3a
 14266 0172 0B       		.uleb128 0xb
 14267 0173 3B       		.uleb128 0x3b
 14268 0174 05       		.uleb128 0x5
 14269 0175 01       		.uleb128 0x1
 14270 0176 13       		.uleb128 0x13
 14271 0177 00       		.byte	0
 14272 0178 00       		.byte	0
 14273 0179 20       		.uleb128 0x20
 14274 017a 0D       		.uleb128 0xd
 14275 017b 00       		.byte	0
 14276 017c 03       		.uleb128 0x3
 14277 017d 0E       		.uleb128 0xe
 14278 017e 3A       		.uleb128 0x3a
 14279 017f 0B       		.uleb128 0xb
 14280 0180 3B       		.uleb128 0x3b
 14281 0181 05       		.uleb128 0x5
 14282 0182 49       		.uleb128 0x49
 14283 0183 13       		.uleb128 0x13
 14284 0184 38       		.uleb128 0x38
 14285 0185 05       		.uleb128 0x5
 14286 0186 00       		.byte	0
 14287 0187 00       		.byte	0
 14288 0188 21       		.uleb128 0x21
 14289 0189 0D       		.uleb128 0xd
 14290 018a 00       		.byte	0
 14291 018b 03       		.uleb128 0x3
 14292 018c 08       		.uleb128 0x8
 14293 018d 3A       		.uleb128 0x3a
 14294 018e 0B       		.uleb128 0xb
 14295 018f 3B       		.uleb128 0x3b
 14296 0190 05       		.uleb128 0x5
 14297 0191 49       		.uleb128 0x49
 14298 0192 13       		.uleb128 0x13
 14299 0193 38       		.uleb128 0x38
ARM GAS  /tmp/ccxvl19p.s 			page 252


 14300 0194 05       		.uleb128 0x5
 14301 0195 00       		.byte	0
 14302 0196 00       		.byte	0
 14303 0197 22       		.uleb128 0x22
 14304 0198 0D       		.uleb128 0xd
 14305 0199 00       		.byte	0
 14306 019a 03       		.uleb128 0x3
 14307 019b 0E       		.uleb128 0xe
 14308 019c 3A       		.uleb128 0x3a
 14309 019d 0B       		.uleb128 0xb
 14310 019e 3B       		.uleb128 0x3b
 14311 019f 05       		.uleb128 0x5
 14312 01a0 49       		.uleb128 0x49
 14313 01a1 13       		.uleb128 0x13
 14314 01a2 00       		.byte	0
 14315 01a3 00       		.byte	0
 14316 01a4 23       		.uleb128 0x23
 14317 01a5 34       		.uleb128 0x34
 14318 01a6 00       		.byte	0
 14319 01a7 03       		.uleb128 0x3
 14320 01a8 08       		.uleb128 0x8
 14321 01a9 3A       		.uleb128 0x3a
 14322 01aa 0B       		.uleb128 0xb
 14323 01ab 3B       		.uleb128 0x3b
 14324 01ac 05       		.uleb128 0x5
 14325 01ad 49       		.uleb128 0x49
 14326 01ae 13       		.uleb128 0x13
 14327 01af 3F       		.uleb128 0x3f
 14328 01b0 19       		.uleb128 0x19
 14329 01b1 3C       		.uleb128 0x3c
 14330 01b2 19       		.uleb128 0x19
 14331 01b3 00       		.byte	0
 14332 01b4 00       		.byte	0
 14333 01b5 24       		.uleb128 0x24
 14334 01b6 21       		.uleb128 0x21
 14335 01b7 00       		.byte	0
 14336 01b8 00       		.byte	0
 14337 01b9 00       		.byte	0
 14338 01ba 25       		.uleb128 0x25
 14339 01bb 04       		.uleb128 0x4
 14340 01bc 01       		.byte	0x1
 14341 01bd 3E       		.uleb128 0x3e
 14342 01be 0B       		.uleb128 0xb
 14343 01bf 0B       		.uleb128 0xb
 14344 01c0 0B       		.uleb128 0xb
 14345 01c1 49       		.uleb128 0x49
 14346 01c2 13       		.uleb128 0x13
 14347 01c3 3A       		.uleb128 0x3a
 14348 01c4 0B       		.uleb128 0xb
 14349 01c5 3B       		.uleb128 0x3b
 14350 01c6 0B       		.uleb128 0xb
 14351 01c7 01       		.uleb128 0x1
 14352 01c8 13       		.uleb128 0x13
 14353 01c9 00       		.byte	0
 14354 01ca 00       		.byte	0
 14355 01cb 26       		.uleb128 0x26
 14356 01cc 28       		.uleb128 0x28
ARM GAS  /tmp/ccxvl19p.s 			page 253


 14357 01cd 00       		.byte	0
 14358 01ce 03       		.uleb128 0x3
 14359 01cf 0E       		.uleb128 0xe
 14360 01d0 1C       		.uleb128 0x1c
 14361 01d1 0B       		.uleb128 0xb
 14362 01d2 00       		.byte	0
 14363 01d3 00       		.byte	0
 14364 01d4 27       		.uleb128 0x27
 14365 01d5 04       		.uleb128 0x4
 14366 01d6 01       		.byte	0x1
 14367 01d7 3E       		.uleb128 0x3e
 14368 01d8 0B       		.uleb128 0xb
 14369 01d9 0B       		.uleb128 0xb
 14370 01da 0B       		.uleb128 0xb
 14371 01db 49       		.uleb128 0x49
 14372 01dc 13       		.uleb128 0x13
 14373 01dd 3A       		.uleb128 0x3a
 14374 01de 0B       		.uleb128 0xb
 14375 01df 3B       		.uleb128 0x3b
 14376 01e0 05       		.uleb128 0x5
 14377 01e1 01       		.uleb128 0x1
 14378 01e2 13       		.uleb128 0x13
 14379 01e3 00       		.byte	0
 14380 01e4 00       		.byte	0
 14381 01e5 28       		.uleb128 0x28
 14382 01e6 13       		.uleb128 0x13
 14383 01e7 01       		.byte	0x1
 14384 01e8 0B       		.uleb128 0xb
 14385 01e9 06       		.uleb128 0x6
 14386 01ea 3A       		.uleb128 0x3a
 14387 01eb 0B       		.uleb128 0xb
 14388 01ec 3B       		.uleb128 0x3b
 14389 01ed 0B       		.uleb128 0xb
 14390 01ee 01       		.uleb128 0x1
 14391 01ef 13       		.uleb128 0x13
 14392 01f0 00       		.byte	0
 14393 01f1 00       		.byte	0
 14394 01f2 29       		.uleb128 0x29
 14395 01f3 0D       		.uleb128 0xd
 14396 01f4 00       		.byte	0
 14397 01f5 03       		.uleb128 0x3
 14398 01f6 08       		.uleb128 0x8
 14399 01f7 3A       		.uleb128 0x3a
 14400 01f8 0B       		.uleb128 0xb
 14401 01f9 3B       		.uleb128 0x3b
 14402 01fa 0B       		.uleb128 0xb
 14403 01fb 49       		.uleb128 0x49
 14404 01fc 13       		.uleb128 0x13
 14405 01fd 38       		.uleb128 0x38
 14406 01fe 05       		.uleb128 0x5
 14407 01ff 00       		.byte	0
 14408 0200 00       		.byte	0
 14409 0201 2A       		.uleb128 0x2a
 14410 0202 21       		.uleb128 0x21
 14411 0203 00       		.byte	0
 14412 0204 49       		.uleb128 0x49
 14413 0205 13       		.uleb128 0x13
ARM GAS  /tmp/ccxvl19p.s 			page 254


 14414 0206 2F       		.uleb128 0x2f
 14415 0207 05       		.uleb128 0x5
 14416 0208 00       		.byte	0
 14417 0209 00       		.byte	0
 14418 020a 2B       		.uleb128 0x2b
 14419 020b 34       		.uleb128 0x34
 14420 020c 00       		.byte	0
 14421 020d 47       		.uleb128 0x47
 14422 020e 13       		.uleb128 0x13
 14423 020f 3A       		.uleb128 0x3a
 14424 0210 0B       		.uleb128 0xb
 14425 0211 3B       		.uleb128 0x3b
 14426 0212 0B       		.uleb128 0xb
 14427 0213 02       		.uleb128 0x2
 14428 0214 18       		.uleb128 0x18
 14429 0215 00       		.byte	0
 14430 0216 00       		.byte	0
 14431 0217 2C       		.uleb128 0x2c
 14432 0218 0D       		.uleb128 0xd
 14433 0219 00       		.byte	0
 14434 021a 03       		.uleb128 0x3
 14435 021b 08       		.uleb128 0x8
 14436 021c 3A       		.uleb128 0x3a
 14437 021d 0B       		.uleb128 0xb
 14438 021e 3B       		.uleb128 0x3b
 14439 021f 0B       		.uleb128 0xb
 14440 0220 49       		.uleb128 0x49
 14441 0221 13       		.uleb128 0x13
 14442 0222 00       		.byte	0
 14443 0223 00       		.byte	0
 14444 0224 2D       		.uleb128 0x2d
 14445 0225 34       		.uleb128 0x34
 14446 0226 00       		.byte	0
 14447 0227 03       		.uleb128 0x3
 14448 0228 0E       		.uleb128 0xe
 14449 0229 3A       		.uleb128 0x3a
 14450 022a 0B       		.uleb128 0xb
 14451 022b 3B       		.uleb128 0x3b
 14452 022c 0B       		.uleb128 0xb
 14453 022d 49       		.uleb128 0x49
 14454 022e 13       		.uleb128 0x13
 14455 022f 02       		.uleb128 0x2
 14456 0230 18       		.uleb128 0x18
 14457 0231 00       		.byte	0
 14458 0232 00       		.byte	0
 14459 0233 2E       		.uleb128 0x2e
 14460 0234 2E       		.uleb128 0x2e
 14461 0235 01       		.byte	0x1
 14462 0236 3F       		.uleb128 0x3f
 14463 0237 19       		.uleb128 0x19
 14464 0238 03       		.uleb128 0x3
 14465 0239 0E       		.uleb128 0xe
 14466 023a 3A       		.uleb128 0x3a
 14467 023b 0B       		.uleb128 0xb
 14468 023c 3B       		.uleb128 0x3b
 14469 023d 05       		.uleb128 0x5
 14470 023e 27       		.uleb128 0x27
ARM GAS  /tmp/ccxvl19p.s 			page 255


 14471 023f 19       		.uleb128 0x19
 14472 0240 11       		.uleb128 0x11
 14473 0241 01       		.uleb128 0x1
 14474 0242 12       		.uleb128 0x12
 14475 0243 06       		.uleb128 0x6
 14476 0244 40       		.uleb128 0x40
 14477 0245 18       		.uleb128 0x18
 14478 0246 9742     		.uleb128 0x2117
 14479 0248 19       		.uleb128 0x19
 14480 0249 01       		.uleb128 0x1
 14481 024a 13       		.uleb128 0x13
 14482 024b 00       		.byte	0
 14483 024c 00       		.byte	0
 14484 024d 2F       		.uleb128 0x2f
 14485 024e 05       		.uleb128 0x5
 14486 024f 00       		.byte	0
 14487 0250 03       		.uleb128 0x3
 14488 0251 0E       		.uleb128 0xe
 14489 0252 3A       		.uleb128 0x3a
 14490 0253 0B       		.uleb128 0xb
 14491 0254 3B       		.uleb128 0x3b
 14492 0255 05       		.uleb128 0x5
 14493 0256 49       		.uleb128 0x49
 14494 0257 13       		.uleb128 0x13
 14495 0258 02       		.uleb128 0x2
 14496 0259 18       		.uleb128 0x18
 14497 025a 00       		.byte	0
 14498 025b 00       		.byte	0
 14499 025c 30       		.uleb128 0x30
 14500 025d 05       		.uleb128 0x5
 14501 025e 00       		.byte	0
 14502 025f 03       		.uleb128 0x3
 14503 0260 08       		.uleb128 0x8
 14504 0261 3A       		.uleb128 0x3a
 14505 0262 0B       		.uleb128 0xb
 14506 0263 3B       		.uleb128 0x3b
 14507 0264 05       		.uleb128 0x5
 14508 0265 49       		.uleb128 0x49
 14509 0266 13       		.uleb128 0x13
 14510 0267 02       		.uleb128 0x2
 14511 0268 17       		.uleb128 0x17
 14512 0269 00       		.byte	0
 14513 026a 00       		.byte	0
 14514 026b 31       		.uleb128 0x31
 14515 026c 2E       		.uleb128 0x2e
 14516 026d 01       		.byte	0x1
 14517 026e 3F       		.uleb128 0x3f
 14518 026f 19       		.uleb128 0x19
 14519 0270 03       		.uleb128 0x3
 14520 0271 0E       		.uleb128 0xe
 14521 0272 3A       		.uleb128 0x3a
 14522 0273 0B       		.uleb128 0xb
 14523 0274 3B       		.uleb128 0x3b
 14524 0275 05       		.uleb128 0x5
 14525 0276 27       		.uleb128 0x27
 14526 0277 19       		.uleb128 0x19
 14527 0278 20       		.uleb128 0x20
ARM GAS  /tmp/ccxvl19p.s 			page 256


 14528 0279 0B       		.uleb128 0xb
 14529 027a 01       		.uleb128 0x1
 14530 027b 13       		.uleb128 0x13
 14531 027c 00       		.byte	0
 14532 027d 00       		.byte	0
 14533 027e 32       		.uleb128 0x32
 14534 027f 05       		.uleb128 0x5
 14535 0280 00       		.byte	0
 14536 0281 03       		.uleb128 0x3
 14537 0282 0E       		.uleb128 0xe
 14538 0283 3A       		.uleb128 0x3a
 14539 0284 0B       		.uleb128 0xb
 14540 0285 3B       		.uleb128 0x3b
 14541 0286 05       		.uleb128 0x5
 14542 0287 49       		.uleb128 0x49
 14543 0288 13       		.uleb128 0x13
 14544 0289 00       		.byte	0
 14545 028a 00       		.byte	0
 14546 028b 33       		.uleb128 0x33
 14547 028c 05       		.uleb128 0x5
 14548 028d 00       		.byte	0
 14549 028e 03       		.uleb128 0x3
 14550 028f 08       		.uleb128 0x8
 14551 0290 3A       		.uleb128 0x3a
 14552 0291 0B       		.uleb128 0xb
 14553 0292 3B       		.uleb128 0x3b
 14554 0293 05       		.uleb128 0x5
 14555 0294 49       		.uleb128 0x49
 14556 0295 13       		.uleb128 0x13
 14557 0296 00       		.byte	0
 14558 0297 00       		.byte	0
 14559 0298 34       		.uleb128 0x34
 14560 0299 34       		.uleb128 0x34
 14561 029a 00       		.byte	0
 14562 029b 03       		.uleb128 0x3
 14563 029c 08       		.uleb128 0x8
 14564 029d 3A       		.uleb128 0x3a
 14565 029e 0B       		.uleb128 0xb
 14566 029f 3B       		.uleb128 0x3b
 14567 02a0 05       		.uleb128 0x5
 14568 02a1 49       		.uleb128 0x49
 14569 02a2 13       		.uleb128 0x13
 14570 02a3 00       		.byte	0
 14571 02a4 00       		.byte	0
 14572 02a5 35       		.uleb128 0x35
 14573 02a6 0B       		.uleb128 0xb
 14574 02a7 01       		.byte	0x1
 14575 02a8 00       		.byte	0
 14576 02a9 00       		.byte	0
 14577 02aa 36       		.uleb128 0x36
 14578 02ab 34       		.uleb128 0x34
 14579 02ac 00       		.byte	0
 14580 02ad 03       		.uleb128 0x3
 14581 02ae 0E       		.uleb128 0xe
 14582 02af 3A       		.uleb128 0x3a
 14583 02b0 0B       		.uleb128 0xb
 14584 02b1 3B       		.uleb128 0x3b
ARM GAS  /tmp/ccxvl19p.s 			page 257


 14585 02b2 05       		.uleb128 0x5
 14586 02b3 49       		.uleb128 0x49
 14587 02b4 13       		.uleb128 0x13
 14588 02b5 00       		.byte	0
 14589 02b6 00       		.byte	0
 14590 02b7 37       		.uleb128 0x37
 14591 02b8 05       		.uleb128 0x5
 14592 02b9 00       		.byte	0
 14593 02ba 03       		.uleb128 0x3
 14594 02bb 08       		.uleb128 0x8
 14595 02bc 3A       		.uleb128 0x3a
 14596 02bd 0B       		.uleb128 0xb
 14597 02be 3B       		.uleb128 0x3b
 14598 02bf 05       		.uleb128 0x5
 14599 02c0 49       		.uleb128 0x49
 14600 02c1 13       		.uleb128 0x13
 14601 02c2 02       		.uleb128 0x2
 14602 02c3 18       		.uleb128 0x18
 14603 02c4 00       		.byte	0
 14604 02c5 00       		.byte	0
 14605 02c6 38       		.uleb128 0x38
 14606 02c7 2E       		.uleb128 0x2e
 14607 02c8 01       		.byte	0x1
 14608 02c9 3F       		.uleb128 0x3f
 14609 02ca 19       		.uleb128 0x19
 14610 02cb 03       		.uleb128 0x3
 14611 02cc 0E       		.uleb128 0xe
 14612 02cd 3A       		.uleb128 0x3a
 14613 02ce 0B       		.uleb128 0xb
 14614 02cf 3B       		.uleb128 0x3b
 14615 02d0 05       		.uleb128 0x5
 14616 02d1 27       		.uleb128 0x27
 14617 02d2 19       		.uleb128 0x19
 14618 02d3 49       		.uleb128 0x49
 14619 02d4 13       		.uleb128 0x13
 14620 02d5 11       		.uleb128 0x11
 14621 02d6 01       		.uleb128 0x1
 14622 02d7 12       		.uleb128 0x12
 14623 02d8 06       		.uleb128 0x6
 14624 02d9 40       		.uleb128 0x40
 14625 02da 18       		.uleb128 0x18
 14626 02db 9742     		.uleb128 0x2117
 14627 02dd 19       		.uleb128 0x19
 14628 02de 01       		.uleb128 0x1
 14629 02df 13       		.uleb128 0x13
 14630 02e0 00       		.byte	0
 14631 02e1 00       		.byte	0
 14632 02e2 39       		.uleb128 0x39
 14633 02e3 05       		.uleb128 0x5
 14634 02e4 00       		.byte	0
 14635 02e5 03       		.uleb128 0x3
 14636 02e6 0E       		.uleb128 0xe
 14637 02e7 3A       		.uleb128 0x3a
 14638 02e8 0B       		.uleb128 0xb
 14639 02e9 3B       		.uleb128 0x3b
 14640 02ea 05       		.uleb128 0x5
 14641 02eb 49       		.uleb128 0x49
ARM GAS  /tmp/ccxvl19p.s 			page 258


 14642 02ec 13       		.uleb128 0x13
 14643 02ed 02       		.uleb128 0x2
 14644 02ee 17       		.uleb128 0x17
 14645 02ef 00       		.byte	0
 14646 02f0 00       		.byte	0
 14647 02f1 3A       		.uleb128 0x3a
 14648 02f2 34       		.uleb128 0x34
 14649 02f3 00       		.byte	0
 14650 02f4 03       		.uleb128 0x3
 14651 02f5 08       		.uleb128 0x8
 14652 02f6 3A       		.uleb128 0x3a
 14653 02f7 0B       		.uleb128 0xb
 14654 02f8 3B       		.uleb128 0x3b
 14655 02f9 05       		.uleb128 0x5
 14656 02fa 49       		.uleb128 0x49
 14657 02fb 13       		.uleb128 0x13
 14658 02fc 02       		.uleb128 0x2
 14659 02fd 18       		.uleb128 0x18
 14660 02fe 00       		.byte	0
 14661 02ff 00       		.byte	0
 14662 0300 3B       		.uleb128 0x3b
 14663 0301 1D       		.uleb128 0x1d
 14664 0302 01       		.byte	0x1
 14665 0303 31       		.uleb128 0x31
 14666 0304 13       		.uleb128 0x13
 14667 0305 11       		.uleb128 0x11
 14668 0306 01       		.uleb128 0x1
 14669 0307 12       		.uleb128 0x12
 14670 0308 06       		.uleb128 0x6
 14671 0309 58       		.uleb128 0x58
 14672 030a 0B       		.uleb128 0xb
 14673 030b 59       		.uleb128 0x59
 14674 030c 05       		.uleb128 0x5
 14675 030d 01       		.uleb128 0x1
 14676 030e 13       		.uleb128 0x13
 14677 030f 00       		.byte	0
 14678 0310 00       		.byte	0
 14679 0311 3C       		.uleb128 0x3c
 14680 0312 05       		.uleb128 0x5
 14681 0313 00       		.byte	0
 14682 0314 31       		.uleb128 0x31
 14683 0315 13       		.uleb128 0x13
 14684 0316 00       		.byte	0
 14685 0317 00       		.byte	0
 14686 0318 3D       		.uleb128 0x3d
 14687 0319 1D       		.uleb128 0x1d
 14688 031a 01       		.byte	0x1
 14689 031b 31       		.uleb128 0x31
 14690 031c 13       		.uleb128 0x13
 14691 031d 11       		.uleb128 0x11
 14692 031e 01       		.uleb128 0x1
 14693 031f 12       		.uleb128 0x12
 14694 0320 06       		.uleb128 0x6
 14695 0321 58       		.uleb128 0x58
 14696 0322 0B       		.uleb128 0xb
 14697 0323 59       		.uleb128 0x59
 14698 0324 05       		.uleb128 0x5
ARM GAS  /tmp/ccxvl19p.s 			page 259


 14699 0325 00       		.byte	0
 14700 0326 00       		.byte	0
 14701 0327 3E       		.uleb128 0x3e
 14702 0328 05       		.uleb128 0x5
 14703 0329 00       		.byte	0
 14704 032a 31       		.uleb128 0x31
 14705 032b 13       		.uleb128 0x13
 14706 032c 02       		.uleb128 0x2
 14707 032d 17       		.uleb128 0x17
 14708 032e 00       		.byte	0
 14709 032f 00       		.byte	0
 14710 0330 3F       		.uleb128 0x3f
 14711 0331 0B       		.uleb128 0xb
 14712 0332 01       		.byte	0x1
 14713 0333 11       		.uleb128 0x11
 14714 0334 01       		.uleb128 0x1
 14715 0335 12       		.uleb128 0x12
 14716 0336 06       		.uleb128 0x6
 14717 0337 00       		.byte	0
 14718 0338 00       		.byte	0
 14719 0339 40       		.uleb128 0x40
 14720 033a 34       		.uleb128 0x34
 14721 033b 00       		.byte	0
 14722 033c 31       		.uleb128 0x31
 14723 033d 13       		.uleb128 0x13
 14724 033e 02       		.uleb128 0x2
 14725 033f 17       		.uleb128 0x17
 14726 0340 00       		.byte	0
 14727 0341 00       		.byte	0
 14728 0342 41       		.uleb128 0x41
 14729 0343 34       		.uleb128 0x34
 14730 0344 00       		.byte	0
 14731 0345 03       		.uleb128 0x3
 14732 0346 08       		.uleb128 0x8
 14733 0347 3A       		.uleb128 0x3a
 14734 0348 0B       		.uleb128 0xb
 14735 0349 3B       		.uleb128 0x3b
 14736 034a 05       		.uleb128 0x5
 14737 034b 49       		.uleb128 0x49
 14738 034c 13       		.uleb128 0x13
 14739 034d 02       		.uleb128 0x2
 14740 034e 17       		.uleb128 0x17
 14741 034f 00       		.byte	0
 14742 0350 00       		.byte	0
 14743 0351 42       		.uleb128 0x42
 14744 0352 34       		.uleb128 0x34
 14745 0353 00       		.byte	0
 14746 0354 03       		.uleb128 0x3
 14747 0355 0E       		.uleb128 0xe
 14748 0356 3A       		.uleb128 0x3a
 14749 0357 0B       		.uleb128 0xb
 14750 0358 3B       		.uleb128 0x3b
 14751 0359 05       		.uleb128 0x5
 14752 035a 49       		.uleb128 0x49
 14753 035b 13       		.uleb128 0x13
 14754 035c 02       		.uleb128 0x2
 14755 035d 17       		.uleb128 0x17
ARM GAS  /tmp/ccxvl19p.s 			page 260


 14756 035e 00       		.byte	0
 14757 035f 00       		.byte	0
 14758 0360 43       		.uleb128 0x43
 14759 0361 1D       		.uleb128 0x1d
 14760 0362 01       		.byte	0x1
 14761 0363 31       		.uleb128 0x31
 14762 0364 13       		.uleb128 0x13
 14763 0365 52       		.uleb128 0x52
 14764 0366 01       		.uleb128 0x1
 14765 0367 55       		.uleb128 0x55
 14766 0368 17       		.uleb128 0x17
 14767 0369 58       		.uleb128 0x58
 14768 036a 0B       		.uleb128 0xb
 14769 036b 59       		.uleb128 0x59
 14770 036c 05       		.uleb128 0x5
 14771 036d 01       		.uleb128 0x1
 14772 036e 13       		.uleb128 0x13
 14773 036f 00       		.byte	0
 14774 0370 00       		.byte	0
 14775 0371 44       		.uleb128 0x44
 14776 0372 0B       		.uleb128 0xb
 14777 0373 01       		.byte	0x1
 14778 0374 55       		.uleb128 0x55
 14779 0375 17       		.uleb128 0x17
 14780 0376 00       		.byte	0
 14781 0377 00       		.byte	0
 14782 0378 45       		.uleb128 0x45
 14783 0379 1D       		.uleb128 0x1d
 14784 037a 01       		.byte	0x1
 14785 037b 31       		.uleb128 0x31
 14786 037c 13       		.uleb128 0x13
 14787 037d 11       		.uleb128 0x11
 14788 037e 01       		.uleb128 0x1
 14789 037f 12       		.uleb128 0x12
 14790 0380 06       		.uleb128 0x6
 14791 0381 58       		.uleb128 0x58
 14792 0382 0B       		.uleb128 0xb
 14793 0383 59       		.uleb128 0x59
 14794 0384 0B       		.uleb128 0xb
 14795 0385 00       		.byte	0
 14796 0386 00       		.byte	0
 14797 0387 46       		.uleb128 0x46
 14798 0388 898201   		.uleb128 0x4109
 14799 038b 01       		.byte	0x1
 14800 038c 11       		.uleb128 0x11
 14801 038d 01       		.uleb128 0x1
 14802 038e 31       		.uleb128 0x31
 14803 038f 13       		.uleb128 0x13
 14804 0390 00       		.byte	0
 14805 0391 00       		.byte	0
 14806 0392 47       		.uleb128 0x47
 14807 0393 8A8201   		.uleb128 0x410a
 14808 0396 00       		.byte	0
 14809 0397 02       		.uleb128 0x2
 14810 0398 18       		.uleb128 0x18
 14811 0399 9142     		.uleb128 0x2111
 14812 039b 18       		.uleb128 0x18
ARM GAS  /tmp/ccxvl19p.s 			page 261


 14813 039c 00       		.byte	0
 14814 039d 00       		.byte	0
 14815 039e 48       		.uleb128 0x48
 14816 039f 34       		.uleb128 0x34
 14817 03a0 00       		.byte	0
 14818 03a1 03       		.uleb128 0x3
 14819 03a2 0E       		.uleb128 0xe
 14820 03a3 3A       		.uleb128 0x3a
 14821 03a4 0B       		.uleb128 0xb
 14822 03a5 3B       		.uleb128 0x3b
 14823 03a6 05       		.uleb128 0x5
 14824 03a7 49       		.uleb128 0x49
 14825 03a8 13       		.uleb128 0x13
 14826 03a9 02       		.uleb128 0x2
 14827 03aa 18       		.uleb128 0x18
 14828 03ab 00       		.byte	0
 14829 03ac 00       		.byte	0
 14830 03ad 49       		.uleb128 0x49
 14831 03ae 1D       		.uleb128 0x1d
 14832 03af 01       		.byte	0x1
 14833 03b0 31       		.uleb128 0x31
 14834 03b1 13       		.uleb128 0x13
 14835 03b2 52       		.uleb128 0x52
 14836 03b3 01       		.uleb128 0x1
 14837 03b4 55       		.uleb128 0x55
 14838 03b5 17       		.uleb128 0x17
 14839 03b6 58       		.uleb128 0x58
 14840 03b7 0B       		.uleb128 0xb
 14841 03b8 59       		.uleb128 0x59
 14842 03b9 05       		.uleb128 0x5
 14843 03ba 00       		.byte	0
 14844 03bb 00       		.byte	0
 14845 03bc 4A       		.uleb128 0x4a
 14846 03bd 1D       		.uleb128 0x1d
 14847 03be 01       		.byte	0x1
 14848 03bf 31       		.uleb128 0x31
 14849 03c0 13       		.uleb128 0x13
 14850 03c1 11       		.uleb128 0x11
 14851 03c2 01       		.uleb128 0x1
 14852 03c3 12       		.uleb128 0x12
 14853 03c4 06       		.uleb128 0x6
 14854 03c5 58       		.uleb128 0x58
 14855 03c6 0B       		.uleb128 0xb
 14856 03c7 59       		.uleb128 0x59
 14857 03c8 0B       		.uleb128 0xb
 14858 03c9 01       		.uleb128 0x1
 14859 03ca 13       		.uleb128 0x13
 14860 03cb 00       		.byte	0
 14861 03cc 00       		.byte	0
 14862 03cd 4B       		.uleb128 0x4b
 14863 03ce 0B       		.uleb128 0xb
 14864 03cf 01       		.byte	0x1
 14865 03d0 31       		.uleb128 0x31
 14866 03d1 13       		.uleb128 0x13
 14867 03d2 55       		.uleb128 0x55
 14868 03d3 17       		.uleb128 0x17
 14869 03d4 00       		.byte	0
ARM GAS  /tmp/ccxvl19p.s 			page 262


 14870 03d5 00       		.byte	0
 14871 03d6 4C       		.uleb128 0x4c
 14872 03d7 0B       		.uleb128 0xb
 14873 03d8 00       		.byte	0
 14874 03d9 11       		.uleb128 0x11
 14875 03da 01       		.uleb128 0x1
 14876 03db 12       		.uleb128 0x12
 14877 03dc 06       		.uleb128 0x6
 14878 03dd 00       		.byte	0
 14879 03de 00       		.byte	0
 14880 03df 4D       		.uleb128 0x4d
 14881 03e0 898201   		.uleb128 0x4109
 14882 03e3 01       		.byte	0x1
 14883 03e4 11       		.uleb128 0x11
 14884 03e5 01       		.uleb128 0x1
 14885 03e6 9342     		.uleb128 0x2113
 14886 03e8 18       		.uleb128 0x18
 14887 03e9 00       		.byte	0
 14888 03ea 00       		.byte	0
 14889 03eb 4E       		.uleb128 0x4e
 14890 03ec 0B       		.uleb128 0xb
 14891 03ed 01       		.byte	0x1
 14892 03ee 31       		.uleb128 0x31
 14893 03ef 13       		.uleb128 0x13
 14894 03f0 55       		.uleb128 0x55
 14895 03f1 17       		.uleb128 0x17
 14896 03f2 01       		.uleb128 0x1
 14897 03f3 13       		.uleb128 0x13
 14898 03f4 00       		.byte	0
 14899 03f5 00       		.byte	0
 14900 03f6 4F       		.uleb128 0x4f
 14901 03f7 0B       		.uleb128 0xb
 14902 03f8 01       		.byte	0x1
 14903 03f9 31       		.uleb128 0x31
 14904 03fa 13       		.uleb128 0x13
 14905 03fb 11       		.uleb128 0x11
 14906 03fc 01       		.uleb128 0x1
 14907 03fd 12       		.uleb128 0x12
 14908 03fe 06       		.uleb128 0x6
 14909 03ff 00       		.byte	0
 14910 0400 00       		.byte	0
 14911 0401 50       		.uleb128 0x50
 14912 0402 898201   		.uleb128 0x4109
 14913 0405 01       		.byte	0x1
 14914 0406 11       		.uleb128 0x11
 14915 0407 01       		.uleb128 0x1
 14916 0408 00       		.byte	0
 14917 0409 00       		.byte	0
 14918 040a 51       		.uleb128 0x51
 14919 040b 0B       		.uleb128 0xb
 14920 040c 01       		.byte	0x1
 14921 040d 31       		.uleb128 0x31
 14922 040e 13       		.uleb128 0x13
 14923 040f 11       		.uleb128 0x11
 14924 0410 01       		.uleb128 0x1
 14925 0411 12       		.uleb128 0x12
 14926 0412 06       		.uleb128 0x6
ARM GAS  /tmp/ccxvl19p.s 			page 263


 14927 0413 01       		.uleb128 0x1
 14928 0414 13       		.uleb128 0x13
 14929 0415 00       		.byte	0
 14930 0416 00       		.byte	0
 14931 0417 52       		.uleb128 0x52
 14932 0418 898201   		.uleb128 0x4109
 14933 041b 01       		.byte	0x1
 14934 041c 11       		.uleb128 0x11
 14935 041d 01       		.uleb128 0x1
 14936 041e 01       		.uleb128 0x1
 14937 041f 13       		.uleb128 0x13
 14938 0420 00       		.byte	0
 14939 0421 00       		.byte	0
 14940 0422 53       		.uleb128 0x53
 14941 0423 898201   		.uleb128 0x4109
 14942 0426 01       		.byte	0x1
 14943 0427 11       		.uleb128 0x11
 14944 0428 01       		.uleb128 0x1
 14945 0429 31       		.uleb128 0x31
 14946 042a 13       		.uleb128 0x13
 14947 042b 01       		.uleb128 0x1
 14948 042c 13       		.uleb128 0x13
 14949 042d 00       		.byte	0
 14950 042e 00       		.byte	0
 14951 042f 54       		.uleb128 0x54
 14952 0430 898201   		.uleb128 0x4109
 14953 0433 00       		.byte	0
 14954 0434 11       		.uleb128 0x11
 14955 0435 01       		.uleb128 0x1
 14956 0436 9542     		.uleb128 0x2115
 14957 0438 19       		.uleb128 0x19
 14958 0439 31       		.uleb128 0x31
 14959 043a 13       		.uleb128 0x13
 14960 043b 00       		.byte	0
 14961 043c 00       		.byte	0
 14962 043d 55       		.uleb128 0x55
 14963 043e 2E       		.uleb128 0x2e
 14964 043f 01       		.byte	0x1
 14965 0440 03       		.uleb128 0x3
 14966 0441 0E       		.uleb128 0xe
 14967 0442 3A       		.uleb128 0x3a
 14968 0443 0B       		.uleb128 0xb
 14969 0444 3B       		.uleb128 0x3b
 14970 0445 05       		.uleb128 0x5
 14971 0446 27       		.uleb128 0x27
 14972 0447 19       		.uleb128 0x19
 14973 0448 20       		.uleb128 0x20
 14974 0449 0B       		.uleb128 0xb
 14975 044a 01       		.uleb128 0x1
 14976 044b 13       		.uleb128 0x13
 14977 044c 00       		.byte	0
 14978 044d 00       		.byte	0
 14979 044e 56       		.uleb128 0x56
 14980 044f 2E       		.uleb128 0x2e
 14981 0450 01       		.byte	0x1
 14982 0451 03       		.uleb128 0x3
 14983 0452 0E       		.uleb128 0xe
ARM GAS  /tmp/ccxvl19p.s 			page 264


 14984 0453 3A       		.uleb128 0x3a
 14985 0454 0B       		.uleb128 0xb
 14986 0455 3B       		.uleb128 0x3b
 14987 0456 05       		.uleb128 0x5
 14988 0457 27       		.uleb128 0x27
 14989 0458 19       		.uleb128 0x19
 14990 0459 49       		.uleb128 0x49
 14991 045a 13       		.uleb128 0x13
 14992 045b 20       		.uleb128 0x20
 14993 045c 0B       		.uleb128 0xb
 14994 045d 01       		.uleb128 0x1
 14995 045e 13       		.uleb128 0x13
 14996 045f 00       		.byte	0
 14997 0460 00       		.byte	0
 14998 0461 57       		.uleb128 0x57
 14999 0462 2E       		.uleb128 0x2e
 15000 0463 01       		.byte	0x1
 15001 0464 03       		.uleb128 0x3
 15002 0465 0E       		.uleb128 0xe
 15003 0466 3A       		.uleb128 0x3a
 15004 0467 0B       		.uleb128 0xb
 15005 0468 3B       		.uleb128 0x3b
 15006 0469 0B       		.uleb128 0xb
 15007 046a 27       		.uleb128 0x27
 15008 046b 19       		.uleb128 0x19
 15009 046c 20       		.uleb128 0x20
 15010 046d 0B       		.uleb128 0xb
 15011 046e 01       		.uleb128 0x1
 15012 046f 13       		.uleb128 0x13
 15013 0470 00       		.byte	0
 15014 0471 00       		.byte	0
 15015 0472 58       		.uleb128 0x58
 15016 0473 05       		.uleb128 0x5
 15017 0474 00       		.byte	0
 15018 0475 03       		.uleb128 0x3
 15019 0476 0E       		.uleb128 0xe
 15020 0477 3A       		.uleb128 0x3a
 15021 0478 0B       		.uleb128 0xb
 15022 0479 3B       		.uleb128 0x3b
 15023 047a 0B       		.uleb128 0xb
 15024 047b 49       		.uleb128 0x49
 15025 047c 13       		.uleb128 0x13
 15026 047d 00       		.byte	0
 15027 047e 00       		.byte	0
 15028 047f 59       		.uleb128 0x59
 15029 0480 05       		.uleb128 0x5
 15030 0481 00       		.byte	0
 15031 0482 03       		.uleb128 0x3
 15032 0483 08       		.uleb128 0x8
 15033 0484 3A       		.uleb128 0x3a
 15034 0485 0B       		.uleb128 0xb
 15035 0486 3B       		.uleb128 0x3b
 15036 0487 0B       		.uleb128 0xb
 15037 0488 49       		.uleb128 0x49
 15038 0489 13       		.uleb128 0x13
 15039 048a 00       		.byte	0
 15040 048b 00       		.byte	0
ARM GAS  /tmp/ccxvl19p.s 			page 265


 15041 048c 5A       		.uleb128 0x5a
 15042 048d 34       		.uleb128 0x34
 15043 048e 00       		.byte	0
 15044 048f 03       		.uleb128 0x3
 15045 0490 0E       		.uleb128 0xe
 15046 0491 49       		.uleb128 0x49
 15047 0492 13       		.uleb128 0x13
 15048 0493 34       		.uleb128 0x34
 15049 0494 19       		.uleb128 0x19
 15050 0495 1C       		.uleb128 0x1c
 15051 0496 0E       		.uleb128 0xe
 15052 0497 00       		.byte	0
 15053 0498 00       		.byte	0
 15054 0499 5B       		.uleb128 0x5b
 15055 049a 2E       		.uleb128 0x2e
 15056 049b 01       		.byte	0x1
 15057 049c 03       		.uleb128 0x3
 15058 049d 0E       		.uleb128 0xe
 15059 049e 3A       		.uleb128 0x3a
 15060 049f 0B       		.uleb128 0xb
 15061 04a0 3B       		.uleb128 0x3b
 15062 04a1 0B       		.uleb128 0xb
 15063 04a2 27       		.uleb128 0x27
 15064 04a3 19       		.uleb128 0x19
 15065 04a4 49       		.uleb128 0x49
 15066 04a5 13       		.uleb128 0x13
 15067 04a6 20       		.uleb128 0x20
 15068 04a7 0B       		.uleb128 0xb
 15069 04a8 01       		.uleb128 0x1
 15070 04a9 13       		.uleb128 0x13
 15071 04aa 00       		.byte	0
 15072 04ab 00       		.byte	0
 15073 04ac 5C       		.uleb128 0x5c
 15074 04ad 34       		.uleb128 0x34
 15075 04ae 00       		.byte	0
 15076 04af 03       		.uleb128 0x3
 15077 04b0 0E       		.uleb128 0xe
 15078 04b1 3A       		.uleb128 0x3a
 15079 04b2 0B       		.uleb128 0xb
 15080 04b3 3B       		.uleb128 0x3b
 15081 04b4 0B       		.uleb128 0xb
 15082 04b5 49       		.uleb128 0x49
 15083 04b6 13       		.uleb128 0x13
 15084 04b7 00       		.byte	0
 15085 04b8 00       		.byte	0
 15086 04b9 5D       		.uleb128 0x5d
 15087 04ba 34       		.uleb128 0x34
 15088 04bb 00       		.byte	0
 15089 04bc 03       		.uleb128 0x3
 15090 04bd 08       		.uleb128 0x8
 15091 04be 3A       		.uleb128 0x3a
 15092 04bf 0B       		.uleb128 0xb
 15093 04c0 3B       		.uleb128 0x3b
 15094 04c1 0B       		.uleb128 0xb
 15095 04c2 49       		.uleb128 0x49
 15096 04c3 13       		.uleb128 0x13
 15097 04c4 00       		.byte	0
ARM GAS  /tmp/ccxvl19p.s 			page 266


 15098 04c5 00       		.byte	0
 15099 04c6 5E       		.uleb128 0x5e
 15100 04c7 2E       		.uleb128 0x2e
 15101 04c8 00       		.byte	0
 15102 04c9 03       		.uleb128 0x3
 15103 04ca 0E       		.uleb128 0xe
 15104 04cb 3A       		.uleb128 0x3a
 15105 04cc 0B       		.uleb128 0xb
 15106 04cd 3B       		.uleb128 0x3b
 15107 04ce 05       		.uleb128 0x5
 15108 04cf 27       		.uleb128 0x27
 15109 04d0 19       		.uleb128 0x19
 15110 04d1 20       		.uleb128 0x20
 15111 04d2 0B       		.uleb128 0xb
 15112 04d3 00       		.byte	0
 15113 04d4 00       		.byte	0
 15114 04d5 5F       		.uleb128 0x5f
 15115 04d6 2E       		.uleb128 0x2e
 15116 04d7 01       		.byte	0x1
 15117 04d8 31       		.uleb128 0x31
 15118 04d9 13       		.uleb128 0x13
 15119 04da 11       		.uleb128 0x11
 15120 04db 01       		.uleb128 0x1
 15121 04dc 12       		.uleb128 0x12
 15122 04dd 06       		.uleb128 0x6
 15123 04de 40       		.uleb128 0x40
 15124 04df 18       		.uleb128 0x18
 15125 04e0 9742     		.uleb128 0x2117
 15126 04e2 19       		.uleb128 0x19
 15127 04e3 01       		.uleb128 0x1
 15128 04e4 13       		.uleb128 0x13
 15129 04e5 00       		.byte	0
 15130 04e6 00       		.byte	0
 15131 04e7 60       		.uleb128 0x60
 15132 04e8 2E       		.uleb128 0x2e
 15133 04e9 00       		.byte	0
 15134 04ea 3F       		.uleb128 0x3f
 15135 04eb 19       		.uleb128 0x19
 15136 04ec 3C       		.uleb128 0x3c
 15137 04ed 19       		.uleb128 0x19
 15138 04ee 6E       		.uleb128 0x6e
 15139 04ef 0E       		.uleb128 0xe
 15140 04f0 03       		.uleb128 0x3
 15141 04f1 0E       		.uleb128 0xe
 15142 04f2 3A       		.uleb128 0x3a
 15143 04f3 0B       		.uleb128 0xb
 15144 04f4 3B       		.uleb128 0x3b
 15145 04f5 05       		.uleb128 0x5
 15146 04f6 00       		.byte	0
 15147 04f7 00       		.byte	0
 15148 04f8 61       		.uleb128 0x61
 15149 04f9 2E       		.uleb128 0x2e
 15150 04fa 00       		.byte	0
 15151 04fb 3F       		.uleb128 0x3f
 15152 04fc 19       		.uleb128 0x19
 15153 04fd 3C       		.uleb128 0x3c
 15154 04fe 19       		.uleb128 0x19
ARM GAS  /tmp/ccxvl19p.s 			page 267


 15155 04ff 6E       		.uleb128 0x6e
 15156 0500 0E       		.uleb128 0xe
 15157 0501 03       		.uleb128 0x3
 15158 0502 0E       		.uleb128 0xe
 15159 0503 3A       		.uleb128 0x3a
 15160 0504 0B       		.uleb128 0xb
 15161 0505 3B       		.uleb128 0x3b
 15162 0506 0B       		.uleb128 0xb
 15163 0507 00       		.byte	0
 15164 0508 00       		.byte	0
 15165 0509 00       		.byte	0
 15166              		.section	.debug_loc,"",%progbits
 15167              	.Ldebug_loc0:
 15168              	.LLST189:
 15169 0000 00000000 		.4byte	.LVL423
 15170 0004 06000000 		.4byte	.LVL424
 15171 0008 0100     		.2byte	0x1
 15172 000a 51       		.byte	0x51
 15173 000b 06000000 		.4byte	.LVL424
 15174 000f 14000000 		.4byte	.LFE358
 15175 0013 0400     		.2byte	0x4
 15176 0015 F3       		.byte	0xf3
 15177 0016 01       		.uleb128 0x1
 15178 0017 51       		.byte	0x51
 15179 0018 9F       		.byte	0x9f
 15180 0019 00000000 		.4byte	0
 15181 001d 00000000 		.4byte	0
 15182              	.LLST188:
 15183 0021 00000000 		.4byte	.LVL421
 15184 0025 06000000 		.4byte	.LVL422
 15185 0029 0100     		.2byte	0x1
 15186 002b 51       		.byte	0x51
 15187 002c 06000000 		.4byte	.LVL422
 15188 0030 14000000 		.4byte	.LFE357
 15189 0034 0400     		.2byte	0x4
 15190 0036 F3       		.byte	0xf3
 15191 0037 01       		.uleb128 0x1
 15192 0038 51       		.byte	0x51
 15193 0039 9F       		.byte	0x9f
 15194 003a 00000000 		.4byte	0
 15195 003e 00000000 		.4byte	0
 15196              	.LLST187:
 15197 0042 00000000 		.4byte	.LVL419
 15198 0046 06000000 		.4byte	.LVL420
 15199 004a 0100     		.2byte	0x1
 15200 004c 51       		.byte	0x51
 15201 004d 06000000 		.4byte	.LVL420
 15202 0051 14000000 		.4byte	.LFE356
 15203 0055 0400     		.2byte	0x4
 15204 0057 F3       		.byte	0xf3
 15205 0058 01       		.uleb128 0x1
 15206 0059 51       		.byte	0x51
 15207 005a 9F       		.byte	0x9f
 15208 005b 00000000 		.4byte	0
 15209 005f 00000000 		.4byte	0
 15210              	.LLST186:
 15211 0063 00000000 		.4byte	.LVL417
ARM GAS  /tmp/ccxvl19p.s 			page 268


 15212 0067 06000000 		.4byte	.LVL418
 15213 006b 0100     		.2byte	0x1
 15214 006d 51       		.byte	0x51
 15215 006e 06000000 		.4byte	.LVL418
 15216 0072 14000000 		.4byte	.LFE355
 15217 0076 0400     		.2byte	0x4
 15218 0078 F3       		.byte	0xf3
 15219 0079 01       		.uleb128 0x1
 15220 007a 51       		.byte	0x51
 15221 007b 9F       		.byte	0x9f
 15222 007c 00000000 		.4byte	0
 15223 0080 00000000 		.4byte	0
 15224              	.LLST176:
 15225 0084 00000000 		.4byte	.LVL390
 15226 0088 04000000 		.4byte	.LVL391
 15227 008c 0100     		.2byte	0x1
 15228 008e 51       		.byte	0x51
 15229 008f 04000000 		.4byte	.LVL391
 15230 0093 12000000 		.4byte	.LFE352
 15231 0097 0400     		.2byte	0x4
 15232 0099 F3       		.byte	0xf3
 15233 009a 01       		.uleb128 0x1
 15234 009b 51       		.byte	0x51
 15235 009c 9F       		.byte	0x9f
 15236 009d 00000000 		.4byte	0
 15237 00a1 00000000 		.4byte	0
 15238              	.LLST174:
 15239 00a5 00000000 		.4byte	.LVL386
 15240 00a9 0C000000 		.4byte	.LVL389
 15241 00ad 0100     		.2byte	0x1
 15242 00af 50       		.byte	0x50
 15243 00b0 0C000000 		.4byte	.LVL389
 15244 00b4 1A000000 		.4byte	.LFE351
 15245 00b8 0400     		.2byte	0x4
 15246 00ba F3       		.byte	0xf3
 15247 00bb 01       		.uleb128 0x1
 15248 00bc 50       		.byte	0x50
 15249 00bd 9F       		.byte	0x9f
 15250 00be 00000000 		.4byte	0
 15251 00c2 00000000 		.4byte	0
 15252              	.LLST175:
 15253 00c6 00000000 		.4byte	.LVL386
 15254 00ca 02000000 		.4byte	.LVL387
 15255 00ce 0100     		.2byte	0x1
 15256 00d0 51       		.byte	0x51
 15257 00d1 02000000 		.4byte	.LVL387
 15258 00d5 1A000000 		.4byte	.LFE351
 15259 00d9 0400     		.2byte	0x4
 15260 00db F3       		.byte	0xf3
 15261 00dc 01       		.uleb128 0x1
 15262 00dd 51       		.byte	0x51
 15263 00de 9F       		.byte	0x9f
 15264 00df 00000000 		.4byte	0
 15265 00e3 00000000 		.4byte	0
 15266              	.LLST172:
 15267 00e7 00000000 		.4byte	.LVL382
 15268 00eb 0C000000 		.4byte	.LVL385
ARM GAS  /tmp/ccxvl19p.s 			page 269


 15269 00ef 0100     		.2byte	0x1
 15270 00f1 50       		.byte	0x50
 15271 00f2 0C000000 		.4byte	.LVL385
 15272 00f6 1A000000 		.4byte	.LFE350
 15273 00fa 0400     		.2byte	0x4
 15274 00fc F3       		.byte	0xf3
 15275 00fd 01       		.uleb128 0x1
 15276 00fe 50       		.byte	0x50
 15277 00ff 9F       		.byte	0x9f
 15278 0100 00000000 		.4byte	0
 15279 0104 00000000 		.4byte	0
 15280              	.LLST173:
 15281 0108 00000000 		.4byte	.LVL382
 15282 010c 02000000 		.4byte	.LVL383
 15283 0110 0100     		.2byte	0x1
 15284 0112 51       		.byte	0x51
 15285 0113 02000000 		.4byte	.LVL383
 15286 0117 1A000000 		.4byte	.LFE350
 15287 011b 0400     		.2byte	0x4
 15288 011d F3       		.byte	0xf3
 15289 011e 01       		.uleb128 0x1
 15290 011f 51       		.byte	0x51
 15291 0120 9F       		.byte	0x9f
 15292 0121 00000000 		.4byte	0
 15293 0125 00000000 		.4byte	0
 15294              	.LLST167:
 15295 0129 00000000 		.4byte	.LVL362
 15296 012d 0C000000 		.4byte	.LVL364
 15297 0131 0100     		.2byte	0x1
 15298 0133 50       		.byte	0x50
 15299 0134 0C000000 		.4byte	.LVL364
 15300 0138 E8010000 		.4byte	.LFE349
 15301 013c 0400     		.2byte	0x4
 15302 013e F3       		.byte	0xf3
 15303 013f 01       		.uleb128 0x1
 15304 0140 50       		.byte	0x50
 15305 0141 9F       		.byte	0x9f
 15306 0142 00000000 		.4byte	0
 15307 0146 00000000 		.4byte	0
 15308              	.LLST168:
 15309 014a 04000000 		.4byte	.LVL363
 15310 014e 0C000000 		.4byte	.LVL364
 15311 0152 0100     		.2byte	0x1
 15312 0154 50       		.byte	0x50
 15313 0155 0C000000 		.4byte	.LVL364
 15314 0159 E8010000 		.4byte	.LFE349
 15315 015d 0400     		.2byte	0x4
 15316 015f F3       		.byte	0xf3
 15317 0160 01       		.uleb128 0x1
 15318 0161 50       		.byte	0x50
 15319 0162 9F       		.byte	0x9f
 15320 0163 00000000 		.4byte	0
 15321 0167 00000000 		.4byte	0
 15322              	.LLST169:
 15323 016b 04000000 		.4byte	.LVL363
 15324 016f 0C000000 		.4byte	.LVL364
 15325 0173 0100     		.2byte	0x1
ARM GAS  /tmp/ccxvl19p.s 			page 270


 15326 0175 50       		.byte	0x50
 15327 0176 0C000000 		.4byte	.LVL364
 15328 017a E8010000 		.4byte	.LFE349
 15329 017e 0400     		.2byte	0x4
 15330 0180 F3       		.byte	0xf3
 15331 0181 01       		.uleb128 0x1
 15332 0182 50       		.byte	0x50
 15333 0183 9F       		.byte	0x9f
 15334 0184 00000000 		.4byte	0
 15335 0188 00000000 		.4byte	0
 15336              	.LLST170:
 15337 018c 04000000 		.4byte	.LVL363
 15338 0190 E2010000 		.4byte	.LVL381
 15339 0194 0100     		.2byte	0x1
 15340 0196 53       		.byte	0x53
 15341 0197 00000000 		.4byte	0
 15342 019b 00000000 		.4byte	0
 15343              	.LLST171:
 15344 019f 04000000 		.4byte	.LVL363
 15345 01a3 2A000000 		.4byte	.LVL365
 15346 01a7 0200     		.2byte	0x2
 15347 01a9 30       		.byte	0x30
 15348 01aa 9F       		.byte	0x9f
 15349 01ab 2A000000 		.4byte	.LVL365
 15350 01af 4A000000 		.4byte	.LVL366
 15351 01b3 0200     		.2byte	0x2
 15352 01b5 31       		.byte	0x31
 15353 01b6 9F       		.byte	0x9f
 15354 01b7 4A000000 		.4byte	.LVL366
 15355 01bb 68000000 		.4byte	.LVL367
 15356 01bf 0200     		.2byte	0x2
 15357 01c1 32       		.byte	0x32
 15358 01c2 9F       		.byte	0x9f
 15359 01c3 68000000 		.4byte	.LVL367
 15360 01c7 86000000 		.4byte	.LVL368
 15361 01cb 0200     		.2byte	0x2
 15362 01cd 33       		.byte	0x33
 15363 01ce 9F       		.byte	0x9f
 15364 01cf 86000000 		.4byte	.LVL368
 15365 01d3 A4000000 		.4byte	.LVL369
 15366 01d7 0200     		.2byte	0x2
 15367 01d9 34       		.byte	0x34
 15368 01da 9F       		.byte	0x9f
 15369 01db A4000000 		.4byte	.LVL369
 15370 01df C2000000 		.4byte	.LVL370
 15371 01e3 0200     		.2byte	0x2
 15372 01e5 35       		.byte	0x35
 15373 01e6 9F       		.byte	0x9f
 15374 01e7 C2000000 		.4byte	.LVL370
 15375 01eb E0000000 		.4byte	.LVL371
 15376 01ef 0200     		.2byte	0x2
 15377 01f1 36       		.byte	0x36
 15378 01f2 9F       		.byte	0x9f
 15379 01f3 E0000000 		.4byte	.LVL371
 15380 01f7 FC000000 		.4byte	.LVL372
 15381 01fb 0200     		.2byte	0x2
 15382 01fd 37       		.byte	0x37
ARM GAS  /tmp/ccxvl19p.s 			page 271


 15383 01fe 9F       		.byte	0x9f
 15384 01ff FC000000 		.4byte	.LVL372
 15385 0203 18010000 		.4byte	.LVL373
 15386 0207 0200     		.2byte	0x2
 15387 0209 38       		.byte	0x38
 15388 020a 9F       		.byte	0x9f
 15389 020b 18010000 		.4byte	.LVL373
 15390 020f 34010000 		.4byte	.LVL374
 15391 0213 0200     		.2byte	0x2
 15392 0215 39       		.byte	0x39
 15393 0216 9F       		.byte	0x9f
 15394 0217 34010000 		.4byte	.LVL374
 15395 021b 50010000 		.4byte	.LVL375
 15396 021f 0200     		.2byte	0x2
 15397 0221 3A       		.byte	0x3a
 15398 0222 9F       		.byte	0x9f
 15399 0223 50010000 		.4byte	.LVL375
 15400 0227 6C010000 		.4byte	.LVL376
 15401 022b 0200     		.2byte	0x2
 15402 022d 3B       		.byte	0x3b
 15403 022e 9F       		.byte	0x9f
 15404 022f 6C010000 		.4byte	.LVL376
 15405 0233 88010000 		.4byte	.LVL377
 15406 0237 0200     		.2byte	0x2
 15407 0239 3C       		.byte	0x3c
 15408 023a 9F       		.byte	0x9f
 15409 023b 88010000 		.4byte	.LVL377
 15410 023f A4010000 		.4byte	.LVL378
 15411 0243 0200     		.2byte	0x2
 15412 0245 3D       		.byte	0x3d
 15413 0246 9F       		.byte	0x9f
 15414 0247 A4010000 		.4byte	.LVL378
 15415 024b C0010000 		.4byte	.LVL379
 15416 024f 0200     		.2byte	0x2
 15417 0251 3E       		.byte	0x3e
 15418 0252 9F       		.byte	0x9f
 15419 0253 C0010000 		.4byte	.LVL379
 15420 0257 DA010000 		.4byte	.LVL380
 15421 025b 0200     		.2byte	0x2
 15422 025d 3F       		.byte	0x3f
 15423 025e 9F       		.byte	0x9f
 15424 025f 00000000 		.4byte	0
 15425 0263 00000000 		.4byte	0
 15426              	.LLST151:
 15427 0267 00000000 		.4byte	.LVL343
 15428 026b BA000000 		.4byte	.LVL353
 15429 026f 0100     		.2byte	0x1
 15430 0271 50       		.byte	0x50
 15431 0272 BA000000 		.4byte	.LVL353
 15432 0276 E6000000 		.4byte	.LVL355
 15433 027a 0400     		.2byte	0x4
 15434 027c F3       		.byte	0xf3
 15435 027d 01       		.uleb128 0x1
 15436 027e 50       		.byte	0x50
 15437 027f 9F       		.byte	0x9f
 15438 0280 E6000000 		.4byte	.LVL355
 15439 0284 1E010000 		.4byte	.LVL358
ARM GAS  /tmp/ccxvl19p.s 			page 272


 15440 0288 0100     		.2byte	0x1
 15441 028a 50       		.byte	0x50
 15442 028b 1E010000 		.4byte	.LVL358
 15443 028f 44010000 		.4byte	.LVL360
 15444 0293 0400     		.2byte	0x4
 15445 0295 F3       		.byte	0xf3
 15446 0296 01       		.uleb128 0x1
 15447 0297 50       		.byte	0x50
 15448 0298 9F       		.byte	0x9f
 15449 0299 44010000 		.4byte	.LVL360
 15450 029d 64010000 		.4byte	.LFE348
 15451 02a1 0100     		.2byte	0x1
 15452 02a3 50       		.byte	0x50
 15453 02a4 00000000 		.4byte	0
 15454 02a8 00000000 		.4byte	0
 15455              	.LLST152:
 15456 02ac 00000000 		.4byte	.LVL343
 15457 02b0 26000000 		.4byte	.LVL345
 15458 02b4 0100     		.2byte	0x1
 15459 02b6 51       		.byte	0x51
 15460 02b7 26000000 		.4byte	.LVL345
 15461 02bb 44010000 		.4byte	.LVL360
 15462 02bf 0400     		.2byte	0x4
 15463 02c1 F3       		.byte	0xf3
 15464 02c2 01       		.uleb128 0x1
 15465 02c3 51       		.byte	0x51
 15466 02c4 9F       		.byte	0x9f
 15467 02c5 44010000 		.4byte	.LVL360
 15468 02c9 64010000 		.4byte	.LFE348
 15469 02cd 0100     		.2byte	0x1
 15470 02cf 51       		.byte	0x51
 15471 02d0 00000000 		.4byte	0
 15472 02d4 00000000 		.4byte	0
 15473              	.LLST153:
 15474 02d8 30000000 		.4byte	.LVL346
 15475 02dc 44010000 		.4byte	.LVL360
 15476 02e0 0100     		.2byte	0x1
 15477 02e2 59       		.byte	0x59
 15478 02e3 44010000 		.4byte	.LVL360
 15479 02e7 4A010000 		.4byte	.LVL361
 15480 02eb 0600     		.2byte	0x6
 15481 02ed 0C       		.byte	0xc
 15482 02ee 00800C10 		.4byte	0x100c8000
 15483 02f2 9F       		.byte	0x9f
 15484 02f3 4A010000 		.4byte	.LVL361
 15485 02f7 64010000 		.4byte	.LFE348
 15486 02fb 0600     		.2byte	0x6
 15487 02fd 0C       		.byte	0xc
 15488 02fe 00800810 		.4byte	0x10088000
 15489 0302 9F       		.byte	0x9f
 15490 0303 00000000 		.4byte	0
 15491 0307 00000000 		.4byte	0
 15492              	.LLST154:
 15493 030b 92000000 		.4byte	.LVL347
 15494 030f AA000000 		.4byte	.LVL349
 15495 0313 0100     		.2byte	0x1
 15496 0315 53       		.byte	0x53
ARM GAS  /tmp/ccxvl19p.s 			page 273


 15497 0316 00000000 		.4byte	0
 15498 031a 00000000 		.4byte	0
 15499              	.LLST155:
 15500 031e 0E000000 		.4byte	.LVL344
 15501 0322 BA000000 		.4byte	.LVL353
 15502 0326 0300     		.2byte	0x3
 15503 0328 70       		.byte	0x70
 15504 0329 D400     		.sleb128 84
 15505 032b BA000000 		.4byte	.LVL353
 15506 032f BD000000 		.4byte	.LVL354-1
 15507 0333 0500     		.2byte	0x5
 15508 0335 F3       		.byte	0xf3
 15509 0336 01       		.uleb128 0x1
 15510 0337 50       		.byte	0x50
 15511 0338 23       		.byte	0x23
 15512 0339 54       		.uleb128 0x54
 15513 033a E6000000 		.4byte	.LVL355
 15514 033e 1E010000 		.4byte	.LVL358
 15515 0342 0300     		.2byte	0x3
 15516 0344 70       		.byte	0x70
 15517 0345 D400     		.sleb128 84
 15518 0347 1E010000 		.4byte	.LVL358
 15519 034b 21010000 		.4byte	.LVL359-1
 15520 034f 0500     		.2byte	0x5
 15521 0351 F3       		.byte	0xf3
 15522 0352 01       		.uleb128 0x1
 15523 0353 50       		.byte	0x50
 15524 0354 23       		.byte	0x23
 15525 0355 54       		.uleb128 0x54
 15526 0356 44010000 		.4byte	.LVL360
 15527 035a 64010000 		.4byte	.LFE348
 15528 035e 0300     		.2byte	0x3
 15529 0360 70       		.byte	0x70
 15530 0361 D400     		.sleb128 84
 15531 0363 00000000 		.4byte	0
 15532 0367 00000000 		.4byte	0
 15533              	.LLST156:
 15534 036b 9E000000 		.4byte	.LVL348
 15535 036f BA000000 		.4byte	.LVL353
 15536 0373 0100     		.2byte	0x1
 15537 0375 50       		.byte	0x50
 15538 0376 BA000000 		.4byte	.LVL353
 15539 037a E6000000 		.4byte	.LVL355
 15540 037e 0400     		.2byte	0x4
 15541 0380 F3       		.byte	0xf3
 15542 0381 01       		.uleb128 0x1
 15543 0382 50       		.byte	0x50
 15544 0383 9F       		.byte	0x9f
 15545 0384 00000000 		.4byte	0
 15546 0388 00000000 		.4byte	0
 15547              	.LLST157:
 15548 038c 9E000000 		.4byte	.LVL348
 15549 0390 AA000000 		.4byte	.LVL349
 15550 0394 0100     		.2byte	0x1
 15551 0396 53       		.byte	0x53
 15552 0397 00000000 		.4byte	0
 15553 039b 00000000 		.4byte	0
ARM GAS  /tmp/ccxvl19p.s 			page 274


 15554              	.LLST158:
 15555 039f 9E000000 		.4byte	.LVL348
 15556 03a3 AE000000 		.4byte	.LVL350
 15557 03a7 0100     		.2byte	0x1
 15558 03a9 56       		.byte	0x56
 15559 03aa 00000000 		.4byte	0
 15560 03ae 00000000 		.4byte	0
 15561              	.LLST159:
 15562 03b2 B0000000 		.4byte	.LVL351
 15563 03b6 BA000000 		.4byte	.LVL353
 15564 03ba 0100     		.2byte	0x1
 15565 03bc 50       		.byte	0x50
 15566 03bd BA000000 		.4byte	.LVL353
 15567 03c1 E6000000 		.4byte	.LVL355
 15568 03c5 0400     		.2byte	0x4
 15569 03c7 F3       		.byte	0xf3
 15570 03c8 01       		.uleb128 0x1
 15571 03c9 50       		.byte	0x50
 15572 03ca 9F       		.byte	0x9f
 15573 03cb 00000000 		.4byte	0
 15574 03cf 00000000 		.4byte	0
 15575              	.LLST160:
 15576 03d3 B0000000 		.4byte	.LVL351
 15577 03d7 BE000000 		.4byte	.LVL354
 15578 03db 0600     		.2byte	0x6
 15579 03dd 75       		.byte	0x75
 15580 03de 00       		.sleb128 0
 15581 03df 08       		.byte	0x8
 15582 03e0 FF       		.byte	0xff
 15583 03e1 1A       		.byte	0x1a
 15584 03e2 9F       		.byte	0x9f
 15585 03e3 00000000 		.4byte	0
 15586 03e7 00000000 		.4byte	0
 15587              	.LLST161:
 15588 03eb B0000000 		.4byte	.LVL351
 15589 03ef BA000000 		.4byte	.LVL353
 15590 03f3 0300     		.2byte	0x3
 15591 03f5 70       		.byte	0x70
 15592 03f6 D400     		.sleb128 84
 15593 03f8 BA000000 		.4byte	.LVL353
 15594 03fc BD000000 		.4byte	.LVL354-1
 15595 0400 0500     		.2byte	0x5
 15596 0402 F3       		.byte	0xf3
 15597 0403 01       		.uleb128 0x1
 15598 0404 50       		.byte	0x50
 15599 0405 23       		.byte	0x23
 15600 0406 54       		.uleb128 0x54
 15601 0407 00000000 		.4byte	0
 15602 040b 00000000 		.4byte	0
 15603              	.LLST162:
 15604 040f B8000000 		.4byte	.LVL352
 15605 0413 BE000000 		.4byte	.LVL354
 15606 0417 0200     		.2byte	0x2
 15607 0419 42       		.byte	0x42
 15608 041a 9F       		.byte	0x9f
 15609 041b 00000000 		.4byte	0
 15610 041f 00000000 		.4byte	0
ARM GAS  /tmp/ccxvl19p.s 			page 275


 15611              	.LLST163:
 15612 0423 10010000 		.4byte	.LVL356
 15613 0427 1E010000 		.4byte	.LVL358
 15614 042b 0100     		.2byte	0x1
 15615 042d 50       		.byte	0x50
 15616 042e 1E010000 		.4byte	.LVL358
 15617 0432 44010000 		.4byte	.LVL360
 15618 0436 0400     		.2byte	0x4
 15619 0438 F3       		.byte	0xf3
 15620 0439 01       		.uleb128 0x1
 15621 043a 50       		.byte	0x50
 15622 043b 9F       		.byte	0x9f
 15623 043c 00000000 		.4byte	0
 15624 0440 00000000 		.4byte	0
 15625              	.LLST164:
 15626 0444 10010000 		.4byte	.LVL356
 15627 0448 22010000 		.4byte	.LVL359
 15628 044c 0600     		.2byte	0x6
 15629 044e 75       		.byte	0x75
 15630 044f 00       		.sleb128 0
 15631 0450 08       		.byte	0x8
 15632 0451 FF       		.byte	0xff
 15633 0452 1A       		.byte	0x1a
 15634 0453 9F       		.byte	0x9f
 15635 0454 00000000 		.4byte	0
 15636 0458 00000000 		.4byte	0
 15637              	.LLST165:
 15638 045c 10010000 		.4byte	.LVL356
 15639 0460 1E010000 		.4byte	.LVL358
 15640 0464 0300     		.2byte	0x3
 15641 0466 70       		.byte	0x70
 15642 0467 D400     		.sleb128 84
 15643 0469 1E010000 		.4byte	.LVL358
 15644 046d 21010000 		.4byte	.LVL359-1
 15645 0471 0500     		.2byte	0x5
 15646 0473 F3       		.byte	0xf3
 15647 0474 01       		.uleb128 0x1
 15648 0475 50       		.byte	0x50
 15649 0476 23       		.byte	0x23
 15650 0477 54       		.uleb128 0x54
 15651 0478 00000000 		.4byte	0
 15652 047c 00000000 		.4byte	0
 15653              	.LLST166:
 15654 0480 18010000 		.4byte	.LVL357
 15655 0484 22010000 		.4byte	.LVL359
 15656 0488 0200     		.2byte	0x2
 15657 048a 42       		.byte	0x42
 15658 048b 9F       		.byte	0x9f
 15659 048c 00000000 		.4byte	0
 15660 0490 00000000 		.4byte	0
 15661              	.LLST136:
 15662 0494 00000000 		.4byte	.LVL310
 15663 0498 14000000 		.4byte	.LVL314
 15664 049c 0100     		.2byte	0x1
 15665 049e 50       		.byte	0x50
 15666 049f 14000000 		.4byte	.LVL314
 15667 04a3 D8010000 		.4byte	.LVL340
ARM GAS  /tmp/ccxvl19p.s 			page 276


 15668 04a7 0100     		.2byte	0x1
 15669 04a9 56       		.byte	0x56
 15670 04aa D8010000 		.4byte	.LVL340
 15671 04ae E0010000 		.4byte	.LFE346
 15672 04b2 0400     		.2byte	0x4
 15673 04b4 F3       		.byte	0xf3
 15674 04b5 01       		.uleb128 0x1
 15675 04b6 50       		.byte	0x50
 15676 04b7 9F       		.byte	0x9f
 15677 04b8 00000000 		.4byte	0
 15678 04bc 00000000 		.4byte	0
 15679              	.LLST137:
 15680 04c0 30000000 		.4byte	.LVL316
 15681 04c4 40000000 		.4byte	.LVL317
 15682 04c8 0200     		.2byte	0x2
 15683 04ca 30       		.byte	0x30
 15684 04cb 9F       		.byte	0x9f
 15685 04cc 40000000 		.4byte	.LVL317
 15686 04d0 58000000 		.4byte	.LVL318
 15687 04d4 0200     		.2byte	0x2
 15688 04d6 31       		.byte	0x31
 15689 04d7 9F       		.byte	0x9f
 15690 04d8 58000000 		.4byte	.LVL318
 15691 04dc 6E000000 		.4byte	.LVL319
 15692 04e0 0200     		.2byte	0x2
 15693 04e2 32       		.byte	0x32
 15694 04e3 9F       		.byte	0x9f
 15695 04e4 6E000000 		.4byte	.LVL319
 15696 04e8 82000000 		.4byte	.LVL320
 15697 04ec 0200     		.2byte	0x2
 15698 04ee 33       		.byte	0x33
 15699 04ef 9F       		.byte	0x9f
 15700 04f0 82000000 		.4byte	.LVL320
 15701 04f4 96000000 		.4byte	.LVL321
 15702 04f8 0200     		.2byte	0x2
 15703 04fa 34       		.byte	0x34
 15704 04fb 9F       		.byte	0x9f
 15705 04fc 96000000 		.4byte	.LVL321
 15706 0500 AA000000 		.4byte	.LVL322
 15707 0504 0200     		.2byte	0x2
 15708 0506 35       		.byte	0x35
 15709 0507 9F       		.byte	0x9f
 15710 0508 AA000000 		.4byte	.LVL322
 15711 050c BE000000 		.4byte	.LVL323
 15712 0510 0200     		.2byte	0x2
 15713 0512 36       		.byte	0x36
 15714 0513 9F       		.byte	0x9f
 15715 0514 BE000000 		.4byte	.LVL323
 15716 0518 D2000000 		.4byte	.LVL324
 15717 051c 0200     		.2byte	0x2
 15718 051e 37       		.byte	0x37
 15719 051f 9F       		.byte	0x9f
 15720 0520 D2000000 		.4byte	.LVL324
 15721 0524 E6000000 		.4byte	.LVL325
 15722 0528 0200     		.2byte	0x2
 15723 052a 38       		.byte	0x38
 15724 052b 9F       		.byte	0x9f
ARM GAS  /tmp/ccxvl19p.s 			page 277


 15725 052c E6000000 		.4byte	.LVL325
 15726 0530 FA000000 		.4byte	.LVL326
 15727 0534 0200     		.2byte	0x2
 15728 0536 39       		.byte	0x39
 15729 0537 9F       		.byte	0x9f
 15730 0538 FA000000 		.4byte	.LVL326
 15731 053c 0E010000 		.4byte	.LVL327
 15732 0540 0200     		.2byte	0x2
 15733 0542 3A       		.byte	0x3a
 15734 0543 9F       		.byte	0x9f
 15735 0544 0E010000 		.4byte	.LVL327
 15736 0548 22010000 		.4byte	.LVL328
 15737 054c 0200     		.2byte	0x2
 15738 054e 3B       		.byte	0x3b
 15739 054f 9F       		.byte	0x9f
 15740 0550 22010000 		.4byte	.LVL328
 15741 0554 36010000 		.4byte	.LVL329
 15742 0558 0200     		.2byte	0x2
 15743 055a 3C       		.byte	0x3c
 15744 055b 9F       		.byte	0x9f
 15745 055c 36010000 		.4byte	.LVL329
 15746 0560 4A010000 		.4byte	.LVL330
 15747 0564 0200     		.2byte	0x2
 15748 0566 3D       		.byte	0x3d
 15749 0567 9F       		.byte	0x9f
 15750 0568 4A010000 		.4byte	.LVL330
 15751 056c 5E010000 		.4byte	.LVL331
 15752 0570 0200     		.2byte	0x2
 15753 0572 3E       		.byte	0x3e
 15754 0573 9F       		.byte	0x9f
 15755 0574 5E010000 		.4byte	.LVL331
 15756 0578 70010000 		.4byte	.LVL332
 15757 057c 0200     		.2byte	0x2
 15758 057e 3F       		.byte	0x3f
 15759 057f 9F       		.byte	0x9f
 15760 0580 00000000 		.4byte	0
 15761 0584 00000000 		.4byte	0
 15762              	.LLST138:
 15763 0588 04000000 		.4byte	.LVL311
 15764 058c D8010000 		.4byte	.LVL340
 15765 0590 0100     		.2byte	0x1
 15766 0592 54       		.byte	0x54
 15767 0593 00000000 		.4byte	0
 15768 0597 00000000 		.4byte	0
 15769              	.LLST139:
 15770 059b 08000000 		.4byte	.LVL312
 15771 059f 14000000 		.4byte	.LVL314
 15772 05a3 0100     		.2byte	0x1
 15773 05a5 50       		.byte	0x50
 15774 05a6 14000000 		.4byte	.LVL314
 15775 05aa D8010000 		.4byte	.LVL340
 15776 05ae 0100     		.2byte	0x1
 15777 05b0 56       		.byte	0x56
 15778 05b1 D8010000 		.4byte	.LVL340
 15779 05b5 E0010000 		.4byte	.LFE346
 15780 05b9 0400     		.2byte	0x4
 15781 05bb F3       		.byte	0xf3
ARM GAS  /tmp/ccxvl19p.s 			page 278


 15782 05bc 01       		.uleb128 0x1
 15783 05bd 50       		.byte	0x50
 15784 05be 9F       		.byte	0x9f
 15785 05bf 00000000 		.4byte	0
 15786 05c3 00000000 		.4byte	0
 15787              	.LLST140:
 15788 05c7 08000000 		.4byte	.LVL312
 15789 05cb 18000000 		.4byte	.LVL315
 15790 05cf 0200     		.2byte	0x2
 15791 05d1 30       		.byte	0x30
 15792 05d2 9F       		.byte	0x9f
 15793 05d3 00000000 		.4byte	0
 15794 05d7 00000000 		.4byte	0
 15795              	.LLST141:
 15796 05db 08000000 		.4byte	.LVL312
 15797 05df 18000000 		.4byte	.LVL315
 15798 05e3 0100     		.2byte	0x1
 15799 05e5 54       		.byte	0x54
 15800 05e6 00000000 		.4byte	0
 15801 05ea 00000000 		.4byte	0
 15802              	.LLST142:
 15803 05ee 12000000 		.4byte	.LVL313
 15804 05f2 18000000 		.4byte	.LVL315
 15805 05f6 0200     		.2byte	0x2
 15806 05f8 42       		.byte	0x42
 15807 05f9 9F       		.byte	0x9f
 15808 05fa 00000000 		.4byte	0
 15809 05fe 00000000 		.4byte	0
 15810              	.LLST143:
 15811 0602 70010000 		.4byte	.LVL332
 15812 0606 D8010000 		.4byte	.LVL340
 15813 060a 0100     		.2byte	0x1
 15814 060c 56       		.byte	0x56
 15815 060d D8010000 		.4byte	.LVL340
 15816 0611 E0010000 		.4byte	.LFE346
 15817 0615 0400     		.2byte	0x4
 15818 0617 F3       		.byte	0xf3
 15819 0618 01       		.uleb128 0x1
 15820 0619 50       		.byte	0x50
 15821 061a 9F       		.byte	0x9f
 15822 061b 00000000 		.4byte	0
 15823 061f 00000000 		.4byte	0
 15824              	.LLST144:
 15825 0623 70010000 		.4byte	.LVL332
 15826 0627 D8010000 		.4byte	.LVL340
 15827 062b 0100     		.2byte	0x1
 15828 062d 56       		.byte	0x56
 15829 062e D8010000 		.4byte	.LVL340
 15830 0632 E0010000 		.4byte	.LFE346
 15831 0636 0400     		.2byte	0x4
 15832 0638 F3       		.byte	0xf3
 15833 0639 01       		.uleb128 0x1
 15834 063a 50       		.byte	0x50
 15835 063b 9F       		.byte	0x9f
 15836 063c 00000000 		.4byte	0
 15837 0640 00000000 		.4byte	0
 15838              	.LLST145:
ARM GAS  /tmp/ccxvl19p.s 			page 279


 15839 0644 78010000 		.4byte	.LVL333
 15840 0648 D8010000 		.4byte	.LVL340
 15841 064c 0100     		.2byte	0x1
 15842 064e 56       		.byte	0x56
 15843 064f D8010000 		.4byte	.LVL340
 15844 0653 E0010000 		.4byte	.LFE346
 15845 0657 0400     		.2byte	0x4
 15846 0659 F3       		.byte	0xf3
 15847 065a 01       		.uleb128 0x1
 15848 065b 50       		.byte	0x50
 15849 065c 9F       		.byte	0x9f
 15850 065d 00000000 		.4byte	0
 15851 0661 00000000 		.4byte	0
 15852              	.LLST146:
 15853 0665 78010000 		.4byte	.LVL333
 15854 0669 8B010000 		.4byte	.LVL335-1
 15855 066d 0100     		.2byte	0x1
 15856 066f 52       		.byte	0x52
 15857 0670 00000000 		.4byte	0
 15858 0674 00000000 		.4byte	0
 15859              	.LLST147:
 15860 0678 86010000 		.4byte	.LVL334
 15861 067c 8C010000 		.4byte	.LVL335
 15862 0680 0200     		.2byte	0x2
 15863 0682 42       		.byte	0x42
 15864 0683 9F       		.byte	0x9f
 15865 0684 00000000 		.4byte	0
 15866 0688 00000000 		.4byte	0
 15867              	.LLST148:
 15868 068c C8010000 		.4byte	.LVL336
 15869 0690 D8010000 		.4byte	.LVL340
 15870 0694 0100     		.2byte	0x1
 15871 0696 56       		.byte	0x56
 15872 0697 D8010000 		.4byte	.LVL340
 15873 069b E0010000 		.4byte	.LFE346
 15874 069f 0400     		.2byte	0x4
 15875 06a1 F3       		.byte	0xf3
 15876 06a2 01       		.uleb128 0x1
 15877 06a3 50       		.byte	0x50
 15878 06a4 9F       		.byte	0x9f
 15879 06a5 00000000 		.4byte	0
 15880 06a9 00000000 		.4byte	0
 15881              	.LLST149:
 15882 06ad C8010000 		.4byte	.LVL336
 15883 06b1 D4010000 		.4byte	.LVL339
 15884 06b5 0200     		.2byte	0x2
 15885 06b7 40       		.byte	0x40
 15886 06b8 9F       		.byte	0x9f
 15887 06b9 00000000 		.4byte	0
 15888 06bd 00000000 		.4byte	0
 15889              	.LLST150:
 15890 06c1 CA010000 		.4byte	.LVL337
 15891 06c5 D2010000 		.4byte	.LVL338
 15892 06c9 0100     		.2byte	0x1
 15893 06cb 53       		.byte	0x53
 15894 06cc D2010000 		.4byte	.LVL338
 15895 06d0 D4010000 		.4byte	.LVL339
ARM GAS  /tmp/ccxvl19p.s 			page 280


 15896 06d4 0300     		.2byte	0x3
 15897 06d6 76       		.byte	0x76
 15898 06d7 DC00     		.sleb128 92
 15899 06d9 00000000 		.4byte	0
 15900 06dd 00000000 		.4byte	0
 15901              	.LLST130:
 15902 06e1 00000000 		.4byte	.LVL287
 15903 06e5 FC010000 		.4byte	.LVL308
 15904 06e9 0100     		.2byte	0x1
 15905 06eb 50       		.byte	0x50
 15906 06ec FC010000 		.4byte	.LVL308
 15907 06f0 20020000 		.4byte	.LFE345
 15908 06f4 0400     		.2byte	0x4
 15909 06f6 F3       		.byte	0xf3
 15910 06f7 01       		.uleb128 0x1
 15911 06f8 50       		.byte	0x50
 15912 06f9 9F       		.byte	0x9f
 15913 06fa 00000000 		.4byte	0
 15914 06fe 00000000 		.4byte	0
 15915              	.LLST131:
 15916 0702 00000000 		.4byte	.LVL287
 15917 0706 FA010000 		.4byte	.LVL307
 15918 070a 0300     		.2byte	0x3
 15919 070c 70       		.byte	0x70
 15920 070d D400     		.sleb128 84
 15921 070f FA010000 		.4byte	.LVL307
 15922 0713 FF010000 		.4byte	.LVL309-1
 15923 0717 0100     		.2byte	0x1
 15924 0719 53       		.byte	0x53
 15925 071a 00000000 		.4byte	0
 15926 071e 00000000 		.4byte	0
 15927              	.LLST132:
 15928 0722 0C000000 		.4byte	.LVL288
 15929 0726 F8010000 		.4byte	.LVL306
 15930 072a 0100     		.2byte	0x1
 15931 072c 50       		.byte	0x50
 15932 072d FA010000 		.4byte	.LVL307
 15933 0731 FC010000 		.4byte	.LVL308
 15934 0735 0100     		.2byte	0x1
 15935 0737 50       		.byte	0x50
 15936 0738 FC010000 		.4byte	.LVL308
 15937 073c 20020000 		.4byte	.LFE345
 15938 0740 0400     		.2byte	0x4
 15939 0742 F3       		.byte	0xf3
 15940 0743 01       		.uleb128 0x1
 15941 0744 50       		.byte	0x50
 15942 0745 9F       		.byte	0x9f
 15943 0746 00000000 		.4byte	0
 15944 074a 00000000 		.4byte	0
 15945              	.LLST133:
 15946 074e 0C000000 		.4byte	.LVL288
 15947 0752 F8010000 		.4byte	.LVL306
 15948 0756 0100     		.2byte	0x1
 15949 0758 50       		.byte	0x50
 15950 0759 FA010000 		.4byte	.LVL307
 15951 075d FC010000 		.4byte	.LVL308
 15952 0761 0100     		.2byte	0x1
ARM GAS  /tmp/ccxvl19p.s 			page 281


 15953 0763 50       		.byte	0x50
 15954 0764 FC010000 		.4byte	.LVL308
 15955 0768 20020000 		.4byte	.LFE345
 15956 076c 0400     		.2byte	0x4
 15957 076e F3       		.byte	0xf3
 15958 076f 01       		.uleb128 0x1
 15959 0770 50       		.byte	0x50
 15960 0771 9F       		.byte	0x9f
 15961 0772 00000000 		.4byte	0
 15962 0776 00000000 		.4byte	0
 15963              	.LLST134:
 15964 077a 0C000000 		.4byte	.LVL288
 15965 077e EC010000 		.4byte	.LVL305
 15966 0782 0300     		.2byte	0x3
 15967 0784 70       		.byte	0x70
 15968 0785 D400     		.sleb128 84
 15969 0787 00000000 		.4byte	0
 15970 078b 00000000 		.4byte	0
 15971              	.LLST135:
 15972 078f 0C000000 		.4byte	.LVL288
 15973 0793 2E000000 		.4byte	.LVL289
 15974 0797 0200     		.2byte	0x2
 15975 0799 30       		.byte	0x30
 15976 079a 9F       		.byte	0x9f
 15977 079b 2E000000 		.4byte	.LVL289
 15978 079f 4E000000 		.4byte	.LVL290
 15979 07a3 0200     		.2byte	0x2
 15980 07a5 31       		.byte	0x31
 15981 07a6 9F       		.byte	0x9f
 15982 07a7 4E000000 		.4byte	.LVL290
 15983 07ab 6C000000 		.4byte	.LVL291
 15984 07af 0200     		.2byte	0x2
 15985 07b1 32       		.byte	0x32
 15986 07b2 9F       		.byte	0x9f
 15987 07b3 6C000000 		.4byte	.LVL291
 15988 07b7 8A000000 		.4byte	.LVL292
 15989 07bb 0200     		.2byte	0x2
 15990 07bd 33       		.byte	0x33
 15991 07be 9F       		.byte	0x9f
 15992 07bf 8A000000 		.4byte	.LVL292
 15993 07c3 A8000000 		.4byte	.LVL293
 15994 07c7 0200     		.2byte	0x2
 15995 07c9 34       		.byte	0x34
 15996 07ca 9F       		.byte	0x9f
 15997 07cb A8000000 		.4byte	.LVL293
 15998 07cf C6000000 		.4byte	.LVL294
 15999 07d3 0200     		.2byte	0x2
 16000 07d5 35       		.byte	0x35
 16001 07d6 9F       		.byte	0x9f
 16002 07d7 C6000000 		.4byte	.LVL294
 16003 07db E4000000 		.4byte	.LVL295
 16004 07df 0200     		.2byte	0x2
 16005 07e1 36       		.byte	0x36
 16006 07e2 9F       		.byte	0x9f
 16007 07e3 E4000000 		.4byte	.LVL295
 16008 07e7 00010000 		.4byte	.LVL296
 16009 07eb 0200     		.2byte	0x2
ARM GAS  /tmp/ccxvl19p.s 			page 282


 16010 07ed 37       		.byte	0x37
 16011 07ee 9F       		.byte	0x9f
 16012 07ef 00010000 		.4byte	.LVL296
 16013 07f3 1C010000 		.4byte	.LVL297
 16014 07f7 0200     		.2byte	0x2
 16015 07f9 38       		.byte	0x38
 16016 07fa 9F       		.byte	0x9f
 16017 07fb 1C010000 		.4byte	.LVL297
 16018 07ff 38010000 		.4byte	.LVL298
 16019 0803 0200     		.2byte	0x2
 16020 0805 39       		.byte	0x39
 16021 0806 9F       		.byte	0x9f
 16022 0807 38010000 		.4byte	.LVL298
 16023 080b 54010000 		.4byte	.LVL299
 16024 080f 0200     		.2byte	0x2
 16025 0811 3A       		.byte	0x3a
 16026 0812 9F       		.byte	0x9f
 16027 0813 54010000 		.4byte	.LVL299
 16028 0817 70010000 		.4byte	.LVL300
 16029 081b 0200     		.2byte	0x2
 16030 081d 3B       		.byte	0x3b
 16031 081e 9F       		.byte	0x9f
 16032 081f 70010000 		.4byte	.LVL300
 16033 0823 8C010000 		.4byte	.LVL301
 16034 0827 0200     		.2byte	0x2
 16035 0829 3C       		.byte	0x3c
 16036 082a 9F       		.byte	0x9f
 16037 082b 8C010000 		.4byte	.LVL301
 16038 082f A8010000 		.4byte	.LVL302
 16039 0833 0200     		.2byte	0x2
 16040 0835 3D       		.byte	0x3d
 16041 0836 9F       		.byte	0x9f
 16042 0837 A8010000 		.4byte	.LVL302
 16043 083b C4010000 		.4byte	.LVL303
 16044 083f 0200     		.2byte	0x2
 16045 0841 3E       		.byte	0x3e
 16046 0842 9F       		.byte	0x9f
 16047 0843 C4010000 		.4byte	.LVL303
 16048 0847 DE010000 		.4byte	.LVL304
 16049 084b 0200     		.2byte	0x2
 16050 084d 3F       		.byte	0x3f
 16051 084e 9F       		.byte	0x9f
 16052 084f 00000000 		.4byte	0
 16053 0853 00000000 		.4byte	0
 16054              	.LLST120:
 16055 0857 00000000 		.4byte	.LVL258
 16056 085b 18000000 		.4byte	.LVL259
 16057 085f 0100     		.2byte	0x1
 16058 0861 50       		.byte	0x50
 16059 0862 18000000 		.4byte	.LVL259
 16060 0866 56020000 		.4byte	.LVL284
 16061 086a 0100     		.2byte	0x1
 16062 086c 56       		.byte	0x56
 16063 086d 56020000 		.4byte	.LVL284
 16064 0871 7E020000 		.4byte	.LVL285
 16065 0875 0100     		.2byte	0x1
 16066 0877 50       		.byte	0x50
ARM GAS  /tmp/ccxvl19p.s 			page 283


 16067 0878 7E020000 		.4byte	.LVL285
 16068 087c AC020000 		.4byte	.LFE344
 16069 0880 0100     		.2byte	0x1
 16070 0882 56       		.byte	0x56
 16071 0883 00000000 		.4byte	0
 16072 0887 00000000 		.4byte	0
 16073              	.LLST121:
 16074 088b 00000000 		.4byte	.LVL258
 16075 088f 18000000 		.4byte	.LVL259
 16076 0893 0300     		.2byte	0x3
 16077 0895 70       		.byte	0x70
 16078 0896 D400     		.sleb128 84
 16079 0898 56020000 		.4byte	.LVL284
 16080 089c 7E020000 		.4byte	.LVL285
 16081 08a0 0300     		.2byte	0x3
 16082 08a2 70       		.byte	0x70
 16083 08a3 D400     		.sleb128 84
 16084 08a5 7E020000 		.4byte	.LVL285
 16085 08a9 83020000 		.4byte	.LVL286-1
 16086 08ad 0300     		.2byte	0x3
 16087 08af 76       		.byte	0x76
 16088 08b0 D400     		.sleb128 84
 16089 08b2 00000000 		.4byte	0
 16090 08b6 00000000 		.4byte	0
 16091              	.LLST122:
 16092 08ba 28000000 		.4byte	.LVL260
 16093 08be 56020000 		.4byte	.LVL284
 16094 08c2 0100     		.2byte	0x1
 16095 08c4 56       		.byte	0x56
 16096 08c5 00000000 		.4byte	0
 16097 08c9 00000000 		.4byte	0
 16098              	.LLST123:
 16099 08cd 28000000 		.4byte	.LVL260
 16100 08d1 37000000 		.4byte	.LVL262-1
 16101 08d5 0300     		.2byte	0x3
 16102 08d7 76       		.byte	0x76
 16103 08d8 D400     		.sleb128 84
 16104 08da 00000000 		.4byte	0
 16105 08de 00000000 		.4byte	0
 16106              	.LLST124:
 16107 08e2 32000000 		.4byte	.LVL261
 16108 08e6 56020000 		.4byte	.LVL284
 16109 08ea 0200     		.2byte	0x2
 16110 08ec 3C       		.byte	0x3c
 16111 08ed 9F       		.byte	0x9f
 16112 08ee 00000000 		.4byte	0
 16113 08f2 00000000 		.4byte	0
 16114              	.LLST125:
 16115 08f6 3E000000 		.4byte	.LVL263
 16116 08fa 56020000 		.4byte	.LVL284
 16117 08fe 0200     		.2byte	0x2
 16118 0900 42       		.byte	0x42
 16119 0901 9F       		.byte	0x9f
 16120 0902 00000000 		.4byte	0
 16121 0906 00000000 		.4byte	0
 16122              	.LLST126:
 16123 090a 4E000000 		.4byte	.LVL265
ARM GAS  /tmp/ccxvl19p.s 			page 284


 16124 090e 56020000 		.4byte	.LVL284
 16125 0912 0100     		.2byte	0x1
 16126 0914 56       		.byte	0x56
 16127 0915 00000000 		.4byte	0
 16128 0919 00000000 		.4byte	0
 16129              	.LLST128:
 16130 091d 4E000000 		.4byte	.LVL265
 16131 0921 2E020000 		.4byte	.LVL282
 16132 0925 0100     		.2byte	0x1
 16133 0927 53       		.byte	0x53
 16134 0928 00000000 		.4byte	0
 16135 092c 00000000 		.4byte	0
 16136              	.LLST129:
 16137 0930 4E000000 		.4byte	.LVL265
 16138 0934 70000000 		.4byte	.LVL266
 16139 0938 0200     		.2byte	0x2
 16140 093a 30       		.byte	0x30
 16141 093b 9F       		.byte	0x9f
 16142 093c 70000000 		.4byte	.LVL266
 16143 0940 90000000 		.4byte	.LVL267
 16144 0944 0200     		.2byte	0x2
 16145 0946 31       		.byte	0x31
 16146 0947 9F       		.byte	0x9f
 16147 0948 90000000 		.4byte	.LVL267
 16148 094c AE000000 		.4byte	.LVL268
 16149 0950 0200     		.2byte	0x2
 16150 0952 32       		.byte	0x32
 16151 0953 9F       		.byte	0x9f
 16152 0954 AE000000 		.4byte	.LVL268
 16153 0958 CC000000 		.4byte	.LVL269
 16154 095c 0200     		.2byte	0x2
 16155 095e 33       		.byte	0x33
 16156 095f 9F       		.byte	0x9f
 16157 0960 CC000000 		.4byte	.LVL269
 16158 0964 EA000000 		.4byte	.LVL270
 16159 0968 0200     		.2byte	0x2
 16160 096a 34       		.byte	0x34
 16161 096b 9F       		.byte	0x9f
 16162 096c EA000000 		.4byte	.LVL270
 16163 0970 08010000 		.4byte	.LVL271
 16164 0974 0200     		.2byte	0x2
 16165 0976 35       		.byte	0x35
 16166 0977 9F       		.byte	0x9f
 16167 0978 08010000 		.4byte	.LVL271
 16168 097c 26010000 		.4byte	.LVL272
 16169 0980 0200     		.2byte	0x2
 16170 0982 36       		.byte	0x36
 16171 0983 9F       		.byte	0x9f
 16172 0984 26010000 		.4byte	.LVL272
 16173 0988 42010000 		.4byte	.LVL273
 16174 098c 0200     		.2byte	0x2
 16175 098e 37       		.byte	0x37
 16176 098f 9F       		.byte	0x9f
 16177 0990 42010000 		.4byte	.LVL273
 16178 0994 5E010000 		.4byte	.LVL274
 16179 0998 0200     		.2byte	0x2
 16180 099a 38       		.byte	0x38
ARM GAS  /tmp/ccxvl19p.s 			page 285


 16181 099b 9F       		.byte	0x9f
 16182 099c 5E010000 		.4byte	.LVL274
 16183 09a0 7A010000 		.4byte	.LVL275
 16184 09a4 0200     		.2byte	0x2
 16185 09a6 39       		.byte	0x39
 16186 09a7 9F       		.byte	0x9f
 16187 09a8 7A010000 		.4byte	.LVL275
 16188 09ac 96010000 		.4byte	.LVL276
 16189 09b0 0200     		.2byte	0x2
 16190 09b2 3A       		.byte	0x3a
 16191 09b3 9F       		.byte	0x9f
 16192 09b4 96010000 		.4byte	.LVL276
 16193 09b8 B2010000 		.4byte	.LVL277
 16194 09bc 0200     		.2byte	0x2
 16195 09be 3B       		.byte	0x3b
 16196 09bf 9F       		.byte	0x9f
 16197 09c0 B2010000 		.4byte	.LVL277
 16198 09c4 CE010000 		.4byte	.LVL278
 16199 09c8 0200     		.2byte	0x2
 16200 09ca 3C       		.byte	0x3c
 16201 09cb 9F       		.byte	0x9f
 16202 09cc CE010000 		.4byte	.LVL278
 16203 09d0 EA010000 		.4byte	.LVL279
 16204 09d4 0200     		.2byte	0x2
 16205 09d6 3D       		.byte	0x3d
 16206 09d7 9F       		.byte	0x9f
 16207 09d8 EA010000 		.4byte	.LVL279
 16208 09dc 06020000 		.4byte	.LVL280
 16209 09e0 0200     		.2byte	0x2
 16210 09e2 3E       		.byte	0x3e
 16211 09e3 9F       		.byte	0x9f
 16212 09e4 06020000 		.4byte	.LVL280
 16213 09e8 20020000 		.4byte	.LVL281
 16214 09ec 0200     		.2byte	0x2
 16215 09ee 3F       		.byte	0x3f
 16216 09ef 9F       		.byte	0x9f
 16217 09f0 00000000 		.4byte	0
 16218 09f4 00000000 		.4byte	0
 16219              	.LLST0:
 16220 09f8 00000000 		.4byte	.LVL0
 16221 09fc BA000000 		.4byte	.LVL8
 16222 0a00 0600     		.2byte	0x6
 16223 0a02 03       		.byte	0x3
 16224 0a03 00000000 		.4byte	USBD1
 16225 0a07 9F       		.byte	0x9f
 16226 0a08 C4000000 		.4byte	.LVL9
 16227 0a0c E6020000 		.4byte	.LVL51
 16228 0a10 0600     		.2byte	0x6
 16229 0a12 03       		.byte	0x3
 16230 0a13 00000000 		.4byte	USBD1
 16231 0a17 9F       		.byte	0x9f
 16232 0a18 F4020000 		.4byte	.LVL53
 16233 0a1c E80A0000 		.4byte	.LFE342
 16234 0a20 0600     		.2byte	0x6
 16235 0a22 03       		.byte	0x3
 16236 0a23 00000000 		.4byte	USBD1
 16237 0a27 9F       		.byte	0x9f
ARM GAS  /tmp/ccxvl19p.s 			page 286


 16238 0a28 00000000 		.4byte	0
 16239 0a2c 00000000 		.4byte	0
 16240              	.LLST1:
 16241 0a30 0A000000 		.4byte	.LVL1
 16242 0a34 74000000 		.4byte	.LVL5
 16243 0a38 0100     		.2byte	0x1
 16244 0a3a 5A       		.byte	0x5a
 16245 0a3b C4000000 		.4byte	.LVL9
 16246 0a3f F2000000 		.4byte	.LVL11
 16247 0a43 0100     		.2byte	0x1
 16248 0a45 5A       		.byte	0x5a
 16249 0a46 60010000 		.4byte	.LVL24
 16250 0a4a 6E010000 		.4byte	.LVL26
 16251 0a4e 0100     		.2byte	0x1
 16252 0a50 5A       		.byte	0x5a
 16253 0a51 6E010000 		.4byte	.LVL26
 16254 0a55 78020000 		.4byte	.LVL41
 16255 0a59 0200     		.2byte	0x2
 16256 0a5b 7D       		.byte	0x7d
 16257 0a5c 00       		.sleb128 0
 16258 0a5d 78020000 		.4byte	.LVL41
 16259 0a61 88020000 		.4byte	.LVL43
 16260 0a65 0100     		.2byte	0x1
 16261 0a67 5A       		.byte	0x5a
 16262 0a68 E0020000 		.4byte	.LVL50
 16263 0a6c E6020000 		.4byte	.LVL51
 16264 0a70 0100     		.2byte	0x1
 16265 0a72 5A       		.byte	0x5a
 16266 0a73 52040000 		.4byte	.LVL92
 16267 0a77 60040000 		.4byte	.LVL93
 16268 0a7b 0200     		.2byte	0x2
 16269 0a7d 7D       		.byte	0x7d
 16270 0a7e 00       		.sleb128 0
 16271 0a7f EE070000 		.4byte	.LVL182
 16272 0a83 06080000 		.4byte	.LVL184
 16273 0a87 0200     		.2byte	0x2
 16274 0a89 7D       		.byte	0x7d
 16275 0a8a 00       		.sleb128 0
 16276 0a8b 00000000 		.4byte	0
 16277 0a8f 00000000 		.4byte	0
 16278              	.LLST2:
 16279 0a93 0E000000 		.4byte	.LVL2
 16280 0a97 16000000 		.4byte	.LVL3
 16281 0a9b 0100     		.2byte	0x1
 16282 0a9d 52       		.byte	0x52
 16283 0a9e 16000000 		.4byte	.LVL3
 16284 0aa2 74000000 		.4byte	.LVL5
 16285 0aa6 0100     		.2byte	0x1
 16286 0aa8 5B       		.byte	0x5b
 16287 0aa9 C4000000 		.4byte	.LVL9
 16288 0aad F2000000 		.4byte	.LVL11
 16289 0ab1 0100     		.2byte	0x1
 16290 0ab3 5B       		.byte	0x5b
 16291 0ab4 60010000 		.4byte	.LVL24
 16292 0ab8 6E010000 		.4byte	.LVL26
 16293 0abc 0100     		.2byte	0x1
 16294 0abe 5B       		.byte	0x5b
ARM GAS  /tmp/ccxvl19p.s 			page 287


 16295 0abf 6E010000 		.4byte	.LVL26
 16296 0ac3 78020000 		.4byte	.LVL41
 16297 0ac7 0200     		.2byte	0x2
 16298 0ac9 91       		.byte	0x91
 16299 0aca 4C       		.sleb128 -52
 16300 0acb 78020000 		.4byte	.LVL41
 16301 0acf 88020000 		.4byte	.LVL43
 16302 0ad3 0100     		.2byte	0x1
 16303 0ad5 5B       		.byte	0x5b
 16304 0ad6 E0020000 		.4byte	.LVL50
 16305 0ada E6020000 		.4byte	.LVL51
 16306 0ade 0100     		.2byte	0x1
 16307 0ae0 5B       		.byte	0x5b
 16308 0ae1 52040000 		.4byte	.LVL92
 16309 0ae5 60040000 		.4byte	.LVL93
 16310 0ae9 0200     		.2byte	0x2
 16311 0aeb 91       		.byte	0x91
 16312 0aec 4C       		.sleb128 -52
 16313 0aed EE070000 		.4byte	.LVL182
 16314 0af1 06080000 		.4byte	.LVL184
 16315 0af5 0200     		.2byte	0x2
 16316 0af7 91       		.byte	0x91
 16317 0af8 4C       		.sleb128 -52
 16318 0af9 00000000 		.4byte	0
 16319 0afd 00000000 		.4byte	0
 16320              	.LLST3:
 16321 0b01 82000000 		.4byte	.LVL6
 16322 0b05 B6000000 		.4byte	.LVL7
 16323 0b09 0100     		.2byte	0x1
 16324 0b0b 55       		.byte	0x55
 16325 0b0c B2030000 		.4byte	.LVL70
 16326 0b10 FC030000 		.4byte	.LVL78
 16327 0b14 0100     		.2byte	0x1
 16328 0b16 55       		.byte	0x55
 16329 0b17 60040000 		.4byte	.LVL93
 16330 0b1b E0040000 		.4byte	.LVL104
 16331 0b1f 0100     		.2byte	0x1
 16332 0b21 55       		.byte	0x55
 16333 0b22 E0040000 		.4byte	.LVL104
 16334 0b26 26050000 		.4byte	.LVL110
 16335 0b2a 0100     		.2byte	0x1
 16336 0b2c 5A       		.byte	0x5a
 16337 0b2d 26050000 		.4byte	.LVL110
 16338 0b31 A6050000 		.4byte	.LVL121
 16339 0b35 0100     		.2byte	0x1
 16340 0b37 55       		.byte	0x55
 16341 0b38 A6050000 		.4byte	.LVL121
 16342 0b3c F0050000 		.4byte	.LVL127
 16343 0b40 0100     		.2byte	0x1
 16344 0b42 5A       		.byte	0x5a
 16345 0b43 F0050000 		.4byte	.LVL127
 16346 0b47 70060000 		.4byte	.LVL138
 16347 0b4b 0100     		.2byte	0x1
 16348 0b4d 55       		.byte	0x55
 16349 0b4e 70060000 		.4byte	.LVL138
 16350 0b52 B6060000 		.4byte	.LVL144
 16351 0b56 0100     		.2byte	0x1
ARM GAS  /tmp/ccxvl19p.s 			page 288


 16352 0b58 5A       		.byte	0x5a
 16353 0b59 B6060000 		.4byte	.LVL144
 16354 0b5d AE070000 		.4byte	.LVL169
 16355 0b61 0100     		.2byte	0x1
 16356 0b63 55       		.byte	0x55
 16357 0b64 14080000 		.4byte	.LVL185
 16358 0b68 16080000 		.4byte	.LVL186
 16359 0b6c 0100     		.2byte	0x1
 16360 0b6e 5A       		.byte	0x5a
 16361 0b6f 16080000 		.4byte	.LVL186
 16362 0b73 24080000 		.4byte	.LVL187
 16363 0b77 0100     		.2byte	0x1
 16364 0b79 55       		.byte	0x55
 16365 0b7a 24080000 		.4byte	.LVL187
 16366 0b7e 26080000 		.4byte	.LVL188
 16367 0b82 0100     		.2byte	0x1
 16368 0b84 5A       		.byte	0x5a
 16369 0b85 26080000 		.4byte	.LVL188
 16370 0b89 34080000 		.4byte	.LVL189
 16371 0b8d 0100     		.2byte	0x1
 16372 0b8f 55       		.byte	0x55
 16373 0b90 34080000 		.4byte	.LVL189
 16374 0b94 36080000 		.4byte	.LVL190
 16375 0b98 0100     		.2byte	0x1
 16376 0b9a 5A       		.byte	0x5a
 16377 0b9b 36080000 		.4byte	.LVL190
 16378 0b9f 44080000 		.4byte	.LVL191
 16379 0ba3 0100     		.2byte	0x1
 16380 0ba5 55       		.byte	0x55
 16381 0ba6 AE080000 		.4byte	.LVL199
 16382 0baa EA090000 		.4byte	.LVL223
 16383 0bae 0100     		.2byte	0x1
 16384 0bb0 55       		.byte	0x55
 16385 0bb1 040A0000 		.4byte	.LVL228
 16386 0bb5 E80A0000 		.4byte	.LFE342
 16387 0bb9 0100     		.2byte	0x1
 16388 0bbb 55       		.byte	0x55
 16389 0bbc 00000000 		.4byte	0
 16390 0bc0 00000000 		.4byte	0
 16391              	.LLST4:
 16392 0bc4 F2000000 		.4byte	.LVL11
 16393 0bc8 60010000 		.4byte	.LVL24
 16394 0bcc 0600     		.2byte	0x6
 16395 0bce 03       		.byte	0x3
 16396 0bcf 00000000 		.4byte	USBD1
 16397 0bd3 9F       		.byte	0x9f
 16398 0bd4 FC030000 		.4byte	.LVL78
 16399 0bd8 52040000 		.4byte	.LVL92
 16400 0bdc 0600     		.2byte	0x6
 16401 0bde 03       		.byte	0x3
 16402 0bdf 00000000 		.4byte	USBD1
 16403 0be3 9F       		.byte	0x9f
 16404 0be4 AE070000 		.4byte	.LVL169
 16405 0be8 EE070000 		.4byte	.LVL182
 16406 0bec 0600     		.2byte	0x6
 16407 0bee 03       		.byte	0x3
 16408 0bef 00000000 		.4byte	USBD1
ARM GAS  /tmp/ccxvl19p.s 			page 289


 16409 0bf3 9F       		.byte	0x9f
 16410 0bf4 00000000 		.4byte	0
 16411 0bf8 00000000 		.4byte	0
 16412              	.LLST5:
 16413 0bfc F6000000 		.4byte	.LVL12
 16414 0c00 06010000 		.4byte	.LVL14
 16415 0c04 0100     		.2byte	0x1
 16416 0c06 53       		.byte	0x53
 16417 0c07 00000000 		.4byte	0
 16418 0c0b 00000000 		.4byte	0
 16419              	.LLST6:
 16420 0c0f 02010000 		.4byte	.LVL13
 16421 0c13 60010000 		.4byte	.LVL24
 16422 0c17 0100     		.2byte	0x1
 16423 0c19 52       		.byte	0x52
 16424 0c1a FC030000 		.4byte	.LVL78
 16425 0c1e 3A040000 		.4byte	.LVL87
 16426 0c22 0100     		.2byte	0x1
 16427 0c24 52       		.byte	0x52
 16428 0c25 40040000 		.4byte	.LVL88
 16429 0c29 52040000 		.4byte	.LVL92
 16430 0c2d 0100     		.2byte	0x1
 16431 0c2f 52       		.byte	0x52
 16432 0c30 AE070000 		.4byte	.LVL169
 16433 0c34 EE070000 		.4byte	.LVL182
 16434 0c38 0100     		.2byte	0x1
 16435 0c3a 52       		.byte	0x52
 16436 0c3b 00000000 		.4byte	0
 16437 0c3f 00000000 		.4byte	0
 16438              	.LLST7:
 16439 0c43 06010000 		.4byte	.LVL14
 16440 0c47 14010000 		.4byte	.LVL15
 16441 0c4b 0100     		.2byte	0x1
 16442 0c4d 53       		.byte	0x53
 16443 0c4e FC030000 		.4byte	.LVL78
 16444 0c52 02040000 		.4byte	.LVL79
 16445 0c56 0100     		.2byte	0x1
 16446 0c58 53       		.byte	0x53
 16447 0c59 02040000 		.4byte	.LVL79
 16448 0c5d 40040000 		.4byte	.LVL88
 16449 0c61 0300     		.2byte	0x3
 16450 0c63 70       		.byte	0x70
 16451 0c64 7E       		.sleb128 -2
 16452 0c65 9F       		.byte	0x9f
 16453 0c66 AE070000 		.4byte	.LVL169
 16454 0c6a EE070000 		.4byte	.LVL182
 16455 0c6e 0300     		.2byte	0x3
 16456 0c70 70       		.byte	0x70
 16457 0c71 7E       		.sleb128 -2
 16458 0c72 9F       		.byte	0x9f
 16459 0c73 00000000 		.4byte	0
 16460 0c77 00000000 		.4byte	0
 16461              	.LLST8:
 16462 0c7b 18010000 		.4byte	.LVL16
 16463 0c7f 60010000 		.4byte	.LVL24
 16464 0c83 0200     		.2byte	0x2
 16465 0c85 38       		.byte	0x38
ARM GAS  /tmp/ccxvl19p.s 			page 290


 16466 0c86 9F       		.byte	0x9f
 16467 0c87 40040000 		.4byte	.LVL88
 16468 0c8b 52040000 		.4byte	.LVL92
 16469 0c8f 0200     		.2byte	0x2
 16470 0c91 38       		.byte	0x38
 16471 0c92 9F       		.byte	0x9f
 16472 0c93 00000000 		.4byte	0
 16473 0c97 00000000 		.4byte	0
 16474              	.LLST9:
 16475 0c9b 18010000 		.4byte	.LVL16
 16476 0c9f 60010000 		.4byte	.LVL24
 16477 0ca3 0100     		.2byte	0x1
 16478 0ca5 52       		.byte	0x52
 16479 0ca6 40040000 		.4byte	.LVL88
 16480 0caa 52040000 		.4byte	.LVL92
 16481 0cae 0100     		.2byte	0x1
 16482 0cb0 52       		.byte	0x52
 16483 0cb1 00000000 		.4byte	0
 16484 0cb5 00000000 		.4byte	0
 16485              	.LLST10:
 16486 0cb9 18010000 		.4byte	.LVL16
 16487 0cbd 3C010000 		.4byte	.LVL19
 16488 0cc1 0100     		.2byte	0x1
 16489 0cc3 56       		.byte	0x56
 16490 0cc4 3C010000 		.4byte	.LVL19
 16491 0cc8 44010000 		.4byte	.LVL21
 16492 0ccc 0300     		.2byte	0x3
 16493 0cce 76       		.byte	0x76
 16494 0ccf 7F       		.sleb128 -1
 16495 0cd0 9F       		.byte	0x9f
 16496 0cd1 44010000 		.4byte	.LVL21
 16497 0cd5 4E010000 		.4byte	.LVL22
 16498 0cd9 0100     		.2byte	0x1
 16499 0cdb 56       		.byte	0x56
 16500 0cdc 40040000 		.4byte	.LVL88
 16501 0ce0 48040000 		.4byte	.LVL90
 16502 0ce4 0100     		.2byte	0x1
 16503 0ce6 56       		.byte	0x56
 16504 0ce7 48040000 		.4byte	.LVL90
 16505 0ceb 4C040000 		.4byte	.LVL91
 16506 0cef 0300     		.2byte	0x3
 16507 0cf1 76       		.byte	0x76
 16508 0cf2 7F       		.sleb128 -1
 16509 0cf3 9F       		.byte	0x9f
 16510 0cf4 4C040000 		.4byte	.LVL91
 16511 0cf8 52040000 		.4byte	.LVL92
 16512 0cfc 0100     		.2byte	0x1
 16513 0cfe 56       		.byte	0x56
 16514 0cff 00000000 		.4byte	0
 16515 0d03 00000000 		.4byte	0
 16516              	.LLST11:
 16517 0d07 18010000 		.4byte	.LVL16
 16518 0d0b 2E010000 		.4byte	.LVL17
 16519 0d0f 0400     		.2byte	0x4
 16520 0d11 75       		.byte	0x75
 16521 0d12 8020     		.sleb128 4096
 16522 0d14 9F       		.byte	0x9f
ARM GAS  /tmp/ccxvl19p.s 			page 291


 16523 0d15 2E010000 		.4byte	.LVL17
 16524 0d19 60010000 		.4byte	.LVL24
 16525 0d1d 0100     		.2byte	0x1
 16526 0d1f 57       		.byte	0x57
 16527 0d20 40040000 		.4byte	.LVL88
 16528 0d24 52040000 		.4byte	.LVL92
 16529 0d28 0100     		.2byte	0x1
 16530 0d2a 57       		.byte	0x57
 16531 0d2b 00000000 		.4byte	0
 16532 0d2f 00000000 		.4byte	0
 16533              	.LLST12:
 16534 0d33 18010000 		.4byte	.LVL16
 16535 0d37 2E010000 		.4byte	.LVL17
 16536 0d3b 0200     		.2byte	0x2
 16537 0d3d 30       		.byte	0x30
 16538 0d3e 9F       		.byte	0x9f
 16539 0d3f 38010000 		.4byte	.LVL18
 16540 0d43 4E010000 		.4byte	.LVL22
 16541 0d47 0100     		.2byte	0x1
 16542 0d49 50       		.byte	0x50
 16543 0d4a 48040000 		.4byte	.LVL90
 16544 0d4e 4C040000 		.4byte	.LVL91
 16545 0d52 0500     		.2byte	0x5
 16546 0d54 70       		.byte	0x70
 16547 0d55 00       		.sleb128 0
 16548 0d56 38       		.byte	0x38
 16549 0d57 25       		.byte	0x25
 16550 0d58 9F       		.byte	0x9f
 16551 0d59 4C040000 		.4byte	.LVL91
 16552 0d5d 52040000 		.4byte	.LVL92
 16553 0d61 0100     		.2byte	0x1
 16554 0d63 50       		.byte	0x50
 16555 0d64 00000000 		.4byte	0
 16556 0d68 00000000 		.4byte	0
 16557              	.LLST13:
 16558 0d6c 18010000 		.4byte	.LVL16
 16559 0d70 2E010000 		.4byte	.LVL17
 16560 0d74 0200     		.2byte	0x2
 16561 0d76 30       		.byte	0x30
 16562 0d77 9F       		.byte	0x9f
 16563 0d78 2E010000 		.4byte	.LVL17
 16564 0d7c 3E010000 		.4byte	.LVL20
 16565 0d80 0100     		.2byte	0x1
 16566 0d82 51       		.byte	0x51
 16567 0d83 3E010000 		.4byte	.LVL20
 16568 0d87 44010000 		.4byte	.LVL21
 16569 0d8b 0300     		.2byte	0x3
 16570 0d8d 71       		.byte	0x71
 16571 0d8e 7F       		.sleb128 -1
 16572 0d8f 9F       		.byte	0x9f
 16573 0d90 44010000 		.4byte	.LVL21
 16574 0d94 4E010000 		.4byte	.LVL22
 16575 0d98 0100     		.2byte	0x1
 16576 0d9a 51       		.byte	0x51
 16577 0d9b 4E010000 		.4byte	.LVL22
 16578 0d9f 60010000 		.4byte	.LVL24
 16579 0da3 0100     		.2byte	0x1
ARM GAS  /tmp/ccxvl19p.s 			page 292


 16580 0da5 53       		.byte	0x53
 16581 0da6 40040000 		.4byte	.LVL88
 16582 0daa 42040000 		.4byte	.LVL89
 16583 0dae 0100     		.2byte	0x1
 16584 0db0 51       		.byte	0x51
 16585 0db1 42040000 		.4byte	.LVL89
 16586 0db5 4C040000 		.4byte	.LVL91
 16587 0db9 0300     		.2byte	0x3
 16588 0dbb 71       		.byte	0x71
 16589 0dbc 7F       		.sleb128 -1
 16590 0dbd 9F       		.byte	0x9f
 16591 0dbe 4C040000 		.4byte	.LVL91
 16592 0dc2 52040000 		.4byte	.LVL92
 16593 0dc6 0100     		.2byte	0x1
 16594 0dc8 51       		.byte	0x51
 16595 0dc9 00000000 		.4byte	0
 16596 0dcd 00000000 		.4byte	0
 16597              	.LLST14:
 16598 0dd1 0E040000 		.4byte	.LVL80
 16599 0dd5 16040000 		.4byte	.LVL81
 16600 0dd9 0100     		.2byte	0x1
 16601 0ddb 53       		.byte	0x53
 16602 0ddc AE070000 		.4byte	.LVL169
 16603 0de0 B4070000 		.4byte	.LVL170
 16604 0de4 0100     		.2byte	0x1
 16605 0de6 53       		.byte	0x53
 16606 0de7 B4070000 		.4byte	.LVL170
 16607 0deb B6070000 		.4byte	.LVL171
 16608 0def 0700     		.2byte	0x7
 16609 0df1 71       		.byte	0x71
 16610 0df2 00       		.sleb128 0
 16611 0df3 06       		.byte	0x6
 16612 0df4 77       		.byte	0x77
 16613 0df5 00       		.sleb128 0
 16614 0df6 1C       		.byte	0x1c
 16615 0df7 9F       		.byte	0x9f
 16616 0df8 B6070000 		.4byte	.LVL171
 16617 0dfc BA070000 		.4byte	.LVL172
 16618 0e00 0800     		.2byte	0x8
 16619 0e02 71       		.byte	0x71
 16620 0e03 00       		.sleb128 0
 16621 0e04 06       		.byte	0x6
 16622 0e05 71       		.byte	0x71
 16623 0e06 04       		.sleb128 4
 16624 0e07 06       		.byte	0x6
 16625 0e08 1C       		.byte	0x1c
 16626 0e09 9F       		.byte	0x9f
 16627 0e0a BA070000 		.4byte	.LVL172
 16628 0e0e BE070000 		.4byte	.LVL173
 16629 0e12 2000     		.2byte	0x20
 16630 0e14 70       		.byte	0x70
 16631 0e15 00       		.sleb128 0
 16632 0e16 32       		.byte	0x32
 16633 0e17 24       		.byte	0x24
 16634 0e18 74       		.byte	0x74
 16635 0e19 00       		.sleb128 0
 16636 0e1a 22       		.byte	0x22
ARM GAS  /tmp/ccxvl19p.s 			page 293


 16637 0e1b 23       		.byte	0x23
 16638 0e1c 04       		.uleb128 0x4
 16639 0e1d 06       		.byte	0x6
 16640 0e1e 23       		.byte	0x23
 16641 0e1f 18       		.uleb128 0x18
 16642 0e20 06       		.byte	0x6
 16643 0e21 06       		.byte	0x6
 16644 0e22 70       		.byte	0x70
 16645 0e23 00       		.sleb128 0
 16646 0e24 32       		.byte	0x32
 16647 0e25 24       		.byte	0x24
 16648 0e26 74       		.byte	0x74
 16649 0e27 00       		.sleb128 0
 16650 0e28 22       		.byte	0x22
 16651 0e29 23       		.byte	0x23
 16652 0e2a 04       		.uleb128 0x4
 16653 0e2b 06       		.byte	0x6
 16654 0e2c 23       		.byte	0x23
 16655 0e2d 18       		.uleb128 0x18
 16656 0e2e 06       		.byte	0x6
 16657 0e2f 23       		.byte	0x23
 16658 0e30 04       		.uleb128 0x4
 16659 0e31 06       		.byte	0x6
 16660 0e32 1C       		.byte	0x1c
 16661 0e33 9F       		.byte	0x9f
 16662 0e34 00000000 		.4byte	0
 16663 0e38 00000000 		.4byte	0
 16664              	.LLST15:
 16665 0e3c 0E040000 		.4byte	.LVL80
 16666 0e40 36040000 		.4byte	.LVL86
 16667 0e44 0100     		.2byte	0x1
 16668 0e46 52       		.byte	0x52
 16669 0e47 AE070000 		.4byte	.LVL169
 16670 0e4b EE070000 		.4byte	.LVL182
 16671 0e4f 0100     		.2byte	0x1
 16672 0e51 52       		.byte	0x52
 16673 0e52 00000000 		.4byte	0
 16674 0e56 00000000 		.4byte	0
 16675              	.LLST16:
 16676 0e5a 0E040000 		.4byte	.LVL80
 16677 0e5e 1A040000 		.4byte	.LVL82
 16678 0e62 0100     		.2byte	0x1
 16679 0e64 56       		.byte	0x56
 16680 0e65 AE070000 		.4byte	.LVL169
 16681 0e69 CC070000 		.4byte	.LVL175
 16682 0e6d 0100     		.2byte	0x1
 16683 0e6f 56       		.byte	0x56
 16684 0e70 CC070000 		.4byte	.LVL175
 16685 0e74 D4070000 		.4byte	.LVL177
 16686 0e78 0300     		.2byte	0x3
 16687 0e7a 76       		.byte	0x76
 16688 0e7b 7F       		.sleb128 -1
 16689 0e7c 9F       		.byte	0x9f
 16690 0e7d D4070000 		.4byte	.LVL177
 16691 0e81 E6070000 		.4byte	.LVL180
 16692 0e85 0100     		.2byte	0x1
 16693 0e87 56       		.byte	0x56
ARM GAS  /tmp/ccxvl19p.s 			page 294


 16694 0e88 E6070000 		.4byte	.LVL180
 16695 0e8c EA070000 		.4byte	.LVL181
 16696 0e90 0300     		.2byte	0x3
 16697 0e92 76       		.byte	0x76
 16698 0e93 7F       		.sleb128 -1
 16699 0e94 9F       		.byte	0x9f
 16700 0e95 EA070000 		.4byte	.LVL181
 16701 0e99 EE070000 		.4byte	.LVL182
 16702 0e9d 0100     		.2byte	0x1
 16703 0e9f 56       		.byte	0x56
 16704 0ea0 00000000 		.4byte	0
 16705 0ea4 00000000 		.4byte	0
 16706              	.LLST17:
 16707 0ea8 0E040000 		.4byte	.LVL80
 16708 0eac 1A040000 		.4byte	.LVL82
 16709 0eb0 0400     		.2byte	0x4
 16710 0eb2 75       		.byte	0x75
 16711 0eb3 8020     		.sleb128 4096
 16712 0eb5 9F       		.byte	0x9f
 16713 0eb6 1A040000 		.4byte	.LVL82
 16714 0eba 2A040000 		.4byte	.LVL84
 16715 0ebe 0100     		.2byte	0x1
 16716 0ec0 55       		.byte	0x55
 16717 0ec1 AE070000 		.4byte	.LVL169
 16718 0ec5 EE070000 		.4byte	.LVL182
 16719 0ec9 0400     		.2byte	0x4
 16720 0ecb 75       		.byte	0x75
 16721 0ecc 8020     		.sleb128 4096
 16722 0ece 9F       		.byte	0x9f
 16723 0ecf 00000000 		.4byte	0
 16724 0ed3 00000000 		.4byte	0
 16725              	.LLST18:
 16726 0ed7 0E040000 		.4byte	.LVL80
 16727 0edb 16040000 		.4byte	.LVL81
 16728 0edf 0200     		.2byte	0x2
 16729 0ee1 30       		.byte	0x30
 16730 0ee2 9F       		.byte	0x9f
 16731 0ee3 AE070000 		.4byte	.LVL169
 16732 0ee7 BE070000 		.4byte	.LVL173
 16733 0eeb 0200     		.2byte	0x2
 16734 0eed 30       		.byte	0x30
 16735 0eee 9F       		.byte	0x9f
 16736 0eef C8070000 		.4byte	.LVL174
 16737 0ef3 DE070000 		.4byte	.LVL178
 16738 0ef7 0100     		.2byte	0x1
 16739 0ef9 51       		.byte	0x51
 16740 0efa E6070000 		.4byte	.LVL180
 16741 0efe EA070000 		.4byte	.LVL181
 16742 0f02 0500     		.2byte	0x5
 16743 0f04 71       		.byte	0x71
 16744 0f05 00       		.sleb128 0
 16745 0f06 38       		.byte	0x38
 16746 0f07 25       		.byte	0x25
 16747 0f08 9F       		.byte	0x9f
 16748 0f09 EA070000 		.4byte	.LVL181
 16749 0f0d EE070000 		.4byte	.LVL182
 16750 0f11 0100     		.2byte	0x1
ARM GAS  /tmp/ccxvl19p.s 			page 295


 16751 0f13 51       		.byte	0x51
 16752 0f14 00000000 		.4byte	0
 16753 0f18 00000000 		.4byte	0
 16754              	.LLST19:
 16755 0f1c 0E040000 		.4byte	.LVL80
 16756 0f20 16040000 		.4byte	.LVL81
 16757 0f24 0200     		.2byte	0x2
 16758 0f26 30       		.byte	0x30
 16759 0f27 9F       		.byte	0x9f
 16760 0f28 1A040000 		.4byte	.LVL82
 16761 0f2c 2E040000 		.4byte	.LVL85
 16762 0f30 0100     		.2byte	0x1
 16763 0f32 53       		.byte	0x53
 16764 0f33 AE070000 		.4byte	.LVL169
 16765 0f37 BE070000 		.4byte	.LVL173
 16766 0f3b 0200     		.2byte	0x2
 16767 0f3d 30       		.byte	0x30
 16768 0f3e 9F       		.byte	0x9f
 16769 0f3f BE070000 		.4byte	.LVL173
 16770 0f43 CE070000 		.4byte	.LVL176
 16771 0f47 0100     		.2byte	0x1
 16772 0f49 53       		.byte	0x53
 16773 0f4a CE070000 		.4byte	.LVL176
 16774 0f4e D4070000 		.4byte	.LVL177
 16775 0f52 0300     		.2byte	0x3
 16776 0f54 73       		.byte	0x73
 16777 0f55 7F       		.sleb128 -1
 16778 0f56 9F       		.byte	0x9f
 16779 0f57 D4070000 		.4byte	.LVL177
 16780 0f5b E0070000 		.4byte	.LVL179
 16781 0f5f 0100     		.2byte	0x1
 16782 0f61 53       		.byte	0x53
 16783 0f62 E0070000 		.4byte	.LVL179
 16784 0f66 EA070000 		.4byte	.LVL181
 16785 0f6a 0300     		.2byte	0x3
 16786 0f6c 73       		.byte	0x73
 16787 0f6d 7F       		.sleb128 -1
 16788 0f6e 9F       		.byte	0x9f
 16789 0f6f EA070000 		.4byte	.LVL181
 16790 0f73 EE070000 		.4byte	.LVL182
 16791 0f77 0100     		.2byte	0x1
 16792 0f79 53       		.byte	0x53
 16793 0f7a 00000000 		.4byte	0
 16794 0f7e 00000000 		.4byte	0
 16795              	.LLST20:
 16796 0f82 60010000 		.4byte	.LVL24
 16797 0f86 78020000 		.4byte	.LVL41
 16798 0f8a 0600     		.2byte	0x6
 16799 0f8c 03       		.byte	0x3
 16800 0f8d 00000000 		.4byte	USBD1
 16801 0f91 9F       		.byte	0x9f
 16802 0f92 52040000 		.4byte	.LVL92
 16803 0f96 60040000 		.4byte	.LVL93
 16804 0f9a 0600     		.2byte	0x6
 16805 0f9c 03       		.byte	0x3
 16806 0f9d 00000000 		.4byte	USBD1
 16807 0fa1 9F       		.byte	0x9f
ARM GAS  /tmp/ccxvl19p.s 			page 296


 16808 0fa2 EE070000 		.4byte	.LVL182
 16809 0fa6 06080000 		.4byte	.LVL184
 16810 0faa 0600     		.2byte	0x6
 16811 0fac 03       		.byte	0x3
 16812 0fad 00000000 		.4byte	USBD1
 16813 0fb1 9F       		.byte	0x9f
 16814 0fb2 00000000 		.4byte	0
 16815 0fb6 00000000 		.4byte	0
 16816              	.LLST21:
 16817 0fba 64010000 		.4byte	.LVL25
 16818 0fbe 6E010000 		.4byte	.LVL26
 16819 0fc2 0200     		.2byte	0x2
 16820 0fc4 30       		.byte	0x30
 16821 0fc5 9F       		.byte	0x9f
 16822 0fc6 6E010000 		.4byte	.LVL26
 16823 0fca 72010000 		.4byte	.LVL27
 16824 0fce 0100     		.2byte	0x1
 16825 0fd0 59       		.byte	0x59
 16826 0fd1 7A010000 		.4byte	.LVL28
 16827 0fd5 34020000 		.4byte	.LVL35
 16828 0fd9 0100     		.2byte	0x1
 16829 0fdb 59       		.byte	0x59
 16830 0fdc 52040000 		.4byte	.LVL92
 16831 0fe0 60040000 		.4byte	.LVL93
 16832 0fe4 0100     		.2byte	0x1
 16833 0fe6 59       		.byte	0x59
 16834 0fe7 00000000 		.4byte	0
 16835 0feb 00000000 		.4byte	0
 16836              	.LLST22:
 16837 0fef 64010000 		.4byte	.LVL25
 16838 0ff3 78020000 		.4byte	.LVL41
 16839 0ff7 0100     		.2byte	0x1
 16840 0ff9 58       		.byte	0x58
 16841 0ffa 52040000 		.4byte	.LVL92
 16842 0ffe 60040000 		.4byte	.LVL93
 16843 1002 0100     		.2byte	0x1
 16844 1004 58       		.byte	0x58
 16845 1005 EE070000 		.4byte	.LVL182
 16846 1009 06080000 		.4byte	.LVL184
 16847 100d 0100     		.2byte	0x1
 16848 100f 58       		.byte	0x58
 16849 1010 00000000 		.4byte	0
 16850 1014 00000000 		.4byte	0
 16851              	.LLST23:
 16852 1018 B4010000 		.4byte	.LVL30
 16853 101c 78020000 		.4byte	.LVL41
 16854 1020 0600     		.2byte	0x6
 16855 1022 03       		.byte	0x3
 16856 1023 00000000 		.4byte	USBD1
 16857 1027 9F       		.byte	0x9f
 16858 1028 EE070000 		.4byte	.LVL182
 16859 102c 06080000 		.4byte	.LVL184
 16860 1030 0600     		.2byte	0x6
 16861 1032 03       		.byte	0x3
 16862 1033 00000000 		.4byte	USBD1
 16863 1037 9F       		.byte	0x9f
 16864 1038 00000000 		.4byte	0
ARM GAS  /tmp/ccxvl19p.s 			page 297


 16865 103c 00000000 		.4byte	0
 16866              	.LLST24:
 16867 1040 B4010000 		.4byte	.LVL30
 16868 1044 CD010000 		.4byte	.LVL32-1
 16869 1048 0100     		.2byte	0x1
 16870 104a 52       		.byte	0x52
 16871 104b 00000000 		.4byte	0
 16872 104f 00000000 		.4byte	0
 16873              	.LLST25:
 16874 1053 C0010000 		.4byte	.LVL31
 16875 1057 CE010000 		.4byte	.LVL32
 16876 105b 0200     		.2byte	0x2
 16877 105d 42       		.byte	0x42
 16878 105e 9F       		.byte	0x9f
 16879 105f 00000000 		.4byte	0
 16880 1063 00000000 		.4byte	0
 16881              	.LLST26:
 16882 1067 1A020000 		.4byte	.LVL34
 16883 106b 64020000 		.4byte	.LVL39
 16884 106f 0100     		.2byte	0x1
 16885 1071 50       		.byte	0x50
 16886 1072 70020000 		.4byte	.LVL40
 16887 1076 78020000 		.4byte	.LVL41
 16888 107a 0100     		.2byte	0x1
 16889 107c 50       		.byte	0x50
 16890 107d EE070000 		.4byte	.LVL182
 16891 1081 F2070000 		.4byte	.LVL183
 16892 1085 0100     		.2byte	0x1
 16893 1087 50       		.byte	0x50
 16894 1088 00000000 		.4byte	0
 16895 108c 00000000 		.4byte	0
 16896              	.LLST27:
 16897 1090 34020000 		.4byte	.LVL35
 16898 1094 48020000 		.4byte	.LVL36
 16899 1098 0100     		.2byte	0x1
 16900 109a 50       		.byte	0x50
 16901 109b 00000000 		.4byte	0
 16902 109f 00000000 		.4byte	0
 16903              	.LLST28:
 16904 10a3 48020000 		.4byte	.LVL36
 16905 10a7 4C020000 		.4byte	.LVL37
 16906 10ab 0100     		.2byte	0x1
 16907 10ad 53       		.byte	0x53
 16908 10ae 4C020000 		.4byte	.LVL37
 16909 10b2 52020000 		.4byte	.LVL38
 16910 10b6 0300     		.2byte	0x3
 16911 10b8 73       		.byte	0x73
 16912 10b9 7C       		.sleb128 -4
 16913 10ba 9F       		.byte	0x9f
 16914 10bb 00000000 		.4byte	0
 16915 10bf 00000000 		.4byte	0
 16916              	.LLST29:
 16917 10c3 34020000 		.4byte	.LVL35
 16918 10c7 52020000 		.4byte	.LVL38
 16919 10cb 0C00     		.2byte	0xc
 16920 10cd 91       		.byte	0x91
 16921 10ce 54       		.sleb128 -44
ARM GAS  /tmp/ccxvl19p.s 			page 298


 16922 10cf 06       		.byte	0x6
 16923 10d0 23       		.byte	0x23
 16924 10d1 01       		.uleb128 0x1
 16925 10d2 3C       		.byte	0x3c
 16926 10d3 24       		.byte	0x24
 16927 10d4 91       		.byte	0x91
 16928 10d5 50       		.sleb128 -48
 16929 10d6 06       		.byte	0x6
 16930 10d7 22       		.byte	0x22
 16931 10d8 9F       		.byte	0x9f
 16932 10d9 00000000 		.4byte	0
 16933 10dd 00000000 		.4byte	0
 16934              	.LLST30:
 16935 10e1 88020000 		.4byte	.LVL43
 16936 10e5 E0020000 		.4byte	.LVL50
 16937 10e9 0600     		.2byte	0x6
 16938 10eb 03       		.byte	0x3
 16939 10ec 00000000 		.4byte	USBD1
 16940 10f0 9F       		.byte	0x9f
 16941 10f1 00000000 		.4byte	0
 16942 10f5 00000000 		.4byte	0
 16943              	.LLST31:
 16944 10f9 8A020000 		.4byte	.LVL44
 16945 10fd 94020000 		.4byte	.LVL45
 16946 1101 0200     		.2byte	0x2
 16947 1103 30       		.byte	0x30
 16948 1104 9F       		.byte	0x9f
 16949 1105 94020000 		.4byte	.LVL45
 16950 1109 98020000 		.4byte	.LVL46
 16951 110d 0100     		.2byte	0x1
 16952 110f 55       		.byte	0x55
 16953 1110 9C020000 		.4byte	.LVL47
 16954 1114 E0020000 		.4byte	.LVL50
 16955 1118 0100     		.2byte	0x1
 16956 111a 55       		.byte	0x55
 16957 111b 00000000 		.4byte	0
 16958 111f 00000000 		.4byte	0
 16959              	.LLST32:
 16960 1123 8A020000 		.4byte	.LVL44
 16961 1127 E0020000 		.4byte	.LVL50
 16962 112b 0100     		.2byte	0x1
 16963 112d 56       		.byte	0x56
 16964 112e 00000000 		.4byte	0
 16965 1132 00000000 		.4byte	0
 16966              	.LLST33:
 16967 1136 F4020000 		.4byte	.LVL53
 16968 113a B2030000 		.4byte	.LVL70
 16969 113e 0600     		.2byte	0x6
 16970 1140 03       		.byte	0x3
 16971 1141 00000000 		.4byte	USBD1
 16972 1145 9F       		.byte	0x9f
 16973 1146 06080000 		.4byte	.LVL184
 16974 114a 14080000 		.4byte	.LVL185
 16975 114e 0600     		.2byte	0x6
 16976 1150 03       		.byte	0x3
 16977 1151 00000000 		.4byte	USBD1
 16978 1155 9F       		.byte	0x9f
ARM GAS  /tmp/ccxvl19p.s 			page 299


 16979 1156 44080000 		.4byte	.LVL191
 16980 115a AE080000 		.4byte	.LVL199
 16981 115e 0600     		.2byte	0x6
 16982 1160 03       		.byte	0x3
 16983 1161 00000000 		.4byte	USBD1
 16984 1165 9F       		.byte	0x9f
 16985 1166 EA090000 		.4byte	.LVL223
 16986 116a 040A0000 		.4byte	.LVL228
 16987 116e 0600     		.2byte	0x6
 16988 1170 03       		.byte	0x3
 16989 1171 00000000 		.4byte	USBD1
 16990 1175 9F       		.byte	0x9f
 16991 1176 00000000 		.4byte	0
 16992 117a 00000000 		.4byte	0
 16993              	.LLST34:
 16994 117e F4020000 		.4byte	.LVL53
 16995 1182 B2030000 		.4byte	.LVL70
 16996 1186 0200     		.2byte	0x2
 16997 1188 33       		.byte	0x33
 16998 1189 9F       		.byte	0x9f
 16999 118a 06080000 		.4byte	.LVL184
 17000 118e 14080000 		.4byte	.LVL185
 17001 1192 0200     		.2byte	0x2
 17002 1194 33       		.byte	0x33
 17003 1195 9F       		.byte	0x9f
 17004 1196 44080000 		.4byte	.LVL191
 17005 119a AE080000 		.4byte	.LVL199
 17006 119e 0200     		.2byte	0x2
 17007 11a0 33       		.byte	0x33
 17008 11a1 9F       		.byte	0x9f
 17009 11a2 EA090000 		.4byte	.LVL223
 17010 11a6 040A0000 		.4byte	.LVL228
 17011 11aa 0200     		.2byte	0x2
 17012 11ac 33       		.byte	0x33
 17013 11ad 9F       		.byte	0x9f
 17014 11ae 00000000 		.4byte	0
 17015 11b2 00000000 		.4byte	0
 17016              	.LLST35:
 17017 11b6 F6020000 		.4byte	.LVL54
 17018 11ba 46030000 		.4byte	.LVL61
 17019 11be 0100     		.2byte	0x1
 17020 11c0 55       		.byte	0x55
 17021 11c1 44080000 		.4byte	.LVL191
 17022 11c5 AE080000 		.4byte	.LVL199
 17023 11c9 0100     		.2byte	0x1
 17024 11cb 55       		.byte	0x55
 17025 11cc EA090000 		.4byte	.LVL223
 17026 11d0 040A0000 		.4byte	.LVL228
 17027 11d4 0100     		.2byte	0x1
 17028 11d6 55       		.byte	0x55
 17029 11d7 00000000 		.4byte	0
 17030 11db 00000000 		.4byte	0
 17031              	.LLST36:
 17032 11df FA020000 		.4byte	.LVL55
 17033 11e3 42030000 		.4byte	.LVL60
 17034 11e7 0100     		.2byte	0x1
 17035 11e9 56       		.byte	0x56
ARM GAS  /tmp/ccxvl19p.s 			page 300


 17036 11ea 44080000 		.4byte	.LVL191
 17037 11ee AE080000 		.4byte	.LVL199
 17038 11f2 0100     		.2byte	0x1
 17039 11f4 56       		.byte	0x56
 17040 11f5 EA090000 		.4byte	.LVL223
 17041 11f9 040A0000 		.4byte	.LVL228
 17042 11fd 0100     		.2byte	0x1
 17043 11ff 56       		.byte	0x56
 17044 1200 00000000 		.4byte	0
 17045 1204 00000000 		.4byte	0
 17046              	.LLST37:
 17047 1208 0E030000 		.4byte	.LVL56
 17048 120c 1A030000 		.4byte	.LVL57
 17049 1210 0100     		.2byte	0x1
 17050 1212 53       		.byte	0x53
 17051 1213 1A030000 		.4byte	.LVL57
 17052 1217 26030000 		.4byte	.LVL58
 17053 121b 0200     		.2byte	0x2
 17054 121d 71       		.byte	0x71
 17055 121e 14       		.sleb128 20
 17056 121f 26030000 		.4byte	.LVL58
 17057 1223 29030000 		.4byte	.LVL59-1
 17058 1227 0500     		.2byte	0x5
 17059 1229 74       		.byte	0x74
 17060 122a 18       		.sleb128 24
 17061 122b 06       		.byte	0x6
 17062 122c 23       		.byte	0x23
 17063 122d 14       		.uleb128 0x14
 17064 122e 44080000 		.4byte	.LVL191
 17065 1232 4E080000 		.4byte	.LVL193
 17066 1236 0100     		.2byte	0x1
 17067 1238 53       		.byte	0x53
 17068 1239 4E080000 		.4byte	.LVL193
 17069 123d AE080000 		.4byte	.LVL199
 17070 1241 0500     		.2byte	0x5
 17071 1243 74       		.byte	0x74
 17072 1244 18       		.sleb128 24
 17073 1245 06       		.byte	0x6
 17074 1246 23       		.byte	0x23
 17075 1247 14       		.uleb128 0x14
 17076 1248 EA090000 		.4byte	.LVL223
 17077 124c 040A0000 		.4byte	.LVL228
 17078 1250 0500     		.2byte	0x5
 17079 1252 74       		.byte	0x74
 17080 1253 18       		.sleb128 24
 17081 1254 06       		.byte	0x6
 17082 1255 23       		.byte	0x23
 17083 1256 14       		.uleb128 0x14
 17084 1257 00000000 		.4byte	0
 17085 125b 00000000 		.4byte	0
 17086              	.LLST38:
 17087 125f 4C080000 		.4byte	.LVL192
 17088 1263 52080000 		.4byte	.LVL194
 17089 1267 0300     		.2byte	0x3
 17090 1269 08       		.byte	0x8
 17091 126a 20       		.byte	0x20
 17092 126b 9F       		.byte	0x9f
ARM GAS  /tmp/ccxvl19p.s 			page 301


 17093 126c 00000000 		.4byte	0
 17094 1270 00000000 		.4byte	0
 17095              	.LLST39:
 17096 1274 52080000 		.4byte	.LVL194
 17097 1278 A6080000 		.4byte	.LVL197
 17098 127c 0200     		.2byte	0x2
 17099 127e 33       		.byte	0x33
 17100 127f 9F       		.byte	0x9f
 17101 1280 EA090000 		.4byte	.LVL223
 17102 1284 040A0000 		.4byte	.LVL228
 17103 1288 0200     		.2byte	0x2
 17104 128a 33       		.byte	0x33
 17105 128b 9F       		.byte	0x9f
 17106 128c 00000000 		.4byte	0
 17107 1290 00000000 		.4byte	0
 17108              	.LLST40:
 17109 1294 52080000 		.4byte	.LVL194
 17110 1298 A6080000 		.4byte	.LVL197
 17111 129c 0600     		.2byte	0x6
 17112 129e 03       		.byte	0x3
 17113 129f 00000000 		.4byte	USBD1
 17114 12a3 9F       		.byte	0x9f
 17115 12a4 EA090000 		.4byte	.LVL223
 17116 12a8 040A0000 		.4byte	.LVL228
 17117 12ac 0600     		.2byte	0x6
 17118 12ae 03       		.byte	0x3
 17119 12af 00000000 		.4byte	USBD1
 17120 12b3 9F       		.byte	0x9f
 17121 12b4 00000000 		.4byte	0
 17122 12b8 00000000 		.4byte	0
 17123              	.LLST41:
 17124 12bc 56080000 		.4byte	.LVL195
 17125 12c0 62080000 		.4byte	.LVL196
 17126 12c4 0100     		.2byte	0x1
 17127 12c6 53       		.byte	0x53
 17128 12c7 62080000 		.4byte	.LVL196
 17129 12cb A6080000 		.4byte	.LVL197
 17130 12cf 0200     		.2byte	0x2
 17131 12d1 71       		.byte	0x71
 17132 12d2 14       		.sleb128 20
 17133 12d3 EA090000 		.4byte	.LVL223
 17134 12d7 EE090000 		.4byte	.LVL225
 17135 12db 0100     		.2byte	0x1
 17136 12dd 53       		.byte	0x53
 17137 12de EE090000 		.4byte	.LVL225
 17138 12e2 040A0000 		.4byte	.LVL228
 17139 12e6 0200     		.2byte	0x2
 17140 12e8 71       		.byte	0x71
 17141 12e9 14       		.sleb128 20
 17142 12ea 00000000 		.4byte	0
 17143 12ee 00000000 		.4byte	0
 17144              	.LLST42:
 17145 12f2 EC090000 		.4byte	.LVL224
 17146 12f6 F4090000 		.4byte	.LVL226
 17147 12fa 1100     		.2byte	0x11
 17148 12fc 72       		.byte	0x72
 17149 12fd 00       		.sleb128 0
ARM GAS  /tmp/ccxvl19p.s 			page 302


 17150 12fe 77       		.byte	0x77
 17151 12ff 00       		.sleb128 0
 17152 1300 22       		.byte	0x22
 17153 1301 31       		.byte	0x31
 17154 1302 1C       		.byte	0x1c
 17155 1303 F7       		.byte	0xf7
 17156 1304 25       		.uleb128 0x25
 17157 1305 77       		.byte	0x77
 17158 1306 00       		.sleb128 0
 17159 1307 F7       		.byte	0xf7
 17160 1308 25       		.uleb128 0x25
 17161 1309 1B       		.byte	0x1b
 17162 130a F7       		.byte	0xf7
 17163 130b 00       		.uleb128 0
 17164 130c 9F       		.byte	0x9f
 17165 130d F4090000 		.4byte	.LVL226
 17166 1311 FA090000 		.4byte	.LVL227
 17167 1315 1300     		.2byte	0x13
 17168 1317 71       		.byte	0x71
 17169 1318 14       		.sleb128 20
 17170 1319 06       		.byte	0x6
 17171 131a 06       		.byte	0x6
 17172 131b 77       		.byte	0x77
 17173 131c 00       		.sleb128 0
 17174 131d 22       		.byte	0x22
 17175 131e 31       		.byte	0x31
 17176 131f 1C       		.byte	0x1c
 17177 1320 F7       		.byte	0xf7
 17178 1321 25       		.uleb128 0x25
 17179 1322 77       		.byte	0x77
 17180 1323 00       		.sleb128 0
 17181 1324 F7       		.byte	0xf7
 17182 1325 25       		.uleb128 0x25
 17183 1326 1B       		.byte	0x1b
 17184 1327 F7       		.byte	0xf7
 17185 1328 00       		.uleb128 0
 17186 1329 9F       		.byte	0x9f
 17187 132a FA090000 		.4byte	.LVL227
 17188 132e 040A0000 		.4byte	.LVL228
 17189 1332 0100     		.2byte	0x1
 17190 1334 50       		.byte	0x50
 17191 1335 00000000 		.4byte	0
 17192 1339 00000000 		.4byte	0
 17193              	.LLST43:
 17194 133d A6080000 		.4byte	.LVL197
 17195 1341 AC080000 		.4byte	.LVL198
 17196 1345 0200     		.2byte	0x2
 17197 1347 30       		.byte	0x30
 17198 1348 9F       		.byte	0x9f
 17199 1349 00000000 		.4byte	0
 17200 134d 00000000 		.4byte	0
 17201              	.LLST44:
 17202 1351 56030000 		.4byte	.LVL62
 17203 1355 9E030000 		.4byte	.LVL68
 17204 1359 0100     		.2byte	0x1
 17205 135b 51       		.byte	0x51
 17206 135c AA030000 		.4byte	.LVL69
ARM GAS  /tmp/ccxvl19p.s 			page 303


 17207 1360 B2030000 		.4byte	.LVL70
 17208 1364 0100     		.2byte	0x1
 17209 1366 51       		.byte	0x51
 17210 1367 00000000 		.4byte	0
 17211 136b 00000000 		.4byte	0
 17212              	.LLST45:
 17213 136f 6E030000 		.4byte	.LVL64
 17214 1373 82030000 		.4byte	.LVL65
 17215 1377 0100     		.2byte	0x1
 17216 1379 51       		.byte	0x51
 17217 137a 00000000 		.4byte	0
 17218 137e 00000000 		.4byte	0
 17219              	.LLST46:
 17220 1382 82030000 		.4byte	.LVL65
 17221 1386 86030000 		.4byte	.LVL66
 17222 138a 0100     		.2byte	0x1
 17223 138c 53       		.byte	0x53
 17224 138d 86030000 		.4byte	.LVL66
 17225 1391 8C030000 		.4byte	.LVL67
 17226 1395 0300     		.2byte	0x3
 17227 1397 73       		.byte	0x73
 17228 1398 7C       		.sleb128 -4
 17229 1399 9F       		.byte	0x9f
 17230 139a 00000000 		.4byte	0
 17231 139e 00000000 		.4byte	0
 17232              	.LLST47:
 17233 13a2 6E030000 		.4byte	.LVL64
 17234 13a6 8C030000 		.4byte	.LVL67
 17235 13aa 0500     		.2byte	0x5
 17236 13ac 7C       		.byte	0x7c
 17237 13ad 808001   		.sleb128 16384
 17238 13b0 9F       		.byte	0x9f
 17239 13b1 00000000 		.4byte	0
 17240 13b5 00000000 		.4byte	0
 17241              	.LLST48:
 17242 13b9 B2030000 		.4byte	.LVL70
 17243 13bd FC030000 		.4byte	.LVL78
 17244 13c1 0600     		.2byte	0x6
 17245 13c3 03       		.byte	0x3
 17246 13c4 00000000 		.4byte	USBD1
 17247 13c8 9F       		.byte	0x9f
 17248 13c9 00000000 		.4byte	0
 17249 13cd 00000000 		.4byte	0
 17250              	.LLST49:
 17251 13d1 B2030000 		.4byte	.LVL70
 17252 13d5 FC030000 		.4byte	.LVL78
 17253 13d9 0200     		.2byte	0x2
 17254 13db 33       		.byte	0x33
 17255 13dc 9F       		.byte	0x9f
 17256 13dd 00000000 		.4byte	0
 17257 13e1 00000000 		.4byte	0
 17258              	.LLST50:
 17259 13e5 B4030000 		.4byte	.LVL71
 17260 13e9 FC030000 		.4byte	.LVL78
 17261 13ed 0100     		.2byte	0x1
 17262 13ef 56       		.byte	0x56
 17263 13f0 00000000 		.4byte	0
ARM GAS  /tmp/ccxvl19p.s 			page 304


 17264 13f4 00000000 		.4byte	0
 17265              	.LLST51:
 17266 13f8 B8030000 		.4byte	.LVL72
 17267 13fc D4030000 		.4byte	.LVL74
 17268 1400 0100     		.2byte	0x1
 17269 1402 57       		.byte	0x57
 17270 1403 00000000 		.4byte	0
 17271 1407 00000000 		.4byte	0
 17272              	.LLST52:
 17273 140b E4030000 		.4byte	.LVL75
 17274 140f E8030000 		.4byte	.LVL76
 17275 1413 0200     		.2byte	0x2
 17276 1415 72       		.byte	0x72
 17277 1416 18       		.sleb128 24
 17278 1417 E8030000 		.4byte	.LVL76
 17279 141b F9030000 		.4byte	.LVL77-1
 17280 141f 0500     		.2byte	0x5
 17281 1421 74       		.byte	0x74
 17282 1422 18       		.sleb128 24
 17283 1423 06       		.byte	0x6
 17284 1424 23       		.byte	0x23
 17285 1425 18       		.uleb128 0x18
 17286 1426 00000000 		.4byte	0
 17287 142a 00000000 		.4byte	0
 17288              	.LLST53:
 17289 142e 60040000 		.4byte	.LVL93
 17290 1432 26050000 		.4byte	.LVL110
 17291 1436 0600     		.2byte	0x6
 17292 1438 03       		.byte	0x3
 17293 1439 00000000 		.4byte	USBD1
 17294 143d 9F       		.byte	0x9f
 17295 143e 14080000 		.4byte	.LVL185
 17296 1442 24080000 		.4byte	.LVL187
 17297 1446 0600     		.2byte	0x6
 17298 1448 03       		.byte	0x3
 17299 1449 00000000 		.4byte	USBD1
 17300 144d 9F       		.byte	0x9f
 17301 144e 84090000 		.4byte	.LVL215
 17302 1452 EA090000 		.4byte	.LVL223
 17303 1456 0600     		.2byte	0x6
 17304 1458 03       		.byte	0x3
 17305 1459 00000000 		.4byte	USBD1
 17306 145d 9F       		.byte	0x9f
 17307 145e 040A0000 		.4byte	.LVL228
 17308 1462 220A0000 		.4byte	.LVL233
 17309 1466 0600     		.2byte	0x6
 17310 1468 03       		.byte	0x3
 17311 1469 00000000 		.4byte	USBD1
 17312 146d 9F       		.byte	0x9f
 17313 146e 00000000 		.4byte	0
 17314 1472 00000000 		.4byte	0
 17315              	.LLST54:
 17316 1476 60040000 		.4byte	.LVL93
 17317 147a 26050000 		.4byte	.LVL110
 17318 147e 0200     		.2byte	0x2
 17319 1480 31       		.byte	0x31
 17320 1481 9F       		.byte	0x9f
ARM GAS  /tmp/ccxvl19p.s 			page 305


 17321 1482 14080000 		.4byte	.LVL185
 17322 1486 24080000 		.4byte	.LVL187
 17323 148a 0200     		.2byte	0x2
 17324 148c 31       		.byte	0x31
 17325 148d 9F       		.byte	0x9f
 17326 148e 84090000 		.4byte	.LVL215
 17327 1492 EA090000 		.4byte	.LVL223
 17328 1496 0200     		.2byte	0x2
 17329 1498 31       		.byte	0x31
 17330 1499 9F       		.byte	0x9f
 17331 149a 040A0000 		.4byte	.LVL228
 17332 149e 220A0000 		.4byte	.LVL233
 17333 14a2 0200     		.2byte	0x2
 17334 14a4 31       		.byte	0x31
 17335 14a5 9F       		.byte	0x9f
 17336 14a6 00000000 		.4byte	0
 17337 14aa 00000000 		.4byte	0
 17338              	.LLST55:
 17339 14ae 62040000 		.4byte	.LVL94
 17340 14b2 DA040000 		.4byte	.LVL103
 17341 14b6 0100     		.2byte	0x1
 17342 14b8 56       		.byte	0x56
 17343 14b9 84090000 		.4byte	.LVL215
 17344 14bd EA090000 		.4byte	.LVL223
 17345 14c1 0100     		.2byte	0x1
 17346 14c3 56       		.byte	0x56
 17347 14c4 040A0000 		.4byte	.LVL228
 17348 14c8 220A0000 		.4byte	.LVL233
 17349 14cc 0100     		.2byte	0x1
 17350 14ce 56       		.byte	0x56
 17351 14cf 00000000 		.4byte	0
 17352 14d3 00000000 		.4byte	0
 17353              	.LLST56:
 17354 14d7 66040000 		.4byte	.LVL95
 17355 14db 98040000 		.4byte	.LVL100
 17356 14df 0100     		.2byte	0x1
 17357 14e1 57       		.byte	0x57
 17358 14e2 84090000 		.4byte	.LVL215
 17359 14e6 EA090000 		.4byte	.LVL223
 17360 14ea 0100     		.2byte	0x1
 17361 14ec 57       		.byte	0x57
 17362 14ed 040A0000 		.4byte	.LVL228
 17363 14f1 220A0000 		.4byte	.LVL233
 17364 14f5 0100     		.2byte	0x1
 17365 14f7 57       		.byte	0x57
 17366 14f8 00000000 		.4byte	0
 17367 14fc 00000000 		.4byte	0
 17368              	.LLST57:
 17369 1500 7A040000 		.4byte	.LVL96
 17370 1504 86040000 		.4byte	.LVL97
 17371 1508 0100     		.2byte	0x1
 17372 150a 53       		.byte	0x53
 17373 150b 86040000 		.4byte	.LVL97
 17374 150f 92040000 		.4byte	.LVL98
 17375 1513 0200     		.2byte	0x2
 17376 1515 71       		.byte	0x71
 17377 1516 14       		.sleb128 20
ARM GAS  /tmp/ccxvl19p.s 			page 306


 17378 1517 92040000 		.4byte	.LVL98
 17379 151b 95040000 		.4byte	.LVL99-1
 17380 151f 0500     		.2byte	0x5
 17381 1521 74       		.byte	0x74
 17382 1522 10       		.sleb128 16
 17383 1523 06       		.byte	0x6
 17384 1524 23       		.byte	0x23
 17385 1525 14       		.uleb128 0x14
 17386 1526 84090000 		.4byte	.LVL215
 17387 152a 8E090000 		.4byte	.LVL217
 17388 152e 0100     		.2byte	0x1
 17389 1530 53       		.byte	0x53
 17390 1531 8E090000 		.4byte	.LVL217
 17391 1535 EA090000 		.4byte	.LVL223
 17392 1539 0500     		.2byte	0x5
 17393 153b 74       		.byte	0x74
 17394 153c 10       		.sleb128 16
 17395 153d 06       		.byte	0x6
 17396 153e 23       		.byte	0x23
 17397 153f 14       		.uleb128 0x14
 17398 1540 040A0000 		.4byte	.LVL228
 17399 1544 220A0000 		.4byte	.LVL233
 17400 1548 0500     		.2byte	0x5
 17401 154a 74       		.byte	0x74
 17402 154b 10       		.sleb128 16
 17403 154c 06       		.byte	0x6
 17404 154d 23       		.byte	0x23
 17405 154e 14       		.uleb128 0x14
 17406 154f 00000000 		.4byte	0
 17407 1553 00000000 		.4byte	0
 17408              	.LLST58:
 17409 1557 8C090000 		.4byte	.LVL216
 17410 155b 92090000 		.4byte	.LVL218
 17411 155f 0300     		.2byte	0x3
 17412 1561 08       		.byte	0x8
 17413 1562 20       		.byte	0x20
 17414 1563 9F       		.byte	0x9f
 17415 1564 00000000 		.4byte	0
 17416 1568 00000000 		.4byte	0
 17417              	.LLST59:
 17418 156c 92090000 		.4byte	.LVL218
 17419 1570 E2090000 		.4byte	.LVL221
 17420 1574 0200     		.2byte	0x2
 17421 1576 31       		.byte	0x31
 17422 1577 9F       		.byte	0x9f
 17423 1578 040A0000 		.4byte	.LVL228
 17424 157c 220A0000 		.4byte	.LVL233
 17425 1580 0200     		.2byte	0x2
 17426 1582 31       		.byte	0x31
 17427 1583 9F       		.byte	0x9f
 17428 1584 00000000 		.4byte	0
 17429 1588 00000000 		.4byte	0
 17430              	.LLST60:
 17431 158c 92090000 		.4byte	.LVL218
 17432 1590 E2090000 		.4byte	.LVL221
 17433 1594 0600     		.2byte	0x6
 17434 1596 03       		.byte	0x3
ARM GAS  /tmp/ccxvl19p.s 			page 307


 17435 1597 00000000 		.4byte	USBD1
 17436 159b 9F       		.byte	0x9f
 17437 159c 040A0000 		.4byte	.LVL228
 17438 15a0 220A0000 		.4byte	.LVL233
 17439 15a4 0600     		.2byte	0x6
 17440 15a6 03       		.byte	0x3
 17441 15a7 00000000 		.4byte	USBD1
 17442 15ab 9F       		.byte	0x9f
 17443 15ac 00000000 		.4byte	0
 17444 15b0 00000000 		.4byte	0
 17445              	.LLST61:
 17446 15b4 96090000 		.4byte	.LVL219
 17447 15b8 9E090000 		.4byte	.LVL220
 17448 15bc 0100     		.2byte	0x1
 17449 15be 53       		.byte	0x53
 17450 15bf 9E090000 		.4byte	.LVL220
 17451 15c3 E2090000 		.4byte	.LVL221
 17452 15c7 0200     		.2byte	0x2
 17453 15c9 71       		.byte	0x71
 17454 15ca 14       		.sleb128 20
 17455 15cb 040A0000 		.4byte	.LVL228
 17456 15cf 0A0A0000 		.4byte	.LVL230
 17457 15d3 0100     		.2byte	0x1
 17458 15d5 53       		.byte	0x53
 17459 15d6 0A0A0000 		.4byte	.LVL230
 17460 15da 220A0000 		.4byte	.LVL233
 17461 15de 0200     		.2byte	0x2
 17462 15e0 71       		.byte	0x71
 17463 15e1 14       		.sleb128 20
 17464 15e2 00000000 		.4byte	0
 17465 15e6 00000000 		.4byte	0
 17466              	.LLST62:
 17467 15ea 080A0000 		.4byte	.LVL229
 17468 15ee 120A0000 		.4byte	.LVL231
 17469 15f2 1100     		.2byte	0x11
 17470 15f4 72       		.byte	0x72
 17471 15f5 00       		.sleb128 0
 17472 15f6 7C       		.byte	0x7c
 17473 15f7 00       		.sleb128 0
 17474 15f8 22       		.byte	0x22
 17475 15f9 31       		.byte	0x31
 17476 15fa 1C       		.byte	0x1c
 17477 15fb F7       		.byte	0xf7
 17478 15fc 25       		.uleb128 0x25
 17479 15fd 7C       		.byte	0x7c
 17480 15fe 00       		.sleb128 0
 17481 15ff F7       		.byte	0xf7
 17482 1600 25       		.uleb128 0x25
 17483 1601 1B       		.byte	0x1b
 17484 1602 F7       		.byte	0xf7
 17485 1603 00       		.uleb128 0
 17486 1604 9F       		.byte	0x9f
 17487 1605 120A0000 		.4byte	.LVL231
 17488 1609 180A0000 		.4byte	.LVL232
 17489 160d 1300     		.2byte	0x13
 17490 160f 71       		.byte	0x71
 17491 1610 14       		.sleb128 20
ARM GAS  /tmp/ccxvl19p.s 			page 308


 17492 1611 06       		.byte	0x6
 17493 1612 06       		.byte	0x6
 17494 1613 7C       		.byte	0x7c
 17495 1614 00       		.sleb128 0
 17496 1615 22       		.byte	0x22
 17497 1616 31       		.byte	0x31
 17498 1617 1C       		.byte	0x1c
 17499 1618 F7       		.byte	0xf7
 17500 1619 25       		.uleb128 0x25
 17501 161a 7C       		.byte	0x7c
 17502 161b 00       		.sleb128 0
 17503 161c F7       		.byte	0xf7
 17504 161d 25       		.uleb128 0x25
 17505 161e 1B       		.byte	0x1b
 17506 161f F7       		.byte	0xf7
 17507 1620 00       		.uleb128 0
 17508 1621 9F       		.byte	0x9f
 17509 1622 180A0000 		.4byte	.LVL232
 17510 1626 220A0000 		.4byte	.LVL233
 17511 162a 0100     		.2byte	0x1
 17512 162c 50       		.byte	0x50
 17513 162d 00000000 		.4byte	0
 17514 1631 00000000 		.4byte	0
 17515              	.LLST63:
 17516 1635 E2090000 		.4byte	.LVL221
 17517 1639 E8090000 		.4byte	.LVL222
 17518 163d 0200     		.2byte	0x2
 17519 163f 30       		.byte	0x30
 17520 1640 9F       		.byte	0x9f
 17521 1641 00000000 		.4byte	0
 17522 1645 00000000 		.4byte	0
 17523              	.LLST64:
 17524 1649 C6040000 		.4byte	.LVL101
 17525 164d 10050000 		.4byte	.LVL108
 17526 1651 0100     		.2byte	0x1
 17527 1653 51       		.byte	0x51
 17528 1654 1C050000 		.4byte	.LVL109
 17529 1658 26050000 		.4byte	.LVL110
 17530 165c 0100     		.2byte	0x1
 17531 165e 51       		.byte	0x51
 17532 165f 14080000 		.4byte	.LVL185
 17533 1663 16080000 		.4byte	.LVL186
 17534 1667 0100     		.2byte	0x1
 17535 1669 51       		.byte	0x51
 17536 166a 00000000 		.4byte	0
 17537 166e 00000000 		.4byte	0
 17538              	.LLST65:
 17539 1672 E0040000 		.4byte	.LVL104
 17540 1676 F4040000 		.4byte	.LVL105
 17541 167a 0100     		.2byte	0x1
 17542 167c 51       		.byte	0x51
 17543 167d 00000000 		.4byte	0
 17544 1681 00000000 		.4byte	0
 17545              	.LLST66:
 17546 1685 F4040000 		.4byte	.LVL105
 17547 1689 F8040000 		.4byte	.LVL106
 17548 168d 0100     		.2byte	0x1
ARM GAS  /tmp/ccxvl19p.s 			page 309


 17549 168f 53       		.byte	0x53
 17550 1690 F8040000 		.4byte	.LVL106
 17551 1694 FE040000 		.4byte	.LVL107
 17552 1698 0300     		.2byte	0x3
 17553 169a 73       		.byte	0x73
 17554 169b 7C       		.sleb128 -4
 17555 169c 9F       		.byte	0x9f
 17556 169d 00000000 		.4byte	0
 17557 16a1 00000000 		.4byte	0
 17558              	.LLST67:
 17559 16a5 E0040000 		.4byte	.LVL104
 17560 16a9 FE040000 		.4byte	.LVL107
 17561 16ad 0500     		.2byte	0x5
 17562 16af 78       		.byte	0x78
 17563 16b0 80C000   		.sleb128 8192
 17564 16b3 9F       		.byte	0x9f
 17565 16b4 00000000 		.4byte	0
 17566 16b8 00000000 		.4byte	0
 17567              	.LLST68:
 17568 16bc 26050000 		.4byte	.LVL110
 17569 16c0 F0050000 		.4byte	.LVL127
 17570 16c4 0600     		.2byte	0x6
 17571 16c6 03       		.byte	0x3
 17572 16c7 00000000 		.4byte	USBD1
 17573 16cb 9F       		.byte	0x9f
 17574 16cc 24080000 		.4byte	.LVL187
 17575 16d0 34080000 		.4byte	.LVL189
 17576 16d4 0600     		.2byte	0x6
 17577 16d6 03       		.byte	0x3
 17578 16d7 00000000 		.4byte	USBD1
 17579 16db 9F       		.byte	0x9f
 17580 16dc 1C090000 		.4byte	.LVL207
 17581 16e0 84090000 		.4byte	.LVL215
 17582 16e4 0600     		.2byte	0x6
 17583 16e6 03       		.byte	0x3
 17584 16e7 00000000 		.4byte	USBD1
 17585 16eb 9F       		.byte	0x9f
 17586 16ec 220A0000 		.4byte	.LVL233
 17587 16f0 4C0A0000 		.4byte	.LVL237
 17588 16f4 0600     		.2byte	0x6
 17589 16f6 03       		.byte	0x3
 17590 16f7 00000000 		.4byte	USBD1
 17591 16fb 9F       		.byte	0x9f
 17592 16fc 00000000 		.4byte	0
 17593 1700 00000000 		.4byte	0
 17594              	.LLST69:
 17595 1704 26050000 		.4byte	.LVL110
 17596 1708 F0050000 		.4byte	.LVL127
 17597 170c 0200     		.2byte	0x2
 17598 170e 30       		.byte	0x30
 17599 170f 9F       		.byte	0x9f
 17600 1710 24080000 		.4byte	.LVL187
 17601 1714 34080000 		.4byte	.LVL189
 17602 1718 0200     		.2byte	0x2
 17603 171a 30       		.byte	0x30
 17604 171b 9F       		.byte	0x9f
 17605 171c 1C090000 		.4byte	.LVL207
ARM GAS  /tmp/ccxvl19p.s 			page 310


 17606 1720 84090000 		.4byte	.LVL215
 17607 1724 0200     		.2byte	0x2
 17608 1726 30       		.byte	0x30
 17609 1727 9F       		.byte	0x9f
 17610 1728 220A0000 		.4byte	.LVL233
 17611 172c 4C0A0000 		.4byte	.LVL237
 17612 1730 0200     		.2byte	0x2
 17613 1732 30       		.byte	0x30
 17614 1733 9F       		.byte	0x9f
 17615 1734 00000000 		.4byte	0
 17616 1738 00000000 		.4byte	0
 17617              	.LLST70:
 17618 173c 28050000 		.4byte	.LVL111
 17619 1740 A0050000 		.4byte	.LVL120
 17620 1744 0100     		.2byte	0x1
 17621 1746 56       		.byte	0x56
 17622 1747 1C090000 		.4byte	.LVL207
 17623 174b 84090000 		.4byte	.LVL215
 17624 174f 0100     		.2byte	0x1
 17625 1751 56       		.byte	0x56
 17626 1752 220A0000 		.4byte	.LVL233
 17627 1756 4C0A0000 		.4byte	.LVL237
 17628 175a 0100     		.2byte	0x1
 17629 175c 56       		.byte	0x56
 17630 175d 00000000 		.4byte	0
 17631 1761 00000000 		.4byte	0
 17632              	.LLST71:
 17633 1765 2C050000 		.4byte	.LVL112
 17634 1769 5E050000 		.4byte	.LVL117
 17635 176d 0100     		.2byte	0x1
 17636 176f 57       		.byte	0x57
 17637 1770 1C090000 		.4byte	.LVL207
 17638 1774 84090000 		.4byte	.LVL215
 17639 1778 0100     		.2byte	0x1
 17640 177a 57       		.byte	0x57
 17641 177b 220A0000 		.4byte	.LVL233
 17642 177f 4C0A0000 		.4byte	.LVL237
 17643 1783 0100     		.2byte	0x1
 17644 1785 57       		.byte	0x57
 17645 1786 00000000 		.4byte	0
 17646 178a 00000000 		.4byte	0
 17647              	.LLST72:
 17648 178e 40050000 		.4byte	.LVL113
 17649 1792 4C050000 		.4byte	.LVL114
 17650 1796 0100     		.2byte	0x1
 17651 1798 53       		.byte	0x53
 17652 1799 4C050000 		.4byte	.LVL114
 17653 179d 58050000 		.4byte	.LVL115
 17654 17a1 0200     		.2byte	0x2
 17655 17a3 71       		.byte	0x71
 17656 17a4 14       		.sleb128 20
 17657 17a5 58050000 		.4byte	.LVL115
 17658 17a9 5B050000 		.4byte	.LVL116-1
 17659 17ad 0500     		.2byte	0x5
 17660 17af 74       		.byte	0x74
 17661 17b0 0C       		.sleb128 12
 17662 17b1 06       		.byte	0x6
ARM GAS  /tmp/ccxvl19p.s 			page 311


 17663 17b2 23       		.byte	0x23
 17664 17b3 14       		.uleb128 0x14
 17665 17b4 1C090000 		.4byte	.LVL207
 17666 17b8 26090000 		.4byte	.LVL209
 17667 17bc 0100     		.2byte	0x1
 17668 17be 53       		.byte	0x53
 17669 17bf 26090000 		.4byte	.LVL209
 17670 17c3 84090000 		.4byte	.LVL215
 17671 17c7 0500     		.2byte	0x5
 17672 17c9 74       		.byte	0x74
 17673 17ca 0C       		.sleb128 12
 17674 17cb 06       		.byte	0x6
 17675 17cc 23       		.byte	0x23
 17676 17cd 14       		.uleb128 0x14
 17677 17ce 220A0000 		.4byte	.LVL233
 17678 17d2 4C0A0000 		.4byte	.LVL237
 17679 17d6 0500     		.2byte	0x5
 17680 17d8 74       		.byte	0x74
 17681 17d9 0C       		.sleb128 12
 17682 17da 06       		.byte	0x6
 17683 17db 23       		.byte	0x23
 17684 17dc 14       		.uleb128 0x14
 17685 17dd 00000000 		.4byte	0
 17686 17e1 00000000 		.4byte	0
 17687              	.LLST73:
 17688 17e5 24090000 		.4byte	.LVL208
 17689 17e9 2A090000 		.4byte	.LVL210
 17690 17ed 0300     		.2byte	0x3
 17691 17ef 08       		.byte	0x8
 17692 17f0 20       		.byte	0x20
 17693 17f1 9F       		.byte	0x9f
 17694 17f2 00000000 		.4byte	0
 17695 17f6 00000000 		.4byte	0
 17696              	.LLST74:
 17697 17fa 2A090000 		.4byte	.LVL210
 17698 17fe 7C090000 		.4byte	.LVL213
 17699 1802 0200     		.2byte	0x2
 17700 1804 30       		.byte	0x30
 17701 1805 9F       		.byte	0x9f
 17702 1806 220A0000 		.4byte	.LVL233
 17703 180a 4C0A0000 		.4byte	.LVL237
 17704 180e 0200     		.2byte	0x2
 17705 1810 30       		.byte	0x30
 17706 1811 9F       		.byte	0x9f
 17707 1812 00000000 		.4byte	0
 17708 1816 00000000 		.4byte	0
 17709              	.LLST75:
 17710 181a 2A090000 		.4byte	.LVL210
 17711 181e 7C090000 		.4byte	.LVL213
 17712 1822 0600     		.2byte	0x6
 17713 1824 03       		.byte	0x3
 17714 1825 00000000 		.4byte	USBD1
 17715 1829 9F       		.byte	0x9f
 17716 182a 220A0000 		.4byte	.LVL233
 17717 182e 4C0A0000 		.4byte	.LVL237
 17718 1832 0600     		.2byte	0x6
 17719 1834 03       		.byte	0x3
ARM GAS  /tmp/ccxvl19p.s 			page 312


 17720 1835 00000000 		.4byte	USBD1
 17721 1839 9F       		.byte	0x9f
 17722 183a 00000000 		.4byte	0
 17723 183e 00000000 		.4byte	0
 17724              	.LLST76:
 17725 1842 2E090000 		.4byte	.LVL211
 17726 1846 38090000 		.4byte	.LVL212
 17727 184a 0100     		.2byte	0x1
 17728 184c 53       		.byte	0x53
 17729 184d 38090000 		.4byte	.LVL212
 17730 1851 7C090000 		.4byte	.LVL213
 17731 1855 0200     		.2byte	0x2
 17732 1857 71       		.byte	0x71
 17733 1858 14       		.sleb128 20
 17734 1859 220A0000 		.4byte	.LVL233
 17735 185d 3C0A0000 		.4byte	.LVL235
 17736 1861 0100     		.2byte	0x1
 17737 1863 53       		.byte	0x53
 17738 1864 3C0A0000 		.4byte	.LVL235
 17739 1868 4C0A0000 		.4byte	.LVL237
 17740 186c 0200     		.2byte	0x2
 17741 186e 71       		.byte	0x71
 17742 186f 14       		.sleb128 20
 17743 1870 00000000 		.4byte	0
 17744 1874 00000000 		.4byte	0
 17745              	.LLST77:
 17746 1878 300A0000 		.4byte	.LVL234
 17747 187c 3E0A0000 		.4byte	.LVL236
 17748 1880 1100     		.2byte	0x11
 17749 1882 72       		.byte	0x72
 17750 1883 00       		.sleb128 0
 17751 1884 7E       		.byte	0x7e
 17752 1885 00       		.sleb128 0
 17753 1886 22       		.byte	0x22
 17754 1887 31       		.byte	0x31
 17755 1888 1C       		.byte	0x1c
 17756 1889 F7       		.byte	0xf7
 17757 188a 25       		.uleb128 0x25
 17758 188b 7E       		.byte	0x7e
 17759 188c 00       		.sleb128 0
 17760 188d F7       		.byte	0xf7
 17761 188e 25       		.uleb128 0x25
 17762 188f 1B       		.byte	0x1b
 17763 1890 F7       		.byte	0xf7
 17764 1891 00       		.uleb128 0
 17765 1892 9F       		.byte	0x9f
 17766 1893 00000000 		.4byte	0
 17767 1897 00000000 		.4byte	0
 17768              	.LLST78:
 17769 189b 7C090000 		.4byte	.LVL213
 17770 189f 82090000 		.4byte	.LVL214
 17771 18a3 0200     		.2byte	0x2
 17772 18a5 30       		.byte	0x30
 17773 18a6 9F       		.byte	0x9f
 17774 18a7 00000000 		.4byte	0
 17775 18ab 00000000 		.4byte	0
 17776              	.LLST79:
ARM GAS  /tmp/ccxvl19p.s 			page 313


 17777 18af 8C050000 		.4byte	.LVL118
 17778 18b3 D6050000 		.4byte	.LVL125
 17779 18b7 0100     		.2byte	0x1
 17780 18b9 51       		.byte	0x51
 17781 18ba E2050000 		.4byte	.LVL126
 17782 18be F0050000 		.4byte	.LVL127
 17783 18c2 0100     		.2byte	0x1
 17784 18c4 51       		.byte	0x51
 17785 18c5 24080000 		.4byte	.LVL187
 17786 18c9 26080000 		.4byte	.LVL188
 17787 18cd 0100     		.2byte	0x1
 17788 18cf 51       		.byte	0x51
 17789 18d0 00000000 		.4byte	0
 17790 18d4 00000000 		.4byte	0
 17791              	.LLST80:
 17792 18d8 A6050000 		.4byte	.LVL121
 17793 18dc BA050000 		.4byte	.LVL122
 17794 18e0 0100     		.2byte	0x1
 17795 18e2 51       		.byte	0x51
 17796 18e3 00000000 		.4byte	0
 17797 18e7 00000000 		.4byte	0
 17798              	.LLST81:
 17799 18eb BA050000 		.4byte	.LVL122
 17800 18ef BE050000 		.4byte	.LVL123
 17801 18f3 0100     		.2byte	0x1
 17802 18f5 53       		.byte	0x53
 17803 18f6 BE050000 		.4byte	.LVL123
 17804 18fa C4050000 		.4byte	.LVL124
 17805 18fe 0300     		.2byte	0x3
 17806 1900 73       		.byte	0x73
 17807 1901 7C       		.sleb128 -4
 17808 1902 9F       		.byte	0x9f
 17809 1903 00000000 		.4byte	0
 17810 1907 00000000 		.4byte	0
 17811              	.LLST82:
 17812 190b A6050000 		.4byte	.LVL121
 17813 190f C4050000 		.4byte	.LVL124
 17814 1913 0400     		.2byte	0x4
 17815 1915 78       		.byte	0x78
 17816 1916 8020     		.sleb128 4096
 17817 1918 9F       		.byte	0x9f
 17818 1919 00000000 		.4byte	0
 17819 191d 00000000 		.4byte	0
 17820              	.LLST83:
 17821 1921 F0050000 		.4byte	.LVL127
 17822 1925 B6060000 		.4byte	.LVL144
 17823 1929 0600     		.2byte	0x6
 17824 192b 03       		.byte	0x3
 17825 192c 00000000 		.4byte	USBD1
 17826 1930 9F       		.byte	0x9f
 17827 1931 34080000 		.4byte	.LVL189
 17828 1935 44080000 		.4byte	.LVL191
 17829 1939 0600     		.2byte	0x6
 17830 193b 03       		.byte	0x3
 17831 193c 00000000 		.4byte	USBD1
 17832 1940 9F       		.byte	0x9f
 17833 1941 AE080000 		.4byte	.LVL199
ARM GAS  /tmp/ccxvl19p.s 			page 314


 17834 1945 1C090000 		.4byte	.LVL207
 17835 1949 0600     		.2byte	0x6
 17836 194b 03       		.byte	0x3
 17837 194c 00000000 		.4byte	USBD1
 17838 1950 9F       		.byte	0x9f
 17839 1951 4C0A0000 		.4byte	.LVL237
 17840 1955 6A0A0000 		.4byte	.LVL242
 17841 1959 0600     		.2byte	0x6
 17842 195b 03       		.byte	0x3
 17843 195c 00000000 		.4byte	USBD1
 17844 1960 9F       		.byte	0x9f
 17845 1961 00000000 		.4byte	0
 17846 1965 00000000 		.4byte	0
 17847              	.LLST84:
 17848 1969 F0050000 		.4byte	.LVL127
 17849 196d B6060000 		.4byte	.LVL144
 17850 1971 0200     		.2byte	0x2
 17851 1973 32       		.byte	0x32
 17852 1974 9F       		.byte	0x9f
 17853 1975 34080000 		.4byte	.LVL189
 17854 1979 44080000 		.4byte	.LVL191
 17855 197d 0200     		.2byte	0x2
 17856 197f 32       		.byte	0x32
 17857 1980 9F       		.byte	0x9f
 17858 1981 AE080000 		.4byte	.LVL199
 17859 1985 1C090000 		.4byte	.LVL207
 17860 1989 0200     		.2byte	0x2
 17861 198b 32       		.byte	0x32
 17862 198c 9F       		.byte	0x9f
 17863 198d 4C0A0000 		.4byte	.LVL237
 17864 1991 6A0A0000 		.4byte	.LVL242
 17865 1995 0200     		.2byte	0x2
 17866 1997 32       		.byte	0x32
 17867 1998 9F       		.byte	0x9f
 17868 1999 00000000 		.4byte	0
 17869 199d 00000000 		.4byte	0
 17870              	.LLST85:
 17871 19a1 F2050000 		.4byte	.LVL128
 17872 19a5 32060000 		.4byte	.LVL135
 17873 19a9 0100     		.2byte	0x1
 17874 19ab 56       		.byte	0x56
 17875 19ac AE080000 		.4byte	.LVL199
 17876 19b0 1C090000 		.4byte	.LVL207
 17877 19b4 0100     		.2byte	0x1
 17878 19b6 56       		.byte	0x56
 17879 19b7 4C0A0000 		.4byte	.LVL237
 17880 19bb 6A0A0000 		.4byte	.LVL242
 17881 19bf 0100     		.2byte	0x1
 17882 19c1 56       		.byte	0x56
 17883 19c2 00000000 		.4byte	0
 17884 19c6 00000000 		.4byte	0
 17885              	.LLST86:
 17886 19ca F6050000 		.4byte	.LVL129
 17887 19ce 28060000 		.4byte	.LVL134
 17888 19d2 0100     		.2byte	0x1
 17889 19d4 57       		.byte	0x57
 17890 19d5 AE080000 		.4byte	.LVL199
ARM GAS  /tmp/ccxvl19p.s 			page 315


 17891 19d9 1C090000 		.4byte	.LVL207
 17892 19dd 0100     		.2byte	0x1
 17893 19df 57       		.byte	0x57
 17894 19e0 4C0A0000 		.4byte	.LVL237
 17895 19e4 6A0A0000 		.4byte	.LVL242
 17896 19e8 0100     		.2byte	0x1
 17897 19ea 57       		.byte	0x57
 17898 19eb 00000000 		.4byte	0
 17899 19ef 00000000 		.4byte	0
 17900              	.LLST87:
 17901 19f3 0A060000 		.4byte	.LVL130
 17902 19f7 16060000 		.4byte	.LVL131
 17903 19fb 0100     		.2byte	0x1
 17904 19fd 53       		.byte	0x53
 17905 19fe 16060000 		.4byte	.LVL131
 17906 1a02 22060000 		.4byte	.LVL132
 17907 1a06 0200     		.2byte	0x2
 17908 1a08 71       		.byte	0x71
 17909 1a09 14       		.sleb128 20
 17910 1a0a 22060000 		.4byte	.LVL132
 17911 1a0e 25060000 		.4byte	.LVL133-1
 17912 1a12 0500     		.2byte	0x5
 17913 1a14 74       		.byte	0x74
 17914 1a15 14       		.sleb128 20
 17915 1a16 06       		.byte	0x6
 17916 1a17 23       		.byte	0x23
 17917 1a18 14       		.uleb128 0x14
 17918 1a19 AE080000 		.4byte	.LVL199
 17919 1a1d B8080000 		.4byte	.LVL201
 17920 1a21 0100     		.2byte	0x1
 17921 1a23 53       		.byte	0x53
 17922 1a24 B8080000 		.4byte	.LVL201
 17923 1a28 1C090000 		.4byte	.LVL207
 17924 1a2c 0500     		.2byte	0x5
 17925 1a2e 74       		.byte	0x74
 17926 1a2f 14       		.sleb128 20
 17927 1a30 06       		.byte	0x6
 17928 1a31 23       		.byte	0x23
 17929 1a32 14       		.uleb128 0x14
 17930 1a33 4C0A0000 		.4byte	.LVL237
 17931 1a37 6A0A0000 		.4byte	.LVL242
 17932 1a3b 0500     		.2byte	0x5
 17933 1a3d 74       		.byte	0x74
 17934 1a3e 14       		.sleb128 20
 17935 1a3f 06       		.byte	0x6
 17936 1a40 23       		.byte	0x23
 17937 1a41 14       		.uleb128 0x14
 17938 1a42 00000000 		.4byte	0
 17939 1a46 00000000 		.4byte	0
 17940              	.LLST88:
 17941 1a4a B6080000 		.4byte	.LVL200
 17942 1a4e BC080000 		.4byte	.LVL202
 17943 1a52 0300     		.2byte	0x3
 17944 1a54 08       		.byte	0x8
 17945 1a55 20       		.byte	0x20
 17946 1a56 9F       		.byte	0x9f
 17947 1a57 00000000 		.4byte	0
ARM GAS  /tmp/ccxvl19p.s 			page 316


 17948 1a5b 00000000 		.4byte	0
 17949              	.LLST89:
 17950 1a5f BC080000 		.4byte	.LVL202
 17951 1a63 10090000 		.4byte	.LVL205
 17952 1a67 0200     		.2byte	0x2
 17953 1a69 32       		.byte	0x32
 17954 1a6a 9F       		.byte	0x9f
 17955 1a6b 4C0A0000 		.4byte	.LVL237
 17956 1a6f 6A0A0000 		.4byte	.LVL242
 17957 1a73 0200     		.2byte	0x2
 17958 1a75 32       		.byte	0x32
 17959 1a76 9F       		.byte	0x9f
 17960 1a77 00000000 		.4byte	0
 17961 1a7b 00000000 		.4byte	0
 17962              	.LLST90:
 17963 1a7f BC080000 		.4byte	.LVL202
 17964 1a83 10090000 		.4byte	.LVL205
 17965 1a87 0600     		.2byte	0x6
 17966 1a89 03       		.byte	0x3
 17967 1a8a 00000000 		.4byte	USBD1
 17968 1a8e 9F       		.byte	0x9f
 17969 1a8f 4C0A0000 		.4byte	.LVL237
 17970 1a93 6A0A0000 		.4byte	.LVL242
 17971 1a97 0600     		.2byte	0x6
 17972 1a99 03       		.byte	0x3
 17973 1a9a 00000000 		.4byte	USBD1
 17974 1a9e 9F       		.byte	0x9f
 17975 1a9f 00000000 		.4byte	0
 17976 1aa3 00000000 		.4byte	0
 17977              	.LLST91:
 17978 1aa7 C0080000 		.4byte	.LVL203
 17979 1aab CC080000 		.4byte	.LVL204
 17980 1aaf 0100     		.2byte	0x1
 17981 1ab1 53       		.byte	0x53
 17982 1ab2 CC080000 		.4byte	.LVL204
 17983 1ab6 10090000 		.4byte	.LVL205
 17984 1aba 0200     		.2byte	0x2
 17985 1abc 71       		.byte	0x71
 17986 1abd 14       		.sleb128 20
 17987 1abe 4C0A0000 		.4byte	.LVL237
 17988 1ac2 520A0000 		.4byte	.LVL239
 17989 1ac6 0100     		.2byte	0x1
 17990 1ac8 53       		.byte	0x53
 17991 1ac9 520A0000 		.4byte	.LVL239
 17992 1acd 6A0A0000 		.4byte	.LVL242
 17993 1ad1 0200     		.2byte	0x2
 17994 1ad3 71       		.byte	0x71
 17995 1ad4 14       		.sleb128 20
 17996 1ad5 00000000 		.4byte	0
 17997 1ad9 00000000 		.4byte	0
 17998              	.LLST92:
 17999 1add 500A0000 		.4byte	.LVL238
 18000 1ae1 5A0A0000 		.4byte	.LVL240
 18001 1ae5 1100     		.2byte	0x11
 18002 1ae7 72       		.byte	0x72
 18003 1ae8 00       		.sleb128 0
 18004 1ae9 7C       		.byte	0x7c
ARM GAS  /tmp/ccxvl19p.s 			page 317


 18005 1aea 00       		.sleb128 0
 18006 1aeb 22       		.byte	0x22
 18007 1aec 31       		.byte	0x31
 18008 1aed 1C       		.byte	0x1c
 18009 1aee F7       		.byte	0xf7
 18010 1aef 25       		.uleb128 0x25
 18011 1af0 7C       		.byte	0x7c
 18012 1af1 00       		.sleb128 0
 18013 1af2 F7       		.byte	0xf7
 18014 1af3 25       		.uleb128 0x25
 18015 1af4 1B       		.byte	0x1b
 18016 1af5 F7       		.byte	0xf7
 18017 1af6 00       		.uleb128 0
 18018 1af7 9F       		.byte	0x9f
 18019 1af8 5A0A0000 		.4byte	.LVL240
 18020 1afc 600A0000 		.4byte	.LVL241
 18021 1b00 1300     		.2byte	0x13
 18022 1b02 71       		.byte	0x71
 18023 1b03 14       		.sleb128 20
 18024 1b04 06       		.byte	0x6
 18025 1b05 06       		.byte	0x6
 18026 1b06 7C       		.byte	0x7c
 18027 1b07 00       		.sleb128 0
 18028 1b08 22       		.byte	0x22
 18029 1b09 31       		.byte	0x31
 18030 1b0a 1C       		.byte	0x1c
 18031 1b0b F7       		.byte	0xf7
 18032 1b0c 25       		.uleb128 0x25
 18033 1b0d 7C       		.byte	0x7c
 18034 1b0e 00       		.sleb128 0
 18035 1b0f F7       		.byte	0xf7
 18036 1b10 25       		.uleb128 0x25
 18037 1b11 1B       		.byte	0x1b
 18038 1b12 F7       		.byte	0xf7
 18039 1b13 00       		.uleb128 0
 18040 1b14 9F       		.byte	0x9f
 18041 1b15 600A0000 		.4byte	.LVL241
 18042 1b19 6A0A0000 		.4byte	.LVL242
 18043 1b1d 0100     		.2byte	0x1
 18044 1b1f 50       		.byte	0x50
 18045 1b20 00000000 		.4byte	0
 18046 1b24 00000000 		.4byte	0
 18047              	.LLST93:
 18048 1b28 10090000 		.4byte	.LVL205
 18049 1b2c 16090000 		.4byte	.LVL206
 18050 1b30 0200     		.2byte	0x2
 18051 1b32 30       		.byte	0x30
 18052 1b33 9F       		.byte	0x9f
 18053 1b34 00000000 		.4byte	0
 18054 1b38 00000000 		.4byte	0
 18055              	.LLST94:
 18056 1b3c 56060000 		.4byte	.LVL136
 18057 1b40 A0060000 		.4byte	.LVL142
 18058 1b44 0100     		.2byte	0x1
 18059 1b46 51       		.byte	0x51
 18060 1b47 AC060000 		.4byte	.LVL143
 18061 1b4b B6060000 		.4byte	.LVL144
ARM GAS  /tmp/ccxvl19p.s 			page 318


 18062 1b4f 0100     		.2byte	0x1
 18063 1b51 51       		.byte	0x51
 18064 1b52 34080000 		.4byte	.LVL189
 18065 1b56 36080000 		.4byte	.LVL190
 18066 1b5a 0100     		.2byte	0x1
 18067 1b5c 51       		.byte	0x51
 18068 1b5d 00000000 		.4byte	0
 18069 1b61 00000000 		.4byte	0
 18070              	.LLST95:
 18071 1b65 70060000 		.4byte	.LVL138
 18072 1b69 84060000 		.4byte	.LVL139
 18073 1b6d 0100     		.2byte	0x1
 18074 1b6f 51       		.byte	0x51
 18075 1b70 00000000 		.4byte	0
 18076 1b74 00000000 		.4byte	0
 18077              	.LLST96:
 18078 1b78 84060000 		.4byte	.LVL139
 18079 1b7c 88060000 		.4byte	.LVL140
 18080 1b80 0100     		.2byte	0x1
 18081 1b82 53       		.byte	0x53
 18082 1b83 88060000 		.4byte	.LVL140
 18083 1b87 8E060000 		.4byte	.LVL141
 18084 1b8b 0300     		.2byte	0x3
 18085 1b8d 73       		.byte	0x73
 18086 1b8e 7C       		.sleb128 -4
 18087 1b8f 9F       		.byte	0x9f
 18088 1b90 00000000 		.4byte	0
 18089 1b94 00000000 		.4byte	0
 18090              	.LLST97:
 18091 1b98 70060000 		.4byte	.LVL138
 18092 1b9c 8E060000 		.4byte	.LVL141
 18093 1ba0 0500     		.2byte	0x5
 18094 1ba2 78       		.byte	0x78
 18095 1ba3 80E000   		.sleb128 12288
 18096 1ba6 9F       		.byte	0x9f
 18097 1ba7 00000000 		.4byte	0
 18098 1bab 00000000 		.4byte	0
 18099              	.LLST98:
 18100 1baf B6060000 		.4byte	.LVL144
 18101 1bb3 00070000 		.4byte	.LVL152
 18102 1bb7 0600     		.2byte	0x6
 18103 1bb9 03       		.byte	0x3
 18104 1bba 00000000 		.4byte	USBD1
 18105 1bbe 9F       		.byte	0x9f
 18106 1bbf 00000000 		.4byte	0
 18107 1bc3 00000000 		.4byte	0
 18108              	.LLST99:
 18109 1bc7 B6060000 		.4byte	.LVL144
 18110 1bcb 00070000 		.4byte	.LVL152
 18111 1bcf 0200     		.2byte	0x2
 18112 1bd1 32       		.byte	0x32
 18113 1bd2 9F       		.byte	0x9f
 18114 1bd3 00000000 		.4byte	0
 18115 1bd7 00000000 		.4byte	0
 18116              	.LLST100:
 18117 1bdb B8060000 		.4byte	.LVL145
 18118 1bdf 00070000 		.4byte	.LVL152
ARM GAS  /tmp/ccxvl19p.s 			page 319


 18119 1be3 0100     		.2byte	0x1
 18120 1be5 56       		.byte	0x56
 18121 1be6 00000000 		.4byte	0
 18122 1bea 00000000 		.4byte	0
 18123              	.LLST101:
 18124 1bee BC060000 		.4byte	.LVL146
 18125 1bf2 D8060000 		.4byte	.LVL148
 18126 1bf6 0100     		.2byte	0x1
 18127 1bf8 57       		.byte	0x57
 18128 1bf9 00000000 		.4byte	0
 18129 1bfd 00000000 		.4byte	0
 18130              	.LLST102:
 18131 1c01 E8060000 		.4byte	.LVL149
 18132 1c05 EC060000 		.4byte	.LVL150
 18133 1c09 0200     		.2byte	0x2
 18134 1c0b 72       		.byte	0x72
 18135 1c0c 18       		.sleb128 24
 18136 1c0d EC060000 		.4byte	.LVL150
 18137 1c11 FD060000 		.4byte	.LVL151-1
 18138 1c15 0500     		.2byte	0x5
 18139 1c17 74       		.byte	0x74
 18140 1c18 14       		.sleb128 20
 18141 1c19 06       		.byte	0x6
 18142 1c1a 23       		.byte	0x23
 18143 1c1b 18       		.uleb128 0x18
 18144 1c1c 00000000 		.4byte	0
 18145 1c20 00000000 		.4byte	0
 18146              	.LLST103:
 18147 1c24 00070000 		.4byte	.LVL152
 18148 1c28 4A070000 		.4byte	.LVL160
 18149 1c2c 0600     		.2byte	0x6
 18150 1c2e 03       		.byte	0x3
 18151 1c2f 00000000 		.4byte	USBD1
 18152 1c33 9F       		.byte	0x9f
 18153 1c34 00000000 		.4byte	0
 18154 1c38 00000000 		.4byte	0
 18155              	.LLST104:
 18156 1c3c 00070000 		.4byte	.LVL152
 18157 1c40 4A070000 		.4byte	.LVL160
 18158 1c44 0200     		.2byte	0x2
 18159 1c46 31       		.byte	0x31
 18160 1c47 9F       		.byte	0x9f
 18161 1c48 00000000 		.4byte	0
 18162 1c4c 00000000 		.4byte	0
 18163              	.LLST105:
 18164 1c50 02070000 		.4byte	.LVL153
 18165 1c54 4A070000 		.4byte	.LVL160
 18166 1c58 0100     		.2byte	0x1
 18167 1c5a 56       		.byte	0x56
 18168 1c5b 00000000 		.4byte	0
 18169 1c5f 00000000 		.4byte	0
 18170              	.LLST106:
 18171 1c63 06070000 		.4byte	.LVL154
 18172 1c67 22070000 		.4byte	.LVL156
 18173 1c6b 0100     		.2byte	0x1
 18174 1c6d 57       		.byte	0x57
 18175 1c6e 00000000 		.4byte	0
ARM GAS  /tmp/ccxvl19p.s 			page 320


 18176 1c72 00000000 		.4byte	0
 18177              	.LLST107:
 18178 1c76 32070000 		.4byte	.LVL157
 18179 1c7a 36070000 		.4byte	.LVL158
 18180 1c7e 0200     		.2byte	0x2
 18181 1c80 72       		.byte	0x72
 18182 1c81 18       		.sleb128 24
 18183 1c82 36070000 		.4byte	.LVL158
 18184 1c86 47070000 		.4byte	.LVL159-1
 18185 1c8a 0500     		.2byte	0x5
 18186 1c8c 74       		.byte	0x74
 18187 1c8d 10       		.sleb128 16
 18188 1c8e 06       		.byte	0x6
 18189 1c8f 23       		.byte	0x23
 18190 1c90 18       		.uleb128 0x18
 18191 1c91 00000000 		.4byte	0
 18192 1c95 00000000 		.4byte	0
 18193              	.LLST108:
 18194 1c99 4A070000 		.4byte	.LVL160
 18195 1c9d AE070000 		.4byte	.LVL169
 18196 1ca1 0600     		.2byte	0x6
 18197 1ca3 03       		.byte	0x3
 18198 1ca4 00000000 		.4byte	USBD1
 18199 1ca8 9F       		.byte	0x9f
 18200 1ca9 6A0A0000 		.4byte	.LVL242
 18201 1cad E80A0000 		.4byte	.LFE342
 18202 1cb1 0600     		.2byte	0x6
 18203 1cb3 03       		.byte	0x3
 18204 1cb4 00000000 		.4byte	USBD1
 18205 1cb8 9F       		.byte	0x9f
 18206 1cb9 00000000 		.4byte	0
 18207 1cbd 00000000 		.4byte	0
 18208              	.LLST109:
 18209 1cc1 4A070000 		.4byte	.LVL160
 18210 1cc5 AE070000 		.4byte	.LVL169
 18211 1cc9 0200     		.2byte	0x2
 18212 1ccb 30       		.byte	0x30
 18213 1ccc 9F       		.byte	0x9f
 18214 1ccd 6A0A0000 		.4byte	.LVL242
 18215 1cd1 E80A0000 		.4byte	.LFE342
 18216 1cd5 0200     		.2byte	0x2
 18217 1cd7 30       		.byte	0x30
 18218 1cd8 9F       		.byte	0x9f
 18219 1cd9 00000000 		.4byte	0
 18220 1cdd 00000000 		.4byte	0
 18221              	.LLST110:
 18222 1ce1 4C070000 		.4byte	.LVL161
 18223 1ce5 82070000 		.4byte	.LVL166
 18224 1ce9 0100     		.2byte	0x1
 18225 1ceb 56       		.byte	0x56
 18226 1cec 00000000 		.4byte	0
 18227 1cf0 00000000 		.4byte	0
 18228              	.LLST111:
 18229 1cf4 50070000 		.4byte	.LVL162
 18230 1cf8 6C070000 		.4byte	.LVL164
 18231 1cfc 0100     		.2byte	0x1
 18232 1cfe 57       		.byte	0x57
ARM GAS  /tmp/ccxvl19p.s 			page 321


 18233 1cff 00000000 		.4byte	0
 18234 1d03 00000000 		.4byte	0
 18235              	.LLST112:
 18236 1d07 7E070000 		.4byte	.LVL165
 18237 1d0b A8070000 		.4byte	.LVL167
 18238 1d0f 0100     		.2byte	0x1
 18239 1d11 51       		.byte	0x51
 18240 1d12 A8070000 		.4byte	.LVL167
 18241 1d16 AB070000 		.4byte	.LVL168-1
 18242 1d1a 0500     		.2byte	0x5
 18243 1d1c 74       		.byte	0x74
 18244 1d1d 0C       		.sleb128 12
 18245 1d1e 06       		.byte	0x6
 18246 1d1f 23       		.byte	0x23
 18247 1d20 18       		.uleb128 0x18
 18248 1d21 6A0A0000 		.4byte	.LVL242
 18249 1d25 7E0A0000 		.4byte	.LVL246
 18250 1d29 0100     		.2byte	0x1
 18251 1d2b 51       		.byte	0x51
 18252 1d2c 7E0A0000 		.4byte	.LVL246
 18253 1d30 E80A0000 		.4byte	.LFE342
 18254 1d34 0500     		.2byte	0x5
 18255 1d36 74       		.byte	0x74
 18256 1d37 0C       		.sleb128 12
 18257 1d38 06       		.byte	0x6
 18258 1d39 23       		.byte	0x23
 18259 1d3a 18       		.uleb128 0x18
 18260 1d3b 00000000 		.4byte	0
 18261 1d3f 00000000 		.4byte	0
 18262              	.LLST113:
 18263 1d43 700A0000 		.4byte	.LVL243
 18264 1d47 760A0000 		.4byte	.LVL244
 18265 1d4b 0300     		.2byte	0x3
 18266 1d4d 08       		.byte	0x8
 18267 1d4e 20       		.byte	0x20
 18268 1d4f 9F       		.byte	0x9f
 18269 1d50 00000000 		.4byte	0
 18270 1d54 00000000 		.4byte	0
 18271              	.LLST114:
 18272 1d58 760A0000 		.4byte	.LVL244
 18273 1d5c D80A0000 		.4byte	.LVL255
 18274 1d60 0200     		.2byte	0x2
 18275 1d62 30       		.byte	0x30
 18276 1d63 9F       		.byte	0x9f
 18277 1d64 00000000 		.4byte	0
 18278 1d68 00000000 		.4byte	0
 18279              	.LLST115:
 18280 1d6c 760A0000 		.4byte	.LVL244
 18281 1d70 D80A0000 		.4byte	.LVL255
 18282 1d74 0600     		.2byte	0x6
 18283 1d76 03       		.byte	0x3
 18284 1d77 00000000 		.4byte	USBD1
 18285 1d7b 9F       		.byte	0x9f
 18286 1d7c 00000000 		.4byte	0
 18287 1d80 00000000 		.4byte	0
 18288              	.LLST116:
 18289 1d84 940A0000 		.4byte	.LVL249
ARM GAS  /tmp/ccxvl19p.s 			page 322


 18290 1d88 A60A0000 		.4byte	.LVL253
 18291 1d8c 0100     		.2byte	0x1
 18292 1d8e 51       		.byte	0x51
 18293 1d8f AC0A0000 		.4byte	.LVL254
 18294 1d93 D80A0000 		.4byte	.LVL255
 18295 1d97 3000     		.2byte	0x30
 18296 1d99 08       		.byte	0x8
 18297 1d9a 40       		.byte	0x40
 18298 1d9b 74       		.byte	0x74
 18299 1d9c 0C       		.sleb128 12
 18300 1d9d 06       		.byte	0x6
 18301 1d9e 23       		.byte	0x23
 18302 1d9f 18       		.uleb128 0x18
 18303 1da0 06       		.byte	0x6
 18304 1da1 23       		.byte	0x23
 18305 1da2 0C       		.uleb128 0xc
 18306 1da3 06       		.byte	0x6
 18307 1da4 74       		.byte	0x74
 18308 1da5 0C       		.sleb128 12
 18309 1da6 06       		.byte	0x6
 18310 1da7 23       		.byte	0x23
 18311 1da8 18       		.uleb128 0x18
 18312 1da9 06       		.byte	0x6
 18313 1daa 23       		.byte	0x23
 18314 1dab 0C       		.uleb128 0xc
 18315 1dac 06       		.byte	0x6
 18316 1dad 40       		.byte	0x40
 18317 1dae 4B       		.byte	0x4b
 18318 1daf 24       		.byte	0x24
 18319 1db0 22       		.byte	0x22
 18320 1db1 0C       		.byte	0xc
 18321 1db2 40000080 		.4byte	0x80000040
 18322 1db6 2B       		.byte	0x2b
 18323 1db7 28       		.byte	0x28
 18324 1db8 0100     		.2byte	0x1
 18325 1dba 16       		.byte	0x16
 18326 1dbb 13       		.byte	0x13
 18327 1dbc 70       		.byte	0x70
 18328 1dbd 00       		.sleb128 0
 18329 1dbe 22       		.byte	0x22
 18330 1dbf F7       		.byte	0xf7
 18331 1dc0 25       		.uleb128 0x25
 18332 1dc1 70       		.byte	0x70
 18333 1dc2 01       		.sleb128 1
 18334 1dc3 F7       		.byte	0xf7
 18335 1dc4 25       		.uleb128 0x25
 18336 1dc5 1B       		.byte	0x1b
 18337 1dc6 F7       		.byte	0xf7
 18338 1dc7 00       		.uleb128 0
 18339 1dc8 9F       		.byte	0x9f
 18340 1dc9 00000000 		.4byte	0
 18341 1dcd 00000000 		.4byte	0
 18342              	.LLST117:
 18343 1dd1 940A0000 		.4byte	.LVL249
 18344 1dd5 980A0000 		.4byte	.LVL250
 18345 1dd9 0B00     		.2byte	0xb
 18346 1ddb 73       		.byte	0x73
ARM GAS  /tmp/ccxvl19p.s 			page 323


 18347 1ddc 00       		.sleb128 0
 18348 1ddd 71       		.byte	0x71
 18349 1dde 00       		.sleb128 0
 18350 1ddf 1E       		.byte	0x1e
 18351 1de0 23       		.byte	0x23
 18352 1de1 03       		.uleb128 0x3
 18353 1de2 09       		.byte	0x9
 18354 1de3 FC       		.byte	0xfc
 18355 1de4 1A       		.byte	0x1a
 18356 1de5 9F       		.byte	0x9f
 18357 1de6 980A0000 		.4byte	.LVL250
 18358 1dea 9E0A0000 		.4byte	.LVL251
 18359 1dee 0B00     		.2byte	0xb
 18360 1df0 70       		.byte	0x70
 18361 1df1 01       		.sleb128 1
 18362 1df2 71       		.byte	0x71
 18363 1df3 00       		.sleb128 0
 18364 1df4 1E       		.byte	0x1e
 18365 1df5 23       		.byte	0x23
 18366 1df6 03       		.uleb128 0x3
 18367 1df7 09       		.byte	0x9
 18368 1df8 FC       		.byte	0xfc
 18369 1df9 1A       		.byte	0x1a
 18370 1dfa 9F       		.byte	0x9f
 18371 1dfb 9E0A0000 		.4byte	.LVL251
 18372 1dff A20A0000 		.4byte	.LVL252
 18373 1e03 0100     		.2byte	0x1
 18374 1e05 53       		.byte	0x53
 18375 1e06 A20A0000 		.4byte	.LVL252
 18376 1e0a A60A0000 		.4byte	.LVL253
 18377 1e0e 0B00     		.2byte	0xb
 18378 1e10 70       		.byte	0x70
 18379 1e11 01       		.sleb128 1
 18380 1e12 71       		.byte	0x71
 18381 1e13 00       		.sleb128 0
 18382 1e14 1E       		.byte	0x1e
 18383 1e15 23       		.byte	0x23
 18384 1e16 03       		.uleb128 0x3
 18385 1e17 09       		.byte	0x9
 18386 1e18 FC       		.byte	0xfc
 18387 1e19 1A       		.byte	0x1a
 18388 1e1a 9F       		.byte	0x9f
 18389 1e1b AC0A0000 		.4byte	.LVL254
 18390 1e1f D80A0000 		.4byte	.LVL255
 18391 1e23 3800     		.2byte	0x38
 18392 1e25 70       		.byte	0x70
 18393 1e26 01       		.sleb128 1
 18394 1e27 08       		.byte	0x8
 18395 1e28 40       		.byte	0x40
 18396 1e29 74       		.byte	0x74
 18397 1e2a 0C       		.sleb128 12
 18398 1e2b 06       		.byte	0x6
 18399 1e2c 23       		.byte	0x23
 18400 1e2d 18       		.uleb128 0x18
 18401 1e2e 06       		.byte	0x6
 18402 1e2f 23       		.byte	0x23
 18403 1e30 0C       		.uleb128 0xc
ARM GAS  /tmp/ccxvl19p.s 			page 324


 18404 1e31 06       		.byte	0x6
 18405 1e32 74       		.byte	0x74
 18406 1e33 0C       		.sleb128 12
 18407 1e34 06       		.byte	0x6
 18408 1e35 23       		.byte	0x23
 18409 1e36 18       		.uleb128 0x18
 18410 1e37 06       		.byte	0x6
 18411 1e38 23       		.byte	0x23
 18412 1e39 0C       		.uleb128 0xc
 18413 1e3a 06       		.byte	0x6
 18414 1e3b 40       		.byte	0x40
 18415 1e3c 4B       		.byte	0x4b
 18416 1e3d 24       		.byte	0x24
 18417 1e3e 22       		.byte	0x22
 18418 1e3f 0C       		.byte	0xc
 18419 1e40 40000080 		.4byte	0x80000040
 18420 1e44 2B       		.byte	0x2b
 18421 1e45 28       		.byte	0x28
 18422 1e46 0100     		.2byte	0x1
 18423 1e48 16       		.byte	0x16
 18424 1e49 13       		.byte	0x13
 18425 1e4a 70       		.byte	0x70
 18426 1e4b 00       		.sleb128 0
 18427 1e4c 22       		.byte	0x22
 18428 1e4d F7       		.byte	0xf7
 18429 1e4e 25       		.uleb128 0x25
 18430 1e4f 70       		.byte	0x70
 18431 1e50 01       		.sleb128 1
 18432 1e51 F7       		.byte	0xf7
 18433 1e52 25       		.uleb128 0x25
 18434 1e53 1B       		.byte	0x1b
 18435 1e54 F7       		.byte	0xf7
 18436 1e55 00       		.uleb128 0
 18437 1e56 1E       		.byte	0x1e
 18438 1e57 23       		.byte	0x23
 18439 1e58 03       		.uleb128 0x3
 18440 1e59 09       		.byte	0x9
 18441 1e5a FC       		.byte	0xfc
 18442 1e5b 1A       		.byte	0x1a
 18443 1e5c 9F       		.byte	0x9f
 18444 1e5d 00000000 		.4byte	0
 18445 1e61 00000000 		.4byte	0
 18446              	.LLST118:
 18447 1e65 7A0A0000 		.4byte	.LVL245
 18448 1e69 8A0A0000 		.4byte	.LVL247
 18449 1e6d 0100     		.2byte	0x1
 18450 1e6f 53       		.byte	0x53
 18451 1e70 8A0A0000 		.4byte	.LVL247
 18452 1e74 8C0A0000 		.4byte	.LVL248
 18453 1e78 0200     		.2byte	0x2
 18454 1e7a 72       		.byte	0x72
 18455 1e7b 18       		.sleb128 24
 18456 1e7c 8C0A0000 		.4byte	.LVL248
 18457 1e80 D80A0000 		.4byte	.LVL255
 18458 1e84 0500     		.2byte	0x5
 18459 1e86 74       		.byte	0x74
 18460 1e87 0C       		.sleb128 12
ARM GAS  /tmp/ccxvl19p.s 			page 325


 18461 1e88 06       		.byte	0x6
 18462 1e89 23       		.byte	0x23
 18463 1e8a 18       		.uleb128 0x18
 18464 1e8b 00000000 		.4byte	0
 18465 1e8f 00000000 		.4byte	0
 18466              	.LLST119:
 18467 1e93 D80A0000 		.4byte	.LVL255
 18468 1e97 DE0A0000 		.4byte	.LVL256
 18469 1e9b 0200     		.2byte	0x2
 18470 1e9d 30       		.byte	0x30
 18471 1e9e 9F       		.byte	0x9f
 18472 1e9f 00000000 		.4byte	0
 18473 1ea3 00000000 		.4byte	0
 18474              	.LLST177:
 18475 1ea7 00000000 		.4byte	.LVL392
 18476 1eab 1C000000 		.4byte	.LVL395
 18477 1eaf 0100     		.2byte	0x1
 18478 1eb1 50       		.byte	0x50
 18479 1eb2 1C000000 		.4byte	.LVL395
 18480 1eb6 80000000 		.4byte	.LFE353
 18481 1eba 0400     		.2byte	0x4
 18482 1ebc F3       		.byte	0xf3
 18483 1ebd 01       		.uleb128 0x1
 18484 1ebe 50       		.byte	0x50
 18485 1ebf 9F       		.byte	0x9f
 18486 1ec0 00000000 		.4byte	0
 18487 1ec4 00000000 		.4byte	0
 18488              	.LLST178:
 18489 1ec8 00000000 		.4byte	.LVL392
 18490 1ecc 4A000000 		.4byte	.LVL402
 18491 1ed0 0100     		.2byte	0x1
 18492 1ed2 51       		.byte	0x51
 18493 1ed3 4A000000 		.4byte	.LVL402
 18494 1ed7 5E000000 		.4byte	.LVL403
 18495 1edb 0400     		.2byte	0x4
 18496 1edd F3       		.byte	0xf3
 18497 1ede 01       		.uleb128 0x1
 18498 1edf 51       		.byte	0x51
 18499 1ee0 9F       		.byte	0x9f
 18500 1ee1 5E000000 		.4byte	.LVL403
 18501 1ee5 60000000 		.4byte	.LVL404
 18502 1ee9 0100     		.2byte	0x1
 18503 1eeb 51       		.byte	0x51
 18504 1eec 60000000 		.4byte	.LVL404
 18505 1ef0 80000000 		.4byte	.LFE353
 18506 1ef4 0400     		.2byte	0x4
 18507 1ef6 F3       		.byte	0xf3
 18508 1ef7 01       		.uleb128 0x1
 18509 1ef8 51       		.byte	0x51
 18510 1ef9 9F       		.byte	0x9f
 18511 1efa 00000000 		.4byte	0
 18512 1efe 00000000 		.4byte	0
 18513              	.LLST179:
 18514 1f02 26000000 		.4byte	.LVL397
 18515 1f06 3C000000 		.4byte	.LVL401
 18516 1f0a 0100     		.2byte	0x1
 18517 1f0c 52       		.byte	0x52
ARM GAS  /tmp/ccxvl19p.s 			page 326


 18518 1f0d 00000000 		.4byte	0
 18519 1f11 00000000 		.4byte	0
 18520              	.LLST180:
 18521 1f15 26000000 		.4byte	.LVL397
 18522 1f19 2A000000 		.4byte	.LVL398
 18523 1f1d 0B00     		.2byte	0xb
 18524 1f1f 73       		.byte	0x73
 18525 1f20 00       		.sleb128 0
 18526 1f21 72       		.byte	0x72
 18527 1f22 00       		.sleb128 0
 18528 1f23 1E       		.byte	0x1e
 18529 1f24 23       		.byte	0x23
 18530 1f25 03       		.uleb128 0x3
 18531 1f26 09       		.byte	0x9
 18532 1f27 FC       		.byte	0xfc
 18533 1f28 1A       		.byte	0x1a
 18534 1f29 9F       		.byte	0x9f
 18535 1f2a 2A000000 		.4byte	.LVL398
 18536 1f2e 30000000 		.4byte	.LVL399
 18537 1f32 1C00     		.2byte	0x1c
 18538 1f34 71       		.byte	0x71
 18539 1f35 00       		.sleb128 0
 18540 1f36 32       		.byte	0x32
 18541 1f37 24       		.byte	0x24
 18542 1f38 F3       		.byte	0xf3
 18543 1f39 01       		.uleb128 0x1
 18544 1f3a 50       		.byte	0x50
 18545 1f3b 22       		.byte	0x22
 18546 1f3c 23       		.byte	0x23
 18547 1f3d 0C       		.uleb128 0xc
 18548 1f3e 06       		.byte	0x6
 18549 1f3f 23       		.byte	0x23
 18550 1f40 12       		.uleb128 0x12
 18551 1f41 94       		.byte	0x94
 18552 1f42 02       		.byte	0x2
 18553 1f43 0A       		.byte	0xa
 18554 1f44 FFFF     		.2byte	0xffff
 18555 1f46 1A       		.byte	0x1a
 18556 1f47 72       		.byte	0x72
 18557 1f48 00       		.sleb128 0
 18558 1f49 1E       		.byte	0x1e
 18559 1f4a 23       		.byte	0x23
 18560 1f4b 03       		.uleb128 0x3
 18561 1f4c 09       		.byte	0x9
 18562 1f4d FC       		.byte	0xfc
 18563 1f4e 1A       		.byte	0x1a
 18564 1f4f 9F       		.byte	0x9f
 18565 1f50 30000000 		.4byte	.LVL399
 18566 1f54 34000000 		.4byte	.LVL400
 18567 1f58 0100     		.2byte	0x1
 18568 1f5a 53       		.byte	0x53
 18569 1f5b 34000000 		.4byte	.LVL400
 18570 1f5f 3C000000 		.4byte	.LVL401
 18571 1f63 1C00     		.2byte	0x1c
 18572 1f65 71       		.byte	0x71
 18573 1f66 00       		.sleb128 0
 18574 1f67 32       		.byte	0x32
ARM GAS  /tmp/ccxvl19p.s 			page 327


 18575 1f68 24       		.byte	0x24
 18576 1f69 F3       		.byte	0xf3
 18577 1f6a 01       		.uleb128 0x1
 18578 1f6b 50       		.byte	0x50
 18579 1f6c 22       		.byte	0x22
 18580 1f6d 23       		.byte	0x23
 18581 1f6e 0C       		.uleb128 0xc
 18582 1f6f 06       		.byte	0x6
 18583 1f70 23       		.byte	0x23
 18584 1f71 12       		.uleb128 0x12
 18585 1f72 94       		.byte	0x94
 18586 1f73 02       		.byte	0x2
 18587 1f74 0A       		.byte	0xa
 18588 1f75 FFFF     		.2byte	0xffff
 18589 1f77 1A       		.byte	0x1a
 18590 1f78 72       		.byte	0x72
 18591 1f79 00       		.sleb128 0
 18592 1f7a 1E       		.byte	0x1e
 18593 1f7b 23       		.byte	0x23
 18594 1f7c 03       		.uleb128 0x3
 18595 1f7d 09       		.byte	0x9
 18596 1f7e FC       		.byte	0xfc
 18597 1f7f 1A       		.byte	0x1a
 18598 1f80 9F       		.byte	0x9f
 18599 1f81 00000000 		.4byte	0
 18600 1f85 00000000 		.4byte	0
 18601              	.LLST181:
 18602 1f89 0A000000 		.4byte	.LVL393
 18603 1f8d 1A000000 		.4byte	.LVL394
 18604 1f91 0100     		.2byte	0x1
 18605 1f93 53       		.byte	0x53
 18606 1f94 1A000000 		.4byte	.LVL394
 18607 1f98 1E000000 		.4byte	.LVL396
 18608 1f9c 0200     		.2byte	0x2
 18609 1f9e 75       		.byte	0x75
 18610 1f9f 18       		.sleb128 24
 18611 1fa0 1E000000 		.4byte	.LVL396
 18612 1fa4 4A000000 		.4byte	.LVL402
 18613 1fa8 0D00     		.2byte	0xd
 18614 1faa 71       		.byte	0x71
 18615 1fab 00       		.sleb128 0
 18616 1fac 32       		.byte	0x32
 18617 1fad 24       		.byte	0x24
 18618 1fae F3       		.byte	0xf3
 18619 1faf 01       		.uleb128 0x1
 18620 1fb0 50       		.byte	0x50
 18621 1fb1 22       		.byte	0x22
 18622 1fb2 23       		.byte	0x23
 18623 1fb3 0C       		.uleb128 0xc
 18624 1fb4 06       		.byte	0x6
 18625 1fb5 23       		.byte	0x23
 18626 1fb6 18       		.uleb128 0x18
 18627 1fb7 5E000000 		.4byte	.LVL403
 18628 1fbb 60000000 		.4byte	.LVL404
 18629 1fbf 0D00     		.2byte	0xd
 18630 1fc1 71       		.byte	0x71
 18631 1fc2 00       		.sleb128 0
ARM GAS  /tmp/ccxvl19p.s 			page 328


 18632 1fc3 32       		.byte	0x32
 18633 1fc4 24       		.byte	0x24
 18634 1fc5 F3       		.byte	0xf3
 18635 1fc6 01       		.uleb128 0x1
 18636 1fc7 50       		.byte	0x50
 18637 1fc8 22       		.byte	0x22
 18638 1fc9 23       		.byte	0x23
 18639 1fca 0C       		.uleb128 0xc
 18640 1fcb 06       		.byte	0x6
 18641 1fcc 23       		.byte	0x23
 18642 1fcd 18       		.uleb128 0x18
 18643 1fce 00000000 		.4byte	0
 18644 1fd2 00000000 		.4byte	0
 18645              	.LLST182:
 18646 1fd6 00000000 		.4byte	.LVL405
 18647 1fda 08000000 		.4byte	.LVL406
 18648 1fde 0100     		.2byte	0x1
 18649 1fe0 50       		.byte	0x50
 18650 1fe1 08000000 		.4byte	.LVL406
 18651 1fe5 A8000000 		.4byte	.LFE354
 18652 1fe9 0400     		.2byte	0x4
 18653 1feb F3       		.byte	0xf3
 18654 1fec 01       		.uleb128 0x1
 18655 1fed 50       		.byte	0x50
 18656 1fee 9F       		.byte	0x9f
 18657 1fef 00000000 		.4byte	0
 18658 1ff3 00000000 		.4byte	0
 18659              	.LLST183:
 18660 1ff7 00000000 		.4byte	.LVL405
 18661 1ffb 44000000 		.4byte	.LVL410
 18662 1fff 0100     		.2byte	0x1
 18663 2001 51       		.byte	0x51
 18664 2002 44000000 		.4byte	.LVL410
 18665 2006 4E000000 		.4byte	.LVL411
 18666 200a 0400     		.2byte	0x4
 18667 200c F3       		.byte	0xf3
 18668 200d 01       		.uleb128 0x1
 18669 200e 51       		.byte	0x51
 18670 200f 9F       		.byte	0x9f
 18671 2010 4E000000 		.4byte	.LVL411
 18672 2014 A8000000 		.4byte	.LFE354
 18673 2018 0100     		.2byte	0x1
 18674 201a 51       		.byte	0x51
 18675 201b 00000000 		.4byte	0
 18676 201f 00000000 		.4byte	0
 18677              	.LLST184:
 18678 2023 0C000000 		.4byte	.LVL407
 18679 2027 1A000000 		.4byte	.LVL408
 18680 202b 0100     		.2byte	0x1
 18681 202d 54       		.byte	0x54
 18682 202e 1A000000 		.4byte	.LVL408
 18683 2032 2A000000 		.4byte	.LVL409
 18684 2036 0200     		.2byte	0x2
 18685 2038 70       		.byte	0x70
 18686 2039 14       		.sleb128 20
 18687 203a 2A000000 		.4byte	.LVL409
 18688 203e 44000000 		.4byte	.LVL410
ARM GAS  /tmp/ccxvl19p.s 			page 329


 18689 2042 0D00     		.2byte	0xd
 18690 2044 71       		.byte	0x71
 18691 2045 00       		.sleb128 0
 18692 2046 32       		.byte	0x32
 18693 2047 24       		.byte	0x24
 18694 2048 F3       		.byte	0xf3
 18695 2049 01       		.uleb128 0x1
 18696 204a 50       		.byte	0x50
 18697 204b 22       		.byte	0x22
 18698 204c 23       		.byte	0x23
 18699 204d 0C       		.uleb128 0xc
 18700 204e 06       		.byte	0x6
 18701 204f 23       		.byte	0x23
 18702 2050 14       		.uleb128 0x14
 18703 2051 4E000000 		.4byte	.LVL411
 18704 2055 5C000000 		.4byte	.LVL413
 18705 2059 0100     		.2byte	0x1
 18706 205b 54       		.byte	0x54
 18707 205c 5C000000 		.4byte	.LVL413
 18708 2060 76000000 		.4byte	.LVL415
 18709 2064 0200     		.2byte	0x2
 18710 2066 70       		.byte	0x70
 18711 2067 14       		.sleb128 20
 18712 2068 76000000 		.4byte	.LVL415
 18713 206c 96000000 		.4byte	.LVL416
 18714 2070 0D00     		.2byte	0xd
 18715 2072 71       		.byte	0x71
 18716 2073 00       		.sleb128 0
 18717 2074 32       		.byte	0x32
 18718 2075 24       		.byte	0x24
 18719 2076 F3       		.byte	0xf3
 18720 2077 01       		.uleb128 0x1
 18721 2078 50       		.byte	0x50
 18722 2079 22       		.byte	0x22
 18723 207a 23       		.byte	0x23
 18724 207b 0C       		.uleb128 0xc
 18725 207c 06       		.byte	0x6
 18726 207d 23       		.byte	0x23
 18727 207e 14       		.uleb128 0x14
 18728 207f 96000000 		.4byte	.LVL416
 18729 2083 A8000000 		.4byte	.LFE354
 18730 2087 0100     		.2byte	0x1
 18731 2089 54       		.byte	0x54
 18732 208a 00000000 		.4byte	0
 18733 208e 00000000 		.4byte	0
 18734              	.LLST185:
 18735 2092 56000000 		.4byte	.LVL412
 18736 2096 5E000000 		.4byte	.LVL414
 18737 209a 1100     		.2byte	0x11
 18738 209c 73       		.byte	0x73
 18739 209d 00       		.sleb128 0
 18740 209e 77       		.byte	0x77
 18741 209f 00       		.sleb128 0
 18742 20a0 22       		.byte	0x22
 18743 20a1 31       		.byte	0x31
 18744 20a2 1C       		.byte	0x1c
 18745 20a3 F7       		.byte	0xf7
ARM GAS  /tmp/ccxvl19p.s 			page 330


 18746 20a4 25       		.uleb128 0x25
 18747 20a5 77       		.byte	0x77
 18748 20a6 00       		.sleb128 0
 18749 20a7 F7       		.byte	0xf7
 18750 20a8 25       		.uleb128 0x25
 18751 20a9 1B       		.byte	0x1b
 18752 20aa F7       		.byte	0xf7
 18753 20ab 00       		.uleb128 0
 18754 20ac 9F       		.byte	0x9f
 18755 20ad 00000000 		.4byte	0
 18756 20b1 00000000 		.4byte	0
 18757              		.section	.debug_aranges,"",%progbits
 18758 0000 9C000000 		.4byte	0x9c
 18759 0004 0200     		.2byte	0x2
 18760 0006 00000000 		.4byte	.Ldebug_info0
 18761 000a 04       		.byte	0x4
 18762 000b 00       		.byte	0
 18763 000c 0000     		.2byte	0
 18764 000e 0000     		.2byte	0
 18765 0010 00000000 		.4byte	.LFB342
 18766 0014 E80A0000 		.4byte	.LFE342-.LFB342
 18767 0018 00000000 		.4byte	.LFB343
 18768 001c 20000000 		.4byte	.LFE343-.LFB343
 18769 0020 00000000 		.4byte	.LFB344
 18770 0024 AC020000 		.4byte	.LFE344-.LFB344
 18771 0028 00000000 		.4byte	.LFB345
 18772 002c 20020000 		.4byte	.LFE345-.LFB345
 18773 0030 00000000 		.4byte	.LFB346
 18774 0034 E0010000 		.4byte	.LFE346-.LFB346
 18775 0038 00000000 		.4byte	.LFB347
 18776 003c 18000000 		.4byte	.LFE347-.LFB347
 18777 0040 00000000 		.4byte	.LFB348
 18778 0044 64010000 		.4byte	.LFE348-.LFB348
 18779 0048 00000000 		.4byte	.LFB349
 18780 004c E8010000 		.4byte	.LFE349-.LFB349
 18781 0050 00000000 		.4byte	.LFB350
 18782 0054 1A000000 		.4byte	.LFE350-.LFB350
 18783 0058 00000000 		.4byte	.LFB351
 18784 005c 1A000000 		.4byte	.LFE351-.LFB351
 18785 0060 00000000 		.4byte	.LFB352
 18786 0064 12000000 		.4byte	.LFE352-.LFB352
 18787 0068 00000000 		.4byte	.LFB353
 18788 006c 80000000 		.4byte	.LFE353-.LFB353
 18789 0070 00000000 		.4byte	.LFB354
 18790 0074 A8000000 		.4byte	.LFE354-.LFB354
 18791 0078 00000000 		.4byte	.LFB355
 18792 007c 14000000 		.4byte	.LFE355-.LFB355
 18793 0080 00000000 		.4byte	.LFB356
 18794 0084 14000000 		.4byte	.LFE356-.LFB356
 18795 0088 00000000 		.4byte	.LFB357
 18796 008c 14000000 		.4byte	.LFE357-.LFB357
 18797 0090 00000000 		.4byte	.LFB358
 18798 0094 14000000 		.4byte	.LFE358-.LFB358
 18799 0098 00000000 		.4byte	0
 18800 009c 00000000 		.4byte	0
 18801              		.section	.debug_ranges,"",%progbits
 18802              	.Ldebug_ranges0:
ARM GAS  /tmp/ccxvl19p.s 			page 331


 18803 0000 04000000 		.4byte	.LBB335
 18804 0004 1A000000 		.4byte	.LBE335
 18805 0008 1C000000 		.4byte	.LBB539
 18806 000c BA000000 		.4byte	.LBE539
 18807 0010 C4000000 		.4byte	.LBB540
 18808 0014 E6020000 		.4byte	.LBE540
 18809 0018 F4020000 		.4byte	.LBB541
 18810 001c E80A0000 		.4byte	.LBE541
 18811 0020 00000000 		.4byte	0
 18812 0024 00000000 		.4byte	0
 18813 0028 F2000000 		.4byte	.LBB337
 18814 002c 60010000 		.4byte	.LBE337
 18815 0030 FC030000 		.4byte	.LBB402
 18816 0034 56040000 		.4byte	.LBE402
 18817 0038 B6070000 		.4byte	.LBB521
 18818 003c F2070000 		.4byte	.LBE521
 18819 0040 00000000 		.4byte	0
 18820 0044 00000000 		.4byte	0
 18821 0048 18010000 		.4byte	.LBB339
 18822 004c 60010000 		.4byte	.LBE339
 18823 0050 40040000 		.4byte	.LBB345
 18824 0054 56040000 		.4byte	.LBE345
 18825 0058 00000000 		.4byte	0
 18826 005c 00000000 		.4byte	0
 18827 0060 0E040000 		.4byte	.LBB342
 18828 0064 36040000 		.4byte	.LBE342
 18829 0068 B6070000 		.4byte	.LBB346
 18830 006c F2070000 		.4byte	.LBE346
 18831 0070 00000000 		.4byte	0
 18832 0074 00000000 		.4byte	0
 18833 0078 60010000 		.4byte	.LBB349
 18834 007c 78020000 		.4byte	.LBE349
 18835 0080 F2070000 		.4byte	.LBB522
 18836 0084 06080000 		.4byte	.LBE522
 18837 0088 00000000 		.4byte	0
 18838 008c 00000000 		.4byte	0
 18839 0090 B0010000 		.4byte	.LBB351
 18840 0094 B2010000 		.4byte	.LBE351
 18841 0098 B4010000 		.4byte	.LBB357
 18842 009c C0010000 		.4byte	.LBE357
 18843 00a0 C8010000 		.4byte	.LBB358
 18844 00a4 CE010000 		.4byte	.LBE358
 18845 00a8 00000000 		.4byte	0
 18846 00ac 00000000 		.4byte	0
 18847 00b0 EA010000 		.4byte	.LBB359
 18848 00b4 78020000 		.4byte	.LBE359
 18849 00b8 F2070000 		.4byte	.LBB364
 18850 00bc 06080000 		.4byte	.LBE364
 18851 00c0 00000000 		.4byte	0
 18852 00c4 00000000 		.4byte	0
 18853 00c8 F4020000 		.4byte	.LBB368
 18854 00cc B2030000 		.4byte	.LBE368
 18855 00d0 06080000 		.4byte	.LBB523
 18856 00d4 16080000 		.4byte	.LBE523
 18857 00d8 44080000 		.4byte	.LBB527
 18858 00dc AE080000 		.4byte	.LBE527
 18859 00e0 EA090000 		.4byte	.LBB531
ARM GAS  /tmp/ccxvl19p.s 			page 332


 18860 00e4 040A0000 		.4byte	.LBE531
 18861 00e8 00000000 		.4byte	0
 18862 00ec 00000000 		.4byte	0
 18863 00f0 0A030000 		.4byte	.LBB370
 18864 00f4 2A030000 		.4byte	.LBE370
 18865 00f8 44080000 		.4byte	.LBB394
 18866 00fc AE080000 		.4byte	.LBE394
 18867 0100 EA090000 		.4byte	.LBB395
 18868 0104 040A0000 		.4byte	.LBE395
 18869 0108 00000000 		.4byte	0
 18870 010c 00000000 		.4byte	0
 18871 0110 52080000 		.4byte	.LBB377
 18872 0114 A6080000 		.4byte	.LBE377
 18873 0118 EA090000 		.4byte	.LBB387
 18874 011c 040A0000 		.4byte	.LBE387
 18875 0120 00000000 		.4byte	0
 18876 0124 00000000 		.4byte	0
 18877 0128 3A030000 		.4byte	.LBB388
 18878 012c B2030000 		.4byte	.LBE388
 18879 0130 06080000 		.4byte	.LBB393
 18880 0134 16080000 		.4byte	.LBE393
 18881 0138 00000000 		.4byte	0
 18882 013c 00000000 		.4byte	0
 18883 0140 60040000 		.4byte	.LBB403
 18884 0144 26050000 		.4byte	.LBE403
 18885 0148 16080000 		.4byte	.LBB524
 18886 014c 26080000 		.4byte	.LBE524
 18887 0150 84090000 		.4byte	.LBB530
 18888 0154 EA090000 		.4byte	.LBE530
 18889 0158 040A0000 		.4byte	.LBB532
 18890 015c 220A0000 		.4byte	.LBE532
 18891 0160 00000000 		.4byte	0
 18892 0164 00000000 		.4byte	0
 18893 0168 76040000 		.4byte	.LBB405
 18894 016c 96040000 		.4byte	.LBE405
 18895 0170 84090000 		.4byte	.LBB429
 18896 0174 EA090000 		.4byte	.LBE429
 18897 0178 040A0000 		.4byte	.LBB430
 18898 017c 220A0000 		.4byte	.LBE430
 18899 0180 00000000 		.4byte	0
 18900 0184 00000000 		.4byte	0
 18901 0188 92090000 		.4byte	.LBB412
 18902 018c E2090000 		.4byte	.LBE412
 18903 0190 040A0000 		.4byte	.LBB422
 18904 0194 220A0000 		.4byte	.LBE422
 18905 0198 00000000 		.4byte	0
 18906 019c 00000000 		.4byte	0
 18907 01a0 A6040000 		.4byte	.LBB423
 18908 01a4 26050000 		.4byte	.LBE423
 18909 01a8 16080000 		.4byte	.LBB428
 18910 01ac 26080000 		.4byte	.LBE428
 18911 01b0 00000000 		.4byte	0
 18912 01b4 00000000 		.4byte	0
 18913 01b8 26050000 		.4byte	.LBB434
 18914 01bc F0050000 		.4byte	.LBE434
 18915 01c0 26080000 		.4byte	.LBB525
 18916 01c4 36080000 		.4byte	.LBE525
ARM GAS  /tmp/ccxvl19p.s 			page 333


 18917 01c8 1C090000 		.4byte	.LBB529
 18918 01cc 84090000 		.4byte	.LBE529
 18919 01d0 220A0000 		.4byte	.LBB533
 18920 01d4 4C0A0000 		.4byte	.LBE533
 18921 01d8 00000000 		.4byte	0
 18922 01dc 00000000 		.4byte	0
 18923 01e0 3C050000 		.4byte	.LBB436
 18924 01e4 5C050000 		.4byte	.LBE436
 18925 01e8 1C090000 		.4byte	.LBB460
 18926 01ec 84090000 		.4byte	.LBE460
 18927 01f0 220A0000 		.4byte	.LBB461
 18928 01f4 4C0A0000 		.4byte	.LBE461
 18929 01f8 00000000 		.4byte	0
 18930 01fc 00000000 		.4byte	0
 18931 0200 2A090000 		.4byte	.LBB443
 18932 0204 7C090000 		.4byte	.LBE443
 18933 0208 220A0000 		.4byte	.LBB453
 18934 020c 4C0A0000 		.4byte	.LBE453
 18935 0210 00000000 		.4byte	0
 18936 0214 00000000 		.4byte	0
 18937 0218 6C050000 		.4byte	.LBB454
 18938 021c F0050000 		.4byte	.LBE454
 18939 0220 26080000 		.4byte	.LBB459
 18940 0224 36080000 		.4byte	.LBE459
 18941 0228 00000000 		.4byte	0
 18942 022c 00000000 		.4byte	0
 18943 0230 F0050000 		.4byte	.LBB465
 18944 0234 B6060000 		.4byte	.LBE465
 18945 0238 36080000 		.4byte	.LBB526
 18946 023c 44080000 		.4byte	.LBE526
 18947 0240 AE080000 		.4byte	.LBB528
 18948 0244 1C090000 		.4byte	.LBE528
 18949 0248 4C0A0000 		.4byte	.LBB534
 18950 024c 6A0A0000 		.4byte	.LBE534
 18951 0250 00000000 		.4byte	0
 18952 0254 00000000 		.4byte	0
 18953 0258 06060000 		.4byte	.LBB467
 18954 025c 26060000 		.4byte	.LBE467
 18955 0260 AE080000 		.4byte	.LBB491
 18956 0264 1C090000 		.4byte	.LBE491
 18957 0268 4C0A0000 		.4byte	.LBB492
 18958 026c 6A0A0000 		.4byte	.LBE492
 18959 0270 00000000 		.4byte	0
 18960 0274 00000000 		.4byte	0
 18961 0278 BC080000 		.4byte	.LBB474
 18962 027c 10090000 		.4byte	.LBE474
 18963 0280 4C0A0000 		.4byte	.LBB484
 18964 0284 6A0A0000 		.4byte	.LBE484
 18965 0288 00000000 		.4byte	0
 18966 028c 00000000 		.4byte	0
 18967 0290 36060000 		.4byte	.LBB485
 18968 0294 B6060000 		.4byte	.LBE485
 18969 0298 36080000 		.4byte	.LBB490
 18970 029c 44080000 		.4byte	.LBE490
 18971 02a0 00000000 		.4byte	0
 18972 02a4 00000000 		.4byte	0
 18973 02a8 4A070000 		.4byte	.LBB502
ARM GAS  /tmp/ccxvl19p.s 			page 334


 18974 02ac B6070000 		.4byte	.LBE502
 18975 02b0 6A0A0000 		.4byte	.LBB535
 18976 02b4 E80A0000 		.4byte	.LBE535
 18977 02b8 00000000 		.4byte	0
 18978 02bc 00000000 		.4byte	0
 18979 02c0 7A070000 		.4byte	.LBB504
 18980 02c4 B6070000 		.4byte	.LBE504
 18981 02c8 6A0A0000 		.4byte	.LBB519
 18982 02cc E80A0000 		.4byte	.LBE519
 18983 02d0 00000000 		.4byte	0
 18984 02d4 00000000 		.4byte	0
 18985 02d8 4E000000 		.4byte	.LBB556
 18986 02dc 54000000 		.4byte	.LBE556
 18987 02e0 58000000 		.4byte	.LBB561
 18988 02e4 20020000 		.4byte	.LBE561
 18989 02e8 24020000 		.4byte	.LBB562
 18990 02ec 28020000 		.4byte	.LBE562
 18991 02f0 2A020000 		.4byte	.LBB563
 18992 02f4 2E020000 		.4byte	.LBE563
 18993 02f8 00000000 		.4byte	0
 18994 02fc 00000000 		.4byte	0
 18995 0300 0E000000 		.4byte	.LBB564
 18996 0304 DE010000 		.4byte	.LBE564
 18997 0308 E2010000 		.4byte	.LBB568
 18998 030c E6010000 		.4byte	.LBE568
 18999 0310 E8010000 		.4byte	.LBB569
 19000 0314 EC010000 		.4byte	.LBE569
 19001 0318 00000000 		.4byte	0
 19002 031c 00000000 		.4byte	0
 19003 0320 04000000 		.4byte	.LBB570
 19004 0324 06000000 		.4byte	.LBE570
 19005 0328 08000000 		.4byte	.LBB575
 19006 032c 18000000 		.4byte	.LBE575
 19007 0330 00000000 		.4byte	0
 19008 0334 00000000 		.4byte	0
 19009 0338 C8010000 		.4byte	.LBB582
 19010 033c CE010000 		.4byte	.LBE582
 19011 0340 D2010000 		.4byte	.LBB585
 19012 0344 D4010000 		.4byte	.LBE585
 19013 0348 00000000 		.4byte	0
 19014 034c 00000000 		.4byte	0
 19015 0350 96000000 		.4byte	.LBB586
 19016 0354 98000000 		.4byte	.LBE586
 19017 0358 A2000000 		.4byte	.LBB590
 19018 035c A6000000 		.4byte	.LBE590
 19019 0360 AA000000 		.4byte	.LBB591
 19020 0364 AE000000 		.4byte	.LBE591
 19021 0368 00000000 		.4byte	0
 19022 036c 00000000 		.4byte	0
 19023 0370 4E000000 		.4byte	.LBB604
 19024 0374 6A000000 		.4byte	.LBE604
 19025 0378 96000000 		.4byte	.LBB605
 19026 037c A8000000 		.4byte	.LBE605
 19027 0380 00000000 		.4byte	0
 19028 0384 00000000 		.4byte	0
 19029 0388 00000000 		.4byte	.LFB342
 19030 038c E80A0000 		.4byte	.LFE342
ARM GAS  /tmp/ccxvl19p.s 			page 335


 19031 0390 00000000 		.4byte	.LFB343
 19032 0394 20000000 		.4byte	.LFE343
 19033 0398 00000000 		.4byte	.LFB344
 19034 039c AC020000 		.4byte	.LFE344
 19035 03a0 00000000 		.4byte	.LFB345
 19036 03a4 20020000 		.4byte	.LFE345
 19037 03a8 00000000 		.4byte	.LFB346
 19038 03ac E0010000 		.4byte	.LFE346
 19039 03b0 00000000 		.4byte	.LFB347
 19040 03b4 18000000 		.4byte	.LFE347
 19041 03b8 00000000 		.4byte	.LFB348
 19042 03bc 64010000 		.4byte	.LFE348
 19043 03c0 00000000 		.4byte	.LFB349
 19044 03c4 E8010000 		.4byte	.LFE349
 19045 03c8 00000000 		.4byte	.LFB350
 19046 03cc 1A000000 		.4byte	.LFE350
 19047 03d0 00000000 		.4byte	.LFB351
 19048 03d4 1A000000 		.4byte	.LFE351
 19049 03d8 00000000 		.4byte	.LFB352
 19050 03dc 12000000 		.4byte	.LFE352
 19051 03e0 00000000 		.4byte	.LFB353
 19052 03e4 80000000 		.4byte	.LFE353
 19053 03e8 00000000 		.4byte	.LFB354
 19054 03ec A8000000 		.4byte	.LFE354
 19055 03f0 00000000 		.4byte	.LFB355
 19056 03f4 14000000 		.4byte	.LFE355
 19057 03f8 00000000 		.4byte	.LFB356
 19058 03fc 14000000 		.4byte	.LFE356
 19059 0400 00000000 		.4byte	.LFB357
 19060 0404 14000000 		.4byte	.LFE357
 19061 0408 00000000 		.4byte	.LFB358
 19062 040c 14000000 		.4byte	.LFE358
 19063 0410 00000000 		.4byte	0
 19064 0414 00000000 		.4byte	0
 19065              		.section	.debug_line,"",%progbits
 19066              	.Ldebug_line0:
 19067 0000 4F0F0000 		.section	.debug_str,"MS",%progbits,1
 19067      02007307 
 19067      00000201 
 19067      FB0E0D00 
 19067      01010101 
 19068              	.LASF51:
 19069 0000 5F6F6E5F 		.ascii	"_on_exit_args_ptr\000"
 19069      65786974 
 19069      5F617267 
 19069      735F7074 
 19069      7200
 19070              	.LASF328:
 19071 0012 63685F6D 		.ascii	"ch_memcore\000"
 19071      656D636F 
 19071      726500
 19072              	.LASF287:
 19073 001d 73656E74 		.ascii	"sentmsg\000"
 19073      6D736700 
 19074              	.LASF270:
 19075 0025 706F7274 		.ascii	"port_intctx\000"
 19075      5F696E74 
ARM GAS  /tmp/ccxvl19p.s 			page 336


 19075      63747800 
 19076              	.LASF498:
 19077 0031 6576656E 		.ascii	"event\000"
 19077      7400
 19078              	.LASF417:
 19079 0037 43414E5F 		.ascii	"CAN_STARTING\000"
 19079      53544152 
 19079      54494E47 
 19079      00
 19080              	.LASF754:
 19081 0044 5F5F6675 		.ascii	"__func__\000"
 19081      6E635F5F 
 19081      00
 19082              	.LASF137:
 19083 004d 6D73675F 		.ascii	"msg_t\000"
 19083      7400
 19084              	.LASF769:
 19085 0053 706F7274 		.ascii	"port_unlock_from_isr\000"
 19085      5F756E6C 
 19085      6F636B5F 
 19085      66726F6D 
 19085      5F697372 
 19086              	.LASF534:
 19087 0068 55415254 		.ascii	"UART_TX_IDLE\000"
 19087      5F54585F 
 19087      49444C45 
 19087      00
 19088              	.LASF779:
 19089 0075 5F757362 		.ascii	"_usb_wakeup\000"
 19089      5F77616B 
 19089      65757000 
 19090              	.LASF602:
 19091 0081 5553425F 		.ascii	"USB_EVENT_UNCONFIGURED\000"
 19091      4556454E 
 19091      545F554E 
 19091      434F4E46 
 19091      49475552 
 19092              	.LASF646:
 19093 0098 44494550 		.ascii	"DIEPTXF0\000"
 19093      54584630 
 19093      00
 19094              	.LASF718:
 19095 00a1 55534244 		.ascii	"USBD1\000"
 19095      3100
 19096              	.LASF416:
 19097 00a7 43414E5F 		.ascii	"CAN_STOP\000"
 19097      53544F50 
 19097      00
 19098              	.LASF180:
 19099 00b0 63685F73 		.ascii	"ch_system_t\000"
 19099      79737465 
 19099      6D5F7400 
 19100              	.LASF5:
 19101 00bc 5F5F7569 		.ascii	"__uint8_t\000"
 19101      6E74385F 
 19101      7400
 19102              	.LASF288:
ARM GAS  /tmp/ccxvl19p.s 			page 337


 19103 00c6 77747365 		.ascii	"wtsemp\000"
 19103      6D7000
 19104              	.LASF323:
 19105 00cd 5F426F6F 		.ascii	"_Bool\000"
 19105      6C00
 19106              	.LASF519:
 19107 00d3 646D6172 		.ascii	"dmarx\000"
 19107      7800
 19108              	.LASF155:
 19109 00d9 6570656E 		.ascii	"epending\000"
 19109      64696E67 
 19109      00
 19110              	.LASF93:
 19111 00e2 5F6D6273 		.ascii	"_mbstate\000"
 19111      74617465 
 19111      00
 19112              	.LASF48:
 19113 00eb 5F617465 		.ascii	"_atexit\000"
 19113      78697400 
 19114              	.LASF332:
 19115 00f3 70726F76 		.ascii	"provider\000"
 19115      69646572 
 19115      00
 19116              	.LASF347:
 19117 00fc 6F626A65 		.ascii	"objects_factory_t\000"
 19117      6374735F 
 19117      66616374 
 19117      6F72795F 
 19117      7400
 19118              	.LASF403:
 19119 010e 73717231 		.ascii	"sqr1\000"
 19119      00
 19120              	.LASF324:
 19121 0113 6D656D67 		.ascii	"memgetfunc_t\000"
 19121      65746675 
 19121      6E635F74 
 19121      00
 19122              	.LASF676:
 19123 0120 44564255 		.ascii	"DVBUSDIS\000"
 19123      53444953 
 19123      00
 19124              	.LASF443:
 19125 0129 6572726F 		.ascii	"errors\000"
 19125      727300
 19126              	.LASF504:
 19127 0130 696E7374 		.ascii	"instance_offset\000"
 19127      616E6365 
 19127      5F6F6666 
 19127      73657400 
 19128              	.LASF526:
 19129 0140 73706963 		.ascii	"spicallback_t\000"
 19129      616C6C62 
 19129      61636B5F 
 19129      7400
 19130              	.LASF145:
 19131 014e 7072696F 		.ascii	"prio\000"
 19131      00
ARM GAS  /tmp/ccxvl19p.s 			page 338


 19132              	.LASF579:
 19133 0153 75736265 		.ascii	"usbep_t\000"
 19133      705F7400 
 19134              	.LASF450:
 19135 015b 4943555F 		.ascii	"ICU_ACTIVE\000"
 19135      41435449 
 19135      564500
 19136              	.LASF258:
 19137 0166 5243435F 		.ascii	"RCC_TypeDef\000"
 19137      54797065 
 19137      44656600 
 19138              	.LASF38:
 19139 0172 5F5F746D 		.ascii	"__tm_mon\000"
 19139      5F6D6F6E 
 19139      00
 19140              	.LASF46:
 19141 017b 5F666E74 		.ascii	"_fntypes\000"
 19141      79706573 
 19141      00
 19142              	.LASF126:
 19143 0184 5F676C6F 		.ascii	"_global_atexit\000"
 19143      62616C5F 
 19143      61746578 
 19143      697400
 19144              	.LASF65:
 19145 0193 5F696E63 		.ascii	"_inc\000"
 19145      00
 19146              	.LASF49:
 19147 0198 5F696E64 		.ascii	"_ind\000"
 19147      00
 19148              	.LASF506:
 19149 019d 72656164 		.ascii	"read\000"
 19149      00
 19150              	.LASF385:
 19151 01a2 73616D70 		.ascii	"samples\000"
 19151      6C657300 
 19152              	.LASF650:
 19153 01aa 47434346 		.ascii	"GCCFG\000"
 19153      4700
 19154              	.LASF276:
 19155 01b0 42445452 		.ascii	"BDTR\000"
 19155      00
 19156              	.LASF747:
 19157 01b5 6F74675F 		.ascii	"otg_epout_handler\000"
 19157      65706F75 
 19157      745F6861 
 19157      6E646C65 
 19157      7200
 19158              	.LASF441:
 19159 01c7 49324343 		.ascii	"I2CConfig\000"
 19159      6F6E6669 
 19159      6700
 19160              	.LASF128:
 19161 01d1 75696E74 		.ascii	"uint16_t\000"
 19161      31365F74 
 19161      00
 19162              	.LASF520:
ARM GAS  /tmp/ccxvl19p.s 			page 339


 19163 01da 646D6174 		.ascii	"dmatx\000"
 19163      7800
 19164              	.LASF716:
 19165 01e0 736F665F 		.ascii	"sof_cb\000"
 19165      636200
 19166              	.LASF338:
 19167 01e7 63685F6F 		.ascii	"ch_objects_factory\000"
 19167      626A6563 
 19167      74735F66 
 19167      6163746F 
 19167      727900
 19168              	.LASF56:
 19169 01fa 5F666C61 		.ascii	"_flags\000"
 19169      677300
 19170              	.LASF162:
 19171 0201 6E657874 		.ascii	"next\000"
 19171      00
 19172              	.LASF147:
 19173 0206 6F6C6465 		.ascii	"older\000"
 19173      7200
 19174              	.LASF334:
 19175 020c 63685F64 		.ascii	"ch_dyn_element\000"
 19175      796E5F65 
 19175      6C656D65 
 19175      6E7400
 19176              	.LASF774:
 19177 021b 62617365 		.ascii	"basePri\000"
 19177      50726900 
 19178              	.LASF653:
 19179 0223 44494550 		.ascii	"DIEPTXF\000"
 19179      54584600 
 19180              	.LASF566:
 19181 022b 696E5F70 		.ascii	"in_params\000"
 19181      6172616D 
 19181      7300
 19182              	.LASF593:
 19183 0235 5553425F 		.ascii	"USB_EP0_IN_WAITING_TX0\000"
 19183      4550305F 
 19183      494E5F57 
 19183      41495449 
 19183      4E475F54 
 19184              	.LASF409:
 19185 024c 4144435F 		.ascii	"ADC_ERR_OVERFLOW\000"
 19185      4552525F 
 19185      4F564552 
 19185      464C4F57 
 19185      00
 19186              	.LASF72:
 19187 025d 5F637674 		.ascii	"_cvtlen\000"
 19187      6C656E00 
 19188              	.LASF748:
 19189 0265 6570696E 		.ascii	"epint\000"
 19189      7400
 19190              	.LASF164:
 19191 026b 63685F74 		.ascii	"ch_threads_queue\000"
 19191      68726561 
 19191      64735F71 
ARM GAS  /tmp/ccxvl19p.s 			page 340


 19191      75657565 
 19191      00
 19192              	.LASF740:
 19193 027c 7573625F 		.ascii	"usb_lld_stop\000"
 19193      6C6C645F 
 19193      73746F70 
 19193      00
 19194              	.LASF77:
 19195 0289 5F736967 		.ascii	"_sig_func\000"
 19195      5F66756E 
 19195      6300
 19196              	.LASF663:
 19197 0293 48505254 		.ascii	"HPRT\000"
 19197      00
 19198              	.LASF617:
 19199 0298 4843494E 		.ascii	"HCINT\000"
 19199      5400
 19200              	.LASF191:
 19201 029e 534D5052 		.ascii	"SMPR1\000"
 19201      3100
 19202              	.LASF192:
 19203 02a4 534D5052 		.ascii	"SMPR2\000"
 19203      3200
 19204              	.LASF92:
 19205 02aa 5F6C6F63 		.ascii	"_lock\000"
 19205      6B00
 19206              	.LASF89:
 19207 02b0 5F6E6275 		.ascii	"_nbuf\000"
 19207      6600
 19208              	.LASF512:
 19209 02b6 5350495F 		.ascii	"SPI_STOP\000"
 19209      53544F50 
 19209      00
 19210              	.LASF764:
 19211 02bf 6379636C 		.ascii	"cycles\000"
 19211      657300
 19212              	.LASF485:
 19213 02c6 70776D63 		.ascii	"pwmchnmsk_t\000"
 19213      686E6D73 
 19213      6B5F7400 
 19214              	.LASF721:
 19215 02d2 65703063 		.ascii	"ep0config\000"
 19215      6F6E6669 
 19215      6700
 19216              	.LASF659:
 19217 02dc 48505458 		.ascii	"HPTXSTS\000"
 19217      53545300 
 19218              	.LASF427:
 19219 02e4 63616E5F 		.ascii	"can_callback_t\000"
 19219      63616C6C 
 19219      6261636B 
 19219      5F7400
 19220              	.LASF590:
 19221 02f3 75736265 		.ascii	"usbepstatus_t\000"
 19221      70737461 
 19221      7475735F 
 19221      7400
ARM GAS  /tmp/ccxvl19p.s 			page 341


 19222              	.LASF671:
 19223 0301 444F4550 		.ascii	"DOEPMSK\000"
 19223      4D534B00 
 19224              	.LASF516:
 19225 0309 73706973 		.ascii	"spistate_t\000"
 19225      74617465 
 19225      5F7400
 19226              	.LASF546:
 19227 0314 6561726C 		.ascii	"early\000"
 19227      7900
 19228              	.LASF615:
 19229 031a 48434348 		.ascii	"HCCHAR\000"
 19229      415200
 19230              	.LASF435:
 19231 0321 4932435F 		.ascii	"I2C_ACTIVE_RX\000"
 19231      41435449 
 19231      56455F52 
 19231      5800
 19232              	.LASF142:
 19233 032f 74687265 		.ascii	"thread_t\000"
 19233      61645F74 
 19233      00
 19234              	.LASF477:
 19235 0338 70776D73 		.ascii	"pwmstate_t\000"
 19235      74617465 
 19235      5F7400
 19236              	.LASF175:
 19237 0343 63685F76 		.ascii	"ch_virtual_timers_list\000"
 19237      69727475 
 19237      616C5F74 
 19237      696D6572 
 19237      735F6C69 
 19238              	.LASF354:
 19239 035a 76656374 		.ascii	"vector\000"
 19239      6F7200
 19240              	.LASF641:
 19241 0361 47494E54 		.ascii	"GINTSTS\000"
 19241      53545300 
 19242              	.LASF129:
 19243 0369 696E7433 		.ascii	"int32_t\000"
 19243      325F7400 
 19244              	.LASF185:
 19245 0371 73797374 		.ascii	"systime_t\000"
 19245      696D655F 
 19245      7400
 19246              	.LASF421:
 19247 037b 43414E44 		.ascii	"CANDriver\000"
 19247      72697665 
 19247      7200
 19248              	.LASF102:
 19249 0385 5F616464 		.ascii	"_add\000"
 19249      00
 19250              	.LASF55:
 19251 038a 5F5F7346 		.ascii	"__sFILE_fake\000"
 19251      494C455F 
 19251      66616B65 
 19251      00
ARM GAS  /tmp/ccxvl19p.s 			page 342


 19252              	.LASF232:
 19253 0397 4D304152 		.ascii	"M0AR\000"
 19253      00
 19254              	.LASF622:
 19255 039c 72657376 		.ascii	"resvd1c\000"
 19255      64316300 
 19256              	.LASF438:
 19257 03a4 69326366 		.ascii	"i2cflags_t\000"
 19257      6C616773 
 19257      5F7400
 19258              	.LASF660:
 19259 03af 4841494E 		.ascii	"HAINT\000"
 19259      5400
 19260              	.LASF300:
 19261 03b5 74696D65 		.ascii	"timesize\000"
 19261      73697A65 
 19261      00
 19262              	.LASF589:
 19263 03be 45505F53 		.ascii	"EP_STATUS_ACTIVE\000"
 19263      54415455 
 19263      535F4143 
 19263      54495645 
 19263      00
 19264              	.LASF227:
 19265 03cf 46413152 		.ascii	"FA1R\000"
 19265      00
 19266              	.LASF776:
 19267 03d4 6E766963 		.ascii	"nvicDisableVector\000"
 19267      44697361 
 19267      626C6556 
 19267      6563746F 
 19267      7200
 19268              	.LASF552:
 19269 03e6 75617274 		.ascii	"uartecb_t\000"
 19269      6563625F 
 19269      7400
 19270              	.LASF657:
 19271 03f0 48464E55 		.ascii	"HFNUM\000"
 19271      4D00
 19272              	.LASF518:
 19273 03f6 68616C5F 		.ascii	"hal_spi_driver\000"
 19273      7370695F 
 19273      64726976 
 19273      657200
 19274              	.LASF367:
 19275 0405 716E6F74 		.ascii	"qnotify_t\000"
 19275      6966795F 
 19275      7400
 19276              	.LASF381:
 19277 040f 61646373 		.ascii	"adcstate_t\000"
 19277      74617465 
 19277      5F7400
 19278              	.LASF240:
 19279 041a 41504231 		.ascii	"APB1RSTR\000"
 19279      52535452 
 19279      00
 19280              	.LASF753:
ARM GAS  /tmp/ccxvl19p.s 			page 343


 19281 0423 6F74675F 		.ascii	"otg_fifo_write_from_buffer\000"
 19281      6669666F 
 19281      5F777269 
 19281      74655F66 
 19281      726F6D5F 
 19282              	.LASF362:
 19283 043e 715F746F 		.ascii	"q_top\000"
 19283      7000
 19284              	.LASF58:
 19285 0444 5F6C6266 		.ascii	"_lbfsize\000"
 19285      73697A65 
 19285      00
 19286              	.LASF608:
 19287 044d 75645F73 		.ascii	"ud_string\000"
 19287      7472696E 
 19287      6700
 19288              	.LASF442:
 19289 0457 49324344 		.ascii	"I2CDriver\000"
 19289      72697665 
 19289      7200
 19290              	.LASF434:
 19291 0461 4932435F 		.ascii	"I2C_ACTIVE_TX\000"
 19291      41435449 
 19291      56455F54 
 19291      5800
 19292              	.LASF152:
 19293 046f 72656673 		.ascii	"refs\000"
 19293      00
 19294              	.LASF571:
 19295 0474 65703065 		.ascii	"ep0endcb\000"
 19295      6E646362 
 19295      00
 19296              	.LASF669:
 19297 047d 72657376 		.ascii	"resvd80C\000"
 19297      64383043 
 19297      00
 19298              	.LASF156:
 19299 0486 6D74786C 		.ascii	"mtxlist\000"
 19299      69737400 
 19300              	.LASF636:
 19301 048e 474F5447 		.ascii	"GOTGCTL\000"
 19301      43544C00 
 19302              	.LASF611:
 19303 0496 75736265 		.ascii	"usbepcallback_t\000"
 19303      7063616C 
 19303      6C626163 
 19303      6B5F7400 
 19304              	.LASF59:
 19305 04a6 5F646174 		.ascii	"_data\000"
 19305      6100
 19306              	.LASF183:
 19307 04ac 76746C69 		.ascii	"vtlist\000"
 19307      737400
 19308              	.LASF448:
 19309 04b3 4943555F 		.ascii	"ICU_READY\000"
 19309      52454144 
 19309      5900
ARM GAS  /tmp/ccxvl19p.s 			page 344


 19310              	.LASF675:
 19311 04bd 72657376 		.ascii	"resvd824\000"
 19311      64383234 
 19311      00
 19312              	.LASF455:
 19313 04c6 70636372 		.ascii	"pccrp\000"
 19313      7000
 19314              	.LASF359:
 19315 04cc 715F7761 		.ascii	"q_waiting\000"
 19315      6974696E 
 19315      6700
 19316              	.LASF209:
 19317 04d6 43414E5F 		.ascii	"CAN_TxMailBox_TypeDef\000"
 19317      54784D61 
 19317      696C426F 
 19317      785F5479 
 19317      70654465 
 19318              	.LASF182:
 19319 04ec 726C6973 		.ascii	"rlist\000"
 19319      7400
 19320              	.LASF160:
 19321 04f2 74687265 		.ascii	"threads_list_t\000"
 19321      6164735F 
 19321      6C697374 
 19321      5F7400
 19322              	.LASF282:
 19323 0501 746D5F63 		.ascii	"tm_calibration_t\000"
 19323      616C6962 
 19323      72617469 
 19323      6F6E5F74 
 19323      00
 19324              	.LASF368:
 19325 0512 696E7075 		.ascii	"input_queue_t\000"
 19325      745F7175 
 19325      6575655F 
 19325      7400
 19326              	.LASF395:
 19327 0520 41444343 		.ascii	"ADCConversionGroup\000"
 19327      6F6E7665 
 19327      7273696F 
 19327      6E47726F 
 19327      757000
 19328              	.LASF668:
 19329 0533 44535453 		.ascii	"DSTS\000"
 19329      00
 19330              	.LASF60:
 19331 0538 5F726565 		.ascii	"_reent\000"
 19331      6E7400
 19332              	.LASF463:
 19333 053f 69637563 		.ascii	"icuchannel_t\000"
 19333      68616E6E 
 19333      656C5F74 
 19333      00
 19334              	.LASF420:
 19335 054c 63616E73 		.ascii	"canstate_t\000"
 19335      74617465 
 19335      5F7400
ARM GAS  /tmp/ccxvl19p.s 			page 345


 19336              	.LASF229:
 19337 0557 7346696C 		.ascii	"sFilterRegister\000"
 19337      74657252 
 19337      65676973 
 19337      74657200 
 19338              	.LASF79:
 19339 0567 5F5F7366 		.ascii	"__sf\000"
 19339      00
 19340              	.LASF674:
 19341 056c 72657376 		.ascii	"resvd820\000"
 19341      64383230 
 19341      00
 19342              	.LASF53:
 19343 0575 5F626173 		.ascii	"_base\000"
 19343      6500
 19344              	.LASF113:
 19345 057b 5F6D6274 		.ascii	"_mbtowc_state\000"
 19345      6F77635F 
 19345      73746174 
 19345      6500
 19346              	.LASF722:
 19347 0589 66737061 		.ascii	"fsparams\000"
 19347      72616D73 
 19347      00
 19348              	.LASF765:
 19349 0592 6F73616C 		.ascii	"osalSysUnlockFromISR\000"
 19349      53797355 
 19349      6E6C6F63 
 19349      6B46726F 
 19349      6D495352 
 19350              	.LASF431:
 19351 05a7 4932435F 		.ascii	"I2C_UNINIT\000"
 19351      554E494E 
 19351      495400
 19352              	.LASF379:
 19353 05b2 4144435F 		.ascii	"ADC_COMPLETE\000"
 19353      434F4D50 
 19353      4C455445 
 19353      00
 19354              	.LASF493:
 19355 05bf 53445F55 		.ascii	"SD_UNINIT\000"
 19355      4E494E49 
 19355      5400
 19356              	.LASF136:
 19357 05c9 74707269 		.ascii	"tprio_t\000"
 19357      6F5F7400 
 19358              	.LASF576:
 19359 05d1 73617665 		.ascii	"saved_state\000"
 19359      645F7374 
 19359      61746500 
 19360              	.LASF246:
 19361 05dd 41504232 		.ascii	"APB2ENR\000"
 19361      454E5200 
 19362              	.LASF678:
 19363 05e5 72657376 		.ascii	"resvd830\000"
 19363      64383330 
 19363      00
ARM GAS  /tmp/ccxvl19p.s 			page 346


 19364              	.LASF33:
 19365 05ee 5F5F746D 		.ascii	"__tm\000"
 19365      00
 19366              	.LASF336:
 19367 05f3 63685F64 		.ascii	"ch_dyn_list\000"
 19367      796E5F6C 
 19367      69737400 
 19368              	.LASF680:
 19369 05ff 72657376 		.ascii	"resvd838\000"
 19369      64383338 
 19369      00
 19370              	.LASF393:
 19371 0608 68616C5F 		.ascii	"hal_adc_config\000"
 19371      6164635F 
 19371      636F6E66 
 19371      696700
 19372              	.LASF388:
 19373 0617 74687265 		.ascii	"thread\000"
 19373      616400
 19374              	.LASF677:
 19375 061e 44564255 		.ascii	"DVBUSPULSE\000"
 19375      5350554C 
 19375      534500
 19376              	.LASF572:
 19377 0629 73657475 		.ascii	"setup\000"
 19377      7000
 19378              	.LASF511:
 19379 062f 5350495F 		.ascii	"SPI_UNINIT\000"
 19379      554E494E 
 19379      495400
 19380              	.LASF296:
 19381 063a 7A65726F 		.ascii	"zero\000"
 19381      00
 19382              	.LASF785:
 19383 063f 2F686F6D 		.ascii	"/home/tongcheng/Downloads/RM2019_Power_Runes-master"
 19383      652F746F 
 19383      6E676368 
 19383      656E672F 
 19383      446F776E 
 19384 0672 2F524D32 		.ascii	"/RM2019_Power_Runes\000"
 19384      3031395F 
 19384      506F7765 
 19384      725F5275 
 19384      6E657300 
 19385              	.LASF681:
 19386 0686 72657376 		.ascii	"resvd83C\000"
 19386      64383343 
 19386      00
 19387              	.LASF41:
 19388 068f 5F5F746D 		.ascii	"__tm_yday\000"
 19388      5F796461 
 19388      7900
 19389              	.LASF275:
 19390 0699 43434552 		.ascii	"CCER\000"
 19390      00
 19391              	.LASF263:
 19392 069e 49325350 		.ascii	"I2SPR\000"
ARM GAS  /tmp/ccxvl19p.s 			page 347


 19392      5200
 19393              	.LASF474:
 19394 06a4 50574D5F 		.ascii	"PWM_UNINIT\000"
 19394      554E494E 
 19394      495400
 19395              	.LASF331:
 19396 06af 616C6967 		.ascii	"align\000"
 19396      6E00
 19397              	.LASF638:
 19398 06b5 47414842 		.ascii	"GAHBCFG\000"
 19398      43464700 
 19399              	.LASF433:
 19400 06bd 4932435F 		.ascii	"I2C_READY\000"
 19400      52454144 
 19400      5900
 19401              	.LASF682:
 19402 06c7 72657376 		.ascii	"resvd840\000"
 19402      64383430 
 19402      00
 19403              	.LASF259:
 19404 06d0 43524350 		.ascii	"CRCPR\000"
 19404      5200
 19405              	.LASF750:
 19406 06d6 6F74675F 		.ascii	"otg_rxfifo_handler\000"
 19406      72786669 
 19406      666F5F68 
 19406      616E646C 
 19406      657200
 19407              	.LASF8:
 19408 06e9 5F5F7569 		.ascii	"__uint16_t\000"
 19408      6E743136 
 19408      5F7400
 19409              	.LASF635:
 19410 06f4 73746D33 		.ascii	"stm32_otg_out_ep_t\000"
 19410      325F6F74 
 19410      675F6F75 
 19410      745F6570 
 19410      5F7400
 19411              	.LASF644:
 19412 0707 47525853 		.ascii	"GRXSTSP\000"
 19412      54535000 
 19413              	.LASF643:
 19414 070f 47525853 		.ascii	"GRXSTSR\000"
 19414      54535200 
 19415              	.LASF233:
 19416 0717 4D314152 		.ascii	"M1AR\000"
 19416      00
 19417              	.LASF234:
 19418 071c 444D415F 		.ascii	"DMA_Stream_TypeDef\000"
 19418      53747265 
 19418      616D5F54 
 19418      79706544 
 19418      656600
 19419              	.LASF781:
 19420 072f 5F757362 		.ascii	"_usb_reset\000"
 19420      5F726573 
 19420      657400
ARM GAS  /tmp/ccxvl19p.s 			page 348


 19421              	.LASF584:
 19422 073a 5553425F 		.ascii	"USB_ACTIVE\000"
 19422      41435449 
 19422      564500
 19423              	.LASF581:
 19424 0745 5553425F 		.ascii	"USB_STOP\000"
 19424      53544F50 
 19424      00
 19425              	.LASF146:
 19426 074e 6E657765 		.ascii	"newer\000"
 19426      7200
 19427              	.LASF784:
 19428 0754 2E2F524D 		.ascii	"./RM18A-ChibiOS18-Core/chibios/os/hal/ports/STM32/L"
 19428      3138412D 
 19428      43686962 
 19428      694F5331 
 19428      382D436F 
 19429 0787 4C442F4F 		.ascii	"LD/OTGv1/hal_usb_lld.c\000"
 19429      54477631 
 19429      2F68616C 
 19429      5F757362 
 19429      5F6C6C64 
 19430              	.LASF371:
 19431 079e 74687265 		.ascii	"threads\000"
 19431      61647300 
 19432              	.LASF700:
 19433 07a6 7278636E 		.ascii	"rxcnt\000"
 19433      7400
 19434              	.LASF375:
 19435 07ac 4144435F 		.ascii	"ADC_UNINIT\000"
 19435      554E494E 
 19435      495400
 19436              	.LASF521:
 19437 07b7 7278646D 		.ascii	"rxdmamode\000"
 19437      616D6F64 
 19437      6500
 19438              	.LASF106:
 19439 07c1 5F726573 		.ascii	"_result_k\000"
 19439      756C745F 
 19439      6B00
 19440              	.LASF464:
 19441 07cb 6D6F6465 		.ascii	"mode\000"
 19441      00
 19442              	.LASF64:
 19443 07d0 5F737464 		.ascii	"_stderr\000"
 19443      65727200 
 19444              	.LASF105:
 19445 07d8 5F726573 		.ascii	"_result\000"
 19445      756C7400 
 19446              	.LASF457:
 19447 07e0 4943555F 		.ascii	"ICU_INPUT_ACTIVE_HIGH\000"
 19447      494E5055 
 19447      545F4143 
 19447      54495645 
 19447      5F484947 
 19448              	.LASF45:
 19449 07f6 5F64736F 		.ascii	"_dso_handle\000"
ARM GAS  /tmp/ccxvl19p.s 			page 349


 19449      5F68616E 
 19449      646C6500 
 19450              	.LASF651:
 19451 0802 72657376 		.ascii	"resvd58\000"
 19451      64353800 
 19452              	.LASF372:
 19453 080a 70616C65 		.ascii	"palevent_t\000"
 19453      76656E74 
 19453      5F7400
 19454              	.LASF40:
 19455 0815 5F5F746D 		.ascii	"__tm_wday\000"
 19455      5F776461 
 19455      7900
 19456              	.LASF42:
 19457 081f 5F5F746D 		.ascii	"__tm_isdst\000"
 19457      5F697364 
 19457      737400
 19458              	.LASF268:
 19459 082a 73746B61 		.ascii	"stkalign_t\000"
 19459      6C69676E 
 19459      5F7400
 19460              	.LASF690:
 19461 0835 72785F66 		.ascii	"rx_fifo_size\000"
 19461      69666F5F 
 19461      73697A65 
 19461      00
 19462              	.LASF410:
 19463 0842 4144435F 		.ascii	"ADC_ERR_WATCHDOG\000"
 19463      4552525F 
 19463      57415443 
 19463      48444F47 
 19463      00
 19464              	.LASF399:
 19465 0853 656E645F 		.ascii	"end_cb\000"
 19465      636200
 19466              	.LASF703:
 19467 085a 73657475 		.ascii	"setup_cb\000"
 19467      705F6362 
 19467      00
 19468              	.LASF6:
 19469 0863 756E7369 		.ascii	"unsigned char\000"
 19469      676E6564 
 19469      20636861 
 19469      7200
 19470              	.LASF63:
 19471 0871 5F737464 		.ascii	"_stdout\000"
 19471      6F757400 
 19472              	.LASF317:
 19473 0879 6576656E 		.ascii	"event_listener\000"
 19473      745F6C69 
 19473      7374656E 
 19473      657200
 19474              	.LASF422:
 19475 0888 74787175 		.ascii	"txqueue\000"
 19475      65756500 
 19476              	.LASF424:
 19477 0890 72786675 		.ascii	"rxfull_cb\000"
ARM GAS  /tmp/ccxvl19p.s 			page 350


 19477      6C6C5F63 
 19477      6200
 19478              	.LASF166:
 19479 089a 72656164 		.ascii	"ready_list_t\000"
 19479      795F6C69 
 19479      73745F74 
 19479      00
 19480              	.LASF143:
 19481 08a7 63685F74 		.ascii	"ch_thread\000"
 19481      68726561 
 19481      6400
 19482              	.LASF118:
 19483 08b1 5F6D6273 		.ascii	"_mbsrtowcs_state\000"
 19483      72746F77 
 19483      63735F73 
 19483      74617465 
 19483      00
 19484              	.LASF720:
 19485 08c2 65703073 		.ascii	"ep0setup_buffer\000"
 19485      65747570 
 19485      5F627566 
 19485      66657200 
 19486              	.LASF249:
 19487 08d2 41484233 		.ascii	"AHB3LPENR\000"
 19487      4C50454E 
 19487      5200
 19488              	.LASF31:
 19489 08dc 5F776473 		.ascii	"_wds\000"
 19489      00
 19490              	.LASF80:
 19491 08e1 5F6D6973 		.ascii	"_misc\000"
 19491      6300
 19492              	.LASF419:
 19493 08e7 43414E5F 		.ascii	"CAN_SLEEP\000"
 19493      534C4545 
 19493      5000
 19494              	.LASF121:
 19495 08f1 5F5F7366 		.ascii	"__sf_fake_stdin\000"
 19495      5F66616B 
 19495      655F7374 
 19495      64696E00 
 19496              	.LASF54:
 19497 0901 5F73697A 		.ascii	"_size\000"
 19497      6500
 19498              	.LASF329:
 19499 0907 706F6F6C 		.ascii	"pool_header\000"
 19499      5F686561 
 19499      64657200 
 19500              	.LASF177:
 19501 0913 73797374 		.ascii	"system_debug_t\000"
 19501      656D5F64 
 19501      65627567 
 19501      5F7400
 19502              	.LASF272:
 19503 0922 44494552 		.ascii	"DIER\000"
 19503      00
 19504              	.LASF394:
ARM GAS  /tmp/ccxvl19p.s 			page 351


 19505 0927 75736544 		.ascii	"useDMA\000"
 19505      4D4100
 19506              	.LASF248:
 19507 092e 41484232 		.ascii	"AHB2LPENR\000"
 19507      4C50454E 
 19507      5200
 19508              	.LASF496:
 19509 0938 73647374 		.ascii	"sdstate_t\000"
 19509      6174655F 
 19509      7400
 19510              	.LASF172:
 19511 0942 64656C74 		.ascii	"delta\000"
 19511      6100
 19512              	.LASF257:
 19513 0948 44434B43 		.ascii	"DCKCFGR\000"
 19513      46475200 
 19514              	.LASF193:
 19515 0950 4A4F4652 		.ascii	"JOFR1\000"
 19515      3100
 19516              	.LASF194:
 19517 0956 4A4F4652 		.ascii	"JOFR2\000"
 19517      3200
 19518              	.LASF196:
 19519 095c 4A4F4652 		.ascii	"JOFR4\000"
 19519      3400
 19520              	.LASF539:
 19521 0962 55415254 		.ascii	"UART_RX_ACTIVE\000"
 19521      5F52585F 
 19521      41435449 
 19521      564500
 19522              	.LASF85:
 19523 0971 5F777269 		.ascii	"_write\000"
 19523      746500
 19524              	.LASF261:
 19525 0978 54584352 		.ascii	"TXCRCR\000"
 19525      435200
 19526              	.LASF535:
 19527 097f 55415254 		.ascii	"UART_TX_ACTIVE\000"
 19527      5F54585F 
 19527      41435449 
 19527      564500
 19528              	.LASF430:
 19529 098e 43414E44 		.ascii	"CAND2\000"
 19529      3200
 19530              	.LASF390:
 19531 0994 646D6173 		.ascii	"dmastp\000"
 19531      747000
 19532              	.LASF730:
 19533 099b 7573625F 		.ascii	"usb_lld_start_out\000"
 19533      6C6C645F 
 19533      73746172 
 19533      745F6F75 
 19533      7400
 19534              	.LASF468:
 19535 09ad 6F766572 		.ascii	"overflow_cb\000"
 19535      666C6F77 
 19535      5F636200 
ARM GAS  /tmp/ccxvl19p.s 			page 352


 19536              	.LASF131:
 19537 09b9 75696E74 		.ascii	"uint64_t\000"
 19537      36345F74 
 19537      00
 19538              	.LASF314:
 19539 09c2 63685F64 		.ascii	"ch_debug\000"
 19539      65627567 
 19539      00
 19540              	.LASF221:
 19541 09cb 464D3152 		.ascii	"FM1R\000"
 19541      00
 19542              	.LASF745:
 19543 09d0 6F74675F 		.ascii	"otg_isoc_out_failed_handler\000"
 19543      69736F63 
 19543      5F6F7574 
 19543      5F666169 
 19543      6C65645F 
 19544              	.LASF426:
 19545 09ec 77616B65 		.ascii	"wakeup_cb\000"
 19545      75705F63 
 19545      6200
 19546              	.LASF695:
 19547 09f6 7478636E 		.ascii	"txcnt\000"
 19547      7400
 19548              	.LASF612:
 19549 09fc 75736265 		.ascii	"usbeventcb_t\000"
 19549      76656E74 
 19549      63625F74 
 19549      00
 19550              	.LASF39:
 19551 0a09 5F5F746D 		.ascii	"__tm_year\000"
 19551      5F796561 
 19551      7200
 19552              	.LASF316:
 19553 0a13 6576656E 		.ascii	"event_listener_t\000"
 19553      745F6C69 
 19553      7374656E 
 19553      65725F74 
 19553      00
 19554              	.LASF691:
 19555 0a24 6F74675F 		.ascii	"otg_ram_size\000"
 19555      72616D5F 
 19555      73697A65 
 19555      00
 19556              	.LASF762:
 19557 0a31 6F74675F 		.ascii	"otg_core_reset\000"
 19557      636F7265 
 19557      5F726573 
 19557      657400
 19558              	.LASF693:
 19559 0a40 73746D33 		.ascii	"stm32_otg_params_t\000"
 19559      325F6F74 
 19559      675F7061 
 19559      72616D73 
 19559      5F7400
 19560              	.LASF439:
 19561 0a53 61646472 		.ascii	"addr10\000"
ARM GAS  /tmp/ccxvl19p.s 			page 353


 19561      313000
 19562              	.LASF260:
 19563 0a5a 52584352 		.ascii	"RXCRCR\000"
 19563      435200
 19564              	.LASF549:
 19565 0a61 72786275 		.ascii	"rxbuf\000"
 19565      6600
 19566              	.LASF101:
 19567 0a67 5F6D756C 		.ascii	"_mult\000"
 19567      7400
 19568              	.LASF292:
 19569 0a6d 63685F6D 		.ascii	"ch_mutex\000"
 19569      75746578 
 19569      00
 19570              	.LASF759:
 19571 0a76 6669666F 		.ascii	"fifo\000"
 19571      00
 19572              	.LASF238:
 19573 0a7b 41484232 		.ascii	"AHB2RSTR\000"
 19573      52535452 
 19573      00
 19574              	.LASF478:
 19575 0a84 50574D44 		.ascii	"PWMDriver\000"
 19575      72697665 
 19575      7200
 19576              	.LASF489:
 19577 0a8e 50574D43 		.ascii	"PWMConfig\000"
 19577      6F6E6669 
 19577      6700
 19578              	.LASF116:
 19579 0a98 5F6D6272 		.ascii	"_mbrlen_state\000"
 19579      6C656E5F 
 19579      73746174 
 19579      6500
 19580              	.LASF670:
 19581 0aa6 44494550 		.ascii	"DIEPMSK\000"
 19581      4D534B00 
 19582              	.LASF713:
 19583 0aae 6576656E 		.ascii	"event_cb\000"
 19583      745F6362 
 19583      00
 19584              	.LASF530:
 19585 0ab7 55415254 		.ascii	"UART_UNINIT\000"
 19585      5F554E49 
 19585      4E495400 
 19586              	.LASF705:
 19587 0ac3 6F75745F 		.ascii	"out_cb\000"
 19587      636200
 19588              	.LASF661:
 19589 0aca 4841494E 		.ascii	"HAINTMSK\000"
 19589      544D534B 
 19589      00
 19590              	.LASF567:
 19591 0ad3 6F75745F 		.ascii	"out_params\000"
 19591      70617261 
 19591      6D7300
 19592              	.LASF200:
ARM GAS  /tmp/ccxvl19p.s 			page 354


 19593 0ade 4A535152 		.ascii	"JSQR\000"
 19593      00
 19594              	.LASF724:
 19595 0ae3 7573625F 		.ascii	"usb_lld_clear_in\000"
 19595      6C6C645F 
 19595      636C6561 
 19595      725F696E 
 19595      00
 19596              	.LASF62:
 19597 0af4 5F737464 		.ascii	"_stdin\000"
 19597      696E00
 19598              	.LASF339:
 19599 0afb 6F626A5F 		.ascii	"obj_list\000"
 19599      6C697374 
 19599      00
 19600              	.LASF470:
 19601 0b04 64696572 		.ascii	"dier\000"
 19601      00
 19602              	.LASF658:
 19603 0b09 72657376 		.ascii	"resvd40C\000"
 19603      64343043 
 19603      00
 19604              	.LASF343:
 19605 0b12 73656D5F 		.ascii	"sem_pool\000"
 19605      706F6F6C 
 19605      00
 19606              	.LASF170:
 19607 0b1b 76697274 		.ascii	"virtual_timer_t\000"
 19607      75616C5F 
 19607      74696D65 
 19607      725F7400 
 19608              	.LASF475:
 19609 0b2b 50574D5F 		.ascii	"PWM_STOP\000"
 19609      53544F50 
 19609      00
 19610              	.LASF445:
 19611 0b34 49324344 		.ascii	"I2CD2\000"
 19611      3200
 19612              	.LASF352:
 19613 0b3a 73686966 		.ascii	"shift\000"
 19613      7400
 19614              	.LASF132:
 19615 0b40 7274636E 		.ascii	"rtcnt_t\000"
 19615      745F7400 
 19616              	.LASF389:
 19617 0b48 6D757465 		.ascii	"mutex\000"
 19617      7800
 19618              	.LASF297:
 19619 0b4e 73697A65 		.ascii	"size\000"
 19619      00
 19620              	.LASF294:
 19621 0b53 63685F69 		.ascii	"ch_idle_thread_wa\000"
 19621      646C655F 
 19621      74687265 
 19621      61645F77 
 19621      6100
 19622              	.LASF453:
ARM GAS  /tmp/ccxvl19p.s 			page 355


 19623 0b65 636C6F63 		.ascii	"clock\000"
 19623      6B00
 19624              	.LASF293:
 19625 0b6b 6F776E65 		.ascii	"owner\000"
 19625      7200
 19626              	.LASF230:
 19627 0b71 43414E5F 		.ascii	"CAN_TypeDef\000"
 19627      54797065 
 19627      44656600 
 19628              	.LASF17:
 19629 0b7d 5F6F6666 		.ascii	"_off_t\000"
 19629      5F7400
 19630              	.LASF780:
 19631 0b84 5F757362 		.ascii	"_usb_suspend\000"
 19631      5F737573 
 19631      70656E64 
 19631      00
 19632              	.LASF625:
 19633 0b91 72657376 		.ascii	"resvd4\000"
 19633      643400
 19634              	.LASF494:
 19635 0b98 53445F53 		.ascii	"SD_STOP\000"
 19635      544F5000 
 19636              	.LASF616:
 19637 0ba0 72657376 		.ascii	"resvd8\000"
 19637      643800
 19638              	.LASF4:
 19639 0ba7 73697A65 		.ascii	"size_t\000"
 19639      5F7400
 19640              	.LASF75:
 19641 0bae 5F6C6F63 		.ascii	"_localtime_buf\000"
 19641      616C7469 
 19641      6D655F62 
 19641      756600
 19642              	.LASF683:
 19643 0bbd 72657376 		.ascii	"resvd880\000"
 19643      64383830 
 19643      00
 19644              	.LASF22:
 19645 0bc6 5F5F636F 		.ascii	"__count\000"
 19645      756E7400 
 19646              	.LASF295:
 19647 0bce 6964656E 		.ascii	"identifier\000"
 19647      74696669 
 19647      657200
 19648              	.LASF127:
 19649 0bd9 75696E74 		.ascii	"uint8_t\000"
 19649      385F7400 
 19650              	.LASF729:
 19651 0be1 7573625F 		.ascii	"usb_lld_start_in\000"
 19651      6C6C645F 
 19651      73746172 
 19651      745F696E 
 19651      00
 19652              	.LASF620:
 19653 0bf2 72657376 		.ascii	"resvd14\000"
 19653      64313400 
ARM GAS  /tmp/ccxvl19p.s 			page 356


 19654              	.LASF415:
 19655 0bfa 43414E5F 		.ascii	"CAN_UNINIT\000"
 19655      554E494E 
 19655      495400
 19656              	.LASF621:
 19657 0c05 72657376 		.ascii	"resvd18\000"
 19657      64313800 
 19658              	.LASF630:
 19659 0c0d 72657376 		.ascii	"resvd1C\000"
 19659      64314300 
 19660              	.LASF488:
 19661 0c15 50574D43 		.ascii	"PWMChannelConfig\000"
 19661      68616E6E 
 19661      656C436F 
 19661      6E666967 
 19661      00
 19662              	.LASF525:
 19663 0c26 73736C69 		.ascii	"ssline\000"
 19663      6E6500
 19664              	.LASF330:
 19665 0c2d 6F626A65 		.ascii	"object_size\000"
 19665      63745F73 
 19665      697A6500 
 19666              	.LASF679:
 19667 0c39 44494550 		.ascii	"DIEPEMPMSK\000"
 19667      454D504D 
 19667      534B00
 19668              	.LASF588:
 19669 0c44 45505F53 		.ascii	"EP_STATUS_STALLED\000"
 19669      54415455 
 19669      535F5354 
 19669      414C4C45 
 19669      4400
 19670              	.LASF624:
 19671 0c56 44494550 		.ascii	"DIEPCTL\000"
 19671      43544C00 
 19672              	.LASF577:
 19673 0c5e 6F746770 		.ascii	"otgparams\000"
 19673      6172616D 
 19673      7300
 19674              	.LASF284:
 19675 0c68 65786974 		.ascii	"exitcode\000"
 19675      636F6465 
 19675      00
 19676              	.LASF738:
 19677 0c71 7573625F 		.ascii	"usb_lld_set_address\000"
 19677      6C6C645F 
 19677      7365745F 
 19677      61646472 
 19677      65737300 
 19678              	.LASF755:
 19679 0c85 6F74675F 		.ascii	"otg_txfifo_handler\000"
 19679      74786669 
 19679      666F5F68 
 19679      616E646C 
 19679      657200
 19680              	.LASF73:
ARM GAS  /tmp/ccxvl19p.s 			page 357


 19681 0c98 5F637674 		.ascii	"_cvtbuf\000"
 19681      62756600 
 19682              	.LASF709:
 19683 0ca0 6F75745F 		.ascii	"out_state\000"
 19683      73746174 
 19683      6500
 19684              	.LASF357:
 19685 0caa 696F5F71 		.ascii	"io_queue_t\000"
 19685      75657565 
 19685      5F7400
 19686              	.LASF741:
 19687 0cb5 7573625F 		.ascii	"usb_lld_start\000"
 19687      6C6C645F 
 19687      73746172 
 19687      7400
 19688              	.LASF345:
 19689 0cc3 6669666F 		.ascii	"fifo_list\000"
 19689      5F6C6973 
 19689      7400
 19690              	.LASF432:
 19691 0ccd 4932435F 		.ascii	"I2C_STOP\000"
 19691      53544F50 
 19691      00
 19692              	.LASF215:
 19693 0cd6 52463052 		.ascii	"RF0R\000"
 19693      00
 19694              	.LASF408:
 19695 0cdb 4144435F 		.ascii	"ADC_ERR_DMAFAILURE\000"
 19695      4552525F 
 19695      444D4146 
 19695      41494C55 
 19695      524500
 19696              	.LASF318:
 19697 0cee 6C697374 		.ascii	"listener\000"
 19697      656E6572 
 19697      00
 19698              	.LASF265:
 19699 0cf7 47545052 		.ascii	"GTPR\000"
 19699      00
 19700              	.LASF648:
 19701 0cfc 72657376 		.ascii	"resvd30\000"
 19701      64333000 
 19702              	.LASF21:
 19703 0d04 5F5F7763 		.ascii	"__wchb\000"
 19703      686200
 19704              	.LASF117:
 19705 0d0b 5F6D6272 		.ascii	"_mbrtowc_state\000"
 19705      746F7763 
 19705      5F737461 
 19705      746500
 19706              	.LASF472:
 19707 0d1a 49435544 		.ascii	"ICUD4\000"
 19707      3400
 19708              	.LASF473:
 19709 0d20 49435544 		.ascii	"ICUD5\000"
 19709      3500
 19710              	.LASF756:
ARM GAS  /tmp/ccxvl19p.s 			page 358


 19711 0d26 6F74675F 		.ascii	"otg_ram_alloc\000"
 19711      72616D5F 
 19711      616C6C6F 
 19711      6300
 19712              	.LASF36:
 19713 0d34 5F5F746D 		.ascii	"__tm_hour\000"
 19713      5F686F75 
 19713      7200
 19714              	.LASF503:
 19715 0d3e 53657269 		.ascii	"SerialDriverVMT\000"
 19715      616C4472 
 19715      69766572 
 19715      564D5400 
 19716              	.LASF299:
 19717 0d4e 70747273 		.ascii	"ptrsize\000"
 19717      697A6500 
 19718              	.LASF597:
 19719 0d56 5553425F 		.ascii	"USB_EP0_ERROR\000"
 19719      4550305F 
 19719      4552524F 
 19719      5200
 19720              	.LASF596:
 19721 0d64 5553425F 		.ascii	"USB_EP0_OUT_RX\000"
 19721      4550305F 
 19721      4F55545F 
 19721      525800
 19722              	.LASF19:
 19723 0d73 77696E74 		.ascii	"wint_t\000"
 19723      5F7400
 19724              	.LASF216:
 19725 0d7a 52463152 		.ascii	"RF1R\000"
 19725      00
 19726              	.LASF382:
 19727 0d7f 41444344 		.ascii	"ADCDriver\000"
 19727      72697665 
 19727      7200
 19728              	.LASF692:
 19729 0d89 6E756D5F 		.ascii	"num_endpoints\000"
 19729      656E6470 
 19729      6F696E74 
 19729      7300
 19730              	.LASF392:
 19731 0d97 41444343 		.ascii	"ADCConfig\000"
 19731      6F6E6669 
 19731      6700
 19732              	.LASF697:
 19733 0da1 746F7473 		.ascii	"totsize\000"
 19733      697A6500 
 19734              	.LASF97:
 19735 0da9 5F6E696F 		.ascii	"_niobs\000"
 19735      627300
 19736              	.LASF614:
 19737 0db0 75736267 		.ascii	"usbgetdescriptor_t\000"
 19737      65746465 
 19737      73637269 
 19737      70746F72 
 19737      5F7400
ARM GAS  /tmp/ccxvl19p.s 			page 359


 19738              	.LASF61:
 19739 0dc3 5F657272 		.ascii	"_errno\000"
 19739      6E6F00
 19740              	.LASF568:
 19741 0dca 65703073 		.ascii	"ep0state\000"
 19741      74617465 
 19741      00
 19742              	.LASF327:
 19743 0dd3 6D656D63 		.ascii	"memcore_t\000"
 19743      6F72655F 
 19743      7400
 19744              	.LASF37:
 19745 0ddd 5F5F746D 		.ascii	"__tm_mday\000"
 19745      5F6D6461 
 19745      7900
 19746              	.LASF350:
 19747 0de7 69666372 		.ascii	"ifcr\000"
 19747      00
 19748              	.LASF743:
 19749 0dec 56656374 		.ascii	"Vector14C\000"
 19749      6F723134 
 19749      4300
 19750              	.LASF707:
 19751 0df6 6F75745F 		.ascii	"out_maxsize\000"
 19751      6D617873 
 19751      697A6500 
 19752              	.LASF514:
 19753 0e02 5350495F 		.ascii	"SPI_ACTIVE\000"
 19753      41435449 
 19753      564500
 19754              	.LASF283:
 19755 0e0d 7264796D 		.ascii	"rdymsg\000"
 19755      736700
 19756              	.LASF44:
 19757 0e14 5F666E61 		.ascii	"_fnargs\000"
 19757      72677300 
 19758              	.LASF476:
 19759 0e1c 50574D5F 		.ascii	"PWM_READY\000"
 19759      52454144 
 19759      5900
 19760              	.LASF206:
 19761 0e26 54445452 		.ascii	"TDTR\000"
 19761      00
 19762              	.LASF685:
 19763 0e2b 72657376 		.ascii	"resvdD00\000"
 19763      64443030 
 19763      00
 19764              	.LASF214:
 19765 0e34 43414E5F 		.ascii	"CAN_FilterRegister_TypeDef\000"
 19765      46696C74 
 19765      65725265 
 19765      67697374 
 19765      65725F54 
 19766              	.LASF547:
 19767 0e4f 74687265 		.ascii	"threadrx\000"
 19767      61647278 
 19767      00
ARM GAS  /tmp/ccxvl19p.s 			page 360


 19768              	.LASF731:
 19769 0e58 7573625F 		.ascii	"usb_lld_read_setup\000"
 19769      6C6C645F 
 19769      72656164 
 19769      5F736574 
 19769      757000
 19770              	.LASF398:
 19771 0e6b 6E756D5F 		.ascii	"num_channels\000"
 19771      6368616E 
 19771      6E656C73 
 19771      00
 19772              	.LASF195:
 19773 0e78 4A4F4652 		.ascii	"JOFR3\000"
 19773      3300
 19774              	.LASF346:
 19775 0e7e 70697065 		.ascii	"pipe_list\000"
 19775      5F6C6973 
 19775      7400
 19776              	.LASF698:
 19777 0e88 55534249 		.ascii	"USBInEndpointState\000"
 19777      6E456E64 
 19777      706F696E 
 19777      74537461 
 19777      746500
 19778              	.LASF500:
 19779 0e9b 6F717565 		.ascii	"oqueue\000"
 19779      756500
 19780              	.LASF358:
 19781 0ea2 696F5F71 		.ascii	"io_queue\000"
 19781      75657565 
 19781      00
 19782              	.LASF14:
 19783 0eab 5F5F7569 		.ascii	"__uint64_t\000"
 19783      6E743634 
 19783      5F7400
 19784              	.LASF302:
 19785 0eb6 6F66665F 		.ascii	"off_prio\000"
 19785      7072696F 
 19785      00
 19786              	.LASF726:
 19787 0ebf 7573625F 		.ascii	"usb_lld_stall_in\000"
 19787      6C6C645F 
 19787      7374616C 
 19787      6C5F696E 
 19787      00
 19788              	.LASF337:
 19789 0ed0 64796E5F 		.ascii	"dyn_list_t\000"
 19789      6C697374 
 19789      5F7400
 19790              	.LASF28:
 19791 0edb 5F6E6578 		.ascii	"_next\000"
 19791      7400
 19792              	.LASF482:
 19793 0ee1 70776D63 		.ascii	"pwmcallback_t\000"
 19793      616C6C62 
 19793      61636B5F 
 19793      7400
ARM GAS  /tmp/ccxvl19p.s 			page 361


 19794              	.LASF81:
 19795 0eef 5F736967 		.ascii	"_signal_buf\000"
 19795      6E616C5F 
 19795      62756600 
 19796              	.LASF467:
 19797 0efb 70657269 		.ascii	"period_cb\000"
 19797      6F645F63 
 19797      6200
 19798              	.LASF437:
 19799 0f05 69326373 		.ascii	"i2cstate_t\000"
 19799      74617465 
 19799      5F7400
 19800              	.LASF83:
 19801 0f10 5F636F6F 		.ascii	"_cookie\000"
 19801      6B696500 
 19802              	.LASF598:
 19803 0f18 75736265 		.ascii	"usbep0state_t\000"
 19803      70307374 
 19803      6174655F 
 19803      7400
 19804              	.LASF218:
 19805 0f26 7354784D 		.ascii	"sTxMailBox\000"
 19805      61696C42 
 19805      6F7800
 19806              	.LASF406:
 19807 0f31 61646373 		.ascii	"adcsample_t\000"
 19807      616D706C 
 19807      655F7400 
 19808              	.LASF361:
 19809 0f3d 715F6275 		.ascii	"q_buffer\000"
 19809      66666572 
 19809      00
 19810              	.LASF241:
 19811 0f46 41504232 		.ascii	"APB2RSTR\000"
 19811      52535452 
 19811      00
 19812              	.LASF269:
 19813 0f4f 706F7274 		.ascii	"port_context\000"
 19813      5F636F6E 
 19813      74657874 
 19813      00
 19814              	.LASF563:
 19815 0f5c 55534244 		.ascii	"USBDriver\000"
 19815      72697665 
 19815      7200
 19816              	.LASF684:
 19817 0f66 72657376 		.ascii	"resvd8C0\000"
 19817      64384330 
 19817      00
 19818              	.LASF717:
 19819 0f6f 55534243 		.ascii	"USBConfig\000"
 19819      6F6E6669 
 19819      6700
 19820              	.LASF627:
 19821 0f79 72657376 		.ascii	"resvdC\000"
 19821      644300
 19822              	.LASF490:
ARM GAS  /tmp/ccxvl19p.s 			page 362


 19823 0f80 50574D44 		.ascii	"PWMD1\000"
 19823      3100
 19824              	.LASF469:
 19825 0f86 6368616E 		.ascii	"channel\000"
 19825      6E656C00 
 19826              	.LASF548:
 19827 0f8e 74687265 		.ascii	"threadtx\000"
 19827      61647478 
 19827      00
 19828              	.LASF250:
 19829 0f97 41504231 		.ascii	"APB1LPENR\000"
 19829      4C50454E 
 19829      5200
 19830              	.LASF135:
 19831 0fa1 74726566 		.ascii	"trefs_t\000"
 19831      735F7400 
 19832              	.LASF758:
 19833 0fa9 6F74675F 		.ascii	"otg_txfifo_flush\000"
 19833      74786669 
 19833      666F5F66 
 19833      6C757368 
 19833      00
 19834              	.LASF34:
 19835 0fba 5F5F746D 		.ascii	"__tm_sec\000"
 19835      5F736563 
 19835      00
 19836              	.LASF710:
 19837 0fc3 696E5F6D 		.ascii	"in_multiplier\000"
 19837      756C7469 
 19837      706C6965 
 19837      7200
 19838              	.LASF380:
 19839 0fd1 4144435F 		.ascii	"ADC_ERROR\000"
 19839      4552524F 
 19839      5200
 19840              	.LASF43:
 19841 0fdb 5F6F6E5F 		.ascii	"_on_exit_args\000"
 19841      65786974 
 19841      5F617267 
 19841      7300
 19842              	.LASF133:
 19843 0fe9 746D6F64 		.ascii	"tmode_t\000"
 19843      655F7400 
 19844              	.LASF244:
 19845 0ff1 41484233 		.ascii	"AHB3ENR\000"
 19845      454E5200 
 19846              	.LASF378:
 19847 0ff9 4144435F 		.ascii	"ADC_ACTIVE\000"
 19847      41435449 
 19847      564500
 19848              	.LASF197:
 19849 1004 53515231 		.ascii	"SQR1\000"
 19849      00
 19850              	.LASF198:
 19851 1009 53515232 		.ascii	"SQR2\000"
 19851      00
 19852              	.LASF199:
ARM GAS  /tmp/ccxvl19p.s 			page 363


 19853 100e 53515233 		.ascii	"SQR3\000"
 19853      00
 19854              	.LASF543:
 19855 1013 55415254 		.ascii	"UARTDriver\000"
 19855      44726976 
 19855      657200
 19856              	.LASF559:
 19857 101e 55415254 		.ascii	"UARTConfig\000"
 19857      436F6E66 
 19857      696700
 19858              	.LASF355:
 19859 1029 73746D33 		.ascii	"stm32_dma_stream_t\000"
 19859      325F646D 
 19859      615F7374 
 19859      7265616D 
 19859      5F7400
 19860              	.LASF715:
 19861 103c 72657175 		.ascii	"requests_hook_cb\000"
 19861      65737473 
 19861      5F686F6F 
 19861      6B5F6362 
 19861      00
 19862              	.LASF119:
 19863 104d 5F776372 		.ascii	"_wcrtomb_state\000"
 19863      746F6D62 
 19863      5F737461 
 19863      746500
 19864              	.LASF522:
 19865 105c 7478646D 		.ascii	"txdmamode\000"
 19865      616D6F64 
 19865      6500
 19866              	.LASF694:
 19867 1066 74787369 		.ascii	"txsize\000"
 19867      7A6500
 19868              	.LASF553:
 19869 106d 7478656E 		.ascii	"txend1_cb\000"
 19869      64315F63 
 19869      6200
 19870              	.LASF560:
 19871 1077 55415254 		.ascii	"UARTD1\000"
 19871      443100
 19872              	.LASF561:
 19873 107e 55415254 		.ascii	"UARTD6\000"
 19873      443600
 19874              	.LASF396:
 19875 1085 68616C5F 		.ascii	"hal_adc_configuration_group\000"
 19875      6164635F 
 19875      636F6E66 
 19875      69677572 
 19875      6174696F 
 19876              	.LASF479:
 19877 10a1 70657269 		.ascii	"period\000"
 19877      6F6400
 19878              	.LASF556:
 19879 10a8 72786368 		.ascii	"rxchar_cb\000"
 19879      61725F63 
 19879      6200
ARM GAS  /tmp/ccxvl19p.s 			page 364


 19880              	.LASF436:
 19881 10b2 4932435F 		.ascii	"I2C_LOCKED\000"
 19881      4C4F434B 
 19881      454400
 19882              	.LASF466:
 19883 10bd 77696474 		.ascii	"width_cb\000"
 19883      685F6362 
 19883      00
 19884              	.LASF582:
 19885 10c6 5553425F 		.ascii	"USB_READY\000"
 19885      52454144 
 19885      5900
 19886              	.LASF510:
 19887 10d0 72656164 		.ascii	"readt\000"
 19887      7400
 19888              	.LASF148:
 19889 10d6 6E616D65 		.ascii	"name\000"
 19889      00
 19890              	.LASF551:
 19891 10db 75617274 		.ascii	"uartccb_t\000"
 19891      6363625F 
 19891      7400
 19892              	.LASF27:
 19893 10e5 5F5F554C 		.ascii	"__ULong\000"
 19893      6F6E6700 
 19894              	.LASF179:
 19895 10ed 70616E69 		.ascii	"panic_msg\000"
 19895      635F6D73 
 19895      6700
 19896              	.LASF515:
 19897 10f7 5350495F 		.ascii	"SPI_COMPLETE\000"
 19897      434F4D50 
 19897      4C455445 
 19897      00
 19898              	.LASF605:
 19899 1104 5553425F 		.ascii	"USB_EVENT_STALLED\000"
 19899      4556454E 
 19899      545F5354 
 19899      414C4C45 
 19899      4400
 19900              	.LASF242:
 19901 1116 41484231 		.ascii	"AHB1ENR\000"
 19901      454E5200 
 19902              	.LASF279:
 19903 111e 43435852 		.ascii	"CCXR\000"
 19903      00
 19904              	.LASF770:
 19905 1123 706F7274 		.ascii	"port_lock_from_isr\000"
 19905      5F6C6F63 
 19905      6B5F6672 
 19905      6F6D5F69 
 19905      737200
 19906              	.LASF699:
 19907 1136 72787369 		.ascii	"rxsize\000"
 19907      7A6500
 19908              	.LASF734:
 19909 113d 7573625F 		.ascii	"usb_lld_disable_endpoints\000"
ARM GAS  /tmp/ccxvl19p.s 			page 365


 19909      6C6C645F 
 19909      64697361 
 19909      626C655F 
 19909      656E6470 
 19910              	.LASF449:
 19911 1157 4943555F 		.ascii	"ICU_WAITING\000"
 19911      57414954 
 19911      494E4700 
 19912              	.LASF619:
 19913 1163 48435453 		.ascii	"HCTSIZ\000"
 19913      495A00
 19914              	.LASF601:
 19915 116a 5553425F 		.ascii	"USB_EVENT_CONFIGURED\000"
 19915      4556454E 
 19915      545F434F 
 19915      4E464947 
 19915      55524544 
 19916              	.LASF507:
 19917 117f 70757474 		.ascii	"putt\000"
 19917      00
 19918              	.LASF110:
 19919 1184 5F737472 		.ascii	"_strtok_last\000"
 19919      746F6B5F 
 19919      6C617374 
 19919      00
 19920              	.LASF739:
 19921 1191 7573625F 		.ascii	"usb_lld_reset\000"
 19921      6C6C645F 
 19921      72657365 
 19921      7400
 19922              	.LASF236:
 19923 119f 43464752 		.ascii	"CFGR\000"
 19923      00
 19924              	.LASF491:
 19925 11a4 50574D44 		.ascii	"PWMD3\000"
 19925      3300
 19926              	.LASF322:
 19927 11aa 6576656E 		.ascii	"event_source_t\000"
 19927      745F736F 
 19927      75726365 
 19927      5F7400
 19928              	.LASF654:
 19929 11b9 72657376 		.ascii	"resvd140\000"
 19929      64313430 
 19929      00
 19930              	.LASF732:
 19931 11c2 7573625F 		.ascii	"usb_lld_get_status_in\000"
 19931      6C6C645F 
 19931      6765745F 
 19931      73746174 
 19931      75735F69 
 19932              	.LASF100:
 19933 11d8 5F736565 		.ascii	"_seed\000"
 19933      6400
 19934              	.LASF86:
 19935 11de 5F736565 		.ascii	"_seek\000"
 19935      6B00
ARM GAS  /tmp/ccxvl19p.s 			page 366


 19936              	.LASF603:
 19937 11e4 5553425F 		.ascii	"USB_EVENT_SUSPEND\000"
 19937      4556454E 
 19937      545F5355 
 19937      5350454E 
 19937      4400
 19938              	.LASF205:
 19939 11f6 4144435F 		.ascii	"ADC_TypeDef\000"
 19939      54797065 
 19939      44656600 
 19940              	.LASF632:
 19941 1202 444F4550 		.ascii	"DOEPCTL\000"
 19941      43544C00 
 19942              	.LASF9:
 19943 120a 73686F72 		.ascii	"short unsigned int\000"
 19943      7420756E 
 19943      7369676E 
 19943      65642069 
 19943      6E7400
 19944              	.LASF3:
 19945 121d 7369676E 		.ascii	"signed char\000"
 19945      65642063 
 19945      68617200 
 19946              	.LASF444:
 19947 1229 73746172 		.ascii	"start\000"
 19947      7400
 19948              	.LASF141:
 19949 122f 75636E74 		.ascii	"ucnt_t\000"
 19949      5F7400
 19950              	.LASF208:
 19951 1236 54444852 		.ascii	"TDHR\000"
 19951      00
 19952              	.LASF736:
 19953 123b 6673697A 		.ascii	"fsize\000"
 19953      6500
 19954              	.LASF376:
 19955 1241 4144435F 		.ascii	"ADC_STOP\000"
 19955      53544F50 
 19955      00
 19956              	.LASF168:
 19957 124a 63757272 		.ascii	"current\000"
 19957      656E7400 
 19958              	.LASF483:
 19959 1252 70776D6D 		.ascii	"pwmmode_t\000"
 19959      6F64655F 
 19959      7400
 19960              	.LASF573:
 19961 125c 73746174 		.ascii	"status\000"
 19961      757300
 19962              	.LASF312:
 19963 1263 6F66665F 		.ascii	"off_time\000"
 19963      74696D65 
 19963      00
 19964              	.LASF254:
 19965 126c 53534347 		.ascii	"SSCGR\000"
 19965      5200
 19966              	.LASF256:
ARM GAS  /tmp/ccxvl19p.s 			page 367


 19967 1272 504C4C53 		.ascii	"PLLSAICFGR\000"
 19967      41494346 
 19967      475200
 19968              	.LASF303:
 19969 127d 6F66665F 		.ascii	"off_ctx\000"
 19969      63747800 
 19970              	.LASF752:
 19971 1285 6669666F 		.ascii	"fifop\000"
 19971      7000
 19972              	.LASF176:
 19973 128b 6C617374 		.ascii	"lasttime\000"
 19973      74696D65 
 19973      00
 19974              	.LASF108:
 19975 1294 5F667265 		.ascii	"_freelist\000"
 19975      656C6973 
 19975      7400
 19976              	.LASF545:
 19977 129e 72787374 		.ascii	"rxstate\000"
 19977      61746500 
 19978              	.LASF574:
 19979 12a6 61646472 		.ascii	"address\000"
 19979      65737300 
 19980              	.LASF154:
 19981 12ae 6D736771 		.ascii	"msgqueue\000"
 19981      75657565 
 19981      00
 19982              	.LASF310:
 19983 12b7 6F66665F 		.ascii	"off_refs\000"
 19983      72656673 
 19983      00
 19984              	.LASF91:
 19985 12c0 5F6F6666 		.ascii	"_offset\000"
 19985      73657400 
 19986              	.LASF188:
 19987 12c8 53797374 		.ascii	"SystemCoreClock\000"
 19987      656D436F 
 19987      7265436C 
 19987      6F636B00 
 19988              	.LASF414:
 19989 12d8 61646365 		.ascii	"adcerrorcallback_t\000"
 19989      72726F72 
 19989      63616C6C 
 19989      6261636B 
 19989      5F7400
 19990              	.LASF766:
 19991 12eb 6F73616C 		.ascii	"osalSysLockFromISR\000"
 19991      5379734C 
 19991      6F636B46 
 19991      726F6D49 
 19991      535200
 19992              	.LASF778:
 19993 12fe 7573624F 		.ascii	"usbObjectInit\000"
 19993      626A6563 
 19993      74496E69 
 19993      7400
 19994              	.LASF150:
ARM GAS  /tmp/ccxvl19p.s 			page 368


 19995 130c 73746174 		.ascii	"state\000"
 19995      6500
 19996              	.LASF52:
 19997 1312 5F5F7362 		.ascii	"__sbuf\000"
 19997      756600
 19998              	.LASF746:
 19999 1319 6F74675F 		.ascii	"otg_isoc_in_failed_handler\000"
 19999      69736F63 
 19999      5F696E5F 
 19999      6661696C 
 19999      65645F68 
 20000              	.LASF114:
 20001 1334 5F6C3634 		.ascii	"_l64a_buf\000"
 20001      615F6275 
 20001      6600
 20002              	.LASF742:
 20003 133e 7573625F 		.ascii	"usb_lld_init\000"
 20003      6C6C645F 
 20003      696E6974 
 20003      00
 20004              	.LASF212:
 20005 134b 52444852 		.ascii	"RDHR\000"
 20005      00
 20006              	.LASF277:
 20007 1350 444D4152 		.ascii	"DMAR\000"
 20007      00
 20008              	.LASF487:
 20009 1355 63616C6C 		.ascii	"callback\000"
 20009      6261636B 
 20009      00
 20010              	.LASF181:
 20011 135e 63685F73 		.ascii	"ch_system\000"
 20011      79737465 
 20011      6D00
 20012              	.LASF255:
 20013 1368 504C4C49 		.ascii	"PLLI2SCFGR\000"
 20013      32534346 
 20013      475200
 20014              	.LASF149:
 20015 1373 77616261 		.ascii	"wabase\000"
 20015      736500
 20016              	.LASF76:
 20017 137a 5F617363 		.ascii	"_asctime_buf\000"
 20017      74696D65 
 20017      5F627566 
 20017      00
 20018              	.LASF538:
 20019 1387 55415254 		.ascii	"UART_RX_IDLE\000"
 20019      5F52585F 
 20019      49444C45 
 20019      00
 20020              	.LASF173:
 20021 1394 66756E63 		.ascii	"func\000"
 20021      00
 20022              	.LASF744:
 20023 1399 7573625F 		.ascii	"usb_lld_serve_interrupt\000"
 20023      6C6C645F 
ARM GAS  /tmp/ccxvl19p.s 			page 369


 20023      73657276 
 20023      655F696E 
 20023      74657272 
 20024              	.LASF20:
 20025 13b1 5F5F7763 		.ascii	"__wch\000"
 20025      6800
 20026              	.LASF291:
 20027 13b7 63685F73 		.ascii	"ch_semaphore\000"
 20027      656D6170 
 20027      686F7265 
 20027      00
 20028              	.LASF120:
 20029 13c4 5F776373 		.ascii	"_wcsrtombs_state\000"
 20029      72746F6D 
 20029      62735F73 
 20029      74617465 
 20029      00
 20030              	.LASF309:
 20031 13d5 6F66665F 		.ascii	"off_flags\000"
 20031      666C6167 
 20031      7300
 20032              	.LASF335:
 20033 13df 64796E5F 		.ascii	"dyn_element_t\000"
 20033      656C656D 
 20033      656E745F 
 20033      7400
 20034              	.LASF628:
 20035 13ed 44494550 		.ascii	"DIEPTSIZ\000"
 20035      5453495A 
 20035      00
 20036              	.LASF158:
 20037 13f6 6D706F6F 		.ascii	"mpool\000"
 20037      6C00
 20038              	.LASF771:
 20039 13fc 706F7274 		.ascii	"port_unlock\000"
 20039      5F756E6C 
 20039      6F636B00 
 20040              	.LASF401:
 20041 1408 736D7072 		.ascii	"smpr1\000"
 20041      3100
 20042              	.LASF402:
 20043 140e 736D7072 		.ascii	"smpr2\000"
 20043      3200
 20044              	.LASF163:
 20045 1414 74687265 		.ascii	"threads_queue_t\000"
 20045      6164735F 
 20045      71756575 
 20045      655F7400 
 20046              	.LASF486:
 20047 1424 70776D63 		.ascii	"pwmcnt_t\000"
 20047      6E745F74 
 20047      00
 20048              	.LASF16:
 20049 142d 5F4C4F43 		.ascii	"_LOCK_RECURSIVE_T\000"
 20049      4B5F5245 
 20049      43555253 
 20049      4956455F 
ARM GAS  /tmp/ccxvl19p.s 			page 370


 20049      5400
 20050              	.LASF266:
 20051 143f 55534152 		.ascii	"USART_TypeDef\000"
 20051      545F5479 
 20051      70654465 
 20051      6600
 20052              	.LASF702:
 20053 144d 65705F6D 		.ascii	"ep_mode\000"
 20053      6F646500 
 20054              	.LASF484:
 20055 1455 70776D63 		.ascii	"pwmchannel_t\000"
 20055      68616E6E 
 20055      656C5F74 
 20055      00
 20056              	.LASF207:
 20057 1462 54444C52 		.ascii	"TDLR\000"
 20057      00
 20058              	.LASF11:
 20059 1467 6C6F6E67 		.ascii	"long int\000"
 20059      20696E74 
 20059      00
 20060              	.LASF184:
 20061 1470 6D61696E 		.ascii	"mainthread\000"
 20061      74687265 
 20061      616400
 20062              	.LASF570:
 20063 147b 6570306E 		.ascii	"ep0n\000"
 20063      00
 20064              	.LASF687:
 20065 1480 72657376 		.ascii	"resvdE04\000"
 20065      64453034 
 20065      00
 20066              	.LASF112:
 20067 1489 5F776374 		.ascii	"_wctomb_state\000"
 20067      6F6D625F 
 20067      73746174 
 20067      6500
 20068              	.LASF239:
 20069 1497 41484233 		.ascii	"AHB3RSTR\000"
 20069      52535452 
 20069      00
 20070              	.LASF360:
 20071 14a0 715F636F 		.ascii	"q_counter\000"
 20071      756E7465 
 20071      7200
 20072              	.LASF412:
 20073 14aa 41444344 		.ascii	"ADCD1\000"
 20073      3100
 20074              	.LASF655:
 20075 14b0 48434647 		.ascii	"HCFG\000"
 20075      00
 20076              	.LASF391:
 20077 14b5 646D616D 		.ascii	"dmamode\000"
 20077      6F646500 
 20078              	.LASF98:
 20079 14bd 5F696F62 		.ascii	"_iobs\000"
 20079      7300
ARM GAS  /tmp/ccxvl19p.s 			page 371


 20080              	.LASF66:
 20081 14c3 5F656D65 		.ascii	"_emergency\000"
 20081      7267656E 
 20081      637900
 20082              	.LASF508:
 20083 14ce 67657474 		.ascii	"gett\000"
 20083      00
 20084              	.LASF383:
 20085 14d3 68616C5F 		.ascii	"hal_adc_driver\000"
 20085      6164635F 
 20085      64726976 
 20085      657200
 20086              	.LASF528:
 20087 14e2 53504944 		.ascii	"SPID4\000"
 20087      3400
 20088              	.LASF529:
 20089 14e8 53504944 		.ascii	"SPID5\000"
 20089      3500
 20090              	.LASF533:
 20091 14ee 75617274 		.ascii	"uartstate_t\000"
 20091      73746174 
 20091      655F7400 
 20092              	.LASF326:
 20093 14fa 656E646D 		.ascii	"endmem\000"
 20093      656D00
 20094              	.LASF286:
 20095 1501 77747472 		.ascii	"wttrp\000"
 20095      7000
 20096              	.LASF364:
 20097 1507 715F7264 		.ascii	"q_rdptr\000"
 20097      70747200 
 20098              	.LASF637:
 20099 150f 474F5447 		.ascii	"GOTGINT\000"
 20099      494E5400 
 20100              	.LASF505:
 20101 1517 77726974 		.ascii	"write\000"
 20101      6500
 20102              	.LASF103:
 20103 151d 5F72616E 		.ascii	"_rand_next\000"
 20103      645F6E65 
 20103      787400
 20104              	.LASF499:
 20105 1528 69717565 		.ascii	"iqueue\000"
 20105      756500
 20106              	.LASF704:
 20107 152f 696E5F63 		.ascii	"in_cb\000"
 20107      6200
 20108              	.LASF633:
 20109 1535 444F4550 		.ascii	"DOEPINT\000"
 20109      494E5400 
 20110              	.LASF341:
 20111 153d 6275665F 		.ascii	"buf_list\000"
 20111      6C697374 
 20111      00
 20112              	.LASF130:
 20113 1546 75696E74 		.ascii	"uint32_t\000"
 20113      33325F74 
ARM GAS  /tmp/ccxvl19p.s 			page 372


 20113      00
 20114              	.LASF307:
 20115 154f 6F66665F 		.ascii	"off_stklimit\000"
 20115      73746B6C 
 20115      696D6974 
 20115      00
 20116              	.LASF29:
 20117 155c 5F6D6178 		.ascii	"_maxwds\000"
 20117      77647300 
 20118              	.LASF613:
 20119 1564 75736272 		.ascii	"usbreqhandler_t\000"
 20119      65716861 
 20119      6E646C65 
 20119      725F7400 
 20120              	.LASF211:
 20121 1574 52444C52 		.ascii	"RDLR\000"
 20121      00
 20122              	.LASF772:
 20123 1579 706F7274 		.ascii	"port_lock\000"
 20123      5F6C6F63 
 20123      6B00
 20124              	.LASF2:
 20125 1583 6C6F6E67 		.ascii	"long double\000"
 20125      20646F75 
 20125      626C6500 
 20126              	.LASF311:
 20127 158f 6F66665F 		.ascii	"off_preempt\000"
 20127      70726565 
 20127      6D707400 
 20128              	.LASF267:
 20129 159b 72656761 		.ascii	"regarm_t\000"
 20129      726D5F74 
 20129      00
 20130              	.LASF138:
 20131 15a4 6576656E 		.ascii	"eventmask_t\000"
 20131      746D6173 
 20131      6B5F7400 
 20132              	.LASF386:
 20133 15b0 64657074 		.ascii	"depth\000"
 20133      6800
 20134              	.LASF225:
 20135 15b6 46464131 		.ascii	"FFA1R\000"
 20135      5200
 20136              	.LASF583:
 20137 15bc 5553425F 		.ascii	"USB_SELECTED\000"
 20137      53454C45 
 20137      43544544 
 20137      00
 20138              	.LASF418:
 20139 15c9 43414E5F 		.ascii	"CAN_READY\000"
 20139      52454144 
 20139      5900
 20140              	.LASF13:
 20141 15d3 6C6F6E67 		.ascii	"long unsigned int\000"
 20141      20756E73 
 20141      69676E65 
 20141      6420696E 
ARM GAS  /tmp/ccxvl19p.s 			page 373


 20141      7400
 20142              	.LASF363:
 20143 15e5 715F7772 		.ascii	"q_wrptr\000"
 20143      70747200 
 20144              	.LASF452:
 20145 15ed 49435544 		.ascii	"ICUDriver\000"
 20145      72697665 
 20145      7200
 20146              	.LASF471:
 20147 15f7 49435543 		.ascii	"ICUConfig\000"
 20147      6F6E6669 
 20147      6700
 20148              	.LASF600:
 20149 1601 5553425F 		.ascii	"USB_EVENT_ADDRESS\000"
 20149      4556454E 
 20149      545F4144 
 20149      44524553 
 20149      5300
 20150              	.LASF550:
 20151 1613 75617274 		.ascii	"uartcb_t\000"
 20151      63625F74 
 20151      00
 20152              	.LASF540:
 20153 161c 55415254 		.ascii	"UART_RX_COMPLETE\000"
 20153      5F52585F 
 20153      434F4D50 
 20153      4C455445 
 20153      00
 20154              	.LASF305:
 20155 162d 6F66665F 		.ascii	"off_older\000"
 20155      6F6C6465 
 20155      7200
 20156              	.LASF606:
 20157 1637 75736265 		.ascii	"usbevent_t\000"
 20157      76656E74 
 20157      5F7400
 20158              	.LASF87:
 20159 1642 5F636C6F 		.ascii	"_close\000"
 20159      736500
 20160              	.LASF728:
 20161 1649 70636E74 		.ascii	"pcnt\000"
 20161      00
 20162              	.LASF26:
 20163 164e 63686172 		.ascii	"char\000"
 20163      00
 20164              	.LASF428:
 20165 1653 43414E43 		.ascii	"CANConfig\000"
 20165      6F6E6669 
 20165      6700
 20166              	.LASF96:
 20167 165d 5F676C75 		.ascii	"_glue\000"
 20167      6500
 20168              	.LASF609:
 20169 1663 55534244 		.ascii	"USBDescriptor\000"
 20169      65736372 
 20169      6970746F 
 20169      7200
ARM GAS  /tmp/ccxvl19p.s 			page 374


 20170              	.LASF767:
 20171 1671 63685379 		.ascii	"chSysUnlockFromISR\000"
 20171      73556E6C 
 20171      6F636B46 
 20171      726F6D49 
 20171      535200
 20172              	.LASF480:
 20173 1684 656E6162 		.ascii	"enabled\000"
 20173      6C656400 
 20174              	.LASF190:
 20175 168c 41504250 		.ascii	"APBPrescTable\000"
 20175      72657363 
 20175      5461626C 
 20175      6500
 20176              	.LASF645:
 20177 169a 47525846 		.ascii	"GRXFSIZ\000"
 20177      53495A00 
 20178              	.LASF501:
 20179 16a2 75736172 		.ascii	"usart\000"
 20179      7400
 20180              	.LASF366:
 20181 16a8 715F6C69 		.ascii	"q_link\000"
 20181      6E6B00
 20182              	.LASF761:
 20183 16af 6F74675F 		.ascii	"otg_disable_ep\000"
 20183      64697361 
 20183      626C655F 
 20183      657000
 20184              	.LASF461:
 20185 16be 4943555F 		.ascii	"ICU_CHANNEL_1\000"
 20185      4348414E 
 20185      4E454C5F 
 20185      3100
 20186              	.LASF370:
 20187 16cc 70616C63 		.ascii	"palcallback_t\000"
 20187      616C6C62 
 20187      61636B5F 
 20187      7400
 20188              	.LASF32:
 20189 16da 5F426967 		.ascii	"_Bigint\000"
 20189      696E7400 
 20190              	.LASF109:
 20191 16e2 5F6D6973 		.ascii	"_misc_reent\000"
 20191      635F7265 
 20191      656E7400 
 20192              	.LASF631:
 20193 16ee 73746D33 		.ascii	"stm32_otg_in_ep_t\000"
 20193      325F6F74 
 20193      675F696E 
 20193      5F65705F 
 20193      7400
 20194              	.LASF642:
 20195 1700 47494E54 		.ascii	"GINTMSK\000"
 20195      4D534B00 
 20196              	.LASF456:
 20197 1708 69637563 		.ascii	"icucallback_t\000"
 20197      616C6C62 
ARM GAS  /tmp/ccxvl19p.s 			page 375


 20197      61636B5F 
 20197      7400
 20198              	.LASF647:
 20199 1716 484E5054 		.ascii	"HNPTXSTS\000"
 20199      58535453 
 20199      00
 20200              	.LASF245:
 20201 171f 41504231 		.ascii	"APB1ENR\000"
 20201      454E5200 
 20202              	.LASF575:
 20203 1727 636F6E66 		.ascii	"configuration\000"
 20203      69677572 
 20203      6174696F 
 20203      6E00
 20204              	.LASF595:
 20205 1735 5553425F 		.ascii	"USB_EP0_OUT_WAITING_STS\000"
 20205      4550305F 
 20205      4F55545F 
 20205      57414954 
 20205      494E475F 
 20206              	.LASF719:
 20207 174d 6570305F 		.ascii	"ep0_state\000"
 20207      73746174 
 20207      6500
 20208              	.LASF458:
 20209 1757 4943555F 		.ascii	"ICU_INPUT_ACTIVE_LOW\000"
 20209      494E5055 
 20209      545F4143 
 20209      54495645 
 20209      5F4C4F57 
 20210              	.LASF356:
 20211 176c 5F73746D 		.ascii	"_stm32_dma_streams\000"
 20211      33325F64 
 20211      6D615F73 
 20211      74726561 
 20211      6D7300
 20212              	.LASF115:
 20213 177f 5F676574 		.ascii	"_getdate_err\000"
 20213      64617465 
 20213      5F657272 
 20213      00
 20214              	.LASF460:
 20215 178c 69637566 		.ascii	"icufreq_t\000"
 20215      7265715F 
 20215      7400
 20216              	.LASF629:
 20217 1796 44545846 		.ascii	"DTXFSTS\000"
 20217      53545300 
 20218              	.LASF737:
 20219 179e 6F746770 		.ascii	"otgp\000"
 20219      00
 20220              	.LASF413:
 20221 17a3 61646363 		.ascii	"adccallback_t\000"
 20221      616C6C62 
 20221      61636B5F 
 20221      7400
 20222              	.LASF140:
ARM GAS  /tmp/ccxvl19p.s 			page 376


 20223 17b1 636E745F 		.ascii	"cnt_t\000"
 20223      7400
 20224              	.LASF569:
 20225 17b7 6570306E 		.ascii	"ep0next\000"
 20225      65787400 
 20226              	.LASF502:
 20227 17bf 72786D61 		.ascii	"rxmask\000"
 20227      736B00
 20228              	.LASF623:
 20229 17c6 73746D33 		.ascii	"stm32_otg_host_chn_t\000"
 20229      325F6F74 
 20229      675F686F 
 20229      73745F63 
 20229      686E5F74 
 20230              	.LASF749:
 20231 17db 6F74675F 		.ascii	"otg_epin_handler\000"
 20231      6570696E 
 20231      5F68616E 
 20231      646C6572 
 20231      00
 20232              	.LASF591:
 20233 17ec 5553425F 		.ascii	"USB_EP0_STP_WAITING\000"
 20233      4550305F 
 20233      5354505F 
 20233      57414954 
 20233      494E4700 
 20234              	.LASF308:
 20235 1800 6F66665F 		.ascii	"off_state\000"
 20235      73746174 
 20235      6500
 20236              	.LASF440:
 20237 180a 7469636B 		.ascii	"ticks\000"
 20237      7300
 20238              	.LASF124:
 20239 1810 5F696D70 		.ascii	"_impure_ptr\000"
 20239      7572655F 
 20239      70747200 
 20240              	.LASF90:
 20241 181c 5F626C6B 		.ascii	"_blksize\000"
 20241      73697A65 
 20241      00
 20242              	.LASF618:
 20243 1825 4843494E 		.ascii	"HCINTMSK\000"
 20243      544D534B 
 20243      00
 20244              	.LASF88:
 20245 182e 5F756275 		.ascii	"_ubuf\000"
 20245      6600
 20246              	.LASF492:
 20247 1834 50574D44 		.ascii	"PWMD12\000"
 20247      313200
 20248              	.LASF384:
 20249 183b 636F6E66 		.ascii	"config\000"
 20249      696700
 20250              	.LASF111:
 20251 1842 5F6D626C 		.ascii	"_mblen_state\000"
 20251      656E5F73 
ARM GAS  /tmp/ccxvl19p.s 			page 377


 20251      74617465 
 20251      00
 20252              	.LASF78:
 20253 184f 5F5F7367 		.ascii	"__sglue\000"
 20253      6C756500 
 20254              	.LASF786:
 20255 1857 5F5F6C6F 		.ascii	"__locale_t\000"
 20255      63616C65 
 20255      5F7400
 20256              	.LASF542:
 20257 1862 75617274 		.ascii	"uartflags_t\000"
 20257      666C6167 
 20257      735F7400 
 20258              	.LASF70:
 20259 186e 5F5F636C 		.ascii	"__cleanup\000"
 20259      65616E75 
 20259      7000
 20260              	.LASF531:
 20261 1878 55415254 		.ascii	"UART_STOP\000"
 20261      5F53544F 
 20261      5000
 20262              	.LASF235:
 20263 1882 504C4C43 		.ascii	"PLLCFGR\000"
 20263      46475200 
 20264              	.LASF555:
 20265 188a 7278656E 		.ascii	"rxend_cb\000"
 20265      645F6362 
 20265      00
 20266              	.LASF407:
 20267 1893 6164635F 		.ascii	"adc_channels_num_t\000"
 20267      6368616E 
 20267      6E656C73 
 20267      5F6E756D 
 20267      5F7400
 20268              	.LASF169:
 20269 18a6 76746675 		.ascii	"vtfunc_t\000"
 20269      6E635F74 
 20269      00
 20270              	.LASF213:
 20271 18af 43414E5F 		.ascii	"CAN_FIFOMailBox_TypeDef\000"
 20271      4649464F 
 20271      4D61696C 
 20271      426F785F 
 20271      54797065 
 20272              	.LASF285:
 20273 18c7 77746F62 		.ascii	"wtobjp\000"
 20273      6A7000
 20274              	.LASF18:
 20275 18ce 5F66706F 		.ascii	"_fpos_t\000"
 20275      735F7400 
 20276              	.LASF57:
 20277 18d6 5F66696C 		.ascii	"_file\000"
 20277      6500
 20278              	.LASF340:
 20279 18dc 6F626A5F 		.ascii	"obj_pool\000"
 20279      706F6F6C 
 20279      00
ARM GAS  /tmp/ccxvl19p.s 			page 378


 20280              	.LASF348:
 20281 18e5 63685F66 		.ascii	"ch_factory\000"
 20281      6163746F 
 20281      727900
 20282              	.LASF365:
 20283 18f0 715F6E6F 		.ascii	"q_notify\000"
 20283      74696679 
 20283      00
 20284              	.LASF289:
 20285 18f9 77746D74 		.ascii	"wtmtxp\000"
 20285      787000
 20286              	.LASF82:
 20287 1900 5F5F7346 		.ascii	"__sFILE\000"
 20287      494C4500 
 20288              	.LASF50:
 20289 1908 5F666E73 		.ascii	"_fns\000"
 20289      00
 20290              	.LASF701:
 20291 190d 5553424F 		.ascii	"USBOutEndpointState\000"
 20291      7574456E 
 20291      64706F69 
 20291      6E745374 
 20291      61746500 
 20292              	.LASF662:
 20293 1921 72657376 		.ascii	"resvd41C\000"
 20293      64343143 
 20293      00
 20294              	.LASF24:
 20295 192a 5F6D6273 		.ascii	"_mbstate_t\000"
 20295      74617465 
 20295      5F7400
 20296              	.LASF210:
 20297 1935 52445452 		.ascii	"RDTR\000"
 20297      00
 20298              	.LASF186:
 20299 193a 73797369 		.ascii	"sysinterval_t\000"
 20299      6E746572 
 20299      76616C5F 
 20299      7400
 20300              	.LASF594:
 20301 1948 5553425F 		.ascii	"USB_EP0_IN_SENDING_STS\000"
 20301      4550305F 
 20301      494E5F53 
 20301      454E4449 
 20301      4E475F53 
 20302              	.LASF252:
 20303 195f 42444352 		.ascii	"BDCR\000"
 20303      00
 20304              	.LASF374:
 20305 1964 5F70616C 		.ascii	"_pal_events\000"
 20305      5F657665 
 20305      6E747300 
 20306              	.LASF599:
 20307 1970 5553425F 		.ascii	"USB_EVENT_RESET\000"
 20307      4556454E 
 20307      545F5245 
 20307      53455400 
ARM GAS  /tmp/ccxvl19p.s 			page 379


 20308              	.LASF320:
 20309 1980 77666C61 		.ascii	"wflags\000"
 20309      677300
 20310              	.LASF373:
 20311 1987 696F6C69 		.ascii	"ioline_t\000"
 20311      6E655F74 
 20311      00
 20312              	.LASF558:
 20313 1990 73706565 		.ascii	"speed\000"
 20313      6400
 20314              	.LASF153:
 20315 1996 77616974 		.ascii	"waiting\000"
 20315      696E6700 
 20316              	.LASF167:
 20317 199e 63685F72 		.ascii	"ch_ready_list\000"
 20317      65616479 
 20317      5F6C6973 
 20317      7400
 20318              	.LASF554:
 20319 19ac 7478656E 		.ascii	"txend2_cb\000"
 20319      64325F63 
 20319      6200
 20320              	.LASF10:
 20321 19b6 5F5F696E 		.ascii	"__int32_t\000"
 20321      7433325F 
 20321      7400
 20322              	.LASF12:
 20323 19c0 5F5F7569 		.ascii	"__uint32_t\000"
 20323      6E743332 
 20323      5F7400
 20324              	.LASF313:
 20325 19cb 63686465 		.ascii	"chdebug_t\000"
 20325      6275675F 
 20325      7400
 20326              	.LASF454:
 20327 19d5 77636372 		.ascii	"wccrp\000"
 20327      7000
 20328              	.LASF178:
 20329 19db 63685F73 		.ascii	"ch_system_debug\000"
 20329      79737465 
 20329      6D5F6465 
 20329      62756700 
 20330              	.LASF673:
 20331 19eb 4441494E 		.ascii	"DAINTMSK\000"
 20331      544D534B 
 20331      00
 20332              	.LASF23:
 20333 19f4 5F5F7661 		.ascii	"__value\000"
 20333      6C756500 
 20334              	.LASF47:
 20335 19fc 5F69735F 		.ascii	"_is_cxa\000"
 20335      63786100 
 20336              	.LASF447:
 20337 1a04 4943555F 		.ascii	"ICU_STOP\000"
 20337      53544F50 
 20337      00
 20338              	.LASF104:
ARM GAS  /tmp/ccxvl19p.s 			page 380


 20339 1a0d 5F6D7072 		.ascii	"_mprec\000"
 20339      656300
 20340              	.LASF353:
 20341 1a14 73656C66 		.ascii	"selfindex\000"
 20341      696E6465 
 20341      7800
 20342              	.LASF315:
 20343 1a1e 6D757465 		.ascii	"mutex_t\000"
 20343      785F7400 
 20344              	.LASF107:
 20345 1a26 5F703573 		.ascii	"_p5s\000"
 20345      00
 20346              	.LASF587:
 20347 1a2b 45505F53 		.ascii	"EP_STATUS_DISABLED\000"
 20347      54415455 
 20347      535F4449 
 20347      5341424C 
 20347      454400
 20348              	.LASF666:
 20349 1a3e 44434647 		.ascii	"DCFG\000"
 20349      00
 20350              	.LASF217:
 20351 1a43 52455345 		.ascii	"RESERVED0\000"
 20351      52564544 
 20351      3000
 20352              	.LASF220:
 20353 1a4d 52455345 		.ascii	"RESERVED1\000"
 20353      52564544 
 20353      3100
 20354              	.LASF222:
 20355 1a57 52455345 		.ascii	"RESERVED2\000"
 20355      52564544 
 20355      3200
 20356              	.LASF224:
 20357 1a61 52455345 		.ascii	"RESERVED3\000"
 20357      52564544 
 20357      3300
 20358              	.LASF226:
 20359 1a6b 52455345 		.ascii	"RESERVED4\000"
 20359      52564544 
 20359      3400
 20360              	.LASF228:
 20361 1a75 52455345 		.ascii	"RESERVED5\000"
 20361      52564544 
 20361      3500
 20362              	.LASF253:
 20363 1a7f 52455345 		.ascii	"RESERVED6\000"
 20363      52564544 
 20363      3600
 20364              	.LASF712:
 20365 1a89 55534245 		.ascii	"USBEndpointConfig\000"
 20365      6E64706F 
 20365      696E7443 
 20365      6F6E6669 
 20365      6700
 20366              	.LASF423:
 20367 1a9b 72787175 		.ascii	"rxqueue\000"
ARM GAS  /tmp/ccxvl19p.s 			page 381


 20367      65756500 
 20368              	.LASF664:
 20369 1aa3 72657376 		.ascii	"resvd444\000"
 20369      64343434 
 20369      00
 20370              	.LASF387:
 20371 1aac 67727070 		.ascii	"grpp\000"
 20371      00
 20372              	.LASF344:
 20373 1ab1 6D62785F 		.ascii	"mbx_list\000"
 20373      6C697374 
 20373      00
 20374              	.LASF304:
 20375 1aba 6F66665F 		.ascii	"off_newer\000"
 20375      6E657765 
 20375      7200
 20376              	.LASF775:
 20377 1ac4 63685379 		.ascii	"chSysPolledDelayX\000"
 20377      73506F6C 
 20377      6C656444 
 20377      656C6179 
 20377      5800
 20378              	.LASF280:
 20379 1ad6 73746D33 		.ascii	"stm32_tim_t\000"
 20379      325F7469 
 20379      6D5F7400 
 20380              	.LASF425:
 20381 1ae2 7478656D 		.ascii	"txempty_cb\000"
 20381      7074795F 
 20381      636200
 20382              	.LASF144:
 20383 1aed 71756575 		.ascii	"queue\000"
 20383      6500
 20384              	.LASF578:
 20385 1af3 706D6E65 		.ascii	"pmnext\000"
 20385      787400
 20386              	.LASF187:
 20387 1afa 49544D5F 		.ascii	"ITM_RxBuffer\000"
 20387      52784275 
 20387      66666572 
 20387      00
 20388              	.LASF462:
 20389 1b07 4943555F 		.ascii	"ICU_CHANNEL_2\000"
 20389      4348414E 
 20389      4E454C5F 
 20389      3200
 20390              	.LASF15:
 20391 1b15 6C6F6E67 		.ascii	"long long unsigned int\000"
 20391      206C6F6E 
 20391      6720756E 
 20391      7369676E 
 20391      65642069 
 20392              	.LASF281:
 20393 1b2c 6F666673 		.ascii	"offset\000"
 20393      657400
 20394              	.LASF325:
 20395 1b33 6E657874 		.ascii	"nextmem\000"
ARM GAS  /tmp/ccxvl19p.s 			page 382


 20395      6D656D00 
 20396              	.LASF247:
 20397 1b3b 41484231 		.ascii	"AHB1LPENR\000"
 20397      4C50454E 
 20397      5200
 20398              	.LASF557:
 20399 1b45 72786572 		.ascii	"rxerr_cb\000"
 20399      725F6362 
 20399      00
 20400              	.LASF527:
 20401 1b4e 53504944 		.ascii	"SPID1\000"
 20401      3100
 20402              	.LASF231:
 20403 1b54 4E445452 		.ascii	"NDTR\000"
 20403      00
 20404              	.LASF71:
 20405 1b59 5F67616D 		.ascii	"_gamma_signgam\000"
 20405      6D615F73 
 20405      69676E67 
 20405      616D00
 20406              	.LASF626:
 20407 1b68 44494550 		.ascii	"DIEPINT\000"
 20407      494E5400 
 20408              	.LASF451:
 20409 1b70 69637573 		.ascii	"icustate_t\000"
 20409      74617465 
 20409      5F7400
 20410              	.LASF264:
 20411 1b7b 5350495F 		.ascii	"SPI_TypeDef\000"
 20411      54797065 
 20411      44656600 
 20412              	.LASF271:
 20413 1b87 534D4352 		.ascii	"SMCR\000"
 20413      00
 20414              	.LASF301:
 20415 1b8c 74687265 		.ascii	"threadsize\000"
 20415      61647369 
 20415      7A6500
 20416              	.LASF757:
 20417 1b97 6F74675F 		.ascii	"otg_ram_reset\000"
 20417      72616D5F 
 20417      72657365 
 20417      7400
 20418              	.LASF171:
 20419 1ba5 63685F76 		.ascii	"ch_virtual_timer\000"
 20419      69727475 
 20419      616C5F74 
 20419      696D6572 
 20419      00
 20420              	.LASF290:
 20421 1bb6 65776D61 		.ascii	"ewmask\000"
 20421      736B00
 20422              	.LASF321:
 20423 1bbd 6576656E 		.ascii	"event_source\000"
 20423      745F736F 
 20423      75726365 
 20423      00
ARM GAS  /tmp/ccxvl19p.s 			page 383


 20424              	.LASF782:
 20425 1bca 5F706F72 		.ascii	"_port_irq_epilogue\000"
 20425      745F6972 
 20425      715F6570 
 20425      696C6F67 
 20425      756500
 20426              	.LASF429:
 20427 1bdd 43414E44 		.ascii	"CAND1\000"
 20427      3100
 20428              	.LASF223:
 20429 1be3 46533152 		.ascii	"FS1R\000"
 20429      00
 20430              	.LASF134:
 20431 1be8 74737461 		.ascii	"tstate_t\000"
 20431      74655F74 
 20431      00
 20432              	.LASF125:
 20433 1bf1 5F676C6F 		.ascii	"_global_impure_ptr\000"
 20433      62616C5F 
 20433      696D7075 
 20433      72655F70 
 20433      747200
 20434              	.LASF672:
 20435 1c04 4441494E 		.ascii	"DAINT\000"
 20435      5400
 20436              	.LASF523:
 20437 1c0a 53504943 		.ascii	"SPIConfig\000"
 20437      6F6E6669 
 20437      6700
 20438              	.LASF68:
 20439 1c14 5F756E73 		.ascii	"_unspecified_locale_info\000"
 20439      70656369 
 20439      66696564 
 20439      5F6C6F63 
 20439      616C655F 
 20440              	.LASF123:
 20441 1c2d 5F5F7366 		.ascii	"__sf_fake_stderr\000"
 20441      5F66616B 
 20441      655F7374 
 20441      64657272 
 20441      00
 20442              	.LASF564:
 20443 1c3e 7472616E 		.ascii	"transmitting\000"
 20443      736D6974 
 20443      74696E67 
 20443      00
 20444              	.LASF481:
 20445 1c4b 6368616E 		.ascii	"channels\000"
 20445      6E656C73 
 20445      00
 20446              	.LASF733:
 20447 1c54 7573625F 		.ascii	"usb_lld_get_status_out\000"
 20447      6C6C645F 
 20447      6765745F 
 20447      73746174 
 20447      75735F6F 
 20448              	.LASF67:
ARM GAS  /tmp/ccxvl19p.s 			page 384


 20449 1c6b 5F5F7364 		.ascii	"__sdidinit\000"
 20449      6964696E 
 20449      697400
 20450              	.LASF497:
 20451 1c76 53657269 		.ascii	"SerialDriver\000"
 20451      616C4472 
 20451      69766572 
 20451      00
 20452              	.LASF201:
 20453 1c83 4A445231 		.ascii	"JDR1\000"
 20453      00
 20454              	.LASF202:
 20455 1c88 4A445232 		.ascii	"JDR2\000"
 20455      00
 20456              	.LASF203:
 20457 1c8d 4A445233 		.ascii	"JDR3\000"
 20457      00
 20458              	.LASF204:
 20459 1c92 4A445234 		.ascii	"JDR4\000"
 20459      00
 20460              	.LASF634:
 20461 1c97 444F4550 		.ascii	"DOEPTSIZ\000"
 20461      5453495A 
 20461      00
 20462              	.LASF251:
 20463 1ca0 41504232 		.ascii	"APB2LPENR\000"
 20463      4C50454E 
 20463      5200
 20464              	.LASF342:
 20465 1caa 73656D5F 		.ascii	"sem_list\000"
 20465      6C697374 
 20465      00
 20466              	.LASF377:
 20467 1cb3 4144435F 		.ascii	"ADC_READY\000"
 20467      52454144 
 20467      5900
 20468              	.LASF306:
 20469 1cbd 6F66665F 		.ascii	"off_name\000"
 20469      6E616D65 
 20469      00
 20470              	.LASF541:
 20471 1cc6 75617274 		.ascii	"uartrxstate_t\000"
 20471      72787374 
 20471      6174655F 
 20471      7400
 20472              	.LASF25:
 20473 1cd4 5F666C6F 		.ascii	"_flock_t\000"
 20473      636B5F74 
 20473      00
 20474              	.LASF174:
 20475 1cdd 76697274 		.ascii	"virtual_timers_list_t\000"
 20475      75616C5F 
 20475      74696D65 
 20475      72735F6C 
 20475      6973745F 
 20476              	.LASF777:
 20477 1cf3 6E766963 		.ascii	"nvicEnableVector\000"
ARM GAS  /tmp/ccxvl19p.s 			page 385


 20477      456E6162 
 20477      6C655665 
 20477      63746F72 
 20477      00
 20478              	.LASF122:
 20479 1d04 5F5F7366 		.ascii	"__sf_fake_stdout\000"
 20479      5F66616B 
 20479      655F7374 
 20479      646F7574 
 20479      00
 20480              	.LASF537:
 20481 1d15 75617274 		.ascii	"uarttxstate_t\000"
 20481      74787374 
 20481      6174655F 
 20481      7400
 20482              	.LASF585:
 20483 1d23 5553425F 		.ascii	"USB_SUSPENDED\000"
 20483      53555350 
 20483      454E4445 
 20483      4400
 20484              	.LASF640:
 20485 1d31 47525354 		.ascii	"GRSTCTL\000"
 20485      43544C00 
 20486              	.LASF397:
 20487 1d39 63697263 		.ascii	"circular\000"
 20487      756C6172 
 20487      00
 20488              	.LASF517:
 20489 1d42 53504944 		.ascii	"SPIDriver\000"
 20489      72697665 
 20489      7200
 20490              	.LASF665:
 20491 1d4c 72657376 		.ascii	"resvd700\000"
 20491      64373030 
 20491      00
 20492              	.LASF262:
 20493 1d55 49325343 		.ascii	"I2SCFGR\000"
 20493      46475200 
 20494              	.LASF723:
 20495 1d5d 75736270 		.ascii	"usbp\000"
 20495      00
 20496              	.LASF509:
 20497 1d62 77726974 		.ascii	"writet\000"
 20497      657400
 20498              	.LASF1:
 20499 1d69 6C6F6E67 		.ascii	"long long int\000"
 20499      206C6F6E 
 20499      6720696E 
 20499      7400
 20500              	.LASF652:
 20501 1d77 48505458 		.ascii	"HPTXFSIZ\000"
 20501      4653495A 
 20501      00
 20502              	.LASF725:
 20503 1d80 7573625F 		.ascii	"usb_lld_clear_out\000"
 20503      6C6C645F 
 20503      636C6561 
ARM GAS  /tmp/ccxvl19p.s 			page 386


 20503      725F6F75 
 20503      7400
 20504              	.LASF94:
 20505 1d92 5F666C61 		.ascii	"_flags2\000"
 20505      67733200 
 20506              	.LASF768:
 20507 1d9a 63685379 		.ascii	"chSysLockFromISR\000"
 20507      734C6F63 
 20507      6B46726F 
 20507      6D495352 
 20507      00
 20508              	.LASF459:
 20509 1dab 6963756D 		.ascii	"icumode_t\000"
 20509      6F64655F 
 20509      7400
 20510              	.LASF411:
 20511 1db5 61646365 		.ascii	"adcerror_t\000"
 20511      72726F72 
 20511      5F7400
 20512              	.LASF760:
 20513 1dc0 6F74675F 		.ascii	"otg_rxfifo_flush\000"
 20513      72786669 
 20513      666F5F66 
 20513      6C757368 
 20513      00
 20514              	.LASF714:
 20515 1dd1 6765745F 		.ascii	"get_descriptor_cb\000"
 20515      64657363 
 20515      72697074 
 20515      6F725F63 
 20515      6200
 20516              	.LASF69:
 20517 1de3 5F6C6F63 		.ascii	"_locale\000"
 20517      616C6500 
 20518              	.LASF139:
 20519 1deb 6576656E 		.ascii	"eventflags_t\000"
 20519      74666C61 
 20519      67735F74 
 20519      00
 20520              	.LASF513:
 20521 1df8 5350495F 		.ascii	"SPI_READY\000"
 20521      52454144 
 20521      5900
 20522              	.LASF592:
 20523 1e02 5553425F 		.ascii	"USB_EP0_IN_TX\000"
 20523      4550305F 
 20523      494E5F54 
 20523      5800
 20524              	.LASF735:
 20525 1e10 7573625F 		.ascii	"usb_lld_init_endpoint\000"
 20525      6C6C645F 
 20525      696E6974 
 20525      5F656E64 
 20525      706F696E 
 20526              	.LASF688:
 20527 1e26 4649464F 		.ascii	"FIFO\000"
 20527      00
ARM GAS  /tmp/ccxvl19p.s 			page 387


 20528              	.LASF219:
 20529 1e2b 73464946 		.ascii	"sFIFOMailBox\000"
 20529      4F4D6169 
 20529      6C426F78 
 20529      00
 20530              	.LASF189:
 20531 1e38 41484250 		.ascii	"AHBPrescTable\000"
 20531      72657363 
 20531      5461626C 
 20531      6500
 20532              	.LASF783:
 20533 1e46 474E5520 		.ascii	"GNU C11 7.3.1 20180622 (release) [ARM/embedded-7-br"
 20533      43313120 
 20533      372E332E 
 20533      31203230 
 20533      31383036 
 20534 1e79 616E6368 		.ascii	"anch revision 261907] -mcpu=cortex-m4 -mthumb -mflo"
 20534      20726576 
 20534      6973696F 
 20534      6E203236 
 20534      31393037 
 20535 1eac 61742D61 		.ascii	"at-abi=hard -mfpu=fpv4-sp-d16 -ggdb -O3 -std=c11 -f"
 20535      62693D68 
 20535      61726420 
 20535      2D6D6670 
 20535      753D6670 
 20536 1edf 6F6D6974 		.ascii	"omit-frame-pointer -ffunction-sections -fdata-secti"
 20536      2D667261 
 20536      6D652D70 
 20536      6F696E74 
 20536      6572202D 
 20537 1f12 6F6E7320 		.ascii	"ons -fno-common\000"
 20537      2D666E6F 
 20537      2D636F6D 
 20537      6D6F6E00 
 20538              	.LASF667:
 20539 1f22 4443544C 		.ascii	"DCTL\000"
 20539      00
 20540              	.LASF696:
 20541 1f27 74786275 		.ascii	"txbuf\000"
 20541      6600
 20542              	.LASF686:
 20543 1f2d 50434743 		.ascii	"PCGCCTL\000"
 20543      43544C00 
 20544              	.LASF604:
 20545 1f35 5553425F 		.ascii	"USB_EVENT_WAKEUP\000"
 20545      4556454E 
 20545      545F5741 
 20545      4B455550 
 20545      00
 20546              	.LASF773:
 20547 1f46 5F5F7365 		.ascii	"__set_BASEPRI\000"
 20547      745F4241 
 20547      53455052 
 20547      4900
 20548              	.LASF711:
 20549 1f54 73657475 		.ascii	"setup_buf\000"
ARM GAS  /tmp/ccxvl19p.s 			page 388


 20549      705F6275 
 20549      6600
 20550              	.LASF649:
 20551 1f5e 72657376 		.ascii	"resvd34\000"
 20551      64333400 
 20552              	.LASF400:
 20553 1f66 6572726F 		.ascii	"error_cb\000"
 20553      725F6362 
 20553      00
 20554              	.LASF446:
 20555 1f6f 4943555F 		.ascii	"ICU_UNINIT\000"
 20555      554E494E 
 20555      495400
 20556              	.LASF159:
 20557 1f7a 74687265 		.ascii	"thread_reference_t\000"
 20557      61645F72 
 20557      65666572 
 20557      656E6365 
 20557      5F7400
 20558              	.LASF565:
 20559 1f8d 72656365 		.ascii	"receiving\000"
 20559      6976696E 
 20559      6700
 20560              	.LASF95:
 20561 1f97 5F5F4649 		.ascii	"__FILE\000"
 20561      4C4500
 20562              	.LASF465:
 20563 1f9e 66726571 		.ascii	"frequency\000"
 20563      75656E63 
 20563      7900
 20564              	.LASF524:
 20565 1fa8 68616C5F 		.ascii	"hal_spi_config\000"
 20565      7370695F 
 20565      636F6E66 
 20565      696700
 20566              	.LASF763:
 20567 1fb7 6F73616C 		.ascii	"osalSysPolledDelayX\000"
 20567      53797350 
 20567      6F6C6C65 
 20567      6444656C 
 20567      61795800 
 20568              	.LASF30:
 20569 1fcb 5F736967 		.ascii	"_sign\000"
 20569      6E00
 20570              	.LASF708:
 20571 1fd1 696E5F73 		.ascii	"in_state\000"
 20571      74617465 
 20571      00
 20572              	.LASF35:
 20573 1fda 5F5F746D 		.ascii	"__tm_min\000"
 20573      5F6D696E 
 20573      00
 20574              	.LASF298:
 20575 1fe3 76657273 		.ascii	"version\000"
 20575      696F6E00 
 20576              	.LASF319:
 20577 1feb 6576656E 		.ascii	"events\000"
ARM GAS  /tmp/ccxvl19p.s 			page 389


 20577      747300
 20578              	.LASF532:
 20579 1ff2 55415254 		.ascii	"UART_READY\000"
 20579      5F524541 
 20579      445900
 20580              	.LASF273:
 20581 1ffd 43434D52 		.ascii	"CCMR1\000"
 20581      3100
 20582              	.LASF274:
 20583 2003 43434D52 		.ascii	"CCMR2\000"
 20583      3200
 20584              	.LASF278:
 20585 2009 43434D52 		.ascii	"CCMR3\000"
 20585      3300
 20586              	.LASF0:
 20587 200f 756E7369 		.ascii	"unsigned int\000"
 20587      676E6564 
 20587      20696E74 
 20587      00
 20588              	.LASF404:
 20589 201c 73717232 		.ascii	"sqr2\000"
 20589      00
 20590              	.LASF405:
 20591 2021 73717233 		.ascii	"sqr3\000"
 20591      00
 20592              	.LASF74:
 20593 2026 5F723438 		.ascii	"_r48\000"
 20593      00
 20594              	.LASF656:
 20595 202b 48464952 		.ascii	"HFIR\000"
 20595      00
 20596              	.LASF580:
 20597 2030 5553425F 		.ascii	"USB_UNINIT\000"
 20597      554E494E 
 20597      495400
 20598              	.LASF349:
 20599 203b 73747265 		.ascii	"stream\000"
 20599      616D00
 20600              	.LASF351:
 20601 2042 64756D6D 		.ascii	"dummy\000"
 20601      7900
 20602              	.LASF751:
 20603 2048 6F74675F 		.ascii	"otg_fifo_read_to_buffer\000"
 20603      6669666F 
 20603      5F726561 
 20603      645F746F 
 20603      5F627566 
 20604              	.LASF7:
 20605 2060 73686F72 		.ascii	"short int\000"
 20605      7420696E 
 20605      7400
 20606              	.LASF610:
 20607 206a 75736263 		.ascii	"usbcallback_t\000"
 20607      616C6C62 
 20607      61636B5F 
 20607      7400
 20608              	.LASF333:
ARM GAS  /tmp/ccxvl19p.s 			page 390


 20609 2078 6D656D6F 		.ascii	"memory_pool_t\000"
 20609      72795F70 
 20609      6F6F6C5F 
 20609      7400
 20610              	.LASF84:
 20611 2086 5F726561 		.ascii	"_read\000"
 20611      6400
 20612              	.LASF639:
 20613 208c 47555342 		.ascii	"GUSBCFG\000"
 20613      43464700 
 20614              	.LASF165:
 20615 2094 70726576 		.ascii	"prev\000"
 20615      00
 20616              	.LASF544:
 20617 2099 74787374 		.ascii	"txstate\000"
 20617      61746500 
 20618              	.LASF369:
 20619 20a1 6F757470 		.ascii	"output_queue_t\000"
 20619      75745F71 
 20619      75657565 
 20619      5F7400
 20620              	.LASF99:
 20621 20b0 5F72616E 		.ascii	"_rand48\000"
 20621      64343800 
 20622              	.LASF689:
 20623 20b8 73746D33 		.ascii	"stm32_otg_t\000"
 20623      325F6F74 
 20623      675F7400 
 20624              	.LASF727:
 20625 20c4 7573625F 		.ascii	"usb_lld_stall_out\000"
 20625      6C6C645F 
 20625      7374616C 
 20625      6C5F6F75 
 20625      7400
 20626              	.LASF607:
 20627 20d6 75645F73 		.ascii	"ud_size\000"
 20627      697A6500 
 20628              	.LASF157:
 20629 20de 7265616C 		.ascii	"realprio\000"
 20629      7072696F 
 20629      00
 20630              	.LASF243:
 20631 20e7 41484232 		.ascii	"AHB2ENR\000"
 20631      454E5200 
 20632              	.LASF237:
 20633 20ef 41484231 		.ascii	"AHB1RSTR\000"
 20633      52535452 
 20633      00
 20634              	.LASF562:
 20635 20f8 55415254 		.ascii	"UARTD8\000"
 20635      443800
 20636              	.LASF706:
 20637 20ff 696E5F6D 		.ascii	"in_maxsize\000"
 20637      61787369 
 20637      7A6500
 20638              	.LASF536:
 20639 210a 55415254 		.ascii	"UART_TX_COMPLETE\000"
ARM GAS  /tmp/ccxvl19p.s 			page 391


 20639      5F54585F 
 20639      434F4D50 
 20639      4C455445 
 20639      00
 20640              	.LASF151:
 20641 211b 666C6167 		.ascii	"flags\000"
 20641      7300
 20642              	.LASF161:
 20643 2121 63685F74 		.ascii	"ch_threads_list\000"
 20643      68726561 
 20643      64735F6C 
 20643      69737400 
 20644              	.LASF495:
 20645 2131 53445F52 		.ascii	"SD_READY\000"
 20645      45414459 
 20645      00
 20646              	.LASF586:
 20647 213a 75736273 		.ascii	"usbstate_t\000"
 20647      74617465 
 20647      5F7400
 20648              		.ident	"GCC: (GNU Tools for Arm Embedded Processors 7-2018-q3-update) 7.3.1 20180622 (release) [AR
ARM GAS  /tmp/ccxvl19p.s 			page 392


DEFINED SYMBOLS
                            *ABS*:0000000000000000 hal_usb_lld.c
     /tmp/ccxvl19p.s:18     .text.Vector14C:0000000000000000 $t
     /tmp/ccxvl19p.s:26     .text.Vector14C:0000000000000000 Vector14C
     /tmp/ccxvl19p.s:580    .text.Vector14C:00000000000002f0 $d
     /tmp/ccxvl19p.s:589    .text.Vector14C:00000000000002f4 $t
     /tmp/ccxvl19p.s:1125   .text.Vector14C:00000000000005ec $d
     /tmp/ccxvl19p.s:1135   .text.Vector14C:00000000000005f0 $t
     /tmp/ccxvl19p.s:1789   .text.Vector14C:0000000000000918 $d
     /tmp/ccxvl19p.s:1805   .text.Vector14C:000000000000091c $t
     /tmp/ccxvl19p.s:2259   .text.Vector14C:0000000000000ae4 $d
     /tmp/ccxvl19p.s:2275   .text.usb_lld_init:0000000000000000 $t
     /tmp/ccxvl19p.s:2283   .text.usb_lld_init:0000000000000000 usb_lld_init
     /tmp/ccxvl19p.s:2309   .text.usb_lld_init:0000000000000018 $d
     /tmp/ccxvl19p.s:2315   .text.usb_lld_start:0000000000000000 $t
     /tmp/ccxvl19p.s:2323   .text.usb_lld_start:0000000000000000 usb_lld_start
     /tmp/ccxvl19p.s:2765   .text.usb_lld_start:0000000000000294 $d
     /tmp/ccxvl19p.s:2775   .text.usb_lld_stop:0000000000000000 $t
     /tmp/ccxvl19p.s:2783   .text.usb_lld_stop:0000000000000000 usb_lld_stop
     /tmp/ccxvl19p.s:3124   .text.usb_lld_stop:0000000000000218 $d
     /tmp/ccxvl19p.s:3130   .text.usb_lld_reset:0000000000000000 $t
     /tmp/ccxvl19p.s:3138   .text.usb_lld_reset:0000000000000000 usb_lld_reset
     /tmp/ccxvl19p.s:3482   .text.usb_lld_reset:00000000000001d8 $d
     /tmp/ccxvl19p.s:3488   .text.usb_lld_set_address:0000000000000000 $t
     /tmp/ccxvl19p.s:3496   .text.usb_lld_set_address:0000000000000000 usb_lld_set_address
     /tmp/ccxvl19p.s:3519   .text.usb_lld_init_endpoint:0000000000000000 $t
     /tmp/ccxvl19p.s:3527   .text.usb_lld_init_endpoint:0000000000000000 usb_lld_init_endpoint
     /tmp/ccxvl19p.s:3758   .text.usb_lld_init_endpoint:0000000000000150 $d
     /tmp/ccxvl19p.s:3767   .text.usb_lld_disable_endpoints:0000000000000000 $t
     /tmp/ccxvl19p.s:3775   .text.usb_lld_disable_endpoints:0000000000000000 usb_lld_disable_endpoints
     /tmp/ccxvl19p.s:4075   .text.usb_lld_get_status_out:0000000000000000 $t
     /tmp/ccxvl19p.s:4083   .text.usb_lld_get_status_out:0000000000000000 usb_lld_get_status_out
     /tmp/ccxvl19p.s:4115   .text.usb_lld_get_status_in:0000000000000000 $t
     /tmp/ccxvl19p.s:4123   .text.usb_lld_get_status_in:0000000000000000 usb_lld_get_status_in
     /tmp/ccxvl19p.s:4155   .text.usb_lld_read_setup:0000000000000000 $t
     /tmp/ccxvl19p.s:4163   .text.usb_lld_read_setup:0000000000000000 usb_lld_read_setup
     /tmp/ccxvl19p.s:4186   .text.usb_lld_start_out:0000000000000000 $t
     /tmp/ccxvl19p.s:4194   .text.usb_lld_start_out:0000000000000000 usb_lld_start_out
     /tmp/ccxvl19p.s:4297   .text.usb_lld_start_in:0000000000000000 $t
     /tmp/ccxvl19p.s:4305   .text.usb_lld_start_in:0000000000000000 usb_lld_start_in
     /tmp/ccxvl19p.s:4427   .text.usb_lld_start_in:00000000000000a4 $d
     /tmp/ccxvl19p.s:4433   .text.usb_lld_stall_out:0000000000000000 $t
     /tmp/ccxvl19p.s:4441   .text.usb_lld_stall_out:0000000000000000 usb_lld_stall_out
     /tmp/ccxvl19p.s:4462   .text.usb_lld_stall_in:0000000000000000 $t
     /tmp/ccxvl19p.s:4470   .text.usb_lld_stall_in:0000000000000000 usb_lld_stall_in
     /tmp/ccxvl19p.s:4491   .text.usb_lld_clear_out:0000000000000000 $t
     /tmp/ccxvl19p.s:4499   .text.usb_lld_clear_out:0000000000000000 usb_lld_clear_out
     /tmp/ccxvl19p.s:4520   .text.usb_lld_clear_in:0000000000000000 $t
     /tmp/ccxvl19p.s:4528   .text.usb_lld_clear_in:0000000000000000 usb_lld_clear_in
     /tmp/ccxvl19p.s:4554   .bss.USBD1:0000000000000000 USBD1
     /tmp/ccxvl19p.s:4550   .bss.USBD1:0000000000000000 $d
     /tmp/ccxvl19p.s:4557   .bss.ep0_state:0000000000000000 $d
     /tmp/ccxvl19p.s:4560   .bss.ep0_state:0000000000000000 ep0_state
     /tmp/ccxvl19p.s:4563   .bss.ep0setup_buffer:0000000000000000 $d
     /tmp/ccxvl19p.s:4566   .bss.ep0setup_buffer:0000000000000000 ep0setup_buffer
     /tmp/ccxvl19p.s:4569   .rodata.ep0config:0000000000000000 $d
     /tmp/ccxvl19p.s:4573   .rodata.ep0config:0000000000000000 ep0config
ARM GAS  /tmp/ccxvl19p.s 			page 393


     /tmp/ccxvl19p.s:4586   .rodata.fsparams:0000000000000000 $d
     /tmp/ccxvl19p.s:4590   .rodata.fsparams:0000000000000000 fsparams

UNDEFINED SYMBOLS
_port_irq_epilogue
_usb_wakeup
chSysPolledDelayX
_usb_suspend
_usb_reset
usbObjectInit
nvicEnableVector
nvicDisableVector
_usb_ep0setup
_usb_ep0in
_usb_ep0out
