ARM GAS  /tmp/ccBwsbhU.s 			page 1


   1              		.cpu cortex-m4
   2              		.eabi_attribute 27, 1
   3              		.eabi_attribute 28, 1
   4              		.eabi_attribute 20, 1
   5              		.eabi_attribute 21, 1
   6              		.eabi_attribute 23, 3
   7              		.eabi_attribute 24, 1
   8              		.eabi_attribute 25, 1
   9              		.eabi_attribute 26, 1
  10              		.eabi_attribute 30, 2
  11              		.eabi_attribute 34, 1
  12              		.eabi_attribute 18, 4
  13              		.file	"hal_serial_lld.c"
  14              		.text
  15              	.Ltext0:
  16              		.cfi_sections	.debug_frame
  17              		.section	.text.notify7,"ax",%progbits
  18              		.align	1
  19              		.p2align 2,,3
  20              		.syntax unified
  21              		.thumb
  22              		.thumb_func
  23              		.fpu fpv4-sp-d16
  24              		.type	notify7, %function
  25              	notify7:
  26              	.LFB331:
  27              		.file 1 "./RM18A-ChibiOS18-Core/chibios/os/hal/ports/STM32/LLD/USARTv1/hal_serial_lld.c"
  28              		.loc 1 285 0
  29              		.cfi_startproc
  30              		@ args = 0, pretend = 0, frame = 0
  31              		@ frame_needed = 0, uses_anonymous_args = 0
  32              		@ link register save eliminated.
  33              	.LVL0:
  34              		.loc 1 288 0
  35 0000 024A     		ldr	r2, .L3
  36 0002 D368     		ldr	r3, [r2, #12]
  37 0004 43F0C003 		orr	r3, r3, #192
  38 0008 D360     		str	r3, [r2, #12]
  39              		.loc 1 289 0
  40 000a 7047     		bx	lr
  41              	.L4:
  42              		.align	2
  43              	.L3:
  44 000c 00780040 		.word	1073772544
  45              		.cfi_endproc
  46              	.LFE331:
  47              		.size	notify7, .-notify7
  48              		.section	.text.Vector188,"ax",%progbits
  49              		.align	1
  50              		.p2align 2,,3
  51              		.global	Vector188
  52              		.syntax unified
  53              		.thumb
  54              		.thumb_func
  55              		.fpu fpv4-sp-d16
  56              		.type	Vector188, %function
  57              	Vector188:
ARM GAS  /tmp/ccBwsbhU.s 			page 2


  58              	.LFB332:
  59              		.loc 1 427 0
  60              		.cfi_startproc
  61              		@ args = 0, pretend = 0, frame = 8
  62              		@ frame_needed = 0, uses_anonymous_args = 0
  63              	.LVL1:
  64 0000 2DE9F04F 		push	{r4, r5, r6, r7, r8, r9, r10, fp, lr}
  65              		.cfi_def_cfa_offset 36
  66              		.cfi_offset 4, -36
  67              		.cfi_offset 5, -32
  68              		.cfi_offset 6, -28
  69              		.cfi_offset 7, -24
  70              		.cfi_offset 8, -20
  71              		.cfi_offset 9, -16
  72              		.cfi_offset 10, -12
  73              		.cfi_offset 11, -8
  74              		.cfi_offset 14, -4
  75              	.LBB224:
  76              	.LBB225:
  77              		.loc 1 183 0
  78 0004 574E     		ldr	r6, .L58
  79 0006 756F     		ldr	r5, [r6, #116]
  80              	.LVL2:
  81              		.loc 1 184 0
  82 0008 D5F80C90 		ldr	r9, [r5, #12]
  83              	.LVL3:
  84              		.loc 1 185 0
  85 000c 2B68     		ldr	r3, [r5]
  86              		.loc 1 188 0
  87 000e D805     		lsls	r0, r3, #23
  88              	.LBE225:
  89              	.LBE224:
  90              		.loc 1 427 0
  91 0010 83B0     		sub	sp, sp, #12
  92              		.cfi_def_cfa_offset 48
  93              	.LBB297:
  94              	.LBB295:
  95              		.loc 1 185 0
  96 0012 9CB2     		uxth	r4, r3
  97              	.LVL4:
  98              		.loc 1 188 0
  99 0014 73D4     		bmi	.L52
 100              	.L6:
 101              	.LVL5:
 102              	.LBB226:
 103              	.LBB227:
 104              	.LBB228:
 105              	.LBB229:
 106              	.LBB230:
 107              	.LBB231:
 108              		.file 2 "./RM18A-ChibiOS18-Core/chibios/os/common/ext/ARM/CMSIS/Core/Include/cmsis_gcc.h"
 109              		.loc 2 493 0
 110 0016 2023     		movs	r3, #32
 111              		.syntax unified
 112              	@ 493 "./RM18A-ChibiOS18-Core/chibios/os/common/ext/ARM/CMSIS/Core/Include/cmsis_gcc.h" 1
 113 0018 83F31188 		MSR basepri, r3
 114              	@ 0 "" 2
ARM GAS  /tmp/ccBwsbhU.s 			page 3


 115              	.LVL6:
 116              		.thumb
 117              		.syntax unified
 118              	.LBE231:
 119              	.LBE230:
 120              	.LBE229:
 121              	.LBE228:
 122              	.LBE227:
 123              	.LBE226:
 124              		.loc 1 197 0
 125 001c 14F02F0F 		tst	r4, #47
 126 0020 0BD0     		beq	.L8
 127              	.LBB232:
 128              	.LBB233:
 129              	.LBB234:
 130              	.LBB235:
 131              	.LBB236:
 132              		.file 3 "./RM18A-ChibiOS18-Core/chibios/os/hal/osal/rt/osal.h"
 133              		.loc 3 895 0
 134 0022 DFF84881 		ldr	r8, .L58+8
 135              	.L7:
 136              	.LBE236:
 137              	.LBE235:
 138              	.LBE234:
 139              	.LBE233:
 140              		.loc 1 202 0
 141 0026 2307     		lsls	r3, r4, #28
 142 0028 30D1     		bne	.L53
 143              	.L9:
 144              		.loc 1 205 0
 145 002a A006     		lsls	r0, r4, #26
 146              		.loc 1 204 0
 147 002c 6B68     		ldr	r3, [r5, #4]
 148              	.LVL7:
 149              		.loc 1 205 0
 150 002e 20D4     		bmi	.L54
 151              		.loc 1 207 0
 152 0030 2C68     		ldr	r4, [r5]
 153              	.LVL8:
 154 0032 A4B2     		uxth	r4, r4
 155              	.LVL9:
 156              	.LBE232:
 157              		.loc 1 197 0
 158 0034 14F02F0F 		tst	r4, #47
 159 0038 F5D1     		bne	.L7
 160              	.LVL10:
 161              	.L8:
 162              	.LBB243:
 163              	.LBB244:
 164              	.LBB245:
 165              	.LBB246:
 166              	.LBB247:
 167              	.LBB248:
 168              		.loc 2 493 0
 169 003a 0023     		movs	r3, #0
 170              		.syntax unified
 171              	@ 493 "./RM18A-ChibiOS18-Core/chibios/os/common/ext/ARM/CMSIS/Core/Include/cmsis_gcc.h" 1
ARM GAS  /tmp/ccBwsbhU.s 			page 4


 172 003c 83F31188 		MSR basepri, r3
 173              	@ 0 "" 2
 174              	.LVL11:
 175              		.thumb
 176              		.syntax unified
 177              	.LBE248:
 178              	.LBE247:
 179              	.LBE246:
 180              	.LBE245:
 181              	.LBE244:
 182              	.LBE243:
 183              		.loc 1 212 0
 184 0040 19F0800F 		tst	r9, #128
 185 0044 01D0     		beq	.L17
 186 0046 2206     		lsls	r2, r4, #24
 187 0048 68D4     		bmi	.L55
 188              	.L17:
 189              		.loc 1 226 0
 190 004a 19F0400F 		tst	r9, #64
 191 004e 0BD0     		beq	.L20
 192 0050 6306     		lsls	r3, r4, #25
 193 0052 09D5     		bpl	.L20
 194              	.LVL12:
 195              	.LBB249:
 196              	.LBB250:
 197              	.LBB251:
 198              	.LBB252:
 199              	.LBB253:
 200              	.LBB254:
 201              		.loc 2 493 0
 202 0054 2023     		movs	r3, #32
 203              		.syntax unified
 204              	@ 493 "./RM18A-ChibiOS18-Core/chibios/os/common/ext/ARM/CMSIS/Core/Include/cmsis_gcc.h" 1
 205 0056 83F31188 		MSR basepri, r3
 206              	@ 0 "" 2
 207              	.LVL13:
 208              		.thumb
 209              		.syntax unified
 210              	.LBE254:
 211              	.LBE253:
 212              	.LBE252:
 213              	.LBE251:
 214              	.LBE250:
 215              	.LBE249:
 216              		.loc 1 228 0
 217 005a D6E91123 		ldrd	r2, r3, [r6, #68]
 218 005e 9A42     		cmp	r2, r3
 219 0060 69D0     		beq	.L56
 220              	.L21:
 221              	.LVL14:
 222              	.LBB255:
 223              	.LBB256:
 224              	.LBB257:
 225              	.LBB258:
 226              	.LBB259:
 227              	.LBB260:
 228              		.loc 2 493 0
ARM GAS  /tmp/ccBwsbhU.s 			page 5


 229 0062 0023     		movs	r3, #0
 230              		.syntax unified
 231              	@ 493 "./RM18A-ChibiOS18-Core/chibios/os/common/ext/ARM/CMSIS/Core/Include/cmsis_gcc.h" 1
 232 0064 83F31188 		MSR basepri, r3
 233              	@ 0 "" 2
 234              	.LVL15:
 235              		.thumb
 236              		.syntax unified
 237              	.L20:
 238              	.LBE260:
 239              	.LBE259:
 240              	.LBE258:
 241              	.LBE257:
 242              	.LBE256:
 243              	.LBE255:
 244              	.LBE295:
 245              	.LBE297:
 246              		.loc 1 434 0
 247 0068 03B0     		add	sp, sp, #12
 248              		.cfi_remember_state
 249              		.cfi_def_cfa_offset 36
 250              		@ sp needed
 251 006a BDE8F04F 		pop	{r4, r5, r6, r7, r8, r9, r10, fp, lr}
 252              		.cfi_restore 14
 253              		.cfi_restore 11
 254              		.cfi_restore 10
 255              		.cfi_restore 9
 256              		.cfi_restore 8
 257              		.cfi_restore 7
 258              		.cfi_restore 6
 259              		.cfi_restore 5
 260              		.cfi_restore 4
 261              		.cfi_def_cfa_offset 0
 262              	.LVL16:
 263              		.loc 1 433 0
 264 006e FFF7FEBF 		b	_port_irq_epilogue
 265              	.LVL17:
 266              	.L54:
 267              		.cfi_restore_state
 268              	.LBB298:
 269              	.LBB296:
 270              	.LBB261:
 271              		.loc 1 204 0
 272 0072 96F87810 		ldrb	r1, [r6, #120]	@ zero_extendqisi2
 273              		.loc 1 206 0
 274 0076 3B48     		ldr	r0, .L58
 275 0078 1940     		ands	r1, r1, r3
 276 007a FFF7FEFF 		bl	sdIncomingDataI
 277              	.LVL18:
 278              		.loc 1 207 0
 279 007e 2C68     		ldr	r4, [r5]
 280              	.LVL19:
 281 0080 A4B2     		uxth	r4, r4
 282              	.LVL20:
 283              	.LBE261:
 284              		.loc 1 197 0
 285 0082 14F02F0F 		tst	r4, #47
ARM GAS  /tmp/ccBwsbhU.s 			page 6


 286 0086 D8D0     		beq	.L8
 287              	.LBB262:
 288              		.loc 1 202 0
 289 0088 2307     		lsls	r3, r4, #28
 290 008a CED0     		beq	.L9
 291              	.L53:
 292              	.LVL21:
 293              	.LBB242:
 294              	.LBB241:
 295              		.loc 1 166 0
 296 008c 04F00803 		and	r3, r4, #8
 297 0090 002B     		cmp	r3, #0
 298 0092 14BF     		ite	ne
 299 0094 A021     		movne	r1, #160
 300 0096 2021     		moveq	r1, #32
 301 0098 0191     		str	r1, [sp, #4]
 302 009a 15BF     		itete	ne
 303 009c 4FF4C073 		movne	r3, #384
 304 00a0 4FF48073 		moveq	r3, #256
 305 00a4 4FF4E077 		movne	r7, #448
 306 00a8 4FF4A077 		moveq	r7, #320
 307 00ac 15BF     		itete	ne
 308 00ae C022     		movne	r2, #192
 309 00b0 4022     		moveq	r2, #64
 310 00b2 4FF4D07B 		movne	fp, #416
 311 00b6 4FF4907B 		moveq	fp, #288
 312 00ba 15BF     		itete	ne
 313 00bc 4FF4F07A 		movne	r10, #480
 314 00c0 4FF4B07A 		moveq	r10, #352
 315 00c4 4FF0E00E 		movne	lr, #224
 316 00c8 4FF0600E 		moveq	lr, #96
 317 00cc 14BF     		ite	ne
 318 00ce 8021     		movne	r1, #128
 319 00d0 0021     		moveq	r1, #0
 320              	.LVL22:
 321              		.loc 1 168 0
 322 00d2 14F0010F 		tst	r4, #1
 323              		.loc 1 170 0
 324 00d6 04F0020C 		and	ip, r4, #2
 325              	.LBB239:
 326              	.LBB237:
 327              		.loc 3 895 0
 328 00da 4046     		mov	r0, r8
 329              	.LBE237:
 330              	.LBE239:
 331              		.loc 1 168 0
 332 00dc 03D0     		beq	.L11
 333              		.loc 1 169 0
 334 00de 0199     		ldr	r1, [sp, #4]
 335              	.LVL23:
 336              		.loc 1 168 0
 337 00e0 5B46     		mov	r3, fp
 338 00e2 5746     		mov	r7, r10
 339 00e4 7246     		mov	r2, lr
 340              	.LVL24:
 341              	.L11:
 342              		.loc 1 170 0
ARM GAS  /tmp/ccBwsbhU.s 			page 7


 343 00e6 BCF1000F 		cmp	ip, #0
 344 00ea 1CBF     		itt	ne
 345 00ec 3B46     		movne	r3, r7
 346 00ee 1146     		movne	r1, r2
 347              	.LVL25:
 348              		.loc 1 173 0
 349 00f0 14F0040F 		tst	r4, #4
 350              	.LVL26:
 351              	.LBB240:
 352              	.LBB238:
 353              		.loc 3 895 0
 354 00f4 18BF     		it	ne
 355 00f6 1946     		movne	r1, r3
 356              	.LVL27:
 357 00f8 FFF7FEFF 		bl	chEvtBroadcastFlagsI
 358              	.LVL28:
 359 00fc 95E7     		b	.L9
 360              	.LVL29:
 361              	.L52:
 362              	.LBE238:
 363              	.LBE240:
 364              	.LBE241:
 365              	.LBE242:
 366              	.LBE262:
 367              	.LBB263:
 368              	.LBB264:
 369              	.LBB265:
 370              	.LBB266:
 371              	.LBB267:
 372              	.LBB268:
 373              		.loc 2 493 0
 374 00fe 2023     		movs	r3, #32
 375              		.syntax unified
 376              	@ 493 "./RM18A-ChibiOS18-Core/chibios/os/common/ext/ARM/CMSIS/Core/Include/cmsis_gcc.h" 1
 377 0100 83F31188 		MSR basepri, r3
 378              	@ 0 "" 2
 379              	.LVL30:
 380              		.thumb
 381              		.syntax unified
 382              	.LBE268:
 383              	.LBE267:
 384              	.LBE266:
 385              	.LBE265:
 386              	.LBE264:
 387              	.LBE263:
 388              	.LBB269:
 389              	.LBB270:
 390              		.loc 3 895 0
 391 0104 4FF40071 		mov	r1, #512
 392 0108 301D     		adds	r0, r6, #4
 393 010a FFF7FEFF 		bl	chEvtBroadcastFlagsI
 394              	.LVL31:
 395              	.LBE270:
 396              	.LBE269:
 397              		.loc 1 191 0
 398 010e 6FF48073 		mvn	r3, #256
 399 0112 2B60     		str	r3, [r5]
ARM GAS  /tmp/ccBwsbhU.s 			page 8


 400              	.LVL32:
 401              	.LBB271:
 402              	.LBB272:
 403              	.LBB273:
 404              	.LBB274:
 405              	.LBB275:
 406              	.LBB276:
 407              		.loc 2 493 0
 408 0114 0023     		movs	r3, #0
 409              		.syntax unified
 410              	@ 493 "./RM18A-ChibiOS18-Core/chibios/os/common/ext/ARM/CMSIS/Core/Include/cmsis_gcc.h" 1
 411 0116 83F31188 		MSR basepri, r3
 412              	@ 0 "" 2
 413              	.LVL33:
 414              		.thumb
 415              		.syntax unified
 416 011a 7CE7     		b	.L6
 417              	.L55:
 418              	.LVL34:
 419              	.LBE276:
 420              	.LBE275:
 421              	.LBE274:
 422              	.LBE273:
 423              	.LBE272:
 424              	.LBE271:
 425              	.LBB277:
 426              	.LBB278:
 427              	.LBB279:
 428              	.LBB280:
 429              	.LBB281:
 430              	.LBB282:
 431              	.LBB283:
 432 011c 2023     		movs	r3, #32
 433              		.syntax unified
 434              	@ 493 "./RM18A-ChibiOS18-Core/chibios/os/common/ext/ARM/CMSIS/Core/Include/cmsis_gcc.h" 1
 435 011e 83F31188 		MSR basepri, r3
 436              	@ 0 "" 2
 437              	.LVL35:
 438              		.thumb
 439              		.syntax unified
 440              	.LBE283:
 441              	.LBE282:
 442              	.LBE281:
 443              	.LBE280:
 444              	.LBE279:
 445              	.LBE278:
 446              		.loc 1 215 0
 447 0122 1148     		ldr	r0, .L58+4
 448 0124 FFF7FEFF 		bl	oqGetI
 449              	.LVL36:
 450              		.loc 1 216 0
 451 0128 0028     		cmp	r0, #0
 452 012a 11DB     		blt	.L57
 453              		.loc 1 221 0
 454 012c 6860     		str	r0, [r5, #4]
 455              	.LVL37:
 456              	.L19:
ARM GAS  /tmp/ccBwsbhU.s 			page 9


 457              	.LBB284:
 458              	.LBB285:
 459              	.LBB286:
 460              	.LBB287:
 461              	.LBB288:
 462              	.LBB289:
 463              		.loc 2 493 0
 464 012e 0023     		movs	r3, #0
 465              		.syntax unified
 466              	@ 493 "./RM18A-ChibiOS18-Core/chibios/os/common/ext/ARM/CMSIS/Core/Include/cmsis_gcc.h" 1
 467 0130 83F31188 		MSR basepri, r3
 468              	@ 0 "" 2
 469              	.LVL38:
 470              		.thumb
 471              		.syntax unified
 472 0134 89E7     		b	.L17
 473              	.L56:
 474              	.LBE289:
 475              	.LBE288:
 476              	.LBE287:
 477              	.LBE286:
 478              	.LBE285:
 479              	.LBE284:
 480              	.LBE277:
 481              		.loc 1 228 0
 482 0136 B36B     		ldr	r3, [r6, #56]
 483 0138 002B     		cmp	r3, #0
 484 013a 92D0     		beq	.L21
 485              	.LVL39:
 486              	.LBB292:
 487              	.LBB293:
 488              		.loc 3 895 0
 489 013c 1021     		movs	r1, #16
 490 013e 0B48     		ldr	r0, .L58+8
 491 0140 FFF7FEFF 		bl	chEvtBroadcastFlagsI
 492              	.LVL40:
 493              	.LBE293:
 494              	.LBE292:
 495              		.loc 1 230 0
 496 0144 4FF6BF73 		movw	r3, #65471
 497 0148 09EA0303 		and	r3, r9, r3
 498 014c EB60     		str	r3, [r5, #12]
 499 014e 88E7     		b	.L21
 500              	.LVL41:
 501              	.L57:
 502              	.LBB294:
 503              	.LBB290:
 504              	.LBB291:
 505              		.loc 3 895 0
 506 0150 0821     		movs	r1, #8
 507 0152 0648     		ldr	r0, .L58+8
 508              	.LVL42:
 509 0154 FFF7FEFF 		bl	chEvtBroadcastFlagsI
 510              	.LVL43:
 511              	.LBE291:
 512              	.LBE290:
 513              		.loc 1 218 0
ARM GAS  /tmp/ccBwsbhU.s 			page 10


 514 0158 4FF67F73 		movw	r3, #65407
 515 015c 09EA0303 		and	r3, r9, r3
 516 0160 EB60     		str	r3, [r5, #12]
 517 0162 E4E7     		b	.L19
 518              	.L59:
 519              		.align	2
 520              	.L58:
 521 0164 00000000 		.word	.LANCHOR0
 522 0168 30000000 		.word	.LANCHOR0+48
 523 016c 04000000 		.word	.LANCHOR0+4
 524              	.LBE294:
 525              	.LBE296:
 526              	.LBE298:
 527              		.cfi_endproc
 528              	.LFE332:
 529              		.size	Vector188, .-Vector188
 530              		.section	.text.sd_lld_init,"ax",%progbits
 531              		.align	1
 532              		.p2align 2,,3
 533              		.global	sd_lld_init
 534              		.syntax unified
 535              		.thumb
 536              		.thumb_func
 537              		.fpu fpv4-sp-d16
 538              		.type	sd_lld_init, %function
 539              	sd_lld_init:
 540              	.LFB333:
 541              		.loc 1 465 0
 542              		.cfi_startproc
 543              		@ args = 0, pretend = 0, frame = 0
 544              		@ frame_needed = 0, uses_anonymous_args = 0
 545 0000 10B5     		push	{r4, lr}
 546              		.cfi_def_cfa_offset 8
 547              		.cfi_offset 4, -8
 548              		.cfi_offset 14, -4
 549              		.loc 1 498 0
 550 0002 044C     		ldr	r4, .L62
 551 0004 044A     		ldr	r2, .L62+4
 552 0006 2046     		mov	r0, r4
 553 0008 0021     		movs	r1, #0
 554 000a FFF7FEFF 		bl	sdObjectInit
 555              	.LVL44:
 556              		.loc 1 499 0
 557 000e 034B     		ldr	r3, .L62+8
 558 0010 6367     		str	r3, [r4, #116]
 559              		.loc 1 506 0
 560 0012 10BD     		pop	{r4, pc}
 561              	.L63:
 562              		.align	2
 563              	.L62:
 564 0014 00000000 		.word	.LANCHOR0
 565 0018 00000000 		.word	notify7
 566 001c 00780040 		.word	1073772544
 567              		.cfi_endproc
 568              	.LFE333:
 569              		.size	sd_lld_init, .-sd_lld_init
 570              		.section	.text.sd_lld_start,"ax",%progbits
ARM GAS  /tmp/ccBwsbhU.s 			page 11


 571              		.align	1
 572              		.p2align 2,,3
 573              		.global	sd_lld_start
 574              		.syntax unified
 575              		.thumb
 576              		.thumb_func
 577              		.fpu fpv4-sp-d16
 578              		.type	sd_lld_start, %function
 579              	sd_lld_start:
 580              	.LFB334:
 581              		.loc 1 518 0
 582              		.cfi_startproc
 583              		@ args = 0, pretend = 0, frame = 0
 584              		@ frame_needed = 0, uses_anonymous_args = 0
 585              	.LVL45:
 586 0000 70B5     		push	{r4, r5, r6, lr}
 587              		.cfi_def_cfa_offset 16
 588              		.cfi_offset 4, -16
 589              		.cfi_offset 5, -12
 590              		.cfi_offset 6, -8
 591              		.cfi_offset 14, -4
 592              		.loc 1 523 0
 593 0002 037A     		ldrb	r3, [r0, #8]	@ zero_extendqisi2
 594              		.loc 1 521 0
 595 0004 294C     		ldr	r4, .L77
 596 0006 0029     		cmp	r1, #0
 597 0008 18BF     		it	ne
 598 000a 0C46     		movne	r4, r1
 599              	.LVL46:
 600              		.loc 1 523 0
 601 000c 012B     		cmp	r3, #1
 602              		.loc 1 518 0
 603 000e 0546     		mov	r5, r0
 604              		.loc 1 523 0
 605 0010 39D0     		beq	.L75
 606              	.LVL47:
 607              	.L66:
 608              	.LBB301:
 609              	.LBB302:
 610              		.loc 1 103 0
 611 0012 6B6F     		ldr	r3, [r5, #116]
 612              	.LVL48:
 613              		.loc 1 107 0
 614 0014 264A     		ldr	r2, .L77+4
 615 0016 2168     		ldr	r1, [r4]
 616 0018 9342     		cmp	r3, r2
 617 001a 27D0     		beq	.L67
 618 001c 02F58062 		add	r2, r2, #1024
 619 0020 9342     		cmp	r3, r2
 620 0022 23D0     		beq	.L67
 621              		.loc 1 113 0
 622 0024 234A     		ldr	r2, .L77+8
 623 0026 B2FBF1F1 		udiv	r1, r2, r1
 624              	.LVL49:
 625              		.loc 1 119 0
 626 002a A288     		ldrh	r2, [r4, #4]
 627 002c 1004     		lsls	r0, r2, #16
ARM GAS  /tmp/ccBwsbhU.s 			page 12


 628 002e 23D4     		bmi	.L76
 629              	.L70:
 630              		.loc 1 125 0
 631 0030 E688     		ldrh	r6, [r4, #6]
 632              		.loc 1 126 0
 633 0032 2089     		ldrh	r0, [r4, #8]
 634              		.loc 1 122 0
 635 0034 9960     		str	r1, [r3, #8]
 636              		.loc 1 128 0
 637 0036 42F40451 		orr	r1, r2, #8448
 638              	.LVL50:
 639              		.loc 1 136 0
 640 003a 02F4A052 		and	r2, r2, #5120
 641              		.loc 1 125 0
 642 003e 46F04004 		orr	r4, r6, #64
 643              	.LVL51:
 644              		.loc 1 128 0
 645 0042 41F02C01 		orr	r1, r1, #44
 646              		.loc 1 136 0
 647 0046 B2F5806F 		cmp	r2, #1024
 648              		.loc 1 126 0
 649 004a 40F00100 		orr	r0, r0, #1
 650              		.loc 1 130 0
 651 004e 4FF00006 		mov	r6, #0
 652              		.loc 1 125 0
 653 0052 1C61     		str	r4, [r3, #16]
 654              	.LVL52:
 655              		.loc 1 137 0
 656 0054 18BF     		it	ne
 657 0056 FF22     		movne	r2, #255
 658              		.loc 1 126 0
 659 0058 5861     		str	r0, [r3, #20]
 660              		.loc 1 137 0
 661 005a 08BF     		it	eq
 662 005c 7F22     		moveq	r2, #127
 663              		.loc 1 127 0
 664 005e D960     		str	r1, [r3, #12]
 665              		.loc 1 130 0
 666 0060 1E60     		str	r6, [r3]
 667              		.loc 1 131 0
 668 0062 1968     		ldr	r1, [r3]
 669              		.loc 1 132 0
 670 0064 5B68     		ldr	r3, [r3, #4]
 671              	.LVL53:
 672 0066 85F87820 		strb	r2, [r5, #120]
 673              	.LVL54:
 674              	.LBE302:
 675              	.LBE301:
 676              		.loc 1 574 0
 677 006a 70BD     		pop	{r4, r5, r6, pc}
 678              	.LVL55:
 679              	.L67:
 680              	.LBB304:
 681              	.LBB303:
 682              		.loc 1 111 0
 683 006c 124A     		ldr	r2, .L77+12
 684 006e B2FBF1F1 		udiv	r1, r2, r1
ARM GAS  /tmp/ccBwsbhU.s 			page 13


 685              	.LVL56:
 686              		.loc 1 119 0
 687 0072 A288     		ldrh	r2, [r4, #4]
 688 0074 1004     		lsls	r0, r2, #16
 689 0076 DBD5     		bpl	.L70
 690              	.L76:
 691              		.loc 1 120 0
 692 0078 21F00700 		bic	r0, r1, #7
 693 007c 01F00701 		and	r1, r1, #7
 694              	.LVL57:
 695 0080 41EA4001 		orr	r1, r1, r0, lsl #1
 696              	.LVL58:
 697 0084 D4E7     		b	.L70
 698              	.LVL59:
 699              	.L75:
 700              	.LBE303:
 701              	.LBE304:
 702              		.loc 1 561 0
 703 0086 0D4B     		ldr	r3, .L77+16
 704 0088 9842     		cmp	r0, r3
 705 008a C2D1     		bne	.L66
 706              		.loc 1 562 0
 707 008c 0C4B     		ldr	r3, .L77+20
 708 008e 1A6C     		ldr	r2, [r3, #64]
 709 0090 42F08042 		orr	r2, r2, #1073741824
 710 0094 1A64     		str	r2, [r3, #64]
 711 0096 1A6E     		ldr	r2, [r3, #96]
 712 0098 42F08042 		orr	r2, r2, #1073741824
 713 009c 1A66     		str	r2, [r3, #96]
 714              		.loc 1 563 0
 715 009e 0C21     		movs	r1, #12
 716 00a0 5220     		movs	r0, #82
 717              	.LVL60:
 718              		.loc 1 562 0
 719 00a2 1B6E     		ldr	r3, [r3, #96]
 720              		.loc 1 563 0
 721 00a4 FFF7FEFF 		bl	nvicEnableVector
 722              	.LVL61:
 723 00a8 B3E7     		b	.L66
 724              	.L78:
 725 00aa 00BF     		.align	2
 726              	.L77:
 727 00ac 00000000 		.word	.LANCHOR1
 728 00b0 00100140 		.word	1073811456
 729 00b4 80DE8002 		.word	42000000
 730 00b8 00BD0105 		.word	84000000
 731 00bc 00000000 		.word	.LANCHOR0
 732 00c0 00380240 		.word	1073887232
 733              		.cfi_endproc
 734              	.LFE334:
 735              		.size	sd_lld_start, .-sd_lld_start
 736              		.section	.text.sd_lld_stop,"ax",%progbits
 737              		.align	1
 738              		.p2align 2,,3
 739              		.global	sd_lld_stop
 740              		.syntax unified
 741              		.thumb
ARM GAS  /tmp/ccBwsbhU.s 			page 14


 742              		.thumb_func
 743              		.fpu fpv4-sp-d16
 744              		.type	sd_lld_stop, %function
 745              	sd_lld_stop:
 746              	.LFB335:
 747              		.loc 1 585 0
 748              		.cfi_startproc
 749              		@ args = 0, pretend = 0, frame = 0
 750              		@ frame_needed = 0, uses_anonymous_args = 0
 751              		@ link register save eliminated.
 752              	.LVL62:
 753              		.loc 1 587 0
 754 0000 037A     		ldrb	r3, [r0, #8]	@ zero_extendqisi2
 755 0002 022B     		cmp	r3, #2
 756 0004 00D0     		beq	.L83
 757              	.L79:
 758              		.loc 1 646 0
 759 0006 7047     		bx	lr
 760              	.L83:
 761              		.loc 1 632 0
 762 0008 0A49     		ldr	r1, .L84
 763              		.loc 1 588 0
 764 000a 436F     		ldr	r3, [r0, #116]
 765              	.LVL63:
 766              	.LBB305:
 767              	.LBB306:
 768              		.loc 1 152 0
 769 000c 0022     		movs	r2, #0
 770              	.LBE306:
 771              	.LBE305:
 772              		.loc 1 632 0
 773 000e 8842     		cmp	r0, r1
 774              	.LBB308:
 775              	.LBB307:
 776              		.loc 1 152 0
 777 0010 DA60     		str	r2, [r3, #12]
 778              		.loc 1 153 0
 779 0012 1A61     		str	r2, [r3, #16]
 780              		.loc 1 154 0
 781 0014 5A61     		str	r2, [r3, #20]
 782              	.LVL64:
 783              	.LBE307:
 784              	.LBE308:
 785              		.loc 1 632 0
 786 0016 F6D1     		bne	.L79
 787              		.loc 1 633 0
 788 0018 074B     		ldr	r3, .L84+4
 789 001a 1A6C     		ldr	r2, [r3, #64]
 790 001c 22F08042 		bic	r2, r2, #1073741824
 791 0020 1A64     		str	r2, [r3, #64]
 792 0022 1A6E     		ldr	r2, [r3, #96]
 793 0024 22F08042 		bic	r2, r2, #1073741824
 794 0028 1A66     		str	r2, [r3, #96]
 795 002a 1B6E     		ldr	r3, [r3, #96]
 796              		.loc 1 634 0
 797 002c 5220     		movs	r0, #82
 798              	.LVL65:
ARM GAS  /tmp/ccBwsbhU.s 			page 15


 799 002e FFF7FEBF 		b	nvicDisableVector
 800              	.LVL66:
 801              	.L85:
 802 0032 00BF     		.align	2
 803              	.L84:
 804 0034 00000000 		.word	.LANCHOR0
 805 0038 00380240 		.word	1073887232
 806              		.cfi_endproc
 807              	.LFE335:
 808              		.size	sd_lld_stop, .-sd_lld_stop
 809              		.global	SD7
 810              		.section	.bss.SD7,"aw",%nobits
 811              		.align	2
 812              		.set	.LANCHOR0,. + 0
 813              		.type	SD7, %object
 814              		.size	SD7, 124
 815              	SD7:
 816 0000 00000000 		.space	124
 816      00000000 
 816      00000000 
 816      00000000 
 816      00000000 
 817              		.section	.rodata.default_config,"a",%progbits
 818              		.align	2
 819              		.set	.LANCHOR1,. + 0
 820              		.type	default_config, %object
 821              		.size	default_config, 12
 822              	default_config:
 823 0000 00960000 		.word	38400
 824 0004 0000     		.short	0
 825 0006 0000     		.short	0
 826 0008 0000     		.short	0
 827 000a 0000     		.space	2
 828              		.text
 829              	.Letext0:
 830              		.file 4 "/usr/lib/gcc/arm-none-eabi/7.3.1/include/stddef.h"
 831              		.file 5 "/usr/arm-none-eabi/include/machine/_default_types.h"
 832              		.file 6 "/usr/arm-none-eabi/include/sys/_stdint.h"
 833              		.file 7 "./RM18A-ChibiOS18-Core/chibios/os/common/ports/ARMCMx/compilers/GCC/chtypes.h"
 834              		.file 8 "./RM18A-ChibiOS18-Core/chibios/os/rt/include/chsystypes.h"
 835              		.file 9 "./RM18A-ChibiOS18-Core/chibios/os/rt/include/chschd.h"
 836              		.file 10 "./RM18A-ChibiOS18-Core/chibios/os/rt/include/chtime.h"
 837              		.file 11 "./RM18A-ChibiOS18-Core/chibios/os/common/ext/ARM/CMSIS/Core/Include/core_cm4.h"
 838              		.file 12 "./RM18A-ChibiOS18-Core/chibios/os/common/ext/ST/STM32F4xx/system_stm32f4xx.h"
 839              		.file 13 "./RM18A-ChibiOS18-Core/chibios/os/common/ext/ST/STM32F4xx/stm32f427xx.h"
 840              		.file 14 "./RM18A-ChibiOS18-Core/chibios/os/common/ports/ARMCMx/chcore.h"
 841              		.file 15 "./RM18A-ChibiOS18-Core/chibios/os/common/ports/ARMCMx/chcore_v7m.h"
 842              		.file 16 "./RM18A-ChibiOS18-Core/chibios/os/hal/ports/STM32/LLD/TIMv1/stm32_tim.h"
 843              		.file 17 "./RM18A-ChibiOS18-Core/chibios/os/rt/include/chtm.h"
 844              		.file 18 "./RM18A-ChibiOS18-Core/chibios/os/rt/include/chsem.h"
 845              		.file 19 "./RM18A-ChibiOS18-Core/chibios/os/rt/include/chmtx.h"
 846              		.file 20 "./RM18A-ChibiOS18-Core/chibios/os/rt/include/chsys.h"
 847              		.file 21 "./RM18A-ChibiOS18-Core/chibios/os/rt/include/chregistry.h"
 848              		.file 22 "./RM18A-ChibiOS18-Core/chibios/os/rt/include/chevents.h"
 849              		.file 23 "./RM18A-ChibiOS18-Core/chibios/os/oslib/include/chmemcore.h"
 850              		.file 24 "./RM18A-ChibiOS18-Core/chibios/os/oslib/include/chmempools.h"
 851              		.file 25 "./RM18A-ChibiOS18-Core/chibios/os/oslib/include/chfactory.h"
ARM GAS  /tmp/ccBwsbhU.s 			page 16


 852              		.file 26 "./RM18A-ChibiOS18-Core/chibios/os/hal/ports/STM32/LLD/DMAv2/stm32_dma.h"
 853              		.file 27 "./RM18A-ChibiOS18-Core/chibios/os/hal/include/hal_queues.h"
 854              		.file 28 "./RM18A-ChibiOS18-Core/chibios/os/hal/include/hal_pal.h"
 855              		.file 29 "./RM18A-ChibiOS18-Core/chibios/os/hal/ports/STM32/LLD/GPIOv2/hal_pal_lld.h"
 856              		.file 30 "./RM18A-ChibiOS18-Core/chibios/os/hal/include/hal_adc.h"
 857              		.file 31 "./RM18A-ChibiOS18-Core/chibios/os/hal/ports/STM32/LLD/ADCv2/hal_adc_lld.h"
 858              		.file 32 "./RM18A-ChibiOS18-Core/chibios/os/hal/include/hal_can.h"
 859              		.file 33 "./RM18A-ChibiOS18-Core/chibios/os/hal/ports/STM32/LLD/CANv1/hal_can_lld.h"
 860              		.file 34 "./RM18A-ChibiOS18-Core/chibios/os/hal/include/hal_i2c.h"
 861              		.file 35 "./RM18A-ChibiOS18-Core/chibios/os/hal/ports/STM32/LLD/I2Cv1/hal_i2c_lld.h"
 862              		.file 36 "./RM18A-ChibiOS18-Core/chibios/os/hal/include/hal_pwm.h"
 863              		.file 37 "./RM18A-ChibiOS18-Core/chibios/os/hal/ports/STM32/LLD/TIMv1/hal_pwm_lld.h"
 864              		.file 38 "./RM18A-ChibiOS18-Core/chibios/os/hal/include/hal_serial.h"
 865              		.file 39 "./RM18A-ChibiOS18-Core/chibios/os/hal/ports/STM32/LLD/USARTv1/hal_serial_lld.h"
 866              		.file 40 "./RM18A-ChibiOS18-Core/chibios/os/hal/include/hal_spi.h"
 867              		.file 41 "./RM18A-ChibiOS18-Core/chibios/os/hal/ports/STM32/LLD/SPIv1/hal_spi_lld.h"
 868              		.file 42 "./RM18A-ChibiOS18-Core/chibios/os/hal/include/hal_uart.h"
 869              		.file 43 "./RM18A-ChibiOS18-Core/chibios/os/hal/ports/STM32/LLD/USARTv1/hal_uart_lld.h"
 870              		.file 44 "./RM18A-ChibiOS18-Core/chibios/os/hal/include/hal_usb.h"
 871              		.file 45 "./RM18A-ChibiOS18-Core/chibios/os/hal/ports/STM32/LLD/OTGv1/hal_usb_lld.h"
 872              		.file 46 "./RM18A-ChibiOS18-Core/chibios/os/hal/ports/STM32/LLD/OTGv1/stm32_otg.h"
 873              		.file 47 "./RM18A-ChibiOS18-Core/chibios/os/hal/ports/common/ARMCMx/nvic.h"