ARM GAS  /tmp/ccsvECc0.s 			page 1


   1              		.cpu cortex-m4
   2              		.eabi_attribute 27, 1
   3              		.eabi_attribute 28, 1
   4              		.eabi_attribute 20, 1
   5              		.eabi_attribute 21, 1
   6              		.eabi_attribute 23, 3
   7              		.eabi_attribute 24, 1
   8              		.eabi_attribute 25, 1
   9              		.eabi_attribute 26, 1
  10              		.eabi_attribute 30, 2
  11              		.eabi_attribute 34, 1
  12              		.eabi_attribute 18, 4
  13              		.file	"hal_icu_lld.c"
  14              		.text
  15              	.Ltext0:
  16              		.cfi_sections	.debug_frame
  17              		.section	.text.VectorB8,"ax",%progbits
  18              		.align	1
  19              		.p2align 2,,3
  20              		.global	VectorB8
  21              		.syntax unified
  22              		.thumb
  23              		.thumb_func
  24              		.fpu fpv4-sp-d16
  25              		.type	VectorB8, %function
  26              	VectorB8:
  27              	.LFB328:
  28              		.file 1 "./RM18A-ChibiOS18-Core/chibios/os/hal/ports/STM32/LLD/TIMv1/hal_icu_lld.c"
  29              		.loc 1 243 0
  30              		.cfi_startproc
  31              		@ args = 0, pretend = 0, frame = 0
  32              		@ frame_needed = 0, uses_anonymous_args = 0
  33              	.LVL0:
  34 0000 F8B5     		push	{r3, r4, r5, r6, r7, lr}
  35              		.cfi_def_cfa_offset 24
  36              		.cfi_offset 3, -24
  37              		.cfi_offset 4, -20
  38              		.cfi_offset 5, -16
  39              		.cfi_offset 6, -12
  40              		.cfi_offset 7, -8
  41              		.cfi_offset 14, -4
  42              	.LBB50:
  43              	.LBB51:
  44              		.loc 1 824 0
  45 0002 264D     		ldr	r5, .L46
  46 0004 EB68     		ldr	r3, [r5, #12]
  47              		.loc 1 827 0
  48 0006 6968     		ldr	r1, [r5, #4]
  49              		.loc 1 824 0
  50 0008 1C69     		ldr	r4, [r3, #16]
  51              	.LVL1:
  52              		.loc 1 825 0
  53 000a DA68     		ldr	r2, [r3, #12]
  54              		.loc 1 827 0
  55 000c 087D     		ldrb	r0, [r1, #20]	@ zero_extendqisi2
  56 000e 1440     		ands	r4, r4, r2
  57              	.LVL2:
ARM GAS  /tmp/ccsvECc0.s 			page 2


  58              		.loc 1 825 0
  59 0010 E2B2     		uxtb	r2, r4
  60              		.loc 1 826 0
  61 0012 D243     		mvns	r2, r2
  62 0014 1A61     		str	r2, [r3, #16]
  63 0016 04F00206 		and	r6, r4, #2
  64              		.loc 1 827 0
  65 001a 88B9     		cbnz	r0, .L2
  66              		.loc 1 828 0
  67 001c 6207     		lsls	r2, r4, #29
  68 001e 30D5     		bpl	.L3
  69              		.loc 1 829 0
  70 0020 2B78     		ldrb	r3, [r5]	@ zero_extendqisi2
  71 0022 042B     		cmp	r3, #4
  72 0024 29D0     		beq	.L43
  73              		.loc 1 830 0
  74 0026 9EB9     		cbnz	r6, .L9
  75              	.L7:
  76              		.loc 1 839 0
  77 0028 E307     		lsls	r3, r4, #31
  78 002a 05D5     		bpl	.L15
  79              		.loc 1 840 0
  80 002c 6B68     		ldr	r3, [r5, #4]
  81 002e 1B48     		ldr	r0, .L46
  82 0030 1B69     		ldr	r3, [r3, #16]
  83 0032 9847     		blx	r3
  84              	.LVL3:
  85 0034 0323     		movs	r3, #3
  86 0036 2B70     		strb	r3, [r5]
  87              	.L15:
  88              	.LVL4:
  89              	.LBE51:
  90              	.LBE50:
  91              		.loc 1 250 0
  92 0038 BDE8F840 		pop	{r3, r4, r5, r6, r7, lr}
  93              		.cfi_remember_state
  94              		.cfi_restore 14
  95              		.cfi_restore 7
  96              		.cfi_restore 6
  97              		.cfi_restore 5
  98              		.cfi_restore 4
  99              		.cfi_restore 3
 100              		.cfi_def_cfa_offset 0
 101              		.loc 1 249 0
 102 003c FFF7FEBF 		b	_port_irq_epilogue
 103              	.LVL5:
 104              	.L2:
 105              		.cfi_restore_state
 106 0040 04F00407 		and	r7, r4, #4
 107              	.LBB53:
 108              	.LBB52:
 109              		.loc 1 834 0
 110 0044 5EB1     		cbz	r6, .L11
 111              		.loc 1 835 0
 112 0046 2B78     		ldrb	r3, [r5]	@ zero_extendqisi2
 113 0048 042B     		cmp	r3, #4
 114 004a 04D0     		beq	.L44
ARM GAS  /tmp/ccsvECc0.s 			page 3


 115              		.loc 1 836 0
 116 004c 002F     		cmp	r7, #0
 117 004e EBD0     		beq	.L7
 118              	.L9:
 119              		.loc 1 831 0
 120 0050 0423     		movs	r3, #4
 121 0052 2B70     		strb	r3, [r5]
 122 0054 E8E7     		b	.L7
 123              	.L44:
 124              		.loc 1 835 0
 125 0056 8B68     		ldr	r3, [r1, #8]
 126 0058 E3B1     		cbz	r3, .L13
 127 005a 2846     		mov	r0, r5
 128 005c 9847     		blx	r3
 129              	.LVL6:
 130              	.L11:
 131              		.loc 1 836 0
 132 005e 002F     		cmp	r7, #0
 133 0060 E2D0     		beq	.L7
 134              		.loc 1 831 0
 135 0062 2B78     		ldrb	r3, [r5]	@ zero_extendqisi2
 136 0064 042B     		cmp	r3, #4
 137 0066 F3D1     		bne	.L9
 138              	.L45:
 139 0068 6968     		ldr	r1, [r5, #4]
 140              	.L16:
 141 006a CB68     		ldr	r3, [r1, #12]
 142 006c 002B     		cmp	r3, #0
 143 006e EFD0     		beq	.L9
 144 0070 0A48     		ldr	r0, .L46
 145 0072 9847     		blx	r3
 146              	.LVL7:
 147 0074 0423     		movs	r3, #4
 148 0076 2B70     		strb	r3, [r5]
 149 0078 D6E7     		b	.L7
 150              	.L43:
 151              		.loc 1 829 0
 152 007a 8B68     		ldr	r3, [r1, #8]
 153 007c 3BB1     		cbz	r3, .L5
 154 007e 2846     		mov	r0, r5
 155 0080 9847     		blx	r3
 156              	.LVL8:
 157              	.L3:
 158              		.loc 1 830 0
 159 0082 002E     		cmp	r6, #0
 160 0084 D0D0     		beq	.L7
 161              		.loc 1 831 0
 162 0086 2B78     		ldrb	r3, [r5]	@ zero_extendqisi2
 163 0088 042B     		cmp	r3, #4
 164 008a E1D1     		bne	.L9
 165 008c ECE7     		b	.L45
 166              	.L5:
 167              		.loc 1 830 0
 168 008e 002E     		cmp	r6, #0
 169 0090 CAD0     		beq	.L7
 170 0092 EAE7     		b	.L16
 171              	.L13:
ARM GAS  /tmp/ccsvECc0.s 			page 4


 172              		.loc 1 836 0
 173 0094 002F     		cmp	r7, #0
 174 0096 C7D0     		beq	.L7
 175 0098 E7E7     		b	.L16
 176              	.L47:
 177 009a 00BF     		.align	2
 178              	.L46:
 179 009c 00000000 		.word	.LANCHOR0
 180              	.LBE52:
 181              	.LBE53:
 182              		.cfi_endproc
 183              	.LFE328:
 184              		.size	VectorB8, .-VectorB8
 185              		.section	.text.Vector108,"ax",%progbits
 186              		.align	1
 187              		.p2align 2,,3
 188              		.global	Vector108
 189              		.syntax unified
 190              		.thumb
 191              		.thumb_func
 192              		.fpu fpv4-sp-d16
 193              		.type	Vector108, %function
 194              	Vector108:
 195              	.LFB329:
 196              		.loc 1 264 0
 197              		.cfi_startproc
 198              		@ args = 0, pretend = 0, frame = 0
 199              		@ frame_needed = 0, uses_anonymous_args = 0
 200              	.LVL9:
 201 0000 F8B5     		push	{r3, r4, r5, r6, r7, lr}
 202              		.cfi_def_cfa_offset 24
 203              		.cfi_offset 3, -24
 204              		.cfi_offset 4, -20
 205              		.cfi_offset 5, -16
 206              		.cfi_offset 6, -12
 207              		.cfi_offset 7, -8
 208              		.cfi_offset 14, -4
 209              	.LBB56:
 210              	.LBB57:
 211              		.loc 1 824 0
 212 0002 264D     		ldr	r5, .L92
 213 0004 EB68     		ldr	r3, [r5, #12]
 214              		.loc 1 827 0
 215 0006 6968     		ldr	r1, [r5, #4]
 216              		.loc 1 824 0
 217 0008 1C69     		ldr	r4, [r3, #16]
 218              	.LVL10:
 219              		.loc 1 825 0
 220 000a DA68     		ldr	r2, [r3, #12]
 221              		.loc 1 827 0
 222 000c 087D     		ldrb	r0, [r1, #20]	@ zero_extendqisi2
 223 000e 1440     		ands	r4, r4, r2
 224              	.LVL11:
 225              		.loc 1 825 0
 226 0010 E2B2     		uxtb	r2, r4
 227              		.loc 1 826 0
 228 0012 D243     		mvns	r2, r2
ARM GAS  /tmp/ccsvECc0.s 			page 5


 229 0014 1A61     		str	r2, [r3, #16]
 230 0016 04F00206 		and	r6, r4, #2
 231              		.loc 1 827 0
 232 001a 88B9     		cbnz	r0, .L49
 233              		.loc 1 828 0
 234 001c 6207     		lsls	r2, r4, #29
 235 001e 30D5     		bpl	.L50
 236              		.loc 1 829 0
 237 0020 2B78     		ldrb	r3, [r5]	@ zero_extendqisi2
 238 0022 042B     		cmp	r3, #4
 239 0024 29D0     		beq	.L89
 240              		.loc 1 830 0
 241 0026 9EB9     		cbnz	r6, .L56
 242              	.L54:
 243              		.loc 1 839 0
 244 0028 E307     		lsls	r3, r4, #31
 245 002a 05D5     		bpl	.L62
 246              		.loc 1 840 0
 247 002c 6B68     		ldr	r3, [r5, #4]
 248 002e 1B48     		ldr	r0, .L92
 249 0030 1B69     		ldr	r3, [r3, #16]
 250 0032 9847     		blx	r3
 251              	.LVL12:
 252 0034 0323     		movs	r3, #3
 253 0036 2B70     		strb	r3, [r5]
 254              	.L62:
 255              	.LVL13:
 256              	.LBE57:
 257              	.LBE56:
 258              		.loc 1 271 0
 259 0038 BDE8F840 		pop	{r3, r4, r5, r6, r7, lr}
 260              		.cfi_remember_state
 261              		.cfi_restore 14
 262              		.cfi_restore 7
 263              		.cfi_restore 6
 264              		.cfi_restore 5
 265              		.cfi_restore 4
 266              		.cfi_restore 3
 267              		.cfi_def_cfa_offset 0
 268              		.loc 1 270 0
 269 003c FFF7FEBF 		b	_port_irq_epilogue
 270              	.LVL14:
 271              	.L49:
 272              		.cfi_restore_state
 273 0040 04F00407 		and	r7, r4, #4
 274              	.LBB59:
 275              	.LBB58:
 276              		.loc 1 834 0
 277 0044 5EB1     		cbz	r6, .L58
 278              		.loc 1 835 0
 279 0046 2B78     		ldrb	r3, [r5]	@ zero_extendqisi2
 280 0048 042B     		cmp	r3, #4
 281 004a 04D0     		beq	.L90
 282              		.loc 1 836 0
 283 004c 002F     		cmp	r7, #0
 284 004e EBD0     		beq	.L54
 285              	.L56:
ARM GAS  /tmp/ccsvECc0.s 			page 6


 286              		.loc 1 831 0
 287 0050 0423     		movs	r3, #4
 288 0052 2B70     		strb	r3, [r5]
 289 0054 E8E7     		b	.L54
 290              	.L90:
 291              		.loc 1 835 0
 292 0056 8B68     		ldr	r3, [r1, #8]
 293 0058 E3B1     		cbz	r3, .L60
 294 005a 2846     		mov	r0, r5
 295 005c 9847     		blx	r3
 296              	.LVL15:
 297              	.L58:
 298              		.loc 1 836 0
 299 005e 002F     		cmp	r7, #0
 300 0060 E2D0     		beq	.L54
 301              		.loc 1 831 0
 302 0062 2B78     		ldrb	r3, [r5]	@ zero_extendqisi2
 303 0064 042B     		cmp	r3, #4
 304 0066 F3D1     		bne	.L56
 305              	.L91:
 306 0068 6968     		ldr	r1, [r5, #4]
 307              	.L63:
 308 006a CB68     		ldr	r3, [r1, #12]
 309 006c 002B     		cmp	r3, #0
 310 006e EFD0     		beq	.L56
 311 0070 0A48     		ldr	r0, .L92
 312 0072 9847     		blx	r3
 313              	.LVL16:
 314 0074 0423     		movs	r3, #4
 315 0076 2B70     		strb	r3, [r5]
 316 0078 D6E7     		b	.L54
 317              	.L89:
 318              		.loc 1 829 0
 319 007a 8B68     		ldr	r3, [r1, #8]
 320 007c 3BB1     		cbz	r3, .L52
 321 007e 2846     		mov	r0, r5
 322 0080 9847     		blx	r3
 323              	.LVL17:
 324              	.L50:
 325              		.loc 1 830 0
 326 0082 002E     		cmp	r6, #0
 327 0084 D0D0     		beq	.L54
 328              		.loc 1 831 0
 329 0086 2B78     		ldrb	r3, [r5]	@ zero_extendqisi2
 330 0088 042B     		cmp	r3, #4
 331 008a E1D1     		bne	.L56
 332 008c ECE7     		b	.L91
 333              	.L52:
 334              		.loc 1 830 0
 335 008e 002E     		cmp	r6, #0
 336 0090 CAD0     		beq	.L54
 337 0092 EAE7     		b	.L63
 338              	.L60:
 339              		.loc 1 836 0
 340 0094 002F     		cmp	r7, #0
 341 0096 C7D0     		beq	.L54
 342 0098 E7E7     		b	.L63
ARM GAS  /tmp/ccsvECc0.s 			page 7


 343              	.L93:
 344 009a 00BF     		.align	2
 345              	.L92:
 346 009c 00000000 		.word	.LANCHOR1
 347              	.LBE58:
 348              	.LBE59:
 349              		.cfi_endproc
 350              	.LFE329:
 351              		.size	Vector108, .-Vector108
 352              		.section	.text.icu_lld_init,"ax",%progbits
 353              		.align	1
 354              		.p2align 2,,3
 355              		.global	icu_lld_init
 356              		.syntax unified
 357              		.thumb
 358              		.thumb_func
 359              		.fpu fpv4-sp-d16
 360              		.type	icu_lld_init, %function
 361              	icu_lld_init:
 362              	.LFB330:
 363              		.loc 1 349 0
 364              		.cfi_startproc
 365              		@ args = 0, pretend = 0, frame = 0
 366              		@ frame_needed = 0, uses_anonymous_args = 0
 367 0000 38B5     		push	{r3, r4, r5, lr}
 368              		.cfi_def_cfa_offset 16
 369              		.cfi_offset 3, -16
 370              		.cfi_offset 4, -12
 371              		.cfi_offset 5, -8
 372              		.cfi_offset 14, -4
 373              		.loc 1 371 0
 374 0002 064D     		ldr	r5, .L96
 375              		.loc 1 377 0
 376 0004 064C     		ldr	r4, .L96+4
 377              		.loc 1 371 0
 378 0006 2846     		mov	r0, r5
 379 0008 FFF7FEFF 		bl	icuObjectInit
 380              	.LVL18:
 381              		.loc 1 372 0
 382 000c 054B     		ldr	r3, .L96+8
 383 000e EB60     		str	r3, [r5, #12]
 384              		.loc 1 377 0
 385 0010 2046     		mov	r0, r4
 386 0012 FFF7FEFF 		bl	icuObjectInit
 387              	.LVL19:
 388              		.loc 1 378 0
 389 0016 044B     		ldr	r3, .L96+12
 390 0018 E360     		str	r3, [r4, #12]
 391              		.loc 1 398 0
 392 001a 38BD     		pop	{r3, r4, r5, pc}
 393              	.L97:
 394              		.align	2
 395              	.L96:
 396 001c 00000000 		.word	.LANCHOR0
 397 0020 00000000 		.word	.LANCHOR1
 398 0024 00080040 		.word	1073743872
 399 0028 000C0040 		.word	1073744896
ARM GAS  /tmp/ccsvECc0.s 			page 8


 400              		.cfi_endproc
 401              	.LFE330:
 402              		.size	icu_lld_init, .-icu_lld_init
 403              		.section	.text.icu_lld_start,"ax",%progbits
 404              		.align	1
 405              		.p2align 2,,3
 406              		.global	icu_lld_start
 407              		.syntax unified
 408              		.thumb
 409              		.thumb_func
 410              		.fpu fpv4-sp-d16
 411              		.type	icu_lld_start, %function
 412              	icu_lld_start:
 413              	.LFB331:
 414              		.loc 1 407 0
 415              		.cfi_startproc
 416              		@ args = 0, pretend = 0, frame = 0
 417              		@ frame_needed = 0, uses_anonymous_args = 0
 418              	.LVL20:
 419              		.loc 1 414 0
 420 0000 0378     		ldrb	r3, [r0]	@ zero_extendqisi2
 421 0002 012B     		cmp	r3, #1
 422              		.loc 1 407 0
 423 0004 70B5     		push	{r4, r5, r6, lr}
 424              		.cfi_def_cfa_offset 16
 425              		.cfi_offset 4, -16
 426              		.cfi_offset 5, -12
 427              		.cfi_offset 6, -8
 428              		.cfi_offset 14, -4
 429              		.loc 1 407 0
 430 0006 0446     		mov	r4, r0
 431              		.loc 1 414 0
 432 0008 3AD0     		beq	.L112
 433              		.loc 1 537 0
 434 000a C368     		ldr	r3, [r0, #12]
 435 000c 0022     		movs	r2, #0
 436 000e 1A60     		str	r2, [r3]
 437              		.loc 1 538 0
 438 0010 5A63     		str	r2, [r3, #52]
 439              		.loc 1 539 0
 440 0012 9A63     		str	r2, [r3, #56]
 441              		.loc 1 540 0
 442 0014 5A62     		str	r2, [r3, #36]
 443              	.LVL21:
 444              	.L101:
 445              		.loc 1 547 0
 446 0016 D4E90112 		ldrd	r1, r2, [r4, #4]
 447              		.loc 1 545 0
 448 001a 8869     		ldr	r0, [r1, #24]
 449              		.loc 1 554 0
 450 001c 0D7D     		ldrb	r5, [r1, #20]	@ zero_extendqisi2
 451              		.loc 1 545 0
 452 001e 20F0FF00 		bic	r0, r0, #255
 453              		.loc 1 544 0
 454 0022 0026     		movs	r6, #0
 455 0024 1E61     		str	r6, [r3, #16]
 456              		.loc 1 545 0
ARM GAS  /tmp/ccsvECc0.s 			page 9


 457 0026 D860     		str	r0, [r3, #12]
 458              		.loc 1 547 0
 459 0028 4868     		ldr	r0, [r1, #4]
 460 002a B2FBF0F2 		udiv	r2, r2, r0
 461              		.loc 1 552 0
 462 002e 4FF6FF70 		movw	r0, #65535
 463              		.loc 1 547 0
 464 0032 013A     		subs	r2, r2, #1
 465              	.LVL22:
 466              		.loc 1 551 0
 467 0034 9A62     		str	r2, [r3, #40]
 468 0036 0A78     		ldrb	r2, [r1]	@ zero_extendqisi2
 469              	.LVL23:
 470              		.loc 1 552 0
 471 0038 D862     		str	r0, [r3, #44]
 472              	.LVL24:
 473              		.loc 1 554 0
 474 003a 6DB9     		cbnz	r5, .L103
 475              		.loc 1 558 0
 476 003c 40F20120 		movw	r0, #513
 477              		.loc 1 562 0
 478 0040 5421     		movs	r1, #84
 479              	.LVL25:
 480              		.loc 1 558 0
 481 0042 9861     		str	r0, [r3, #24]
 482              		.loc 1 562 0
 483 0044 9960     		str	r1, [r3, #8]
 484              		.loc 1 567 0
 485 0046 C2B1     		cbz	r2, .L113
 486              		.loc 1 571 0
 487 0048 1322     		movs	r2, #19
 488 004a 1A62     		str	r2, [r3, #32]
 489              	.LVL26:
 490              	.L105:
 491              		.loc 1 576 0
 492 004c 03F13802 		add	r2, r3, #56
 493              		.loc 1 577 0
 494 0050 3433     		adds	r3, r3, #52
 495 0052 C4E90423 		strd	r2, r3, [r4, #16]
 496              		.loc 1 604 0
 497 0056 70BD     		pop	{r4, r5, r6, pc}
 498              	.LVL27:
 499              	.L103:
 500              		.loc 1 583 0
 501 0058 4FF48170 		mov	r0, #258
 502              		.loc 1 587 0
 503 005c 6421     		movs	r1, #100
 504              	.LVL28:
 505              		.loc 1 583 0
 506 005e 9861     		str	r0, [r3, #24]
 507              		.loc 1 587 0
 508 0060 9960     		str	r1, [r3, #8]
 509              		.loc 1 592 0
 510 0062 3AB1     		cbz	r2, .L114
 511              		.loc 1 596 0
 512 0064 3122     		movs	r2, #49
 513 0066 1A62     		str	r2, [r3, #32]
ARM GAS  /tmp/ccsvECc0.s 			page 10


 514              	.LVL29:
 515              	.L108:
 516              		.loc 1 601 0
 517 0068 03F13402 		add	r2, r3, #52
 518              		.loc 1 602 0
 519 006c 3833     		adds	r3, r3, #56
 520 006e C4E90423 		strd	r2, r3, [r4, #16]
 521              		.loc 1 604 0
 522 0072 70BD     		pop	{r4, r5, r6, pc}
 523              	.LVL30:
 524              	.L114:
 525              		.loc 1 593 0
 526 0074 1322     		movs	r2, #19
 527 0076 1A62     		str	r2, [r3, #32]
 528              	.LVL31:
 529 0078 F6E7     		b	.L108
 530              	.LVL32:
 531              	.L113:
 532              		.loc 1 568 0
 533 007a 3122     		movs	r2, #49
 534 007c 1A62     		str	r2, [r3, #32]
 535              	.LVL33:
 536 007e E5E7     		b	.L105
 537              	.LVL34:
 538              	.L112:
 539              		.loc 1 463 0
 540 0080 1B4B     		ldr	r3, .L116
 541 0082 9842     		cmp	r0, r3
 542 0084 04D0     		beq	.L115
 543              		.loc 1 478 0
 544 0086 1B4B     		ldr	r3, .L116+4
 545 0088 9842     		cmp	r0, r3
 546 008a 1BD0     		beq	.L102
 547              	.LVL35:
 548              	.L110:
 549 008c E368     		ldr	r3, [r4, #12]
 550 008e C2E7     		b	.L101
 551              	.LVL36:
 552              	.L115:
 553              		.loc 1 464 0
 554 0090 194B     		ldr	r3, .L116+8
 555 0092 1A6C     		ldr	r2, [r3, #64]
 556 0094 42F00402 		orr	r2, r2, #4
 557 0098 1A64     		str	r2, [r3, #64]
 558 009a 1A6E     		ldr	r2, [r3, #96]
 559 009c 42F00402 		orr	r2, r2, #4
 560 00a0 1A66     		str	r2, [r3, #96]
 561 00a2 1A6E     		ldr	r2, [r3, #96]
 562              		.loc 1 465 0
 563 00a4 1A6A     		ldr	r2, [r3, #32]
 564 00a6 42F00402 		orr	r2, r2, #4
 565 00aa 1A62     		str	r2, [r3, #32]
 566 00ac 1A6A     		ldr	r2, [r3, #32]
 567 00ae 22F00402 		bic	r2, r2, #4
 568 00b2 1A62     		str	r2, [r3, #32]
 569              		.loc 1 467 0
 570 00b4 0721     		movs	r1, #7
ARM GAS  /tmp/ccsvECc0.s 			page 11


 571 00b6 1E20     		movs	r0, #30
 572              	.LVL37:
 573              	.L111:
 574              		.loc 1 480 0
 575 00b8 1B6A     		ldr	r3, [r3, #32]
 576              		.loc 1 482 0
 577 00ba FFF7FEFF 		bl	nvicEnableVector
 578              	.LVL38:
 579              		.loc 1 487 0
 580 00be 0F4B     		ldr	r3, .L116+12
 581 00c0 A360     		str	r3, [r4, #8]
 582 00c2 E3E7     		b	.L110
 583              	.LVL39:
 584              	.L102:
 585              		.loc 1 479 0
 586 00c4 0C4B     		ldr	r3, .L116+8
 587 00c6 1A6C     		ldr	r2, [r3, #64]
 588 00c8 42F00802 		orr	r2, r2, #8
 589 00cc 1A64     		str	r2, [r3, #64]
 590 00ce 1A6E     		ldr	r2, [r3, #96]
 591 00d0 42F00802 		orr	r2, r2, #8
 592 00d4 1A66     		str	r2, [r3, #96]
 593 00d6 1A6E     		ldr	r2, [r3, #96]
 594              		.loc 1 480 0
 595 00d8 1A6A     		ldr	r2, [r3, #32]
 596 00da 42F00802 		orr	r2, r2, #8
 597 00de 1A62     		str	r2, [r3, #32]
 598 00e0 1A6A     		ldr	r2, [r3, #32]
 599 00e2 22F00802 		bic	r2, r2, #8
 600 00e6 1A62     		str	r2, [r3, #32]
 601              		.loc 1 482 0
 602 00e8 0721     		movs	r1, #7
 603 00ea 3220     		movs	r0, #50
 604              	.LVL40:
 605 00ec E4E7     		b	.L111
 606              	.L117:
 607 00ee 00BF     		.align	2
 608              	.L116:
 609 00f0 00000000 		.word	.LANCHOR0
 610 00f4 00000000 		.word	.LANCHOR1
 611 00f8 00380240 		.word	1073887232
 612 00fc 00BD0105 		.word	84000000
 613              		.cfi_endproc
 614              	.LFE331:
 615              		.size	icu_lld_start, .-icu_lld_start
 616              		.section	.text.icu_lld_stop,"ax",%progbits
 617              		.align	1
 618              		.p2align 2,,3
 619              		.global	icu_lld_stop
 620              		.syntax unified
 621              		.thumb
 622              		.thumb_func
 623              		.fpu fpv4-sp-d16
 624              		.type	icu_lld_stop, %function
 625              	icu_lld_stop:
 626              	.LFB332:
 627              		.loc 1 613 0
ARM GAS  /tmp/ccsvECc0.s 			page 12


 628              		.cfi_startproc
 629              		@ args = 0, pretend = 0, frame = 0
 630              		@ frame_needed = 0, uses_anonymous_args = 0
 631              	.LVL41:
 632 0000 08B5     		push	{r3, lr}
 633              		.cfi_def_cfa_offset 8
 634              		.cfi_offset 3, -8
 635              		.cfi_offset 14, -4
 636              		.loc 1 615 0
 637 0002 0378     		ldrb	r3, [r0]	@ zero_extendqisi2
 638 0004 022B     		cmp	r3, #2
 639 0006 00D0     		beq	.L124
 640              	.L118:
 641              		.loc 1 692 0
 642 0008 08BD     		pop	{r3, pc}
 643              	.L124:
 644              		.loc 1 650 0
 645 000a 1349     		ldr	r1, .L126
 646              		.loc 1 617 0
 647 000c C368     		ldr	r3, [r0, #12]
 648 000e 0022     		movs	r2, #0
 649              		.loc 1 650 0
 650 0010 8842     		cmp	r0, r1
 651              		.loc 1 617 0
 652 0012 1A60     		str	r2, [r3]
 653              		.loc 1 618 0
 654 0014 DA60     		str	r2, [r3, #12]
 655              		.loc 1 619 0
 656 0016 1A61     		str	r2, [r3, #16]
 657              		.loc 1 650 0
 658 0018 10D0     		beq	.L125
 659              		.loc 1 659 0
 660 001a 104B     		ldr	r3, .L126+4
 661 001c 9842     		cmp	r0, r3
 662 001e F3D1     		bne	.L118
 663              		.loc 1 661 0
 664 0020 3220     		movs	r0, #50
 665              	.LVL42:
 666 0022 FFF7FEFF 		bl	nvicDisableVector
 667              	.LVL43:
 668              		.loc 1 663 0
 669 0026 0E4B     		ldr	r3, .L126+8
 670 0028 1A6C     		ldr	r2, [r3, #64]
 671 002a 22F00802 		bic	r2, r2, #8
 672 002e 1A64     		str	r2, [r3, #64]
 673 0030 1A6E     		ldr	r2, [r3, #96]
 674 0032 22F00802 		bic	r2, r2, #8
 675 0036 1A66     		str	r2, [r3, #96]
 676 0038 1B6E     		ldr	r3, [r3, #96]
 677              		.loc 1 692 0
 678 003a 08BD     		pop	{r3, pc}
 679              	.LVL44:
 680              	.L125:
 681              		.loc 1 652 0
 682 003c 1E20     		movs	r0, #30
 683              	.LVL45:
 684 003e FFF7FEFF 		bl	nvicDisableVector
ARM GAS  /tmp/ccsvECc0.s 			page 13


 685              	.LVL46:
 686              		.loc 1 654 0
 687 0042 074B     		ldr	r3, .L126+8
 688 0044 1A6C     		ldr	r2, [r3, #64]
 689 0046 22F00402 		bic	r2, r2, #4
 690 004a 1A64     		str	r2, [r3, #64]
 691 004c 1A6E     		ldr	r2, [r3, #96]
 692 004e 22F00402 		bic	r2, r2, #4
 693 0052 1A66     		str	r2, [r3, #96]
 694 0054 1B6E     		ldr	r3, [r3, #96]
 695              		.loc 1 692 0
 696 0056 08BD     		pop	{r3, pc}
 697              	.L127:
 698              		.align	2
 699              	.L126:
 700 0058 00000000 		.word	.LANCHOR0
 701 005c 00000000 		.word	.LANCHOR1
 702 0060 00380240 		.word	1073887232
 703              		.cfi_endproc
 704              	.LFE332:
 705              		.size	icu_lld_stop, .-icu_lld_stop
 706              		.section	.text.icu_lld_start_capture,"ax",%progbits
 707              		.align	1
 708              		.p2align 2,,3
 709              		.global	icu_lld_start_capture
 710              		.syntax unified
 711              		.thumb
 712              		.thumb_func
 713              		.fpu fpv4-sp-d16
 714              		.type	icu_lld_start_capture, %function
 715              	icu_lld_start_capture:
 716              	.LFB333:
 717              		.loc 1 701 0
 718              		.cfi_startproc
 719              		@ args = 0, pretend = 0, frame = 0
 720              		@ frame_needed = 0, uses_anonymous_args = 0
 721              		@ link register save eliminated.
 722              	.LVL47:
 723              		.loc 1 704 0
 724 0000 C368     		ldr	r3, [r0, #12]
 725 0002 5A69     		ldr	r2, [r3, #20]
 726              		.loc 1 705 0
 727 0004 0020     		movs	r0, #0
 728              	.LVL48:
 729              		.loc 1 704 0
 730 0006 42F00102 		orr	r2, r2, #1
 731              		.loc 1 708 0
 732 000a 0521     		movs	r1, #5
 733              		.loc 1 704 0
 734 000c 5A61     		str	r2, [r3, #20]
 735              		.loc 1 705 0
 736 000e 1861     		str	r0, [r3, #16]
 737              		.loc 1 708 0
 738 0010 1960     		str	r1, [r3]
 739              		.loc 1 709 0
 740 0012 7047     		bx	lr
 741              		.cfi_endproc
ARM GAS  /tmp/ccsvECc0.s 			page 14


 742              	.LFE333:
 743              		.size	icu_lld_start_capture, .-icu_lld_start_capture
 744              		.section	.text.icu_lld_wait_capture,"ax",%progbits
 745              		.align	1
 746              		.p2align 2,,3
 747              		.global	icu_lld_wait_capture
 748              		.syntax unified
 749              		.thumb
 750              		.thumb_func
 751              		.fpu fpv4-sp-d16
 752              		.type	icu_lld_wait_capture, %function
 753              	icu_lld_wait_capture:
 754              	.LFB334:
 755              		.loc 1 723 0
 756              		.cfi_startproc
 757              		@ args = 0, pretend = 0, frame = 0
 758              		@ frame_needed = 0, uses_anonymous_args = 0
 759              		@ link register save eliminated.
 760              	.LVL49:
 761              		.loc 1 727 0
 762 0000 0378     		ldrb	r3, [r0]	@ zero_extendqisi2
 763 0002 032B     		cmp	r3, #3
 764 0004 1BD0     		beq	.L130
 765              	.L138:
 766              	.LVL50:
 767              	.LBB86:
 768              	.LBB87:
 769              	.LBB88:
 770              	.LBB89:
 771              	.LBB90:
 772              	.LBB91:
 773              	.LBB92:
 774              	.LBB93:
 775              		.file 2 "./RM18A-ChibiOS18-Core/chibios/os/common/ext/ARM/CMSIS/Core/Include/cmsis_gcc.h"
 776              		.loc 2 493 0
 777 0006 0023     		movs	r3, #0
 778              		.syntax unified
 779              	@ 493 "./RM18A-ChibiOS18-Core/chibios/os/common/ext/ARM/CMSIS/Core/Include/cmsis_gcc.h" 1
 780 0008 83F31188 		MSR basepri, r3
 781              	@ 0 "" 2
 782              	.LVL51:
 783              		.thumb
 784              		.syntax unified
 785              	.LBE93:
 786              	.LBE92:
 787              	.LBE91:
 788              	.LBE90:
 789              	.LBE89:
 790              	.LBE88:
 791              		.loc 1 122 0
 792 000c 4368     		ldr	r3, [r0, #4]
 793 000e 1B7D     		ldrb	r3, [r3, #20]	@ zero_extendqisi2
 794 0010 7BB9     		cbnz	r3, .L153
 795              		.loc 1 124 0
 796 0012 C268     		ldr	r2, [r0, #12]
 797              	.L139:
 798 0014 1369     		ldr	r3, [r2, #16]
ARM GAS  /tmp/ccsvECc0.s 			page 15


 799              	.LVL52:
 800 0016 9907     		lsls	r1, r3, #30
 801 0018 FCD0     		beq	.L139
 802              	.L140:
 803              		.loc 1 136 0
 804 001a 03F00103 		and	r3, r3, #1
 805              	.LVL53:
 806              	.LBB94:
 807              	.LBB95:
 808              	.LBB96:
 809              	.LBB97:
 810              	.LBB98:
 811              		.loc 2 493 0
 812 001e 2022     		movs	r2, #32
 813              		.syntax unified
 814              	@ 493 "./RM18A-ChibiOS18-Core/chibios/os/common/ext/ARM/CMSIS/Core/Include/cmsis_gcc.h" 1
 815 0020 82F31188 		MSR basepri, r2
 816              	@ 0 "" 2
 817              	.LVL54:
 818              		.thumb
 819              		.syntax unified
 820              	.LBE98:
 821              	.LBE97:
 822              	.LBE96:
 823              	.LBE95:
 824              	.LBE94:
 825              		.loc 1 142 0
 826 0024 C168     		ldr	r1, [r0, #12]
 827 0026 0A69     		ldr	r2, [r1, #16]
 828 0028 22F00702 		bic	r2, r2, #7
 829 002c 0A61     		str	r2, [r1, #16]
 830              	.LVL55:
 831              	.LBE87:
 832              	.LBE86:
 833              		.loc 1 733 0
 834 002e 1846     		mov	r0, r3
 835              	.LVL56:
 836 0030 7047     		bx	lr
 837              	.LVL57:
 838              	.L153:
 839              	.LBB100:
 840              	.LBB99:
 841              		.loc 1 130 0
 842 0032 C268     		ldr	r2, [r0, #12]
 843              	.L141:
 844 0034 1369     		ldr	r3, [r2, #16]
 845              	.LVL58:
 846 0036 13F0050F 		tst	r3, #5
 847 003a FBD0     		beq	.L141
 848 003c EDE7     		b	.L140
 849              	.LVL59:
 850              	.L130:
 851              	.LBE99:
 852              	.LBE100:
 853              	.LBB101:
 854              	.LBB102:
 855              	.LBB103:
ARM GAS  /tmp/ccsvECc0.s 			page 16


 856              	.LBB104:
 857              	.LBB105:
 858              	.LBB106:
 859              	.LBB107:
 860              	.LBB108:
 861              		.loc 2 493 0
 862 003e 0023     		movs	r3, #0
 863              		.syntax unified
 864              	@ 493 "./RM18A-ChibiOS18-Core/chibios/os/common/ext/ARM/CMSIS/Core/Include/cmsis_gcc.h" 1
 865 0040 83F31188 		MSR basepri, r3
 866              	@ 0 "" 2
 867              	.LVL60:
 868              		.thumb
 869              		.syntax unified
 870              	.LBE108:
 871              	.LBE107:
 872              	.LBE106:
 873              	.LBE105:
 874              	.LBE104:
 875              	.LBE103:
 876              		.loc 1 122 0
 877 0044 4368     		ldr	r3, [r0, #4]
 878              		.loc 1 124 0
 879 0046 C268     		ldr	r2, [r0, #12]
 880              		.loc 1 122 0
 881 0048 1B7D     		ldrb	r3, [r3, #20]	@ zero_extendqisi2
 882 004a 7BB9     		cbnz	r3, .L136
 883              	.L134:
 884              		.loc 1 124 0
 885 004c 1369     		ldr	r3, [r2, #16]
 886              	.LVL61:
 887 004e 9907     		lsls	r1, r3, #30
 888 0050 FCD0     		beq	.L134
 889              	.L135:
 890              	.LVL62:
 891              	.LBB109:
 892              	.LBB110:
 893              	.LBB111:
 894              	.LBB112:
 895              	.LBB113:
 896              		.loc 2 493 0
 897 0052 2022     		movs	r2, #32
 898              		.syntax unified
 899              	@ 493 "./RM18A-ChibiOS18-Core/chibios/os/common/ext/ARM/CMSIS/Core/Include/cmsis_gcc.h" 1
 900 0054 82F31188 		MSR basepri, r2
 901              	@ 0 "" 2
 902              	.LVL63:
 903              		.thumb
 904              		.syntax unified
 905              	.LBE113:
 906              	.LBE112:
 907              	.LBE111:
 908              	.LBE110:
 909              	.LBE109:
 910              		.loc 1 142 0
 911 0058 C168     		ldr	r1, [r0, #12]
 912 005a 0A69     		ldr	r2, [r1, #16]
ARM GAS  /tmp/ccsvECc0.s 			page 17


 913              	.LBE102:
 914              	.LBE101:
 915              		.loc 1 728 0
 916 005c DB07     		lsls	r3, r3, #31
 917              	.LVL64:
 918              	.LBB116:
 919              	.LBB114:
 920              		.loc 1 142 0
 921 005e 22F00702 		bic	r2, r2, #7
 922 0062 0A61     		str	r2, [r1, #16]
 923              	.LBE114:
 924              	.LBE116:
 925              		.loc 1 728 0
 926 0064 CFD5     		bpl	.L138
 927              		.loc 1 729 0
 928 0066 0123     		movs	r3, #1
 929              		.loc 1 733 0
 930 0068 1846     		mov	r0, r3
 931              	.LVL65:
 932 006a 7047     		bx	lr
 933              	.LVL66:
 934              	.L136:
 935              	.LBB117:
 936              	.LBB115:
 937              		.loc 1 130 0
 938 006c 1369     		ldr	r3, [r2, #16]
 939              	.LVL67:
 940 006e 13F0050F 		tst	r3, #5
 941 0072 EED1     		bne	.L135
 942 0074 1369     		ldr	r3, [r2, #16]
 943              	.LVL68:
 944 0076 13F0050F 		tst	r3, #5
 945 007a F7D0     		beq	.L136
 946 007c E9E7     		b	.L135
 947              	.LBE115:
 948              	.LBE117:
 949              		.cfi_endproc
 950              	.LFE334:
 951              		.size	icu_lld_wait_capture, .-icu_lld_wait_capture
 952 007e 00BF     		.section	.text.icu_lld_stop_capture,"ax",%progbits
 953              		.align	1
 954              		.p2align 2,,3
 955              		.global	icu_lld_stop_capture
 956              		.syntax unified
 957              		.thumb
 958              		.thumb_func
 959              		.fpu fpv4-sp-d16
 960              		.type	icu_lld_stop_capture, %function
 961              	icu_lld_stop_capture:
 962              	.LFB335:
 963              		.loc 1 742 0
 964              		.cfi_startproc
 965              		@ args = 0, pretend = 0, frame = 0
 966              		@ frame_needed = 0, uses_anonymous_args = 0
 967              		@ link register save eliminated.
 968              	.LVL69:
 969              		.loc 1 745 0
ARM GAS  /tmp/ccsvECc0.s 			page 18


 970 0000 C368     		ldr	r3, [r0, #12]
 971 0002 0022     		movs	r2, #0
 972 0004 1A60     		str	r2, [r3]
 973              		.loc 1 748 0
 974 0006 DA68     		ldr	r2, [r3, #12]
 975 0008 22F0FF02 		bic	r2, r2, #255
 976 000c DA60     		str	r2, [r3, #12]
 977              		.loc 1 749 0
 978 000e 7047     		bx	lr
 979              		.cfi_endproc
 980              	.LFE335:
 981              		.size	icu_lld_stop_capture, .-icu_lld_stop_capture
 982              		.section	.text.icu_lld_enable_notifications,"ax",%progbits
 983              		.align	1
 984              		.p2align 2,,3
 985              		.global	icu_lld_enable_notifications
 986              		.syntax unified
 987              		.thumb
 988              		.thumb_func
 989              		.fpu fpv4-sp-d16
 990              		.type	icu_lld_enable_notifications, %function
 991              	icu_lld_enable_notifications:
 992              	.LFB336:
 993              		.loc 1 761 0
 994              		.cfi_startproc
 995              		@ args = 0, pretend = 0, frame = 0
 996              		@ frame_needed = 0, uses_anonymous_args = 0
 997              		@ link register save eliminated.
 998              	.LVL70:
 999              		.loc 1 762 0
 1000 0000 C268     		ldr	r2, [r0, #12]
 1001 0002 D368     		ldr	r3, [r2, #12]
 1002              	.LVL71:
 1003              		.loc 1 761 0
 1004 0004 10B4     		push	{r4}
 1005              		.cfi_def_cfa_offset 4
 1006              		.cfi_offset 4, -4
 1007              		.loc 1 767 0
 1008 0006 13F0FF04 		ands	r4, r3, #255
 1009 000a 0CD1     		bne	.L155
 1010              		.loc 1 771 0
 1011 000c 4168     		ldr	r1, [r0, #4]
 1012              		.loc 1 769 0
 1013 000e 1461     		str	r4, [r2, #16]
 1014              		.loc 1 771 0
 1015 0010 0C7D     		ldrb	r4, [r1, #20]	@ zero_extendqisi2
 1016 0012 8868     		ldr	r0, [r1, #8]
 1017              	.LVL72:
 1018 0014 54B9     		cbnz	r4, .L157
 1019              	.LVL73:
 1020              		.loc 1 776 0
 1021 0016 70B1     		cbz	r0, .L166
 1022              	.LVL74:
 1023              	.L160:
 1024              		.loc 1 785 0
 1025 0018 43F00603 		orr	r3, r3, #6
 1026              	.LVL75:
ARM GAS  /tmp/ccsvECc0.s 			page 19


 1027              	.L159:
 1028              		.loc 1 790 0
 1029 001c 0969     		ldr	r1, [r1, #16]
 1030 001e 09B1     		cbz	r1, .L161
 1031              		.loc 1 791 0
 1032 0020 43F00103 		orr	r3, r3, #1
 1033              	.LVL76:
 1034              	.L161:
 1035              		.loc 1 794 0
 1036 0024 D360     		str	r3, [r2, #12]
 1037              	.L155:
 1038              		.loc 1 796 0
 1039 0026 5DF8044B 		ldr	r4, [sp], #4
 1040              		.cfi_remember_state
 1041              		.cfi_restore 4
 1042              		.cfi_def_cfa_offset 0
 1043 002a 7047     		bx	lr
 1044              	.L157:
 1045              		.cfi_restore_state
 1046              	.LVL77:
 1047              		.loc 1 784 0
 1048 002c 0028     		cmp	r0, #0
 1049 002e F3D1     		bne	.L160
 1050              		.loc 1 781 0
 1051 0030 43F00403 		orr	r3, r3, #4
 1052              	.LVL78:
 1053 0034 F2E7     		b	.L159
 1054              	.LVL79:
 1055              	.L166:
 1056              		.loc 1 773 0
 1057 0036 43F00203 		orr	r3, r3, #2
 1058              	.LVL80:
 1059 003a EFE7     		b	.L159
 1060              		.cfi_endproc
 1061              	.LFE336:
 1062              		.size	icu_lld_enable_notifications, .-icu_lld_enable_notifications
 1063              		.section	.text.icu_lld_disable_notifications,"ax",%progbits
 1064              		.align	1
 1065              		.p2align 2,,3
 1066              		.global	icu_lld_disable_notifications
 1067              		.syntax unified
 1068              		.thumb
 1069              		.thumb_func
 1070              		.fpu fpv4-sp-d16
 1071              		.type	icu_lld_disable_notifications, %function
 1072              	icu_lld_disable_notifications:
 1073              	.LFB337:
 1074              		.loc 1 808 0
 1075              		.cfi_startproc
 1076              		@ args = 0, pretend = 0, frame = 0
 1077              		@ frame_needed = 0, uses_anonymous_args = 0
 1078              		@ link register save eliminated.
 1079              	.LVL81:
 1080              		.loc 1 811 0
 1081 0000 C268     		ldr	r2, [r0, #12]
 1082 0002 D368     		ldr	r3, [r2, #12]
 1083 0004 23F0FF03 		bic	r3, r3, #255
ARM GAS  /tmp/ccsvECc0.s 			page 20


 1084 0008 D360     		str	r3, [r2, #12]
 1085              		.loc 1 812 0
 1086 000a 7047     		bx	lr
 1087              		.cfi_endproc
 1088              	.LFE337:
 1089              		.size	icu_lld_disable_notifications, .-icu_lld_disable_notifications
 1090              		.section	.text.icu_lld_serve_interrupt,"ax",%progbits
 1091              		.align	1
 1092              		.p2align 2,,3
 1093              		.global	icu_lld_serve_interrupt
 1094              		.syntax unified
 1095              		.thumb
 1096              		.thumb_func
 1097              		.fpu fpv4-sp-d16
 1098              		.type	icu_lld_serve_interrupt, %function
 1099              	icu_lld_serve_interrupt:
 1100              	.LFB338:
 1101              		.loc 1 821 0
 1102              		.cfi_startproc
 1103              		@ args = 0, pretend = 0, frame = 8
 1104              		@ frame_needed = 0, uses_anonymous_args = 0
 1105              	.LVL82:
 1106              		.loc 1 824 0
 1107 0000 C368     		ldr	r3, [r0, #12]
 1108              		.loc 1 827 0
 1109 0002 4168     		ldr	r1, [r0, #4]
 1110              		.loc 1 824 0
 1111 0004 1A69     		ldr	r2, [r3, #16]
 1112              	.LVL83:
 1113              		.loc 1 821 0
 1114 0006 F0B5     		push	{r4, r5, r6, r7, lr}
 1115              		.cfi_def_cfa_offset 20
 1116              		.cfi_offset 4, -20
 1117              		.cfi_offset 5, -16
 1118              		.cfi_offset 6, -12
 1119              		.cfi_offset 7, -8
 1120              		.cfi_offset 14, -4
 1121              		.loc 1 825 0
 1122 0008 DD68     		ldr	r5, [r3, #12]
 1123              		.loc 1 827 0
 1124 000a 0E7D     		ldrb	r6, [r1, #20]	@ zero_extendqisi2
 1125 000c 1540     		ands	r5, r5, r2
 1126              	.LVL84:
 1127              		.loc 1 825 0
 1128 000e EAB2     		uxtb	r2, r5
 1129              		.loc 1 826 0
 1130 0010 D243     		mvns	r2, r2
 1131 0012 1A61     		str	r2, [r3, #16]
 1132              		.loc 1 821 0
 1133 0014 83B0     		sub	sp, sp, #12
 1134              		.cfi_def_cfa_offset 32
 1135              		.loc 1 821 0
 1136 0016 0446     		mov	r4, r0
 1137 0018 05F00203 		and	r3, r5, #2
 1138 001c 05F00407 		and	r7, r5, #4
 1139              		.loc 1 827 0
 1140 0020 7EB9     		cbnz	r6, .L169
ARM GAS  /tmp/ccsvECc0.s 			page 21


 1141              		.loc 1 828 0
 1142 0022 002F     		cmp	r7, #0
 1143 0024 2CD0     		beq	.L170
 1144              		.loc 1 829 0
 1145 0026 0278     		ldrb	r2, [r0]	@ zero_extendqisi2
 1146 0028 042A     		cmp	r2, #4
 1147 002a 24D0     		beq	.L209
 1148              		.loc 1 830 0
 1149 002c 7BB9     		cbnz	r3, .L176
 1150              	.LVL85:
 1151              	.L174:
 1152              		.loc 1 839 0
 1153 002e EB07     		lsls	r3, r5, #31
 1154 0030 05D5     		bpl	.L168
 1155              		.loc 1 840 0
 1156 0032 6368     		ldr	r3, [r4, #4]
 1157 0034 2046     		mov	r0, r4
 1158 0036 1B69     		ldr	r3, [r3, #16]
 1159 0038 9847     		blx	r3
 1160              	.LVL86:
 1161 003a 0323     		movs	r3, #3
 1162 003c 2370     		strb	r3, [r4]
 1163              	.L168:
 1164              		.loc 1 841 0
 1165 003e 03B0     		add	sp, sp, #12
 1166              		.cfi_remember_state
 1167              		.cfi_def_cfa_offset 20
 1168              		@ sp needed
 1169 0040 F0BD     		pop	{r4, r5, r6, r7, pc}
 1170              	.LVL87:
 1171              	.L169:
 1172              		.cfi_restore_state
 1173              		.loc 1 834 0
 1174 0042 53B1     		cbz	r3, .L178
 1175              		.loc 1 835 0
 1176 0044 0378     		ldrb	r3, [r0]	@ zero_extendqisi2
 1177 0046 042B     		cmp	r3, #4
 1178 0048 04D0     		beq	.L210
 1179              		.loc 1 836 0
 1180 004a 002F     		cmp	r7, #0
 1181 004c EFD0     		beq	.L174
 1182              	.LVL88:
 1183              	.L176:
 1184              		.loc 1 831 0 discriminator 5
 1185 004e 0423     		movs	r3, #4
 1186 0050 2370     		strb	r3, [r4]
 1187 0052 ECE7     		b	.L174
 1188              	.LVL89:
 1189              	.L210:
 1190              		.loc 1 835 0 discriminator 1
 1191 0054 8B68     		ldr	r3, [r1, #8]
 1192 0056 E3B1     		cbz	r3, .L180
 1193              		.loc 1 835 0 is_stmt 0 discriminator 2
 1194 0058 9847     		blx	r3
 1195              	.LVL90:
 1196              	.L178:
 1197              		.loc 1 836 0 is_stmt 1
ARM GAS  /tmp/ccsvECc0.s 			page 22


 1198 005a 002F     		cmp	r7, #0
 1199 005c E7D0     		beq	.L174
 1200              		.loc 1 831 0
 1201 005e 2378     		ldrb	r3, [r4]	@ zero_extendqisi2
 1202 0060 042B     		cmp	r3, #4
 1203 0062 F4D1     		bne	.L176
 1204              	.L211:
 1205 0064 6168     		ldr	r1, [r4, #4]
 1206              	.L183:
 1207              		.loc 1 831 0 is_stmt 0 discriminator 1
 1208 0066 CB68     		ldr	r3, [r1, #12]
 1209 0068 002B     		cmp	r3, #0
 1210 006a F0D0     		beq	.L176
 1211              		.loc 1 831 0 discriminator 3
 1212 006c 2046     		mov	r0, r4
 1213 006e 9847     		blx	r3
 1214              	.LVL91:
 1215 0070 0423     		movs	r3, #4
 1216 0072 2370     		strb	r3, [r4]
 1217 0074 DBE7     		b	.L174
 1218              	.LVL92:
 1219              	.L209:
 1220              		.loc 1 829 0 is_stmt 1 discriminator 1
 1221 0076 8A68     		ldr	r2, [r1, #8]
 1222 0078 42B1     		cbz	r2, .L172
 1223 007a 0193     		str	r3, [sp, #4]
 1224              		.loc 1 829 0 is_stmt 0 discriminator 2
 1225 007c 9047     		blx	r2
 1226              	.LVL93:
 1227 007e 019B     		ldr	r3, [sp, #4]
 1228              	.L170:
 1229              		.loc 1 830 0 is_stmt 1
 1230 0080 002B     		cmp	r3, #0
 1231 0082 D4D0     		beq	.L174
 1232              		.loc 1 831 0
 1233 0084 2378     		ldrb	r3, [r4]	@ zero_extendqisi2
 1234 0086 042B     		cmp	r3, #4
 1235 0088 E1D1     		bne	.L176
 1236 008a EBE7     		b	.L211
 1237              	.LVL94:
 1238              	.L172:
 1239              		.loc 1 830 0
 1240 008c 002B     		cmp	r3, #0
 1241 008e CED0     		beq	.L174
 1242 0090 E9E7     		b	.L183
 1243              	.L180:
 1244              		.loc 1 836 0
 1245 0092 002F     		cmp	r7, #0
 1246 0094 CBD0     		beq	.L174
 1247 0096 E6E7     		b	.L183
 1248              		.cfi_endproc
 1249              	.LFE338:
 1250              		.size	icu_lld_serve_interrupt, .-icu_lld_serve_interrupt
 1251              		.global	ICUD5
 1252              		.global	ICUD4
 1253              		.section	.bss.ICUD4,"aw",%nobits
 1254              		.align	2
ARM GAS  /tmp/ccsvECc0.s 			page 23


 1255              		.set	.LANCHOR0,. + 0
 1256              		.type	ICUD4, %object
 1257              		.size	ICUD4, 24
 1258              	ICUD4:
 1259 0000 00000000 		.space	24
 1259      00000000 
 1259      00000000 
 1259      00000000 
 1259      00000000 
 1260              		.section	.bss.ICUD5,"aw",%nobits
 1261              		.align	2
 1262              		.set	.LANCHOR1,. + 0
 1263              		.type	ICUD5, %object
 1264              		.size	ICUD5, 24
 1265              	ICUD5:
 1266 0000 00000000 		.space	24
 1266      00000000 
 1266      00000000 
 1266      00000000 
 1266      00000000 
 1267              		.text
 1268              	.Letext0:
 1269              		.file 3 "/usr/lib/gcc/arm-none-eabi/7.3.1/include/stddef.h"
 1270              		.file 4 "/usr/arm-none-eabi/include/machine/_default_types.h"
 1271              		.file 5 "/usr/arm-none-eabi/include/sys/_stdint.h"
 1272              		.file 6 "./RM18A-ChibiOS18-Core/chibios/os/common/ports/ARMCMx/compilers/GCC/chtypes.h"
 1273              		.file 7 "./RM18A-ChibiOS18-Core/chibios/os/rt/include/chsystypes.h"
 1274              		.file 8 "./RM18A-ChibiOS18-Core/chibios/os/rt/include/chschd.h"
 1275              		.file 9 "./RM18A-ChibiOS18-Core/chibios/os/rt/include/chtime.h"
 1276              		.file 10 "./RM18A-ChibiOS18-Core/chibios/os/common/ext/ARM/CMSIS/Core/Include/core_cm4.h"
 1277              		.file 11 "./RM18A-ChibiOS18-Core/chibios/os/common/ext/ST/STM32F4xx/system_stm32f4xx.h"
 1278              		.file 12 "./RM18A-ChibiOS18-Core/chibios/os/common/ext/ST/STM32F4xx/stm32f427xx.h"
 1279              		.file 13 "./RM18A-ChibiOS18-Core/chibios/os/common/ports/ARMCMx/chcore.h"
 1280              		.file 14 "./RM18A-ChibiOS18-Core/chibios/os/common/ports/ARMCMx/chcore_v7m.h"
 1281              		.file 15 "./RM18A-ChibiOS18-Core/chibios/os/hal/ports/STM32/LLD/TIMv1/stm32_tim.h"
 1282              		.file 16 "./RM18A-ChibiOS18-Core/chibios/os/rt/include/chtm.h"
 1283              		.file 17 "./RM18A-ChibiOS18-Core/chibios/os/rt/include/chsem.h"
 1284              		.file 18 "./RM18A-ChibiOS18-Core/chibios/os/rt/include/chmtx.h"
 1285              		.file 19 "./RM18A-ChibiOS18-Core/chibios/os/rt/include/chsys.h"
 1286              		.file 20 "./RM18A-ChibiOS18-Core/chibios/os/rt/include/chregistry.h"
 1287              		.file 21 "./RM18A-ChibiOS18-Core/chibios/os/rt/include/chevents.h"
 1288              		.file 22 "./RM18A-ChibiOS18-Core/chibios/os/oslib/include/chmemcore.h"
 1289              		.file 23 "./RM18A-ChibiOS18-Core/chibios/os/oslib/include/chmempools.h"
 1290              		.file 24 "./RM18A-ChibiOS18-Core/chibios/os/oslib/include/chfactory.h"
 1291              		.file 25 "./RM18A-ChibiOS18-Core/chibios/os/hal/ports/STM32/LLD/DMAv2/stm32_dma.h"
 1292              		.file 26 "./RM18A-ChibiOS18-Core/chibios/os/hal/include/hal_queues.h"
 1293              		.file 27 "./RM18A-ChibiOS18-Core/chibios/os/hal/include/hal_pal.h"
 1294              		.file 28 "./RM18A-ChibiOS18-Core/chibios/os/hal/ports/STM32/LLD/GPIOv2/hal_pal_lld.h"
 1295              		.file 29 "./RM18A-ChibiOS18-Core/chibios/os/hal/include/hal_adc.h"
 1296              		.file 30 "./RM18A-ChibiOS18-Core/chibios/os/hal/ports/STM32/LLD/ADCv2/hal_adc_lld.h"
 1297              		.file 31 "./RM18A-ChibiOS18-Core/chibios/os/hal/include/hal_can.h"
 1298              		.file 32 "./RM18A-ChibiOS18-Core/chibios/os/hal/ports/STM32/LLD/CANv1/hal_can_lld.h"
 1299              		.file 33 "./RM18A-ChibiOS18-Core/chibios/os/hal/include/hal_i2c.h"
 1300              		.file 34 "./RM18A-ChibiOS18-Core/chibios/os/hal/lib/fallback/I2C/hal_i2c_lld.h"
 1301              		.file 35 "./RM18A-ChibiOS18-Core/chibios/os/hal/include/hal_icu.h"
 1302              		.file 36 "./RM18A-ChibiOS18-Core/chibios/os/hal/ports/STM32/LLD/TIMv1/hal_icu_lld.h"
 1303              		.file 37 "./RM18A-ChibiOS18-Core/chibios/os/hal/include/hal_pwm.h"
ARM GAS  /tmp/ccsvECc0.s 			page 24


 1304              		.file 38 "./RM18A-ChibiOS18-Core/chibios/os/hal/ports/STM32/LLD/TIMv1/hal_pwm_lld.h"
 1305              		.file 39 "./RM18A-ChibiOS18-Core/chibios/os/hal/include/hal_serial.h"
 1306              		.file 40 "./RM18A-ChibiOS18-Core/chibios/os/hal/ports/STM32/LLD/USARTv1/hal_serial_lld.h"
 1307              		.file 41 "./RM18A-ChibiOS18-Core/chibios/os/hal/include/hal_spi.h"
 1308              		.file 42 "./RM18A-ChibiOS18-Core/chibios/os/hal/ports/STM32/LLD/SPIv1/hal_spi_lld.h"
 1309              		.file 43 "./RM18A-ChibiOS18-Core/chibios/os/hal/include/hal_uart.h"
 1310              		.file 44 "./RM18A-ChibiOS18-Core/chibios/os/hal/ports/STM32/LLD/USARTv1/hal_uart_lld.h"
 1311              		.file 45 "./RM18A-ChibiOS18-Core/chibios/os/hal/include/hal_usb.h"
 1312              		.file 46 "./RM18A-ChibiOS18-Core/chibios/os/hal/ports/STM32/LLD/OTGv1/hal_usb_lld.h"
 1313              		.file 47 "./RM18A-ChibiOS18-Core/chibios/os/hal/ports/STM32/LLD/OTGv1/stm32_otg.h"
 1314              		.file 48 "./RM18A-ChibiOS18-Core/chibios/os/hal/osal/rt/osal.h"
 1315              		.file 49 "./RM18A-ChibiOS18-Core/chibios/os/hal/ports/common/ARMCMx/nvic.h"