ARM GAS  /tmp/ccUMP9GK.s 			page 1


   1              		.cpu cortex-m4
   2              		.eabi_attribute 27, 1
   3              		.eabi_attribute 28, 1
   4              		.eabi_attribute 20, 1
   5              		.eabi_attribute 21, 1
   6              		.eabi_attribute 23, 3
   7              		.eabi_attribute 24, 1
   8              		.eabi_attribute 25, 1
   9              		.eabi_attribute 26, 1
  10              		.eabi_attribute 30, 2
  11              		.eabi_attribute 34, 1
  12              		.eabi_attribute 18, 4
  13              		.file	"i2c.cpp"
  14              		.text
  15              	.Ltext0:
  16              		.cfi_sections	.debug_frame
  17              		.section	.text._ZL12PAT9125ELThdPv,"ax",%progbits
  18              		.align	1
  19              		.p2align 2,,3
  20              		.syntax unified
  21              		.thumb
  22              		.thumb_func
  23              		.fpu fpv4-sp-d16
  24              		.type	_ZL12PAT9125ELThdPv, %function
  25              	_ZL12PAT9125ELThdPv:
  26              	.LFB816:
  27              		.file 1 "i2c.cpp"
  28              		.loc 1 721 0
  29              		.cfi_startproc
  30              		@ args = 0, pretend = 0, frame = 8
  31              		@ frame_needed = 0, uses_anonymous_args = 0
  32              	.LVL0:
  33 0000 2DE9F04F 		push	{r4, r5, r6, r7, r8, r9, r10, fp, lr}
  34              		.cfi_def_cfa_offset 36
  35              		.cfi_offset 4, -36
  36              		.cfi_offset 5, -32
  37              		.cfi_offset 6, -28
  38              		.cfi_offset 7, -24
  39              		.cfi_offset 8, -20
  40              		.cfi_offset 9, -16
  41              		.cfi_offset 10, -12
  42              		.cfi_offset 11, -8
  43              		.cfi_offset 14, -4
  44              	.LBB175:
  45              	.LBB176:
  46              	.LBB177:
  47              	.LBB178:
  48              		.file 2 "./RM18A-ChibiOS18-Core/chibios/os/rt/include/chthreads.h"
  49              		.loc 2 274 0
  50 0004 DFF88480 		ldr	r8, .L10+8
  51              	.LBE178:
  52              	.LBE177:
  53              		.loc 2 347 0
  54 0008 D8F81830 		ldr	r3, [r8, #24]
  55              	.LBE176:
  56              	.LBE175:
  57              		.loc 1 725 0
ARM GAS  /tmp/ccUMP9GK.s 			page 2


  58 000c 93F82130 		ldrb	r3, [r3, #33]	@ zero_extendqisi2
  59 0010 5A07     		lsls	r2, r3, #29
  60              		.loc 1 721 0
  61 0012 87B0     		sub	sp, sp, #28
  62              		.cfi_def_cfa_offset 64
  63              		.loc 1 725 0
  64 0014 32D4     		bmi	.L1
  65              	.LBB180:
  66              		.loc 1 730 0
  67 0016 DFF878B0 		ldr	fp, .L10+12
  68              	.LBB181:
  69              	.LBB182:
  70              	.LBB183:
  71              		.loc 1 628 0
  72 001a 1A4F     		ldr	r7, .L10
  73              	.LBE183:
  74              	.LBE182:
  75              	.LBE181:
  76              		.loc 1 730 0
  77 001c 4FF40069 		mov	r9, #2048	@ movhi
  78              		.loc 1 731 0
  79 0020 4FF4804A 		mov	r10, #16384	@ movhi
  80              	.LVL1:
  81              	.L4:
  82 0024 184B     		ldr	r3, .L10+4
  83              		.loc 1 730 0
  84 0026 ABF81890 		strh	r9, [fp, #24]	@ movhi
  85              		.loc 1 731 0
  86 002a 0624     		movs	r4, #6
  87 002c A3F818A0 		strh	r10, [r3, #24]	@ movhi
  88              	.LVL2:
  89              	.LBB186:
  90              	.LBB185:
  91              	.LBB184:
  92              		.loc 1 627 0
  93 0030 0025     		movs	r5, #0
  94 0032 A026     		movs	r6, #160
  95              	.LVL3:
  96              	.L3:
  97              		.loc 1 628 0
  98 0034 4FF0FF33 		mov	r3, #-1
  99              		.loc 1 627 0
 100 0038 8DF81040 		strb	r4, [sp, #16]
 101 003c 0434     		adds	r4, r4, #4
 102              		.loc 1 628 0
 103 003e 0293     		str	r3, [sp, #8]
 104              		.loc 1 627 0
 105 0040 4FF00F0C 		mov	ip, #15
 106              		.loc 1 628 0
 107 0044 CDE90055 		strd	r5, r5, [sp]
 108 0048 0523     		movs	r3, #5
 109 004a 04AA     		add	r2, sp, #16
 110 004c 4021     		movs	r1, #64
 111 004e 3846     		mov	r0, r7
 112 0050 E4B2     		uxtb	r4, r4
 113              		.loc 1 627 0
 114 0052 8DF81150 		strb	r5, [sp, #17]
ARM GAS  /tmp/ccUMP9GK.s 			page 3


 115 0056 8DF81250 		strb	r5, [sp, #18]
 116 005a 8DF81360 		strb	r6, [sp, #19]
 117 005e 8DF814C0 		strb	ip, [sp, #20]
 118              		.loc 1 628 0
 119 0062 FFF7FEFF 		bl	i2cMasterTransmitTimeout
 120              	.LVL4:
 121              	.LBE184:
 122              	.LBE185:
 123              		.loc 1 735 0
 124 0066 462C     		cmp	r4, #70
 125 0068 E4D1     		bne	.L3
 126              	.LBE186:
 127              		.loc 1 762 0
 128 006a 6420     		movs	r0, #100
 129 006c FFF7FEFF 		bl	chThdSleep
 130              	.LVL5:
 131              	.LBE180:
 132              	.LBB187:
 133              	.LBB179:
 134              		.loc 2 347 0
 135 0070 D8F81830 		ldr	r3, [r8, #24]
 136              	.LBE179:
 137              	.LBE187:
 138              		.loc 1 725 0
 139 0074 93F82130 		ldrb	r3, [r3, #33]	@ zero_extendqisi2
 140 0078 5B07     		lsls	r3, r3, #29
 141 007a D3D5     		bpl	.L4
 142              	.L1:
 143              		.loc 1 764 0
 144 007c 07B0     		add	sp, sp, #28
 145              		.cfi_def_cfa_offset 36
 146              		@ sp needed
 147 007e BDE8F08F 		pop	{r4, r5, r6, r7, r8, r9, r10, fp, pc}
 148              	.L11:
 149 0082 00BF     		.align	2
 150              	.L10:
 151 0084 00000000 		.word	I2CD2
 152 0088 000C0240 		.word	1073875968
 153 008c 00000000 		.word	ch
 154 0090 001C0240 		.word	1073880064
 155              		.cfi_endproc
 156              	.LFE816:
 157              		.size	_ZL12PAT9125ELThdPv, .-_ZL12PAT9125ELThdPv
 158              		.section	.text._Z17swi2c_readByte_A8hhPh.constprop.3,"ax",%progbits
 159              		.align	1
 160              		.p2align 2,,3
 161              		.syntax unified
 162              		.thumb
 163              		.thumb_func
 164              		.fpu fpv4-sp-d16
 165              		.type	_Z17swi2c_readByte_A8hhPh.constprop.3, %function
 166              	_Z17swi2c_readByte_A8hhPh.constprop.3:
 167              	.LFB823:
 168              		.loc 1 158 0
 169              		.cfi_startproc
 170              		@ args = 0, pretend = 0, frame = 0
 171              		@ frame_needed = 0, uses_anonymous_args = 0
ARM GAS  /tmp/ccUMP9GK.s 			page 4


 172              	.LVL6:
 173 0000 2DE9F84F 		push	{r3, r4, r5, r6, r7, r8, r9, r10, fp, lr}
 174              		.cfi_def_cfa_offset 40
 175              		.cfi_offset 3, -40
 176              		.cfi_offset 4, -36
 177              		.cfi_offset 5, -32
 178              		.cfi_offset 6, -28
 179              		.cfi_offset 7, -24
 180              		.cfi_offset 8, -20
 181              		.cfi_offset 9, -16
 182              		.cfi_offset 10, -12
 183              		.cfi_offset 11, -8
 184              		.cfi_offset 14, -4
 185              	.LBB288:
 186              	.LBB289:
 187              		.loc 1 41 0
 188 0004 B44D     		ldr	r5, .L41
 189              		.loc 1 43 0
 190 0006 B54C     		ldr	r4, .L41+4
 191              		.loc 1 41 0
 192 0008 4FF48053 		mov	r3, #4096
 193 000c 6B83     		strh	r3, [r5, #26]	@ movhi
 194              	.LBE289:
 195              	.LBE288:
 196              		.loc 1 158 0
 197 000e 0746     		mov	r7, r0
 198              	.LBB301:
 199              	.LBB298:
 200              	.LBB290:
 201              	.LBB291:
 202              		.loc 1 25 0
 203 0010 0120     		movs	r0, #1
 204              	.LVL7:
 205              	.LBE291:
 206              	.LBE290:
 207              	.LBE298:
 208              	.LBE301:
 209              		.loc 1 158 0
 210 0012 8846     		mov	r8, r1
 211              	.LBB302:
 212              	.LBB299:
 213              	.LBB293:
 214              	.LBB292:
 215              		.loc 1 25 0
 216 0014 FFF7FEFF 		bl	chThdSleep
 217              	.LVL8:
 218              	.LBE292:
 219              	.LBE293:
 220              		.loc 1 43 0
 221 0018 0120     		movs	r0, #1
 222 001a 6083     		strh	r0, [r4, #26]	@ movhi
 223              	.LBB294:
 224              	.LBB295:
 225              		.loc 1 25 0
 226 001c FFF7FEFF 		bl	chThdSleep
 227              	.LVL9:
 228              	.LBE295:
ARM GAS  /tmp/ccUMP9GK.s 			page 5


 229              	.LBE294:
 230              	.LBE299:
 231              	.LBE302:
 232              	.LBB303:
 233              	.LBB304:
 234              		.loc 1 135 0
 235 0020 A146     		mov	r9, r4
 236              		.loc 1 133 0
 237 0022 AA46     		mov	r10, r5
 238              	.LBE304:
 239              	.LBE303:
 240              	.LBB329:
 241              	.LBB300:
 242              	.LBB297:
 243              	.LBB296:
 244              		.loc 1 25 0
 245 0024 0724     		movs	r4, #7
 246              	.LBE296:
 247              	.LBE297:
 248              	.LBE300:
 249              	.LBE329:
 250              	.LBB330:
 251              	.LBB327:
 252              		.loc 1 130 0
 253 0026 4FF0800B 		mov	fp, #128
 254              	.LVL10:
 255              	.L13:
 256 002a 4BFA04F3 		asr	r3, fp, r4
 257              		.loc 1 135 0
 258 002e 0126     		movs	r6, #1
 259              		.loc 1 130 0
 260 0030 DB07     		lsls	r3, r3, #31
 261              		.loc 1 131 0
 262 0032 4FF48051 		mov	r1, #4096
 263              	.LBB305:
 264              	.LBB306:
 265              		.loc 1 25 0
 266 0036 3046     		mov	r0, r6
 267              	.LBE306:
 268              	.LBE305:
 269              		.loc 1 130 0
 270 0038 40F13681 		bpl	.L14
 271              		.loc 1 131 0
 272 003c AAF81810 		strh	r1, [r10, #24]	@ movhi
 273              	.LBB309:
 274              	.LBB307:
 275              		.loc 1 25 0
 276 0040 FFF7FEFF 		bl	chThdSleep
 277              	.LVL11:
 278              	.LBE307:
 279              	.LBE309:
 280              	.LBB310:
 281              	.LBB311:
 282 0044 3046     		mov	r0, r6
 283              	.LBE311:
 284              	.LBE310:
 285              		.loc 1 135 0
ARM GAS  /tmp/ccUMP9GK.s 			page 6


 286 0046 A9F81860 		strh	r6, [r9, #24]	@ movhi
 287              	.LBB315:
 288              	.LBB312:
 289              		.loc 1 25 0
 290 004a FFF7FEFF 		bl	chThdSleep
 291              	.LVL12:
 292              	.LBE312:
 293              	.LBE315:
 294              	.LBB316:
 295              	.LBB317:
 296 004e 3046     		mov	r0, r6
 297 0050 FFF7FEFF 		bl	chThdSleep
 298              	.LVL13:
 299 0054 013C     		subs	r4, r4, #1
 300              	.LVL14:
 301              	.LBE317:
 302              	.LBE316:
 303              		.loc 1 138 0
 304 0056 A9F81A60 		strh	r6, [r9, #26]	@ movhi
 305              	.LBB319:
 306              	.LBB320:
 307              		.loc 1 25 0
 308 005a 3046     		mov	r0, r6
 309 005c FFF7FEFF 		bl	chThdSleep
 310              	.LVL15:
 311              	.LBE320:
 312              	.LBE319:
 313              		.loc 1 128 0
 314 0060 611C     		adds	r1, r4, #1
 315 0062 E2D1     		bne	.L13
 316              	.L15:
 317              	.LVL16:
 318              	.LBE327:
 319              	.LBE330:
 320              	.LBB331:
 321              	.LBB332:
 322              		.loc 1 57 0
 323 0064 9C4C     		ldr	r4, .L41
 324              		.loc 1 59 0
 325 0066 9D4E     		ldr	r6, .L41+4
 326              		.loc 1 57 0
 327 0068 4FF4805B 		mov	fp, #4096
 328              	.LBB333:
 329              	.LBB334:
 330              		.loc 1 25 0
 331 006c 0120     		movs	r0, #1
 332              	.LBE334:
 333              	.LBE333:
 334              		.loc 1 59 0
 335 006e 0546     		mov	r5, r0
 336              		.loc 1 57 0
 337 0070 A4F818B0 		strh	fp, [r4, #24]	@ movhi
 338              	.LBB336:
 339              	.LBB335:
 340              		.loc 1 25 0
 341 0074 FFF7FEFF 		bl	chThdSleep
 342              	.LVL17:
ARM GAS  /tmp/ccUMP9GK.s 			page 7


 343              	.LBE335:
 344              	.LBE336:
 345              	.LBB337:
 346              	.LBB338:
 347 0078 2846     		mov	r0, r5
 348              	.LBE338:
 349              	.LBE337:
 350              		.loc 1 59 0
 351 007a 3583     		strh	r5, [r6, #24]	@ movhi
 352              	.LBB340:
 353              	.LBB339:
 354              		.loc 1 25 0
 355 007c FFF7FEFF 		bl	chThdSleep
 356              	.LVL18:
 357              	.LBE339:
 358              	.LBE340:
 359              		.loc 1 64 0
 360 0080 5946     		mov	r1, fp
 361 0082 2046     		mov	r0, r4
 362 0084 0522     		movs	r2, #5
 363              		.loc 1 61 0
 364 0086 7583     		strh	r5, [r6, #26]	@ movhi
 365              		.loc 1 63 0
 366 0088 A4F818B0 		strh	fp, [r4, #24]	@ movhi
 367              		.loc 1 64 0
 368 008c FFF7FEFF 		bl	_pal_lld_setgroupmode
 369              	.LVL19:
 370              	.LBB341:
 371              	.LBB342:
 372              		.loc 1 25 0
 373 0090 2846     		mov	r0, r5
 374 0092 FFF7FEFF 		bl	chThdSleep
 375              	.LVL20:
 376              	.LBE342:
 377              	.LBE341:
 378              		.loc 1 66 0
 379 0096 2046     		mov	r0, r4
 380 0098 5946     		mov	r1, fp
 381 009a 0522     		movs	r2, #5
 382 009c FFF7FEFF 		bl	_pal_lld_setgroupmode
 383              	.LVL21:
 384              	.LBE332:
 385              	.LBE331:
 386              	.LBB344:
 387              	.LBB345:
 388              		.loc 1 133 0
 389 00a0 A246     		mov	r10, r4
 390              		.loc 1 135 0
 391 00a2 B146     		mov	r9, r6
 392              	.LBE345:
 393              	.LBE344:
 394              	.LBB372:
 395              	.LBB343:
 396              		.loc 1 66 0
 397 00a4 0724     		movs	r4, #7
 398              	.LVL22:
 399              	.L17:
ARM GAS  /tmp/ccUMP9GK.s 			page 8


 400              	.LBE343:
 401              	.LBE372:
 402              	.LBB373:
 403              	.LBB370:
 404              		.loc 1 130 0
 405 00a6 47FA04F3 		asr	r3, r7, r4
 406              		.loc 1 135 0
 407 00aa 0126     		movs	r6, #1
 408              		.loc 1 130 0
 409 00ac DB07     		lsls	r3, r3, #31
 410              	.LBB346:
 411              	.LBB347:
 412              		.loc 1 25 0
 413 00ae 3046     		mov	r0, r6
 414              	.LBE347:
 415              	.LBE346:
 416              		.loc 1 130 0
 417 00b0 40F1E380 		bpl	.L18
 418              		.loc 1 131 0
 419 00b4 AAF818B0 		strh	fp, [r10, #24]	@ movhi
 420              	.LBB351:
 421              	.LBB348:
 422              		.loc 1 25 0
 423 00b8 FFF7FEFF 		bl	chThdSleep
 424              	.LVL23:
 425              	.LBE348:
 426              	.LBE351:
 427              	.LBB352:
 428              	.LBB353:
 429 00bc 3046     		mov	r0, r6
 430              	.LBE353:
 431              	.LBE352:
 432              		.loc 1 135 0
 433 00be A9F81860 		strh	r6, [r9, #24]	@ movhi
 434              	.LBB357:
 435              	.LBB354:
 436              		.loc 1 25 0
 437 00c2 FFF7FEFF 		bl	chThdSleep
 438              	.LVL24:
 439              	.LBE354:
 440              	.LBE357:
 441              	.LBB358:
 442              	.LBB359:
 443 00c6 3046     		mov	r0, r6
 444 00c8 FFF7FEFF 		bl	chThdSleep
 445              	.LVL25:
 446 00cc 013C     		subs	r4, r4, #1
 447              	.LVL26:
 448              	.LBE359:
 449              	.LBE358:
 450              		.loc 1 138 0
 451 00ce A9F81A60 		strh	r6, [r9, #26]	@ movhi
 452              	.LBB361:
 453              	.LBB362:
 454              		.loc 1 25 0
 455 00d2 3046     		mov	r0, r6
 456 00d4 FFF7FEFF 		bl	chThdSleep
ARM GAS  /tmp/ccUMP9GK.s 			page 9


 457              	.LVL27:
 458              	.LBE362:
 459              	.LBE361:
 460              		.loc 1 128 0
 461 00d8 611C     		adds	r1, r4, #1
 462 00da E4D1     		bne	.L17
 463              	.L19:
 464              	.LBE370:
 465              	.LBE373:
 466              	.LBB374:
 467              	.LBB375:
 468              		.loc 1 57 0
 469 00dc 7E4D     		ldr	r5, .L41
 470              		.loc 1 59 0
 471 00de 7F4F     		ldr	r7, .L41+4
 472              		.loc 1 57 0
 473 00e0 4FF48056 		mov	r6, #4096
 474              	.LBB376:
 475              	.LBB377:
 476              		.loc 1 25 0
 477 00e4 0120     		movs	r0, #1
 478              	.LBE377:
 479              	.LBE376:
 480              		.loc 1 59 0
 481 00e6 0446     		mov	r4, r0
 482              		.loc 1 57 0
 483 00e8 2E83     		strh	r6, [r5, #24]	@ movhi
 484              	.LBB379:
 485              	.LBB378:
 486              		.loc 1 25 0
 487 00ea FFF7FEFF 		bl	chThdSleep
 488              	.LVL28:
 489              	.LBE378:
 490              	.LBE379:
 491              	.LBB380:
 492              	.LBB381:
 493 00ee 2046     		mov	r0, r4
 494              	.LBE381:
 495              	.LBE380:
 496              		.loc 1 59 0
 497 00f0 3C83     		strh	r4, [r7, #24]	@ movhi
 498              	.LBB383:
 499              	.LBB382:
 500              		.loc 1 25 0
 501 00f2 FFF7FEFF 		bl	chThdSleep
 502              	.LVL29:
 503              	.LBE382:
 504              	.LBE383:
 505              		.loc 1 61 0
 506 00f6 7C83     		strh	r4, [r7, #26]	@ movhi
 507              		.loc 1 64 0
 508 00f8 3146     		mov	r1, r6
 509 00fa 0522     		movs	r2, #5
 510 00fc 2846     		mov	r0, r5
 511              		.loc 1 63 0
 512 00fe 2E83     		strh	r6, [r5, #24]	@ movhi
 513              		.loc 1 64 0
ARM GAS  /tmp/ccUMP9GK.s 			page 10


 514 0100 FFF7FEFF 		bl	_pal_lld_setgroupmode
 515              	.LVL30:
 516              	.LBB384:
 517              	.LBB385:
 518              		.loc 1 25 0
 519 0104 2046     		mov	r0, r4
 520 0106 FFF7FEFF 		bl	chThdSleep
 521              	.LVL31:
 522              	.LBE385:
 523              	.LBE384:
 524              		.loc 1 66 0
 525 010a 3146     		mov	r1, r6
 526 010c 0522     		movs	r2, #5
 527 010e 2846     		mov	r0, r5
 528 0110 FFF7FEFF 		bl	_pal_lld_setgroupmode
 529              	.LVL32:
 530              	.LBE375:
 531              	.LBE374:
 532              	.LBB386:
 533              	.LBB387:
 534              	.LBB388:
 535              	.LBB389:
 536              		.loc 1 25 0
 537 0114 2046     		mov	r0, r4
 538              	.LBE389:
 539              	.LBE388:
 540              		.loc 1 49 0
 541 0116 3C83     		strh	r4, [r7, #24]	@ movhi
 542              	.LBB391:
 543              	.LBB390:
 544              		.loc 1 25 0
 545 0118 FFF7FEFF 		bl	chThdSleep
 546              	.LVL33:
 547              	.LBE390:
 548              	.LBE391:
 549              	.LBB392:
 550              	.LBB393:
 551 011c 2046     		mov	r0, r4
 552              	.LBE393:
 553              	.LBE392:
 554              		.loc 1 51 0
 555 011e 2E83     		strh	r6, [r5, #24]	@ movhi
 556              	.LBB395:
 557              	.LBB394:
 558              		.loc 1 25 0
 559 0120 FFF7FEFF 		bl	chThdSleep
 560              	.LVL34:
 561              	.LBE394:
 562              	.LBE395:
 563              	.LBE387:
 564              	.LBE386:
 565              	.LBB396:
 566              	.LBB397:
 567              	.LBB398:
 568              	.LBB399:
 569 0124 2046     		mov	r0, r4
 570              	.LBE399:
ARM GAS  /tmp/ccUMP9GK.s 			page 11


 571              	.LBE398:
 572              		.loc 1 41 0
 573 0126 6E83     		strh	r6, [r5, #26]	@ movhi
 574              	.LBB401:
 575              	.LBB400:
 576              		.loc 1 25 0
 577 0128 FFF7FEFF 		bl	chThdSleep
 578              	.LVL35:
 579              	.LBE400:
 580              	.LBE401:
 581              		.loc 1 43 0
 582 012c 7C83     		strh	r4, [r7, #26]	@ movhi
 583              	.LBB402:
 584              	.LBB403:
 585              		.loc 1 25 0
 586 012e 2046     		mov	r0, r4
 587 0130 FFF7FEFF 		bl	chThdSleep
 588              	.LVL36:
 589              	.LBE403:
 590              	.LBE402:
 591              	.LBE397:
 592              	.LBE396:
 593              	.LBB407:
 594              	.LBB408:
 595              		.loc 1 133 0
 596 0134 A946     		mov	r9, r5
 597              	.LBE408:
 598              	.LBE407:
 599              	.LBB433:
 600              	.LBB406:
 601              	.LBB405:
 602              	.LBB404:
 603              		.loc 1 25 0
 604 0136 0724     		movs	r4, #7
 605              	.LBE404:
 606              	.LBE405:
 607              	.LBE406:
 608              	.LBE433:
 609              	.LBB434:
 610              	.LBB431:
 611              		.loc 1 130 0
 612 0138 4FF0810A 		mov	r10, #129
 613              	.LVL37:
 614              	.L21:
 615 013c 4AFA04F3 		asr	r3, r10, r4
 616              		.loc 1 135 0
 617 0140 0126     		movs	r6, #1
 618              		.loc 1 130 0
 619 0142 DB07     		lsls	r3, r3, #31
 620              		.loc 1 131 0
 621 0144 4FF48051 		mov	r1, #4096
 622              	.LBB409:
 623              	.LBB410:
 624              		.loc 1 25 0
 625 0148 3046     		mov	r0, r6
 626              	.LBE410:
 627              	.LBE409:
ARM GAS  /tmp/ccUMP9GK.s 			page 12


 628              		.loc 1 130 0
 629 014a 40F18180 		bpl	.L22
 630              		.loc 1 131 0
 631 014e A9F81810 		strh	r1, [r9, #24]	@ movhi
 632              	.LBB413:
 633              	.LBB411:
 634              		.loc 1 25 0
 635 0152 FFF7FEFF 		bl	chThdSleep
 636              	.LVL38:
 637              	.LBE411:
 638              	.LBE413:
 639              	.LBB414:
 640              	.LBB415:
 641 0156 3046     		mov	r0, r6
 642              	.LBE415:
 643              	.LBE414:
 644              		.loc 1 135 0
 645 0158 3E83     		strh	r6, [r7, #24]	@ movhi
 646              	.LBB419:
 647              	.LBB416:
 648              		.loc 1 25 0
 649 015a FFF7FEFF 		bl	chThdSleep
 650              	.LVL39:
 651              	.LBE416:
 652              	.LBE419:
 653              	.LBB420:
 654              	.LBB421:
 655 015e 3046     		mov	r0, r6
 656 0160 FFF7FEFF 		bl	chThdSleep
 657              	.LVL40:
 658 0164 013C     		subs	r4, r4, #1
 659              	.LVL41:
 660              	.LBE421:
 661              	.LBE420:
 662              		.loc 1 138 0
 663 0166 7E83     		strh	r6, [r7, #26]	@ movhi
 664              	.LBB423:
 665              	.LBB424:
 666              		.loc 1 25 0
 667 0168 3046     		mov	r0, r6
 668 016a FFF7FEFF 		bl	chThdSleep
 669              	.LVL42:
 670              	.LBE424:
 671              	.LBE423:
 672              		.loc 1 128 0
 673 016e 621C     		adds	r2, r4, #1
 674 0170 E4D1     		bne	.L21
 675              	.L23:
 676              	.LVL43:
 677              	.LBE431:
 678              	.LBE434:
 679              	.LBB435:
 680              	.LBB436:
 681              		.loc 1 57 0
 682 0172 594E     		ldr	r6, .L41
 683              		.loc 1 59 0
 684 0174 594C     		ldr	r4, .L41+4
ARM GAS  /tmp/ccUMP9GK.s 			page 13


 685              		.loc 1 57 0
 686 0176 4FF48057 		mov	r7, #4096
 687              	.LBB437:
 688              	.LBB438:
 689              		.loc 1 25 0
 690 017a 0120     		movs	r0, #1
 691              	.LBE438:
 692              	.LBE437:
 693              		.loc 1 59 0
 694 017c 0546     		mov	r5, r0
 695              		.loc 1 57 0
 696 017e 3783     		strh	r7, [r6, #24]	@ movhi
 697              	.LBB440:
 698              	.LBB439:
 699              		.loc 1 25 0
 700 0180 FFF7FEFF 		bl	chThdSleep
 701              	.LVL44:
 702              	.LBE439:
 703              	.LBE440:
 704              	.LBB441:
 705              	.LBB442:
 706 0184 2846     		mov	r0, r5
 707              	.LBE442:
 708              	.LBE441:
 709              		.loc 1 59 0
 710 0186 2583     		strh	r5, [r4, #24]	@ movhi
 711              	.LBB444:
 712              	.LBB443:
 713              		.loc 1 25 0
 714 0188 FFF7FEFF 		bl	chThdSleep
 715              	.LVL45:
 716              	.LBE443:
 717              	.LBE444:
 718              		.loc 1 64 0
 719 018c 3946     		mov	r1, r7
 720 018e 0522     		movs	r2, #5
 721              		.loc 1 61 0
 722 0190 6583     		strh	r5, [r4, #26]	@ movhi
 723              		.loc 1 64 0
 724 0192 3046     		mov	r0, r6
 725              		.loc 1 63 0
 726 0194 3783     		strh	r7, [r6, #24]	@ movhi
 727              		.loc 1 64 0
 728 0196 FFF7FEFF 		bl	_pal_lld_setgroupmode
 729              	.LVL46:
 730              	.LBB445:
 731              	.LBB446:
 732              		.loc 1 25 0
 733 019a 2846     		mov	r0, r5
 734 019c FFF7FEFF 		bl	chThdSleep
 735              	.LVL47:
 736              	.LBE446:
 737              	.LBE445:
 738              		.loc 1 66 0
 739 01a0 3946     		mov	r1, r7
 740 01a2 3046     		mov	r0, r6
 741 01a4 0522     		movs	r2, #5
ARM GAS  /tmp/ccUMP9GK.s 			page 14


 742 01a6 FFF7FEFF 		bl	_pal_lld_setgroupmode
 743              	.LVL48:
 744              	.LBE436:
 745              	.LBE435:
 746              	.LBB447:
 747              	.LBB448:
 748              		.loc 1 105 0
 749 01aa 3783     		strh	r7, [r6, #24]	@ movhi
 750              		.loc 1 107 0
 751 01ac 3946     		mov	r1, r7
 752 01ae 3046     		mov	r0, r6
 753 01b0 0022     		movs	r2, #0
 754 01b2 FFF7FEFF 		bl	_pal_lld_setgroupmode
 755              	.LVL49:
 756              		.loc 1 112 0
 757 01b6 2F46     		mov	r7, r5	@ movhi
 758              		.loc 1 107 0
 759 01b8 4FF0070A 		mov	r10, #7
 760              		.loc 1 108 0
 761 01bc 4FF00009 		mov	r9, #0
 762              	.LVL50:
 763              	.L25:
 764              	.LBB449:
 765              	.LBB450:
 766              		.loc 1 25 0
 767 01c0 0120     		movs	r0, #1
 768              	.LBE450:
 769              	.LBE449:
 770              		.loc 1 112 0
 771 01c2 6783     		strh	r7, [r4, #26]	@ movhi
 772              		.loc 1 116 0
 773 01c4 444E     		ldr	r6, .L41
 774              	.LBB452:
 775              	.LBB451:
 776              		.loc 1 25 0
 777 01c6 FFF7FEFF 		bl	chThdSleep
 778              	.LVL51:
 779              	.LBE451:
 780              	.LBE452:
 781              	.LBB453:
 782              	.LBB454:
 783 01ca 0120     		movs	r0, #1
 784              	.LBE454:
 785              	.LBE453:
 786              		.loc 1 114 0
 787 01cc 2583     		strh	r5, [r4, #24]	@ movhi
 788              	.LBB456:
 789              	.LBB455:
 790              		.loc 1 25 0
 791 01ce FFF7FEFF 		bl	chThdSleep
 792              	.LVL52:
 793              	.LBE455:
 794              	.LBE456:
 795              		.loc 1 116 0
 796 01d2 3369     		ldr	r3, [r6, #16]
 797 01d4 C3F30033 		ubfx	r3, r3, #12, #1
 798 01d8 03FA0AF3 		lsl	r3, r3, r10
ARM GAS  /tmp/ccUMP9GK.s 			page 15


 799 01dc 43EA0903 		orr	r3, r3, r9
 800              	.LBB457:
 801              	.LBB458:
 802              		.loc 1 25 0
 803 01e0 0120     		movs	r0, #1
 804              	.LBE458:
 805              	.LBE457:
 806              		.loc 1 116 0
 807 01e2 5FFA83F9 		uxtb	r9, r3
 808              	.LVL53:
 809 01e6 0AF1FF3A 		add	r10, r10, #-1
 810              	.LVL54:
 811              	.LBB460:
 812              	.LBB459:
 813              		.loc 1 25 0
 814 01ea FFF7FEFF 		bl	chThdSleep
 815              	.LVL55:
 816              	.LBE459:
 817              	.LBE460:
 818              		.loc 1 118 0
 819 01ee 6583     		strh	r5, [r4, #26]	@ movhi
 820              	.LBB461:
 821              	.LBB462:
 822              		.loc 1 25 0
 823 01f0 0120     		movs	r0, #1
 824 01f2 FFF7FEFF 		bl	chThdSleep
 825              	.LVL56:
 826              	.LBE462:
 827              	.LBE461:
 828              		.loc 1 110 0
 829 01f6 BAF1FF3F 		cmp	r10, #-1
 830 01fa E1D1     		bne	.L25
 831              		.loc 1 121 0
 832 01fc 4FF48051 		mov	r1, #4096
 833              	.LBE448:
 834              	.LBE447:
 835              	.LBB464:
 836              	.LBB465:
 837              		.loc 1 71 0
 838 0200 0F46     		mov	r7, r1
 839              	.LBE465:
 840              	.LBE464:
 841              	.LBB485:
 842              	.LBB463:
 843              		.loc 1 121 0
 844 0202 0522     		movs	r2, #5
 845 0204 3046     		mov	r0, r6
 846 0206 FFF7FEFF 		bl	_pal_lld_setgroupmode
 847              	.LVL57:
 848              	.LBE463:
 849              	.LBE485:
 850              	.LBB486:
 851              	.LBB484:
 852              	.LBB466:
 853              	.LBB467:
 854              		.loc 1 25 0
 855 020a 0120     		movs	r0, #1
ARM GAS  /tmp/ccUMP9GK.s 			page 16


 856              	.LBE467:
 857              	.LBE466:
 858              		.loc 1 71 0
 859 020c 3783     		strh	r7, [r6, #24]	@ movhi
 860              	.LBB469:
 861              	.LBB468:
 862              		.loc 1 25 0
 863 020e FFF7FEFF 		bl	chThdSleep
 864              	.LVL58:
 865              	.LBE468:
 866              	.LBE469:
 867              	.LBB470:
 868              	.LBB471:
 869 0212 0120     		movs	r0, #1
 870              	.LBE471:
 871              	.LBE470:
 872              		.loc 1 73 0
 873 0214 2583     		strh	r5, [r4, #24]	@ movhi
 874              	.LBB473:
 875              	.LBB472:
 876              		.loc 1 25 0
 877 0216 FFF7FEFF 		bl	chThdSleep
 878              	.LVL59:
 879              	.LBE472:
 880              	.LBE473:
 881              	.LBB474:
 882              	.LBB475:
 883 021a 0120     		movs	r0, #1
 884 021c FFF7FEFF 		bl	chThdSleep
 885              	.LVL60:
 886              	.LBE475:
 887              	.LBE474:
 888              	.LBB476:
 889              	.LBB477:
 890 0220 0120     		movs	r0, #1
 891              	.LBE477:
 892              	.LBE476:
 893              		.loc 1 76 0
 894 0222 6583     		strh	r5, [r4, #26]	@ movhi
 895              	.LBB479:
 896              	.LBB478:
 897              		.loc 1 25 0
 898 0224 FFF7FEFF 		bl	chThdSleep
 899              	.LVL61:
 900              	.LBE478:
 901              	.LBE479:
 902              	.LBB480:
 903              	.LBB481:
 904 0228 0120     		movs	r0, #1
 905              	.LBE481:
 906              	.LBE480:
 907              		.loc 1 78 0
 908 022a 7783     		strh	r7, [r6, #26]	@ movhi
 909              	.LBB483:
 910              	.LBB482:
 911              		.loc 1 25 0
 912 022c FFF7FEFF 		bl	chThdSleep
ARM GAS  /tmp/ccUMP9GK.s 			page 17


 913              	.LVL62:
 914              	.LBE482:
 915              	.LBE483:
 916              	.LBE484:
 917              	.LBE486:
 918              	.LBB487:
 919              	.LBB488:
 920              	.LBB489:
 921              	.LBB490:
 922 0230 0120     		movs	r0, #1
 923              	.LBE490:
 924              	.LBE489:
 925              		.loc 1 49 0
 926 0232 2583     		strh	r5, [r4, #24]	@ movhi
 927              	.LBB492:
 928              	.LBB491:
 929              		.loc 1 25 0
 930 0234 FFF7FEFF 		bl	chThdSleep
 931              	.LVL63:
 932              	.LBE491:
 933              	.LBE492:
 934              		.loc 1 51 0
 935 0238 3783     		strh	r7, [r6, #24]	@ movhi
 936              	.LBB493:
 937              	.LBB494:
 938              		.loc 1 25 0
 939 023a 0120     		movs	r0, #1
 940 023c FFF7FEFF 		bl	chThdSleep
 941              	.LVL64:
 942              	.LBE494:
 943              	.LBE493:
 944              	.LBE488:
 945              	.LBE487:
 946              		.loc 1 176 0
 947 0240 B8F1000F 		cmp	r8, #0
 948 0244 01D0     		beq	.L26
 949              		.loc 1 177 0
 950 0246 88F80090 		strb	r9, [r8]
 951              	.L26:
 952              		.loc 1 179 0
 953 024a 0120     		movs	r0, #1
 954 024c BDE8F88F 		pop	{r3, r4, r5, r6, r7, r8, r9, r10, fp, pc}
 955              	.LVL65:
 956              	.L22:
 957              	.LBB495:
 958              	.LBB432:
 959              		.loc 1 133 0
 960 0250 A9F81A10 		strh	r1, [r9, #26]	@ movhi
 961              	.LBB426:
 962              	.LBB412:
 963              		.loc 1 25 0
 964 0254 0120     		movs	r0, #1
 965 0256 FFF7FEFF 		bl	chThdSleep
 966              	.LVL66:
 967              	.LBE412:
 968              	.LBE426:
 969              	.LBB427:
ARM GAS  /tmp/ccUMP9GK.s 			page 18


 970              	.LBB417:
 971 025a 3046     		mov	r0, r6
 972              	.LBE417:
 973              	.LBE427:
 974              		.loc 1 135 0
 975 025c 3E83     		strh	r6, [r7, #24]	@ movhi
 976              	.LBB428:
 977              	.LBB418:
 978              		.loc 1 25 0
 979 025e FFF7FEFF 		bl	chThdSleep
 980              	.LVL67:
 981              	.LBE418:
 982              	.LBE428:
 983              	.LBB429:
 984              	.LBB422:
 985 0262 3046     		mov	r0, r6
 986 0264 FFF7FEFF 		bl	chThdSleep
 987              	.LVL68:
 988 0268 013C     		subs	r4, r4, #1
 989              	.LVL69:
 990              	.LBE422:
 991              	.LBE429:
 992              		.loc 1 138 0
 993 026a 7E83     		strh	r6, [r7, #26]	@ movhi
 994              	.LBB430:
 995              	.LBB425:
 996              		.loc 1 25 0
 997 026c 3046     		mov	r0, r6
 998 026e FFF7FEFF 		bl	chThdSleep
 999              	.LVL70:
 1000              	.LBE425:
 1001              	.LBE430:
 1002              		.loc 1 128 0
 1003 0272 631C     		adds	r3, r4, #1
 1004 0274 7FF462AF 		bne	.L21
 1005 0278 7BE7     		b	.L23
 1006              	.LVL71:
 1007              	.L18:
 1008              	.LBE432:
 1009              	.LBE495:
 1010              	.LBB496:
 1011              	.LBB371:
 1012              	.LBB364:
 1013              	.LBB349:
 1014              		.loc 1 25 0
 1015 027a 0120     		movs	r0, #1
 1016              	.LBE349:
 1017              	.LBE364:
 1018              		.loc 1 133 0
 1019 027c AAF81AB0 		strh	fp, [r10, #26]	@ movhi
 1020              	.LBB365:
 1021              	.LBB350:
 1022              		.loc 1 25 0
 1023 0280 FFF7FEFF 		bl	chThdSleep
 1024              	.LVL72:
 1025              	.LBE350:
 1026              	.LBE365:
ARM GAS  /tmp/ccUMP9GK.s 			page 19


 1027              	.LBB366:
 1028              	.LBB355:
 1029 0284 3046     		mov	r0, r6
 1030              	.LBE355:
 1031              	.LBE366:
 1032              		.loc 1 135 0
 1033 0286 A9F81860 		strh	r6, [r9, #24]	@ movhi
 1034              	.LBB367:
 1035              	.LBB356:
 1036              		.loc 1 25 0
 1037 028a FFF7FEFF 		bl	chThdSleep
 1038              	.LVL73:
 1039              	.LBE356:
 1040              	.LBE367:
 1041              	.LBB368:
 1042              	.LBB360:
 1043 028e 3046     		mov	r0, r6
 1044 0290 FFF7FEFF 		bl	chThdSleep
 1045              	.LVL74:
 1046 0294 013C     		subs	r4, r4, #1
 1047              	.LVL75:
 1048              	.LBE360:
 1049              	.LBE368:
 1050              		.loc 1 138 0
 1051 0296 A9F81A60 		strh	r6, [r9, #26]	@ movhi
 1052              	.LBB369:
 1053              	.LBB363:
 1054              		.loc 1 25 0
 1055 029a 3046     		mov	r0, r6
 1056 029c FFF7FEFF 		bl	chThdSleep
 1057              	.LVL76:
 1058              	.LBE363:
 1059              	.LBE369:
 1060              		.loc 1 128 0
 1061 02a0 621C     		adds	r2, r4, #1
 1062 02a2 7FF400AF 		bne	.L17
 1063 02a6 19E7     		b	.L19
 1064              	.LVL77:
 1065              	.L14:
 1066              	.LBE371:
 1067              	.LBE496:
 1068              	.LBB497:
 1069              	.LBB328:
 1070              		.loc 1 133 0
 1071 02a8 AAF81A10 		strh	r1, [r10, #26]	@ movhi
 1072              	.LBB322:
 1073              	.LBB308:
 1074              		.loc 1 25 0
 1075 02ac 0120     		movs	r0, #1
 1076 02ae FFF7FEFF 		bl	chThdSleep
 1077              	.LVL78:
 1078              	.LBE308:
 1079              	.LBE322:
 1080              	.LBB323:
 1081              	.LBB313:
 1082 02b2 3046     		mov	r0, r6
 1083              	.LBE313:
ARM GAS  /tmp/ccUMP9GK.s 			page 20


 1084              	.LBE323:
 1085              		.loc 1 135 0
 1086 02b4 A9F81860 		strh	r6, [r9, #24]	@ movhi
 1087              	.LBB324:
 1088              	.LBB314:
 1089              		.loc 1 25 0
 1090 02b8 FFF7FEFF 		bl	chThdSleep
 1091              	.LVL79:
 1092              	.LBE314:
 1093              	.LBE324:
 1094              	.LBB325:
 1095              	.LBB318:
 1096 02bc 3046     		mov	r0, r6
 1097 02be FFF7FEFF 		bl	chThdSleep
 1098              	.LVL80:
 1099 02c2 013C     		subs	r4, r4, #1
 1100              	.LVL81:
 1101              	.LBE318:
 1102              	.LBE325:
 1103              		.loc 1 138 0
 1104 02c4 A9F81A60 		strh	r6, [r9, #26]	@ movhi
 1105              	.LBB326:
 1106              	.LBB321:
 1107              		.loc 1 25 0
 1108 02c8 3046     		mov	r0, r6
 1109 02ca FFF7FEFF 		bl	chThdSleep
 1110              	.LVL82:
 1111              	.LBE321:
 1112              	.LBE326:
 1113              		.loc 1 128 0
 1114 02ce 621C     		adds	r2, r4, #1
 1115 02d0 7FF4ABAE 		bne	.L13
 1116 02d4 C6E6     		b	.L15
 1117              	.L42:
 1118 02d6 00BF     		.align	2
 1119              	.L41:
 1120 02d8 001C0240 		.word	1073880064
 1121 02dc 00200240 		.word	1073881088
 1122              	.LBE328:
 1123              	.LBE497:
 1124              		.cfi_endproc
 1125              	.LFE823:
 1126              		.size	_Z17swi2c_readByte_A8hhPh.constprop.3, .-_Z17swi2c_readByte_A8hhPh.constprop.3
 1127              		.section	.text._Z7__delayv,"ax",%progbits
 1128              		.align	1
 1129              		.p2align 2,,3
 1130              		.global	_Z7__delayv
 1131              		.syntax unified
 1132              		.thumb
 1133              		.thumb_func
 1134              		.fpu fpv4-sp-d16
 1135              		.type	_Z7__delayv, %function
 1136              	_Z7__delayv:
 1137              	.LFB780:
 1138              		.loc 1 24 0
 1139              		.cfi_startproc
 1140              		@ args = 0, pretend = 0, frame = 0
ARM GAS  /tmp/ccUMP9GK.s 			page 21


 1141              		@ frame_needed = 0, uses_anonymous_args = 0
 1142              		@ link register save eliminated.
 1143              		.loc 1 25 0
 1144 0000 0120     		movs	r0, #1
 1145 0002 FFF7FEBF 		b	chThdSleep
 1146              	.LVL83:
 1147              		.cfi_endproc
 1148              	.LFE780:
 1149              		.size	_Z7__delayv, .-_Z7__delayv
 1150 0006 00BF     		.section	.text._Z10swi2c_initv,"ax",%progbits
 1151              		.align	1
 1152              		.p2align 2,,3
 1153              		.global	_Z10swi2c_initv
 1154              		.syntax unified
 1155              		.thumb
 1156              		.thumb_func
 1157              		.fpu fpv4-sp-d16
 1158              		.type	_Z10swi2c_initv, %function
 1159              	_Z10swi2c_initv:
 1160              	.LFB781:
 1161              		.loc 1 29 0
 1162              		.cfi_startproc
 1163              		@ args = 0, pretend = 0, frame = 0
 1164              		@ frame_needed = 0, uses_anonymous_args = 0
 1165 0000 38B5     		push	{r3, r4, r5, lr}
 1166              		.cfi_def_cfa_offset 16
 1167              		.cfi_offset 3, -16
 1168              		.cfi_offset 4, -12
 1169              		.cfi_offset 5, -8
 1170              		.cfi_offset 14, -4
 1171              		.loc 1 30 0
 1172 0002 0D4C     		ldr	r4, .L48
 1173              		.loc 1 31 0
 1174 0004 0D4D     		ldr	r5, .L48+4
 1175              		.loc 1 30 0
 1176 0006 2046     		mov	r0, r4
 1177 0008 0522     		movs	r2, #5
 1178 000a 4FF48051 		mov	r1, #4096
 1179 000e FFF7FEFF 		bl	_pal_lld_setgroupmode
 1180              	.LVL84:
 1181              		.loc 1 31 0
 1182 0012 0522     		movs	r2, #5
 1183 0014 2846     		mov	r0, r5
 1184 0016 0121     		movs	r1, #1
 1185 0018 FFF7FEFF 		bl	_pal_lld_setgroupmode
 1186              	.LVL85:
 1187              		.loc 1 32 0
 1188 001c 4FF48052 		mov	r2, #4096
 1189              		.loc 1 33 0
 1190 0020 0123     		movs	r3, #1
 1191              		.loc 1 32 0
 1192 0022 2283     		strh	r2, [r4, #24]	@ movhi
 1193              		.loc 1 33 0
 1194 0024 6424     		movs	r4, #100
 1195 0026 2B83     		strh	r3, [r5, #24]	@ movhi
 1196              	.LVL86:
 1197              	.L45:
ARM GAS  /tmp/ccUMP9GK.s 			page 22


 1198              	.LBB498:
 1199              	.LBB499:
 1200              		.loc 1 25 0
 1201 0028 0120     		movs	r0, #1
 1202 002a FFF7FEFF 		bl	chThdSleep
 1203              	.LVL87:
 1204 002e 631E     		subs	r3, r4, #1
 1205              	.LBE499:
 1206              	.LBE498:
 1207              		.loc 1 35 0
 1208 0030 13F0FF04 		ands	r4, r3, #255
 1209 0034 F8D1     		bne	.L45
 1210              		.loc 1 37 0
 1211 0036 38BD     		pop	{r3, r4, r5, pc}
 1212              	.L49:
 1213              		.align	2
 1214              	.L48:
 1215 0038 001C0240 		.word	1073880064
 1216 003c 00200240 		.word	1073881088
 1217              		.cfi_endproc
 1218              	.LFE781:
 1219              		.size	_Z10swi2c_initv, .-_Z10swi2c_initv
 1220              		.section	.text._Z11swi2c_startv,"ax",%progbits
 1221              		.align	1
 1222              		.p2align 2,,3
 1223              		.global	_Z11swi2c_startv
 1224              		.syntax unified
 1225              		.thumb
 1226              		.thumb_func
 1227              		.fpu fpv4-sp-d16
 1228              		.type	_Z11swi2c_startv, %function
 1229              	_Z11swi2c_startv:
 1230              	.LFB782:
 1231              		.loc 1 40 0
 1232              		.cfi_startproc
 1233              		@ args = 0, pretend = 0, frame = 0
 1234              		@ frame_needed = 0, uses_anonymous_args = 0
 1235 0000 08B5     		push	{r3, lr}
 1236              		.cfi_def_cfa_offset 8
 1237              		.cfi_offset 3, -8
 1238              		.cfi_offset 14, -4
 1239              		.loc 1 41 0
 1240 0002 074B     		ldr	r3, .L52
 1241 0004 4FF48052 		mov	r2, #4096
 1242 0008 5A83     		strh	r2, [r3, #26]	@ movhi
 1243              	.LBB504:
 1244              	.LBB505:
 1245              		.loc 1 25 0
 1246 000a 0120     		movs	r0, #1
 1247 000c FFF7FEFF 		bl	chThdSleep
 1248              	.LVL88:
 1249              	.LBE505:
 1250              	.LBE504:
 1251              		.loc 1 43 0
 1252 0010 044B     		ldr	r3, .L52+4
 1253 0012 0120     		movs	r0, #1
 1254 0014 5883     		strh	r0, [r3, #26]	@ movhi
ARM GAS  /tmp/ccUMP9GK.s 			page 23


 1255              		.loc 1 45 0
 1256 0016 BDE80840 		pop	{r3, lr}
 1257              		.cfi_restore 14
 1258              		.cfi_restore 3
 1259              		.cfi_def_cfa_offset 0
 1260              	.LBB506:
 1261              	.LBB507:
 1262              		.loc 1 25 0
 1263 001a FFF7FEBF 		b	chThdSleep
 1264              	.LVL89:
 1265              	.L53:
 1266 001e 00BF     		.align	2
 1267              	.L52:
 1268 0020 001C0240 		.word	1073880064
 1269 0024 00200240 		.word	1073881088
 1270              	.LBE507:
 1271              	.LBE506:
 1272              		.cfi_endproc
 1273              	.LFE782:
 1274              		.size	_Z11swi2c_startv, .-_Z11swi2c_startv
 1275              		.section	.text._Z10swi2c_stopv,"ax",%progbits
 1276              		.align	1
 1277              		.p2align 2,,3
 1278              		.global	_Z10swi2c_stopv
 1279              		.syntax unified
 1280              		.thumb
 1281              		.thumb_func
 1282              		.fpu fpv4-sp-d16
 1283              		.type	_Z10swi2c_stopv, %function
 1284              	_Z10swi2c_stopv:
 1285              	.LFB783:
 1286              		.loc 1 48 0
 1287              		.cfi_startproc
 1288              		@ args = 0, pretend = 0, frame = 0
 1289              		@ frame_needed = 0, uses_anonymous_args = 0
 1290 0000 10B5     		push	{r4, lr}
 1291              		.cfi_def_cfa_offset 8
 1292              		.cfi_offset 4, -8
 1293              		.cfi_offset 14, -4
 1294              		.loc 1 49 0
 1295 0002 074B     		ldr	r3, .L56
 1296 0004 0124     		movs	r4, #1
 1297 0006 1C83     		strh	r4, [r3, #24]	@ movhi
 1298              	.LBB512:
 1299              	.LBB513:
 1300              		.loc 1 25 0
 1301 0008 2046     		mov	r0, r4
 1302 000a FFF7FEFF 		bl	chThdSleep
 1303              	.LVL90:
 1304              	.LBE513:
 1305              	.LBE512:
 1306              		.loc 1 51 0
 1307 000e 054B     		ldr	r3, .L56+4
 1308 0010 4FF48052 		mov	r2, #4096
 1309              	.LBB514:
 1310              	.LBB515:
 1311              		.loc 1 25 0
ARM GAS  /tmp/ccUMP9GK.s 			page 24


 1312 0014 2046     		mov	r0, r4
 1313              	.LBE515:
 1314              	.LBE514:
 1315              		.loc 1 51 0
 1316 0016 1A83     		strh	r2, [r3, #24]	@ movhi
 1317              		.loc 1 53 0
 1318 0018 BDE81040 		pop	{r4, lr}
 1319              		.cfi_restore 14
 1320              		.cfi_restore 4
 1321              		.cfi_def_cfa_offset 0
 1322              	.LBB517:
 1323              	.LBB516:
 1324              		.loc 1 25 0
 1325 001c FFF7FEBF 		b	chThdSleep
 1326              	.LVL91:
 1327              	.L57:
 1328              		.align	2
 1329              	.L56:
 1330 0020 00200240 		.word	1073881088
 1331 0024 001C0240 		.word	1073880064
 1332              	.LBE516:
 1333              	.LBE517:
 1334              		.cfi_endproc
 1335              	.LFE783:
 1336              		.size	_Z10swi2c_stopv, .-_Z10swi2c_stopv
 1337              		.section	.text._Z9swi2c_ackv,"ax",%progbits
 1338              		.align	1
 1339              		.p2align 2,,3
 1340              		.global	_Z9swi2c_ackv
 1341              		.syntax unified
 1342              		.thumb
 1343              		.thumb_func
 1344              		.fpu fpv4-sp-d16
 1345              		.type	_Z9swi2c_ackv, %function
 1346              	_Z9swi2c_ackv:
 1347              	.LFB784:
 1348              		.loc 1 56 0
 1349              		.cfi_startproc
 1350              		@ args = 0, pretend = 0, frame = 0
 1351              		@ frame_needed = 0, uses_anonymous_args = 0
 1352 0000 F8B5     		push	{r3, r4, r5, r6, r7, lr}
 1353              		.cfi_def_cfa_offset 24
 1354              		.cfi_offset 3, -24
 1355              		.cfi_offset 4, -20
 1356              		.cfi_offset 5, -16
 1357              		.cfi_offset 6, -12
 1358              		.cfi_offset 7, -8
 1359              		.cfi_offset 14, -4
 1360              		.loc 1 57 0
 1361 0002 0F4C     		ldr	r4, .L60
 1362              		.loc 1 59 0
 1363 0004 0F4F     		ldr	r7, .L60+4
 1364              		.loc 1 57 0
 1365 0006 4FF48055 		mov	r5, #4096
 1366              	.LBB524:
 1367              	.LBB525:
 1368              		.loc 1 25 0
ARM GAS  /tmp/ccUMP9GK.s 			page 25


 1369 000a 0120     		movs	r0, #1
 1370              	.LBE525:
 1371              	.LBE524:
 1372              		.loc 1 59 0
 1373 000c 0646     		mov	r6, r0
 1374              		.loc 1 57 0
 1375 000e 2583     		strh	r5, [r4, #24]	@ movhi
 1376              	.LBB527:
 1377              	.LBB526:
 1378              		.loc 1 25 0
 1379 0010 FFF7FEFF 		bl	chThdSleep
 1380              	.LVL92:
 1381              	.LBE526:
 1382              	.LBE527:
 1383              	.LBB528:
 1384              	.LBB529:
 1385 0014 3046     		mov	r0, r6
 1386              	.LBE529:
 1387              	.LBE528:
 1388              		.loc 1 59 0
 1389 0016 3E83     		strh	r6, [r7, #24]	@ movhi
 1390              	.LBB531:
 1391              	.LBB530:
 1392              		.loc 1 25 0
 1393 0018 FFF7FEFF 		bl	chThdSleep
 1394              	.LVL93:
 1395              	.LBE530:
 1396              	.LBE531:
 1397              		.loc 1 64 0
 1398 001c 2946     		mov	r1, r5
 1399              		.loc 1 61 0
 1400 001e 7E83     		strh	r6, [r7, #26]	@ movhi
 1401              		.loc 1 64 0
 1402 0020 2046     		mov	r0, r4
 1403 0022 0522     		movs	r2, #5
 1404              		.loc 1 63 0
 1405 0024 2583     		strh	r5, [r4, #24]	@ movhi
 1406              		.loc 1 64 0
 1407 0026 FFF7FEFF 		bl	_pal_lld_setgroupmode
 1408              	.LVL94:
 1409              	.LBB532:
 1410              	.LBB533:
 1411              		.loc 1 25 0
 1412 002a 3046     		mov	r0, r6
 1413 002c FFF7FEFF 		bl	chThdSleep
 1414              	.LVL95:
 1415              	.LBE533:
 1416              	.LBE532:
 1417              		.loc 1 66 0
 1418 0030 2946     		mov	r1, r5
 1419 0032 2046     		mov	r0, r4
 1420 0034 0522     		movs	r2, #5
 1421              		.loc 1 67 0
 1422 0036 BDE8F840 		pop	{r3, r4, r5, r6, r7, lr}
 1423              		.cfi_restore 14
 1424              		.cfi_restore 7
 1425              		.cfi_restore 6
ARM GAS  /tmp/ccUMP9GK.s 			page 26


 1426              		.cfi_restore 5
 1427              		.cfi_restore 4
 1428              		.cfi_restore 3
 1429              		.cfi_def_cfa_offset 0
 1430              		.loc 1 66 0
 1431 003a FFF7FEBF 		b	_pal_lld_setgroupmode
 1432              	.LVL96:
 1433              	.L61:
 1434 003e 00BF     		.align	2
 1435              	.L60:
 1436 0040 001C0240 		.word	1073880064
 1437 0044 00200240 		.word	1073881088
 1438              		.cfi_endproc
 1439              	.LFE784:
 1440              		.size	_Z9swi2c_ackv, .-_Z9swi2c_ackv
 1441              		.section	.text._Z10swi2c_nackv,"ax",%progbits
 1442              		.align	1
 1443              		.p2align 2,,3
 1444              		.global	_Z10swi2c_nackv
 1445              		.syntax unified
 1446              		.thumb
 1447              		.thumb_func
 1448              		.fpu fpv4-sp-d16
 1449              		.type	_Z10swi2c_nackv, %function
 1450              	_Z10swi2c_nackv:
 1451              	.LFB785:
 1452              		.loc 1 70 0
 1453              		.cfi_startproc
 1454              		@ args = 0, pretend = 0, frame = 0
 1455              		@ frame_needed = 0, uses_anonymous_args = 0
 1456 0000 F8B5     		push	{r3, r4, r5, r6, r7, lr}
 1457              		.cfi_def_cfa_offset 24
 1458              		.cfi_offset 3, -24
 1459              		.cfi_offset 4, -20
 1460              		.cfi_offset 5, -16
 1461              		.cfi_offset 6, -12
 1462              		.cfi_offset 7, -8
 1463              		.cfi_offset 14, -4
 1464              		.loc 1 71 0
 1465 0002 0D4D     		ldr	r5, .L64
 1466              		.loc 1 73 0
 1467 0004 0D4F     		ldr	r7, .L64+4
 1468              		.loc 1 71 0
 1469 0006 4FF48056 		mov	r6, #4096
 1470              	.LBB544:
 1471              	.LBB545:
 1472              		.loc 1 25 0
 1473 000a 0120     		movs	r0, #1
 1474              	.LBE545:
 1475              	.LBE544:
 1476              		.loc 1 73 0
 1477 000c 0446     		mov	r4, r0
 1478              		.loc 1 71 0
 1479 000e 2E83     		strh	r6, [r5, #24]	@ movhi
 1480              	.LBB547:
 1481              	.LBB546:
 1482              		.loc 1 25 0
ARM GAS  /tmp/ccUMP9GK.s 			page 27


 1483 0010 FFF7FEFF 		bl	chThdSleep
 1484              	.LVL97:
 1485              	.LBE546:
 1486              	.LBE547:
 1487              	.LBB548:
 1488              	.LBB549:
 1489 0014 2046     		mov	r0, r4
 1490              	.LBE549:
 1491              	.LBE548:
 1492              		.loc 1 73 0
 1493 0016 3C83     		strh	r4, [r7, #24]	@ movhi
 1494              	.LBB551:
 1495              	.LBB550:
 1496              		.loc 1 25 0
 1497 0018 FFF7FEFF 		bl	chThdSleep
 1498              	.LVL98:
 1499              	.LBE550:
 1500              	.LBE551:
 1501              	.LBB552:
 1502              	.LBB553:
 1503 001c 2046     		mov	r0, r4
 1504 001e FFF7FEFF 		bl	chThdSleep
 1505              	.LVL99:
 1506              	.LBE553:
 1507              	.LBE552:
 1508              	.LBB554:
 1509              	.LBB555:
 1510 0022 2046     		mov	r0, r4
 1511              	.LBE555:
 1512              	.LBE554:
 1513              		.loc 1 76 0
 1514 0024 7C83     		strh	r4, [r7, #26]	@ movhi
 1515              	.LBB557:
 1516              	.LBB556:
 1517              		.loc 1 25 0
 1518 0026 FFF7FEFF 		bl	chThdSleep
 1519              	.LVL100:
 1520              	.LBE556:
 1521              	.LBE557:
 1522              		.loc 1 78 0
 1523 002a 6E83     		strh	r6, [r5, #26]	@ movhi
 1524              	.LBB558:
 1525              	.LBB559:
 1526              		.loc 1 25 0
 1527 002c 2046     		mov	r0, r4
 1528              	.LBE559:
 1529              	.LBE558:
 1530              		.loc 1 80 0
 1531 002e BDE8F840 		pop	{r3, r4, r5, r6, r7, lr}
 1532              		.cfi_restore 14
 1533              		.cfi_restore 7
 1534              		.cfi_restore 6
 1535              		.cfi_restore 5
 1536              		.cfi_restore 4
 1537              		.cfi_restore 3
 1538              		.cfi_def_cfa_offset 0
 1539              	.LBB561:
ARM GAS  /tmp/ccUMP9GK.s 			page 28


 1540              	.LBB560:
 1541              		.loc 1 25 0
 1542 0032 FFF7FEBF 		b	chThdSleep
 1543              	.LVL101:
 1544              	.L65:
 1545 0036 00BF     		.align	2
 1546              	.L64:
 1547 0038 001C0240 		.word	1073880064
 1548 003c 00200240 		.word	1073881088
 1549              	.LBE560:
 1550              	.LBE561:
 1551              		.cfi_endproc
 1552              	.LFE785:
 1553              		.size	_Z10swi2c_nackv, .-_Z10swi2c_nackv
 1554              		.section	.text._Z14swi2c_wait_ackv,"ax",%progbits
 1555              		.align	1
 1556              		.p2align 2,,3
 1557              		.global	_Z14swi2c_wait_ackv
 1558              		.syntax unified
 1559              		.thumb
 1560              		.thumb_func
 1561              		.fpu fpv4-sp-d16
 1562              		.type	_Z14swi2c_wait_ackv, %function
 1563              	_Z14swi2c_wait_ackv:
 1564              	.LFB786:
 1565              		.loc 1 83 0
 1566              		.cfi_startproc
 1567              		@ args = 0, pretend = 0, frame = 0
 1568              		@ frame_needed = 0, uses_anonymous_args = 0
 1569 0000 70B5     		push	{r4, r5, r6, lr}
 1570              		.cfi_def_cfa_offset 16
 1571              		.cfi_offset 4, -16
 1572              		.cfi_offset 5, -12
 1573              		.cfi_offset 6, -8
 1574              		.cfi_offset 14, -4
 1575              		.loc 1 84 0
 1576 0002 214E     		ldr	r6, .L76
 1577 0004 0022     		movs	r2, #0
 1578 0006 4FF48051 		mov	r1, #4096
 1579 000a 3046     		mov	r0, r6
 1580 000c FFF7FEFF 		bl	_pal_lld_setgroupmode
 1581              	.LVL102:
 1582              	.LBB574:
 1583              	.LBB575:
 1584              		.loc 1 25 0
 1585 0010 0120     		movs	r0, #1
 1586 0012 FFF7FEFF 		bl	chThdSleep
 1587              	.LVL103:
 1588              	.LBE575:
 1589              	.LBE574:
 1590              	.LBB576:
 1591              	.LBB577:
 1592 0016 0120     		movs	r0, #1
 1593 0018 FFF7FEFF 		bl	chThdSleep
 1594              	.LVL104:
 1595              	.LBE577:
 1596              	.LBE576:
ARM GAS  /tmp/ccUMP9GK.s 			page 29


 1597              		.loc 1 88 0
 1598 001c 1B4B     		ldr	r3, .L76+4
 1599 001e 0122     		movs	r2, #1
 1600 0020 1A83     		strh	r2, [r3, #24]	@ movhi
 1601              	.LVL105:
 1602              		.loc 1 92 0
 1603 0022 3369     		ldr	r3, [r6, #16]
 1604 0024 1B0B     		lsrs	r3, r3, #12
 1605              	.LVL106:
 1606 0026 D907     		lsls	r1, r3, #31
 1607 0028 48BF     		it	mi
 1608 002a 4FF40064 		movmi	r4, #2048
 1609 002e 01D4     		bmi	.L67
 1610 0030 25E0     		b	.L75
 1611              	.LVL107:
 1612              	.L69:
 1613              		.loc 1 92 0 is_stmt 0 discriminator 1
 1614 0032 64B1     		cbz	r4, .L68
 1615              	.LVL108:
 1616              	.L67:
 1617              	.LBB578:
 1618              	.LBB579:
 1619              		.loc 1 25 0 is_stmt 1
 1620 0034 0120     		movs	r0, #1
 1621 0036 FFF7FEFF 		bl	chThdSleep
 1622              	.LVL109:
 1623              	.LBE579:
 1624              	.LBE578:
 1625              		.loc 1 92 0
 1626 003a 3369     		ldr	r3, [r6, #16]
 1627 003c 1B0B     		lsrs	r3, r3, #12
 1628 003e DA43     		mvns	r2, r3
 1629 0040 013C     		subs	r4, r4, #1
 1630 0042 13F0010F 		tst	r3, #1
 1631 0046 02F00105 		and	r5, r2, #1
 1632              	.LVL110:
 1633 004a A4B2     		uxth	r4, r4
 1634 004c F1D1     		bne	.L69
 1635              	.LVL111:
 1636              	.L68:
 1637              		.loc 1 94 0 discriminator 4
 1638 004e 0F4B     		ldr	r3, .L76+4
 1639              		.loc 1 96 0 discriminator 4
 1640 0050 0D4E     		ldr	r6, .L76
 1641              		.loc 1 94 0 discriminator 4
 1642 0052 0124     		movs	r4, #1
 1643 0054 5C83     		strh	r4, [r3, #26]	@ movhi
 1644              	.LBB580:
 1645              	.LBB581:
 1646              		.loc 1 25 0 discriminator 4
 1647 0056 2046     		mov	r0, r4
 1648 0058 FFF7FEFF 		bl	chThdSleep
 1649              	.LVL112:
 1650              	.LBE581:
 1651              	.LBE580:
 1652              		.loc 1 96 0 discriminator 4
 1653 005c 0522     		movs	r2, #5
ARM GAS  /tmp/ccUMP9GK.s 			page 30


 1654 005e 4FF48051 		mov	r1, #4096
 1655 0062 3046     		mov	r0, r6
 1656 0064 FFF7FEFF 		bl	_pal_lld_setgroupmode
 1657              	.LVL113:
 1658              	.LBB582:
 1659              	.LBB583:
 1660              		.loc 1 25 0 discriminator 4
 1661 0068 2046     		mov	r0, r4
 1662 006a FFF7FEFF 		bl	chThdSleep
 1663              	.LVL114:
 1664              	.LBE583:
 1665              	.LBE582:
 1666              		.loc 1 98 0 discriminator 4
 1667 006e 4FF48053 		mov	r3, #4096
 1668              	.LBB584:
 1669              	.LBB585:
 1670              		.loc 1 25 0 discriminator 4
 1671 0072 2046     		mov	r0, r4
 1672              	.LBE585:
 1673              	.LBE584:
 1674              		.loc 1 98 0 discriminator 4
 1675 0074 7383     		strh	r3, [r6, #26]	@ movhi
 1676              	.LBB587:
 1677              	.LBB586:
 1678              		.loc 1 25 0 discriminator 4
 1679 0076 FFF7FEFF 		bl	chThdSleep
 1680              	.LVL115:
 1681              	.LBE586:
 1682              	.LBE587:
 1683              		.loc 1 101 0 discriminator 4
 1684 007a 2846     		mov	r0, r5
 1685 007c 70BD     		pop	{r4, r5, r6, pc}
 1686              	.LVL116:
 1687              	.L75:
 1688              		.loc 1 92 0
 1689 007e DB43     		mvns	r3, r3
 1690              	.LVL117:
 1691 0080 03EA0205 		and	r5, r3, r2
 1692 0084 E3E7     		b	.L68
 1693              	.L77:
 1694 0086 00BF     		.align	2
 1695              	.L76:
 1696 0088 001C0240 		.word	1073880064
 1697 008c 00200240 		.word	1073881088
 1698              		.cfi_endproc
 1699              	.LFE786:
 1700              		.size	_Z14swi2c_wait_ackv, .-_Z14swi2c_wait_ackv
 1701              		.section	.text._Z10swi2c_readv,"ax",%progbits
 1702              		.align	1
 1703              		.p2align 2,,3
 1704              		.global	_Z10swi2c_readv
 1705              		.syntax unified
 1706              		.thumb
 1707              		.thumb_func
 1708              		.fpu fpv4-sp-d16
 1709              		.type	_Z10swi2c_readv, %function
 1710              	_Z10swi2c_readv:
ARM GAS  /tmp/ccUMP9GK.s 			page 31


 1711              	.LFB787:
 1712              		.loc 1 104 0
 1713              		.cfi_startproc
 1714              		@ args = 0, pretend = 0, frame = 0
 1715              		@ frame_needed = 0, uses_anonymous_args = 0
 1716              		.loc 1 105 0
 1717 0000 1B48     		ldr	r0, .L82
 1718 0002 4FF48051 		mov	r1, #4096
 1719              		.loc 1 104 0
 1720 0006 2DE9F843 		push	{r3, r4, r5, r6, r7, r8, r9, lr}
 1721              		.cfi_def_cfa_offset 32
 1722              		.cfi_offset 3, -32
 1723              		.cfi_offset 4, -28
 1724              		.cfi_offset 5, -24
 1725              		.cfi_offset 6, -20
 1726              		.cfi_offset 7, -16
 1727              		.cfi_offset 8, -12
 1728              		.cfi_offset 9, -8
 1729              		.cfi_offset 14, -4
 1730              		.loc 1 107 0
 1731 000a 0022     		movs	r2, #0
 1732              		.loc 1 105 0
 1733 000c 0183     		strh	r1, [r0, #24]	@ movhi
 1734              		.loc 1 107 0
 1735 000e FFF7FEFF 		bl	_pal_lld_setgroupmode
 1736              	.LVL118:
 1737              		.loc 1 112 0
 1738 0012 0125     		movs	r5, #1
 1739 0014 174C     		ldr	r4, .L82+4
 1740 0016 2F46     		mov	r7, r5	@ movhi
 1741              		.loc 1 107 0
 1742 0018 4FF00709 		mov	r9, #7
 1743              		.loc 1 108 0
 1744 001c 4FF00008 		mov	r8, #0
 1745              	.LVL119:
 1746              	.L79:
 1747              	.LBB596:
 1748              	.LBB597:
 1749              		.loc 1 25 0
 1750 0020 0120     		movs	r0, #1
 1751              	.LBE597:
 1752              	.LBE596:
 1753              		.loc 1 112 0
 1754 0022 6783     		strh	r7, [r4, #26]	@ movhi
 1755              		.loc 1 116 0
 1756 0024 124E     		ldr	r6, .L82
 1757              	.LBB599:
 1758              	.LBB598:
 1759              		.loc 1 25 0
 1760 0026 FFF7FEFF 		bl	chThdSleep
 1761              	.LVL120:
 1762              	.LBE598:
 1763              	.LBE599:
 1764              	.LBB600:
 1765              	.LBB601:
 1766 002a 0120     		movs	r0, #1
 1767              	.LBE601:
ARM GAS  /tmp/ccUMP9GK.s 			page 32


 1768              	.LBE600:
 1769              		.loc 1 114 0
 1770 002c 2583     		strh	r5, [r4, #24]	@ movhi
 1771              	.LBB603:
 1772              	.LBB602:
 1773              		.loc 1 25 0
 1774 002e FFF7FEFF 		bl	chThdSleep
 1775              	.LVL121:
 1776              	.LBE602:
 1777              	.LBE603:
 1778              		.loc 1 116 0
 1779 0032 3369     		ldr	r3, [r6, #16]
 1780 0034 C3F30033 		ubfx	r3, r3, #12, #1
 1781 0038 03FA09F3 		lsl	r3, r3, r9
 1782 003c 43EA0803 		orr	r3, r3, r8
 1783              	.LBB604:
 1784              	.LBB605:
 1785              		.loc 1 25 0
 1786 0040 0120     		movs	r0, #1
 1787              	.LBE605:
 1788              	.LBE604:
 1789              		.loc 1 116 0
 1790 0042 5FFA83F8 		uxtb	r8, r3
 1791              	.LVL122:
 1792 0046 09F1FF39 		add	r9, r9, #-1
 1793              	.LVL123:
 1794              	.LBB607:
 1795              	.LBB606:
 1796              		.loc 1 25 0
 1797 004a FFF7FEFF 		bl	chThdSleep
 1798              	.LVL124:
 1799              	.LBE606:
 1800              	.LBE607:
 1801              		.loc 1 118 0
 1802 004e 6583     		strh	r5, [r4, #26]	@ movhi
 1803              	.LBB608:
 1804              	.LBB609:
 1805              		.loc 1 25 0
 1806 0050 0120     		movs	r0, #1
 1807 0052 FFF7FEFF 		bl	chThdSleep
 1808              	.LVL125:
 1809              	.LBE609:
 1810              	.LBE608:
 1811              		.loc 1 110 0
 1812 0056 B9F1FF3F 		cmp	r9, #-1
 1813 005a E1D1     		bne	.L79
 1814              		.loc 1 121 0
 1815 005c 3046     		mov	r0, r6
 1816 005e 0522     		movs	r2, #5
 1817 0060 4FF48051 		mov	r1, #4096
 1818 0064 FFF7FEFF 		bl	_pal_lld_setgroupmode
 1819              	.LVL126:
 1820              		.loc 1 123 0
 1821 0068 4046     		mov	r0, r8
 1822 006a BDE8F883 		pop	{r3, r4, r5, r6, r7, r8, r9, pc}
 1823              	.LVL127:
 1824              	.L83:
ARM GAS  /tmp/ccUMP9GK.s 			page 33


 1825 006e 00BF     		.align	2
 1826              	.L82:
 1827 0070 001C0240 		.word	1073880064
 1828 0074 00200240 		.word	1073881088
 1829              		.cfi_endproc
 1830              	.LFE787:
 1831              		.size	_Z10swi2c_readv, .-_Z10swi2c_readv
 1832              		.section	.text._Z11swi2c_writeh,"ax",%progbits
 1833              		.align	1
 1834              		.p2align 2,,3
 1835              		.global	_Z11swi2c_writeh
 1836              		.syntax unified
 1837              		.thumb
 1838              		.thumb_func
 1839              		.fpu fpv4-sp-d16
 1840              		.type	_Z11swi2c_writeh, %function
 1841              	_Z11swi2c_writeh:
 1842              	.LFB788:
 1843              		.loc 1 126 0
 1844              		.cfi_startproc
 1845              		@ args = 0, pretend = 0, frame = 0
 1846              		@ frame_needed = 0, uses_anonymous_args = 0
 1847              	.LVL128:
 1848 0000 2DE9F047 		push	{r4, r5, r6, r7, r8, r9, r10, lr}
 1849              		.cfi_def_cfa_offset 32
 1850              		.cfi_offset 4, -32
 1851              		.cfi_offset 5, -28
 1852              		.cfi_offset 6, -24
 1853              		.cfi_offset 7, -20
 1854              		.cfi_offset 8, -16
 1855              		.cfi_offset 9, -12
 1856              		.cfi_offset 10, -8
 1857              		.cfi_offset 14, -4
 1858              		.loc 1 133 0
 1859 0004 DFF86CA0 		ldr	r10, .L93+4
 1860              		.loc 1 135 0
 1861 0008 194F     		ldr	r7, .L93
 1862              		.loc 1 126 0
 1863 000a 8146     		mov	r9, r0
 1864 000c 0724     		movs	r4, #7
 1865              		.loc 1 133 0
 1866 000e 4FF48058 		mov	r8, #4096
 1867              	.LVL129:
 1868              	.L85:
 1869              		.loc 1 130 0
 1870 0012 49FA04F3 		asr	r3, r9, r4
 1871              		.loc 1 135 0
 1872 0016 0126     		movs	r6, #1
 1873              		.loc 1 130 0
 1874 0018 D907     		lsls	r1, r3, #31
 1875              	.LBB618:
 1876              	.LBB619:
 1877              		.loc 1 25 0
 1878 001a 3046     		mov	r0, r6
 1879              	.LBE619:
 1880              	.LBE618:
 1881              		.loc 1 130 0
ARM GAS  /tmp/ccUMP9GK.s 			page 34


 1882 001c 13D5     		bpl	.L86
 1883              		.loc 1 131 0
 1884 001e AAF81880 		strh	r8, [r10, #24]	@ movhi
 1885              	.LBB623:
 1886              	.LBB620:
 1887              		.loc 1 25 0
 1888 0022 FFF7FEFF 		bl	chThdSleep
 1889              	.LVL130:
 1890              	.LBE620:
 1891              	.LBE623:
 1892              	.LBB624:
 1893              	.LBB625:
 1894 0026 3046     		mov	r0, r6
 1895              	.LBE625:
 1896              	.LBE624:
 1897              		.loc 1 135 0
 1898 0028 3E83     		strh	r6, [r7, #24]	@ movhi
 1899              	.LBB629:
 1900              	.LBB626:
 1901              		.loc 1 25 0
 1902 002a FFF7FEFF 		bl	chThdSleep
 1903              	.LVL131:
 1904              	.LBE626:
 1905              	.LBE629:
 1906              	.LBB630:
 1907              	.LBB631:
 1908 002e 3046     		mov	r0, r6
 1909 0030 FFF7FEFF 		bl	chThdSleep
 1910              	.LVL132:
 1911 0034 013C     		subs	r4, r4, #1
 1912              	.LVL133:
 1913              	.LBE631:
 1914              	.LBE630:
 1915              		.loc 1 138 0
 1916 0036 7E83     		strh	r6, [r7, #26]	@ movhi
 1917              	.LBB633:
 1918              	.LBB634:
 1919              		.loc 1 25 0
 1920 0038 3046     		mov	r0, r6
 1921 003a FFF7FEFF 		bl	chThdSleep
 1922              	.LVL134:
 1923              	.LBE634:
 1924              	.LBE633:
 1925              		.loc 1 128 0
 1926 003e 621C     		adds	r2, r4, #1
 1927 0040 E7D1     		bne	.L85
 1928              		.loc 1 141 0
 1929 0042 BDE8F087 		pop	{r4, r5, r6, r7, r8, r9, r10, pc}
 1930              	.LVL135:
 1931              	.L86:
 1932              	.LBB636:
 1933              	.LBB621:
 1934              		.loc 1 25 0
 1935 0046 0120     		movs	r0, #1
 1936              	.LBE621:
 1937              	.LBE636:
 1938              		.loc 1 133 0
ARM GAS  /tmp/ccUMP9GK.s 			page 35


 1939 0048 AAF81A80 		strh	r8, [r10, #26]	@ movhi
 1940              	.LBB637:
 1941              	.LBB622:
 1942              		.loc 1 25 0
 1943 004c FFF7FEFF 		bl	chThdSleep
 1944              	.LVL136:
 1945              	.LBE622:
 1946              	.LBE637:
 1947              	.LBB638:
 1948              	.LBB627:
 1949 0050 3046     		mov	r0, r6
 1950              	.LBE627:
 1951              	.LBE638:
 1952              		.loc 1 135 0
 1953 0052 3E83     		strh	r6, [r7, #24]	@ movhi
 1954              	.LBB639:
 1955              	.LBB628:
 1956              		.loc 1 25 0
 1957 0054 FFF7FEFF 		bl	chThdSleep
 1958              	.LVL137:
 1959              	.LBE628:
 1960              	.LBE639:
 1961              	.LBB640:
 1962              	.LBB632:
 1963 0058 3046     		mov	r0, r6
 1964 005a FFF7FEFF 		bl	chThdSleep
 1965              	.LVL138:
 1966 005e 013C     		subs	r4, r4, #1
 1967              	.LVL139:
 1968              	.LBE632:
 1969              	.LBE640:
 1970              		.loc 1 138 0
 1971 0060 7E83     		strh	r6, [r7, #26]	@ movhi
 1972              	.LBB641:
 1973              	.LBB635:
 1974              		.loc 1 25 0
 1975 0062 3046     		mov	r0, r6
 1976 0064 FFF7FEFF 		bl	chThdSleep
 1977              	.LVL140:
 1978              	.LBE635:
 1979              	.LBE641:
 1980              		.loc 1 128 0
 1981 0068 631C     		adds	r3, r4, #1
 1982 006a D2D1     		bne	.L85
 1983              		.loc 1 141 0
 1984 006c BDE8F087 		pop	{r4, r5, r6, r7, r8, r9, r10, pc}
 1985              	.L94:
 1986              		.align	2
 1987              	.L93:
 1988 0070 00200240 		.word	1073881088
 1989 0074 001C0240 		.word	1073880064
 1990              		.cfi_endproc
 1991              	.LFE788:
 1992              		.size	_Z11swi2c_writeh, .-_Z11swi2c_writeh
 1993              		.section	.text._Z11swi2c_checkh,"ax",%progbits
 1994              		.align	1
 1995              		.p2align 2,,3
ARM GAS  /tmp/ccUMP9GK.s 			page 36


 1996              		.global	_Z11swi2c_checkh
 1997              		.syntax unified
 1998              		.thumb
 1999              		.thumb_func
 2000              		.fpu fpv4-sp-d16
 2001              		.type	_Z11swi2c_checkh, %function
 2002              	_Z11swi2c_checkh:
 2003              	.LFB789:
 2004              		.loc 1 144 0
 2005              		.cfi_startproc
 2006              		@ args = 0, pretend = 0, frame = 0
 2007              		@ frame_needed = 0, uses_anonymous_args = 0
 2008              	.LVL141:
 2009 0000 2DE9F047 		push	{r4, r5, r6, r7, r8, r9, r10, lr}
 2010              		.cfi_def_cfa_offset 32
 2011              		.cfi_offset 4, -32
 2012              		.cfi_offset 5, -28
 2013              		.cfi_offset 6, -24
 2014              		.cfi_offset 7, -20
 2015              		.cfi_offset 8, -16
 2016              		.cfi_offset 9, -12
 2017              		.cfi_offset 10, -8
 2018              		.cfi_offset 14, -4
 2019              	.LBB684:
 2020              	.LBB685:
 2021              		.loc 1 41 0
 2022 0004 524C     		ldr	r4, .L112
 2023              		.loc 1 43 0
 2024 0006 534F     		ldr	r7, .L112+4
 2025              		.loc 1 41 0
 2026 0008 4FF48059 		mov	r9, #4096
 2027              	.LBE685:
 2028              	.LBE684:
 2029              		.loc 1 144 0
 2030 000c 8046     		mov	r8, r0
 2031              	.LBB691:
 2032              	.LBB690:
 2033              		.loc 1 41 0
 2034 000e A4F81A90 		strh	r9, [r4, #26]	@ movhi
 2035              	.LBB686:
 2036              	.LBB687:
 2037              		.loc 1 25 0
 2038 0012 0120     		movs	r0, #1
 2039              	.LVL142:
 2040 0014 FFF7FEFF 		bl	chThdSleep
 2041              	.LVL143:
 2042              	.LBE687:
 2043              	.LBE686:
 2044              		.loc 1 43 0
 2045 0018 0120     		movs	r0, #1
 2046 001a 7883     		strh	r0, [r7, #26]	@ movhi
 2047              	.LBB688:
 2048              	.LBB689:
 2049              		.loc 1 25 0
 2050 001c FFF7FEFF 		bl	chThdSleep
 2051              	.LVL144:
 2052              	.LBE689:
ARM GAS  /tmp/ccUMP9GK.s 			page 37


 2053              	.LBE688:
 2054              	.LBE690:
 2055              	.LBE691:
 2056              		.loc 1 146 0
 2057 0020 4FEA4808 		lsl	r8, r8, #1
 2058              	.LVL145:
 2059              	.LBB692:
 2060              	.LBB693:
 2061              		.loc 1 133 0
 2062 0024 A246     		mov	r10, r4
 2063 0026 5FFA88F8 		uxtb	r8, r8
 2064              	.LBE693:
 2065              	.LBE692:
 2066              		.loc 1 146 0
 2067 002a 0724     		movs	r4, #7
 2068              	.LVL146:
 2069              	.L96:
 2070              	.LBB720:
 2071              	.LBB718:
 2072              		.loc 1 130 0
 2073 002c 48FA04F3 		asr	r3, r8, r4
 2074              		.loc 1 135 0
 2075 0030 0126     		movs	r6, #1
 2076              		.loc 1 130 0
 2077 0032 DB07     		lsls	r3, r3, #31
 2078              	.LBB694:
 2079              	.LBB695:
 2080              		.loc 1 25 0
 2081 0034 3046     		mov	r0, r6
 2082              	.LBE695:
 2083              	.LBE694:
 2084              		.loc 1 130 0
 2085 0036 54D5     		bpl	.L97
 2086              		.loc 1 131 0
 2087 0038 AAF81890 		strh	r9, [r10, #24]	@ movhi
 2088              	.LBB699:
 2089              	.LBB696:
 2090              		.loc 1 25 0
 2091 003c FFF7FEFF 		bl	chThdSleep
 2092              	.LVL147:
 2093              	.LBE696:
 2094              	.LBE699:
 2095              	.LBB700:
 2096              	.LBB701:
 2097 0040 3046     		mov	r0, r6
 2098              	.LBE701:
 2099              	.LBE700:
 2100              		.loc 1 135 0
 2101 0042 3E83     		strh	r6, [r7, #24]	@ movhi
 2102              	.LBB705:
 2103              	.LBB702:
 2104              		.loc 1 25 0
 2105 0044 FFF7FEFF 		bl	chThdSleep
 2106              	.LVL148:
 2107              	.LBE702:
 2108              	.LBE705:
 2109              	.LBB706:
ARM GAS  /tmp/ccUMP9GK.s 			page 38


 2110              	.LBB707:
 2111 0048 3046     		mov	r0, r6
 2112 004a FFF7FEFF 		bl	chThdSleep
 2113              	.LVL149:
 2114 004e 013C     		subs	r4, r4, #1
 2115              	.LVL150:
 2116              	.LBE707:
 2117              	.LBE706:
 2118              		.loc 1 138 0
 2119 0050 7E83     		strh	r6, [r7, #26]	@ movhi
 2120              	.LBB709:
 2121              	.LBB710:
 2122              		.loc 1 25 0
 2123 0052 3046     		mov	r0, r6
 2124 0054 FFF7FEFF 		bl	chThdSleep
 2125              	.LVL151:
 2126              	.LBE710:
 2127              	.LBE709:
 2128              		.loc 1 128 0
 2129 0058 611C     		adds	r1, r4, #1
 2130 005a E7D1     		bne	.L96
 2131              	.L98:
 2132              	.LBE718:
 2133              	.LBE720:
 2134              	.LBB721:
 2135              	.LBB722:
 2136              		.loc 1 84 0
 2137 005c 3C4D     		ldr	r5, .L112
 2138 005e 0022     		movs	r2, #0
 2139 0060 4FF48051 		mov	r1, #4096
 2140 0064 2846     		mov	r0, r5
 2141 0066 FFF7FEFF 		bl	_pal_lld_setgroupmode
 2142              	.LVL152:
 2143              	.LBB723:
 2144              	.LBB724:
 2145              		.loc 1 25 0
 2146 006a 0120     		movs	r0, #1
 2147 006c FFF7FEFF 		bl	chThdSleep
 2148              	.LVL153:
 2149              	.LBE724:
 2150              	.LBE723:
 2151              	.LBB725:
 2152              	.LBB726:
 2153 0070 0120     		movs	r0, #1
 2154 0072 FFF7FEFF 		bl	chThdSleep
 2155              	.LVL154:
 2156              	.LBE726:
 2157              	.LBE725:
 2158              		.loc 1 88 0
 2159 0076 374B     		ldr	r3, .L112+4
 2160 0078 0122     		movs	r2, #1
 2161 007a 1A83     		strh	r2, [r3, #24]	@ movhi
 2162              	.LVL155:
 2163              		.loc 1 92 0
 2164 007c 2B69     		ldr	r3, [r5, #16]
 2165              	.LVL156:
 2166 007e DB04     		lsls	r3, r3, #19
ARM GAS  /tmp/ccUMP9GK.s 			page 39


 2167              	.LVL157:
 2168 0080 48BF     		it	mi
 2169 0082 4FF40064 		movmi	r4, #2048
 2170 0086 02D4     		bmi	.L100
 2171 0088 0AE0     		b	.L101
 2172              	.LVL158:
 2173              	.L103:
 2174 008a 002C     		cmp	r4, #0
 2175 008c 3DD0     		beq	.L111
 2176              	.LVL159:
 2177              	.L100:
 2178              	.LBB727:
 2179              	.LBB728:
 2180              		.loc 1 25 0
 2181 008e 0120     		movs	r0, #1
 2182 0090 FFF7FEFF 		bl	chThdSleep
 2183              	.LVL160:
 2184              	.LBE728:
 2185              	.LBE727:
 2186              		.loc 1 92 0
 2187 0094 2B69     		ldr	r3, [r5, #16]
 2188              	.LVL161:
 2189 0096 013C     		subs	r4, r4, #1
 2190 0098 13F4805F 		tst	r3, #4096
 2191 009c A4B2     		uxth	r4, r4
 2192 009e F4D1     		bne	.L103
 2193              	.LVL162:
 2194              	.L101:
 2195              		.loc 1 94 0
 2196 00a0 2C4F     		ldr	r7, .L112+4
 2197              		.loc 1 96 0
 2198 00a2 2B4D     		ldr	r5, .L112
 2199              		.loc 1 94 0
 2200 00a4 0124     		movs	r4, #1
 2201              	.LBB729:
 2202              	.LBB730:
 2203              		.loc 1 25 0
 2204 00a6 2046     		mov	r0, r4
 2205              	.LBE730:
 2206              	.LBE729:
 2207              		.loc 1 94 0
 2208 00a8 7C83     		strh	r4, [r7, #26]	@ movhi
 2209              	.LBB734:
 2210              	.LBB731:
 2211              		.loc 1 25 0
 2212 00aa FFF7FEFF 		bl	chThdSleep
 2213              	.LVL163:
 2214              	.LBE731:
 2215              	.LBE734:
 2216              		.loc 1 96 0
 2217 00ae 0522     		movs	r2, #5
 2218 00b0 4FF48051 		mov	r1, #4096
 2219 00b4 2846     		mov	r0, r5
 2220 00b6 FFF7FEFF 		bl	_pal_lld_setgroupmode
 2221              	.LVL164:
 2222              		.loc 1 98 0
 2223 00ba 4FF48056 		mov	r6, #4096
ARM GAS  /tmp/ccUMP9GK.s 			page 40


 2224              	.LBB735:
 2225              	.LBB736:
 2226              		.loc 1 25 0
 2227 00be 2046     		mov	r0, r4
 2228 00c0 FFF7FEFF 		bl	chThdSleep
 2229              	.LVL165:
 2230              	.LBE736:
 2231              	.LBE735:
 2232              	.LBB738:
 2233              	.LBB739:
 2234 00c4 2046     		mov	r0, r4
 2235              	.LBE739:
 2236              	.LBE738:
 2237              		.loc 1 98 0
 2238 00c6 6E83     		strh	r6, [r5, #26]	@ movhi
 2239              	.LBB743:
 2240              	.LBB740:
 2241              		.loc 1 25 0
 2242 00c8 FFF7FEFF 		bl	chThdSleep
 2243              	.LVL166:
 2244              	.LBE740:
 2245              	.LBE743:
 2246              	.LBE722:
 2247              	.LBE721:
 2248              	.LBB750:
 2249              	.LBB751:
 2250              	.LBB752:
 2251              	.LBB753:
 2252 00cc 2046     		mov	r0, r4
 2253              	.LBE753:
 2254              	.LBE752:
 2255              		.loc 1 49 0
 2256 00ce 3C83     		strh	r4, [r7, #24]	@ movhi
 2257              	.LBB755:
 2258              	.LBB754:
 2259              		.loc 1 25 0
 2260 00d0 FFF7FEFF 		bl	chThdSleep
 2261              	.LVL167:
 2262              	.LBE754:
 2263              	.LBE755:
 2264              	.LBB756:
 2265              	.LBB757:
 2266 00d4 2046     		mov	r0, r4
 2267              	.LBE757:
 2268              	.LBE756:
 2269              		.loc 1 51 0
 2270 00d6 2E83     		strh	r6, [r5, #24]	@ movhi
 2271              	.LBB759:
 2272              	.LBB758:
 2273              		.loc 1 25 0
 2274 00d8 FFF7FEFF 		bl	chThdSleep
 2275              	.LVL168:
 2276              	.LBE758:
 2277              	.LBE759:
 2278              	.LBE751:
 2279              	.LBE750:
 2280              		.loc 1 153 0
ARM GAS  /tmp/ccUMP9GK.s 			page 41


 2281 00dc 2046     		mov	r0, r4
 2282              		.loc 1 154 0
 2283 00de BDE8F087 		pop	{r4, r5, r6, r7, r8, r9, r10, pc}
 2284              	.LVL169:
 2285              	.L97:
 2286              	.LBB760:
 2287              	.LBB719:
 2288              	.LBB712:
 2289              	.LBB697:
 2290              		.loc 1 25 0
 2291 00e2 0120     		movs	r0, #1
 2292              	.LBE697:
 2293              	.LBE712:
 2294              		.loc 1 133 0
 2295 00e4 AAF81A90 		strh	r9, [r10, #26]	@ movhi
 2296              	.LBB713:
 2297              	.LBB698:
 2298              		.loc 1 25 0
 2299 00e8 FFF7FEFF 		bl	chThdSleep
 2300              	.LVL170:
 2301              	.LBE698:
 2302              	.LBE713:
 2303              	.LBB714:
 2304              	.LBB703:
 2305 00ec 3046     		mov	r0, r6
 2306              	.LBE703:
 2307              	.LBE714:
 2308              		.loc 1 135 0
 2309 00ee 3E83     		strh	r6, [r7, #24]	@ movhi
 2310              	.LBB715:
 2311              	.LBB704:
 2312              		.loc 1 25 0
 2313 00f0 FFF7FEFF 		bl	chThdSleep
 2314              	.LVL171:
 2315              	.LBE704:
 2316              	.LBE715:
 2317              	.LBB716:
 2318              	.LBB708:
 2319 00f4 3046     		mov	r0, r6
 2320 00f6 FFF7FEFF 		bl	chThdSleep
 2321              	.LVL172:
 2322 00fa 013C     		subs	r4, r4, #1
 2323              	.LVL173:
 2324              	.LBE708:
 2325              	.LBE716:
 2326              		.loc 1 138 0
 2327 00fc 7E83     		strh	r6, [r7, #26]	@ movhi
 2328              	.LBB717:
 2329              	.LBB711:
 2330              		.loc 1 25 0
 2331 00fe 3046     		mov	r0, r6
 2332 0100 FFF7FEFF 		bl	chThdSleep
 2333              	.LVL174:
 2334              	.LBE711:
 2335              	.LBE717:
 2336              		.loc 1 128 0
 2337 0104 621C     		adds	r2, r4, #1
ARM GAS  /tmp/ccUMP9GK.s 			page 42


 2338 0106 91D1     		bne	.L96
 2339 0108 A8E7     		b	.L98
 2340              	.LVL175:
 2341              	.L111:
 2342              	.LBE719:
 2343              	.LBE760:
 2344              	.LBB761:
 2345              	.LBB749:
 2346              		.loc 1 94 0
 2347 010a DFF84880 		ldr	r8, .L112+4
 2348 010e 0126     		movs	r6, #1
 2349              	.LBB744:
 2350              	.LBB732:
 2351              		.loc 1 25 0
 2352 0110 3046     		mov	r0, r6
 2353              	.LBE732:
 2354              	.LBE744:
 2355              		.loc 1 94 0
 2356 0112 A8F81A60 		strh	r6, [r8, #26]	@ movhi
 2357              	.LBB745:
 2358              	.LBB733:
 2359              		.loc 1 25 0
 2360 0116 FFF7FEFF 		bl	chThdSleep
 2361              	.LVL176:
 2362              	.LBE733:
 2363              	.LBE745:
 2364              		.loc 1 96 0
 2365 011a 0522     		movs	r2, #5
 2366 011c 4FF48051 		mov	r1, #4096
 2367 0120 0B48     		ldr	r0, .L112
 2368 0122 FFF7FEFF 		bl	_pal_lld_setgroupmode
 2369              	.LVL177:
 2370              		.loc 1 98 0
 2371 0126 4FF48057 		mov	r7, #4096
 2372              	.LBB746:
 2373              	.LBB737:
 2374              		.loc 1 25 0
 2375 012a 3046     		mov	r0, r6
 2376 012c FFF7FEFF 		bl	chThdSleep
 2377              	.LVL178:
 2378              	.LBE737:
 2379              	.LBE746:
 2380              	.LBB747:
 2381              	.LBB741:
 2382 0130 3046     		mov	r0, r6
 2383              	.LBE741:
 2384              	.LBE747:
 2385              		.loc 1 98 0
 2386 0132 6F83     		strh	r7, [r5, #26]	@ movhi
 2387              	.LBB748:
 2388              	.LBB742:
 2389              		.loc 1 25 0
 2390 0134 FFF7FEFF 		bl	chThdSleep
 2391              	.LVL179:
 2392              	.LBE742:
 2393              	.LBE748:
 2394              	.LBE749:
ARM GAS  /tmp/ccUMP9GK.s 			page 43


 2395              	.LBE761:
 2396              	.LBB762:
 2397              	.LBB763:
 2398              	.LBB764:
 2399              	.LBB765:
 2400 0138 3046     		mov	r0, r6
 2401              	.LBE765:
 2402              	.LBE764:
 2403              		.loc 1 49 0
 2404 013a A8F81860 		strh	r6, [r8, #24]	@ movhi
 2405              	.LBB767:
 2406              	.LBB766:
 2407              		.loc 1 25 0
 2408 013e FFF7FEFF 		bl	chThdSleep
 2409              	.LVL180:
 2410              	.LBE766:
 2411              	.LBE767:
 2412              	.LBB768:
 2413              	.LBB769:
 2414 0142 3046     		mov	r0, r6
 2415              	.LBE769:
 2416              	.LBE768:
 2417              		.loc 1 51 0
 2418 0144 2F83     		strh	r7, [r5, #24]	@ movhi
 2419              	.LBB771:
 2420              	.LBB770:
 2421              		.loc 1 25 0
 2422 0146 FFF7FEFF 		bl	chThdSleep
 2423              	.LVL181:
 2424              	.LBE770:
 2425              	.LBE771:
 2426              	.LBE763:
 2427              	.LBE762:
 2428              		.loc 1 150 0
 2429 014a 2046     		mov	r0, r4
 2430              		.loc 1 154 0
 2431 014c BDE8F087 		pop	{r4, r5, r6, r7, r8, r9, r10, pc}
 2432              	.L113:
 2433              		.align	2
 2434              	.L112:
 2435 0150 001C0240 		.word	1073880064
 2436 0154 00200240 		.word	1073881088
 2437              		.cfi_endproc
 2438              	.LFE789:
 2439              		.size	_Z11swi2c_checkh, .-_Z11swi2c_checkh
 2440              		.section	.text._Z17swi2c_readByte_A8hhPh,"ax",%progbits
 2441              		.align	1
 2442              		.p2align 2,,3
 2443              		.global	_Z17swi2c_readByte_A8hhPh
 2444              		.syntax unified
 2445              		.thumb
 2446              		.thumb_func
 2447              		.fpu fpv4-sp-d16
 2448              		.type	_Z17swi2c_readByte_A8hhPh, %function
 2449              	_Z17swi2c_readByte_A8hhPh:
 2450              	.LFB790:
 2451              		.loc 1 159 0
ARM GAS  /tmp/ccUMP9GK.s 			page 44


 2452              		.cfi_startproc
 2453              		@ args = 0, pretend = 0, frame = 8
 2454              		@ frame_needed = 0, uses_anonymous_args = 0
 2455              	.LVL182:
 2456 0000 2DE9F04F 		push	{r4, r5, r6, r7, r8, r9, r10, fp, lr}
 2457              		.cfi_def_cfa_offset 36
 2458              		.cfi_offset 4, -36
 2459              		.cfi_offset 5, -32
 2460              		.cfi_offset 6, -28
 2461              		.cfi_offset 7, -24
 2462              		.cfi_offset 8, -20
 2463              		.cfi_offset 9, -16
 2464              		.cfi_offset 10, -12
 2465              		.cfi_offset 11, -8
 2466              		.cfi_offset 14, -4
 2467              	.LBB872:
 2468              	.LBB873:
 2469              		.loc 1 41 0
 2470 0004 B74C     		ldr	r4, .L143
 2471              		.loc 1 43 0
 2472 0006 B84D     		ldr	r5, .L143+4
 2473              	.LBE873:
 2474              	.LBE872:
 2475              		.loc 1 159 0
 2476 0008 83B0     		sub	sp, sp, #12
 2477              		.cfi_def_cfa_offset 48
 2478              	.LBB883:
 2479              	.LBB880:
 2480              		.loc 1 41 0
 2481 000a 4FF48056 		mov	r6, #4096
 2482 000e 6683     		strh	r6, [r4, #26]	@ movhi
 2483              	.LBE880:
 2484              	.LBE883:
 2485              		.loc 1 159 0
 2486 0010 0746     		mov	r7, r0
 2487              	.LBB884:
 2488              	.LBB881:
 2489              	.LBB874:
 2490              	.LBB875:
 2491              		.loc 1 25 0
 2492 0012 0120     		movs	r0, #1
 2493              	.LVL183:
 2494              	.LBE875:
 2495              	.LBE874:
 2496              	.LBE881:
 2497              	.LBE884:
 2498              		.loc 1 159 0
 2499 0014 8A46     		mov	r10, r1
 2500 0016 0192     		str	r2, [sp, #4]
 2501              	.LBB885:
 2502              	.LBB882:
 2503              	.LBB877:
 2504              	.LBB876:
 2505              		.loc 1 25 0
 2506 0018 FFF7FEFF 		bl	chThdSleep
 2507              	.LVL184:
 2508              	.LBE876:
ARM GAS  /tmp/ccUMP9GK.s 			page 45


 2509              	.LBE877:
 2510              		.loc 1 43 0
 2511 001c 0120     		movs	r0, #1
 2512 001e 6883     		strh	r0, [r5, #26]	@ movhi
 2513              	.LBB878:
 2514              	.LBB879:
 2515              		.loc 1 25 0
 2516 0020 FFF7FEFF 		bl	chThdSleep
 2517              	.LVL185:
 2518              	.LBE879:
 2519              	.LBE878:
 2520              	.LBE882:
 2521              	.LBE885:
 2522              		.loc 1 161 0
 2523 0024 7B00     		lsls	r3, r7, #1
 2524              	.LBB886:
 2525              	.LBB887:
 2526              		.loc 1 133 0
 2527 0026 A146     		mov	r9, r4
 2528              	.LBE887:
 2529              	.LBE886:
 2530              		.loc 1 161 0
 2531 0028 0093     		str	r3, [sp]
 2532              	.LVL186:
 2533 002a 5FFA83FB 		uxtb	fp, r3
 2534 002e 0724     		movs	r4, #7
 2535              	.LVL187:
 2536              	.L115:
 2537              	.LBB914:
 2538              	.LBB912:
 2539              		.loc 1 130 0
 2540 0030 4BFA04F1 		asr	r1, fp, r4
 2541              		.loc 1 135 0
 2542 0034 0127     		movs	r7, #1
 2543              		.loc 1 130 0
 2544 0036 C907     		lsls	r1, r1, #31
 2545              	.LBB888:
 2546              	.LBB889:
 2547              		.loc 1 25 0
 2548 0038 3846     		mov	r0, r7
 2549              	.LBE889:
 2550              	.LBE888:
 2551              		.loc 1 130 0
 2552 003a 40F13D81 		bpl	.L116
 2553              		.loc 1 131 0
 2554 003e A9F81860 		strh	r6, [r9, #24]	@ movhi
 2555              	.LBB893:
 2556              	.LBB890:
 2557              		.loc 1 25 0
 2558 0042 FFF7FEFF 		bl	chThdSleep
 2559              	.LVL188:
 2560              	.LBE890:
 2561              	.LBE893:
 2562              	.LBB894:
 2563              	.LBB895:
 2564 0046 3846     		mov	r0, r7
 2565              	.LBE895:
ARM GAS  /tmp/ccUMP9GK.s 			page 46


 2566              	.LBE894:
 2567              		.loc 1 135 0
 2568 0048 2F83     		strh	r7, [r5, #24]	@ movhi
 2569              	.LBB899:
 2570              	.LBB896:
 2571              		.loc 1 25 0
 2572 004a FFF7FEFF 		bl	chThdSleep
 2573              	.LVL189:
 2574              	.LBE896:
 2575              	.LBE899:
 2576              	.LBB900:
 2577              	.LBB901:
 2578 004e 3846     		mov	r0, r7
 2579 0050 FFF7FEFF 		bl	chThdSleep
 2580              	.LVL190:
 2581 0054 013C     		subs	r4, r4, #1
 2582              	.LVL191:
 2583              	.LBE901:
 2584              	.LBE900:
 2585              		.loc 1 138 0
 2586 0056 6F83     		strh	r7, [r5, #26]	@ movhi
 2587              	.LBB903:
 2588              	.LBB904:
 2589              		.loc 1 25 0
 2590 0058 3846     		mov	r0, r7
 2591 005a FFF7FEFF 		bl	chThdSleep
 2592              	.LVL192:
 2593              	.LBE904:
 2594              	.LBE903:
 2595              		.loc 1 128 0
 2596 005e 621C     		adds	r2, r4, #1
 2597 0060 E6D1     		bne	.L115
 2598              	.L117:
 2599              	.LVL193:
 2600              	.LBE912:
 2601              	.LBE914:
 2602              	.LBB915:
 2603              	.LBB916:
 2604              		.loc 1 57 0
 2605 0062 A04C     		ldr	r4, .L143
 2606              		.loc 1 59 0
 2607 0064 A04E     		ldr	r6, .L143+4
 2608              		.loc 1 57 0
 2609 0066 4FF4805B 		mov	fp, #4096
 2610              	.LBB917:
 2611              	.LBB918:
 2612              		.loc 1 25 0
 2613 006a 0120     		movs	r0, #1
 2614              	.LBE918:
 2615              	.LBE917:
 2616              		.loc 1 59 0
 2617 006c 0546     		mov	r5, r0
 2618              		.loc 1 57 0
 2619 006e A4F818B0 		strh	fp, [r4, #24]	@ movhi
 2620              	.LBB920:
 2621              	.LBB919:
 2622              		.loc 1 25 0
ARM GAS  /tmp/ccUMP9GK.s 			page 47


 2623 0072 FFF7FEFF 		bl	chThdSleep
 2624              	.LVL194:
 2625              	.LBE919:
 2626              	.LBE920:
 2627              	.LBB921:
 2628              	.LBB922:
 2629 0076 2846     		mov	r0, r5
 2630              	.LBE922:
 2631              	.LBE921:
 2632              		.loc 1 59 0
 2633 0078 3583     		strh	r5, [r6, #24]	@ movhi
 2634              	.LBB924:
 2635              	.LBB923:
 2636              		.loc 1 25 0
 2637 007a FFF7FEFF 		bl	chThdSleep
 2638              	.LVL195:
 2639              	.LBE923:
 2640              	.LBE924:
 2641              		.loc 1 64 0
 2642 007e 5946     		mov	r1, fp
 2643 0080 2046     		mov	r0, r4
 2644 0082 0522     		movs	r2, #5
 2645              		.loc 1 61 0
 2646 0084 7583     		strh	r5, [r6, #26]	@ movhi
 2647              		.loc 1 63 0
 2648 0086 A4F818B0 		strh	fp, [r4, #24]	@ movhi
 2649              		.loc 1 64 0
 2650 008a FFF7FEFF 		bl	_pal_lld_setgroupmode
 2651              	.LVL196:
 2652              	.LBB925:
 2653              	.LBB926:
 2654              		.loc 1 25 0
 2655 008e 2846     		mov	r0, r5
 2656 0090 FFF7FEFF 		bl	chThdSleep
 2657              	.LVL197:
 2658              	.LBE926:
 2659              	.LBE925:
 2660              		.loc 1 66 0
 2661 0094 2046     		mov	r0, r4
 2662 0096 5946     		mov	r1, fp
 2663 0098 0522     		movs	r2, #5
 2664 009a FFF7FEFF 		bl	_pal_lld_setgroupmode
 2665              	.LVL198:
 2666              	.LBE916:
 2667              	.LBE915:
 2668              	.LBB928:
 2669              	.LBB929:
 2670              		.loc 1 133 0
 2671 009e A146     		mov	r9, r4
 2672              	.LBE929:
 2673              	.LBE928:
 2674              	.LBB958:
 2675              	.LBB927:
 2676              		.loc 1 66 0
 2677 00a0 0724     		movs	r4, #7
 2678              	.LVL199:
 2679              	.L119:
ARM GAS  /tmp/ccUMP9GK.s 			page 48


 2680              	.LBE927:
 2681              	.LBE958:
 2682              	.LBB959:
 2683              	.LBB956:
 2684              		.loc 1 130 0
 2685 00a2 4AFA04F2 		asr	r2, r10, r4
 2686              		.loc 1 135 0
 2687 00a6 4FF00108 		mov	r8, #1
 2688              		.loc 1 130 0
 2689 00aa D707     		lsls	r7, r2, #31
 2690              	.LBB930:
 2691              	.LBB931:
 2692              		.loc 1 25 0
 2693 00ac 4046     		mov	r0, r8
 2694              	.LBE931:
 2695              	.LBE930:
 2696              		.loc 1 130 0
 2697 00ae 40F1EC80 		bpl	.L120
 2698              		.loc 1 131 0
 2699 00b2 A9F818B0 		strh	fp, [r9, #24]	@ movhi
 2700              	.LBB935:
 2701              	.LBB932:
 2702              		.loc 1 25 0
 2703 00b6 FFF7FEFF 		bl	chThdSleep
 2704              	.LVL200:
 2705              	.LBE932:
 2706              	.LBE935:
 2707              	.LBB936:
 2708              	.LBB937:
 2709 00ba 4046     		mov	r0, r8
 2710              	.LBE937:
 2711              	.LBE936:
 2712              		.loc 1 135 0
 2713 00bc A6F81880 		strh	r8, [r6, #24]	@ movhi
 2714              	.LBB941:
 2715              	.LBB938:
 2716              		.loc 1 25 0
 2717 00c0 FFF7FEFF 		bl	chThdSleep
 2718              	.LVL201:
 2719              	.LBE938:
 2720              	.LBE941:
 2721              	.LBB942:
 2722              	.LBB943:
 2723 00c4 4046     		mov	r0, r8
 2724 00c6 FFF7FEFF 		bl	chThdSleep
 2725              	.LVL202:
 2726 00ca 013C     		subs	r4, r4, #1
 2727              	.LVL203:
 2728              	.LBE943:
 2729              	.LBE942:
 2730              		.loc 1 138 0
 2731 00cc A6F81A80 		strh	r8, [r6, #26]	@ movhi
 2732              	.LBB945:
 2733              	.LBB946:
 2734              		.loc 1 25 0
 2735 00d0 4046     		mov	r0, r8
 2736 00d2 FFF7FEFF 		bl	chThdSleep
ARM GAS  /tmp/ccUMP9GK.s 			page 49


 2737              	.LVL204:
 2738              	.LBE946:
 2739              	.LBE945:
 2740              		.loc 1 128 0
 2741 00d6 651C     		adds	r5, r4, #1
 2742 00d8 E3D1     		bne	.L119
 2743              	.L121:
 2744              	.LBE956:
 2745              	.LBE959:
 2746              	.LBB960:
 2747              	.LBB961:
 2748              		.loc 1 57 0
 2749 00da 824D     		ldr	r5, .L143
 2750              		.loc 1 59 0
 2751 00dc 824E     		ldr	r6, .L143+4
 2752              		.loc 1 57 0
 2753 00de 4FF4805A 		mov	r10, #4096
 2754              	.LBB962:
 2755              	.LBB963:
 2756              		.loc 1 25 0
 2757 00e2 0120     		movs	r0, #1
 2758              	.LBE963:
 2759              	.LBE962:
 2760              		.loc 1 59 0
 2761 00e4 0446     		mov	r4, r0
 2762              		.loc 1 57 0
 2763 00e6 A5F818A0 		strh	r10, [r5, #24]	@ movhi
 2764              	.LBB965:
 2765              	.LBB964:
 2766              		.loc 1 25 0
 2767 00ea FFF7FEFF 		bl	chThdSleep
 2768              	.LVL205:
 2769              	.LBE964:
 2770              	.LBE965:
 2771              	.LBB966:
 2772              	.LBB967:
 2773 00ee 2046     		mov	r0, r4
 2774              	.LBE967:
 2775              	.LBE966:
 2776              		.loc 1 59 0
 2777 00f0 3483     		strh	r4, [r6, #24]	@ movhi
 2778              	.LBB969:
 2779              	.LBB968:
 2780              		.loc 1 25 0
 2781 00f2 FFF7FEFF 		bl	chThdSleep
 2782              	.LVL206:
 2783              	.LBE968:
 2784              	.LBE969:
 2785              		.loc 1 61 0
 2786 00f6 7483     		strh	r4, [r6, #26]	@ movhi
 2787              		.loc 1 64 0
 2788 00f8 5146     		mov	r1, r10
 2789 00fa 0522     		movs	r2, #5
 2790 00fc 2846     		mov	r0, r5
 2791              		.loc 1 63 0
 2792 00fe A5F818A0 		strh	r10, [r5, #24]	@ movhi
 2793              		.loc 1 64 0
ARM GAS  /tmp/ccUMP9GK.s 			page 50


 2794 0102 FFF7FEFF 		bl	_pal_lld_setgroupmode
 2795              	.LVL207:
 2796              	.LBB970:
 2797              	.LBB971:
 2798              		.loc 1 25 0
 2799 0106 2046     		mov	r0, r4
 2800 0108 FFF7FEFF 		bl	chThdSleep
 2801              	.LVL208:
 2802              	.LBE971:
 2803              	.LBE970:
 2804              		.loc 1 66 0
 2805 010c 5146     		mov	r1, r10
 2806 010e 0522     		movs	r2, #5
 2807 0110 2846     		mov	r0, r5
 2808 0112 FFF7FEFF 		bl	_pal_lld_setgroupmode
 2809              	.LVL209:
 2810              	.LBE961:
 2811              	.LBE960:
 2812              	.LBB972:
 2813              	.LBB973:
 2814              	.LBB974:
 2815              	.LBB975:
 2816              		.loc 1 25 0
 2817 0116 2046     		mov	r0, r4
 2818              	.LBE975:
 2819              	.LBE974:
 2820              		.loc 1 49 0
 2821 0118 3483     		strh	r4, [r6, #24]	@ movhi
 2822              	.LBB977:
 2823              	.LBB976:
 2824              		.loc 1 25 0
 2825 011a FFF7FEFF 		bl	chThdSleep
 2826              	.LVL210:
 2827              	.LBE976:
 2828              	.LBE977:
 2829              	.LBB978:
 2830              	.LBB979:
 2831 011e 2046     		mov	r0, r4
 2832              	.LBE979:
 2833              	.LBE978:
 2834              		.loc 1 51 0
 2835 0120 A5F818A0 		strh	r10, [r5, #24]	@ movhi
 2836              	.LBB981:
 2837              	.LBB980:
 2838              		.loc 1 25 0
 2839 0124 FFF7FEFF 		bl	chThdSleep
 2840              	.LVL211:
 2841              	.LBE980:
 2842              	.LBE981:
 2843              	.LBE973:
 2844              	.LBE972:
 2845              	.LBB982:
 2846              	.LBB983:
 2847              	.LBB984:
 2848              	.LBB985:
 2849 0128 2046     		mov	r0, r4
 2850              	.LBE985:
ARM GAS  /tmp/ccUMP9GK.s 			page 51


 2851              	.LBE984:
 2852              		.loc 1 41 0
 2853 012a A5F81AA0 		strh	r10, [r5, #26]	@ movhi
 2854              	.LBB987:
 2855              	.LBB986:
 2856              		.loc 1 25 0
 2857 012e FFF7FEFF 		bl	chThdSleep
 2858              	.LVL212:
 2859              	.LBE986:
 2860              	.LBE987:
 2861              		.loc 1 43 0
 2862 0132 7483     		strh	r4, [r6, #26]	@ movhi
 2863              	.LBB988:
 2864              	.LBB989:
 2865              		.loc 1 25 0
 2866 0134 2046     		mov	r0, r4
 2867 0136 FFF7FEFF 		bl	chThdSleep
 2868              	.LVL213:
 2869              	.LBE989:
 2870              	.LBE988:
 2871              	.LBE983:
 2872              	.LBE982:
 2873              		.loc 1 170 0
 2874 013a 009B     		ldr	r3, [sp]
 2875 013c 43EA0407 		orr	r7, r3, r4
 2876              	.LBB990:
 2877              	.LBB991:
 2878              		.loc 1 133 0
 2879 0140 AB46     		mov	fp, r5
 2880              		.loc 1 135 0
 2881 0142 B146     		mov	r9, r6
 2882 0144 FFB2     		uxtb	r7, r7
 2883              	.LBE991:
 2884              	.LBE990:
 2885              		.loc 1 170 0
 2886 0146 0724     		movs	r4, #7
 2887              	.LVL214:
 2888              	.L123:
 2889              	.LBB1018:
 2890              	.LBB1016:
 2891              		.loc 1 130 0
 2892 0148 47FA04F3 		asr	r3, r7, r4
 2893              		.loc 1 135 0
 2894 014c 0126     		movs	r6, #1
 2895              		.loc 1 130 0
 2896 014e D907     		lsls	r1, r3, #31
 2897              	.LBB992:
 2898              	.LBB993:
 2899              		.loc 1 25 0
 2900 0150 3046     		mov	r0, r6
 2901              	.LBE993:
 2902              	.LBE992:
 2903              		.loc 1 130 0
 2904 0152 40F18380 		bpl	.L124
 2905              		.loc 1 131 0
 2906 0156 ABF818A0 		strh	r10, [fp, #24]	@ movhi
 2907              	.LBB997:
ARM GAS  /tmp/ccUMP9GK.s 			page 52


 2908              	.LBB994:
 2909              		.loc 1 25 0
 2910 015a FFF7FEFF 		bl	chThdSleep
 2911              	.LVL215:
 2912              	.LBE994:
 2913              	.LBE997:
 2914              	.LBB998:
 2915              	.LBB999:
 2916 015e 3046     		mov	r0, r6
 2917              	.LBE999:
 2918              	.LBE998:
 2919              		.loc 1 135 0
 2920 0160 A9F81860 		strh	r6, [r9, #24]	@ movhi
 2921              	.LBB1003:
 2922              	.LBB1000:
 2923              		.loc 1 25 0
 2924 0164 FFF7FEFF 		bl	chThdSleep
 2925              	.LVL216:
 2926              	.LBE1000:
 2927              	.LBE1003:
 2928              	.LBB1004:
 2929              	.LBB1005:
 2930 0168 3046     		mov	r0, r6
 2931 016a FFF7FEFF 		bl	chThdSleep
 2932              	.LVL217:
 2933 016e 013C     		subs	r4, r4, #1
 2934              	.LVL218:
 2935              	.LBE1005:
 2936              	.LBE1004:
 2937              		.loc 1 138 0
 2938 0170 A9F81A60 		strh	r6, [r9, #26]	@ movhi
 2939              	.LBB1007:
 2940              	.LBB1008:
 2941              		.loc 1 25 0
 2942 0174 3046     		mov	r0, r6
 2943 0176 FFF7FEFF 		bl	chThdSleep
 2944              	.LVL219:
 2945              	.LBE1008:
 2946              	.LBE1007:
 2947              		.loc 1 128 0
 2948 017a 621C     		adds	r2, r4, #1
 2949 017c E4D1     		bne	.L123
 2950              	.L125:
 2951              	.LVL220:
 2952              	.LBE1016:
 2953              	.LBE1018:
 2954              	.LBB1019:
 2955              	.LBB1020:
 2956              		.loc 1 57 0
 2957 017e 594E     		ldr	r6, .L143
 2958              		.loc 1 59 0
 2959 0180 594C     		ldr	r4, .L143+4
 2960              		.loc 1 57 0
 2961 0182 4FF48057 		mov	r7, #4096
 2962              	.LBB1021:
 2963              	.LBB1022:
 2964              		.loc 1 25 0
ARM GAS  /tmp/ccUMP9GK.s 			page 53


 2965 0186 0120     		movs	r0, #1
 2966              	.LBE1022:
 2967              	.LBE1021:
 2968              		.loc 1 59 0
 2969 0188 0546     		mov	r5, r0
 2970              		.loc 1 57 0
 2971 018a 3783     		strh	r7, [r6, #24]	@ movhi
 2972              	.LBB1024:
 2973              	.LBB1023:
 2974              		.loc 1 25 0
 2975 018c FFF7FEFF 		bl	chThdSleep
 2976              	.LVL221:
 2977              	.LBE1023:
 2978              	.LBE1024:
 2979              	.LBB1025:
 2980              	.LBB1026:
 2981 0190 2846     		mov	r0, r5
 2982              	.LBE1026:
 2983              	.LBE1025:
 2984              		.loc 1 59 0
 2985 0192 2583     		strh	r5, [r4, #24]	@ movhi
 2986              	.LBB1028:
 2987              	.LBB1027:
 2988              		.loc 1 25 0
 2989 0194 FFF7FEFF 		bl	chThdSleep
 2990              	.LVL222:
 2991              	.LBE1027:
 2992              	.LBE1028:
 2993              		.loc 1 64 0
 2994 0198 3946     		mov	r1, r7
 2995 019a 0522     		movs	r2, #5
 2996              		.loc 1 61 0
 2997 019c 6583     		strh	r5, [r4, #26]	@ movhi
 2998              		.loc 1 64 0
 2999 019e 3046     		mov	r0, r6
 3000              		.loc 1 63 0
 3001 01a0 3783     		strh	r7, [r6, #24]	@ movhi
 3002              		.loc 1 64 0
 3003 01a2 FFF7FEFF 		bl	_pal_lld_setgroupmode
 3004              	.LVL223:
 3005              	.LBB1029:
 3006              	.LBB1030:
 3007              		.loc 1 25 0
 3008 01a6 2846     		mov	r0, r5
 3009 01a8 FFF7FEFF 		bl	chThdSleep
 3010              	.LVL224:
 3011              	.LBE1030:
 3012              	.LBE1029:
 3013              		.loc 1 66 0
 3014 01ac 3946     		mov	r1, r7
 3015 01ae 3046     		mov	r0, r6
 3016 01b0 0522     		movs	r2, #5
 3017 01b2 FFF7FEFF 		bl	_pal_lld_setgroupmode
 3018              	.LVL225:
 3019              	.LBE1020:
 3020              	.LBE1019:
 3021              	.LBB1031:
ARM GAS  /tmp/ccUMP9GK.s 			page 54


 3022              	.LBB1032:
 3023              		.loc 1 105 0
 3024 01b6 3783     		strh	r7, [r6, #24]	@ movhi
 3025              		.loc 1 107 0
 3026 01b8 3946     		mov	r1, r7
 3027 01ba 3046     		mov	r0, r6
 3028 01bc 0022     		movs	r2, #0
 3029 01be FFF7FEFF 		bl	_pal_lld_setgroupmode
 3030              	.LVL226:
 3031              		.loc 1 112 0
 3032 01c2 2F46     		mov	r7, r5	@ movhi
 3033              		.loc 1 107 0
 3034 01c4 4FF0070A 		mov	r10, #7
 3035              		.loc 1 108 0
 3036 01c8 4FF00009 		mov	r9, #0
 3037              	.LVL227:
 3038              	.L127:
 3039              	.LBB1033:
 3040              	.LBB1034:
 3041              		.loc 1 25 0
 3042 01cc 0120     		movs	r0, #1
 3043              	.LBE1034:
 3044              	.LBE1033:
 3045              		.loc 1 112 0
 3046 01ce 6783     		strh	r7, [r4, #26]	@ movhi
 3047              		.loc 1 116 0
 3048 01d0 444E     		ldr	r6, .L143
 3049              	.LBB1036:
 3050              	.LBB1035:
 3051              		.loc 1 25 0
 3052 01d2 FFF7FEFF 		bl	chThdSleep
 3053              	.LVL228:
 3054              	.LBE1035:
 3055              	.LBE1036:
 3056              	.LBB1037:
 3057              	.LBB1038:
 3058 01d6 0120     		movs	r0, #1
 3059              	.LBE1038:
 3060              	.LBE1037:
 3061              		.loc 1 114 0
 3062 01d8 2583     		strh	r5, [r4, #24]	@ movhi
 3063              	.LBB1040:
 3064              	.LBB1039:
 3065              		.loc 1 25 0
 3066 01da FFF7FEFF 		bl	chThdSleep
 3067              	.LVL229:
 3068              	.LBE1039:
 3069              	.LBE1040:
 3070              		.loc 1 116 0
 3071 01de 3369     		ldr	r3, [r6, #16]
 3072 01e0 C3F30033 		ubfx	r3, r3, #12, #1
 3073 01e4 03FA0AF3 		lsl	r3, r3, r10
 3074 01e8 43EA0903 		orr	r3, r3, r9
 3075              	.LBB1041:
 3076              	.LBB1042:
 3077              		.loc 1 25 0
 3078 01ec 0120     		movs	r0, #1
ARM GAS  /tmp/ccUMP9GK.s 			page 55


 3079              	.LBE1042:
 3080              	.LBE1041:
 3081              		.loc 1 116 0
 3082 01ee 5FFA83F9 		uxtb	r9, r3
 3083              	.LVL230:
 3084 01f2 0AF1FF3A 		add	r10, r10, #-1
 3085              	.LVL231:
 3086              	.LBB1044:
 3087              	.LBB1043:
 3088              		.loc 1 25 0
 3089 01f6 FFF7FEFF 		bl	chThdSleep
 3090              	.LVL232:
 3091              	.LBE1043:
 3092              	.LBE1044:
 3093              		.loc 1 118 0
 3094 01fa 6583     		strh	r5, [r4, #26]	@ movhi
 3095              	.LBB1045:
 3096              	.LBB1046:
 3097              		.loc 1 25 0
 3098 01fc 0120     		movs	r0, #1
 3099 01fe FFF7FEFF 		bl	chThdSleep
 3100              	.LVL233:
 3101              	.LBE1046:
 3102              	.LBE1045:
 3103              		.loc 1 110 0
 3104 0202 BAF1FF3F 		cmp	r10, #-1
 3105 0206 E1D1     		bne	.L127
 3106              		.loc 1 121 0
 3107 0208 4FF48051 		mov	r1, #4096
 3108              	.LBE1032:
 3109              	.LBE1031:
 3110              	.LBB1048:
 3111              	.LBB1049:
 3112              		.loc 1 71 0
 3113 020c 0F46     		mov	r7, r1
 3114              	.LBE1049:
 3115              	.LBE1048:
 3116              	.LBB1069:
 3117              	.LBB1047:
 3118              		.loc 1 121 0
 3119 020e 0522     		movs	r2, #5
 3120 0210 3046     		mov	r0, r6
 3121 0212 FFF7FEFF 		bl	_pal_lld_setgroupmode
 3122              	.LVL234:
 3123              	.LBE1047:
 3124              	.LBE1069:
 3125              	.LBB1070:
 3126              	.LBB1068:
 3127              	.LBB1050:
 3128              	.LBB1051:
 3129              		.loc 1 25 0
 3130 0216 0120     		movs	r0, #1
 3131              	.LBE1051:
 3132              	.LBE1050:
 3133              		.loc 1 71 0
 3134 0218 3783     		strh	r7, [r6, #24]	@ movhi
 3135              	.LBB1053:
ARM GAS  /tmp/ccUMP9GK.s 			page 56


 3136              	.LBB1052:
 3137              		.loc 1 25 0
 3138 021a FFF7FEFF 		bl	chThdSleep
 3139              	.LVL235:
 3140              	.LBE1052:
 3141              	.LBE1053:
 3142              	.LBB1054:
 3143              	.LBB1055:
 3144 021e 0120     		movs	r0, #1
 3145              	.LBE1055:
 3146              	.LBE1054:
 3147              		.loc 1 73 0
 3148 0220 2583     		strh	r5, [r4, #24]	@ movhi
 3149              	.LBB1057:
 3150              	.LBB1056:
 3151              		.loc 1 25 0
 3152 0222 FFF7FEFF 		bl	chThdSleep
 3153              	.LVL236:
 3154              	.LBE1056:
 3155              	.LBE1057:
 3156              	.LBB1058:
 3157              	.LBB1059:
 3158 0226 0120     		movs	r0, #1
 3159 0228 FFF7FEFF 		bl	chThdSleep
 3160              	.LVL237:
 3161              	.LBE1059:
 3162              	.LBE1058:
 3163              	.LBB1060:
 3164              	.LBB1061:
 3165 022c 0120     		movs	r0, #1
 3166              	.LBE1061:
 3167              	.LBE1060:
 3168              		.loc 1 76 0
 3169 022e 6583     		strh	r5, [r4, #26]	@ movhi
 3170              	.LBB1063:
 3171              	.LBB1062:
 3172              		.loc 1 25 0
 3173 0230 FFF7FEFF 		bl	chThdSleep
 3174              	.LVL238:
 3175              	.LBE1062:
 3176              	.LBE1063:
 3177              	.LBB1064:
 3178              	.LBB1065:
 3179 0234 0120     		movs	r0, #1
 3180              	.LBE1065:
 3181              	.LBE1064:
 3182              		.loc 1 78 0
 3183 0236 7783     		strh	r7, [r6, #26]	@ movhi
 3184              	.LBB1067:
 3185              	.LBB1066:
 3186              		.loc 1 25 0
 3187 0238 FFF7FEFF 		bl	chThdSleep
 3188              	.LVL239:
 3189              	.LBE1066:
 3190              	.LBE1067:
 3191              	.LBE1068:
 3192              	.LBE1070:
ARM GAS  /tmp/ccUMP9GK.s 			page 57


 3193              	.LBB1071:
 3194              	.LBB1072:
 3195              	.LBB1073:
 3196              	.LBB1074:
 3197 023c 0120     		movs	r0, #1
 3198              	.LBE1074:
 3199              	.LBE1073:
 3200              		.loc 1 49 0
 3201 023e 2583     		strh	r5, [r4, #24]	@ movhi
 3202              	.LBB1076:
 3203              	.LBB1075:
 3204              		.loc 1 25 0
 3205 0240 FFF7FEFF 		bl	chThdSleep
 3206              	.LVL240:
 3207              	.LBE1075:
 3208              	.LBE1076:
 3209              		.loc 1 51 0
 3210 0244 3783     		strh	r7, [r6, #24]	@ movhi
 3211              	.LBB1077:
 3212              	.LBB1078:
 3213              		.loc 1 25 0
 3214 0246 0120     		movs	r0, #1
 3215 0248 FFF7FEFF 		bl	chThdSleep
 3216              	.LVL241:
 3217              	.LBE1078:
 3218              	.LBE1077:
 3219              	.LBE1072:
 3220              	.LBE1071:
 3221              		.loc 1 176 0
 3222 024c 019B     		ldr	r3, [sp, #4]
 3223 024e 0BB1     		cbz	r3, .L128
 3224              		.loc 1 177 0
 3225 0250 83F80090 		strb	r9, [r3]
 3226              	.L128:
 3227              		.loc 1 179 0
 3228 0254 0120     		movs	r0, #1
 3229 0256 03B0     		add	sp, sp, #12
 3230              		.cfi_remember_state
 3231              		.cfi_def_cfa_offset 36
 3232              		@ sp needed
 3233 0258 BDE8F08F 		pop	{r4, r5, r6, r7, r8, r9, r10, fp, pc}
 3234              	.LVL242:
 3235              	.L124:
 3236              		.cfi_restore_state
 3237              	.LBB1079:
 3238              	.LBB1017:
 3239              	.LBB1010:
 3240              	.LBB995:
 3241              		.loc 1 25 0
 3242 025c 0120     		movs	r0, #1
 3243              	.LBE995:
 3244              	.LBE1010:
 3245              		.loc 1 133 0
 3246 025e ABF81AA0 		strh	r10, [fp, #26]	@ movhi
 3247              	.LBB1011:
 3248              	.LBB996:
 3249              		.loc 1 25 0
ARM GAS  /tmp/ccUMP9GK.s 			page 58


 3250 0262 FFF7FEFF 		bl	chThdSleep
 3251              	.LVL243:
 3252              	.LBE996:
 3253              	.LBE1011:
 3254              	.LBB1012:
 3255              	.LBB1001:
 3256 0266 3046     		mov	r0, r6
 3257              	.LBE1001:
 3258              	.LBE1012:
 3259              		.loc 1 135 0
 3260 0268 A9F81860 		strh	r6, [r9, #24]	@ movhi
 3261              	.LBB1013:
 3262              	.LBB1002:
 3263              		.loc 1 25 0
 3264 026c FFF7FEFF 		bl	chThdSleep
 3265              	.LVL244:
 3266              	.LBE1002:
 3267              	.LBE1013:
 3268              	.LBB1014:
 3269              	.LBB1006:
 3270 0270 3046     		mov	r0, r6
 3271 0272 FFF7FEFF 		bl	chThdSleep
 3272              	.LVL245:
 3273 0276 013C     		subs	r4, r4, #1
 3274              	.LVL246:
 3275              	.LBE1006:
 3276              	.LBE1014:
 3277              		.loc 1 138 0
 3278 0278 A9F81A60 		strh	r6, [r9, #26]	@ movhi
 3279              	.LBB1015:
 3280              	.LBB1009:
 3281              		.loc 1 25 0
 3282 027c 3046     		mov	r0, r6
 3283 027e FFF7FEFF 		bl	chThdSleep
 3284              	.LVL247:
 3285              	.LBE1009:
 3286              	.LBE1015:
 3287              		.loc 1 128 0
 3288 0282 631C     		adds	r3, r4, #1
 3289 0284 7FF460AF 		bne	.L123
 3290 0288 79E7     		b	.L125
 3291              	.LVL248:
 3292              	.L120:
 3293              	.LBE1017:
 3294              	.LBE1079:
 3295              	.LBB1080:
 3296              	.LBB957:
 3297              	.LBB949:
 3298              	.LBB933:
 3299              		.loc 1 25 0
 3300 028a 0120     		movs	r0, #1
 3301              	.LBE933:
 3302              	.LBE949:
 3303              		.loc 1 133 0
 3304 028c A9F81AB0 		strh	fp, [r9, #26]	@ movhi
 3305              	.LBB950:
 3306              	.LBB934:
ARM GAS  /tmp/ccUMP9GK.s 			page 59


 3307              		.loc 1 25 0
 3308 0290 FFF7FEFF 		bl	chThdSleep
 3309              	.LVL249:
 3310              	.LBE934:
 3311              	.LBE950:
 3312              	.LBB951:
 3313              	.LBB939:
 3314 0294 4046     		mov	r0, r8
 3315              	.LBE939:
 3316              	.LBE951:
 3317              		.loc 1 135 0
 3318 0296 A6F81880 		strh	r8, [r6, #24]	@ movhi
 3319              	.LBB952:
 3320              	.LBB940:
 3321              		.loc 1 25 0
 3322 029a FFF7FEFF 		bl	chThdSleep
 3323              	.LVL250:
 3324              	.LBE940:
 3325              	.LBE952:
 3326              	.LBB953:
 3327              	.LBB944:
 3328 029e 4046     		mov	r0, r8
 3329 02a0 FFF7FEFF 		bl	chThdSleep
 3330              	.LVL251:
 3331 02a4 013C     		subs	r4, r4, #1
 3332              	.LVL252:
 3333              	.LBE944:
 3334              	.LBE953:
 3335              	.LBB954:
 3336              	.LBB947:
 3337 02a6 4046     		mov	r0, r8
 3338              	.LBE947:
 3339              	.LBE954:
 3340              		.loc 1 138 0
 3341 02a8 A6F81A80 		strh	r8, [r6, #26]	@ movhi
 3342              	.LBB955:
 3343              	.LBB948:
 3344              		.loc 1 25 0
 3345 02ac FFF7FEFF 		bl	chThdSleep
 3346              	.LVL253:
 3347              	.LBE948:
 3348              	.LBE955:
 3349              		.loc 1 128 0
 3350 02b0 601C     		adds	r0, r4, #1
 3351 02b2 7FF4F6AE 		bne	.L119
 3352 02b6 10E7     		b	.L121
 3353              	.LVL254:
 3354              	.L116:
 3355              	.LBE957:
 3356              	.LBE1080:
 3357              	.LBB1081:
 3358              	.LBB913:
 3359              	.LBB906:
 3360              	.LBB891:
 3361              		.loc 1 25 0
 3362 02b8 0120     		movs	r0, #1
 3363              	.LBE891:
ARM GAS  /tmp/ccUMP9GK.s 			page 60


 3364              	.LBE906:
 3365              		.loc 1 133 0
 3366 02ba A9F81A60 		strh	r6, [r9, #26]	@ movhi
 3367              	.LBB907:
 3368              	.LBB892:
 3369              		.loc 1 25 0
 3370 02be FFF7FEFF 		bl	chThdSleep
 3371              	.LVL255:
 3372              	.LBE892:
 3373              	.LBE907:
 3374              	.LBB908:
 3375              	.LBB897:
 3376 02c2 3846     		mov	r0, r7
 3377              	.LBE897:
 3378              	.LBE908:
 3379              		.loc 1 135 0
 3380 02c4 2F83     		strh	r7, [r5, #24]	@ movhi
 3381              	.LBB909:
 3382              	.LBB898:
 3383              		.loc 1 25 0
 3384 02c6 FFF7FEFF 		bl	chThdSleep
 3385              	.LVL256:
 3386              	.LBE898:
 3387              	.LBE909:
 3388              	.LBB910:
 3389              	.LBB902:
 3390 02ca 3846     		mov	r0, r7
 3391 02cc FFF7FEFF 		bl	chThdSleep
 3392              	.LVL257:
 3393 02d0 013C     		subs	r4, r4, #1
 3394              	.LVL258:
 3395              	.LBE902:
 3396              	.LBE910:
 3397              		.loc 1 138 0
 3398 02d2 6F83     		strh	r7, [r5, #26]	@ movhi
 3399              	.LBB911:
 3400              	.LBB905:
 3401              		.loc 1 25 0
 3402 02d4 3846     		mov	r0, r7
 3403 02d6 FFF7FEFF 		bl	chThdSleep
 3404              	.LVL259:
 3405              	.LBE905:
 3406              	.LBE911:
 3407              		.loc 1 128 0
 3408 02da 631C     		adds	r3, r4, #1
 3409 02dc 7FF4A8AE 		bne	.L115
 3410 02e0 BFE6     		b	.L117
 3411              	.L144:
 3412 02e2 00BF     		.align	2
 3413              	.L143:
 3414 02e4 001C0240 		.word	1073880064
 3415 02e8 00200240 		.word	1073881088
 3416              	.LBE913:
 3417              	.LBE1081:
 3418              		.cfi_endproc
 3419              	.LFE790:
 3420              		.size	_Z17swi2c_readByte_A8hhPh, .-_Z17swi2c_readByte_A8hhPh
ARM GAS  /tmp/ccUMP9GK.s 			page 61


 3421              		.section	.text._Z18swi2c_writeByte_A8hhPh,"ax",%progbits
 3422              		.align	1
 3423              		.p2align 2,,3
 3424              		.global	_Z18swi2c_writeByte_A8hhPh
 3425              		.syntax unified
 3426              		.thumb
 3427              		.thumb_func
 3428              		.fpu fpv4-sp-d16
 3429              		.type	_Z18swi2c_writeByte_A8hhPh, %function
 3430              	_Z18swi2c_writeByte_A8hhPh:
 3431              	.LFB791:
 3432              		.loc 1 182 0
 3433              		.cfi_startproc
 3434              		@ args = 0, pretend = 0, frame = 8
 3435              		@ frame_needed = 0, uses_anonymous_args = 0
 3436              	.LVL260:
 3437 0000 2DE9F04F 		push	{r4, r5, r6, r7, r8, r9, r10, fp, lr}
 3438              		.cfi_def_cfa_offset 36
 3439              		.cfi_offset 4, -36
 3440              		.cfi_offset 5, -32
 3441              		.cfi_offset 6, -28
 3442              		.cfi_offset 7, -24
 3443              		.cfi_offset 8, -20
 3444              		.cfi_offset 9, -16
 3445              		.cfi_offset 10, -12
 3446              		.cfi_offset 11, -8
 3447              		.cfi_offset 14, -4
 3448              	.LBB1148:
 3449              	.LBB1149:
 3450              		.loc 1 41 0
 3451 0004 894C     		ldr	r4, .L168
 3452              		.loc 1 43 0
 3453 0006 8A4E     		ldr	r6, .L168+4
 3454              	.LBE1149:
 3455              	.LBE1148:
 3456              		.loc 1 182 0
 3457 0008 83B0     		sub	sp, sp, #12
 3458              		.cfi_def_cfa_offset 48
 3459              	.LBB1159:
 3460              	.LBB1156:
 3461              		.loc 1 41 0
 3462 000a 4FF4805A 		mov	r10, #4096
 3463 000e A4F81AA0 		strh	r10, [r4, #26]	@ movhi
 3464              	.LBE1156:
 3465              	.LBE1159:
 3466              		.loc 1 182 0
 3467 0012 8146     		mov	r9, r0
 3468              	.LBB1160:
 3469              	.LBB1157:
 3470              	.LBB1150:
 3471              	.LBB1151:
 3472              		.loc 1 25 0
 3473 0014 0120     		movs	r0, #1
 3474              	.LVL261:
 3475              	.LBE1151:
 3476              	.LBE1150:
 3477              	.LBE1157:
ARM GAS  /tmp/ccUMP9GK.s 			page 62


 3478              	.LBE1160:
 3479              		.loc 1 182 0
 3480 0016 0F46     		mov	r7, r1
 3481 0018 0192     		str	r2, [sp, #4]
 3482              	.LBB1161:
 3483              	.LBB1158:
 3484              	.LBB1153:
 3485              	.LBB1152:
 3486              		.loc 1 25 0
 3487 001a FFF7FEFF 		bl	chThdSleep
 3488              	.LVL262:
 3489              	.LBE1152:
 3490              	.LBE1153:
 3491              		.loc 1 43 0
 3492 001e 0120     		movs	r0, #1
 3493 0020 7083     		strh	r0, [r6, #26]	@ movhi
 3494              	.LBB1154:
 3495              	.LBB1155:
 3496              		.loc 1 25 0
 3497 0022 FFF7FEFF 		bl	chThdSleep
 3498              	.LVL263:
 3499              	.LBE1155:
 3500              	.LBE1154:
 3501              	.LBE1158:
 3502              	.LBE1161:
 3503              		.loc 1 184 0
 3504 0026 4FEA4909 		lsl	r9, r9, #1
 3505              	.LVL264:
 3506              	.LBB1162:
 3507              	.LBB1163:
 3508              		.loc 1 133 0
 3509 002a A346     		mov	fp, r4
 3510 002c 5FFA89F9 		uxtb	r9, r9
 3511              	.LBE1163:
 3512              	.LBE1162:
 3513              		.loc 1 184 0
 3514 0030 0724     		movs	r4, #7
 3515              	.LVL265:
 3516              	.L146:
 3517              	.LBB1190:
 3518              	.LBB1188:
 3519              		.loc 1 130 0
 3520 0032 49FA04F2 		asr	r2, r9, r4
 3521              		.loc 1 135 0
 3522 0036 4FF00108 		mov	r8, #1
 3523              		.loc 1 130 0
 3524 003a D307     		lsls	r3, r2, #31
 3525              	.LBB1164:
 3526              	.LBB1165:
 3527              		.loc 1 25 0
 3528 003c 4046     		mov	r0, r8
 3529              	.LBE1165:
 3530              	.LBE1164:
 3531              		.loc 1 130 0
 3532 003e 40F1DE80 		bpl	.L147
 3533              		.loc 1 131 0
 3534 0042 ABF818A0 		strh	r10, [fp, #24]	@ movhi
ARM GAS  /tmp/ccUMP9GK.s 			page 63


 3535              	.LBB1169:
 3536              	.LBB1166:
 3537              		.loc 1 25 0
 3538 0046 FFF7FEFF 		bl	chThdSleep
 3539              	.LVL266:
 3540              	.LBE1166:
 3541              	.LBE1169:
 3542              	.LBB1170:
 3543              	.LBB1171:
 3544 004a 4046     		mov	r0, r8
 3545              	.LBE1171:
 3546              	.LBE1170:
 3547              		.loc 1 135 0
 3548 004c A6F81880 		strh	r8, [r6, #24]	@ movhi
 3549              	.LBB1175:
 3550              	.LBB1172:
 3551              		.loc 1 25 0
 3552 0050 FFF7FEFF 		bl	chThdSleep
 3553              	.LVL267:
 3554              	.LBE1172:
 3555              	.LBE1175:
 3556              	.LBB1176:
 3557              	.LBB1177:
 3558 0054 4046     		mov	r0, r8
 3559 0056 FFF7FEFF 		bl	chThdSleep
 3560              	.LVL268:
 3561 005a 013C     		subs	r4, r4, #1
 3562              	.LVL269:
 3563              	.LBE1177:
 3564              	.LBE1176:
 3565              		.loc 1 138 0
 3566 005c A6F81A80 		strh	r8, [r6, #26]	@ movhi
 3567              	.LBB1179:
 3568              	.LBB1180:
 3569              		.loc 1 25 0
 3570 0060 4046     		mov	r0, r8
 3571 0062 FFF7FEFF 		bl	chThdSleep
 3572              	.LVL270:
 3573              	.LBE1180:
 3574              	.LBE1179:
 3575              		.loc 1 128 0
 3576 0066 611C     		adds	r1, r4, #1
 3577 0068 E3D1     		bne	.L146
 3578              	.L148:
 3579              	.LBE1188:
 3580              	.LBE1190:
 3581              	.LBB1191:
 3582              	.LBB1192:
 3583              		.loc 1 57 0
 3584 006a 704C     		ldr	r4, .L168
 3585              		.loc 1 59 0
 3586 006c 704E     		ldr	r6, .L168+4
 3587              		.loc 1 57 0
 3588 006e 4FF4805B 		mov	fp, #4096
 3589              	.LBB1193:
 3590              	.LBB1194:
 3591              		.loc 1 25 0
ARM GAS  /tmp/ccUMP9GK.s 			page 64


 3592 0072 0120     		movs	r0, #1
 3593              	.LBE1194:
 3594              	.LBE1193:
 3595              		.loc 1 59 0
 3596 0074 0546     		mov	r5, r0
 3597              		.loc 1 57 0
 3598 0076 A4F818B0 		strh	fp, [r4, #24]	@ movhi
 3599              	.LBB1196:
 3600              	.LBB1195:
 3601              		.loc 1 25 0
 3602 007a FFF7FEFF 		bl	chThdSleep
 3603              	.LVL271:
 3604              	.LBE1195:
 3605              	.LBE1196:
 3606              	.LBB1197:
 3607              	.LBB1198:
 3608 007e 2846     		mov	r0, r5
 3609              	.LBE1198:
 3610              	.LBE1197:
 3611              		.loc 1 59 0
 3612 0080 3583     		strh	r5, [r6, #24]	@ movhi
 3613              	.LBB1200:
 3614              	.LBB1199:
 3615              		.loc 1 25 0
 3616 0082 FFF7FEFF 		bl	chThdSleep
 3617              	.LVL272:
 3618              	.LBE1199:
 3619              	.LBE1200:
 3620              		.loc 1 64 0
 3621 0086 5946     		mov	r1, fp
 3622 0088 2046     		mov	r0, r4
 3623 008a 0522     		movs	r2, #5
 3624              		.loc 1 61 0
 3625 008c 7583     		strh	r5, [r6, #26]	@ movhi
 3626              		.loc 1 63 0
 3627 008e A4F818B0 		strh	fp, [r4, #24]	@ movhi
 3628              		.loc 1 64 0
 3629 0092 FFF7FEFF 		bl	_pal_lld_setgroupmode
 3630              	.LVL273:
 3631              	.LBB1201:
 3632              	.LBB1202:
 3633              		.loc 1 25 0
 3634 0096 2846     		mov	r0, r5
 3635 0098 FFF7FEFF 		bl	chThdSleep
 3636              	.LVL274:
 3637              	.LBE1202:
 3638              	.LBE1201:
 3639              		.loc 1 66 0
 3640 009c 2046     		mov	r0, r4
 3641 009e 5946     		mov	r1, fp
 3642 00a0 0522     		movs	r2, #5
 3643 00a2 FFF7FEFF 		bl	_pal_lld_setgroupmode
 3644              	.LVL275:
 3645              	.LBE1192:
 3646              	.LBE1191:
 3647              	.LBB1204:
 3648              	.LBB1205:
ARM GAS  /tmp/ccUMP9GK.s 			page 65


 3649              		.loc 1 133 0
 3650 00a6 A246     		mov	r10, r4
 3651              		.loc 1 135 0
 3652 00a8 B146     		mov	r9, r6
 3653              	.LBE1205:
 3654              	.LBE1204:
 3655              	.LBB1234:
 3656              	.LBB1203:
 3657              		.loc 1 66 0
 3658 00aa 0724     		movs	r4, #7
 3659              	.LVL276:
 3660              	.L150:
 3661              	.LBE1203:
 3662              	.LBE1234:
 3663              	.LBB1235:
 3664              	.LBB1232:
 3665              		.loc 1 130 0
 3666 00ac 47FA04F3 		asr	r3, r7, r4
 3667              		.loc 1 135 0
 3668 00b0 0126     		movs	r6, #1
 3669              		.loc 1 130 0
 3670 00b2 DB07     		lsls	r3, r3, #31
 3671              	.LBB1206:
 3672              	.LBB1207:
 3673              		.loc 1 25 0
 3674 00b4 3046     		mov	r0, r6
 3675              	.LBE1207:
 3676              	.LBE1206:
 3677              		.loc 1 130 0
 3678 00b6 40F18B80 		bpl	.L151
 3679              		.loc 1 131 0
 3680 00ba AAF818B0 		strh	fp, [r10, #24]	@ movhi
 3681              	.LBB1211:
 3682              	.LBB1208:
 3683              		.loc 1 25 0
 3684 00be FFF7FEFF 		bl	chThdSleep
 3685              	.LVL277:
 3686              	.LBE1208:
 3687              	.LBE1211:
 3688              	.LBB1212:
 3689              	.LBB1213:
 3690 00c2 3046     		mov	r0, r6
 3691              	.LBE1213:
 3692              	.LBE1212:
 3693              		.loc 1 135 0
 3694 00c4 A9F81860 		strh	r6, [r9, #24]	@ movhi
 3695              	.LBB1217:
 3696              	.LBB1214:
 3697              		.loc 1 25 0
 3698 00c8 FFF7FEFF 		bl	chThdSleep
 3699              	.LVL278:
 3700              	.LBE1214:
 3701              	.LBE1217:
 3702              	.LBB1218:
 3703              	.LBB1219:
 3704 00cc 3046     		mov	r0, r6
 3705 00ce FFF7FEFF 		bl	chThdSleep
ARM GAS  /tmp/ccUMP9GK.s 			page 66


 3706              	.LVL279:
 3707 00d2 013C     		subs	r4, r4, #1
 3708              	.LVL280:
 3709              	.LBE1219:
 3710              	.LBE1218:
 3711              		.loc 1 138 0
 3712 00d4 A9F81A60 		strh	r6, [r9, #26]	@ movhi
 3713              	.LBB1221:
 3714              	.LBB1222:
 3715              		.loc 1 25 0
 3716 00d8 3046     		mov	r0, r6
 3717 00da FFF7FEFF 		bl	chThdSleep
 3718              	.LVL281:
 3719              	.LBE1222:
 3720              	.LBE1221:
 3721              		.loc 1 128 0
 3722 00de 651C     		adds	r5, r4, #1
 3723 00e0 E4D1     		bne	.L150
 3724              	.L152:
 3725              	.LBE1232:
 3726              	.LBE1235:
 3727              	.LBB1236:
 3728              	.LBB1237:
 3729              		.loc 1 57 0
 3730 00e2 524C     		ldr	r4, .L168
 3731              		.loc 1 59 0
 3732 00e4 524F     		ldr	r7, .L168+4
 3733              		.loc 1 57 0
 3734 00e6 4FF48059 		mov	r9, #4096
 3735              	.LBB1238:
 3736              	.LBB1239:
 3737              		.loc 1 25 0
 3738 00ea 0120     		movs	r0, #1
 3739              	.LBE1239:
 3740              	.LBE1238:
 3741              		.loc 1 59 0
 3742 00ec 0546     		mov	r5, r0
 3743              		.loc 1 57 0
 3744 00ee A4F81890 		strh	r9, [r4, #24]	@ movhi
 3745              	.LBB1241:
 3746              	.LBB1240:
 3747              		.loc 1 25 0
 3748 00f2 FFF7FEFF 		bl	chThdSleep
 3749              	.LVL282:
 3750              	.LBE1240:
 3751              	.LBE1241:
 3752              	.LBB1242:
 3753              	.LBB1243:
 3754 00f6 2846     		mov	r0, r5
 3755              	.LBE1243:
 3756              	.LBE1242:
 3757              		.loc 1 59 0
 3758 00f8 3D83     		strh	r5, [r7, #24]	@ movhi
 3759              	.LBB1245:
 3760              	.LBB1244:
 3761              		.loc 1 25 0
 3762 00fa FFF7FEFF 		bl	chThdSleep
ARM GAS  /tmp/ccUMP9GK.s 			page 67


 3763              	.LVL283:
 3764              	.LBE1244:
 3765              	.LBE1245:
 3766              		.loc 1 64 0
 3767 00fe 4946     		mov	r1, r9
 3768 0100 2046     		mov	r0, r4
 3769 0102 0522     		movs	r2, #5
 3770              		.loc 1 61 0
 3771 0104 7D83     		strh	r5, [r7, #26]	@ movhi
 3772              		.loc 1 63 0
 3773 0106 A4F81890 		strh	r9, [r4, #24]	@ movhi
 3774              		.loc 1 64 0
 3775 010a FFF7FEFF 		bl	_pal_lld_setgroupmode
 3776              	.LVL284:
 3777              	.LBB1246:
 3778              	.LBB1247:
 3779              		.loc 1 25 0
 3780 010e 2846     		mov	r0, r5
 3781 0110 FFF7FEFF 		bl	chThdSleep
 3782              	.LVL285:
 3783              	.LBE1247:
 3784              	.LBE1246:
 3785              		.loc 1 66 0
 3786 0114 2046     		mov	r0, r4
 3787 0116 4946     		mov	r1, r9
 3788 0118 0522     		movs	r2, #5
 3789 011a FFF7FEFF 		bl	_pal_lld_setgroupmode
 3790              	.LVL286:
 3791 011e 019B     		ldr	r3, [sp, #4]
 3792 0120 93F800A0 		ldrb	r10, [r3]	@ zero_extendqisi2
 3793              	.LBE1237:
 3794              	.LBE1236:
 3795              	.LBB1248:
 3796              	.LBB1249:
 3797              		.loc 1 133 0
 3798 0124 A046     		mov	r8, r4
 3799              	.LBE1249:
 3800              	.LBE1248:
 3801              		.loc 1 190 0
 3802 0126 0724     		movs	r4, #7
 3803              	.LVL287:
 3804              	.L154:
 3805              	.LBB1276:
 3806              	.LBB1274:
 3807              		.loc 1 130 0
 3808 0128 4AFA04F3 		asr	r3, r10, r4
 3809              		.loc 1 135 0
 3810 012c 0126     		movs	r6, #1
 3811              		.loc 1 130 0
 3812 012e D907     		lsls	r1, r3, #31
 3813              	.LBB1250:
 3814              	.LBB1251:
 3815              		.loc 1 25 0
 3816 0130 3046     		mov	r0, r6
 3817              	.LBE1251:
 3818              	.LBE1250:
 3819              		.loc 1 130 0
ARM GAS  /tmp/ccUMP9GK.s 			page 68


 3820 0132 39D5     		bpl	.L155
 3821              		.loc 1 131 0
 3822 0134 A8F81890 		strh	r9, [r8, #24]	@ movhi
 3823              	.LBB1255:
 3824              	.LBB1252:
 3825              		.loc 1 25 0
 3826 0138 FFF7FEFF 		bl	chThdSleep
 3827              	.LVL288:
 3828              	.LBE1252:
 3829              	.LBE1255:
 3830              	.LBB1256:
 3831              	.LBB1257:
 3832 013c 3046     		mov	r0, r6
 3833              	.LBE1257:
 3834              	.LBE1256:
 3835              		.loc 1 135 0
 3836 013e 3E83     		strh	r6, [r7, #24]	@ movhi
 3837              	.LBB1261:
 3838              	.LBB1258:
 3839              		.loc 1 25 0
 3840 0140 FFF7FEFF 		bl	chThdSleep
 3841              	.LVL289:
 3842              	.LBE1258:
 3843              	.LBE1261:
 3844              	.LBB1262:
 3845              	.LBB1263:
 3846 0144 3046     		mov	r0, r6
 3847 0146 FFF7FEFF 		bl	chThdSleep
 3848              	.LVL290:
 3849 014a 013C     		subs	r4, r4, #1
 3850              	.LVL291:
 3851              	.LBE1263:
 3852              	.LBE1262:
 3853              		.loc 1 138 0
 3854 014c 7E83     		strh	r6, [r7, #26]	@ movhi
 3855              	.LBB1265:
 3856              	.LBB1266:
 3857              		.loc 1 25 0
 3858 014e 3046     		mov	r0, r6
 3859 0150 FFF7FEFF 		bl	chThdSleep
 3860              	.LVL292:
 3861              	.LBE1266:
 3862              	.LBE1265:
 3863              		.loc 1 128 0
 3864 0154 621C     		adds	r2, r4, #1
 3865 0156 E7D1     		bne	.L154
 3866              	.L156:
 3867              	.LVL293:
 3868              	.LBE1274:
 3869              	.LBE1276:
 3870              	.LBB1277:
 3871              	.LBB1278:
 3872              		.loc 1 57 0
 3873 0158 344D     		ldr	r5, .L168
 3874              		.loc 1 59 0
 3875 015a 354F     		ldr	r7, .L168+4
 3876              		.loc 1 57 0
ARM GAS  /tmp/ccUMP9GK.s 			page 69


 3877 015c 4FF48056 		mov	r6, #4096
 3878              	.LBB1279:
 3879              	.LBB1280:
 3880              		.loc 1 25 0
 3881 0160 0120     		movs	r0, #1
 3882              	.LBE1280:
 3883              	.LBE1279:
 3884              		.loc 1 59 0
 3885 0162 0446     		mov	r4, r0
 3886              		.loc 1 57 0
 3887 0164 2E83     		strh	r6, [r5, #24]	@ movhi
 3888              	.LBB1282:
 3889              	.LBB1281:
 3890              		.loc 1 25 0
 3891 0166 FFF7FEFF 		bl	chThdSleep
 3892              	.LVL294:
 3893              	.LBE1281:
 3894              	.LBE1282:
 3895              	.LBB1283:
 3896              	.LBB1284:
 3897 016a 2046     		mov	r0, r4
 3898              	.LBE1284:
 3899              	.LBE1283:
 3900              		.loc 1 59 0
 3901 016c 3C83     		strh	r4, [r7, #24]	@ movhi
 3902              	.LBB1286:
 3903              	.LBB1285:
 3904              		.loc 1 25 0
 3905 016e FFF7FEFF 		bl	chThdSleep
 3906              	.LVL295:
 3907              	.LBE1285:
 3908              	.LBE1286:
 3909              		.loc 1 64 0
 3910 0172 3146     		mov	r1, r6
 3911              		.loc 1 61 0
 3912 0174 7C83     		strh	r4, [r7, #26]	@ movhi
 3913              		.loc 1 64 0
 3914 0176 2846     		mov	r0, r5
 3915 0178 0522     		movs	r2, #5
 3916              		.loc 1 63 0
 3917 017a 2E83     		strh	r6, [r5, #24]	@ movhi
 3918              		.loc 1 64 0
 3919 017c FFF7FEFF 		bl	_pal_lld_setgroupmode
 3920              	.LVL296:
 3921              	.LBB1287:
 3922              	.LBB1288:
 3923              		.loc 1 25 0
 3924 0180 2046     		mov	r0, r4
 3925 0182 FFF7FEFF 		bl	chThdSleep
 3926              	.LVL297:
 3927              	.LBE1288:
 3928              	.LBE1287:
 3929              		.loc 1 66 0
 3930 0186 3146     		mov	r1, r6
 3931 0188 0522     		movs	r2, #5
 3932 018a 2846     		mov	r0, r5
 3933 018c FFF7FEFF 		bl	_pal_lld_setgroupmode
ARM GAS  /tmp/ccUMP9GK.s 			page 70


 3934              	.LVL298:
 3935              	.LBE1278:
 3936              	.LBE1277:
 3937              	.LBB1289:
 3938              	.LBB1290:
 3939              	.LBB1291:
 3940              	.LBB1292:
 3941              		.loc 1 25 0
 3942 0190 2046     		mov	r0, r4
 3943              	.LBE1292:
 3944              	.LBE1291:
 3945              		.loc 1 49 0
 3946 0192 3C83     		strh	r4, [r7, #24]	@ movhi
 3947              	.LBB1294:
 3948              	.LBB1293:
 3949              		.loc 1 25 0
 3950 0194 FFF7FEFF 		bl	chThdSleep
 3951              	.LVL299:
 3952              	.LBE1293:
 3953              	.LBE1294:
 3954              	.LBB1295:
 3955              	.LBB1296:
 3956 0198 2046     		mov	r0, r4
 3957              	.LBE1296:
 3958              	.LBE1295:
 3959              		.loc 1 51 0
 3960 019a 2E83     		strh	r6, [r5, #24]	@ movhi
 3961              	.LBB1298:
 3962              	.LBB1297:
 3963              		.loc 1 25 0
 3964 019c FFF7FEFF 		bl	chThdSleep
 3965              	.LVL300:
 3966              	.LBE1297:
 3967              	.LBE1298:
 3968              	.LBE1290:
 3969              	.LBE1289:
 3970              		.loc 1 195 0
 3971 01a0 2046     		mov	r0, r4
 3972 01a2 03B0     		add	sp, sp, #12
 3973              		.cfi_remember_state
 3974              		.cfi_def_cfa_offset 36
 3975              		@ sp needed
 3976 01a4 BDE8F08F 		pop	{r4, r5, r6, r7, r8, r9, r10, fp, pc}
 3977              	.LVL301:
 3978              	.L155:
 3979              		.cfi_restore_state
 3980              	.LBB1299:
 3981              	.LBB1275:
 3982              	.LBB1268:
 3983              	.LBB1253:
 3984              		.loc 1 25 0
 3985 01a8 0120     		movs	r0, #1
 3986              	.LBE1253:
 3987              	.LBE1268:
 3988              		.loc 1 133 0
 3989 01aa A8F81A90 		strh	r9, [r8, #26]	@ movhi
 3990              	.LBB1269:
ARM GAS  /tmp/ccUMP9GK.s 			page 71


 3991              	.LBB1254:
 3992              		.loc 1 25 0
 3993 01ae FFF7FEFF 		bl	chThdSleep
 3994              	.LVL302:
 3995              	.LBE1254:
 3996              	.LBE1269:
 3997              	.LBB1270:
 3998              	.LBB1259:
 3999 01b2 3046     		mov	r0, r6
 4000              	.LBE1259:
 4001              	.LBE1270:
 4002              		.loc 1 135 0
 4003 01b4 3E83     		strh	r6, [r7, #24]	@ movhi
 4004              	.LBB1271:
 4005              	.LBB1260:
 4006              		.loc 1 25 0
 4007 01b6 FFF7FEFF 		bl	chThdSleep
 4008              	.LVL303:
 4009              	.LBE1260:
 4010              	.LBE1271:
 4011              	.LBB1272:
 4012              	.LBB1264:
 4013 01ba 3046     		mov	r0, r6
 4014 01bc FFF7FEFF 		bl	chThdSleep
 4015              	.LVL304:
 4016 01c0 013C     		subs	r4, r4, #1
 4017              	.LVL305:
 4018              	.LBE1264:
 4019              	.LBE1272:
 4020              		.loc 1 138 0
 4021 01c2 7E83     		strh	r6, [r7, #26]	@ movhi
 4022              	.LBB1273:
 4023              	.LBB1267:
 4024              		.loc 1 25 0
 4025 01c4 3046     		mov	r0, r6
 4026 01c6 FFF7FEFF 		bl	chThdSleep
 4027              	.LVL306:
 4028              	.LBE1267:
 4029              	.LBE1273:
 4030              		.loc 1 128 0
 4031 01ca 631C     		adds	r3, r4, #1
 4032 01cc ACD1     		bne	.L154
 4033 01ce C3E7     		b	.L156
 4034              	.LVL307:
 4035              	.L151:
 4036              	.LBE1275:
 4037              	.LBE1299:
 4038              	.LBB1300:
 4039              	.LBB1233:
 4040              	.LBB1225:
 4041              	.LBB1209:
 4042              		.loc 1 25 0
 4043 01d0 0120     		movs	r0, #1
 4044              	.LBE1209:
 4045              	.LBE1225:
 4046              		.loc 1 133 0
 4047 01d2 AAF81AB0 		strh	fp, [r10, #26]	@ movhi
ARM GAS  /tmp/ccUMP9GK.s 			page 72


 4048              	.LBB1226:
 4049              	.LBB1210:
 4050              		.loc 1 25 0
 4051 01d6 FFF7FEFF 		bl	chThdSleep
 4052              	.LVL308:
 4053              	.LBE1210:
 4054              	.LBE1226:
 4055              	.LBB1227:
 4056              	.LBB1215:
 4057 01da 3046     		mov	r0, r6
 4058              	.LBE1215:
 4059              	.LBE1227:
 4060              		.loc 1 135 0
 4061 01dc A9F81860 		strh	r6, [r9, #24]	@ movhi
 4062              	.LBB1228:
 4063              	.LBB1216:
 4064              		.loc 1 25 0
 4065 01e0 FFF7FEFF 		bl	chThdSleep
 4066              	.LVL309:
 4067              	.LBE1216:
 4068              	.LBE1228:
 4069              	.LBB1229:
 4070              	.LBB1220:
 4071 01e4 3046     		mov	r0, r6
 4072 01e6 FFF7FEFF 		bl	chThdSleep
 4073              	.LVL310:
 4074 01ea 013C     		subs	r4, r4, #1
 4075              	.LVL311:
 4076              	.LBE1220:
 4077              	.LBE1229:
 4078              	.LBB1230:
 4079              	.LBB1223:
 4080 01ec 3046     		mov	r0, r6
 4081              	.LBE1223:
 4082              	.LBE1230:
 4083              		.loc 1 138 0
 4084 01ee A9F81A60 		strh	r6, [r9, #26]	@ movhi
 4085              	.LBB1231:
 4086              	.LBB1224:
 4087              		.loc 1 25 0
 4088 01f2 FFF7FEFF 		bl	chThdSleep
 4089              	.LVL312:
 4090              	.LBE1224:
 4091              	.LBE1231:
 4092              		.loc 1 128 0
 4093 01f6 601C     		adds	r0, r4, #1
 4094 01f8 7FF458AF 		bne	.L150
 4095 01fc 71E7     		b	.L152
 4096              	.LVL313:
 4097              	.L147:
 4098              	.LBE1233:
 4099              	.LBE1300:
 4100              	.LBB1301:
 4101              	.LBB1189:
 4102              	.LBB1182:
 4103              	.LBB1167:
 4104              		.loc 1 25 0
ARM GAS  /tmp/ccUMP9GK.s 			page 73


 4105 01fe 0120     		movs	r0, #1
 4106              	.LBE1167:
 4107              	.LBE1182:
 4108              		.loc 1 133 0
 4109 0200 ABF81AA0 		strh	r10, [fp, #26]	@ movhi
 4110              	.LBB1183:
 4111              	.LBB1168:
 4112              		.loc 1 25 0
 4113 0204 FFF7FEFF 		bl	chThdSleep
 4114              	.LVL314:
 4115              	.LBE1168:
 4116              	.LBE1183:
 4117              	.LBB1184:
 4118              	.LBB1173:
 4119 0208 4046     		mov	r0, r8
 4120              	.LBE1173:
 4121              	.LBE1184:
 4122              		.loc 1 135 0
 4123 020a A6F81880 		strh	r8, [r6, #24]	@ movhi
 4124              	.LBB1185:
 4125              	.LBB1174:
 4126              		.loc 1 25 0
 4127 020e FFF7FEFF 		bl	chThdSleep
 4128              	.LVL315:
 4129              	.LBE1174:
 4130              	.LBE1185:
 4131              	.LBB1186:
 4132              	.LBB1178:
 4133 0212 4046     		mov	r0, r8
 4134 0214 FFF7FEFF 		bl	chThdSleep
 4135              	.LVL316:
 4136 0218 013C     		subs	r4, r4, #1
 4137              	.LVL317:
 4138              	.LBE1178:
 4139              	.LBE1186:
 4140              		.loc 1 138 0
 4141 021a A6F81A80 		strh	r8, [r6, #26]	@ movhi
 4142              	.LBB1187:
 4143              	.LBB1181:
 4144              		.loc 1 25 0
 4145 021e 4046     		mov	r0, r8
 4146 0220 FFF7FEFF 		bl	chThdSleep
 4147              	.LVL318:
 4148              	.LBE1181:
 4149              	.LBE1187:
 4150              		.loc 1 128 0
 4151 0224 621C     		adds	r2, r4, #1
 4152 0226 7FF404AF 		bne	.L146
 4153 022a 1EE7     		b	.L148
 4154              	.L169:
 4155              		.align	2
 4156              	.L168:
 4157 022c 001C0240 		.word	1073880064
 4158 0230 00200240 		.word	1073881088
 4159              	.LBE1189:
 4160              	.LBE1301:
 4161              		.cfi_endproc
ARM GAS  /tmp/ccUMP9GK.s 			page 74


 4162              	.LFE791:
 4163              		.size	_Z18swi2c_writeByte_A8hhPh, .-_Z18swi2c_writeByte_A8hhPh
 4164              		.section	.text._Z14pat9125_rd_regh,"ax",%progbits
 4165              		.align	1
 4166              		.p2align 2,,3
 4167              		.global	_Z14pat9125_rd_regh
 4168              		.syntax unified
 4169              		.thumb
 4170              		.thumb_func
 4171              		.fpu fpv4-sp-d16
 4172              		.type	_Z14pat9125_rd_regh, %function
 4173              	_Z14pat9125_rd_regh:
 4174              	.LFB793:
 4175              		.loc 1 265 0
 4176              		.cfi_startproc
 4177              		@ args = 0, pretend = 0, frame = 8
 4178              		@ frame_needed = 0, uses_anonymous_args = 0
 4179              	.LVL319:
 4180 0000 00B5     		push	{lr}
 4181              		.cfi_def_cfa_offset 4
 4182              		.cfi_offset 14, -4
 4183 0002 83B0     		sub	sp, sp, #12
 4184              		.cfi_def_cfa_offset 16
 4185              		.loc 1 266 0
 4186 0004 02A9     		add	r1, sp, #8
 4187 0006 0023     		movs	r3, #0
 4188 0008 01F8013D 		strb	r3, [r1, #-1]!
 4189              		.loc 1 267 0
 4190 000c FFF7FEFF 		bl	_Z17swi2c_readByte_A8hhPh.constprop.3
 4191              	.LVL320:
 4192              		.loc 1 269 0
 4193 0010 9DF80700 		ldrb	r0, [sp, #7]	@ zero_extendqisi2
 4194 0014 03B0     		add	sp, sp, #12
 4195              		.cfi_def_cfa_offset 4
 4196              		@ sp needed
 4197 0016 5DF804FB 		ldr	pc, [sp], #4
 4198              		.cfi_endproc
 4199              	.LFE793:
 4200              		.size	_Z14pat9125_rd_regh, .-_Z14pat9125_rd_regh
 4201 001a 00BF     		.section	.text._Z14pat9125_wr_reghh,"ax",%progbits
 4202              		.align	1
 4203              		.p2align 2,,3
 4204              		.global	_Z14pat9125_wr_reghh
 4205              		.syntax unified
 4206              		.thumb
 4207              		.thumb_func
 4208              		.fpu fpv4-sp-d16
 4209              		.type	_Z14pat9125_wr_reghh, %function
 4210              	_Z14pat9125_wr_reghh:
 4211              	.LFB794:
 4212              		.loc 1 271 0
 4213              		.cfi_startproc
 4214              		@ args = 0, pretend = 0, frame = 0
 4215              		@ frame_needed = 0, uses_anonymous_args = 0
 4216              	.LVL321:
 4217 0000 2DE9F84F 		push	{r3, r4, r5, r6, r7, r8, r9, r10, fp, lr}
 4218              		.cfi_def_cfa_offset 40
ARM GAS  /tmp/ccUMP9GK.s 			page 75


 4219              		.cfi_offset 3, -40
 4220              		.cfi_offset 4, -36
 4221              		.cfi_offset 5, -32
 4222              		.cfi_offset 6, -28
 4223              		.cfi_offset 7, -24
 4224              		.cfi_offset 8, -20
 4225              		.cfi_offset 9, -16
 4226              		.cfi_offset 10, -12
 4227              		.cfi_offset 11, -8
 4228              		.cfi_offset 14, -4
 4229              	.LBB1370:
 4230              	.LBB1371:
 4231              	.LBB1372:
 4232              		.loc 1 41 0
 4233 0004 884D     		ldr	r5, .L195
 4234              		.loc 1 43 0
 4235 0006 894C     		ldr	r4, .L195+4
 4236              		.loc 1 41 0
 4237 0008 4FF48053 		mov	r3, #4096
 4238 000c 6B83     		strh	r3, [r5, #26]	@ movhi
 4239              	.LBE1372:
 4240              	.LBE1371:
 4241              	.LBE1370:
 4242              		.loc 1 271 0
 4243 000e 8046     		mov	r8, r0
 4244              	.LVL322:
 4245              	.LBB1529:
 4246              	.LBB1384:
 4247              	.LBB1381:
 4248              	.LBB1373:
 4249              	.LBB1374:
 4250              		.loc 1 25 0
 4251 0010 0120     		movs	r0, #1
 4252              	.LVL323:
 4253              	.LBE1374:
 4254              	.LBE1373:
 4255              	.LBE1381:
 4256              	.LBE1384:
 4257              	.LBE1529:
 4258              		.loc 1 271 0
 4259 0012 0F46     		mov	r7, r1
 4260              	.LBB1530:
 4261              	.LBB1385:
 4262              	.LBB1382:
 4263              	.LBB1376:
 4264              	.LBB1375:
 4265              		.loc 1 25 0
 4266 0014 FFF7FEFF 		bl	chThdSleep
 4267              	.LVL324:
 4268              	.LBE1375:
 4269              	.LBE1376:
 4270              		.loc 1 43 0
 4271 0018 0120     		movs	r0, #1
 4272 001a 6083     		strh	r0, [r4, #26]	@ movhi
 4273              	.LBB1377:
 4274              	.LBB1378:
 4275              		.loc 1 25 0
ARM GAS  /tmp/ccUMP9GK.s 			page 76


 4276 001c FFF7FEFF 		bl	chThdSleep
 4277              	.LVL325:
 4278              	.LBE1378:
 4279              	.LBE1377:
 4280              	.LBE1382:
 4281              	.LBE1385:
 4282              	.LBB1386:
 4283              	.LBB1387:
 4284              		.loc 1 135 0
 4285 0020 A146     		mov	r9, r4
 4286              		.loc 1 133 0
 4287 0022 AA46     		mov	r10, r5
 4288              	.LBE1387:
 4289              	.LBE1386:
 4290              	.LBB1412:
 4291              	.LBB1383:
 4292              	.LBB1380:
 4293              	.LBB1379:
 4294              		.loc 1 25 0
 4295 0024 0724     		movs	r4, #7
 4296              	.LBE1379:
 4297              	.LBE1380:
 4298              	.LBE1383:
 4299              	.LBE1412:
 4300              	.LBB1413:
 4301              	.LBB1410:
 4302              		.loc 1 130 0
 4303 0026 4FF0800B 		mov	fp, #128
 4304              	.LVL326:
 4305              	.L173:
 4306 002a 4BFA04F3 		asr	r3, fp, r4
 4307              		.loc 1 135 0
 4308 002e 0126     		movs	r6, #1
 4309              		.loc 1 130 0
 4310 0030 DB07     		lsls	r3, r3, #31
 4311              		.loc 1 131 0
 4312 0032 4FF48051 		mov	r1, #4096
 4313              	.LBB1388:
 4314              	.LBB1389:
 4315              		.loc 1 25 0
 4316 0036 3046     		mov	r0, r6
 4317              	.LBE1389:
 4318              	.LBE1388:
 4319              		.loc 1 130 0
 4320 0038 40F1DE80 		bpl	.L174
 4321              		.loc 1 131 0
 4322 003c AAF81810 		strh	r1, [r10, #24]	@ movhi
 4323              	.LBB1392:
 4324              	.LBB1390:
 4325              		.loc 1 25 0
 4326 0040 FFF7FEFF 		bl	chThdSleep
 4327              	.LVL327:
 4328              	.LBE1390:
 4329              	.LBE1392:
 4330              	.LBB1393:
 4331              	.LBB1394:
 4332 0044 3046     		mov	r0, r6
ARM GAS  /tmp/ccUMP9GK.s 			page 77


 4333              	.LBE1394:
 4334              	.LBE1393:
 4335              		.loc 1 135 0
 4336 0046 A9F81860 		strh	r6, [r9, #24]	@ movhi
 4337              	.LBB1398:
 4338              	.LBB1395:
 4339              		.loc 1 25 0
 4340 004a FFF7FEFF 		bl	chThdSleep
 4341              	.LVL328:
 4342              	.LBE1395:
 4343              	.LBE1398:
 4344              	.LBB1399:
 4345              	.LBB1400:
 4346 004e 3046     		mov	r0, r6
 4347 0050 FFF7FEFF 		bl	chThdSleep
 4348              	.LVL329:
 4349 0054 013C     		subs	r4, r4, #1
 4350              	.LVL330:
 4351              	.LBE1400:
 4352              	.LBE1399:
 4353              		.loc 1 138 0
 4354 0056 A9F81A60 		strh	r6, [r9, #26]	@ movhi
 4355              	.LBB1402:
 4356              	.LBB1403:
 4357              		.loc 1 25 0
 4358 005a 3046     		mov	r0, r6
 4359 005c FFF7FEFF 		bl	chThdSleep
 4360              	.LVL331:
 4361              	.LBE1403:
 4362              	.LBE1402:
 4363              		.loc 1 128 0
 4364 0060 611C     		adds	r1, r4, #1
 4365 0062 E2D1     		bne	.L173
 4366              	.L175:
 4367              	.LVL332:
 4368              	.LBE1410:
 4369              	.LBE1413:
 4370              	.LBB1414:
 4371              	.LBB1415:
 4372              		.loc 1 57 0
 4373 0064 704C     		ldr	r4, .L195
 4374              		.loc 1 59 0
 4375 0066 714E     		ldr	r6, .L195+4
 4376              		.loc 1 57 0
 4377 0068 4FF4805B 		mov	fp, #4096
 4378              	.LBB1416:
 4379              	.LBB1417:
 4380              		.loc 1 25 0
 4381 006c 0120     		movs	r0, #1
 4382              	.LBE1417:
 4383              	.LBE1416:
 4384              		.loc 1 59 0
 4385 006e 0546     		mov	r5, r0
 4386              		.loc 1 57 0
 4387 0070 A4F818B0 		strh	fp, [r4, #24]	@ movhi
 4388              	.LBB1419:
 4389              	.LBB1418:
ARM GAS  /tmp/ccUMP9GK.s 			page 78


 4390              		.loc 1 25 0
 4391 0074 FFF7FEFF 		bl	chThdSleep
 4392              	.LVL333:
 4393              	.LBE1418:
 4394              	.LBE1419:
 4395              	.LBB1420:
 4396              	.LBB1421:
 4397 0078 2846     		mov	r0, r5
 4398              	.LBE1421:
 4399              	.LBE1420:
 4400              		.loc 1 59 0
 4401 007a 3583     		strh	r5, [r6, #24]	@ movhi
 4402              	.LBB1423:
 4403              	.LBB1422:
 4404              		.loc 1 25 0
 4405 007c FFF7FEFF 		bl	chThdSleep
 4406              	.LVL334:
 4407              	.LBE1422:
 4408              	.LBE1423:
 4409              		.loc 1 64 0
 4410 0080 5946     		mov	r1, fp
 4411 0082 2046     		mov	r0, r4
 4412 0084 0522     		movs	r2, #5
 4413              		.loc 1 61 0
 4414 0086 7583     		strh	r5, [r6, #26]	@ movhi
 4415              		.loc 1 63 0
 4416 0088 A4F818B0 		strh	fp, [r4, #24]	@ movhi
 4417              		.loc 1 64 0
 4418 008c FFF7FEFF 		bl	_pal_lld_setgroupmode
 4419              	.LVL335:
 4420              	.LBB1424:
 4421              	.LBB1425:
 4422              		.loc 1 25 0
 4423 0090 2846     		mov	r0, r5
 4424 0092 FFF7FEFF 		bl	chThdSleep
 4425              	.LVL336:
 4426              	.LBE1425:
 4427              	.LBE1424:
 4428              		.loc 1 66 0
 4429 0096 2046     		mov	r0, r4
 4430 0098 5946     		mov	r1, fp
 4431 009a 0522     		movs	r2, #5
 4432 009c FFF7FEFF 		bl	_pal_lld_setgroupmode
 4433              	.LVL337:
 4434              	.LBE1415:
 4435              	.LBE1414:
 4436              	.LBB1427:
 4437              	.LBB1428:
 4438              		.loc 1 133 0
 4439 00a0 A246     		mov	r10, r4
 4440              		.loc 1 135 0
 4441 00a2 B146     		mov	r9, r6
 4442              	.LBE1428:
 4443              	.LBE1427:
 4444              	.LBB1457:
 4445              	.LBB1426:
 4446              		.loc 1 66 0
ARM GAS  /tmp/ccUMP9GK.s 			page 79


 4447 00a4 0724     		movs	r4, #7
 4448              	.LVL338:
 4449              	.L177:
 4450              	.LBE1426:
 4451              	.LBE1457:
 4452              	.LBB1458:
 4453              	.LBB1455:
 4454              		.loc 1 130 0
 4455 00a6 48FA04F3 		asr	r3, r8, r4
 4456              		.loc 1 135 0
 4457 00aa 0126     		movs	r6, #1
 4458              		.loc 1 130 0
 4459 00ac DB07     		lsls	r3, r3, #31
 4460              	.LBB1429:
 4461              	.LBB1430:
 4462              		.loc 1 25 0
 4463 00ae 3046     		mov	r0, r6
 4464              	.LBE1430:
 4465              	.LBE1429:
 4466              		.loc 1 130 0
 4467 00b0 40F18B80 		bpl	.L178
 4468              		.loc 1 131 0
 4469 00b4 AAF818B0 		strh	fp, [r10, #24]	@ movhi
 4470              	.LBB1434:
 4471              	.LBB1431:
 4472              		.loc 1 25 0
 4473 00b8 FFF7FEFF 		bl	chThdSleep
 4474              	.LVL339:
 4475              	.LBE1431:
 4476              	.LBE1434:
 4477              	.LBB1435:
 4478              	.LBB1436:
 4479 00bc 3046     		mov	r0, r6
 4480              	.LBE1436:
 4481              	.LBE1435:
 4482              		.loc 1 135 0
 4483 00be A9F81860 		strh	r6, [r9, #24]	@ movhi
 4484              	.LBB1440:
 4485              	.LBB1437:
 4486              		.loc 1 25 0
 4487 00c2 FFF7FEFF 		bl	chThdSleep
 4488              	.LVL340:
 4489              	.LBE1437:
 4490              	.LBE1440:
 4491              	.LBB1441:
 4492              	.LBB1442:
 4493 00c6 3046     		mov	r0, r6
 4494 00c8 FFF7FEFF 		bl	chThdSleep
 4495              	.LVL341:
 4496 00cc 013C     		subs	r4, r4, #1
 4497              	.LVL342:
 4498              	.LBE1442:
 4499              	.LBE1441:
 4500              		.loc 1 138 0
 4501 00ce A9F81A60 		strh	r6, [r9, #26]	@ movhi
 4502              	.LBB1444:
 4503              	.LBB1445:
ARM GAS  /tmp/ccUMP9GK.s 			page 80


 4504              		.loc 1 25 0
 4505 00d2 3046     		mov	r0, r6
 4506 00d4 FFF7FEFF 		bl	chThdSleep
 4507              	.LVL343:
 4508              	.LBE1445:
 4509              	.LBE1444:
 4510              		.loc 1 128 0
 4511 00d8 651C     		adds	r5, r4, #1
 4512 00da E4D1     		bne	.L177
 4513              	.L179:
 4514              	.LBE1455:
 4515              	.LBE1458:
 4516              	.LBB1459:
 4517              	.LBB1460:
 4518              		.loc 1 57 0
 4519 00dc 524C     		ldr	r4, .L195
 4520              		.loc 1 59 0
 4521 00de 534E     		ldr	r6, .L195+4
 4522              		.loc 1 57 0
 4523 00e0 4FF4805A 		mov	r10, #4096
 4524              	.LBB1461:
 4525              	.LBB1462:
 4526              		.loc 1 25 0
 4527 00e4 0120     		movs	r0, #1
 4528              	.LBE1462:
 4529              	.LBE1461:
 4530              		.loc 1 59 0
 4531 00e6 0546     		mov	r5, r0
 4532              		.loc 1 57 0
 4533 00e8 A4F818A0 		strh	r10, [r4, #24]	@ movhi
 4534              	.LBB1464:
 4535              	.LBB1463:
 4536              		.loc 1 25 0
 4537 00ec FFF7FEFF 		bl	chThdSleep
 4538              	.LVL344:
 4539              	.LBE1463:
 4540              	.LBE1464:
 4541              	.LBB1465:
 4542              	.LBB1466:
 4543 00f0 2846     		mov	r0, r5
 4544              	.LBE1466:
 4545              	.LBE1465:
 4546              		.loc 1 59 0
 4547 00f2 3583     		strh	r5, [r6, #24]	@ movhi
 4548              	.LBB1468:
 4549              	.LBB1467:
 4550              		.loc 1 25 0
 4551 00f4 FFF7FEFF 		bl	chThdSleep
 4552              	.LVL345:
 4553              	.LBE1467:
 4554              	.LBE1468:
 4555              		.loc 1 64 0
 4556 00f8 5146     		mov	r1, r10
 4557 00fa 2046     		mov	r0, r4
 4558 00fc 0522     		movs	r2, #5
 4559              		.loc 1 61 0
 4560 00fe 7583     		strh	r5, [r6, #26]	@ movhi
ARM GAS  /tmp/ccUMP9GK.s 			page 81


 4561              		.loc 1 63 0
 4562 0100 A4F818A0 		strh	r10, [r4, #24]	@ movhi
 4563              		.loc 1 64 0
 4564 0104 FFF7FEFF 		bl	_pal_lld_setgroupmode
 4565              	.LVL346:
 4566              	.LBB1469:
 4567              	.LBB1470:
 4568              		.loc 1 25 0
 4569 0108 2846     		mov	r0, r5
 4570 010a FFF7FEFF 		bl	chThdSleep
 4571              	.LVL347:
 4572              	.LBE1470:
 4573              	.LBE1469:
 4574              		.loc 1 66 0
 4575 010e 2046     		mov	r0, r4
 4576 0110 5146     		mov	r1, r10
 4577 0112 0522     		movs	r2, #5
 4578 0114 FFF7FEFF 		bl	_pal_lld_setgroupmode
 4579              	.LVL348:
 4580              	.LBE1460:
 4581              	.LBE1459:
 4582              	.LBB1472:
 4583              	.LBB1473:
 4584              		.loc 1 133 0
 4585 0118 A146     		mov	r9, r4
 4586              		.loc 1 135 0
 4587 011a B046     		mov	r8, r6
 4588              	.LVL349:
 4589              	.LBE1473:
 4590              	.LBE1472:
 4591              	.LBB1500:
 4592              	.LBB1471:
 4593              		.loc 1 66 0
 4594 011c 0724     		movs	r4, #7
 4595              	.LVL350:
 4596              	.L181:
 4597              	.LBE1471:
 4598              	.LBE1500:
 4599              	.LBB1501:
 4600              	.LBB1498:
 4601              		.loc 1 130 0
 4602 011e 47FA04F3 		asr	r3, r7, r4
 4603              		.loc 1 135 0
 4604 0122 0126     		movs	r6, #1
 4605              		.loc 1 130 0
 4606 0124 D907     		lsls	r1, r3, #31
 4607              	.LBB1474:
 4608              	.LBB1475:
 4609              		.loc 1 25 0
 4610 0126 3046     		mov	r0, r6
 4611              	.LBE1475:
 4612              	.LBE1474:
 4613              		.loc 1 130 0
 4614 0128 39D5     		bpl	.L182
 4615              		.loc 1 131 0
 4616 012a A9F818A0 		strh	r10, [r9, #24]	@ movhi
 4617              	.LBB1479:
ARM GAS  /tmp/ccUMP9GK.s 			page 82


 4618              	.LBB1476:
 4619              		.loc 1 25 0
 4620 012e FFF7FEFF 		bl	chThdSleep
 4621              	.LVL351:
 4622              	.LBE1476:
 4623              	.LBE1479:
 4624              	.LBB1480:
 4625              	.LBB1481:
 4626 0132 3046     		mov	r0, r6
 4627              	.LBE1481:
 4628              	.LBE1480:
 4629              		.loc 1 135 0
 4630 0134 A8F81860 		strh	r6, [r8, #24]	@ movhi
 4631              	.LBB1485:
 4632              	.LBB1482:
 4633              		.loc 1 25 0
 4634 0138 FFF7FEFF 		bl	chThdSleep
 4635              	.LVL352:
 4636              	.LBE1482:
 4637              	.LBE1485:
 4638              	.LBB1486:
 4639              	.LBB1487:
 4640 013c 3046     		mov	r0, r6
 4641 013e FFF7FEFF 		bl	chThdSleep
 4642              	.LVL353:
 4643 0142 013C     		subs	r4, r4, #1
 4644              	.LVL354:
 4645              	.LBE1487:
 4646              	.LBE1486:
 4647              		.loc 1 138 0
 4648 0144 A8F81A60 		strh	r6, [r8, #26]	@ movhi
 4649              	.LBB1489:
 4650              	.LBB1490:
 4651              		.loc 1 25 0
 4652 0148 3046     		mov	r0, r6
 4653 014a FFF7FEFF 		bl	chThdSleep
 4654              	.LVL355:
 4655              	.LBE1490:
 4656              	.LBE1489:
 4657              		.loc 1 128 0
 4658 014e 621C     		adds	r2, r4, #1
 4659 0150 E5D1     		bne	.L181
 4660              	.L183:
 4661              	.LVL356:
 4662              	.LBE1498:
 4663              	.LBE1501:
 4664              	.LBB1502:
 4665              	.LBB1503:
 4666              		.loc 1 57 0
 4667 0152 354D     		ldr	r5, .L195
 4668              		.loc 1 59 0
 4669 0154 354F     		ldr	r7, .L195+4
 4670              		.loc 1 57 0
 4671 0156 4FF48056 		mov	r6, #4096
 4672              	.LBB1504:
 4673              	.LBB1505:
 4674              		.loc 1 25 0
ARM GAS  /tmp/ccUMP9GK.s 			page 83


 4675 015a 0120     		movs	r0, #1
 4676              	.LBE1505:
 4677              	.LBE1504:
 4678              		.loc 1 59 0
 4679 015c 0446     		mov	r4, r0
 4680              		.loc 1 57 0
 4681 015e 2E83     		strh	r6, [r5, #24]	@ movhi
 4682              	.LBB1507:
 4683              	.LBB1506:
 4684              		.loc 1 25 0
 4685 0160 FFF7FEFF 		bl	chThdSleep
 4686              	.LVL357:
 4687              	.LBE1506:
 4688              	.LBE1507:
 4689              	.LBB1508:
 4690              	.LBB1509:
 4691 0164 2046     		mov	r0, r4
 4692              	.LBE1509:
 4693              	.LBE1508:
 4694              		.loc 1 59 0
 4695 0166 3C83     		strh	r4, [r7, #24]	@ movhi
 4696              	.LBB1511:
 4697              	.LBB1510:
 4698              		.loc 1 25 0
 4699 0168 FFF7FEFF 		bl	chThdSleep
 4700              	.LVL358:
 4701              	.LBE1510:
 4702              	.LBE1511:
 4703              		.loc 1 64 0
 4704 016c 3146     		mov	r1, r6
 4705              		.loc 1 61 0
 4706 016e 7C83     		strh	r4, [r7, #26]	@ movhi
 4707              		.loc 1 64 0
 4708 0170 2846     		mov	r0, r5
 4709 0172 0522     		movs	r2, #5
 4710              		.loc 1 63 0
 4711 0174 2E83     		strh	r6, [r5, #24]	@ movhi
 4712              		.loc 1 64 0
 4713 0176 FFF7FEFF 		bl	_pal_lld_setgroupmode
 4714              	.LVL359:
 4715              	.LBB1512:
 4716              	.LBB1513:
 4717              		.loc 1 25 0
 4718 017a 2046     		mov	r0, r4
 4719 017c FFF7FEFF 		bl	chThdSleep
 4720              	.LVL360:
 4721              	.LBE1513:
 4722              	.LBE1512:
 4723              		.loc 1 66 0
 4724 0180 3146     		mov	r1, r6
 4725 0182 2846     		mov	r0, r5
 4726 0184 0522     		movs	r2, #5
 4727 0186 FFF7FEFF 		bl	_pal_lld_setgroupmode
 4728              	.LVL361:
 4729              	.LBE1503:
 4730              	.LBE1502:
 4731              	.LBB1514:
ARM GAS  /tmp/ccUMP9GK.s 			page 84


 4732              	.LBB1515:
 4733              	.LBB1516:
 4734              	.LBB1517:
 4735              		.loc 1 25 0
 4736 018a 2046     		mov	r0, r4
 4737              	.LBE1517:
 4738              	.LBE1516:
 4739              		.loc 1 49 0
 4740 018c 3C83     		strh	r4, [r7, #24]	@ movhi
 4741              	.LBB1519:
 4742              	.LBB1518:
 4743              		.loc 1 25 0
 4744 018e FFF7FEFF 		bl	chThdSleep
 4745              	.LVL362:
 4746              	.LBE1518:
 4747              	.LBE1519:
 4748              		.loc 1 51 0
 4749 0192 2E83     		strh	r6, [r5, #24]	@ movhi
 4750              	.LBB1520:
 4751              	.LBB1521:
 4752              		.loc 1 25 0
 4753 0194 2046     		mov	r0, r4
 4754              	.LBE1521:
 4755              	.LBE1520:
 4756              	.LBE1515:
 4757              	.LBE1514:
 4758              	.LBE1530:
 4759              		.loc 1 273 0
 4760 0196 BDE8F84F 		pop	{r3, r4, r5, r6, r7, r8, r9, r10, fp, lr}
 4761              		.cfi_remember_state
 4762              		.cfi_restore 14
 4763              		.cfi_restore 11
 4764              		.cfi_restore 10
 4765              		.cfi_restore 9
 4766              		.cfi_restore 8
 4767              		.cfi_restore 7
 4768              		.cfi_restore 6
 4769              		.cfi_restore 5
 4770              		.cfi_restore 4
 4771              		.cfi_restore 3
 4772              		.cfi_def_cfa_offset 0
 4773              	.LBB1531:
 4774              	.LBB1525:
 4775              	.LBB1524:
 4776              	.LBB1523:
 4777              	.LBB1522:
 4778              		.loc 1 25 0
 4779 019a FFF7FEBF 		b	chThdSleep
 4780              	.LVL363:
 4781              	.L182:
 4782              		.cfi_restore_state
 4783              	.LBE1522:
 4784              	.LBE1523:
 4785              	.LBE1524:
 4786              	.LBE1525:
 4787              	.LBB1526:
 4788              	.LBB1499:
ARM GAS  /tmp/ccUMP9GK.s 			page 85


 4789              	.LBB1492:
 4790              	.LBB1477:
 4791 019e 0120     		movs	r0, #1
 4792              	.LBE1477:
 4793              	.LBE1492:
 4794              		.loc 1 133 0
 4795 01a0 A9F81AA0 		strh	r10, [r9, #26]	@ movhi
 4796              	.LBB1493:
 4797              	.LBB1478:
 4798              		.loc 1 25 0
 4799 01a4 FFF7FEFF 		bl	chThdSleep
 4800              	.LVL364:
 4801              	.LBE1478:
 4802              	.LBE1493:
 4803              	.LBB1494:
 4804              	.LBB1483:
 4805 01a8 3046     		mov	r0, r6
 4806              	.LBE1483:
 4807              	.LBE1494:
 4808              		.loc 1 135 0
 4809 01aa A8F81860 		strh	r6, [r8, #24]	@ movhi
 4810              	.LBB1495:
 4811              	.LBB1484:
 4812              		.loc 1 25 0
 4813 01ae FFF7FEFF 		bl	chThdSleep
 4814              	.LVL365:
 4815              	.LBE1484:
 4816              	.LBE1495:
 4817              	.LBB1496:
 4818              	.LBB1488:
 4819 01b2 3046     		mov	r0, r6
 4820 01b4 FFF7FEFF 		bl	chThdSleep
 4821              	.LVL366:
 4822 01b8 013C     		subs	r4, r4, #1
 4823              	.LVL367:
 4824              	.LBE1488:
 4825              	.LBE1496:
 4826              		.loc 1 138 0
 4827 01ba A8F81A60 		strh	r6, [r8, #26]	@ movhi
 4828              	.LBB1497:
 4829              	.LBB1491:
 4830              		.loc 1 25 0
 4831 01be 3046     		mov	r0, r6
 4832 01c0 FFF7FEFF 		bl	chThdSleep
 4833              	.LVL368:
 4834              	.LBE1491:
 4835              	.LBE1497:
 4836              		.loc 1 128 0
 4837 01c4 631C     		adds	r3, r4, #1
 4838 01c6 AAD1     		bne	.L181
 4839 01c8 C3E7     		b	.L183
 4840              	.LVL369:
 4841              	.L178:
 4842              	.LBE1499:
 4843              	.LBE1526:
 4844              	.LBB1527:
 4845              	.LBB1456:
ARM GAS  /tmp/ccUMP9GK.s 			page 86


 4846              	.LBB1448:
 4847              	.LBB1432:
 4848              		.loc 1 25 0
 4849 01ca 0120     		movs	r0, #1
 4850              	.LBE1432:
 4851              	.LBE1448:
 4852              		.loc 1 133 0
 4853 01cc AAF81AB0 		strh	fp, [r10, #26]	@ movhi
 4854              	.LBB1449:
 4855              	.LBB1433:
 4856              		.loc 1 25 0
 4857 01d0 FFF7FEFF 		bl	chThdSleep
 4858              	.LVL370:
 4859              	.LBE1433:
 4860              	.LBE1449:
 4861              	.LBB1450:
 4862              	.LBB1438:
 4863 01d4 3046     		mov	r0, r6
 4864              	.LBE1438:
 4865              	.LBE1450:
 4866              		.loc 1 135 0
 4867 01d6 A9F81860 		strh	r6, [r9, #24]	@ movhi
 4868              	.LBB1451:
 4869              	.LBB1439:
 4870              		.loc 1 25 0
 4871 01da FFF7FEFF 		bl	chThdSleep
 4872              	.LVL371:
 4873              	.LBE1439:
 4874              	.LBE1451:
 4875              	.LBB1452:
 4876              	.LBB1443:
 4877 01de 3046     		mov	r0, r6
 4878 01e0 FFF7FEFF 		bl	chThdSleep
 4879              	.LVL372:
 4880 01e4 013C     		subs	r4, r4, #1
 4881              	.LVL373:
 4882              	.LBE1443:
 4883              	.LBE1452:
 4884              	.LBB1453:
 4885              	.LBB1446:
 4886 01e6 3046     		mov	r0, r6
 4887              	.LBE1446:
 4888              	.LBE1453:
 4889              		.loc 1 138 0
 4890 01e8 A9F81A60 		strh	r6, [r9, #26]	@ movhi
 4891              	.LBB1454:
 4892              	.LBB1447:
 4893              		.loc 1 25 0
 4894 01ec FFF7FEFF 		bl	chThdSleep
 4895              	.LVL374:
 4896              	.LBE1447:
 4897              	.LBE1454:
 4898              		.loc 1 128 0
 4899 01f0 601C     		adds	r0, r4, #1
 4900 01f2 7FF458AF 		bne	.L177
 4901 01f6 71E7     		b	.L179
 4902              	.LVL375:
ARM GAS  /tmp/ccUMP9GK.s 			page 87


 4903              	.L174:
 4904              	.LBE1456:
 4905              	.LBE1527:
 4906              	.LBB1528:
 4907              	.LBB1411:
 4908              		.loc 1 133 0
 4909 01f8 AAF81A10 		strh	r1, [r10, #26]	@ movhi
 4910              	.LBB1405:
 4911              	.LBB1391:
 4912              		.loc 1 25 0
 4913 01fc 0120     		movs	r0, #1
 4914 01fe FFF7FEFF 		bl	chThdSleep
 4915              	.LVL376:
 4916              	.LBE1391:
 4917              	.LBE1405:
 4918              	.LBB1406:
 4919              	.LBB1396:
 4920 0202 3046     		mov	r0, r6
 4921              	.LBE1396:
 4922              	.LBE1406:
 4923              		.loc 1 135 0
 4924 0204 A9F81860 		strh	r6, [r9, #24]	@ movhi
 4925              	.LBB1407:
 4926              	.LBB1397:
 4927              		.loc 1 25 0
 4928 0208 FFF7FEFF 		bl	chThdSleep
 4929              	.LVL377:
 4930              	.LBE1397:
 4931              	.LBE1407:
 4932              	.LBB1408:
 4933              	.LBB1401:
 4934 020c 3046     		mov	r0, r6
 4935 020e FFF7FEFF 		bl	chThdSleep
 4936              	.LVL378:
 4937 0212 013C     		subs	r4, r4, #1
 4938              	.LVL379:
 4939              	.LBE1401:
 4940              	.LBE1408:
 4941              		.loc 1 138 0
 4942 0214 A9F81A60 		strh	r6, [r9, #26]	@ movhi
 4943              	.LBB1409:
 4944              	.LBB1404:
 4945              		.loc 1 25 0
 4946 0218 3046     		mov	r0, r6
 4947 021a FFF7FEFF 		bl	chThdSleep
 4948              	.LVL380:
 4949              	.LBE1404:
 4950              	.LBE1409:
 4951              		.loc 1 128 0
 4952 021e 621C     		adds	r2, r4, #1
 4953 0220 7FF403AF 		bne	.L173
 4954 0224 1EE7     		b	.L175
 4955              	.L196:
 4956 0226 00BF     		.align	2
 4957              	.L195:
 4958 0228 001C0240 		.word	1073880064
 4959 022c 00200240 		.word	1073881088
ARM GAS  /tmp/ccUMP9GK.s 			page 88


 4960              	.LBE1411:
 4961              	.LBE1528:
 4962              	.LBE1531:
 4963              		.cfi_endproc
 4964              	.LFE794:
 4965              		.size	_Z14pat9125_wr_reghh, .-_Z14pat9125_wr_reghh
 4966              		.section	.text._Z11PAT9125initv,"ax",%progbits
 4967              		.align	1
 4968              		.p2align 2,,3
 4969              		.global	_Z11PAT9125initv
 4970              		.syntax unified
 4971              		.thumb
 4972              		.thumb_func
 4973              		.fpu fpv4-sp-d16
 4974              		.type	_Z11PAT9125initv, %function
 4975              	_Z11PAT9125initv:
 4976              	.LFB795:
 4977              		.loc 1 275 0
 4978              		.cfi_startproc
 4979              		@ args = 0, pretend = 0, frame = 16
 4980              		@ frame_needed = 0, uses_anonymous_args = 0
 4981              	.LVL381:
 4982 0000 2DE9F04F 		push	{r4, r5, r6, r7, r8, r9, r10, fp, lr}
 4983              		.cfi_def_cfa_offset 36
 4984              		.cfi_offset 4, -36
 4985              		.cfi_offset 5, -32
 4986              		.cfi_offset 6, -28
 4987              		.cfi_offset 7, -24
 4988              		.cfi_offset 8, -20
 4989              		.cfi_offset 9, -16
 4990              		.cfi_offset 10, -12
 4991              		.cfi_offset 11, -8
 4992              		.cfi_offset 14, -4
 4993              	.LBB2185:
 4994              	.LBB2186:
 4995              	.LBB2187:
 4996              	.LBB2188:
 4997              		.loc 1 41 0
 4998 0004 CE4C     		ldr	r4, .L379
 4999              		.loc 1 43 0
 5000 0006 CF4F     		ldr	r7, .L379+4
 5001              		.loc 1 41 0
 5002 0008 4FF48053 		mov	r3, #4096
 5003 000c 6383     		strh	r3, [r4, #26]	@ movhi
 5004              	.LBE2188:
 5005              	.LBE2187:
 5006              	.LBE2186:
 5007              	.LBE2185:
 5008              		.loc 1 275 0
 5009 000e 85B0     		sub	sp, sp, #20
 5010              		.cfi_def_cfa_offset 56
 5011              	.LBB2322:
 5012              	.LBB2319:
 5013              	.LBB2197:
 5014              	.LBB2195:
 5015              	.LBB2189:
 5016              	.LBB2190:
ARM GAS  /tmp/ccUMP9GK.s 			page 89


 5017              		.loc 1 25 0
 5018 0010 0120     		movs	r0, #1
 5019 0012 FFF7FEFF 		bl	chThdSleep
 5020              	.LVL382:
 5021              	.LBE2190:
 5022              	.LBE2189:
 5023              		.loc 1 43 0
 5024 0016 0120     		movs	r0, #1
 5025 0018 7883     		strh	r0, [r7, #26]	@ movhi
 5026              	.LBB2191:
 5027              	.LBB2192:
 5028              		.loc 1 25 0
 5029 001a FFF7FEFF 		bl	chThdSleep
 5030              	.LVL383:
 5031              	.LBE2192:
 5032              	.LBE2191:
 5033              	.LBE2195:
 5034              	.LBE2197:
 5035              	.LBB2198:
 5036              	.LBB2199:
 5037              		.loc 1 133 0
 5038 001e A046     		mov	r8, r4
 5039              		.loc 1 130 0
 5040 0020 4FF08009 		mov	r9, #128
 5041              	.LBE2199:
 5042              	.LBE2198:
 5043              	.LBB2224:
 5044              	.LBB2196:
 5045              	.LBB2194:
 5046              	.LBB2193:
 5047              		.loc 1 25 0
 5048 0024 0724     		movs	r4, #7
 5049              	.LVL384:
 5050              	.L198:
 5051              	.LBE2193:
 5052              	.LBE2194:
 5053              	.LBE2196:
 5054              	.LBE2224:
 5055              	.LBB2225:
 5056              	.LBB2222:
 5057              		.loc 1 130 0
 5058 0026 49FA04F3 		asr	r3, r9, r4
 5059              		.loc 1 135 0
 5060 002a 0126     		movs	r6, #1
 5061              		.loc 1 130 0
 5062 002c DB07     		lsls	r3, r3, #31
 5063              		.loc 1 131 0
 5064 002e 4FF48051 		mov	r1, #4096
 5065              	.LBB2200:
 5066              	.LBB2201:
 5067              		.loc 1 25 0
 5068 0032 3046     		mov	r0, r6
 5069              	.LBE2201:
 5070              	.LBE2200:
 5071              		.loc 1 130 0
 5072 0034 40F1E982 		bpl	.L199
 5073              		.loc 1 131 0
ARM GAS  /tmp/ccUMP9GK.s 			page 90


 5074 0038 A8F81810 		strh	r1, [r8, #24]	@ movhi
 5075              	.LBB2204:
 5076              	.LBB2202:
 5077              		.loc 1 25 0
 5078 003c FFF7FEFF 		bl	chThdSleep
 5079              	.LVL385:
 5080              	.LBE2202:
 5081              	.LBE2204:
 5082              	.LBB2205:
 5083              	.LBB2206:
 5084 0040 3046     		mov	r0, r6
 5085              	.LBE2206:
 5086              	.LBE2205:
 5087              		.loc 1 135 0
 5088 0042 3E83     		strh	r6, [r7, #24]	@ movhi
 5089              	.LBB2210:
 5090              	.LBB2207:
 5091              		.loc 1 25 0
 5092 0044 FFF7FEFF 		bl	chThdSleep
 5093              	.LVL386:
 5094              	.LBE2207:
 5095              	.LBE2210:
 5096              	.LBB2211:
 5097              	.LBB2212:
 5098 0048 3046     		mov	r0, r6
 5099 004a FFF7FEFF 		bl	chThdSleep
 5100              	.LVL387:
 5101 004e 013C     		subs	r4, r4, #1
 5102              	.LVL388:
 5103              	.LBE2212:
 5104              	.LBE2211:
 5105              		.loc 1 138 0
 5106 0050 7E83     		strh	r6, [r7, #26]	@ movhi
 5107              	.LBB2214:
 5108              	.LBB2215:
 5109              		.loc 1 25 0
 5110 0052 3046     		mov	r0, r6
 5111 0054 FFF7FEFF 		bl	chThdSleep
 5112              	.LVL389:
 5113              	.LBE2215:
 5114              	.LBE2214:
 5115              		.loc 1 128 0
 5116 0058 611C     		adds	r1, r4, #1
 5117 005a E4D1     		bne	.L198
 5118              	.L200:
 5119              	.LVL390:
 5120              	.LBE2222:
 5121              	.LBE2225:
 5122              	.LBB2226:
 5123              	.LBB2227:
 5124              		.loc 1 57 0
 5125 005c B84C     		ldr	r4, .L379
 5126              		.loc 1 59 0
 5127 005e B94F     		ldr	r7, .L379+4
 5128              		.loc 1 57 0
 5129 0060 4FF48055 		mov	r5, #4096
 5130              	.LBB2228:
ARM GAS  /tmp/ccUMP9GK.s 			page 91


 5131              	.LBB2229:
 5132              		.loc 1 25 0
 5133 0064 0120     		movs	r0, #1
 5134              	.LBE2229:
 5135              	.LBE2228:
 5136              		.loc 1 59 0
 5137 0066 0646     		mov	r6, r0
 5138              		.loc 1 57 0
 5139 0068 2583     		strh	r5, [r4, #24]	@ movhi
 5140              	.LBB2231:
 5141              	.LBB2230:
 5142              		.loc 1 25 0
 5143 006a FFF7FEFF 		bl	chThdSleep
 5144              	.LVL391:
 5145              	.LBE2230:
 5146              	.LBE2231:
 5147              	.LBB2232:
 5148              	.LBB2233:
 5149 006e 3046     		mov	r0, r6
 5150              	.LBE2233:
 5151              	.LBE2232:
 5152              		.loc 1 59 0
 5153 0070 3E83     		strh	r6, [r7, #24]	@ movhi
 5154              	.LBB2235:
 5155              	.LBB2234:
 5156              		.loc 1 25 0
 5157 0072 FFF7FEFF 		bl	chThdSleep
 5158              	.LVL392:
 5159              	.LBE2234:
 5160              	.LBE2235:
 5161              		.loc 1 64 0
 5162 0076 2946     		mov	r1, r5
 5163 0078 2046     		mov	r0, r4
 5164 007a 0522     		movs	r2, #5
 5165              		.loc 1 61 0
 5166 007c 7E83     		strh	r6, [r7, #26]	@ movhi
 5167              		.loc 1 63 0
 5168 007e 2583     		strh	r5, [r4, #24]	@ movhi
 5169              		.loc 1 64 0
 5170 0080 FFF7FEFF 		bl	_pal_lld_setgroupmode
 5171              	.LVL393:
 5172              	.LBB2236:
 5173              	.LBB2237:
 5174              		.loc 1 25 0
 5175 0084 3046     		mov	r0, r6
 5176 0086 FFF7FEFF 		bl	chThdSleep
 5177              	.LVL394:
 5178              	.LBE2237:
 5179              	.LBE2236:
 5180              		.loc 1 66 0
 5181 008a 2046     		mov	r0, r4
 5182 008c 2946     		mov	r1, r5
 5183 008e 0522     		movs	r2, #5
 5184 0090 FFF7FEFF 		bl	_pal_lld_setgroupmode
 5185              	.LVL395:
 5186              	.LBE2227:
 5187              	.LBE2226:
ARM GAS  /tmp/ccUMP9GK.s 			page 92


 5188              	.LBB2239:
 5189              	.LBB2240:
 5190              		.loc 1 133 0
 5191 0094 A046     		mov	r8, r4
 5192              		.loc 1 130 0
 5193 0096 4FF07F09 		mov	r9, #127
 5194              	.LBE2240:
 5195              	.LBE2239:
 5196              	.LBB2265:
 5197              	.LBB2238:
 5198              		.loc 1 66 0
 5199 009a 0724     		movs	r4, #7
 5200              	.LVL396:
 5201              	.L202:
 5202              	.LBE2238:
 5203              	.LBE2265:
 5204              	.LBB2266:
 5205              	.LBB2263:
 5206              		.loc 1 130 0
 5207 009c 49FA04F3 		asr	r3, r9, r4
 5208              		.loc 1 135 0
 5209 00a0 0126     		movs	r6, #1
 5210              		.loc 1 130 0
 5211 00a2 DB07     		lsls	r3, r3, #31
 5212              		.loc 1 131 0
 5213 00a4 4FF48051 		mov	r1, #4096
 5214              	.LBB2241:
 5215              	.LBB2242:
 5216              		.loc 1 25 0
 5217 00a8 3046     		mov	r0, r6
 5218              	.LBE2242:
 5219              	.LBE2241:
 5220              		.loc 1 130 0
 5221 00aa 40F19982 		bpl	.L203
 5222              		.loc 1 131 0
 5223 00ae A8F81810 		strh	r1, [r8, #24]	@ movhi
 5224              	.LBB2245:
 5225              	.LBB2243:
 5226              		.loc 1 25 0
 5227 00b2 FFF7FEFF 		bl	chThdSleep
 5228              	.LVL397:
 5229              	.LBE2243:
 5230              	.LBE2245:
 5231              	.LBB2246:
 5232              	.LBB2247:
 5233 00b6 3046     		mov	r0, r6
 5234              	.LBE2247:
 5235              	.LBE2246:
 5236              		.loc 1 135 0
 5237 00b8 3E83     		strh	r6, [r7, #24]	@ movhi
 5238              	.LBB2251:
 5239              	.LBB2248:
 5240              		.loc 1 25 0
 5241 00ba FFF7FEFF 		bl	chThdSleep
 5242              	.LVL398:
 5243              	.LBE2248:
 5244              	.LBE2251:
ARM GAS  /tmp/ccUMP9GK.s 			page 93


 5245              	.LBB2252:
 5246              	.LBB2253:
 5247 00be 3046     		mov	r0, r6
 5248 00c0 FFF7FEFF 		bl	chThdSleep
 5249              	.LVL399:
 5250 00c4 013C     		subs	r4, r4, #1
 5251              	.LVL400:
 5252              	.LBE2253:
 5253              	.LBE2252:
 5254              		.loc 1 138 0
 5255 00c6 7E83     		strh	r6, [r7, #26]	@ movhi
 5256              	.LBB2255:
 5257              	.LBB2256:
 5258              		.loc 1 25 0
 5259 00c8 3046     		mov	r0, r6
 5260 00ca FFF7FEFF 		bl	chThdSleep
 5261              	.LVL401:
 5262              	.LBE2256:
 5263              	.LBE2255:
 5264              		.loc 1 128 0
 5265 00ce 611C     		adds	r1, r4, #1
 5266 00d0 E4D1     		bne	.L202
 5267              	.L204:
 5268              	.LBE2263:
 5269              	.LBE2266:
 5270              	.LBB2267:
 5271              	.LBB2268:
 5272              		.loc 1 57 0
 5273 00d2 9B4F     		ldr	r7, .L379
 5274              		.loc 1 59 0
 5275 00d4 9B4E     		ldr	r6, .L379+4
 5276              		.loc 1 57 0
 5277 00d6 4FF48059 		mov	r9, #4096
 5278              	.LBB2269:
 5279              	.LBB2270:
 5280              		.loc 1 25 0
 5281 00da 0120     		movs	r0, #1
 5282              	.LBE2270:
 5283              	.LBE2269:
 5284              		.loc 1 59 0
 5285 00dc 0546     		mov	r5, r0
 5286              		.loc 1 57 0
 5287 00de A7F81890 		strh	r9, [r7, #24]	@ movhi
 5288              	.LBB2272:
 5289              	.LBB2271:
 5290              		.loc 1 25 0
 5291 00e2 FFF7FEFF 		bl	chThdSleep
 5292              	.LVL402:
 5293              	.LBE2271:
 5294              	.LBE2272:
 5295              	.LBB2273:
 5296              	.LBB2274:
 5297 00e6 2846     		mov	r0, r5
 5298              	.LBE2274:
 5299              	.LBE2273:
 5300              		.loc 1 59 0
 5301 00e8 3583     		strh	r5, [r6, #24]	@ movhi
ARM GAS  /tmp/ccUMP9GK.s 			page 94


 5302              	.LBB2276:
 5303              	.LBB2275:
 5304              		.loc 1 25 0
 5305 00ea FFF7FEFF 		bl	chThdSleep
 5306              	.LVL403:
 5307              	.LBE2275:
 5308              	.LBE2276:
 5309              		.loc 1 64 0
 5310 00ee 4946     		mov	r1, r9
 5311 00f0 0522     		movs	r2, #5
 5312              		.loc 1 61 0
 5313 00f2 7583     		strh	r5, [r6, #26]	@ movhi
 5314              		.loc 1 64 0
 5315 00f4 3846     		mov	r0, r7
 5316              		.loc 1 63 0
 5317 00f6 A7F81890 		strh	r9, [r7, #24]	@ movhi
 5318              		.loc 1 64 0
 5319 00fa FFF7FEFF 		bl	_pal_lld_setgroupmode
 5320              	.LVL404:
 5321              	.LBB2277:
 5322              	.LBB2278:
 5323              		.loc 1 25 0
 5324 00fe 2846     		mov	r0, r5
 5325 0100 FFF7FEFF 		bl	chThdSleep
 5326              	.LVL405:
 5327              	.LBE2278:
 5328              	.LBE2277:
 5329              		.loc 1 66 0
 5330 0104 4946     		mov	r1, r9
 5331 0106 3846     		mov	r0, r7
 5332 0108 0522     		movs	r2, #5
 5333 010a FFF7FEFF 		bl	_pal_lld_setgroupmode
 5334              	.LVL406:
 5335              	.LBE2268:
 5336              	.LBE2267:
 5337              	.LBB2280:
 5338              	.LBB2281:
 5339              		.loc 1 133 0
 5340 010e C846     		mov	r8, r9	@ movhi
 5341              	.LBE2281:
 5342              	.LBE2280:
 5343              	.LBB2295:
 5344              	.LBB2279:
 5345              		.loc 1 66 0
 5346 0110 0824     		movs	r4, #8
 5347              	.LVL407:
 5348              	.L206:
 5349              	.LBE2279:
 5350              	.LBE2295:
 5351              	.LBB2296:
 5352              	.LBB2294:
 5353              	.LBB2282:
 5354              	.LBB2283:
 5355              		.loc 1 25 0
 5356 0112 0120     		movs	r0, #1
 5357              	.LBE2283:
 5358              	.LBE2282:
ARM GAS  /tmp/ccUMP9GK.s 			page 95


 5359              		.loc 1 133 0
 5360 0114 A7F81A80 		strh	r8, [r7, #26]	@ movhi
 5361              	.LBB2285:
 5362              	.LBB2284:
 5363              		.loc 1 25 0
 5364 0118 FFF7FEFF 		bl	chThdSleep
 5365              	.LVL408:
 5366              	.LBE2284:
 5367              	.LBE2285:
 5368              	.LBB2286:
 5369              	.LBB2287:
 5370 011c 0120     		movs	r0, #1
 5371              	.LBE2287:
 5372              	.LBE2286:
 5373              		.loc 1 135 0
 5374 011e 3583     		strh	r5, [r6, #24]	@ movhi
 5375              	.LBB2289:
 5376              	.LBB2288:
 5377              		.loc 1 25 0
 5378 0120 FFF7FEFF 		bl	chThdSleep
 5379              	.LVL409:
 5380              	.LBE2288:
 5381              	.LBE2289:
 5382              	.LBB2290:
 5383              	.LBB2291:
 5384 0124 0120     		movs	r0, #1
 5385 0126 FFF7FEFF 		bl	chThdSleep
 5386              	.LVL410:
 5387              	.LBE2291:
 5388              	.LBE2290:
 5389              		.loc 1 138 0
 5390 012a 7583     		strh	r5, [r6, #26]	@ movhi
 5391              	.LBB2292:
 5392              	.LBB2293:
 5393              		.loc 1 25 0
 5394 012c 0120     		movs	r0, #1
 5395 012e FFF7FEFF 		bl	chThdSleep
 5396              	.LVL411:
 5397 0132 631E     		subs	r3, r4, #1
 5398              	.LBE2293:
 5399              	.LBE2292:
 5400              		.loc 1 128 0
 5401 0134 13F0FF04 		ands	r4, r3, #255
 5402 0138 EBD1     		bne	.L206
 5403              	.LVL412:
 5404              	.LBE2294:
 5405              	.LBE2296:
 5406              	.LBB2297:
 5407              	.LBB2298:
 5408              		.loc 1 57 0
 5409 013a A7F81890 		strh	r9, [r7, #24]	@ movhi
 5410              	.LBB2299:
 5411              	.LBB2300:
 5412              		.loc 1 25 0
 5413 013e 0120     		movs	r0, #1
 5414 0140 FFF7FEFF 		bl	chThdSleep
 5415              	.LVL413:
ARM GAS  /tmp/ccUMP9GK.s 			page 96


 5416              	.LBE2300:
 5417              	.LBE2299:
 5418              	.LBB2301:
 5419              	.LBB2302:
 5420 0144 0120     		movs	r0, #1
 5421              	.LBE2302:
 5422              	.LBE2301:
 5423              		.loc 1 59 0
 5424 0146 3583     		strh	r5, [r6, #24]	@ movhi
 5425              	.LBB2304:
 5426              	.LBB2303:
 5427              		.loc 1 25 0
 5428 0148 FFF7FEFF 		bl	chThdSleep
 5429              	.LVL414:
 5430              	.LBE2303:
 5431              	.LBE2304:
 5432              		.loc 1 64 0
 5433 014c 7C48     		ldr	r0, .L379
 5434              		.loc 1 61 0
 5435 014e 7583     		strh	r5, [r6, #26]	@ movhi
 5436              		.loc 1 64 0
 5437 0150 0522     		movs	r2, #5
 5438              		.loc 1 63 0
 5439 0152 A7F81890 		strh	r9, [r7, #24]	@ movhi
 5440              		.loc 1 64 0
 5441 0156 4FF48051 		mov	r1, #4096
 5442              	.LBE2298:
 5443              	.LBE2297:
 5444              	.LBE2319:
 5445              	.LBE2322:
 5446              	.LBB2323:
 5447              	.LBB2324:
 5448              	.LBB2325:
 5449              	.LBB2326:
 5450              		.loc 1 133 0
 5451 015a 8046     		mov	r8, r0
 5452              	.LBE2326:
 5453              	.LBE2325:
 5454              	.LBE2324:
 5455              	.LBE2323:
 5456              	.LBB2471:
 5457              	.LBB2320:
 5458              	.LBB2308:
 5459              	.LBB2307:
 5460              		.loc 1 64 0
 5461 015c FFF7FEFF 		bl	_pal_lld_setgroupmode
 5462              	.LVL415:
 5463              	.LBB2305:
 5464              	.LBB2306:
 5465              		.loc 1 25 0
 5466 0160 0120     		movs	r0, #1
 5467 0162 FFF7FEFF 		bl	chThdSleep
 5468              	.LVL416:
 5469              	.LBE2306:
 5470              	.LBE2305:
 5471              		.loc 1 66 0
 5472 0166 0522     		movs	r2, #5
ARM GAS  /tmp/ccUMP9GK.s 			page 97


 5473 0168 4FF48051 		mov	r1, #4096
 5474 016c 4046     		mov	r0, r8
 5475 016e FFF7FEFF 		bl	_pal_lld_setgroupmode
 5476              	.LVL417:
 5477              	.LBE2307:
 5478              	.LBE2308:
 5479              	.LBB2309:
 5480              	.LBB2310:
 5481              	.LBB2311:
 5482              	.LBB2312:
 5483              		.loc 1 25 0
 5484 0172 0120     		movs	r0, #1
 5485              	.LBE2312:
 5486              	.LBE2311:
 5487              		.loc 1 49 0
 5488 0174 3583     		strh	r5, [r6, #24]	@ movhi
 5489              	.LBB2314:
 5490              	.LBB2313:
 5491              		.loc 1 25 0
 5492 0176 FFF7FEFF 		bl	chThdSleep
 5493              	.LVL418:
 5494              	.LBE2313:
 5495              	.LBE2314:
 5496              		.loc 1 51 0
 5497 017a A7F81890 		strh	r9, [r7, #24]	@ movhi
 5498              	.LBB2315:
 5499              	.LBB2316:
 5500              		.loc 1 25 0
 5501 017e 0120     		movs	r0, #1
 5502 0180 FFF7FEFF 		bl	chThdSleep
 5503              	.LVL419:
 5504              	.LBE2316:
 5505              	.LBE2315:
 5506              	.LBE2310:
 5507              	.LBE2309:
 5508              	.LBE2320:
 5509              	.LBE2471:
 5510              	.LBB2472:
 5511              	.LBB2469:
 5512              	.LBB2352:
 5513              	.LBB2353:
 5514              		.loc 1 41 0
 5515 0184 A7F81A90 		strh	r9, [r7, #26]	@ movhi
 5516              	.LBB2354:
 5517              	.LBB2355:
 5518              		.loc 1 25 0
 5519 0188 0120     		movs	r0, #1
 5520 018a FFF7FEFF 		bl	chThdSleep
 5521              	.LVL420:
 5522              	.LBE2355:
 5523              	.LBE2354:
 5524              		.loc 1 43 0
 5525 018e 7583     		strh	r5, [r6, #26]	@ movhi
 5526              	.LBB2356:
 5527              	.LBB2357:
 5528              		.loc 1 25 0
 5529 0190 0120     		movs	r0, #1
ARM GAS  /tmp/ccUMP9GK.s 			page 98


 5530 0192 FFF7FEFF 		bl	chThdSleep
 5531              	.LVL421:
 5532              	.LBE2357:
 5533              	.LBE2356:
 5534              	.LBE2353:
 5535              	.LBE2352:
 5536              	.LBB2361:
 5537              	.LBB2349:
 5538              		.loc 1 135 0
 5539 0196 6B4F     		ldr	r7, .L379+4
 5540              	.LBE2349:
 5541              	.LBE2361:
 5542              	.LBB2362:
 5543              	.LBB2360:
 5544              	.LBB2359:
 5545              	.LBB2358:
 5546              		.loc 1 25 0
 5547 0198 0724     		movs	r4, #7
 5548              	.LBE2358:
 5549              	.LBE2359:
 5550              	.LBE2360:
 5551              	.LBE2362:
 5552              	.LBB2363:
 5553              	.LBB2350:
 5554              		.loc 1 130 0
 5555 019a 4FF08009 		mov	r9, #128
 5556              	.LVL422:
 5557              	.L207:
 5558 019e 49FA04F3 		asr	r3, r9, r4
 5559              		.loc 1 135 0
 5560 01a2 0126     		movs	r6, #1
 5561              		.loc 1 130 0
 5562 01a4 DB07     		lsls	r3, r3, #31
 5563              		.loc 1 131 0
 5564 01a6 4FF48051 		mov	r1, #4096
 5565              	.LBB2327:
 5566              	.LBB2328:
 5567              		.loc 1 25 0
 5568 01aa 3046     		mov	r0, r6
 5569              	.LBE2328:
 5570              	.LBE2327:
 5571              		.loc 1 130 0
 5572 01ac 40F10382 		bpl	.L208
 5573              		.loc 1 131 0
 5574 01b0 A8F81810 		strh	r1, [r8, #24]	@ movhi
 5575              	.LBB2331:
 5576              	.LBB2329:
 5577              		.loc 1 25 0
 5578 01b4 FFF7FEFF 		bl	chThdSleep
 5579              	.LVL423:
 5580              	.LBE2329:
 5581              	.LBE2331:
 5582              	.LBB2332:
 5583              	.LBB2333:
 5584 01b8 3046     		mov	r0, r6
 5585              	.LBE2333:
 5586              	.LBE2332:
ARM GAS  /tmp/ccUMP9GK.s 			page 99


 5587              		.loc 1 135 0
 5588 01ba 3E83     		strh	r6, [r7, #24]	@ movhi
 5589              	.LBB2337:
 5590              	.LBB2334:
 5591              		.loc 1 25 0
 5592 01bc FFF7FEFF 		bl	chThdSleep
 5593              	.LVL424:
 5594              	.LBE2334:
 5595              	.LBE2337:
 5596              	.LBB2338:
 5597              	.LBB2339:
 5598 01c0 3046     		mov	r0, r6
 5599 01c2 FFF7FEFF 		bl	chThdSleep
 5600              	.LVL425:
 5601 01c6 013C     		subs	r4, r4, #1
 5602              	.LVL426:
 5603              	.LBE2339:
 5604              	.LBE2338:
 5605              		.loc 1 138 0
 5606 01c8 7E83     		strh	r6, [r7, #26]	@ movhi
 5607              	.LBB2341:
 5608              	.LBB2342:
 5609              		.loc 1 25 0
 5610 01ca 3046     		mov	r0, r6
 5611 01cc FFF7FEFF 		bl	chThdSleep
 5612              	.LVL427:
 5613              	.LBE2342:
 5614              	.LBE2341:
 5615              		.loc 1 128 0
 5616 01d0 611C     		adds	r1, r4, #1
 5617 01d2 E4D1     		bne	.L207
 5618              	.L209:
 5619              	.LVL428:
 5620              	.LBE2350:
 5621              	.LBE2363:
 5622              	.LBB2364:
 5623              	.LBB2365:
 5624              		.loc 1 57 0
 5625 01d4 5A4C     		ldr	r4, .L379
 5626              		.loc 1 59 0
 5627 01d6 5B4F     		ldr	r7, .L379+4
 5628              		.loc 1 57 0
 5629 01d8 4FF48055 		mov	r5, #4096
 5630              	.LBB2366:
 5631              	.LBB2367:
 5632              		.loc 1 25 0
 5633 01dc 0120     		movs	r0, #1
 5634              	.LBE2367:
 5635              	.LBE2366:
 5636              		.loc 1 59 0
 5637 01de 0646     		mov	r6, r0
 5638              		.loc 1 57 0
 5639 01e0 2583     		strh	r5, [r4, #24]	@ movhi
 5640              	.LBB2369:
 5641              	.LBB2368:
 5642              		.loc 1 25 0
 5643 01e2 FFF7FEFF 		bl	chThdSleep
ARM GAS  /tmp/ccUMP9GK.s 			page 100


 5644              	.LVL429:
 5645              	.LBE2368:
 5646              	.LBE2369:
 5647              	.LBB2370:
 5648              	.LBB2371:
 5649 01e6 3046     		mov	r0, r6
 5650              	.LBE2371:
 5651              	.LBE2370:
 5652              		.loc 1 59 0
 5653 01e8 3E83     		strh	r6, [r7, #24]	@ movhi
 5654              	.LBB2373:
 5655              	.LBB2372:
 5656              		.loc 1 25 0
 5657 01ea FFF7FEFF 		bl	chThdSleep
 5658              	.LVL430:
 5659              	.LBE2372:
 5660              	.LBE2373:
 5661              		.loc 1 64 0
 5662 01ee 2946     		mov	r1, r5
 5663 01f0 2046     		mov	r0, r4
 5664 01f2 0522     		movs	r2, #5
 5665              		.loc 1 61 0
 5666 01f4 7E83     		strh	r6, [r7, #26]	@ movhi
 5667              		.loc 1 63 0
 5668 01f6 2583     		strh	r5, [r4, #24]	@ movhi
 5669              		.loc 1 64 0
 5670 01f8 FFF7FEFF 		bl	_pal_lld_setgroupmode
 5671              	.LVL431:
 5672              	.LBB2374:
 5673              	.LBB2375:
 5674              		.loc 1 25 0
 5675 01fc 3046     		mov	r0, r6
 5676 01fe FFF7FEFF 		bl	chThdSleep
 5677              	.LVL432:
 5678              	.LBE2375:
 5679              	.LBE2374:
 5680              		.loc 1 66 0
 5681 0202 2046     		mov	r0, r4
 5682 0204 2946     		mov	r1, r5
 5683 0206 0522     		movs	r2, #5
 5684 0208 FFF7FEFF 		bl	_pal_lld_setgroupmode
 5685              	.LVL433:
 5686              	.LBE2365:
 5687              	.LBE2364:
 5688              	.LBB2377:
 5689              	.LBB2378:
 5690              		.loc 1 133 0
 5691 020c A046     		mov	r8, r4
 5692              		.loc 1 130 0
 5693 020e 4FF00609 		mov	r9, #6
 5694              	.LBE2378:
 5695              	.LBE2377:
 5696              	.LBB2403:
 5697              	.LBB2376:
 5698              		.loc 1 66 0
 5699 0212 0724     		movs	r4, #7
 5700              	.LVL434:
ARM GAS  /tmp/ccUMP9GK.s 			page 101


 5701              	.L211:
 5702              	.LBE2376:
 5703              	.LBE2403:
 5704              	.LBB2404:
 5705              	.LBB2401:
 5706              		.loc 1 130 0
 5707 0214 49FA04F3 		asr	r3, r9, r4
 5708              		.loc 1 135 0
 5709 0218 0126     		movs	r6, #1
 5710              		.loc 1 130 0
 5711 021a DB07     		lsls	r3, r3, #31
 5712              		.loc 1 131 0
 5713 021c 4FF48051 		mov	r1, #4096
 5714              	.LBB2379:
 5715              	.LBB2380:
 5716              		.loc 1 25 0
 5717 0220 3046     		mov	r0, r6
 5718              	.LBE2380:
 5719              	.LBE2379:
 5720              		.loc 1 130 0
 5721 0222 40F1B381 		bpl	.L212
 5722              		.loc 1 131 0
 5723 0226 A8F81810 		strh	r1, [r8, #24]	@ movhi
 5724              	.LBB2383:
 5725              	.LBB2381:
 5726              		.loc 1 25 0
 5727 022a FFF7FEFF 		bl	chThdSleep
 5728              	.LVL435:
 5729              	.LBE2381:
 5730              	.LBE2383:
 5731              	.LBB2384:
 5732              	.LBB2385:
 5733 022e 3046     		mov	r0, r6
 5734              	.LBE2385:
 5735              	.LBE2384:
 5736              		.loc 1 135 0
 5737 0230 3E83     		strh	r6, [r7, #24]	@ movhi
 5738              	.LBB2389:
 5739              	.LBB2386:
 5740              		.loc 1 25 0
 5741 0232 FFF7FEFF 		bl	chThdSleep
 5742              	.LVL436:
 5743              	.LBE2386:
 5744              	.LBE2389:
 5745              	.LBB2390:
 5746              	.LBB2391:
 5747 0236 3046     		mov	r0, r6
 5748 0238 FFF7FEFF 		bl	chThdSleep
 5749              	.LVL437:
 5750 023c 013C     		subs	r4, r4, #1
 5751              	.LVL438:
 5752              	.LBE2391:
 5753              	.LBE2390:
 5754              		.loc 1 138 0
 5755 023e 7E83     		strh	r6, [r7, #26]	@ movhi
 5756              	.LBB2393:
 5757              	.LBB2394:
ARM GAS  /tmp/ccUMP9GK.s 			page 102


 5758              		.loc 1 25 0
 5759 0240 3046     		mov	r0, r6
 5760 0242 FFF7FEFF 		bl	chThdSleep
 5761              	.LVL439:
 5762              	.LBE2394:
 5763              	.LBE2393:
 5764              		.loc 1 128 0
 5765 0246 611C     		adds	r1, r4, #1
 5766 0248 E4D1     		bne	.L211
 5767              	.L213:
 5768              	.LBE2401:
 5769              	.LBE2404:
 5770              	.LBB2405:
 5771              	.LBB2406:
 5772              		.loc 1 57 0
 5773 024a 3D4C     		ldr	r4, .L379
 5774              		.loc 1 59 0
 5775 024c 3D4F     		ldr	r7, .L379+4
 5776              		.loc 1 57 0
 5777 024e 4FF48055 		mov	r5, #4096
 5778              	.LBB2407:
 5779              	.LBB2408:
 5780              		.loc 1 25 0
 5781 0252 0120     		movs	r0, #1
 5782              	.LBE2408:
 5783              	.LBE2407:
 5784              		.loc 1 59 0
 5785 0254 0646     		mov	r6, r0
 5786              		.loc 1 57 0
 5787 0256 2583     		strh	r5, [r4, #24]	@ movhi
 5788              	.LBB2410:
 5789              	.LBB2409:
 5790              		.loc 1 25 0
 5791 0258 FFF7FEFF 		bl	chThdSleep
 5792              	.LVL440:
 5793              	.LBE2409:
 5794              	.LBE2410:
 5795              	.LBB2411:
 5796              	.LBB2412:
 5797 025c 3046     		mov	r0, r6
 5798              	.LBE2412:
 5799              	.LBE2411:
 5800              		.loc 1 59 0
 5801 025e 3E83     		strh	r6, [r7, #24]	@ movhi
 5802              	.LBB2414:
 5803              	.LBB2413:
 5804              		.loc 1 25 0
 5805 0260 FFF7FEFF 		bl	chThdSleep
 5806              	.LVL441:
 5807              	.LBE2413:
 5808              	.LBE2414:
 5809              		.loc 1 64 0
 5810 0264 2946     		mov	r1, r5
 5811 0266 2046     		mov	r0, r4
 5812 0268 0522     		movs	r2, #5
 5813              		.loc 1 61 0
 5814 026a 7E83     		strh	r6, [r7, #26]	@ movhi
ARM GAS  /tmp/ccUMP9GK.s 			page 103


 5815              		.loc 1 63 0
 5816 026c 2583     		strh	r5, [r4, #24]	@ movhi
 5817              		.loc 1 64 0
 5818 026e FFF7FEFF 		bl	_pal_lld_setgroupmode
 5819              	.LVL442:
 5820              	.LBB2415:
 5821              	.LBB2416:
 5822              		.loc 1 25 0
 5823 0272 3046     		mov	r0, r6
 5824 0274 FFF7FEFF 		bl	chThdSleep
 5825              	.LVL443:
 5826              	.LBE2416:
 5827              	.LBE2415:
 5828              		.loc 1 66 0
 5829 0278 2046     		mov	r0, r4
 5830 027a 2946     		mov	r1, r5
 5831 027c 0522     		movs	r2, #5
 5832 027e FFF7FEFF 		bl	_pal_lld_setgroupmode
 5833              	.LVL444:
 5834              	.LBE2406:
 5835              	.LBE2405:
 5836              	.LBB2418:
 5837              	.LBB2419:
 5838              		.loc 1 133 0
 5839 0282 A046     		mov	r8, r4
 5840              		.loc 1 130 0
 5841 0284 4FF09709 		mov	r9, #151
 5842              	.LBE2419:
 5843              	.LBE2418:
 5844              	.LBB2444:
 5845              	.LBB2417:
 5846              		.loc 1 66 0
 5847 0288 0724     		movs	r4, #7
 5848              	.LVL445:
 5849              	.L215:
 5850              	.LBE2417:
 5851              	.LBE2444:
 5852              	.LBB2445:
 5853              	.LBB2442:
 5854              		.loc 1 130 0
 5855 028a 49FA04F3 		asr	r3, r9, r4
 5856              		.loc 1 135 0
 5857 028e 0126     		movs	r6, #1
 5858              		.loc 1 130 0
 5859 0290 DB07     		lsls	r3, r3, #31
 5860              		.loc 1 131 0
 5861 0292 4FF48051 		mov	r1, #4096
 5862              	.LBB2420:
 5863              	.LBB2421:
 5864              		.loc 1 25 0
 5865 0296 3046     		mov	r0, r6
 5866              	.LBE2421:
 5867              	.LBE2420:
 5868              		.loc 1 130 0
 5869 0298 40F16381 		bpl	.L216
 5870              		.loc 1 131 0
 5871 029c A8F81810 		strh	r1, [r8, #24]	@ movhi
ARM GAS  /tmp/ccUMP9GK.s 			page 104


 5872              	.LBB2424:
 5873              	.LBB2422:
 5874              		.loc 1 25 0
 5875 02a0 FFF7FEFF 		bl	chThdSleep
 5876              	.LVL446:
 5877              	.LBE2422:
 5878              	.LBE2424:
 5879              	.LBB2425:
 5880              	.LBB2426:
 5881 02a4 3046     		mov	r0, r6
 5882              	.LBE2426:
 5883              	.LBE2425:
 5884              		.loc 1 135 0
 5885 02a6 3E83     		strh	r6, [r7, #24]	@ movhi
 5886              	.LBB2430:
 5887              	.LBB2427:
 5888              		.loc 1 25 0
 5889 02a8 FFF7FEFF 		bl	chThdSleep
 5890              	.LVL447:
 5891              	.LBE2427:
 5892              	.LBE2430:
 5893              	.LBB2431:
 5894              	.LBB2432:
 5895 02ac 3046     		mov	r0, r6
 5896 02ae FFF7FEFF 		bl	chThdSleep
 5897              	.LVL448:
 5898 02b2 013C     		subs	r4, r4, #1
 5899              	.LVL449:
 5900              	.LBE2432:
 5901              	.LBE2431:
 5902              		.loc 1 138 0
 5903 02b4 7E83     		strh	r6, [r7, #26]	@ movhi
 5904              	.LBB2434:
 5905              	.LBB2435:
 5906              		.loc 1 25 0
 5907 02b6 3046     		mov	r0, r6
 5908 02b8 FFF7FEFF 		bl	chThdSleep
 5909              	.LVL450:
 5910              	.LBE2435:
 5911              	.LBE2434:
 5912              		.loc 1 128 0
 5913 02bc 611C     		adds	r1, r4, #1
 5914 02be E4D1     		bne	.L215
 5915              	.L217:
 5916              	.LVL451:
 5917              	.LBE2442:
 5918              	.LBE2445:
 5919              	.LBB2446:
 5920              	.LBB2447:
 5921              		.loc 1 57 0
 5922 02c0 1F4F     		ldr	r7, .L379
 5923 02c2 214B     		ldr	r3, .L379+8
 5924              		.loc 1 59 0
 5925 02c4 1F4C     		ldr	r4, .L379+4
 5926 02c6 0193     		str	r3, [sp, #4]
 5927              		.loc 1 57 0
 5928 02c8 4FF48056 		mov	r6, #4096
ARM GAS  /tmp/ccUMP9GK.s 			page 105


 5929              	.LBB2448:
 5930              	.LBB2449:
 5931              		.loc 1 25 0
 5932 02cc 0120     		movs	r0, #1
 5933              	.LBE2449:
 5934              	.LBE2448:
 5935              		.loc 1 59 0
 5936 02ce 0546     		mov	r5, r0
 5937              		.loc 1 57 0
 5938 02d0 3E83     		strh	r6, [r7, #24]	@ movhi
 5939              	.LBB2451:
 5940              	.LBB2450:
 5941              		.loc 1 25 0
 5942 02d2 FFF7FEFF 		bl	chThdSleep
 5943              	.LVL452:
 5944              	.LBE2450:
 5945              	.LBE2451:
 5946              	.LBB2452:
 5947              	.LBB2453:
 5948 02d6 2846     		mov	r0, r5
 5949              	.LBE2453:
 5950              	.LBE2452:
 5951              		.loc 1 59 0
 5952 02d8 2583     		strh	r5, [r4, #24]	@ movhi
 5953              	.LBB2455:
 5954              	.LBB2454:
 5955              		.loc 1 25 0
 5956 02da FFF7FEFF 		bl	chThdSleep
 5957              	.LVL453:
 5958              	.LBE2454:
 5959              	.LBE2455:
 5960              		.loc 1 64 0
 5961 02de 3146     		mov	r1, r6
 5962 02e0 0522     		movs	r2, #5
 5963              		.loc 1 61 0
 5964 02e2 6583     		strh	r5, [r4, #26]	@ movhi
 5965              		.loc 1 64 0
 5966 02e4 3846     		mov	r0, r7
 5967              		.loc 1 63 0
 5968 02e6 3E83     		strh	r6, [r7, #24]	@ movhi
 5969              		.loc 1 64 0
 5970 02e8 FFF7FEFF 		bl	_pal_lld_setgroupmode
 5971              	.LVL454:
 5972              	.LBB2456:
 5973              	.LBB2457:
 5974              		.loc 1 25 0
 5975 02ec 2846     		mov	r0, r5
 5976 02ee FFF7FEFF 		bl	chThdSleep
 5977              	.LVL455:
 5978              	.LBE2457:
 5979              	.LBE2456:
 5980              		.loc 1 66 0
 5981 02f2 3146     		mov	r1, r6
 5982 02f4 0522     		movs	r2, #5
 5983 02f6 3846     		mov	r0, r7
 5984 02f8 FFF7FEFF 		bl	_pal_lld_setgroupmode
 5985              	.LVL456:
ARM GAS  /tmp/ccUMP9GK.s 			page 106


 5986              	.LBE2447:
 5987              	.LBE2446:
 5988              	.LBB2458:
 5989              	.LBB2459:
 5990              	.LBB2460:
 5991              	.LBB2461:
 5992              		.loc 1 25 0
 5993 02fc 2846     		mov	r0, r5
 5994              	.LBE2461:
 5995              	.LBE2460:
 5996              		.loc 1 49 0
 5997 02fe 2583     		strh	r5, [r4, #24]	@ movhi
 5998              	.LBB2463:
 5999              	.LBB2462:
 6000              		.loc 1 25 0
 6001 0300 FFF7FEFF 		bl	chThdSleep
 6002              	.LVL457:
 6003              	.LBE2462:
 6004              	.LBE2463:
 6005              		.loc 1 51 0
 6006 0304 3E83     		strh	r6, [r7, #24]	@ movhi
 6007              	.LBB2464:
 6008              	.LBB2465:
 6009              		.loc 1 25 0
 6010 0306 2846     		mov	r0, r5
 6011 0308 FFF7FEFF 		bl	chThdSleep
 6012              	.LVL458:
 6013              	.LBE2465:
 6014              	.LBE2464:
 6015              	.LBE2459:
 6016              	.LBE2458:
 6017              	.LBE2469:
 6018              	.LBE2472:
 6019              		.loc 1 284 0
 6020 030c 0A20     		movs	r0, #10
 6021 030e FFF7FEFF 		bl	chThdSleep
 6022              	.LVL459:
 6023 0312 019A     		ldr	r2, [sp, #4]
 6024              	.LBB2473:
 6025              	.LBB2474:
 6026              	.LBB2475:
 6027              	.LBB2476:
 6028              	.LBB2477:
 6029              	.LBB2478:
 6030              	.LBB2479:
 6031              	.LBB2480:
 6032              		.loc 1 41 0
 6033 0314 3E46     		mov	r6, r7
 6034              	.LVL460:
 6035              	.L232:
 6036              	.LBE2480:
 6037              	.LBE2479:
 6038              	.LBE2478:
 6039              	.LBE2477:
 6040              	.LBE2476:
 6041              		.loc 1 290 0
 6042 0316 1778     		ldrb	r7, [r2]	@ zero_extendqisi2
ARM GAS  /tmp/ccUMP9GK.s 			page 107


 6043              	.LVL461:
 6044              		.loc 1 291 0
 6045 0318 FF2F     		cmp	r7, #255
 6046 031a 00F08D81 		beq	.L219
 6047              	.LVL462:
 6048              	.LBB2625:
 6049              	.LBB2620:
 6050              	.LBB2617:
 6051              	.LBB2487:
 6052              	.LBB2485:
 6053              		.loc 1 41 0
 6054 031e 4FF48053 		mov	r3, #4096
 6055              	.LBE2485:
 6056              	.LBE2487:
 6057              	.LBE2617:
 6058              	.LBE2620:
 6059              	.LBE2625:
 6060              		.loc 1 293 0
 6061 0322 92F80180 		ldrb	r8, [r2, #1]	@ zero_extendqisi2
 6062              	.LVL463:
 6063              	.LBB2626:
 6064              	.LBB2621:
 6065              	.LBB2618:
 6066              	.LBB2488:
 6067              	.LBB2486:
 6068              		.loc 1 41 0
 6069 0326 7383     		strh	r3, [r6, #26]	@ movhi
 6070              	.LBB2481:
 6071              	.LBB2482:
 6072              		.loc 1 25 0
 6073 0328 0120     		movs	r0, #1
 6074 032a FFF7FEFF 		bl	chThdSleep
 6075              	.LVL464:
 6076              	.LBE2482:
 6077              	.LBE2481:
 6078              		.loc 1 43 0
 6079 032e 0120     		movs	r0, #1
 6080 0330 6083     		strh	r0, [r4, #26]	@ movhi
 6081              	.LBB2483:
 6082              	.LBB2484:
 6083              		.loc 1 25 0
 6084 0332 FFF7FEFF 		bl	chThdSleep
 6085              	.LVL465:
 6086 0336 0725     		movs	r5, #7
 6087              	.LBE2484:
 6088              	.LBE2483:
 6089              	.LBE2486:
 6090              	.LBE2488:
 6091              	.LBB2489:
 6092              	.LBB2490:
 6093              		.loc 1 130 0
 6094 0338 4FF0800B 		mov	fp, #128
 6095 033c 06E0     		b	.L380
 6096              	.L381:
 6097 033e 00BF     		.align	2
 6098              	.L379:
 6099 0340 001C0240 		.word	1073880064
ARM GAS  /tmp/ccUMP9GK.s 			page 108


 6100 0344 00200240 		.word	1073881088
 6101 0348 00000000 		.word	.LANCHOR0
 6102              	.L380:
 6103              	.LVL466:
 6104              	.L220:
 6105 034c 4BFA05F1 		asr	r1, fp, r5
 6106              		.loc 1 135 0
 6107 0350 4FF0010A 		mov	r10, #1
 6108              		.loc 1 130 0
 6109 0354 CB07     		lsls	r3, r1, #31
 6110              		.loc 1 131 0
 6111 0356 4FF4805E 		mov	lr, #4096
 6112              	.LBB2491:
 6113              	.LBB2492:
 6114              		.loc 1 25 0
 6115 035a 5046     		mov	r0, r10
 6116              	.LBE2492:
 6117              	.LBE2491:
 6118              		.loc 1 130 0
 6119 035c 40F1EA80 		bpl	.L221
 6120              		.loc 1 131 0
 6121 0360 A6F818E0 		strh	lr, [r6, #24]	@ movhi
 6122              	.LBB2495:
 6123              	.LBB2493:
 6124              		.loc 1 25 0
 6125 0364 FFF7FEFF 		bl	chThdSleep
 6126              	.LVL467:
 6127              	.LBE2493:
 6128              	.LBE2495:
 6129              	.LBB2496:
 6130              	.LBB2497:
 6131 0368 5046     		mov	r0, r10
 6132              	.LBE2497:
 6133              	.LBE2496:
 6134              		.loc 1 135 0
 6135 036a A4F818A0 		strh	r10, [r4, #24]	@ movhi
 6136              	.LBB2501:
 6137              	.LBB2498:
 6138              		.loc 1 25 0
 6139 036e FFF7FEFF 		bl	chThdSleep
 6140              	.LVL468:
 6141              	.LBE2498:
 6142              	.LBE2501:
 6143              	.LBB2502:
 6144              	.LBB2503:
 6145 0372 5046     		mov	r0, r10
 6146 0374 FFF7FEFF 		bl	chThdSleep
 6147              	.LVL469:
 6148 0378 013D     		subs	r5, r5, #1
 6149              	.LVL470:
 6150              	.LBE2503:
 6151              	.LBE2502:
 6152              		.loc 1 138 0
 6153 037a A4F81AA0 		strh	r10, [r4, #26]	@ movhi
 6154              	.LBB2505:
 6155              	.LBB2506:
 6156              		.loc 1 25 0
ARM GAS  /tmp/ccUMP9GK.s 			page 109


 6157 037e 5046     		mov	r0, r10
 6158 0380 FFF7FEFF 		bl	chThdSleep
 6159              	.LVL471:
 6160              	.LBE2506:
 6161              	.LBE2505:
 6162              		.loc 1 128 0
 6163 0384 691C     		adds	r1, r5, #1
 6164 0386 E1D1     		bne	.L220
 6165              	.L222:
 6166              	.LVL472:
 6167              	.LBE2490:
 6168              	.LBE2489:
 6169              	.LBB2514:
 6170              	.LBB2515:
 6171              		.loc 1 57 0
 6172 0388 4FF4805B 		mov	fp, #4096
 6173              	.LBB2516:
 6174              	.LBB2517:
 6175              		.loc 1 25 0
 6176 038c 0120     		movs	r0, #1
 6177              	.LBE2517:
 6178              	.LBE2516:
 6179              		.loc 1 59 0
 6180 038e 0546     		mov	r5, r0
 6181              		.loc 1 57 0
 6182 0390 A6F818B0 		strh	fp, [r6, #24]	@ movhi
 6183              	.LBB2519:
 6184              	.LBB2518:
 6185              		.loc 1 25 0
 6186 0394 FFF7FEFF 		bl	chThdSleep
 6187              	.LVL473:
 6188              	.LBE2518:
 6189              	.LBE2519:
 6190              	.LBB2520:
 6191              	.LBB2521:
 6192 0398 2846     		mov	r0, r5
 6193              	.LBE2521:
 6194              	.LBE2520:
 6195              		.loc 1 59 0
 6196 039a 2583     		strh	r5, [r4, #24]	@ movhi
 6197              	.LBB2523:
 6198              	.LBB2522:
 6199              		.loc 1 25 0
 6200 039c FFF7FEFF 		bl	chThdSleep
 6201              	.LVL474:
 6202              	.LBE2522:
 6203              	.LBE2523:
 6204              		.loc 1 61 0
 6205 03a0 6583     		strh	r5, [r4, #26]	@ movhi
 6206              		.loc 1 64 0
 6207 03a2 5946     		mov	r1, fp
 6208 03a4 0522     		movs	r2, #5
 6209 03a6 A348     		ldr	r0, .L382
 6210              		.loc 1 63 0
 6211 03a8 A6F818B0 		strh	fp, [r6, #24]	@ movhi
 6212              		.loc 1 64 0
 6213 03ac FFF7FEFF 		bl	_pal_lld_setgroupmode
ARM GAS  /tmp/ccUMP9GK.s 			page 110


 6214              	.LVL475:
 6215              	.LBB2524:
 6216              	.LBB2525:
 6217              		.loc 1 25 0
 6218 03b0 2846     		mov	r0, r5
 6219 03b2 FFF7FEFF 		bl	chThdSleep
 6220              	.LVL476:
 6221              	.LBE2525:
 6222              	.LBE2524:
 6223              		.loc 1 66 0
 6224 03b6 5946     		mov	r1, fp
 6225 03b8 0522     		movs	r2, #5
 6226 03ba 9E48     		ldr	r0, .L382
 6227 03bc FFF7FEFF 		bl	_pal_lld_setgroupmode
 6228              	.LVL477:
 6229 03c0 0725     		movs	r5, #7
 6230              	.LVL478:
 6231              	.L224:
 6232              	.LBE2515:
 6233              	.LBE2514:
 6234              	.LBB2526:
 6235              	.LBB2527:
 6236              		.loc 1 130 0
 6237 03c2 47FA05F1 		asr	r1, r7, r5
 6238              		.loc 1 135 0
 6239 03c6 4FF0010A 		mov	r10, #1
 6240              		.loc 1 130 0
 6241 03ca CB07     		lsls	r3, r1, #31
 6242              	.LBB2528:
 6243              	.LBB2529:
 6244              		.loc 1 25 0
 6245 03cc 5046     		mov	r0, r10
 6246              	.LBE2529:
 6247              	.LBE2528:
 6248              		.loc 1 130 0
 6249 03ce 40F19A80 		bpl	.L225
 6250              		.loc 1 131 0
 6251 03d2 A6F818B0 		strh	fp, [r6, #24]	@ movhi
 6252              	.LBB2533:
 6253              	.LBB2530:
 6254              		.loc 1 25 0
 6255 03d6 FFF7FEFF 		bl	chThdSleep
 6256              	.LVL479:
 6257              	.LBE2530:
 6258              	.LBE2533:
 6259              	.LBB2534:
 6260              	.LBB2535:
 6261 03da 5046     		mov	r0, r10
 6262              	.LBE2535:
 6263              	.LBE2534:
 6264              		.loc 1 135 0
 6265 03dc A4F818A0 		strh	r10, [r4, #24]	@ movhi
 6266              	.LBB2539:
 6267              	.LBB2536:
 6268              		.loc 1 25 0
 6269 03e0 FFF7FEFF 		bl	chThdSleep
 6270              	.LVL480:
ARM GAS  /tmp/ccUMP9GK.s 			page 111


 6271              	.LBE2536:
 6272              	.LBE2539:
 6273              	.LBB2540:
 6274              	.LBB2541:
 6275 03e4 5046     		mov	r0, r10
 6276 03e6 FFF7FEFF 		bl	chThdSleep
 6277              	.LVL481:
 6278 03ea 013D     		subs	r5, r5, #1
 6279              	.LVL482:
 6280              	.LBE2541:
 6281              	.LBE2540:
 6282              		.loc 1 138 0
 6283 03ec A4F81AA0 		strh	r10, [r4, #26]	@ movhi
 6284              	.LBB2543:
 6285              	.LBB2544:
 6286              		.loc 1 25 0
 6287 03f0 5046     		mov	r0, r10
 6288 03f2 FFF7FEFF 		bl	chThdSleep
 6289              	.LVL483:
 6290              	.LBE2544:
 6291              	.LBE2543:
 6292              		.loc 1 128 0
 6293 03f6 691C     		adds	r1, r5, #1
 6294 03f8 E3D1     		bne	.L224
 6295              	.L226:
 6296              	.LBE2527:
 6297              	.LBE2526:
 6298              	.LBB2553:
 6299              	.LBB2554:
 6300              		.loc 1 57 0
 6301 03fa 4FF4805B 		mov	fp, #4096
 6302              	.LBB2555:
 6303              	.LBB2556:
 6304              		.loc 1 25 0
 6305 03fe 0120     		movs	r0, #1
 6306              	.LBE2556:
 6307              	.LBE2555:
 6308              		.loc 1 59 0
 6309 0400 0546     		mov	r5, r0
 6310              		.loc 1 57 0
 6311 0402 A6F818B0 		strh	fp, [r6, #24]	@ movhi
 6312              	.LBB2558:
 6313              	.LBB2557:
 6314              		.loc 1 25 0
 6315 0406 FFF7FEFF 		bl	chThdSleep
 6316              	.LVL484:
 6317              	.LBE2557:
 6318              	.LBE2558:
 6319              	.LBB2559:
 6320              	.LBB2560:
 6321 040a 2846     		mov	r0, r5
 6322              	.LBE2560:
 6323              	.LBE2559:
 6324              		.loc 1 59 0
 6325 040c 2583     		strh	r5, [r4, #24]	@ movhi
 6326              	.LBB2562:
 6327              	.LBB2561:
ARM GAS  /tmp/ccUMP9GK.s 			page 112


 6328              		.loc 1 25 0
 6329 040e FFF7FEFF 		bl	chThdSleep
 6330              	.LVL485:
 6331              	.LBE2561:
 6332              	.LBE2562:
 6333              		.loc 1 61 0
 6334 0412 6583     		strh	r5, [r4, #26]	@ movhi
 6335              		.loc 1 64 0
 6336 0414 5946     		mov	r1, fp
 6337 0416 0522     		movs	r2, #5
 6338 0418 8648     		ldr	r0, .L382
 6339              		.loc 1 63 0
 6340 041a A6F818B0 		strh	fp, [r6, #24]	@ movhi
 6341              		.loc 1 64 0
 6342 041e FFF7FEFF 		bl	_pal_lld_setgroupmode
 6343              	.LVL486:
 6344              	.LBB2563:
 6345              	.LBB2564:
 6346              		.loc 1 25 0
 6347 0422 2846     		mov	r0, r5
 6348 0424 FFF7FEFF 		bl	chThdSleep
 6349              	.LVL487:
 6350              	.LBE2564:
 6351              	.LBE2563:
 6352              		.loc 1 66 0
 6353 0428 5946     		mov	r1, fp
 6354 042a 0522     		movs	r2, #5
 6355 042c 8148     		ldr	r0, .L382
 6356 042e FFF7FEFF 		bl	_pal_lld_setgroupmode
 6357              	.LVL488:
 6358 0432 0725     		movs	r5, #7
 6359              	.LVL489:
 6360              	.L228:
 6361              	.LBE2554:
 6362              	.LBE2553:
 6363              	.LBB2565:
 6364              	.LBB2566:
 6365              		.loc 1 130 0
 6366 0434 48FA05F1 		asr	r1, r8, r5
 6367              		.loc 1 135 0
 6368 0438 4FF00109 		mov	r9, #1
 6369              		.loc 1 130 0
 6370 043c CB07     		lsls	r3, r1, #31
 6371              	.LBB2567:
 6372              	.LBB2568:
 6373              		.loc 1 25 0
 6374 043e 4846     		mov	r0, r9
 6375              	.LBE2568:
 6376              	.LBE2567:
 6377              		.loc 1 130 0
 6378 0440 4BD5     		bpl	.L229
 6379              		.loc 1 131 0
 6380 0442 A6F818B0 		strh	fp, [r6, #24]	@ movhi
 6381              	.LBB2572:
 6382              	.LBB2569:
 6383              		.loc 1 25 0
 6384 0446 FFF7FEFF 		bl	chThdSleep
ARM GAS  /tmp/ccUMP9GK.s 			page 113


 6385              	.LVL490:
 6386              	.LBE2569:
 6387              	.LBE2572:
 6388              	.LBB2573:
 6389              	.LBB2574:
 6390 044a 4846     		mov	r0, r9
 6391              	.LBE2574:
 6392              	.LBE2573:
 6393              		.loc 1 135 0
 6394 044c A4F81890 		strh	r9, [r4, #24]	@ movhi
 6395              	.LBB2578:
 6396              	.LBB2575:
 6397              		.loc 1 25 0
 6398 0450 FFF7FEFF 		bl	chThdSleep
 6399              	.LVL491:
 6400              	.LBE2575:
 6401              	.LBE2578:
 6402              	.LBB2579:
 6403              	.LBB2580:
 6404 0454 4846     		mov	r0, r9
 6405 0456 FFF7FEFF 		bl	chThdSleep
 6406              	.LVL492:
 6407 045a 013D     		subs	r5, r5, #1
 6408              	.LVL493:
 6409              	.LBE2580:
 6410              	.LBE2579:
 6411              		.loc 1 138 0
 6412 045c A4F81A90 		strh	r9, [r4, #26]	@ movhi
 6413              	.LBB2582:
 6414              	.LBB2583:
 6415              		.loc 1 25 0
 6416 0460 4846     		mov	r0, r9
 6417 0462 FFF7FEFF 		bl	chThdSleep
 6418              	.LVL494:
 6419              	.LBE2583:
 6420              	.LBE2582:
 6421              		.loc 1 128 0
 6422 0466 691C     		adds	r1, r5, #1
 6423 0468 E4D1     		bne	.L228
 6424              	.L230:
 6425              	.LVL495:
 6426              	.LBE2566:
 6427              	.LBE2565:
 6428              	.LBB2592:
 6429              	.LBB2593:
 6430              		.loc 1 57 0
 6431 046a 4FF4805B 		mov	fp, #4096
 6432              	.LBB2594:
 6433              	.LBB2595:
 6434              		.loc 1 25 0
 6435 046e 0120     		movs	r0, #1
 6436              	.LBE2595:
 6437              	.LBE2594:
 6438              		.loc 1 59 0
 6439 0470 0546     		mov	r5, r0
 6440              		.loc 1 57 0
 6441 0472 A6F818B0 		strh	fp, [r6, #24]	@ movhi
ARM GAS  /tmp/ccUMP9GK.s 			page 114


 6442              	.LBB2597:
 6443              	.LBB2596:
 6444              		.loc 1 25 0
 6445 0476 FFF7FEFF 		bl	chThdSleep
 6446              	.LVL496:
 6447              	.LBE2596:
 6448              	.LBE2597:
 6449              	.LBB2598:
 6450              	.LBB2599:
 6451 047a 2846     		mov	r0, r5
 6452              	.LBE2599:
 6453              	.LBE2598:
 6454              		.loc 1 59 0
 6455 047c 2583     		strh	r5, [r4, #24]	@ movhi
 6456              	.LBB2601:
 6457              	.LBB2600:
 6458              		.loc 1 25 0
 6459 047e FFF7FEFF 		bl	chThdSleep
 6460              	.LVL497:
 6461              	.LBE2600:
 6462              	.LBE2601:
 6463              		.loc 1 64 0
 6464 0482 5946     		mov	r1, fp
 6465 0484 0522     		movs	r2, #5
 6466              		.loc 1 61 0
 6467 0486 6583     		strh	r5, [r4, #26]	@ movhi
 6468              		.loc 1 64 0
 6469 0488 6A48     		ldr	r0, .L382
 6470              		.loc 1 63 0
 6471 048a A6F818B0 		strh	fp, [r6, #24]	@ movhi
 6472              		.loc 1 64 0
 6473 048e FFF7FEFF 		bl	_pal_lld_setgroupmode
 6474              	.LVL498:
 6475              	.LBB2602:
 6476              	.LBB2603:
 6477              		.loc 1 25 0
 6478 0492 2846     		mov	r0, r5
 6479 0494 FFF7FEFF 		bl	chThdSleep
 6480              	.LVL499:
 6481              	.LBE2603:
 6482              	.LBE2602:
 6483              		.loc 1 66 0
 6484 0498 0522     		movs	r2, #5
 6485 049a 5946     		mov	r1, fp
 6486 049c 6548     		ldr	r0, .L382
 6487 049e FFF7FEFF 		bl	_pal_lld_setgroupmode
 6488              	.LVL500:
 6489              	.LBE2593:
 6490              	.LBE2592:
 6491              	.LBB2604:
 6492              	.LBB2605:
 6493              	.LBB2606:
 6494              	.LBB2607:
 6495              		.loc 1 25 0
 6496 04a2 2846     		mov	r0, r5
 6497              	.LBE2607:
 6498              	.LBE2606:
ARM GAS  /tmp/ccUMP9GK.s 			page 115


 6499              		.loc 1 49 0
 6500 04a4 2583     		strh	r5, [r4, #24]	@ movhi
 6501              	.LBB2609:
 6502              	.LBB2608:
 6503              		.loc 1 25 0
 6504 04a6 FFF7FEFF 		bl	chThdSleep
 6505              	.LVL501:
 6506              	.LBE2608:
 6507              	.LBE2609:
 6508              	.LBB2610:
 6509              	.LBB2611:
 6510 04aa 2846     		mov	r0, r5
 6511              	.LBE2611:
 6512              	.LBE2610:
 6513              		.loc 1 51 0
 6514 04ac A6F818B0 		strh	fp, [r6, #24]	@ movhi
 6515              	.LBB2613:
 6516              	.LBB2612:
 6517              		.loc 1 25 0
 6518 04b0 FFF7FEFF 		bl	chThdSleep
 6519              	.LVL502:
 6520              	.LBE2612:
 6521              	.LBE2613:
 6522              	.LBE2605:
 6523              	.LBE2604:
 6524              	.LBE2618:
 6525              	.LBE2621:
 6526              	.LBB2622:
 6527              	.LBB2623:
 6528              		.loc 1 266 0
 6529 04b4 04A9     		add	r1, sp, #16
 6530 04b6 0023     		movs	r3, #0
 6531 04b8 01F8013D 		strb	r3, [r1, #-1]!
 6532              		.loc 1 267 0
 6533 04bc 3846     		mov	r0, r7
 6534 04be FFF7FEFF 		bl	_Z17swi2c_readByte_A8hhPh.constprop.3
 6535              	.LVL503:
 6536 04c2 019A     		ldr	r2, [sp, #4]
 6537              		.loc 1 268 0
 6538 04c4 9DF80F30 		ldrb	r3, [sp, #15]	@ zero_extendqisi2
 6539              	.LVL504:
 6540 04c8 0232     		adds	r2, r2, #2
 6541              	.LBE2623:
 6542              	.LBE2622:
 6543              	.LBE2626:
 6544              		.loc 1 293 0
 6545 04ca 9845     		cmp	r8, r3
 6546 04cc 0192     		str	r2, [sp, #4]
 6547 04ce 3FF422AF 		beq	.L232
 6548              	.LVL505:
 6549              	.L259:
 6550              		.loc 1 295 0
 6551 04d2 0020     		movs	r0, #0
 6552              	.LBE2475:
 6553              	.LBE2474:
 6554              	.LBE2473:
 6555              		.loc 1 322 0
ARM GAS  /tmp/ccUMP9GK.s 			page 116


 6556 04d4 05B0     		add	sp, sp, #20
 6557              		.cfi_remember_state
 6558              		.cfi_def_cfa_offset 36
 6559              		@ sp needed
 6560 04d6 BDE8F08F 		pop	{r4, r5, r6, r7, r8, r9, r10, fp, pc}
 6561              	.LVL506:
 6562              	.L229:
 6563              		.cfi_restore_state
 6564              	.LBB2630:
 6565              	.LBB2629:
 6566              	.LBB2628:
 6567              	.LBB2627:
 6568              	.LBB2624:
 6569              	.LBB2619:
 6570              	.LBB2614:
 6571              	.LBB2591:
 6572              	.LBB2585:
 6573              	.LBB2570:
 6574              		.loc 1 25 0
 6575 04da 0120     		movs	r0, #1
 6576              	.LBE2570:
 6577              	.LBE2585:
 6578              		.loc 1 133 0
 6579 04dc A6F81AB0 		strh	fp, [r6, #26]	@ movhi
 6580              	.LBB2586:
 6581              	.LBB2571:
 6582              		.loc 1 25 0
 6583 04e0 FFF7FEFF 		bl	chThdSleep
 6584              	.LVL507:
 6585              	.LBE2571:
 6586              	.LBE2586:
 6587              	.LBB2587:
 6588              	.LBB2576:
 6589 04e4 4846     		mov	r0, r9
 6590              	.LBE2576:
 6591              	.LBE2587:
 6592              		.loc 1 135 0
 6593 04e6 A4F81890 		strh	r9, [r4, #24]	@ movhi
 6594              	.LBB2588:
 6595              	.LBB2577:
 6596              		.loc 1 25 0
 6597 04ea FFF7FEFF 		bl	chThdSleep
 6598              	.LVL508:
 6599              	.LBE2577:
 6600              	.LBE2588:
 6601              	.LBB2589:
 6602              	.LBB2581:
 6603 04ee 4846     		mov	r0, r9
 6604 04f0 FFF7FEFF 		bl	chThdSleep
 6605              	.LVL509:
 6606 04f4 013D     		subs	r5, r5, #1
 6607              	.LVL510:
 6608              	.LBE2581:
 6609              	.LBE2589:
 6610              		.loc 1 138 0
 6611 04f6 A4F81A90 		strh	r9, [r4, #26]	@ movhi
 6612              	.LBB2590:
ARM GAS  /tmp/ccUMP9GK.s 			page 117


 6613              	.LBB2584:
 6614              		.loc 1 25 0
 6615 04fa 4846     		mov	r0, r9
 6616 04fc FFF7FEFF 		bl	chThdSleep
 6617              	.LVL511:
 6618              	.LBE2584:
 6619              	.LBE2590:
 6620              		.loc 1 128 0
 6621 0500 6A1C     		adds	r2, r5, #1
 6622 0502 97D1     		bne	.L228
 6623 0504 B1E7     		b	.L230
 6624              	.LVL512:
 6625              	.L225:
 6626              	.LBE2591:
 6627              	.LBE2614:
 6628              	.LBB2615:
 6629              	.LBB2552:
 6630              	.LBB2546:
 6631              	.LBB2531:
 6632              		.loc 1 25 0
 6633 0506 0120     		movs	r0, #1
 6634              	.LBE2531:
 6635              	.LBE2546:
 6636              		.loc 1 133 0
 6637 0508 A6F81AB0 		strh	fp, [r6, #26]	@ movhi
 6638              	.LBB2547:
 6639              	.LBB2532:
 6640              		.loc 1 25 0
 6641 050c FFF7FEFF 		bl	chThdSleep
 6642              	.LVL513:
 6643              	.LBE2532:
 6644              	.LBE2547:
 6645              	.LBB2548:
 6646              	.LBB2537:
 6647 0510 5046     		mov	r0, r10
 6648              	.LBE2537:
 6649              	.LBE2548:
 6650              		.loc 1 135 0
 6651 0512 A4F818A0 		strh	r10, [r4, #24]	@ movhi
 6652              	.LBB2549:
 6653              	.LBB2538:
 6654              		.loc 1 25 0
 6655 0516 FFF7FEFF 		bl	chThdSleep
 6656              	.LVL514:
 6657              	.LBE2538:
 6658              	.LBE2549:
 6659              	.LBB2550:
 6660              	.LBB2542:
 6661 051a 5046     		mov	r0, r10
 6662 051c FFF7FEFF 		bl	chThdSleep
 6663              	.LVL515:
 6664 0520 013D     		subs	r5, r5, #1
 6665              	.LVL516:
 6666              	.LBE2542:
 6667              	.LBE2550:
 6668              		.loc 1 138 0
 6669 0522 A4F81AA0 		strh	r10, [r4, #26]	@ movhi
ARM GAS  /tmp/ccUMP9GK.s 			page 118


 6670              	.LBB2551:
 6671              	.LBB2545:
 6672              		.loc 1 25 0
 6673 0526 5046     		mov	r0, r10
 6674 0528 FFF7FEFF 		bl	chThdSleep
 6675              	.LVL517:
 6676              	.LBE2545:
 6677              	.LBE2551:
 6678              		.loc 1 128 0
 6679 052c 6A1C     		adds	r2, r5, #1
 6680 052e 7FF448AF 		bne	.L224
 6681 0532 62E7     		b	.L226
 6682              	.LVL518:
 6683              	.L221:
 6684              	.LBE2552:
 6685              	.LBE2615:
 6686              	.LBB2616:
 6687              	.LBB2513:
 6688              		.loc 1 133 0
 6689 0534 A6F81AE0 		strh	lr, [r6, #26]	@ movhi
 6690              	.LBB2508:
 6691              	.LBB2494:
 6692              		.loc 1 25 0
 6693 0538 0120     		movs	r0, #1
 6694 053a FFF7FEFF 		bl	chThdSleep
 6695              	.LVL519:
 6696              	.LBE2494:
 6697              	.LBE2508:
 6698              	.LBB2509:
 6699              	.LBB2499:
 6700 053e 5046     		mov	r0, r10
 6701              	.LBE2499:
 6702              	.LBE2509:
 6703              		.loc 1 135 0
 6704 0540 A4F818A0 		strh	r10, [r4, #24]	@ movhi
 6705              	.LBB2510:
 6706              	.LBB2500:
 6707              		.loc 1 25 0
 6708 0544 FFF7FEFF 		bl	chThdSleep
 6709              	.LVL520:
 6710              	.LBE2500:
 6711              	.LBE2510:
 6712              	.LBB2511:
 6713              	.LBB2504:
 6714 0548 5046     		mov	r0, r10
 6715 054a FFF7FEFF 		bl	chThdSleep
 6716              	.LVL521:
 6717 054e 013D     		subs	r5, r5, #1
 6718              	.LVL522:
 6719              	.LBE2504:
 6720              	.LBE2511:
 6721              		.loc 1 138 0
 6722 0550 A4F81AA0 		strh	r10, [r4, #26]	@ movhi
 6723              	.LBB2512:
 6724              	.LBB2507:
 6725              		.loc 1 25 0
 6726 0554 5046     		mov	r0, r10
ARM GAS  /tmp/ccUMP9GK.s 			page 119


 6727 0556 FFF7FEFF 		bl	chThdSleep
 6728              	.LVL523:
 6729              	.LBE2507:
 6730              	.LBE2512:
 6731              		.loc 1 128 0
 6732 055a 6A1C     		adds	r2, r5, #1
 6733 055c 7FF4F6AE 		bne	.L220
 6734 0560 12E7     		b	.L222
 6735              	.LVL524:
 6736              	.L216:
 6737              	.LBE2513:
 6738              	.LBE2616:
 6739              	.LBE2619:
 6740              	.LBE2624:
 6741              	.LBE2627:
 6742              	.LBE2628:
 6743              	.LBE2629:
 6744              	.LBE2630:
 6745              	.LBB2631:
 6746              	.LBB2470:
 6747              	.LBB2466:
 6748              	.LBB2443:
 6749              		.loc 1 133 0
 6750 0562 A8F81A10 		strh	r1, [r8, #26]	@ movhi
 6751              	.LBB2437:
 6752              	.LBB2423:
 6753              		.loc 1 25 0
 6754 0566 0120     		movs	r0, #1
 6755 0568 FFF7FEFF 		bl	chThdSleep
 6756              	.LVL525:
 6757              	.LBE2423:
 6758              	.LBE2437:
 6759              	.LBB2438:
 6760              	.LBB2428:
 6761 056c 3046     		mov	r0, r6
 6762              	.LBE2428:
 6763              	.LBE2438:
 6764              		.loc 1 135 0
 6765 056e 3E83     		strh	r6, [r7, #24]	@ movhi
 6766              	.LBB2439:
 6767              	.LBB2429:
 6768              		.loc 1 25 0
 6769 0570 FFF7FEFF 		bl	chThdSleep
 6770              	.LVL526:
 6771              	.LBE2429:
 6772              	.LBE2439:
 6773              	.LBB2440:
 6774              	.LBB2433:
 6775 0574 3046     		mov	r0, r6
 6776 0576 FFF7FEFF 		bl	chThdSleep
 6777              	.LVL527:
 6778 057a 013C     		subs	r4, r4, #1
 6779              	.LVL528:
 6780              	.LBE2433:
 6781              	.LBE2440:
 6782              		.loc 1 138 0
 6783 057c 7E83     		strh	r6, [r7, #26]	@ movhi
ARM GAS  /tmp/ccUMP9GK.s 			page 120


 6784              	.LBB2441:
 6785              	.LBB2436:
 6786              		.loc 1 25 0
 6787 057e 3046     		mov	r0, r6
 6788 0580 FFF7FEFF 		bl	chThdSleep
 6789              	.LVL529:
 6790              	.LBE2436:
 6791              	.LBE2441:
 6792              		.loc 1 128 0
 6793 0584 621C     		adds	r2, r4, #1
 6794 0586 7FF480AE 		bne	.L215
 6795 058a 99E6     		b	.L217
 6796              	.LVL530:
 6797              	.L212:
 6798              	.LBE2443:
 6799              	.LBE2466:
 6800              	.LBB2467:
 6801              	.LBB2402:
 6802              		.loc 1 133 0
 6803 058c A8F81A10 		strh	r1, [r8, #26]	@ movhi
 6804              	.LBB2396:
 6805              	.LBB2382:
 6806              		.loc 1 25 0
 6807 0590 0120     		movs	r0, #1
 6808 0592 FFF7FEFF 		bl	chThdSleep
 6809              	.LVL531:
 6810              	.LBE2382:
 6811              	.LBE2396:
 6812              	.LBB2397:
 6813              	.LBB2387:
 6814 0596 3046     		mov	r0, r6
 6815              	.LBE2387:
 6816              	.LBE2397:
 6817              		.loc 1 135 0
 6818 0598 3E83     		strh	r6, [r7, #24]	@ movhi
 6819              	.LBB2398:
 6820              	.LBB2388:
 6821              		.loc 1 25 0
 6822 059a FFF7FEFF 		bl	chThdSleep
 6823              	.LVL532:
 6824              	.LBE2388:
 6825              	.LBE2398:
 6826              	.LBB2399:
 6827              	.LBB2392:
 6828 059e 3046     		mov	r0, r6
 6829 05a0 FFF7FEFF 		bl	chThdSleep
 6830              	.LVL533:
 6831 05a4 013C     		subs	r4, r4, #1
 6832              	.LVL534:
 6833              	.LBE2392:
 6834              	.LBE2399:
 6835              		.loc 1 138 0
 6836 05a6 7E83     		strh	r6, [r7, #26]	@ movhi
 6837              	.LBB2400:
 6838              	.LBB2395:
 6839              		.loc 1 25 0
 6840 05a8 3046     		mov	r0, r6
ARM GAS  /tmp/ccUMP9GK.s 			page 121


 6841 05aa FFF7FEFF 		bl	chThdSleep
 6842              	.LVL535:
 6843              	.LBE2395:
 6844              	.LBE2400:
 6845              		.loc 1 128 0
 6846 05ae 621C     		adds	r2, r4, #1
 6847 05b0 7FF430AE 		bne	.L211
 6848 05b4 49E6     		b	.L213
 6849              	.LVL536:
 6850              	.L208:
 6851              	.LBE2402:
 6852              	.LBE2467:
 6853              	.LBB2468:
 6854              	.LBB2351:
 6855              		.loc 1 133 0
 6856 05b6 A8F81A10 		strh	r1, [r8, #26]	@ movhi
 6857              	.LBB2344:
 6858              	.LBB2330:
 6859              		.loc 1 25 0
 6860 05ba 0120     		movs	r0, #1
 6861 05bc FFF7FEFF 		bl	chThdSleep
 6862              	.LVL537:
 6863              	.LBE2330:
 6864              	.LBE2344:
 6865              	.LBB2345:
 6866              	.LBB2335:
 6867 05c0 3046     		mov	r0, r6
 6868              	.LBE2335:
 6869              	.LBE2345:
 6870              		.loc 1 135 0
 6871 05c2 3E83     		strh	r6, [r7, #24]	@ movhi
 6872              	.LBB2346:
 6873              	.LBB2336:
 6874              		.loc 1 25 0
 6875 05c4 FFF7FEFF 		bl	chThdSleep
 6876              	.LVL538:
 6877              	.LBE2336:
 6878              	.LBE2346:
 6879              	.LBB2347:
 6880              	.LBB2340:
 6881 05c8 3046     		mov	r0, r6
 6882 05ca FFF7FEFF 		bl	chThdSleep
 6883              	.LVL539:
 6884 05ce 013C     		subs	r4, r4, #1
 6885              	.LVL540:
 6886              	.LBE2340:
 6887              	.LBE2347:
 6888              		.loc 1 138 0
 6889 05d0 7E83     		strh	r6, [r7, #26]	@ movhi
 6890              	.LBB2348:
 6891              	.LBB2343:
 6892              		.loc 1 25 0
 6893 05d2 3046     		mov	r0, r6
 6894 05d4 FFF7FEFF 		bl	chThdSleep
 6895              	.LVL541:
 6896              	.LBE2343:
 6897              	.LBE2348:
ARM GAS  /tmp/ccUMP9GK.s 			page 122


 6898              		.loc 1 128 0
 6899 05d8 621C     		adds	r2, r4, #1
 6900 05da 7FF4E0AD 		bne	.L207
 6901 05de F9E5     		b	.L209
 6902              	.LVL542:
 6903              	.L203:
 6904              	.LBE2351:
 6905              	.LBE2468:
 6906              	.LBE2470:
 6907              	.LBE2631:
 6908              	.LBB2632:
 6909              	.LBB2321:
 6910              	.LBB2317:
 6911              	.LBB2264:
 6912              		.loc 1 133 0
 6913 05e0 A8F81A10 		strh	r1, [r8, #26]	@ movhi
 6914              	.LBB2258:
 6915              	.LBB2244:
 6916              		.loc 1 25 0
 6917 05e4 0120     		movs	r0, #1
 6918 05e6 FFF7FEFF 		bl	chThdSleep
 6919              	.LVL543:
 6920              	.LBE2244:
 6921              	.LBE2258:
 6922              	.LBB2259:
 6923              	.LBB2249:
 6924 05ea 3046     		mov	r0, r6
 6925              	.LBE2249:
 6926              	.LBE2259:
 6927              		.loc 1 135 0
 6928 05ec 3E83     		strh	r6, [r7, #24]	@ movhi
 6929              	.LBB2260:
 6930              	.LBB2250:
 6931              		.loc 1 25 0
 6932 05ee FFF7FEFF 		bl	chThdSleep
 6933              	.LVL544:
 6934              	.LBE2250:
 6935              	.LBE2260:
 6936              	.LBB2261:
 6937              	.LBB2254:
 6938 05f2 3046     		mov	r0, r6
 6939 05f4 FFF7FEFF 		bl	chThdSleep
 6940              	.LVL545:
 6941 05f8 013C     		subs	r4, r4, #1
 6942              	.LVL546:
 6943              	.LBE2254:
 6944              	.LBE2261:
 6945              		.loc 1 138 0
 6946 05fa 7E83     		strh	r6, [r7, #26]	@ movhi
 6947              	.LBB2262:
 6948              	.LBB2257:
 6949              		.loc 1 25 0
 6950 05fc 3046     		mov	r0, r6
 6951 05fe FFF7FEFF 		bl	chThdSleep
 6952              	.LVL547:
 6953              	.LBE2257:
 6954              	.LBE2262:
ARM GAS  /tmp/ccUMP9GK.s 			page 123


 6955              		.loc 1 128 0
 6956 0602 621C     		adds	r2, r4, #1
 6957 0604 7FF44AAD 		bne	.L202
 6958 0608 63E5     		b	.L204
 6959              	.LVL548:
 6960              	.L199:
 6961              	.LBE2264:
 6962              	.LBE2317:
 6963              	.LBB2318:
 6964              	.LBB2223:
 6965              		.loc 1 133 0
 6966 060a A8F81A10 		strh	r1, [r8, #26]	@ movhi
 6967              	.LBB2217:
 6968              	.LBB2203:
 6969              		.loc 1 25 0
 6970 060e 0120     		movs	r0, #1
 6971 0610 FFF7FEFF 		bl	chThdSleep
 6972              	.LVL549:
 6973              	.LBE2203:
 6974              	.LBE2217:
 6975              	.LBB2218:
 6976              	.LBB2208:
 6977 0614 3046     		mov	r0, r6
 6978              	.LBE2208:
 6979              	.LBE2218:
 6980              		.loc 1 135 0
 6981 0616 3E83     		strh	r6, [r7, #24]	@ movhi
 6982              	.LBB2219:
 6983              	.LBB2209:
 6984              		.loc 1 25 0
 6985 0618 FFF7FEFF 		bl	chThdSleep
 6986              	.LVL550:
 6987              	.LBE2209:
 6988              	.LBE2219:
 6989              	.LBB2220:
 6990              	.LBB2213:
 6991 061c 3046     		mov	r0, r6
 6992 061e FFF7FEFF 		bl	chThdSleep
 6993              	.LVL551:
 6994 0622 013C     		subs	r4, r4, #1
 6995              	.LVL552:
 6996              	.LBE2213:
 6997              	.LBE2220:
 6998              		.loc 1 138 0
 6999 0624 7E83     		strh	r6, [r7, #26]	@ movhi
 7000              	.LBB2221:
 7001              	.LBB2216:
 7002              		.loc 1 25 0
 7003 0626 3046     		mov	r0, r6
 7004 0628 FFF7FEFF 		bl	chThdSleep
 7005              	.LVL553:
 7006              	.LBE2216:
 7007              	.LBE2221:
 7008              		.loc 1 128 0
 7009 062c 621C     		adds	r2, r4, #1
 7010 062e 7FF4FAAC 		bne	.L198
 7011 0632 13E5     		b	.L200
ARM GAS  /tmp/ccUMP9GK.s 			page 124


 7012              	.L383:
 7013              		.align	2
 7014              	.L382:
 7015 0634 001C0240 		.word	1073880064
 7016              	.LVL554:
 7017              	.L219:
 7018              	.LBE2223:
 7019              	.LBE2318:
 7020              	.LBE2321:
 7021              	.LBE2632:
 7022              	.LBB2633:
 7023              	.LBB2634:
 7024              	.LBB2635:
 7025              	.LBB2636:
 7026              	.LBB2637:
 7027              	.LBB2638:
 7028              		.loc 1 41 0
 7029 0638 D74C     		ldr	r4, .L384
 7030              		.loc 1 43 0
 7031 063a D84F     		ldr	r7, .L384+4
 7032              	.LVL555:
 7033              	.LBE2638:
 7034              	.LBE2637:
 7035              	.LBE2636:
 7036              	.LBE2635:
 7037              		.loc 1 298 0
 7038 063c 6420     		movs	r0, #100
 7039 063e FFF7FEFF 		bl	chThdSleep
 7040              	.LVL556:
 7041              	.LBB2767:
 7042              	.LBB2765:
 7043              	.LBB2647:
 7044              	.LBB2645:
 7045              		.loc 1 41 0
 7046 0642 4FF48053 		mov	r3, #4096
 7047 0646 6383     		strh	r3, [r4, #26]	@ movhi
 7048              	.LBB2639:
 7049              	.LBB2640:
 7050              		.loc 1 25 0
 7051 0648 0120     		movs	r0, #1
 7052 064a FFF7FEFF 		bl	chThdSleep
 7053              	.LVL557:
 7054              	.LBE2640:
 7055              	.LBE2639:
 7056              		.loc 1 43 0
 7057 064e 0120     		movs	r0, #1
 7058 0650 7883     		strh	r0, [r7, #26]	@ movhi
 7059              	.LBB2641:
 7060              	.LBB2642:
 7061              		.loc 1 25 0
 7062 0652 FFF7FEFF 		bl	chThdSleep
 7063              	.LVL558:
 7064              	.LBE2642:
 7065              	.LBE2641:
 7066              	.LBE2645:
 7067              	.LBE2647:
 7068              	.LBB2648:
ARM GAS  /tmp/ccUMP9GK.s 			page 125


 7069              	.LBB2649:
 7070              		.loc 1 133 0
 7071 0656 A046     		mov	r8, r4
 7072              		.loc 1 130 0
 7073 0658 4FF08009 		mov	r9, #128
 7074              	.LBE2649:
 7075              	.LBE2648:
 7076              	.LBB2674:
 7077              	.LBB2646:
 7078              	.LBB2644:
 7079              	.LBB2643:
 7080              		.loc 1 25 0
 7081 065c 0724     		movs	r4, #7
 7082              	.LVL559:
 7083              	.L234:
 7084              	.LBE2643:
 7085              	.LBE2644:
 7086              	.LBE2646:
 7087              	.LBE2674:
 7088              	.LBB2675:
 7089              	.LBB2672:
 7090              		.loc 1 130 0
 7091 065e 49FA04F3 		asr	r3, r9, r4
 7092              		.loc 1 135 0
 7093 0662 0126     		movs	r6, #1
 7094              		.loc 1 130 0
 7095 0664 DB07     		lsls	r3, r3, #31
 7096              		.loc 1 131 0
 7097 0666 4FF48051 		mov	r1, #4096
 7098              	.LBB2650:
 7099              	.LBB2651:
 7100              		.loc 1 25 0
 7101 066a 3046     		mov	r0, r6
 7102              	.LBE2651:
 7103              	.LBE2650:
 7104              		.loc 1 130 0
 7105 066c 40F1ED84 		bpl	.L235
 7106              		.loc 1 131 0
 7107 0670 A8F81810 		strh	r1, [r8, #24]	@ movhi
 7108              	.LBB2654:
 7109              	.LBB2652:
 7110              		.loc 1 25 0
 7111 0674 FFF7FEFF 		bl	chThdSleep
 7112              	.LVL560:
 7113              	.LBE2652:
 7114              	.LBE2654:
 7115              	.LBB2655:
 7116              	.LBB2656:
 7117 0678 3046     		mov	r0, r6
 7118              	.LBE2656:
 7119              	.LBE2655:
 7120              		.loc 1 135 0
 7121 067a 3E83     		strh	r6, [r7, #24]	@ movhi
 7122              	.LBB2660:
 7123              	.LBB2657:
 7124              		.loc 1 25 0
 7125 067c FFF7FEFF 		bl	chThdSleep
ARM GAS  /tmp/ccUMP9GK.s 			page 126


 7126              	.LVL561:
 7127              	.LBE2657:
 7128              	.LBE2660:
 7129              	.LBB2661:
 7130              	.LBB2662:
 7131 0680 3046     		mov	r0, r6
 7132 0682 FFF7FEFF 		bl	chThdSleep
 7133              	.LVL562:
 7134 0686 013C     		subs	r4, r4, #1
 7135              	.LVL563:
 7136              	.LBE2662:
 7137              	.LBE2661:
 7138              		.loc 1 138 0
 7139 0688 7E83     		strh	r6, [r7, #26]	@ movhi
 7140              	.LBB2664:
 7141              	.LBB2665:
 7142              		.loc 1 25 0
 7143 068a 3046     		mov	r0, r6
 7144 068c FFF7FEFF 		bl	chThdSleep
 7145              	.LVL564:
 7146              	.LBE2665:
 7147              	.LBE2664:
 7148              		.loc 1 128 0
 7149 0690 611C     		adds	r1, r4, #1
 7150 0692 E4D1     		bne	.L234
 7151              	.L236:
 7152              	.LVL565:
 7153              	.LBE2672:
 7154              	.LBE2675:
 7155              	.LBB2676:
 7156              	.LBB2677:
 7157              		.loc 1 57 0
 7158 0694 C04C     		ldr	r4, .L384
 7159              		.loc 1 59 0
 7160 0696 C14F     		ldr	r7, .L384+4
 7161              		.loc 1 57 0
 7162 0698 4FF48055 		mov	r5, #4096
 7163              	.LBB2678:
 7164              	.LBB2679:
 7165              		.loc 1 25 0
 7166 069c 0120     		movs	r0, #1
 7167              	.LBE2679:
 7168              	.LBE2678:
 7169              		.loc 1 59 0
 7170 069e 0646     		mov	r6, r0
 7171              		.loc 1 57 0
 7172 06a0 2583     		strh	r5, [r4, #24]	@ movhi
 7173              	.LBB2681:
 7174              	.LBB2680:
 7175              		.loc 1 25 0
 7176 06a2 FFF7FEFF 		bl	chThdSleep
 7177              	.LVL566:
 7178              	.LBE2680:
 7179              	.LBE2681:
 7180              	.LBB2682:
 7181              	.LBB2683:
 7182 06a6 3046     		mov	r0, r6
ARM GAS  /tmp/ccUMP9GK.s 			page 127


 7183              	.LBE2683:
 7184              	.LBE2682:
 7185              		.loc 1 59 0
 7186 06a8 3E83     		strh	r6, [r7, #24]	@ movhi
 7187              	.LBB2685:
 7188              	.LBB2684:
 7189              		.loc 1 25 0
 7190 06aa FFF7FEFF 		bl	chThdSleep
 7191              	.LVL567:
 7192              	.LBE2684:
 7193              	.LBE2685:
 7194              		.loc 1 64 0
 7195 06ae 2946     		mov	r1, r5
 7196 06b0 2046     		mov	r0, r4
 7197 06b2 0522     		movs	r2, #5
 7198              		.loc 1 61 0
 7199 06b4 7E83     		strh	r6, [r7, #26]	@ movhi
 7200              		.loc 1 63 0
 7201 06b6 2583     		strh	r5, [r4, #24]	@ movhi
 7202              		.loc 1 64 0
 7203 06b8 FFF7FEFF 		bl	_pal_lld_setgroupmode
 7204              	.LVL568:
 7205              	.LBB2686:
 7206              	.LBB2687:
 7207              		.loc 1 25 0
 7208 06bc 3046     		mov	r0, r6
 7209 06be FFF7FEFF 		bl	chThdSleep
 7210              	.LVL569:
 7211              	.LBE2687:
 7212              	.LBE2686:
 7213              		.loc 1 66 0
 7214 06c2 2046     		mov	r0, r4
 7215 06c4 2946     		mov	r1, r5
 7216 06c6 0522     		movs	r2, #5
 7217 06c8 FFF7FEFF 		bl	_pal_lld_setgroupmode
 7218              	.LVL570:
 7219              	.LBE2677:
 7220              	.LBE2676:
 7221              	.LBB2689:
 7222              	.LBB2690:
 7223              		.loc 1 133 0
 7224 06cc A046     		mov	r8, r4
 7225              		.loc 1 130 0
 7226 06ce 4FF07F09 		mov	r9, #127
 7227              	.LBE2690:
 7228              	.LBE2689:
 7229              	.LBB2717:
 7230              	.LBB2688:
 7231              		.loc 1 66 0
 7232 06d2 0724     		movs	r4, #7
 7233              	.LVL571:
 7234              	.L238:
 7235              	.LBE2688:
 7236              	.LBE2717:
 7237              	.LBB2718:
 7238              	.LBB2715:
 7239              		.loc 1 130 0
ARM GAS  /tmp/ccUMP9GK.s 			page 128


 7240 06d4 49FA04F3 		asr	r3, r9, r4
 7241              		.loc 1 135 0
 7242 06d8 0126     		movs	r6, #1
 7243              		.loc 1 130 0
 7244 06da DB07     		lsls	r3, r3, #31
 7245              		.loc 1 131 0
 7246 06dc 4FF48051 		mov	r1, #4096
 7247              	.LBB2691:
 7248              	.LBB2692:
 7249              		.loc 1 25 0
 7250 06e0 3046     		mov	r0, r6
 7251              	.LBE2692:
 7252              	.LBE2691:
 7253              		.loc 1 130 0
 7254 06e2 40F19C84 		bpl	.L239
 7255              		.loc 1 131 0
 7256 06e6 A8F81810 		strh	r1, [r8, #24]	@ movhi
 7257              	.LBB2695:
 7258              	.LBB2693:
 7259              		.loc 1 25 0
 7260 06ea FFF7FEFF 		bl	chThdSleep
 7261              	.LVL572:
 7262              	.LBE2693:
 7263              	.LBE2695:
 7264              	.LBB2696:
 7265              	.LBB2697:
 7266 06ee 3046     		mov	r0, r6
 7267              	.LBE2697:
 7268              	.LBE2696:
 7269              		.loc 1 135 0
 7270 06f0 3E83     		strh	r6, [r7, #24]	@ movhi
 7271              	.LBB2701:
 7272              	.LBB2698:
 7273              		.loc 1 25 0
 7274 06f2 FFF7FEFF 		bl	chThdSleep
 7275              	.LVL573:
 7276              	.LBE2698:
 7277              	.LBE2701:
 7278              	.LBB2702:
 7279              	.LBB2703:
 7280 06f6 3046     		mov	r0, r6
 7281 06f8 FFF7FEFF 		bl	chThdSleep
 7282              	.LVL574:
 7283 06fc 013C     		subs	r4, r4, #1
 7284              	.LVL575:
 7285              	.LBE2703:
 7286              	.LBE2702:
 7287              	.LBB2705:
 7288              	.LBB2706:
 7289 06fe 3046     		mov	r0, r6
 7290              	.LBE2706:
 7291              	.LBE2705:
 7292              		.loc 1 138 0
 7293 0700 7E83     		strh	r6, [r7, #26]	@ movhi
 7294              	.LBB2709:
 7295              	.LBB2707:
 7296              		.loc 1 25 0
ARM GAS  /tmp/ccUMP9GK.s 			page 129


 7297 0702 FFF7FEFF 		bl	chThdSleep
 7298              	.LVL576:
 7299              	.LBE2707:
 7300              	.LBE2709:
 7301              		.loc 1 128 0
 7302 0706 601C     		adds	r0, r4, #1
 7303 0708 E4D1     		bne	.L238
 7304              	.L240:
 7305              	.LBE2715:
 7306              	.LBE2718:
 7307              	.LBB2719:
 7308              	.LBB2720:
 7309              		.loc 1 57 0
 7310 070a A34F     		ldr	r7, .L384
 7311              		.loc 1 59 0
 7312 070c A34E     		ldr	r6, .L384+4
 7313              		.loc 1 57 0
 7314 070e 4FF48054 		mov	r4, #4096
 7315              	.LBB2721:
 7316              	.LBB2722:
 7317              		.loc 1 25 0
 7318 0712 0120     		movs	r0, #1
 7319              	.LBE2722:
 7320              	.LBE2721:
 7321              		.loc 1 59 0
 7322 0714 0546     		mov	r5, r0
 7323              		.loc 1 57 0
 7324 0716 3C83     		strh	r4, [r7, #24]	@ movhi
 7325              	.LBB2724:
 7326              	.LBB2723:
 7327              		.loc 1 25 0
 7328 0718 FFF7FEFF 		bl	chThdSleep
 7329              	.LVL577:
 7330              	.LBE2723:
 7331              	.LBE2724:
 7332              	.LBB2725:
 7333              	.LBB2726:
 7334 071c 2846     		mov	r0, r5
 7335              	.LBE2726:
 7336              	.LBE2725:
 7337              		.loc 1 59 0
 7338 071e 3583     		strh	r5, [r6, #24]	@ movhi
 7339              	.LBB2728:
 7340              	.LBB2727:
 7341              		.loc 1 25 0
 7342 0720 FFF7FEFF 		bl	chThdSleep
 7343              	.LVL578:
 7344              	.LBE2727:
 7345              	.LBE2728:
 7346              		.loc 1 64 0
 7347 0724 2146     		mov	r1, r4
 7348 0726 0522     		movs	r2, #5
 7349              		.loc 1 61 0
 7350 0728 7583     		strh	r5, [r6, #26]	@ movhi
 7351              		.loc 1 64 0
 7352 072a 3846     		mov	r0, r7
 7353              		.loc 1 63 0
ARM GAS  /tmp/ccUMP9GK.s 			page 130


 7354 072c 3C83     		strh	r4, [r7, #24]	@ movhi
 7355              		.loc 1 64 0
 7356 072e FFF7FEFF 		bl	_pal_lld_setgroupmode
 7357              	.LVL579:
 7358              	.LBB2729:
 7359              	.LBB2730:
 7360              		.loc 1 25 0
 7361 0732 2846     		mov	r0, r5
 7362 0734 FFF7FEFF 		bl	chThdSleep
 7363              	.LVL580:
 7364              	.LBE2730:
 7365              	.LBE2729:
 7366              		.loc 1 66 0
 7367 0738 2146     		mov	r1, r4
 7368 073a 3846     		mov	r0, r7
 7369 073c 0522     		movs	r2, #5
 7370 073e FFF7FEFF 		bl	_pal_lld_setgroupmode
 7371              	.LVL581:
 7372 0742 0724     		movs	r4, #7
 7373              	.LVL582:
 7374              	.L242:
 7375              	.LBE2720:
 7376              	.LBE2719:
 7377              	.LBB2731:
 7378              	.LBB2732:
 7379              		.loc 1 130 0
 7380 0744 55FA04F1 		asrs	r1, r5, r4
 7381              		.loc 1 131 0
 7382 0748 4FF48052 		mov	r2, #4096
 7383 074c 14BF     		ite	ne
 7384 074e 3A83     		strhne	r2, [r7, #24]	@ movhi
 7385              		.loc 1 133 0
 7386 0750 7A83     		strheq	r2, [r7, #26]	@ movhi
 7387              	.LBB2733:
 7388              	.LBB2734:
