ARM GAS  /tmp/ccfQ4xWW.s 			page 1


   1              		.cpu cortex-m4
   2              		.eabi_attribute 27, 1
   3              		.eabi_attribute 28, 1
   4              		.eabi_attribute 20, 1
   5              		.eabi_attribute 21, 1
   6              		.eabi_attribute 23, 3
   7              		.eabi_attribute 24, 1
   8              		.eabi_attribute 25, 1
   9              		.eabi_attribute 26, 1
  10              		.eabi_attribute 30, 2
  11              		.eabi_attribute 34, 1
  12              		.eabi_attribute 18, 4
  13              		.file	"imu.c"
  14              		.text
  15              	.Ltext0:
  16              		.cfi_sections	.debug_frame
  17              		.section	.text.imu_setError,"ax",%progbits
  18              		.align	1
  19              		.p2align 2,,3
  20              		.global	imu_setError
  21              		.syntax unified
  22              		.thumb
  23              		.thumb_func
  24              		.fpu fpv4-sp-d16
  25              		.type	imu_setError, %function
  26              	imu_setError:
  27              	.LFB338:
  28              		.file 1 "./RM18A-ChibiOS18-Core/src/imu.c"
  29              		.loc 1 6 0
  30              		.cfi_startproc
  31              		@ args = 0, pretend = 0, frame = 0
  32              		@ frame_needed = 0, uses_anonymous_args = 0
  33              	.LVL0:
  34              		.loc 1 7 0
  35 0000 C38F     		ldrh	r3, [r0, #62]
  36              		.loc 1 9 0
  37 0002 026C     		ldr	r2, [r0, #64]
  38              		.loc 1 6 0
  39 0004 10B5     		push	{r4, lr}
  40              		.cfi_def_cfa_offset 8
  41              		.cfi_offset 4, -8
  42              		.cfi_offset 14, -4
  43              		.loc 1 7 0
  44 0006 1943     		orrs	r1, r1, r3
  45              	.LVL1:
  46              		.loc 1 8 0
  47 0008 0524     		movs	r4, #5
  48 000a 80F83C40 		strb	r4, [r0, #60]
  49              		.loc 1 7 0
  50 000e C187     		strh	r1, [r0, #62]	@ movhi
  51              		.loc 1 9 0
  52 0010 3AB1     		cbz	r2, .L1
  53 0012 0446     		mov	r4, r0
  54              		.loc 1 11 0
  55 0014 FFF7FEFF 		bl	mpu6500_resume
  56              	.LVL2:
  57              		.loc 1 12 0
ARM GAS  /tmp/ccfQ4xWW.s 			page 2


  58 0018 206C     		ldr	r0, [r4, #64]
  59              		.loc 1 14 0
  60 001a BDE81040 		pop	{r4, lr}
  61              		.cfi_remember_state
  62              		.cfi_restore 14
  63              		.cfi_restore 4
  64              		.cfi_def_cfa_offset 0
  65              	.LVL3:
  66              		.loc 1 12 0
  67 001e FFF7FEBF 		b	imu_switchToRedundant
  68              	.LVL4:
  69              	.L1:
  70              		.cfi_restore_state
  71              		.loc 1 14 0
  72 0022 10BD     		pop	{r4, pc}
  73              		.cfi_endproc
  74              	.LFE338:
  75              		.size	imu_setError, .-imu_setError
  76              		.section	.text.imu_update,"ax",%progbits
  77              		.align	1
  78              		.p2align 2,,3
  79              		.global	imu_update
  80              		.syntax unified
  81              		.thumb
  82              		.thumb_func
  83              		.fpu fpv4-sp-d16
  84              		.type	imu_update, %function
  85              	imu_update:
  86              	.LFB339:
  87              		.loc 1 17 0
  88              		.cfi_startproc
  89              		@ args = 0, pretend = 0, frame = 0
  90              		@ frame_needed = 0, uses_anonymous_args = 0
  91              		@ link register save eliminated.
  92              	.LVL5:
  93 0000 70B4     		push	{r4, r5, r6}
  94              		.cfi_def_cfa_offset 12
  95              		.cfi_offset 4, -12
  96              		.cfi_offset 5, -8
  97              		.cfi_offset 6, -4
  98              		.loc 1 20 0
  99 0002 046A     		ldr	r4, [r0, #32]
 100              	.LVL6:
 101              		.loc 1 21 0
 102 0004 2578     		ldrb	r5, [r4]	@ zero_extendqisi2
 103 0006 6678     		ldrb	r6, [r4, #1]	@ zero_extendqisi2
 104 0008 AD00     		lsls	r5, r5, #2
 105 000a 5319     		adds	r3, r2, r5
 106 000c 93ED006A 		vldr.32	s12, [r3]
 107              		.loc 1 25 0
 108 0010 A378     		ldrb	r3, [r4, #2]	@ zero_extendqisi2
 109              		.loc 1 21 0
 110 0012 002E     		cmp	r6, #0
 111 0014 FFEE007A 		vmov.f32	s15, #-1.0e+0
 112 0018 F7EE006A 		vmov.f32	s13, #1.0e+0
 113 001c 0CBF     		ite	eq
 114 001e B0EE667A 		vmoveq.f32	s14, s13
ARM GAS  /tmp/ccfQ4xWW.s 			page 3


 115 0022 B0EE677A 		vmovne.f32	s14, s15
 116 0026 27EE066A 		vmul.f32	s12, s14, s12
 117              		.loc 1 22 0
 118 002a 0D44     		add	r5, r5, r1
 119              		.loc 1 21 0
 120 002c 80ED006A 		vstr.32	s12, [r0]
 121              	.LVL7:
 122              		.loc 1 22 0
 123 0030 95ED006A 		vldr.32	s12, [r5]
 124              		.loc 1 25 0
 125 0034 E678     		ldrb	r6, [r4, #3]	@ zero_extendqisi2
 126              		.loc 1 22 0
 127 0036 27EE067A 		vmul.f32	s14, s14, s12
 128              		.loc 1 25 0
 129 003a 9B00     		lsls	r3, r3, #2
 130              		.loc 1 22 0
 131 003c 80ED037A 		vstr.32	s14, [r0, #12]
 132              		.loc 1 25 0
 133 0040 D518     		adds	r5, r2, r3
 134 0042 95ED006A 		vldr.32	s12, [r5]
 135              		.loc 1 29 0
 136 0046 2579     		ldrb	r5, [r4, #4]	@ zero_extendqisi2
 137 0048 6479     		ldrb	r4, [r4, #5]	@ zero_extendqisi2
 138              	.LVL8:
 139              		.loc 1 25 0
 140 004a 002E     		cmp	r6, #0
 141 004c 0CBF     		ite	eq
 142 004e B0EE667A 		vmoveq.f32	s14, s13
 143 0052 B0EE677A 		vmovne.f32	s14, s15
 144 0056 27EE066A 		vmul.f32	s12, s14, s12
 145              		.loc 1 26 0
 146 005a 0B44     		add	r3, r3, r1
 147              		.loc 1 25 0
 148 005c 80ED016A 		vstr.32	s12, [r0, #4]
 149              		.loc 1 26 0
 150 0060 93ED006A 		vldr.32	s12, [r3]
 151 0064 27EE067A 		vmul.f32	s14, s14, s12
 152              		.loc 1 29 0
 153 0068 AB00     		lsls	r3, r5, #2
 154              		.loc 1 26 0
 155 006a 80ED047A 		vstr.32	s14, [r0, #16]
 156              		.loc 1 29 0
 157 006e 1A44     		add	r2, r2, r3
 158              	.LVL9:
 159 0070 92ED007A 		vldr.32	s14, [r2]
 160 0074 002C     		cmp	r4, #0
 161 0076 08BF     		it	eq
 162 0078 F0EE667A 		vmoveq.f32	s15, s13
 163 007c 27EE877A 		vmul.f32	s14, s15, s14
 164              		.loc 1 30 0
 165 0080 1944     		add	r1, r1, r3
 166              	.LVL10:
 167              		.loc 1 29 0
 168 0082 80ED027A 		vstr.32	s14, [r0, #8]
 169              		.loc 1 30 0
 170 0086 91ED007A 		vldr.32	s14, [r1]
 171 008a 67EE877A 		vmul.f32	s15, s15, s14
ARM GAS  /tmp/ccfQ4xWW.s 			page 4


 172              		.loc 1 31 0
 173 008e 70BC     		pop	{r4, r5, r6}
 174              		.cfi_restore 6
 175              		.cfi_restore 5
 176              		.cfi_restore 4
 177              		.cfi_def_cfa_offset 0
 178              		.loc 1 30 0
 179 0090 C0ED057A 		vstr.32	s15, [r0, #20]
 180              	.LVL11:
 181              		.loc 1 31 0
 182 0094 7047     		bx	lr
 183              		.cfi_endproc
 184              	.LFE339:
 185              		.size	imu_update, .-imu_update
 186 0096 00BF     		.section	.text.imu_setAttitudeParam,"ax",%progbits
 187              		.align	1
 188              		.p2align 2,,3
 189              		.global	imu_setAttitudeParam
 190              		.syntax unified
 191              		.thumb
 192              		.thumb_func
 193              		.fpu fpv4-sp-d16
 194              		.type	imu_setAttitudeParam, %function
 195              	imu_setAttitudeParam:
 196              	.LFB340:
 197              		.loc 1 34 0
 198              		.cfi_startproc
 199              		@ args = 0, pretend = 0, frame = 0
 200              		@ frame_needed = 0, uses_anonymous_args = 0
 201              		@ link register save eliminated.
 202              	.LVL12:
 203              		.loc 1 37 0
 204 0000 7047     		bx	lr
 205              		.cfi_endproc
 206              	.LFE340:
 207              		.size	imu_setAttitudeParam, .-imu_setAttitudeParam
 208 0002 00BF     		.text
 209              	.Letext0:
 210              		.file 2 "/usr/lib/gcc/arm-none-eabi/7.3.1/include/stddef.h"
 211              		.file 3 "/usr/arm-none-eabi/include/machine/_default_types.h"
 212              		.file 4 "/usr/arm-none-eabi/include/sys/_stdint.h"
 213              		.file 5 "./RM18A-ChibiOS18-Core/chibios/os/common/ports/ARMCMx/compilers/GCC/chtypes.h"
 214              		.file 6 "./RM18A-ChibiOS18-Core/chibios/os/rt/include/chsystypes.h"
 215              		.file 7 "./RM18A-ChibiOS18-Core/chibios/os/rt/include/chschd.h"
 216              		.file 8 "./RM18A-ChibiOS18-Core/chibios/os/rt/include/chtime.h"
 217              		.file 9 "./RM18A-ChibiOS18-Core/chibios/os/common/ext/ARM/CMSIS/Core/Include/core_cm4.h"
 218              		.file 10 "./RM18A-ChibiOS18-Core/chibios/os/common/ext/ST/STM32F4xx/system_stm32f4xx.h"
 219              		.file 11 "./RM18A-ChibiOS18-Core/chibios/os/common/ext/ST/STM32F4xx/stm32f427xx.h"
 220              		.file 12 "./RM18A-ChibiOS18-Core/chibios/os/common/ports/ARMCMx/chcore.h"
 221              		.file 13 "./RM18A-ChibiOS18-Core/chibios/os/common/ports/ARMCMx/chcore_v7m.h"
 222              		.file 14 "./RM18A-ChibiOS18-Core/chibios/os/hal/ports/STM32/LLD/TIMv1/stm32_tim.h"
 223              		.file 15 "./RM18A-ChibiOS18-Core/chibios/os/rt/include/chtm.h"
 224              		.file 16 "./RM18A-ChibiOS18-Core/chibios/os/rt/include/chsem.h"
 225              		.file 17 "./RM18A-ChibiOS18-Core/chibios/os/rt/include/chmtx.h"
 226              		.file 18 "./RM18A-ChibiOS18-Core/chibios/os/rt/include/chsys.h"
 227              		.file 19 "./RM18A-ChibiOS18-Core/chibios/os/rt/include/chregistry.h"
 228              		.file 20 "./RM18A-ChibiOS18-Core/chibios/os/rt/include/chcond.h"
ARM GAS  /tmp/ccfQ4xWW.s 			page 5


 229              		.file 21 "./RM18A-ChibiOS18-Core/chibios/os/rt/include/chevents.h"
 230              		.file 22 "./RM18A-ChibiOS18-Core/chibios/os/oslib/include/chmemcore.h"
 231              		.file 23 "./RM18A-ChibiOS18-Core/chibios/os/oslib/include/chmempools.h"
 232              		.file 24 "./RM18A-ChibiOS18-Core/chibios/os/oslib/include/chfactory.h"
 233              		.file 25 "./RM18A-ChibiOS18-Core/chibios/os/hal/ports/STM32/LLD/DMAv2/stm32_dma.h"
 234              		.file 26 "./RM18A-ChibiOS18-Core/chibios/os/hal/include/hal_queues.h"
 235              		.file 27 "./RM18A-ChibiOS18-Core/chibios/os/hal/include/hal_pal.h"
 236              		.file 28 "./RM18A-ChibiOS18-Core/chibios/os/hal/ports/STM32/LLD/GPIOv2/hal_pal_lld.h"
 237              		.file 29 "./RM18A-ChibiOS18-Core/chibios/os/hal/include/hal_adc.h"
 238              		.file 30 "./RM18A-ChibiOS18-Core/chibios/os/hal/ports/STM32/LLD/ADCv2/hal_adc_lld.h"
 239              		.file 31 "./RM18A-ChibiOS18-Core/chibios/os/hal/include/hal_can.h"
 240              		.file 32 "./RM18A-ChibiOS18-Core/chibios/os/hal/ports/STM32/LLD/CANv1/hal_can_lld.h"
 241              		.file 33 "./RM18A-ChibiOS18-Core/chibios/os/hal/include/hal_i2c.h"
 242              		.file 34 "./RM18A-ChibiOS18-Core/chibios/os/hal/lib/fallback/I2C/hal_i2c_lld.h"
 243              		.file 35 "./RM18A-ChibiOS18-Core/chibios/os/hal/include/hal_icu.h"
 244              		.file 36 "./RM18A-ChibiOS18-Core/chibios/os/hal/ports/STM32/LLD/TIMv1/hal_icu_lld.h"
 245              		.file 37 "./RM18A-ChibiOS18-Core/chibios/os/hal/include/hal_pwm.h"
 246              		.file 38 "./RM18A-ChibiOS18-Core/chibios/os/hal/ports/STM32/LLD/TIMv1/hal_pwm_lld.h"
 247              		.file 39 "./RM18A-ChibiOS18-Core/chibios/os/hal/include/hal_serial.h"
 248              		.file 40 "./RM18A-ChibiOS18-Core/chibios/os/hal/ports/STM32/LLD/USARTv1/hal_serial_lld.h"
 249              		.file 41 "./RM18A-ChibiOS18-Core/chibios/os/hal/include/hal_spi.h"
 250              		.file 42 "./RM18A-ChibiOS18-Core/chibios/os/hal/ports/STM32/LLD/SPIv1/hal_spi_lld.h"
 251              		.file 43 "./RM18A-ChibiOS18-Core/chibios/os/hal/include/hal_uart.h"
 252              		.file 44 "./RM18A-ChibiOS18-Core/chibios/os/hal/ports/STM32/LLD/USARTv1/hal_uart_lld.h"
 253              		.file 45 "./RM18A-ChibiOS18-Core/chibios/os/hal/include/hal_usb.h"
 254              		.file 46 "./RM18A-ChibiOS18-Core/chibios/os/hal/ports/STM32/LLD/OTGv1/hal_usb_lld.h"
 255              		.file 47 "./RM18A-ChibiOS18-Core/chibios/os/hal/ports/STM32/LLD/OTGv1/stm32_otg.h"
 256              		.file 48 "/usr/arm-none-eabi/include/sys/lock.h"
 257              		.file 49 "/usr/arm-none-eabi/include/sys/_types.h"
 258              		.file 50 "/usr/arm-none-eabi/include/sys/reent.h"
 259              		.file 51 "./RM18A-ChibiOS18-Core/src/imu.h"
 260              		.file 52 "./RM18A-ChibiOS18-Core/src/ext_hw/mpu6500.h"