ARM GAS  /tmp/ccVPpRjl.s 			page 1


   1              		.cpu cortex-m4
   2              		.eabi_attribute 27, 1
   3              		.eabi_attribute 28, 1
   4              		.eabi_attribute 20, 1
   5              		.eabi_attribute 21, 1
   6              		.eabi_attribute 23, 3
   7              		.eabi_attribute 24, 1
   8              		.eabi_attribute 25, 1
   9              		.eabi_attribute 26, 1
  10              		.eabi_attribute 30, 2
  11              		.eabi_attribute 34, 1
  12              		.eabi_attribute 18, 4
  13              		.file	"imu_calibration.cpp"
  14              		.text
  15              	.Ltext0:
  16              		.cfi_sections	.debug_frame
  17              		.section	.text._Z12mpu6500_testP20BaseSequentialStreamiPPc,"ax",%progbits
  18              		.align	1
  19              		.p2align 2,,3
  20              		.global	_Z12mpu6500_testP20BaseSequentialStreamiPPc
  21              		.syntax unified
  22              		.thumb
  23              		.thumb_func
  24              		.fpu fpv4-sp-d16
  25              		.type	_Z12mpu6500_testP20BaseSequentialStreamiPPc, %function
  26              	_Z12mpu6500_testP20BaseSequentialStreamiPPc:
  27              	.LFB565:
  28              		.file 1 "./RM18A-ChibiOS18-Core/src/imu_calibration.cpp"
  29              		.loc 1 191 0
  30              		.cfi_startproc
  31              		@ args = 0, pretend = 0, frame = 0
  32              		@ frame_needed = 0, uses_anonymous_args = 0
  33              	.LVL0:
  34 0000 10B5     		push	{r4, lr}
  35              		.cfi_def_cfa_offset 8
  36              		.cfi_offset 4, -8
  37              		.cfi_offset 14, -4
  38              		.loc 1 194 0
  39 0002 0D49     		ldr	r1, .L13
  40              	.LVL1:
  41              		.loc 1 191 0
  42 0004 0446     		mov	r4, r0
  43              		.loc 1 194 0
  44 0006 FFF7FEFF 		bl	chprintf
  45              	.LVL2:
  46              		.loc 1 195 0
  47 000a FFF7FEFF 		bl	adis16470_getData
  48              	.LVL3:
  49              		.loc 1 196 0
  50 000e 10B1     		cbz	r0, .L2
  51              		.loc 1 196 0 is_stmt 0 discriminator 1
  52 0010 90F83C30 		ldrb	r3, [r0, #60]	@ zero_extendqisi2
  53 0014 3BB9     		cbnz	r3, .L12
  54              	.L2:
  55              		.loc 1 199 0 is_stmt 1
  56 0016 FFF7FEFF 		bl	mpu6500_resume
  57              	.LVL4:
ARM GAS  /tmp/ccVPpRjl.s 			page 2


  58              		.loc 1 200 0
  59 001a 2046     		mov	r0, r4
  60 001c 0749     		ldr	r1, .L13+4
  61              		.loc 1 201 0
  62 001e BDE81040 		pop	{r4, lr}
  63              		.cfi_remember_state
  64              		.cfi_restore 14
  65              		.cfi_restore 4
  66              		.cfi_def_cfa_offset 0
  67              	.LVL5:
  68              		.loc 1 200 0
  69 0022 FFF7FEBF 		b	chprintf
  70              	.LVL6:
  71              	.L12:
  72              		.cfi_restore_state
  73              		.loc 1 197 0
  74 0026 0021     		movs	r1, #0
  75 0028 FFF7FEFF 		bl	imu_setError
  76              	.LVL7:
  77              		.loc 1 200 0
  78 002c 2046     		mov	r0, r4
  79 002e 0349     		ldr	r1, .L13+4
  80              		.loc 1 201 0
  81 0030 BDE81040 		pop	{r4, lr}
  82              		.cfi_restore 14
  83              		.cfi_restore 4
  84              		.cfi_def_cfa_offset 0
  85              	.LVL8:
  86              		.loc 1 200 0
  87 0034 FFF7FEBF 		b	chprintf
  88              	.LVL9:
  89              	.L14:
  90              		.align	2
  91              	.L13:
  92 0038 00000000 		.word	.LC0
  93 003c 1C000000 		.word	.LC1
  94              		.cfi_endproc
  95              	.LFE565:
  96              		.size	_Z12mpu6500_testP20BaseSequentialStreamiPPc, .-_Z12mpu6500_testP20BaseSequentialStreamiPPc
  97              		.global	__aeabi_i2d
  98              		.global	__aeabi_dcmpgt
  99              		.global	__aeabi_dcmplt
 100              		.global	__aeabi_f2d
 101              		.section	.text.read_adis16470_avg,"ax",%progbits
 102              		.align	1
 103              		.p2align 2,,3
 104              		.global	read_adis16470_avg
 105              		.syntax unified
 106              		.thumb
 107              		.thumb_func
 108              		.fpu fpv4-sp-d16
 109              		.type	read_adis16470_avg, %function
 110              	read_adis16470_avg:
 111              	.LFB562:
 112              		.loc 1 18 0
 113              		.cfi_startproc
 114              		@ args = 0, pretend = 0, frame = 56
ARM GAS  /tmp/ccVPpRjl.s 			page 3


 115              		@ frame_needed = 0, uses_anonymous_args = 0
 116              	.LVL10:
 117 0000 2DE9F04F 		push	{r4, r5, r6, r7, r8, r9, r10, fp, lr}
 118              		.cfi_def_cfa_offset 36
 119              		.cfi_offset 4, -36
 120              		.cfi_offset 5, -32
 121              		.cfi_offset 6, -28
 122              		.cfi_offset 7, -24
 123              		.cfi_offset 8, -20
 124              		.cfi_offset 9, -16
 125              		.cfi_offset 10, -12
 126              		.cfi_offset 11, -8
 127              		.cfi_offset 14, -4
 128 0004 93B0     		sub	sp, sp, #76
 129              		.cfi_def_cfa_offset 112
 130              		.loc 1 18 0
 131 0006 8246     		mov	r10, r0
 132 0008 0591     		str	r1, [sp, #20]
 133              		.loc 1 19 0
 134 000a FFF7FEFF 		bl	adis16470_getData
 135              	.LVL11:
 136              		.loc 1 22 0
 137 000e 90F83C30 		ldrb	r3, [r0, #60]	@ zero_extendqisi2
 138              		.loc 1 20 0
 139 0012 0024     		movs	r4, #0
 140              		.loc 1 22 0
 141 0014 052B     		cmp	r3, #5
 142              		.loc 1 20 0
 143 0016 CDE90644 		strd	r4, r4, [sp, #24]
 144 001a 0894     		str	r4, [sp, #32]
 145              		.loc 1 22 0
 146 001c 00F0CB80 		beq	.L26
 147              		.loc 1 28 0
 148 0020 6D49     		ldr	r1, .L28+16
 149 0022 0746     		mov	r7, r0
 150 0024 5046     		mov	r0, r10
 151              	.LVL12:
 152 0026 FFF7FEFF 		bl	chprintf
 153              	.LVL13:
 154              		.loc 1 29 0
 155 002a 0223     		movs	r3, #2
 156 002c 87F83C30 		strb	r3, [r7, #60]
 157              		.loc 1 30 0
 158 0030 41F28830 		movw	r0, #5000
 159 0034 FFF7FEFF 		bl	chThdSleep
 160              	.LVL14:
 161              		.loc 1 31 0
 162 0038 059D     		ldr	r5, [sp, #20]
 163 003a 6849     		ldr	r1, .L28+20
 164 003c 2A46     		mov	r2, r5
 165 003e 5046     		mov	r0, r10
 166 0040 FFF7FEFF 		bl	chprintf
 167              	.LVL15:
 168              		.loc 1 34 0
 169 0044 0CA8     		add	r0, sp, #48
 170 0046 2A46     		mov	r2, r5
 171 0048 5146     		mov	r1, r10
ARM GAS  /tmp/ccVPpRjl.s 			page 4


 172 004a FFF7FEFF 		bl	progressBar_init
 173              	.LVL16:
 174              		.loc 1 35 0
 175 004e 0CA8     		add	r0, sp, #48
 176              		.loc 1 34 0
 177 0050 2646     		mov	r6, r4
 178 0052 2546     		mov	r5, r4
 179              		.loc 1 35 0
 180 0054 FFF7FEFF 		bl	progressBar_finished
 181              	.LVL17:
 182 0058 0028     		cmp	r0, #0
 183 005a 55D1     		bne	.L18
 184              	.L27:
 185              	.LBB2:
 186              		.loc 1 39 0
 187 005c 1E20     		movs	r0, #30
 188 005e FFF7FEFF 		bl	chThdSleep
 189              	.LVL18:
 190              		.loc 1 40 0
 191 0062 0CA8     		add	r0, sp, #48
 192 0064 FFF7FEFF 		bl	progressBar_update
 193              	.LVL19:
 194              		.loc 1 41 0
 195 0068 09A8     		add	r0, sp, #36
 196 006a FFF7FEFF 		bl	adis16470_get_gyro_raw
 197              	.LVL20:
 198              	.LBB3:
 199              		.loc 1 45 0
 200 006e 0998     		ldr	r0, [sp, #36]
 201              		.loc 1 54 0
 202 0070 0544     		add	r5, r5, r0
 203              		.loc 1 45 0
 204 0072 FFF7FEFF 		bl	__aeabi_i2d
 205              	.LVL21:
 206 0076 54A3     		adr	r3, .L28
 207 0078 D3E90023 		ldrd	r2, [r3]
 208 007c 8046     		mov	r8, r0
 209 007e 8946     		mov	r9, r1
 210 0080 FFF7FEFF 		bl	__aeabi_dcmpgt
 211              	.LVL22:
 212 0084 52A3     		adr	r3, .L28+8
 213 0086 D3E90023 		ldrd	r2, [r3]
 214 008a 0028     		cmp	r0, #0
 215 008c 40F08580 		bne	.L19
 216 0090 4046     		mov	r0, r8
 217 0092 4946     		mov	r1, r9
 218 0094 FFF7FEFF 		bl	__aeabi_dcmplt
 219              	.LVL23:
 220 0098 0028     		cmp	r0, #0
 221 009a 7ED1     		bne	.L19
 222 009c 0A98     		ldr	r0, [sp, #40]
 223              		.loc 1 54 0
 224 009e 0695     		str	r5, [sp, #24]
 225              	.LVL24:
 226 00a0 0644     		add	r6, r6, r0
 227              		.loc 1 45 0
 228 00a2 FFF7FEFF 		bl	__aeabi_i2d
ARM GAS  /tmp/ccVPpRjl.s 			page 5


 229              	.LVL25:
 230 00a6 48A3     		adr	r3, .L28
 231 00a8 D3E90023 		ldrd	r2, [r3]
 232 00ac 8046     		mov	r8, r0
 233 00ae 8946     		mov	r9, r1
 234 00b0 FFF7FEFF 		bl	__aeabi_dcmpgt
 235              	.LVL26:
 236 00b4 46A3     		adr	r3, .L28+8
 237 00b6 D3E90023 		ldrd	r2, [r3]
 238 00ba 0028     		cmp	r0, #0
 239 00bc 6DD1     		bne	.L19
 240 00be 4046     		mov	r0, r8
 241 00c0 4946     		mov	r1, r9
 242 00c2 FFF7FEFF 		bl	__aeabi_dcmplt
 243              	.LVL27:
 244 00c6 0028     		cmp	r0, #0
 245 00c8 67D1     		bne	.L19
 246 00ca DDF82CB0 		ldr	fp, [sp, #44]
 247              		.loc 1 54 0
 248 00ce 0796     		str	r6, [sp, #28]
 249              	.LVL28:
 250              		.loc 1 45 0
 251 00d0 5846     		mov	r0, fp
 252 00d2 FFF7FEFF 		bl	__aeabi_i2d
 253              	.LVL29:
 254 00d6 3CA3     		adr	r3, .L28
 255 00d8 D3E90023 		ldrd	r2, [r3]
 256 00dc 8046     		mov	r8, r0
 257 00de 8946     		mov	r9, r1
 258 00e0 FFF7FEFF 		bl	__aeabi_dcmpgt
 259              	.LVL30:
 260              		.loc 1 54 0
 261 00e4 5C44     		add	r4, r4, fp
 262              		.loc 1 45 0
 263 00e6 3AA3     		adr	r3, .L28+8
 264 00e8 D3E90023 		ldrd	r2, [r3]
 265 00ec 0028     		cmp	r0, #0
 266 00ee 54D1     		bne	.L19
 267 00f0 4046     		mov	r0, r8
 268 00f2 4946     		mov	r1, r9
 269 00f4 FFF7FEFF 		bl	__aeabi_dcmplt
 270              	.LVL31:
 271 00f8 0028     		cmp	r0, #0
 272 00fa 4ED1     		bne	.L19
 273              	.LBE3:
 274              	.LBE2:
 275              		.loc 1 35 0
 276 00fc 0CA8     		add	r0, sp, #48
 277              	.LBB6:
 278              	.LBB4:
 279              		.loc 1 54 0
 280 00fe 0894     		str	r4, [sp, #32]
 281              	.LVL32:
 282              	.LBE4:
 283              	.LBE6:
 284              		.loc 1 35 0
 285 0100 FFF7FEFF 		bl	progressBar_finished
ARM GAS  /tmp/ccVPpRjl.s 			page 6


 286              	.LVL33:
 287 0104 0028     		cmp	r0, #0
 288 0106 A9D0     		beq	.L27
 289              	.LVL34:
 290              	.L18:
 291              	.LBB7:
 292              		.loc 1 59 0
 293 0108 DDED067A 		vldr.32	s15, [sp, #24]	@ int
 294 010c DFED345A 		vldr.32	s11, .L28+24
 295 0110 B8EEE76A 		vcvt.f32.s32	s12, s15
 296 0114 DDED077A 		vldr.32	s15, [sp, #28]	@ int
 297 0118 F8EEE76A 		vcvt.f32.s32	s13, s15
 298 011c DDED087A 		vldr.32	s15, [sp, #32]	@ int
 299 0120 B8EEE77A 		vcvt.f32.s32	s14, s15
 300 0124 DDED057A 		vldr.32	s15, [sp, #20]	@ int
 301 0128 27EE257A 		vmul.f32	s14, s14, s11
 302 012c F8EE677A 		vcvt.f32.u32	s15, s15
 303              	.LVL35:
 304 0130 66EEA56A 		vmul.f32	s13, s13, s11
 305 0134 26EE256A 		vmul.f32	s12, s12, s11
 306 0138 C6EE275A 		vdiv.f32	s11, s12, s15
 307 013c 86EEA76A 		vdiv.f32	s12, s13, s15
 308 0140 C7EE276A 		vdiv.f32	s13, s14, s15
 309 0144 C7ED095A 		vstr.32	s11, [r7, #36]
 310              	.LVL36:
 311 0148 87ED0A6A 		vstr.32	s12, [r7, #40]
 312              	.LVL37:
 313 014c C7ED0B6A 		vstr.32	s13, [r7, #44]
 314              	.LVL38:
 315              	.LBE7:
 316              		.loc 1 61 0
 317 0150 FFF7FEFF 		bl	_Z10Param_Savev
 318              	.LVL39:
 319              		.loc 1 62 0
 320 0154 786A     		ldr	r0, [r7, #36]	@ float
 321 0156 FFF7FEFF 		bl	__aeabi_f2d
 322              	.LVL40:
 323 015a 0446     		mov	r4, r0
 324 015c F86A     		ldr	r0, [r7, #44]	@ float
 325 015e 0D46     		mov	r5, r1
 326 0160 FFF7FEFF 		bl	__aeabi_f2d
 327              	.LVL41:
 328 0164 CDE90201 		strd	r0, [sp, #8]
 329 0168 B86A     		ldr	r0, [r7, #40]	@ float
 330 016a FFF7FEFF 		bl	__aeabi_f2d
 331              	.LVL42:
 332 016e 2B46     		mov	r3, r5
 333 0170 CDE90001 		strd	r0, [sp]
 334 0174 2246     		mov	r2, r4
 335 0176 1B49     		ldr	r1, .L28+28
 336 0178 5046     		mov	r0, r10
 337 017a FFF7FEFF 		bl	chprintf
 338              	.LVL43:
 339              		.loc 1 64 0
 340 017e FB6D     		ldr	r3, [r7, #92]
 341              		.loc 1 63 0
 342 0180 0021     		movs	r1, #0
ARM GAS  /tmp/ccVPpRjl.s 			page 7


 343 0182 87F83C10 		strb	r1, [r7, #60]
 344              		.loc 1 64 0
 345 0186 1BB1     		cbz	r3, .L21
 346              		.loc 1 65 0
 347 0188 07F15C00 		add	r0, r7, #92
 348 018c FFF7FEFF 		bl	chThdResume
 349              	.LVL44:
 350              	.L21:
 351              		.loc 1 66 0
 352 0190 0020     		movs	r0, #0
 353 0192 F865     		str	r0, [r7, #92]
 354              		.loc 1 69 0
 355 0194 13B0     		add	sp, sp, #76
 356              		.cfi_remember_state
 357              		.cfi_def_cfa_offset 36
 358              		@ sp needed
 359 0196 BDE8F08F 		pop	{r4, r5, r6, r7, r8, r9, r10, fp, pc}
 360              	.LVL45:
 361              	.L19:
 362              		.cfi_restore_state
 363              	.LBB8:
 364              	.LBB5:
 365              		.loc 1 48 0
 366 019a 5046     		mov	r0, r10
 367 019c 1249     		ldr	r1, .L28+32
 368 019e FFF7FEFF 		bl	chprintf
 369              	.LVL46:
 370              		.loc 1 49 0
 371 01a2 0023     		movs	r3, #0
 372              		.loc 1 52 0
 373 01a4 0120     		movs	r0, #1
 374              		.loc 1 49 0
 375 01a6 7B62     		str	r3, [r7, #36]	@ unaligned
 376 01a8 BB62     		str	r3, [r7, #40]	@ unaligned
 377 01aa FB62     		str	r3, [r7, #44]	@ unaligned
 378              		.loc 1 50 0
 379 01ac 87F83C30 		strb	r3, [r7, #60]
 380              	.LBE5:
 381              	.LBE8:
 382              		.loc 1 69 0
 383 01b0 13B0     		add	sp, sp, #76
 384              		.cfi_remember_state
 385              		.cfi_def_cfa_offset 36
 386              		@ sp needed
 387 01b2 BDE8F08F 		pop	{r4, r5, r6, r7, r8, r9, r10, fp, pc}
 388              	.LVL47:
 389              	.L26:
 390              		.cfi_restore_state
 391              		.loc 1 24 0
 392 01b6 5046     		mov	r0, r10
 393              	.LVL48:
 394 01b8 0C49     		ldr	r1, .L28+36
 395 01ba FFF7FEFF 		bl	chprintf
 396              	.LVL49:
 397              		.loc 1 25 0
 398 01be FF20     		movs	r0, #255
 399              		.loc 1 69 0
ARM GAS  /tmp/ccVPpRjl.s 			page 8


 400 01c0 13B0     		add	sp, sp, #76
 401              		.cfi_def_cfa_offset 36
 402              		@ sp needed
 403 01c2 BDE8F08F 		pop	{r4, r5, r6, r7, r8, r9, r10, fp, pc}
 404              	.LVL50:
 405              	.L29:
 406 01c6 00BF     		.align	3
 407              	.L28:
 408 01c8 00000000 		.word	0
 409 01cc 60E33641 		.word	1094116192
 410 01d0 00000000 		.word	0
 411 01d4 60E336C1 		.word	-1053367456
 412 01d8 48000000 		.word	.LC3
 413 01dc 68000000 		.word	.LC4
 414 01e0 88C3E432 		.word	853853064
 415 01e4 BC000000 		.word	.LC6
 416 01e8 98000000 		.word	.LC5
 417 01ec 00000000 		.word	.LC2
 418              		.cfi_endproc
 419              	.LFE562:
 420              		.size	read_adis16470_avg, .-read_adis16470_avg
 421              		.global	__aeabi_dmul
 422              		.global	__aeabi_ddiv
 423              		.global	__aeabi_d2f
 424              		.section	.text.read_mpu6500_avg,"ax",%progbits
 425              		.align	1
 426              		.p2align 2,,3
 427              		.global	read_mpu6500_avg
 428              		.syntax unified
 429              		.thumb
 430              		.thumb_func
 431              		.fpu fpv4-sp-d16
 432              		.type	read_mpu6500_avg, %function
 433              	read_mpu6500_avg:
 434              	.LFB563:
 435              		.loc 1 74 0
 436              		.cfi_startproc
 437              		@ args = 0, pretend = 0, frame = 64
 438              		@ frame_needed = 0, uses_anonymous_args = 0
 439              	.LVL51:
 440 0000 2DE9F04F 		push	{r4, r5, r6, r7, r8, r9, r10, fp, lr}
 441              		.cfi_def_cfa_offset 36
 442              		.cfi_offset 4, -36
 443              		.cfi_offset 5, -32
 444              		.cfi_offset 6, -28
 445              		.cfi_offset 7, -24
 446              		.cfi_offset 8, -20
 447              		.cfi_offset 9, -16
 448              		.cfi_offset 10, -12
 449              		.cfi_offset 11, -8
 450              		.cfi_offset 14, -4
 451 0004 95B0     		sub	sp, sp, #84
 452              		.cfi_def_cfa_offset 120
 453              		.loc 1 74 0
 454 0006 0646     		mov	r6, r0
 455 0008 0491     		str	r1, [sp, #16]
 456              		.loc 1 75 0
ARM GAS  /tmp/ccVPpRjl.s 			page 9


 457 000a FFF7FEFF 		bl	mpu6500_getData
 458              	.LVL52:
 459              	.LBB9:
 460              		.loc 1 78 0
 461 000e 90F83C30 		ldrb	r3, [r0, #60]	@ zero_extendqisi2
 462              	.LBE9:
 463              		.loc 1 76 0
 464 0012 0027     		movs	r7, #0
 465              	.LBB21:
 466              		.loc 1 78 0
 467 0014 052B     		cmp	r3, #5
 468              	.LBE21:
 469              		.loc 1 76 0
 470 0016 CDE90977 		strd	r7, r7, [sp, #36]
 471 001a CDE90B77 		strd	r7, r7, [sp, #44]
 472 001e 0D97     		str	r7, [sp, #52]
 473              	.LBB22:
 474              		.loc 1 78 0
 475 0020 00F05F81 		beq	.L60
 476              	.LBB10:
 477              		.loc 1 83 0
 478 0024 C38F     		ldrh	r3, [r0, #62]
 479 0026 DA07     		lsls	r2, r3, #31
 480 0028 0446     		mov	r4, r0
 481 002a 00F1E680 		bmi	.L56
 482 002e 0EAD     		add	r5, sp, #56
 483              	.LVL53:
 484              	.L33:
 485              	.LBE10:
 486              	.LBE22:
 487              		.loc 1 114 0
 488 0030 B949     		ldr	r1, .L62+16
 489 0032 3046     		mov	r0, r6
 490 0034 FFF7FEFF 		bl	chprintf
 491              	.LVL54:
 492              		.loc 1 115 0
 493 0038 0223     		movs	r3, #2
 494 003a 84F83C30 		strb	r3, [r4, #60]
 495              		.loc 1 116 0
 496 003e 41F28830 		movw	r0, #5000
 497 0042 FFF7FEFF 		bl	chThdSleep
 498              	.LVL55:
 499              		.loc 1 117 0
 500 0046 049F     		ldr	r7, [sp, #16]
 501 0048 B449     		ldr	r1, .L62+20
 502 004a 3A46     		mov	r2, r7
 503 004c 3046     		mov	r0, r6
 504 004e FFF7FEFF 		bl	chprintf
 505              	.LVL56:
 506              		.loc 1 120 0
 507 0052 4FF0000A 		mov	r10, #0
 508 0056 3A46     		mov	r2, r7
 509 0058 3146     		mov	r1, r6
 510 005a 2846     		mov	r0, r5
 511 005c FFF7FEFF 		bl	progressBar_init
 512              	.LVL57:
 513 0060 D346     		mov	fp, r10
ARM GAS  /tmp/ccVPpRjl.s 			page 10


 514              		.loc 1 121 0
 515 0062 2846     		mov	r0, r5
 516              		.loc 1 120 0
 517 0064 5746     		mov	r7, r10
 518 0066 0596     		str	r6, [sp, #20]
 519 0068 5646     		mov	r6, r10
 520              	.LVL58:
 521 006a A246     		mov	r10, r4
 522 006c 5C46     		mov	r4, fp
 523              	.LVL59:
 524              		.loc 1 121 0
 525 006e FFF7FEFF 		bl	progressBar_finished
 526              	.LVL60:
 527 0072 0028     		cmp	r0, #0
 528 0074 5CD1     		bne	.L39
 529              	.L61:
 530              	.LBB23:
 531              		.loc 1 125 0
 532 0076 3220     		movs	r0, #50
 533 0078 FFF7FEFF 		bl	chThdSleep
 534              	.LVL61:
 535              		.loc 1 126 0
 536 007c 2846     		mov	r0, r5
 537 007e FFF7FEFF 		bl	progressBar_update
 538              	.LVL62:
 539              		.loc 1 127 0
 540 0082 0DF11E02 		add	r2, sp, #30
 541 0086 06A9     		add	r1, sp, #24
 542 0088 5046     		mov	r0, r10
 543 008a FFF7FEFF 		bl	mpu6500_getDataRaw
 544              	.LVL63:
 545              	.LBB24:
 546              		.loc 1 131 0
 547 008e BDF91E00 		ldrsh	r0, [sp, #30]
 548              		.loc 1 140 0
 549 0092 0744     		add	r7, r7, r0
 550              		.loc 1 131 0
 551 0094 FFF7FEFF 		bl	__aeabi_i2d
 552              	.LVL64:
 553 0098 0022     		movs	r2, #0
 554 009a A14B     		ldr	r3, .L62+24
 555 009c 8046     		mov	r8, r0
 556 009e 8946     		mov	r9, r1
 557 00a0 FFF7FEFF 		bl	__aeabi_dcmpgt
 558              	.LVL65:
 559 00a4 98A3     		adr	r3, .L62
 560 00a6 D3E90023 		ldrd	r2, [r3]
 561 00aa 0028     		cmp	r0, #0
 562 00ac 40F00781 		bne	.L40
 563 00b0 4046     		mov	r0, r8
 564 00b2 4946     		mov	r1, r9
 565 00b4 FFF7FEFF 		bl	__aeabi_dcmplt
 566              	.LVL66:
 567 00b8 0028     		cmp	r0, #0
 568 00ba 40F00081 		bne	.L40
 569 00be BDF92000 		ldrsh	r0, [sp, #32]
 570              		.loc 1 140 0
ARM GAS  /tmp/ccVPpRjl.s 			page 11


 571 00c2 0997     		str	r7, [sp, #36]
 572              	.LVL67:
 573 00c4 0444     		add	r4, r4, r0
 574              		.loc 1 131 0
 575 00c6 FFF7FEFF 		bl	__aeabi_i2d
 576              	.LVL68:
 577 00ca 0022     		movs	r2, #0
 578 00cc 944B     		ldr	r3, .L62+24
 579 00ce 8046     		mov	r8, r0
 580 00d0 8946     		mov	r9, r1
 581 00d2 FFF7FEFF 		bl	__aeabi_dcmpgt
 582              	.LVL69:
 583 00d6 8CA3     		adr	r3, .L62
 584 00d8 D3E90023 		ldrd	r2, [r3]
 585 00dc 0028     		cmp	r0, #0
 586 00de 40F0EE80 		bne	.L40
 587 00e2 4046     		mov	r0, r8
 588 00e4 4946     		mov	r1, r9
 589 00e6 FFF7FEFF 		bl	__aeabi_dcmplt
 590              	.LVL70:
 591 00ea 0028     		cmp	r0, #0
 592 00ec 40F0E780 		bne	.L40
 593 00f0 BDF922B0 		ldrsh	fp, [sp, #34]
 594              		.loc 1 140 0
 595 00f4 0A94     		str	r4, [sp, #40]
 596              	.LVL71:
 597              		.loc 1 131 0
 598 00f6 5846     		mov	r0, fp
 599 00f8 FFF7FEFF 		bl	__aeabi_i2d
 600              	.LVL72:
 601 00fc 0022     		movs	r2, #0
 602 00fe 884B     		ldr	r3, .L62+24
 603 0100 8046     		mov	r8, r0
 604 0102 8946     		mov	r9, r1
 605 0104 FFF7FEFF 		bl	__aeabi_dcmpgt
 606              	.LVL73:
 607              		.loc 1 140 0
 608 0108 5E44     		add	r6, r6, fp
 609              		.loc 1 131 0
 610 010a 7FA3     		adr	r3, .L62
 611 010c D3E90023 		ldrd	r2, [r3]
 612 0110 0028     		cmp	r0, #0
 613 0112 40F0D480 		bne	.L40
 614 0116 4046     		mov	r0, r8
 615 0118 4946     		mov	r1, r9
 616 011a FFF7FEFF 		bl	__aeabi_dcmplt
 617              	.LVL74:
 618 011e 0028     		cmp	r0, #0
 619 0120 40F0CD80 		bne	.L40
 620              	.LBE24:
 621              	.LBE23:
 622              		.loc 1 121 0
 623 0124 2846     		mov	r0, r5
 624              	.LBB27:
 625              	.LBB25:
 626              		.loc 1 140 0
 627 0126 0B96     		str	r6, [sp, #44]
ARM GAS  /tmp/ccVPpRjl.s 			page 12


 628              	.LVL75:
 629              	.LBE25:
 630              	.LBE27:
 631              		.loc 1 121 0
 632 0128 FFF7FEFF 		bl	progressBar_finished
 633              	.LVL76:
 634 012c 0028     		cmp	r0, #0
 635 012e A2D0     		beq	.L61
 636              	.LVL77:
 637              	.L39:
 638 0130 DDED047A 		vldr.32	s15, [sp, #16]	@ int
 639 0134 059E     		ldr	r6, [sp, #20]
 640 0136 F8EE677A 		vcvt.f32.u32	s15, s15
 641 013a 5446     		mov	r4, r10
 642 013c 17EE900A 		vmov	r0, s15
 643 0140 FFF7FEFF 		bl	__aeabi_f2d
 644              	.LVL78:
 645 0144 8046     		mov	r8, r0
 646              	.LBB28:
 647              		.loc 1 145 0
 648 0146 0998     		ldr	r0, [sp, #36]
 649 0148 8946     		mov	r9, r1
 650              	.LVL79:
 651 014a FFF7FEFF 		bl	__aeabi_i2d
 652              	.LVL80:
 653 014e 70A3     		adr	r3, .L62+8
 654 0150 D3E90023 		ldrd	r2, [r3]
 655 0154 FFF7FEFF 		bl	__aeabi_dmul
 656              	.LVL81:
 657 0158 4246     		mov	r2, r8
 658 015a 4B46     		mov	r3, r9
 659 015c FFF7FEFF 		bl	__aeabi_ddiv
 660              	.LVL82:
 661 0160 FFF7FEFF 		bl	__aeabi_d2f
 662              	.LVL83:
 663 0164 CAF82400 		str	r0, [r10, #36]	@ float
 664              	.LVL84:
 665 0168 0A98     		ldr	r0, [sp, #40]
 666 016a FFF7FEFF 		bl	__aeabi_i2d
 667              	.LVL85:
 668 016e 68A3     		adr	r3, .L62+8
 669 0170 D3E90023 		ldrd	r2, [r3]
 670 0174 FFF7FEFF 		bl	__aeabi_dmul
 671              	.LVL86:
 672 0178 4246     		mov	r2, r8
 673 017a 4B46     		mov	r3, r9
 674 017c FFF7FEFF 		bl	__aeabi_ddiv
 675              	.LVL87:
 676 0180 FFF7FEFF 		bl	__aeabi_d2f
 677              	.LVL88:
 678 0184 CAF82800 		str	r0, [r10, #40]	@ float
 679              	.LVL89:
 680 0188 0B98     		ldr	r0, [sp, #44]
 681 018a FFF7FEFF 		bl	__aeabi_i2d
 682              	.LVL90:
 683 018e 60A3     		adr	r3, .L62+8
 684 0190 D3E90023 		ldrd	r2, [r3]
ARM GAS  /tmp/ccVPpRjl.s 			page 13


 685 0194 FFF7FEFF 		bl	__aeabi_dmul
 686              	.LVL91:
 687 0198 4246     		mov	r2, r8
 688 019a 4B46     		mov	r3, r9
 689 019c FFF7FEFF 		bl	__aeabi_ddiv
 690              	.LVL92:
 691 01a0 FFF7FEFF 		bl	__aeabi_d2f
 692              	.LVL93:
 693 01a4 CAF82C00 		str	r0, [r10, #44]	@ float
 694              	.LVL94:
 695              	.LBE28:
 696              		.loc 1 147 0
 697 01a8 FFF7FEFF 		bl	_Z10Param_Savev
 698              	.LVL95:
 699              		.loc 1 148 0
 700 01ac DAF82400 		ldr	r0, [r10, #36]	@ float
 701 01b0 FFF7FEFF 		bl	__aeabi_f2d
 702              	.LVL96:
 703 01b4 8046     		mov	r8, r0
 704 01b6 DAF82C00 		ldr	r0, [r10, #44]	@ float
 705 01ba 8946     		mov	r9, r1
 706 01bc FFF7FEFF 		bl	__aeabi_f2d
 707              	.LVL97:
 708 01c0 CDE90201 		strd	r0, [sp, #8]
 709 01c4 DAF82800 		ldr	r0, [r10, #40]	@ float
 710 01c8 FFF7FEFF 		bl	__aeabi_f2d
 711              	.LVL98:
 712 01cc 4B46     		mov	r3, r9
 713 01ce CDE90001 		strd	r0, [sp]
 714 01d2 4246     		mov	r2, r8
 715 01d4 5349     		ldr	r1, .L62+28
 716 01d6 3046     		mov	r0, r6
 717 01d8 FFF7FEFF 		bl	chprintf
 718              	.LVL99:
 719              		.loc 1 151 0
 720 01dc DAF85C30 		ldr	r3, [r10, #92]
 721              		.loc 1 149 0
 722 01e0 0021     		movs	r1, #0
 723 01e2 8AF83C10 		strb	r1, [r10, #60]
 724              		.loc 1 151 0
 725 01e6 1BB1     		cbz	r3, .L42
 726              	.LVL100:
 727              		.loc 1 152 0
 728 01e8 0AF15C00 		add	r0, r10, #92
 729 01ec FFF7FEFF 		bl	chThdResume
 730              	.LVL101:
 731              	.L42:
 732              		.loc 1 153 0
 733 01f0 0020     		movs	r0, #0
 734 01f2 E065     		str	r0, [r4, #92]
 735              		.loc 1 156 0
 736 01f4 15B0     		add	sp, sp, #84
 737              		.cfi_remember_state
 738              		.cfi_def_cfa_offset 36
 739              		@ sp needed
 740 01f6 BDE8F08F 		pop	{r4, r5, r6, r7, r8, r9, r10, fp, pc}
 741              	.LVL102:
ARM GAS  /tmp/ccVPpRjl.s 			page 14


 742              	.L56:
 743              		.cfi_restore_state
 744              	.LBB29:
 745              	.LBB19:
 746              	.LBB11:
 747              		.loc 1 85 0
 748 01fa 4B49     		ldr	r1, .L62+32
 749              	.LBB12:
 750              		.loc 1 95 0
 751 01fc DFF83891 		ldr	r9, .L62+48
 752              	.LBE12:
 753              		.loc 1 85 0
 754 0200 3046     		mov	r0, r6
 755              	.LVL103:
 756 0202 FFF7FEFF 		bl	chprintf
 757              	.LVL104:
 758              		.loc 1 86 0
 759 0206 0223     		movs	r3, #2
 760 0208 84F83C30 		strb	r3, [r4, #60]
 761              		.loc 1 87 0
 762 020c 4FF47A70 		mov	r0, #1000
 763              	.LBB13:
 764              		.loc 1 94 0
 765 0210 0EAD     		add	r5, sp, #56
 766              	.LBE13:
 767              		.loc 1 87 0
 768 0212 FFF7FEFF 		bl	chThdSleep
 769              	.LVL105:
 770              	.LBB14:
 771              		.loc 1 94 0
 772 0216 0DF13E02 		add	r2, sp, #62
 773 021a 2946     		mov	r1, r5
 774 021c 2046     		mov	r0, r4
 775 021e FFF7FEFF 		bl	mpu6500_getDataRaw
 776              	.LVL106:
 777              		.loc 1 95 0
 778 0222 A069     		ldr	r0, [r4, #24]	@ float
 779 0224 FFF7FEFF 		bl	__aeabi_f2d
 780              	.LVL107:
 781 0228 0246     		mov	r2, r0
 782 022a 0B46     		mov	r3, r1
 783 022c 3046     		mov	r0, r6
 784 022e 4946     		mov	r1, r9
 785 0230 FFF7FEFF 		bl	chprintf
 786              	.LVL108:
 787              		.loc 1 96 0
 788 0234 41F28830 		movw	r0, #5000
 789 0238 FFF7FEFF 		bl	chThdSleep
 790              	.LVL109:
 791 023c 4FF06408 		mov	r8, #100
 792              	.LVL110:
 793              	.L34:
 794              		.loc 1 105 0
 795 0240 E38F     		ldrh	r3, [r4, #62]
 796              		.loc 1 106 0
 797 0242 0137     		adds	r7, r7, #1
 798              		.loc 1 105 0
ARM GAS  /tmp/ccVPpRjl.s 			page 15


 799 0244 DB07     		lsls	r3, r3, #31
 800              		.loc 1 94 0
 801 0246 0DF13E02 		add	r2, sp, #62
 802 024a 2946     		mov	r1, r5
 803 024c 2046     		mov	r0, r4
 804              		.loc 1 106 0
 805 024e FFB2     		uxtb	r7, r7
 806              	.LVL111:
 807              		.loc 1 105 0
 808 0250 1DD4     		bmi	.L36
 809              	.LVL112:
 810              		.loc 1 94 0
 811 0252 FFF7FEFF 		bl	mpu6500_getDataRaw
 812              	.LVL113:
 813              		.loc 1 95 0
 814 0256 A069     		ldr	r0, [r4, #24]	@ float
 815 0258 FFF7FEFF 		bl	__aeabi_f2d
 816              	.LVL114:
 817 025c 08F1FF38 		add	r8, r8, #-1
 818 0260 0246     		mov	r2, r0
 819 0262 0B46     		mov	r3, r1
 820 0264 3046     		mov	r0, r6
 821 0266 4946     		mov	r1, r9
 822 0268 FFF7FEFF 		bl	chprintf
 823              	.LVL115:
 824 026c 1FFA88F8 		uxth	r8, r8
 825              		.loc 1 96 0
 826 0270 41F28830 		movw	r0, #5000
 827 0274 FFF7FEFF 		bl	chThdSleep
 828              	.LVL116:
 829              		.loc 1 97 0
 830 0278 B8F1000F 		cmp	r8, #0
 831 027c 39D0     		beq	.L37
 832              		.loc 1 103 0
 833 027e 052F     		cmp	r7, #5
 834 0280 DED1     		bne	.L34
 835              	.LBE14:
 836              		.loc 1 111 0
 837 0282 3368     		ldr	r3, [r6]
 838 0284 0A21     		movs	r1, #10
 839 0286 DB68     		ldr	r3, [r3, #12]
 840 0288 3046     		mov	r0, r6
 841 028a 9847     		blx	r3
 842              	.LVL117:
 843              	.LBE11:
 844 028c D0E6     		b	.L33
 845              	.LVL118:
 846              	.L36:
 847              	.LBB17:
 848              	.LBB15:
 849              		.loc 1 94 0
 850 028e FFF7FEFF 		bl	mpu6500_getDataRaw
 851              	.LVL119:
 852              		.loc 1 95 0
 853 0292 A069     		ldr	r0, [r4, #24]	@ float
 854 0294 FFF7FEFF 		bl	__aeabi_f2d
 855              	.LVL120:
ARM GAS  /tmp/ccVPpRjl.s 			page 16


 856 0298 08F1FF38 		add	r8, r8, #-1
 857 029c 0246     		mov	r2, r0
 858 029e 0B46     		mov	r3, r1
 859 02a0 3046     		mov	r0, r6
 860 02a2 4946     		mov	r1, r9
 861 02a4 FFF7FEFF 		bl	chprintf
 862              	.LVL121:
 863 02a8 1FFA88F8 		uxth	r8, r8
 864              		.loc 1 96 0
 865 02ac 41F28830 		movw	r0, #5000
 866 02b0 FFF7FEFF 		bl	chThdSleep
 867              	.LVL122:
 868              		.loc 1 97 0
 869 02b4 B8F1000F 		cmp	r8, #0
 870 02b8 1BD0     		beq	.L37
 871              		.loc 1 108 0
 872 02ba 0027     		movs	r7, #0
 873              	.LVL123:
 874 02bc C0E7     		b	.L34
 875              	.LVL124:
 876              	.L40:
 877 02be 059E     		ldr	r6, [sp, #20]
 878              	.LBE15:
 879              	.LBE17:
 880              	.LBE19:
 881              	.LBE29:
 882              	.LBB30:
 883              	.LBB26:
 884              		.loc 1 134 0
 885 02c0 1A49     		ldr	r1, .L62+36
 886 02c2 3046     		mov	r0, r6
 887 02c4 FFF7FEFF 		bl	chprintf
 888              	.LVL125:
 889              		.loc 1 135 0
 890 02c8 0023     		movs	r3, #0
 891 02ca CAF82430 		str	r3, [r10, #36]	@ unaligned
 892              		.loc 1 138 0
 893 02ce 0120     		movs	r0, #1
 894              		.loc 1 135 0
 895 02d0 CAF82830 		str	r3, [r10, #40]	@ unaligned
 896 02d4 CAF82C30 		str	r3, [r10, #44]	@ unaligned
 897              		.loc 1 136 0
 898 02d8 8AF83C30 		strb	r3, [r10, #60]
 899              	.LVL126:
 900              	.L55:
 901              	.LBE26:
 902              	.LBE30:
 903              		.loc 1 156 0
 904 02dc 15B0     		add	sp, sp, #84
 905              		.cfi_remember_state
 906              		.cfi_def_cfa_offset 36
 907              		@ sp needed
 908 02de BDE8F08F 		pop	{r4, r5, r6, r7, r8, r9, r10, fp, pc}
 909              	.LVL127:
 910              	.L60:
 911              		.cfi_restore_state
 912              	.LBB31:
ARM GAS  /tmp/ccVPpRjl.s 			page 17


 913              		.loc 1 80 0
 914 02e2 3046     		mov	r0, r6
 915              	.LVL128:
 916 02e4 1249     		ldr	r1, .L62+40
 917 02e6 FFF7FEFF 		bl	chprintf
 918              	.LVL129:
 919              		.loc 1 81 0
 920 02ea FF20     		movs	r0, #255
 921              	.LBE31:
 922              		.loc 1 156 0
 923 02ec 15B0     		add	sp, sp, #84
 924              		.cfi_remember_state
 925              		.cfi_def_cfa_offset 36
 926              		@ sp needed
 927 02ee BDE8F08F 		pop	{r4, r5, r6, r7, r8, r9, r10, fp, pc}
 928              	.LVL130:
 929              	.L37:
 930              		.cfi_restore_state
 931              	.LBB32:
 932              	.LBB20:
 933              	.LBB18:
 934              	.LBB16:
 935              		.loc 1 99 0
 936 02f2 3046     		mov	r0, r6
 937 02f4 0F49     		ldr	r1, .L62+44
 938 02f6 FFF7FEFF 		bl	chprintf
 939              	.LVL131:
 940              		.loc 1 100 0
 941 02fa 0023     		movs	r3, #0
 942 02fc 84F83C30 		strb	r3, [r4, #60]
 943              		.loc 1 101 0
 944 0300 0220     		movs	r0, #2
 945 0302 EBE7     		b	.L55
 946              	.L63:
 947 0304 AFF30080 		.align	3
 948              	.L62:
 949 0308 00000000 		.word	0
 950 030c 00408FC0 		.word	-1064353792
 951 0310 8476BA15 		.word	364541572
 952 0314 AF6F513F 		.word	1062301615
 953 0318 B4000000 		.word	.LC11
 954 031c 68000000 		.word	.LC4
 955 0320 00408F40 		.word	1083129856
 956 0324 BC000000 		.word	.LC6
 957 0328 44000000 		.word	.LC8
 958 032c D0000000 		.word	.LC12
 959 0330 00000000 		.word	.LC7
 960 0334 74000000 		.word	.LC10
 961 0338 64000000 		.word	.LC9
 962              	.LBE16:
 963              	.LBE18:
 964              	.LBE20:
 965              	.LBE32:
 966              		.cfi_endproc
 967              	.LFE563:
 968              		.size	read_mpu6500_avg, .-read_mpu6500_avg
 969              		.section	.text._Z18Calibrate_ShellCmdP20BaseSequentialStreamiPPc,"ax",%progbits
ARM GAS  /tmp/ccVPpRjl.s 			page 18


 970              		.align	1
 971              		.p2align 2,,3
 972              		.global	_Z18Calibrate_ShellCmdP20BaseSequentialStreamiPPc
 973              		.syntax unified
 974              		.thumb
 975              		.thumb_func
 976              		.fpu fpv4-sp-d16
 977              		.type	_Z18Calibrate_ShellCmdP20BaseSequentialStreamiPPc, %function
 978              	_Z18Calibrate_ShellCmdP20BaseSequentialStreamiPPc:
 979              	.LFB564:
 980              		.loc 1 163 0
 981              		.cfi_startproc
 982              		@ args = 0, pretend = 0, frame = 0
 983              		@ frame_needed = 0, uses_anonymous_args = 0
 984              	.LVL132:
 985              		.loc 1 164 0
 986 0000 69B1     		cbz	r1, .L65
 987              		.loc 1 163 0
 988 0002 38B5     		push	{r3, r4, r5, lr}
 989              		.cfi_def_cfa_offset 16
 990              		.cfi_offset 3, -16
 991              		.cfi_offset 4, -12
 992              		.cfi_offset 5, -8
 993              		.cfi_offset 14, -4
 994              	.LBB35:
 995              	.LBB36:
 996              		.loc 1 166 0
 997 0004 1568     		ldr	r5, [r2]
 998 0006 0446     		mov	r4, r0
 999              	.LVL133:
 1000 0008 2946     		mov	r1, r5
 1001              	.LVL134:
 1002 000a 0D48     		ldr	r0, .L73
 1003              	.LVL135:
 1004 000c FFF7FEFF 		bl	strcmp
 1005              	.LVL136:
 1006 0010 40B1     		cbz	r0, .L71
 1007              		.loc 1 172 0
 1008 0012 2946     		mov	r1, r5
 1009 0014 0B48     		ldr	r0, .L73+4
 1010 0016 FFF7FEFF 		bl	strcmp
 1011              	.LVL137:
 1012 001a 50B1     		cbz	r0, .L72
 1013              	.LBE36:
 1014              	.LBE35:
 1015              		.loc 1 185 0
 1016 001c 38BD     		pop	{r3, r4, r5, pc}
 1017              	.LVL138:
 1018              	.L65:
 1019              		.cfi_def_cfa_offset 0
 1020              		.cfi_restore 3
 1021              		.cfi_restore 4
 1022              		.cfi_restore 5
 1023              		.cfi_restore 14
 1024              		.loc 1 180 0
 1025 001e 0A49     		ldr	r1, .L73+8
 1026              	.LVL139:
ARM GAS  /tmp/ccVPpRjl.s 			page 19


 1027 0020 FFF7FEBF 		b	chprintf
 1028              	.LVL140:
 1029              	.L71:
 1030              		.cfi_def_cfa_offset 16
 1031              		.cfi_offset 3, -16
 1032              		.cfi_offset 4, -12
 1033              		.cfi_offset 5, -8
 1034              		.cfi_offset 14, -4
 1035              	.LBB40:
 1036              	.LBB37:
 1037              		.loc 1 168 0
 1038 0024 2046     		mov	r0, r4
 1039 0026 4FF4FA71 		mov	r1, #500
 1040              	.LBE37:
 1041              	.LBE40:
 1042              		.loc 1 185 0
 1043 002a BDE83840 		pop	{r3, r4, r5, lr}
 1044              		.cfi_remember_state
 1045              		.cfi_restore 14
 1046              		.cfi_restore 5
 1047              		.cfi_restore 4
 1048              		.cfi_restore 3
 1049              		.cfi_def_cfa_offset 0
 1050              	.LVL141:
 1051              	.LBB41:
 1052              	.LBB38:
 1053              		.loc 1 168 0
 1054 002e FFF7FEBF 		b	read_adis16470_avg
 1055              	.LVL142:
 1056              	.L72:
 1057              		.cfi_restore_state
 1058              		.loc 1 174 0
 1059 0032 2046     		mov	r0, r4
 1060 0034 4FF4FA71 		mov	r1, #500
 1061              	.LBE38:
 1062              	.LBE41:
 1063              		.loc 1 185 0
 1064 0038 BDE83840 		pop	{r3, r4, r5, lr}
 1065              		.cfi_restore 14
 1066              		.cfi_restore 5
 1067              		.cfi_restore 4
 1068              		.cfi_restore 3
 1069              		.cfi_def_cfa_offset 0
 1070              	.LVL143:
 1071              	.LBB42:
 1072              	.LBB39:
 1073              		.loc 1 174 0
 1074 003c FFF7FEBF 		b	read_mpu6500_avg
 1075              	.LVL144:
 1076              	.L74:
 1077              		.align	2
 1078              	.L73:
 1079 0040 00000000 		.word	.LC13
 1080 0044 04000000 		.word	.LC14
 1081 0048 08000000 		.word	.LC15
 1082              	.LBE39:
 1083              	.LBE42:
ARM GAS  /tmp/ccVPpRjl.s 			page 20


 1084              		.cfi_endproc
 1085              	.LFE564:
 1086              		.size	_Z18Calibrate_ShellCmdP20BaseSequentialStreamiPPc, .-_Z18Calibrate_ShellCmdP20BaseSequential
 1087              		.global	g_Mpu6500_ShellCommand
 1088              		.global	g_Calibration_ShellCommand
 1089              		.section	.rodata._Z12mpu6500_testP20BaseSequentialStreamiPPc.str1.4,"aMS",%progbits,1
 1090              		.align	2
 1091              	.LC0:
 1092 0000 53746172 		.ascii	"Starting redundant IMU...\015\012\000"
 1092      74696E67 
 1092      20726564 
 1092      756E6461 
 1092      6E742049 
 1093              	.LC1:
 1094 001c 53554343 		.ascii	"SUCCESS\015\012\000"
 1094      4553530D 
 1094      0A00
 1095              		.section	.rodata._Z18Calibrate_ShellCmdP20BaseSequentialStreamiPPc.str1.4,"aMS",%progbits,1
 1096              		.align	2
 1097              	.LC13:
 1098 0000 61646900 		.ascii	"adi\000"
 1099              	.LC14:
 1100 0004 6D707500 		.ascii	"mpu\000"
 1101              	.LC15:
 1102 0008 75736167 		.ascii	"usage: calibrate<command> [<args>]\015\012commands:"
 1102      653A2063 
 1102      616C6962 
 1102      72617465 
 1102      3C636F6D 
 1103 0035 0D0A0961 		.ascii	"\015\012\011adi\011calibrate ADIS16470\015\012\011m"
 1103      64690963 
 1103      616C6962 
 1103      72617465 
 1103      20414449 
 1104 0053 70750963 		.ascii	"pu\011calibrate MPU6500\015\012\000"
 1104      616C6962 
 1104      72617465 
 1104      204D5055 
 1104      36353030 
 1105              		.section	.rodata.g_Calibration_ShellCommand,"a",%progbits
 1106              		.align	2
 1107              		.type	g_Calibration_ShellCommand, %object
 1108              		.size	g_Calibration_ShellCommand, 8
 1109              	g_Calibration_ShellCommand:
 1110 0000 10000000 		.word	.LC17
 1111 0004 00000000 		.word	_Z18Calibrate_ShellCmdP20BaseSequentialStreamiPPc
 1112              		.section	.rodata.g_Mpu6500_ShellCommand,"a",%progbits
 1113              		.align	2
 1114              		.type	g_Mpu6500_ShellCommand, %object
 1115              		.size	g_Mpu6500_ShellCommand, 8
 1116              	g_Mpu6500_ShellCommand:
 1117 0000 00000000 		.word	.LC16
 1118 0004 00000000 		.word	_Z12mpu6500_testP20BaseSequentialStreamiPPc
 1119              		.section	.rodata.read_adis16470_avg.str1.4,"aMS",%progbits,1
 1120              		.align	2
 1121              	.LC2:
 1122 0000 41444953 		.ascii	"ADIS16470 Error, please check the diagnostic and re"
ARM GAS  /tmp/ccVPpRjl.s 			page 21


 1122      31363437 
 1122      30204572 
 1122      726F722C 
 1122      20706C65 
 1123 0033 73746172 		.ascii	"start the system\015\012\000"
 1123      74207468 
 1123      65207379 
 1123      7374656D 
 1123      0D0A00
 1124 0046 0000     		.space	2
 1125              	.LC3:
 1126 0048 41444953 		.ascii	"ADIS16470 Calibration start\015\012\000"
 1126      31363437 
 1126      30204361 
 1126      6C696272 
 1126      6174696F 
 1127 0066 0000     		.space	2
 1128              	.LC4:
 1129 0068 72656164 		.ascii	"reading gyroscope for %d times, hold still...\015\012"
 1129      696E6720 
 1129      6779726F 
 1129      73636F70 
 1129      6520666F 
 1130 0097 00       		.ascii	"\000"
 1131              	.LC5:
 1132 0098 4D6F7469 		.ascii	"Motion detected.Calibration fail\015\012\000"
 1132      6F6E2064 
 1132      65746563 
 1132      7465642E 
 1132      43616C69 
 1133 00bb 00       		.space	1
 1134              	.LC6:
 1135 00bc 42696173 		.ascii	"Bias x: %.9f y: %.9f z: %.9f\015\012\000"
 1135      20783A20 
 1135      252E3966 
 1135      20793A20 
 1135      252E3966 
 1136              		.section	.rodata.read_mpu6500_avg.str1.4,"aMS",%progbits,1
 1137              		.align	2
 1138              	.LC7:
 1139 0000 4D505536 		.ascii	"MPU6500 Error, please check the diagnostic and rest"
 1139      35303020 
 1139      4572726F 
 1139      722C2070 
 1139      6C656173 
 1140 0033 61727420 		.ascii	"art the system\015\012\000"
 1140      74686520 
 1140      73797374 
 1140      656D0D0A 
 1140      00
 1141              	.LC8:
 1142 0044 4D505536 		.ascii	"MPU6500 Heat-Up not complete\015\012\000"
 1142      35303020 
 1142      48656174 
 1142      2D557020 
 1142      6E6F7420 
 1143 0063 00       		.space	1
ARM GAS  /tmp/ccVPpRjl.s 			page 22


 1144              	.LC9:
 1145 0064 48656174 		.ascii	"Heating:%3f`C\015\000"
 1145      696E673A 
 1145      25336660 
 1145      430D00
 1146 0073 00       		.space	1
 1147              	.LC10:
 1148 0074 0A486561 		.ascii	"\012Heat-up failed, calibration abort. check your c"
 1148      742D7570 
 1148      20666169 
 1148      6C65642C 
 1148      2063616C 
 1149 00a4 6F6E6669 		.ascii	"onfiguration\015\012\000"
 1149      67757261 
 1149      74696F6E 
 1149      0D0A00
 1150 00b3 00       		.space	1
 1151              	.LC11:
 1152 00b4 4D505536 		.ascii	"MPU6500 Calibration start\015\012\000"
 1152      35303020 
 1152      43616C69 
 1152      62726174 
 1152      696F6E20 
 1153              	.LC12:
 1154 00d0 0A4D6F74 		.ascii	"\012Motion detected.Calibration fail\015\012\000"
 1154      696F6E20 
 1154      64657465 
 1154      63746564 
 1154      2E43616C 
 1155              		.section	.rodata.str1.4,"aMS",%progbits,1
 1156              		.align	2
 1157              	.LC16:
 1158 0000 73746172 		.ascii	"start_mpu6500\000"
 1158      745F6D70 
 1158      75363530 
 1158      3000
 1159 000e 0000     		.space	2
 1160              	.LC17:
 1161 0010 63616C69 		.ascii	"calibrate\000"
 1161      62726174 
 1161      6500
 1162              		.text
 1163              	.Letext0:
 1164              		.file 2 "/usr/lib/gcc/arm-none-eabi/7.3.1/include/stddef.h"
 1165              		.file 3 "/usr/arm-none-eabi/include/machine/_default_types.h"
 1166              		.file 4 "/usr/arm-none-eabi/include/sys/_stdint.h"
 1167              		.file 5 "./RM18A-ChibiOS18-Core/chibios/os/common/ports/ARMCMx/compilers/GCC/chtypes.h"
 1168              		.file 6 "./RM18A-ChibiOS18-Core/chibios/os/rt/include/chsystypes.h"
 1169              		.file 7 "./RM18A-ChibiOS18-Core/chibios/os/rt/include/chschd.h"
 1170              		.file 8 "./RM18A-ChibiOS18-Core/chibios/os/rt/include/chtime.h"
 1171              		.file 9 "./RM18A-ChibiOS18-Core/chibios/os/common/ext/ARM/CMSIS/Core/Include/core_cm4.h"
 1172              		.file 10 "./RM18A-ChibiOS18-Core/chibios/os/common/ext/ST/STM32F4xx/system_stm32f4xx.h"
 1173              		.file 11 "./RM18A-ChibiOS18-Core/chibios/os/common/ext/ST/STM32F4xx/stm32f427xx.h"
 1174              		.file 12 "./RM18A-ChibiOS18-Core/chibios/os/common/ports/ARMCMx/chcore.h"
 1175              		.file 13 "./RM18A-ChibiOS18-Core/chibios/os/common/ports/ARMCMx/chcore_v7m.h"
 1176              		.file 14 "./RM18A-ChibiOS18-Core/chibios/os/hal/ports/STM32/LLD/TIMv1/stm32_tim.h"
 1177              		.file 15 "./RM18A-ChibiOS18-Core/chibios/os/rt/include/chtm.h"
ARM GAS  /tmp/ccVPpRjl.s 			page 23


 1178              		.file 16 "./RM18A-ChibiOS18-Core/chibios/os/rt/include/chsem.h"
 1179              		.file 17 "./RM18A-ChibiOS18-Core/chibios/os/rt/include/chmtx.h"
 1180              		.file 18 "./RM18A-ChibiOS18-Core/chibios/os/rt/include/chsys.h"
 1181              		.file 19 "./RM18A-ChibiOS18-Core/chibios/os/rt/include/chregistry.h"
 1182              		.file 20 "./RM18A-ChibiOS18-Core/chibios/os/rt/include/chcond.h"
 1183              		.file 21 "./RM18A-ChibiOS18-Core/chibios/os/rt/include/chevents.h"
 1184              		.file 22 "./RM18A-ChibiOS18-Core/chibios/os/oslib/include/chmemcore.h"
 1185              		.file 23 "./RM18A-ChibiOS18-Core/chibios/os/oslib/include/chmempools.h"
 1186              		.file 24 "./RM18A-ChibiOS18-Core/chibios/os/oslib/include/chfactory.h"
 1187              		.file 25 "./RM18A-ChibiOS18-Core/chibios/os/hal/ports/STM32/LLD/DMAv2/stm32_dma.h"
 1188              		.file 26 "./RM18A-ChibiOS18-Core/chibios/os/hal/include/hal_streams.h"
 1189              		.file 27 "./RM18A-ChibiOS18-Core/chibios/os/hal/include/hal_queues.h"
 1190              		.file 28 "./RM18A-ChibiOS18-Core/chibios/os/hal/include/hal_pal.h"
 1191              		.file 29 "./RM18A-ChibiOS18-Core/chibios/os/hal/ports/STM32/LLD/GPIOv2/hal_pal_lld.h"
 1192              		.file 30 "./RM18A-ChibiOS18-Core/chibios/os/hal/include/hal_adc.h"
 1193              		.file 31 "./RM18A-ChibiOS18-Core/chibios/os/hal/ports/STM32/LLD/ADCv2/hal_adc_lld.h"
 1194              		.file 32 "./RM18A-ChibiOS18-Core/chibios/os/hal/include/hal_can.h"
 1195              		.file 33 "./RM18A-ChibiOS18-Core/chibios/os/hal/ports/STM32/LLD/CANv1/hal_can_lld.h"
 1196              		.file 34 "./RM18A-ChibiOS18-Core/chibios/os/hal/include/hal_i2c.h"
 1197              		.file 35 "./RM18A-ChibiOS18-Core/chibios/os/hal/lib/fallback/I2C/hal_i2c_lld.h"
 1198              		.file 36 "./RM18A-ChibiOS18-Core/chibios/os/hal/include/hal_icu.h"
 1199              		.file 37 "./RM18A-ChibiOS18-Core/chibios/os/hal/ports/STM32/LLD/TIMv1/hal_icu_lld.h"
 1200              		.file 38 "./RM18A-ChibiOS18-Core/chibios/os/hal/include/hal_pwm.h"
 1201              		.file 39 "./RM18A-ChibiOS18-Core/chibios/os/hal/ports/STM32/LLD/TIMv1/hal_pwm_lld.h"
 1202              		.file 40 "./RM18A-ChibiOS18-Core/chibios/os/hal/include/hal_serial.h"
 1203              		.file 41 "./RM18A-ChibiOS18-Core/chibios/os/hal/ports/STM32/LLD/USARTv1/hal_serial_lld.h"
 1204              		.file 42 "./RM18A-ChibiOS18-Core/chibios/os/hal/include/hal_spi.h"
 1205              		.file 43 "./RM18A-ChibiOS18-Core/chibios/os/hal/ports/STM32/LLD/SPIv1/hal_spi_lld.h"
 1206              		.file 44 "./RM18A-ChibiOS18-Core/chibios/os/hal/include/hal_uart.h"
 1207              		.file 45 "./RM18A-ChibiOS18-Core/chibios/os/hal/ports/STM32/LLD/USARTv1/hal_uart_lld.h"
 1208              		.file 46 "./RM18A-ChibiOS18-Core/chibios/os/hal/include/hal_usb.h"
 1209              		.file 47 "./RM18A-ChibiOS18-Core/chibios/os/hal/ports/STM32/LLD/OTGv1/hal_usb_lld.h"
 1210              		.file 48 "./RM18A-ChibiOS18-Core/chibios/os/hal/ports/STM32/LLD/OTGv1/stm32_otg.h"
 1211              		.file 49 "/usr/arm-none-eabi/include/c++/7.3.1/cmath"
 1212              		.file 50 "/usr/arm-none-eabi/include/c++/7.3.1/arm-none-eabi/thumb/v7e-m/fpv4-sp/hard/bits/c++conf
 1213              		.file 51 "/usr/arm-none-eabi/include/sys/lock.h"
 1214              		.file 52 "/usr/arm-none-eabi/include/sys/_types.h"
 1215              		.file 53 "/usr/arm-none-eabi/include/sys/reent.h"
 1216              		.file 54 "/usr/arm-none-eabi/include/math.h"
 1217              		.file 55 "/usr/arm-none-eabi/include/stdlib.h"
 1218              		.file 56 "/usr/arm-none-eabi/include/c++/7.3.1/math.h"
 1219              		.file 57 "./RM18A-ChibiOS18-Core/src/imu.h"
 1220              		.file 58 "./RM18A-ChibiOS18-Core/src/peripherals/flash.h"
 1221              		.file 59 "./RM18A-ChibiOS18-Core/src/shell/shell.h"
 1222              		.file 60 "./RM18A-ChibiOS18-Core/src/Persistence.hpp"
 1223              		.file 61 "./RM18A-ChibiOS18-Core/src/imu_calibration.hpp"
 1224              		.file 62 "./RM18A-ChibiOS18-Core/src/utility/print_object.h"
 1225              		.file 63 "./RM18A-ChibiOS18-Core/chibios/os/hal/lib/streams/chprintf.h"
 1226              		.file 64 "./RM18A-ChibiOS18-Core/src/ext_hw/adis16470.h"
 1227              		.file 65 "./RM18A-ChibiOS18-Core/src/ext_hw/mpu6500.h"
 1228              		.file 66 "./RM18A-ChibiOS18-Core/chibios/os/rt/include/chthreads.h"
 1229              		.file 67 "/usr/arm-none-eabi/include/string.h"
 1230              		.file 68 "<built-in>"