ARM GAS  /tmp/ccFxQktx.s 			page 1


   1              		.cpu cortex-m4
   2              		.eabi_attribute 27, 1
   3              		.eabi_attribute 28, 1
   4              		.eabi_attribute 20, 1
   5              		.eabi_attribute 21, 1
   6              		.eabi_attribute 23, 3
   7              		.eabi_attribute 24, 1
   8              		.eabi_attribute 25, 1
   9              		.eabi_attribute 26, 1
  10              		.eabi_attribute 30, 2
  11              		.eabi_attribute 34, 1
  12              		.eabi_attribute 18, 4
  13              		.file	"KeyboardManager.c"
  14              		.text
  15              	.Ltext0:
  16              		.cfi_sections	.debug_frame
  17              		.section	.text.key_thd,"ax",%progbits
  18              		.align	1
  19              		.p2align 2,,3
  20              		.global	key_thd
  21              		.syntax unified
  22              		.thumb
  23              		.thumb_func
  24              		.fpu fpv4-sp-d16
  25              		.type	key_thd, %function
  26              	key_thd:
  27              	.LFB336:
  28              		.file 1 "./RM18A-ChibiOS18-Core/src/utility/KeyboardManager.c"
  29              		.loc 1 434 0
  30              		.cfi_startproc
  31              		@ args = 0, pretend = 0, frame = 24
  32              		@ frame_needed = 0, uses_anonymous_args = 0
  33              	.LVL0:
  34 0000 2DE9F04F 		push	{r4, r5, r6, r7, r8, r9, r10, fp, lr}
  35              		.cfi_def_cfa_offset 36
  36              		.cfi_offset 4, -36
  37              		.cfi_offset 5, -32
  38              		.cfi_offset 6, -28
  39              		.cfi_offset 7, -24
  40              		.cfi_offset 8, -20
  41              		.cfi_offset 9, -16
  42              		.cfi_offset 10, -12
  43              		.cfi_offset 11, -8
  44              		.cfi_offset 14, -4
  45              		.loc 1 436 0
  46 0004 AB4C     		ldr	r4, .L274
  47              	.LBB255:
  48              	.LBB256:
  49              		.loc 1 144 0
  50 0006 AC4E     		ldr	r6, .L274+4
  51              	.LBE256:
  52              	.LBE255:
  53              		.loc 1 436 0
  54 0008 2278     		ldrb	r2, [r4]	@ zero_extendqisi2
  55 000a AC49     		ldr	r1, .L274+8
  56              		.loc 1 441 0
  57 000c DFF8C482 		ldr	r8, .L274+32
ARM GAS  /tmp/ccFxQktx.s 			page 2


  58              		.loc 1 434 0
  59 0010 89B0     		sub	sp, sp, #36
  60              		.cfi_def_cfa_offset 72
  61              		.loc 1 434 0
  62 0012 0546     		mov	r5, r0
  63 0014 0790     		str	r0, [sp, #28]
  64              	.LVL1:
  65              		.loc 1 436 0
  66 0016 0520     		movs	r0, #5
  67              	.LVL2:
  68              	.LBB282:
  69              	.LBB277:
  70              		.loc 1 144 0
  71 0018 0396     		str	r6, [sp, #12]
  72              	.LBE277:
  73              	.LBE282:
  74              		.loc 1 436 0
  75 001a FFF7FEFF 		bl	log_formatted
  76              	.LVL3:
  77              		.loc 1 440 0
  78 001e 2378     		ldrb	r3, [r4]	@ zero_extendqisi2
  79              		.loc 1 438 0
  80 0020 A749     		ldr	r1, .L274+12
  81              		.loc 1 440 0
  82 0022 05EBC303 		add	r3, r5, r3, lsl #3
  83              		.loc 1 438 0
  84 0026 0520     		movs	r0, #5
  85 0028 1A79     		ldrb	r2, [r3, #4]	@ zero_extendqisi2
  86 002a FFF7FEFF 		bl	log_formatted
  87              	.LVL4:
  88              	.LBB283:
  89              	.LBB278:
  90              		.loc 1 144 0
  91 002e A54B     		ldr	r3, .L274+16
  92 0030 1868     		ldr	r0, [r3]	@ unaligned
  93 0032 5968     		ldr	r1, [r3, #4]	@ unaligned
  94 0034 9A68     		ldr	r2, [r3, #8]	@ unaligned
  95 0036 1D46     		mov	r5, r3
  96              	.LVL5:
  97 0038 DB68     		ldr	r3, [r3, #12]	@ unaligned
  98 003a 3446     		mov	r4, r6
  99 003c 0FC4     		stmia	r4!, {r0, r1, r2, r3}
 100              		.loc 1 146 0
 101 003e 3388     		ldrh	r3, [r6]
 102              	.LVL6:
 103              		.loc 1 144 0
 104 0040 2869     		ldr	r0, [r5, #16]	@ unaligned
 105 0042 2060     		str	r0, [r4]
 106              	.LBB257:
 107              	.LBB258:
 108              		.loc 1 101 0
 109 0044 40F22C52 		movw	r2, #1324
 110              	.LBE258:
 111              	.LBE257:
 112              	.LBE278:
 113              	.LBE283:
 114              		.loc 1 441 0
ARM GAS  /tmp/ccFxQktx.s 			page 3


 115 0048 0421     		movs	r1, #4
 116              	.LBB284:
 117              	.LBB279:
 118              	.LBB262:
 119              	.LBB259:
 120              		.loc 1 101 0
 121 004a 9342     		cmp	r3, r2
 122              	.LBE259:
 123              	.LBE262:
 124              	.LBE279:
 125              	.LBE284:
 126              		.loc 1 441 0
 127 004c 88F80110 		strb	r1, [r8, #1]
 128              	.LBB285:
 129              	.LBB280:
 130              	.LBB263:
 131              	.LBB260:
 132              		.loc 1 101 0
 133 0050 00F23383 		bhi	.L142
 134 0054 B3F5357F 		cmp	r3, #724
 135 0058 2CBF     		ite	cs
 136 005a 0322     		movcs	r2, #3
 137 005c 0222     		movcc	r2, #2
 138              	.L2:
 139              	.LVL7:
 140              	.LBE260:
 141              	.LBE263:
 142              		.loc 1 148 0
 143 005e 0399     		ldr	r1, [sp, #12]
 144 0060 4B88     		ldrh	r3, [r1, #2]
 145              	.LVL8:
 146              		.loc 1 145 0
 147 0062 0A80     		strh	r2, [r1]	@ movhi
 148              	.LBB264:
 149              	.LBB265:
 150              		.loc 1 101 0
 151 0064 40F22C52 		movw	r2, #1324
 152 0068 9342     		cmp	r3, r2
 153 006a 00F22483 		bhi	.L144
 154 006e B3F5357F 		cmp	r3, #724
 155 0072 2CBF     		ite	cs
 156 0074 0322     		movcs	r2, #3
 157 0076 0222     		movcc	r2, #2
 158              	.L3:
 159              	.LVL9:
 160              	.LBE265:
 161              	.LBE264:
 162              		.loc 1 150 0
 163 0078 8B88     		ldrh	r3, [r1, #4]
 164              	.LVL10:
 165              		.loc 1 147 0
 166 007a 4A80     		strh	r2, [r1, #2]	@ movhi
 167              	.LBB267:
 168              	.LBB268:
 169              		.loc 1 101 0
 170 007c 40F22C52 		movw	r2, #1324
 171 0080 9342     		cmp	r3, r2
ARM GAS  /tmp/ccFxQktx.s 			page 4


 172 0082 00F20D83 		bhi	.L146
 173 0086 B3F5357F 		cmp	r3, #724
 174 008a 2CBF     		ite	cs
 175 008c 0322     		movcs	r2, #3
 176 008e 0222     		movcc	r2, #2
 177              	.LVL11:
 178              	.LBE268:
 179              	.LBE267:
 180              		.loc 1 152 0
 181 0090 CB88     		ldrh	r3, [r1, #6]
 182              	.LVL12:
 183              		.loc 1 149 0
 184 0092 8A80     		strh	r2, [r1, #4]	@ movhi
 185              	.LBB270:
 186              	.LBB271:
 187              		.loc 1 101 0
 188 0094 40F22C52 		movw	r2, #1324
 189 0098 9342     		cmp	r3, r2
 190 009a 00F20983 		bhi	.L148
 191              	.L269:
 192 009e B3F5357F 		cmp	r3, #724
 193 00a2 2CBF     		ite	cs
 194 00a4 0323     		movcs	r3, #3
 195              	.LVL13:
 196 00a6 0223     		movcc	r3, #2
 197 00a8 0A46     		mov	r2, r1
 198              	.L5:
 199              	.LVL14:
 200              	.LBE271:
 201              	.LBE270:
 202              		.loc 1 151 0
 203 00aa D380     		strh	r3, [r2, #6]	@ movhi
 204              	.LBE280:
 205              	.LBE285:
 206              		.loc 1 443 0
 207 00ac 824B     		ldr	r3, .L274+4
 208 00ae 0393     		str	r3, [sp, #12]
 209 00b0 1D46     		mov	r5, r3
 210 00b2 0FCD     		ldmia	r5!, {r0, r1, r2, r3}
 211 00b4 844C     		ldr	r4, .L274+20
 212 00b6 0FC4     		stmia	r4!, {r0, r1, r2, r3}
 213 00b8 2B68     		ldr	r3, [r5]
 214 00ba 2360     		str	r3, [r4]
 215              	.LVL15:
 216              	.LBB286:
 217              	.LBB287:
 218              	.LBB288:
 219              	.LBB289:
 220              	.LBB290:
 221              	.LBB291:
 222              		.file 2 "./RM18A-ChibiOS18-Core/chibios/os/common/ext/ARM/CMSIS/Core/Include/cmsis_gcc.h"
 223              		.loc 2 493 0
 224 00bc 2023     		movs	r3, #32
 225              		.syntax unified
 226              	@ 493 "./RM18A-ChibiOS18-Core/chibios/os/common/ext/ARM/CMSIS/Core/Include/cmsis_gcc.h" 1
 227 00be 83F31188 		MSR basepri, r3
 228              	@ 0 "" 2
ARM GAS  /tmp/ccFxQktx.s 			page 5


 229              	.LVL16:
 230              		.thumb
 231              		.syntax unified
 232              	.LBE291:
 233              	.LBE290:
 234              	.LBE289:
 235              	.LBE288:
 236              	.LBB292:
 237              	.LBB293:
 238              	.LBB294:
 239              	.LBB295:
 240              		.file 3 "./RM18A-ChibiOS18-Core/chibios/os/hal/ports/STM32/LLD/TIMv1/hal_st_lld.h"
 241              		.loc 3 147 0
 242 00c2 4FF08042 		mov	r2, #1073741824
 243              	.LBE295:
 244              	.LBE294:
 245              	.LBE293:
 246              	.LBE292:
 247              	.LBB299:
 248              	.LBB300:
 249              	.LBB301:
 250              	.LBB302:
 251              	.LBB303:
 252              		.loc 2 493 0
 253 00c6 0023     		movs	r3, #0
 254              	.LBE303:
 255              	.LBE302:
 256              	.LBE301:
 257              	.LBE300:
 258              	.LBE299:
 259              	.LBB308:
 260              	.LBB298:
 261              	.LBB297:
 262              	.LBB296:
 263              		.loc 3 147 0
 264 00c8 526A     		ldr	r2, [r2, #36]
 265 00ca 0492     		str	r2, [sp, #16]
 266              	.LVL17:
 267              	.LBE296:
 268              	.LBE297:
 269              	.LBE298:
 270              	.LBE308:
 271              	.LBB309:
 272              	.LBB307:
 273              	.LBB306:
 274              	.LBB305:
 275              	.LBB304:
 276              		.loc 2 493 0
 277              		.syntax unified
 278              	@ 493 "./RM18A-ChibiOS18-Core/chibios/os/common/ext/ARM/CMSIS/Core/Include/cmsis_gcc.h" 1
 279 00cc 83F31188 		MSR basepri, r3
 280              	@ 0 "" 2
 281              	.LVL18:
 282              		.thumb
 283              		.syntax unified
 284              	.LBE304:
 285              	.LBE305:
ARM GAS  /tmp/ccFxQktx.s 			page 6


 286              	.LBE306:
 287              	.LBE307:
 288              	.LBE309:
 289              	.LBE287:
 290              	.LBE286:
 291              	.LBB310:
 292              	.LBB311:
 293              		.file 4 "./RM18A-ChibiOS18-Core/chibios/os/rt/include/chthreads.h"
 294              		.loc 4 347 0
 295 00d0 7E4B     		ldr	r3, .L274+24
 296 00d2 9B69     		ldr	r3, [r3, #24]
 297              	.LBE311:
 298              	.LBE310:
 299              		.loc 1 445 0
 300 00d4 93F82130 		ldrb	r3, [r3, #33]	@ zero_extendqisi2
 301 00d8 13F00403 		ands	r3, r3, #4
 302 00dc 40F0C280 		bne	.L1
 303              	.LBB313:
 304              	.LBB314:
 305              	.LBB315:
 306              	.LBB316:
 307              	.LBB317:
 308              	.LBB318:
 309              	.LBB319:
 310              	.LBB320:
 311              		.loc 2 493 0
 312 00e0 0593     		str	r3, [sp, #20]
 313              	.L139:
 314              	.LBE320:
 315              	.LBE319:
 316              	.LBE318:
 317              	.LBE317:
 318              	.LBE316:
 319              	.LBE315:
 320              	.LBE314:
 321              		.loc 1 451 0
 322 00e2 744B     		ldr	r3, .L274
 323 00e4 1A78     		ldrb	r2, [r3]	@ zero_extendqisi2
 324 00e6 D2B2     		uxtb	r2, r2
 325              	.LBB349:
 326              	.LBB347:
 327              	.LBB329:
 328              	.LBB330:
 329              	.LBB331:
 330              	.LBB332:
 331              		.loc 2 493 0
 332 00e8 2023     		movs	r3, #32
 333              	.LBE332:
 334              	.LBE331:
 335              	.LBE330:
 336              	.LBE329:
 337              	.LBE347:
 338              	.LBE349:
 339              		.loc 1 451 0
 340 00ea 0292     		str	r2, [sp, #8]
 341              	.LVL19:
 342              	.LBB350:
ARM GAS  /tmp/ccFxQktx.s 			page 7


 343              	.LBB348:
 344              	.LBB336:
 345              	.LBB335:
 346              	.LBB334:
 347              	.LBB333:
 348              		.loc 2 493 0
 349              		.syntax unified
 350              	@ 493 "./RM18A-ChibiOS18-Core/chibios/os/common/ext/ARM/CMSIS/Core/Include/cmsis_gcc.h" 1
 351 00ec 83F31188 		MSR basepri, r3
 352              	@ 0 "" 2
 353              	.LVL20:
 354              		.thumb
 355              		.syntax unified
 356              	.LBE333:
 357              	.LBE334:
 358              	.LBE335:
 359              	.LBE336:
 360              	.LBB337:
 361              	.LBB338:
 362              	.LBB339:
 363              	.LBB340:
 364              		.loc 3 147 0
 365 00f0 4FF08043 		mov	r3, #1073741824
 366              	.LBE340:
 367              	.LBE339:
 368              	.LBE338:
 369              	.LBE337:
 370              	.LBB344:
 371              	.LBB327:
 372              	.LBB325:
 373              	.LBB323:
 374              	.LBB321:
 375              		.loc 2 493 0
 376 00f4 0599     		ldr	r1, [sp, #20]
 377              	.LBE321:
 378              	.LBE323:
 379              	.LBE325:
 380              	.LBE327:
 381              	.LBE344:
 382              	.LBB345:
 383              	.LBB343:
 384              	.LBB342:
 385              	.LBB341:
 386              		.loc 3 147 0
 387 00f6 5A6A     		ldr	r2, [r3, #36]
 388 00f8 0692     		str	r2, [sp, #24]
 389              	.LVL21:
 390              	.LBE341:
 391              	.LBE342:
 392              	.LBE343:
 393              	.LBE345:
 394              	.LBB346:
 395              	.LBB328:
 396              	.LBB326:
 397              	.LBB324:
 398              	.LBB322:
 399              		.loc 2 493 0
ARM GAS  /tmp/ccFxQktx.s 			page 8


 400              		.syntax unified
 401              	@ 493 "./RM18A-ChibiOS18-Core/chibios/os/common/ext/ARM/CMSIS/Core/Include/cmsis_gcc.h" 1
 402 00fa 81F31188 		MSR basepri, r1
 403              	@ 0 "" 2
 404              	.LVL22:
 405              		.thumb
 406              		.syntax unified
 407              	.LBE322:
 408              	.LBE324:
 409              	.LBE326:
 410              	.LBE328:
 411              	.LBE346:
 412              	.LBE348:
 413              	.LBE350:
 414              	.LBB351:
 415              	.LBB352:
 416              	.LBB353:
 417              	.LBB354:
 418              	.LBB355:
 419              		.loc 3 147 0
 420 00fe 5B6A     		ldr	r3, [r3, #36]
 421              	.LVL23:
 422              	.LBE355:
 423              	.LBE354:
 424              	.LBE353:
 425              	.LBE352:
 426              	.LBB356:
 427              	.LBB357:
 428              		.file 5 "./RM18A-ChibiOS18-Core/chibios/os/rt/include/chtime.h"
 429              		.loc 5 464 0
 430 0100 0498     		ldr	r0, [sp, #16]
 431              	.LBE357:
 432              	.LBE356:
 433              	.LBE351:
 434              		.loc 1 453 0
 435 0102 41F28832 		movw	r2, #5000
 436              	.LBB360:
 437              	.LBB359:
 438              	.LBB358:
 439              		.loc 5 464 0
 440 0106 1B1A     		subs	r3, r3, r0
 441              	.LBE358:
 442              	.LBE359:
 443              	.LBE360:
 444              		.loc 1 453 0
 445 0108 9342     		cmp	r3, r2
 446              	.LBB361:
 447              	.LBB362:
 448              		.loc 1 210 0
 449 010a 6E4B     		ldr	r3, .L274+16
 450              	.LBE362:
 451              	.LBE361:
 452              		.loc 1 455 0
 453 010c 88BF     		it	hi
 454 010e 88F80010 		strbhi	r1, [r8]
 455              	.LBB424:
 456              	.LBB419:
ARM GAS  /tmp/ccFxQktx.s 			page 9


 457              		.loc 1 210 0
 458 0112 1A88     		ldrh	r2, [r3]
 459              		.loc 1 209 0
 460 0114 0599     		ldr	r1, [sp, #20]
 461 0116 88F80310 		strb	r1, [r8, #3]
 462              		.loc 1 210 0
 463 011a 92B2     		uxth	r2, r2
 464              	.LVL24:
 465              	.LBB363:
 466              	.LBB364:
 467              		.loc 1 101 0
 468 011c 40F22C50 		movw	r0, #1324
 469              	.LBE364:
 470              	.LBE363:
 471              		.loc 1 210 0
 472 0120 6949     		ldr	r1, .L274+20
 473              		.loc 1 208 0
 474 0122 98F80130 		ldrb	r3, [r8, #1]	@ zero_extendqisi2
 475 0126 88F80230 		strb	r3, [r8, #2]
 476              	.LBB368:
 477              	.LBB365:
 478              		.loc 1 101 0
 479 012a 8242     		cmp	r2, r0
 480              	.LBE365:
 481              	.LBE368:
 482              		.loc 1 210 0
 483 012c 0988     		ldrh	r1, [r1]
 484              	.LVL25:
 485              	.LBB369:
 486              	.LBB366:
 487              		.loc 1 101 0
 488 012e 00F27882 		bhi	.L150
 489 0132 B2F5357F 		cmp	r2, #724
 490 0136 C0F0A582 		bcc	.L9
 491 013a 0322     		movs	r2, #3
 492              	.LVL26:
 493              	.LBE366:
 494              	.LBE369:
 495              		.loc 1 210 0
 496 013c 0398     		ldr	r0, [sp, #12]
 497 013e 9142     		cmp	r1, r2
 498 0140 0280     		strh	r2, [r0]	@ movhi
 499 0142 00F07482 		beq	.L10
 500              	.L265:
 501              		.loc 1 213 0
 502 0146 6248     		ldr	r0, .L274+28
 503 0148 0490     		str	r0, [sp, #16]
 504              	.LVL27:
 505 014a 0121     		movs	r1, #1
 506              		.loc 1 214 0
 507 014c 4280     		strh	r2, [r0, #2]	@ movhi
 508              		.loc 1 213 0
 509 014e 0170     		strb	r1, [r0]
 510              	.L141:
 511              	.LVL28:
 512              	.LBB370:
 513              	.LBB371:
ARM GAS  /tmp/ccFxQktx.s 			page 10


 514              		.loc 1 157 0
 515 0150 0133     		adds	r3, r3, #1
 516 0152 DBB2     		uxtb	r3, r3
 517 0154 052B     		cmp	r3, #5
 518 0156 00F09082 		beq	.L51
 519              	.L268:
 520 015a 88F80130 		strb	r3, [r8, #1]
 521 015e 9B00     		lsls	r3, r3, #2
 522              	.L52:
 523              		.loc 1 160 0
 524 0160 98F80020 		ldrb	r2, [r8]	@ zero_extendqisi2
 525              		.loc 1 159 0
 526 0164 0498     		ldr	r0, [sp, #16]
 527 0166 D8F80410 		ldr	r1, [r8, #4]
 528 016a 0068     		ldr	r0, [r0]
 529 016c C850     		str	r0, [r1, r3]	@ unaligned
 530              		.loc 1 160 0
 531 016e 042A     		cmp	r2, #4
 532              		.loc 1 161 0
 533 0170 98BF     		it	ls
 534 0172 0132     		addls	r2, r2, #1
 535              		.loc 1 162 0
 536 0174 4FF00103 		mov	r3, #1
 537              		.loc 1 161 0
 538 0178 98BF     		it	ls
 539 017a 88F80020 		strbls	r2, [r8]
 540              		.loc 1 162 0
 541 017e 88F80330 		strb	r3, [r8, #3]
 542              	.LVL29:
 543              	.L33:
 544              	.LBE371:
 545              	.LBE370:
 546              	.LBE419:
 547              	.LBE424:
 548              	.LBB425:
 549              	.LBB426:
 550              	.LBB427:
 551              	.LBB428:
 552              	.LBB429:
 553              	.LBB430:
 554              		.loc 2 493 0
 555 0182 2023     		movs	r3, #32
 556              		.syntax unified
 557              	@ 493 "./RM18A-ChibiOS18-Core/chibios/os/common/ext/ARM/CMSIS/Core/Include/cmsis_gcc.h" 1
 558 0184 83F31188 		MSR basepri, r3
 559              	@ 0 "" 2
 560              	.LVL30:
 561              		.thumb
 562              		.syntax unified
 563              	.LBE430:
 564              	.LBE429:
 565              	.LBE428:
 566              	.LBE427:
 567              	.LBB431:
 568              	.LBB432:
 569              	.LBB433:
 570              	.LBB434:
ARM GAS  /tmp/ccFxQktx.s 			page 11


 571              		.loc 3 147 0
 572 0188 4FF08043 		mov	r3, #1073741824
 573 018c 5B6A     		ldr	r3, [r3, #36]
 574 018e 0493     		str	r3, [sp, #16]
 575              	.LVL31:
 576              	.LBE434:
 577              	.LBE433:
 578              	.LBE432:
 579              	.LBE431:
 580              	.LBB435:
 581              	.LBB436:
 582              	.LBB437:
 583              	.LBB438:
 584              	.LBB439:
 585              		.loc 2 493 0
 586 0190 059B     		ldr	r3, [sp, #20]
 587              		.syntax unified
 588              	@ 493 "./RM18A-ChibiOS18-Core/chibios/os/common/ext/ARM/CMSIS/Core/Include/cmsis_gcc.h" 1
 589 0192 83F31188 		MSR basepri, r3
 590              	@ 0 "" 2
 591              	.LVL32:
 592              		.thumb
 593              		.syntax unified
 594              	.L28:
 595              	.LBE439:
 596              	.LBE438:
 597              	.LBE437:
 598              	.LBE436:
 599              	.LBE435:
 600              	.LBE426:
 601              	.LBE425:
 602              	.LBB440:
 603              		.loc 1 463 0
 604 0196 079B     		ldr	r3, [sp, #28]
 605 0198 029A     		ldr	r2, [sp, #8]
 606 019a 03EBC205 		add	r5, r3, r2, lsl #3
 607 019e 95F80490 		ldrb	r9, [r5, #4]	@ zero_extendqisi2
 608 01a2 B9F1000F 		cmp	r9, #0
 609 01a6 4BD0     		beq	.L137
 610 01a8 0024     		movs	r4, #0
 611              	.LVL33:
 612              	.L138:
 613              	.LBB441:
 614              		.loc 1 467 0
 615 01aa 04EB8400 		add	r0, r4, r4, lsl #2
 616              		.loc 1 466 0
 617 01ae 2B68     		ldr	r3, [r5]
 618              		.loc 1 468 0
 619 01b0 13F82020 		ldrb	r2, [r3, r0, lsl #2]	@ zero_extendqisi2
 620              		.loc 1 466 0
 621 01b4 03EB8000 		add	r0, r3, r0, lsl #2
 622              	.LVL34:
 623              		.loc 1 468 0
 624 01b8 002A     		cmp	r2, #0
 625 01ba 40F0A580 		bne	.L55
 626              	.LBB442:
 627              		.loc 1 472 0
ARM GAS  /tmp/ccFxQktx.s 			page 12


 628 01be 4379     		ldrb	r3, [r0, #5]	@ zero_extendqisi2
 629              		.loc 1 470 0
 630 01c0 0179     		ldrb	r1, [r0, #4]	@ zero_extendqisi2
 631              	.LVL35:
 632              		.loc 1 472 0
 633 01c2 012B     		cmp	r3, #1
 634 01c4 00F03581 		beq	.L57
 635 01c8 C0F0F580 		bcc	.L58
 636 01cc 022B     		cmp	r3, #2
 637 01ce 33D1     		bne	.L56
 638              	.LVL36:
 639              	.LBB443:
 640              	.LBB444:
 641              		.loc 1 411 0
 642 01d0 98F80330 		ldrb	r3, [r8, #3]	@ zero_extendqisi2
 643 01d4 002B     		cmp	r3, #0
 644 01d6 2FD0     		beq	.L56
 645              		.loc 1 413 0
 646 01d8 98F80230 		ldrb	r3, [r8, #2]	@ zero_extendqisi2
 647              	.LVL37:
 648              		.loc 1 414 0
 649 01dc 98F80170 		ldrb	r7, [r8, #1]	@ zero_extendqisi2
 650 01e0 BB42     		cmp	r3, r7
 651 01e2 29D0     		beq	.L56
 652              		.loc 1 421 0
 653 01e4 D8F804C0 		ldr	ip, [r8, #4]
 654 01e8 01E0     		b	.L119
 655              	.L117:
 656              		.loc 1 426 0
 657 01ea 9F42     		cmp	r7, r3
 658 01ec 24D0     		beq	.L56
 659              	.L119:
 660              		.loc 1 418 0
 661 01ee 0133     		adds	r3, r3, #1
 662              	.LVL38:
 663 01f0 DBB2     		uxtb	r3, r3
 664              	.LVL39:
 665 01f2 052B     		cmp	r3, #5
 666 01f4 12BF     		itee	ne
 667 01f6 0CEB8302 		addne	r2, ip, r3, lsl #2
 668 01fa 6246     		moveq	r2, ip
 669              		.loc 1 419 0
 670 01fc 0023     		moveq	r3, #0
 671              	.LVL40:
 672              		.loc 1 421 0
 673 01fe 1678     		ldrb	r6, [r2]	@ zero_extendqisi2
 674 0200 8E42     		cmp	r6, r1
 675 0202 F2D1     		bne	.L117
 676 0204 5288     		ldrh	r2, [r2, #2]
 677 0206 C688     		ldrh	r6, [r0, #6]
 678 0208 9642     		cmp	r6, r2
 679 020a EED1     		bne	.L117
 680              	.LVL41:
 681              	.LBE444:
 682              	.LBE443:
 683              	.LBB445:
 684              	.LBB446:
ARM GAS  /tmp/ccFxQktx.s 			page 13


 685              	.LBB447:
 686              		.loc 1 168 0
 687 020c 4B1E     		subs	r3, r1, #1
 688              	.LBE447:
 689              	.LBE446:
 690              		.loc 1 503 0
 691 020e C668     		ldr	r6, [r0, #12]
 692              	.LVL42:
 693              	.LBB452:
 694              	.LBB448:
 695              		.loc 1 168 0
 696 0210 0B2B     		cmp	r3, #11
 697 0212 00F2BC83 		bhi	.L179
 698 0216 DFE803F0 		tbb	[pc, r3]
 699              	.L140:
 700 021a 71       		.byte	(.L120-.L140)/2
 701 021b 74       		.byte	(.L122-.L140)/2
 702 021c 6E       		.byte	(.L123-.L140)/2
 703 021d 6B       		.byte	(.L124-.L140)/2
 704 021e 68       		.byte	(.L125-.L140)/2
 705 021f 65       		.byte	(.L126-.L140)/2
 706 0220 62       		.byte	(.L129-.L140)/2
 707 0221 5F       		.byte	(.L130-.L140)/2
 708 0222 49       		.byte	(.L131-.L140)/2
 709 0223 46       		.byte	(.L127-.L140)/2
 710 0224 28       		.byte	(.L128-.L140)/2
 711 0225 06       		.byte	(.L132-.L140)/2
 712              		.p2align 1
 713              	.L132:
 714              		.loc 1 193 0
 715 0226 039B     		ldr	r3, [sp, #12]
 716 0228 5A8A     		ldrh	r2, [r3, #18]
 717              	.LVL43:
 718              	.L259:
 719              	.LBE448:
 720              	.LBE452:
 721              	.LBE445:
 722              	.LBE442:
 723              	.LBB532:
 724              		.loc 1 522 0
 725 022a 0369     		ldr	r3, [r0, #16]
 726 022c 0298     		ldr	r0, [sp, #8]
 727              	.LVL44:
 728 022e B047     		blx	r6
 729              	.LVL45:
 730              		.loc 1 524 0
 731 0230 FF28     		cmp	r0, #255
 732 0232 21D1     		bne	.L115
 733              	.L263:
 734 0234 95F80490 		ldrb	r9, [r5, #4]	@ zero_extendqisi2
 735              	.LVL46:
 736              	.L56:
 737              	.LBE532:
 738              	.LBE441:
 739              		.loc 1 463 0 discriminator 2
 740 0238 0134     		adds	r4, r4, #1
 741              	.LVL47:
ARM GAS  /tmp/ccFxQktx.s 			page 14


 742 023a E4B2     		uxtb	r4, r4
 743              	.LVL48:
 744 023c 4C45     		cmp	r4, r9
 745 023e B4D3     		bcc	.L138
 746              	.LVL49:
 747              	.L137:
 748              	.LBE440:
 749              		.loc 1 546 0
 750 0240 1D4D     		ldr	r5, .L274+4
 751 0242 214C     		ldr	r4, .L274+20
 752 0244 0FCD     		ldmia	r5!, {r0, r1, r2, r3}
 753 0246 0FC4     		stmia	r4!, {r0, r1, r2, r3}
 754              		.loc 1 547 0
 755 0248 0698     		ldr	r0, [sp, #24]
 756              		.loc 1 546 0
 757 024a 2B68     		ldr	r3, [r5]
 758 024c 2360     		str	r3, [r4]
 759              		.loc 1 547 0
 760 024e 00F13201 		add	r1, r0, #50
 761 0252 FFF7FEFF 		bl	chThdSleepUntilWindowed
 762              	.LVL50:
 763              	.LBE313:
 764              	.LBB554:
 765              	.LBB312:
 766              		.loc 4 347 0
 767 0256 1D4B     		ldr	r3, .L274+24
 768 0258 9B69     		ldr	r3, [r3, #24]
 769              	.LBE312:
 770              	.LBE554:
 771              		.loc 1 445 0
 772 025a 93F82130 		ldrb	r3, [r3, #33]	@ zero_extendqisi2
 773 025e 5B07     		lsls	r3, r3, #29
 774 0260 7FF53FAF 		bpl	.L139
 775              	.LVL51:
 776              	.L1:
 777              		.loc 1 549 0
 778 0264 09B0     		add	sp, sp, #36
 779              		.cfi_remember_state
 780              		.cfi_def_cfa_offset 36
 781              		@ sp needed
 782 0266 BDE8F08F 		pop	{r4, r5, r6, r7, r8, r9, r10, fp, pc}
 783              	.LVL52:
 784              	.L128:
 785              		.cfi_restore_state
 786              	.LBB555:
 787              	.LBB547:
 788              	.LBB544:
 789              	.LBB533:
 790              	.LBB456:
 791              	.LBB453:
 792              	.LBB449:
 793              		.loc 1 185 0
 794 026a 039B     		ldr	r3, [sp, #12]
 795 026c 5A7C     		ldrb	r2, [r3, #17]	@ zero_extendqisi2
 796              	.LBE449:
 797              	.LBE453:
 798              	.LBE456:
ARM GAS  /tmp/ccFxQktx.s 			page 15


 799              	.LBE533:
 800              	.LBB534:
 801              		.loc 1 522 0
 802 026e 0369     		ldr	r3, [r0, #16]
 803 0270 0298     		ldr	r0, [sp, #8]
 804              	.LVL53:
 805 0272 B047     		blx	r6
 806              	.LVL54:
 807              		.loc 1 524 0
 808 0274 FF28     		cmp	r0, #255
 809 0276 DDD0     		beq	.L263
 810              	.LVL55:
 811              	.L115:
 812              	.LBE534:
 813              		.loc 1 535 0
 814 0278 0E4B     		ldr	r3, .L274
 815 027a 029A     		ldr	r2, [sp, #8]
 816 027c 1B78     		ldrb	r3, [r3]	@ zero_extendqisi2
 817              		.loc 1 537 0
 818 027e 0D4C     		ldr	r4, .L274
 819              	.LVL56:
 820 0280 0E49     		ldr	r1, .L274+8
 821              		.loc 1 535 0
 822 0282 9342     		cmp	r3, r2
 823              		.loc 1 536 0
 824 0284 04BF     		itt	eq
 825 0286 0B4B     		ldreq	r3, .L274
 826 0288 1870     		strbeq	r0, [r3]
 827              		.loc 1 537 0
 828 028a 2278     		ldrb	r2, [r4]	@ zero_extendqisi2
 829 028c 0520     		movs	r0, #5
 830              	.LVL57:
 831 028e FFF7FEFF 		bl	log_formatted
 832              	.LVL58:
 833              		.loc 1 542 0
 834 0292 079A     		ldr	r2, [sp, #28]
 835 0294 2378     		ldrb	r3, [r4]	@ zero_extendqisi2
 836              		.loc 1 540 0
 837 0296 0A49     		ldr	r1, .L274+12
 838              		.loc 1 542 0
 839 0298 02EBC303 		add	r3, r2, r3, lsl #3
 840              		.loc 1 540 0
 841 029c 0520     		movs	r0, #5
 842 029e 1A79     		ldrb	r2, [r3, #4]	@ zero_extendqisi2
 843 02a0 FFF7FEFF 		bl	log_formatted
 844              	.LVL59:
 845              		.loc 1 543 0
 846 02a4 CCE7     		b	.L137
 847              	.LVL60:
 848              	.L127:
 849              	.LBB535:
 850              	.LBB457:
 851              	.LBB454:
 852              	.LBB450:
 853              		.loc 1 183 0
 854 02a6 039B     		ldr	r3, [sp, #12]
 855 02a8 1A7C     		ldrb	r2, [r3, #16]	@ zero_extendqisi2
ARM GAS  /tmp/ccFxQktx.s 			page 16


 856 02aa BEE7     		b	.L259
 857              	.L131:
 858              		.loc 1 191 0
 859 02ac 039B     		ldr	r3, [sp, #12]
 860 02ae DA89     		ldrh	r2, [r3, #14]
 861 02b0 BBE7     		b	.L259
 862              	.L275:
 863 02b2 00BF     		.align	2
 864              	.L274:
 865 02b4 00000000 		.word	.LANCHOR0
 866 02b8 00000000 		.word	.LANCHOR2
 867 02bc 0C000000 		.word	.LC3
 868 02c0 20000000 		.word	.LC4
 869 02c4 00000000 		.word	g_DR16_RC_Value
 870 02c8 00000000 		.word	.LANCHOR3
 871 02cc 00000000 		.word	ch
 872 02d0 00000000 		.word	.LANCHOR4
 873 02d4 00000000 		.word	.LANCHOR1
 874              	.L130:
 875              		.loc 1 189 0
 876 02d8 039B     		ldr	r3, [sp, #12]
 877 02da 9A89     		ldrh	r2, [r3, #12]
 878 02dc A5E7     		b	.L259
 879              	.L129:
 880              		.loc 1 187 0
 881 02de 039B     		ldr	r3, [sp, #12]
 882 02e0 5A89     		ldrh	r2, [r3, #10]
 883 02e2 A2E7     		b	.L259
 884              	.L126:
 885              		.loc 1 181 0
 886 02e4 039B     		ldr	r3, [sp, #12]
 887 02e6 5A7A     		ldrb	r2, [r3, #9]	@ zero_extendqisi2
 888 02e8 9FE7     		b	.L259
 889              	.L125:
 890              		.loc 1 179 0
 891 02ea 039B     		ldr	r3, [sp, #12]
 892 02ec 1A7A     		ldrb	r2, [r3, #8]	@ zero_extendqisi2
 893 02ee 9CE7     		b	.L259
 894              	.L124:
 895              		.loc 1 177 0
 896 02f0 039B     		ldr	r3, [sp, #12]
 897 02f2 DA88     		ldrh	r2, [r3, #6]
 898 02f4 99E7     		b	.L259
 899              	.L123:
 900              		.loc 1 175 0
 901 02f6 039B     		ldr	r3, [sp, #12]
 902 02f8 9A88     		ldrh	r2, [r3, #4]
 903 02fa 96E7     		b	.L259
 904              	.L120:
 905              		.loc 1 171 0
 906 02fc 039B     		ldr	r3, [sp, #12]
 907 02fe 1A88     		ldrh	r2, [r3]
 908 0300 93E7     		b	.L259
 909              	.L122:
 910              		.loc 1 173 0
 911 0302 039B     		ldr	r3, [sp, #12]
 912 0304 5A88     		ldrh	r2, [r3, #2]
ARM GAS  /tmp/ccFxQktx.s 			page 17


 913 0306 90E7     		b	.L259
 914              	.LVL61:
 915              	.L55:
 916              	.LBE450:
 917              	.LBE454:
 918              	.LBE457:
 919              	.LBE535:
 920              	.LBB536:
 921              	.LBB537:
 922              		.loc 1 387 0
 923 0308 98F80330 		ldrb	r3, [r8, #3]	@ zero_extendqisi2
 924 030c 002B     		cmp	r3, #0
 925 030e 93D0     		beq	.L56
 926              		.loc 1 388 0
 927 0310 037A     		ldrb	r3, [r0, #8]	@ zero_extendqisi2
 928              		.loc 1 387 0
 929 0312 98F80020 		ldrb	r2, [r8]	@ zero_extendqisi2
 930 0316 9A42     		cmp	r2, r3
 931 0318 8ED3     		bcc	.L56
 932              	.LVL62:
 933              	.LBB538:
 934              		.loc 1 390 0
 935 031a 002B     		cmp	r3, #0
 936 031c 47D0     		beq	.L133
 937              	.LBB539:
 938              		.loc 1 395 0
 939 031e 98F80120 		ldrb	r2, [r8, #1]	@ zero_extendqisi2
 940              	.LVL63:
 941 0322 7B49     		ldr	r1, .L276
 942              		.loc 1 400 0
 943 0324 D8F804E0 		ldr	lr, [r8, #4]
 944              		.loc 1 398 0
 945 0328 4668     		ldr	r6, [r0, #4]
 946              		.loc 1 395 0
 947 032a 571D     		adds	r7, r2, #5
 948 032c A1FB07C1 		umull	ip, r1, r1, r7
 949 0330 8908     		lsrs	r1, r1, #2
 950 0332 01EB8101 		add	r1, r1, r1, lsl #2
 951 0336 7F1A     		subs	r7, r7, r1
 952              		.loc 1 399 0
 953 0338 03F1FF3C 		add	ip, r3, #-1
 954              		.loc 1 400 0
 955 033c 1EF827B0 		ldrb	fp, [lr, r7, lsl #2]	@ zero_extendqisi2
 956 0340 16F82CA0 		ldrb	r10, [r6, ip, lsl #2]	@ zero_extendqisi2
 957 0344 D345     		cmp	fp, r10
 958 0346 0EEB8707 		add	r7, lr, r7, lsl #2
 959              		.loc 1 397 0
 960 034a 06EB8C01 		add	r1, r6, ip, lsl #2
 961              	.LVL64:
 962              		.loc 1 400 0
 963 034e 7FF473AF 		bne	.L56
 964 0352 06EB8306 		add	r6, r6, r3, lsl #2
 965 0356 5FFA8CFC 		uxtb	ip, ip
 966 035a CCEB8C7C 		rsb	ip, ip, ip, lsl #30
 967 035e A6EB010A 		sub	r10, r6, r1
 968 0362 01EB8C0C 		add	ip, r1, ip, lsl #2
 969 0366 0432     		adds	r2, r2, #4
ARM GAS  /tmp/ccFxQktx.s 			page 18


 970              	.LVL65:
 971 0368 AAF1080A 		sub	r10, r10, #8
 972 036c 08E0     		b	.L134
 973              	.LVL66:
 974              	.L135:
 975 036e 1EF823B0 		ldrb	fp, [lr, r3, lsl #2]	@ zero_extendqisi2
 976 0372 16F8083C 		ldrb	r3, [r6, #-8]	@ zero_extendqisi2
 977 0376 9B45     		cmp	fp, r3
 978 0378 A6F10406 		sub	r6, r6, #4
 979 037c 7FF45CAF 		bne	.L56
 980              	.LVL67:
 981              	.L134:
 982              		.loc 1 395 0
 983 0380 644B     		ldr	r3, .L276+4
 984              		.loc 1 400 0
 985 0382 7F88     		ldrh	r7, [r7, #2]
 986              		.loc 1 395 0
 987 0384 83FB023B 		smull	r3, fp, r3, r2
 988 0388 D317     		asrs	r3, r2, #31
 989 038a C3EB6B03 		rsb	r3, r3, fp, asr #1
 990 038e 03EB8303 		add	r3, r3, r3, lsl #2
 991              		.loc 1 400 0
 992 0392 B1F802B0 		ldrh	fp, [r1, #2]
 993              		.loc 1 395 0
 994 0396 D31A     		subs	r3, r2, r3
 995              		.loc 1 400 0
 996 0398 DBB2     		uxtb	r3, r3
 997 039a BB45     		cmp	fp, r7
 998 039c 02F1FF32 		add	r2, r2, #-1
 999 03a0 0EEB8307 		add	r7, lr, r3, lsl #2
 1000 03a4 7FF448AF 		bne	.L56
 1001              	.LBE539:
 1002              		.loc 1 390 0
 1003 03a8 6145     		cmp	r1, ip
 1004 03aa 5144     		add	r1, r1, r10
 1005              	.LVL68:
 1006 03ac DFD1     		bne	.L135
 1007              	.LVL69:
 1008              	.L133:
 1009              	.LBE538:
 1010              	.LBE537:
 1011              	.LBE536:
 1012              	.LBB540:
 1013              		.loc 1 522 0
 1014 03ae 0022     		movs	r2, #0
 1015 03b0 1146     		mov	r1, r2
 1016              	.LVL70:
 1017              	.L261:
 1018 03b2 C668     		ldr	r6, [r0, #12]
 1019 03b4 39E7     		b	.L259
 1020              	.LVL71:
 1021              	.L58:
 1022              	.LBE540:
 1023              	.LBB541:
 1024              	.LBB458:
 1025              	.LBB459:
 1026              		.loc 1 168 0
ARM GAS  /tmp/ccFxQktx.s 			page 19


 1027 03b6 4B1E     		subs	r3, r1, #1
 1028              	.LBE459:
 1029              	.LBE458:
 1030              		.loc 1 475 0
 1031 03b8 C668     		ldr	r6, [r0, #12]
 1032              	.LVL72:
 1033              	.LBB463:
 1034              	.LBB460:
 1035              		.loc 1 168 0
 1036 03ba 0B2B     		cmp	r3, #11
 1037 03bc 00F2E582 		bhi	.L162
 1038 03c0 DFE803F0 		tbb	[pc, r3]
 1039              	.L62:
 1040 03c4 33       		.byte	(.L61-.L62)/2
 1041 03c5 2F       		.byte	(.L63-.L62)/2
 1042 03c6 2B       		.byte	(.L64-.L62)/2
 1043 03c7 27       		.byte	(.L65-.L62)/2
 1044 03c8 24       		.byte	(.L66-.L62)/2
 1045 03c9 21       		.byte	(.L67-.L62)/2
 1046 03ca 1D       		.byte	(.L68-.L62)/2
 1047 03cb 19       		.byte	(.L69-.L62)/2
 1048 03cc 15       		.byte	(.L70-.L62)/2
 1049 03cd 12       		.byte	(.L71-.L62)/2
 1050 03ce 0F       		.byte	(.L72-.L62)/2
 1051 03cf 06       		.byte	(.L73-.L62)/2
 1052              		.p2align 1
 1053              	.L73:
 1054              		.loc 1 193 0
 1055 03d0 514B     		ldr	r3, .L276+8
 1056 03d2 5A8A     		ldrh	r2, [r3, #18]
 1057 03d4 92B2     		uxth	r2, r2
 1058              	.L60:
 1059              	.LVL73:
 1060              	.LBE460:
 1061              	.LBE463:
 1062              		.loc 1 475 0
 1063 03d6 0369     		ldr	r3, [r0, #16]
 1064 03d8 0298     		ldr	r0, [sp, #8]
 1065              	.LVL74:
 1066 03da B047     		blx	r6
 1067              	.LVL75:
 1068 03dc 95F80490 		ldrb	r9, [r5, #4]	@ zero_extendqisi2
 1069 03e0 2AE7     		b	.L56
 1070              	.LVL76:
 1071              	.L72:
 1072              	.LBB464:
 1073              	.LBB461:
 1074              		.loc 1 185 0
 1075 03e2 4D4B     		ldr	r3, .L276+8
 1076 03e4 5A7C     		ldrb	r2, [r3, #17]	@ zero_extendqisi2
 1077 03e6 F6E7     		b	.L60
 1078              	.L71:
 1079              		.loc 1 183 0
 1080 03e8 4B4B     		ldr	r3, .L276+8
 1081 03ea 1A7C     		ldrb	r2, [r3, #16]	@ zero_extendqisi2
 1082 03ec F3E7     		b	.L60
 1083              	.L70:
ARM GAS  /tmp/ccFxQktx.s 			page 20


 1084              		.loc 1 191 0
 1085 03ee 4A4B     		ldr	r3, .L276+8
 1086 03f0 DA89     		ldrh	r2, [r3, #14]
 1087 03f2 92B2     		uxth	r2, r2
 1088 03f4 EFE7     		b	.L60
 1089              	.L69:
 1090              		.loc 1 189 0
 1091 03f6 484B     		ldr	r3, .L276+8
 1092 03f8 9A89     		ldrh	r2, [r3, #12]
 1093 03fa 92B2     		uxth	r2, r2
 1094 03fc EBE7     		b	.L60
 1095              	.L68:
 1096              		.loc 1 187 0
 1097 03fe 464B     		ldr	r3, .L276+8
 1098 0400 5A89     		ldrh	r2, [r3, #10]
 1099 0402 92B2     		uxth	r2, r2
 1100 0404 E7E7     		b	.L60
 1101              	.L67:
 1102              		.loc 1 181 0
 1103 0406 444B     		ldr	r3, .L276+8
 1104 0408 5A7A     		ldrb	r2, [r3, #9]	@ zero_extendqisi2
 1105 040a E4E7     		b	.L60
 1106              	.L66:
 1107              		.loc 1 179 0
 1108 040c 424B     		ldr	r3, .L276+8
 1109 040e 1A7A     		ldrb	r2, [r3, #8]	@ zero_extendqisi2
 1110 0410 E1E7     		b	.L60
 1111              	.L65:
 1112              		.loc 1 177 0
 1113 0412 414B     		ldr	r3, .L276+8
 1114 0414 DA88     		ldrh	r2, [r3, #6]
 1115 0416 92B2     		uxth	r2, r2
 1116 0418 DDE7     		b	.L60
 1117              	.L64:
 1118              		.loc 1 175 0
 1119 041a 3F4B     		ldr	r3, .L276+8
 1120 041c 9A88     		ldrh	r2, [r3, #4]
 1121 041e 92B2     		uxth	r2, r2
 1122 0420 D9E7     		b	.L60
 1123              	.L63:
 1124              		.loc 1 173 0
 1125 0422 3D4B     		ldr	r3, .L276+8
 1126 0424 5A88     		ldrh	r2, [r3, #2]
 1127 0426 92B2     		uxth	r2, r2
 1128 0428 D5E7     		b	.L60
 1129              	.L61:
 1130              		.loc 1 171 0
 1131 042a 3B4B     		ldr	r3, .L276+8
 1132 042c 1A88     		ldrh	r2, [r3]
 1133 042e 92B2     		uxth	r2, r2
 1134 0430 D1E7     		b	.L60
 1135              	.LVL77:
 1136              	.L57:
 1137              	.LBE461:
 1138              	.LBE464:
 1139              	.LBB465:
 1140              	.LBB466:
ARM GAS  /tmp/ccFxQktx.s 			page 21


 1141              		.loc 1 360 0
 1142 0432 0C29     		cmp	r1, #12
 1143 0434 74D0     		beq	.L264
 1144              	.LVL78:
 1145              	.LBB467:
 1146              	.LBB468:
 1147              		.loc 1 168 0
 1148 0436 4B1E     		subs	r3, r1, #1
 1149 0438 0A2B     		cmp	r3, #10
 1150 043a 3FF6FDAE 		bhi	.L56
 1151 043e DFE803F0 		tbb	[pc, r3]
 1152              	.L93:
 1153 0442 5E       		.byte	(.L92-.L93)/2
 1154 0443 56       		.byte	(.L94-.L93)/2
 1155 0444 4E       		.byte	(.L95-.L93)/2
 1156 0445 46       		.byte	(.L96-.L93)/2
 1157 0446 3D       		.byte	(.L97-.L93)/2
 1158 0447 34       		.byte	(.L98-.L93)/2
 1159 0448 2A       		.byte	(.L99-.L93)/2
 1160 0449 20       		.byte	(.L100-.L93)/2
 1161 044a 16       		.byte	(.L101-.L93)/2
 1162 044b 0E       		.byte	(.L102-.L93)/2
 1163 044c 06       		.byte	(.L103-.L93)/2
 1164 044d 00       		.p2align 1
 1165              	.L103:
 1166              	.LVL79:
 1167              	.LBE468:
 1168              	.LBE467:
 1169              		.loc 1 373 0
 1170 044e 334A     		ldr	r2, .L276+12
 1171              	.LBB469:
 1172              	.LBB470:
 1173              		.loc 1 185 0
 1174 0450 039B     		ldr	r3, [sp, #12]
 1175              	.LBE470:
 1176              	.LBE469:
 1177              		.loc 1 373 0
 1178 0452 567C     		ldrb	r6, [r2, #17]	@ zero_extendqisi2
 1179              	.LBB495:
 1180              	.LBB471:
 1181              		.loc 1 185 0
 1182 0454 5B7C     		ldrb	r3, [r3, #17]	@ zero_extendqisi2
 1183              	.LBE471:
 1184              	.LBE495:
 1185              		.loc 1 373 0
 1186 0456 9E42     		cmp	r6, r3
 1187              	.LBB496:
 1188              	.LBB472:
 1189              		.loc 1 185 0
 1190 0458 9AB2     		uxth	r2, r3
 1191              	.LVL80:
 1192              	.LBE472:
 1193              	.LBE496:
 1194              		.loc 1 373 0
 1195 045a AAD1     		bne	.L261
 1196 045c ECE6     		b	.L56
 1197              	.LVL81:
ARM GAS  /tmp/ccFxQktx.s 			page 22


 1198              	.L102:
 1199 045e 2F4A     		ldr	r2, .L276+12
 1200              	.LBB497:
 1201              	.LBB473:
 1202              		.loc 1 183 0
 1203 0460 039B     		ldr	r3, [sp, #12]
 1204              	.LBE473:
 1205              	.LBE497:
 1206              		.loc 1 373 0
 1207 0462 167C     		ldrb	r6, [r2, #16]	@ zero_extendqisi2
 1208              	.LBB498:
 1209              	.LBB474:
 1210              		.loc 1 183 0
 1211 0464 1B7C     		ldrb	r3, [r3, #16]	@ zero_extendqisi2
 1212              	.LBE474:
 1213              	.LBE498:
 1214              		.loc 1 373 0
 1215 0466 9E42     		cmp	r6, r3
 1216              	.LBB499:
 1217              	.LBB475:
 1218              		.loc 1 183 0
 1219 0468 9AB2     		uxth	r2, r3
 1220              	.LVL82:
 1221              	.LBE475:
 1222              	.LBE499:
 1223              		.loc 1 373 0
 1224 046a A2D1     		bne	.L261
 1225 046c E4E6     		b	.L56
 1226              	.LVL83:
 1227              	.L101:
 1228 046e 2B4A     		ldr	r2, .L276+12
 1229              	.LBB500:
 1230              	.LBB476:
 1231              		.loc 1 191 0
 1232 0470 039B     		ldr	r3, [sp, #12]
 1233              	.LBE476:
 1234              	.LBE500:
 1235              		.loc 1 373 0
 1236 0472 B2F90E60 		ldrsh	r6, [r2, #14]
 1237              	.LBB501:
 1238              	.LBB477:
 1239              		.loc 1 191 0
 1240 0476 B3F90E30 		ldrsh	r3, [r3, #14]
 1241              	.LBE477:
 1242              	.LBE501:
 1243              		.loc 1 373 0
 1244 047a 9E42     		cmp	r6, r3
 1245              	.LBB502:
 1246              	.LBB478:
 1247              		.loc 1 191 0
 1248 047c 9AB2     		uxth	r2, r3
 1249              	.LVL84:
 1250              	.LBE478:
 1251              	.LBE502:
 1252              		.loc 1 373 0
 1253 047e 98D1     		bne	.L261
 1254 0480 DAE6     		b	.L56
ARM GAS  /tmp/ccFxQktx.s 			page 23


 1255              	.LVL85:
 1256              	.L100:
 1257 0482 264A     		ldr	r2, .L276+12
 1258              	.LBB503:
 1259              	.LBB479:
 1260              		.loc 1 189 0
 1261 0484 039B     		ldr	r3, [sp, #12]
 1262              	.LBE479:
 1263              	.LBE503:
 1264              		.loc 1 373 0
 1265 0486 B2F90C60 		ldrsh	r6, [r2, #12]
 1266              	.LBB504:
 1267              	.LBB480:
 1268              		.loc 1 189 0
 1269 048a B3F90C30 		ldrsh	r3, [r3, #12]
 1270              	.LBE480:
 1271              	.LBE504:
 1272              		.loc 1 373 0
 1273 048e 9E42     		cmp	r6, r3
 1274              	.LBB505:
 1275              	.LBB481:
 1276              		.loc 1 189 0
 1277 0490 9AB2     		uxth	r2, r3
 1278              	.LVL86:
 1279              	.LBE481:
 1280              	.LBE505:
 1281              		.loc 1 373 0
 1282 0492 8ED1     		bne	.L261
 1283 0494 D0E6     		b	.L56
 1284              	.LVL87:
 1285              	.L99:
 1286 0496 214A     		ldr	r2, .L276+12
 1287              	.LBB506:
 1288              	.LBB482:
 1289              		.loc 1 187 0
 1290 0498 039B     		ldr	r3, [sp, #12]
 1291              	.LBE482:
 1292              	.LBE506:
 1293              		.loc 1 373 0
 1294 049a B2F90A60 		ldrsh	r6, [r2, #10]
 1295              	.LBB507:
 1296              	.LBB483:
 1297              		.loc 1 187 0
 1298 049e B3F90A30 		ldrsh	r3, [r3, #10]
 1299              	.LBE483:
 1300              	.LBE507:
 1301              		.loc 1 373 0
 1302 04a2 9E42     		cmp	r6, r3
 1303              	.LBB508:
 1304              	.LBB484:
 1305              		.loc 1 187 0
 1306 04a4 9AB2     		uxth	r2, r3
 1307              	.LVL88:
 1308              	.LBE484:
 1309              	.LBE508:
 1310              		.loc 1 373 0
 1311 04a6 84D1     		bne	.L261
ARM GAS  /tmp/ccFxQktx.s 			page 24


 1312 04a8 C6E6     		b	.L56
 1313              	.LVL89:
 1314              	.L98:
 1315 04aa 1C4A     		ldr	r2, .L276+12
 1316              	.LBB509:
 1317              	.LBB485:
 1318              		.loc 1 181 0
 1319 04ac 039B     		ldr	r3, [sp, #12]
 1320              	.LBE485:
 1321              	.LBE509:
 1322              		.loc 1 373 0
 1323 04ae 567A     		ldrb	r6, [r2, #9]	@ zero_extendqisi2
 1324              	.LBB510:
 1325              	.LBB486:
 1326              		.loc 1 181 0
 1327 04b0 5B7A     		ldrb	r3, [r3, #9]	@ zero_extendqisi2
 1328              	.LBE486:
 1329              	.LBE510:
 1330              		.loc 1 373 0
 1331 04b2 9E42     		cmp	r6, r3
 1332              	.LBB511:
 1333              	.LBB487:
 1334              		.loc 1 181 0
 1335 04b4 9AB2     		uxth	r2, r3
 1336              	.LVL90:
 1337              	.LBE487:
 1338              	.LBE511:
 1339              		.loc 1 373 0
 1340 04b6 7FF47CAF 		bne	.L261
 1341 04ba BDE6     		b	.L56
 1342              	.LVL91:
 1343              	.L97:
 1344 04bc 174A     		ldr	r2, .L276+12
 1345              	.LBB512:
 1346              	.LBB488:
 1347              		.loc 1 179 0
 1348 04be 039B     		ldr	r3, [sp, #12]
 1349              	.LBE488:
 1350              	.LBE512:
 1351              		.loc 1 373 0
 1352 04c0 167A     		ldrb	r6, [r2, #8]	@ zero_extendqisi2
 1353              	.LBB513:
 1354              	.LBB489:
 1355              		.loc 1 179 0
 1356 04c2 1B7A     		ldrb	r3, [r3, #8]	@ zero_extendqisi2
 1357              	.LBE489:
 1358              	.LBE513:
 1359              		.loc 1 373 0
 1360 04c4 9E42     		cmp	r6, r3
 1361              	.LBB514:
 1362              	.LBB490:
 1363              		.loc 1 179 0
 1364 04c6 9AB2     		uxth	r2, r3
 1365              	.LVL92:
 1366              	.LBE490:
 1367              	.LBE514:
 1368              		.loc 1 373 0
ARM GAS  /tmp/ccFxQktx.s 			page 25


 1369 04c8 7FF473AF 		bne	.L261
 1370 04cc B4E6     		b	.L56
 1371              	.LVL93:
 1372              	.L96:
 1373              	.LBB515:
 1374              	.LBB491:
 1375              		.loc 1 177 0
 1376 04ce 039B     		ldr	r3, [sp, #12]
 1377 04d0 DA88     		ldrh	r2, [r3, #6]
 1378              	.LVL94:
 1379              	.LBE491:
 1380              	.LBE515:
 1381              		.loc 1 373 0
 1382 04d2 124B     		ldr	r3, .L276+12
 1383 04d4 DB88     		ldrh	r3, [r3, #6]
 1384 04d6 9342     		cmp	r3, r2
 1385 04d8 7FF46BAF 		bne	.L261
 1386 04dc ACE6     		b	.L56
 1387              	.LVL95:
 1388              	.L95:
 1389              	.LBB516:
 1390              	.LBB492:
 1391              		.loc 1 175 0
 1392 04de 039B     		ldr	r3, [sp, #12]
 1393 04e0 9A88     		ldrh	r2, [r3, #4]
 1394              	.LVL96:
 1395              	.LBE492:
 1396              	.LBE516:
 1397              		.loc 1 373 0
 1398 04e2 0E4B     		ldr	r3, .L276+12
 1399 04e4 9B88     		ldrh	r3, [r3, #4]
 1400 04e6 9342     		cmp	r3, r2
 1401 04e8 7FF463AF 		bne	.L261
 1402 04ec A4E6     		b	.L56
 1403              	.LVL97:
 1404              	.L94:
 1405              	.LBB517:
 1406              	.LBB493:
 1407              		.loc 1 173 0
 1408 04ee 039B     		ldr	r3, [sp, #12]
 1409 04f0 5A88     		ldrh	r2, [r3, #2]
 1410              	.LVL98:
 1411              	.LBE493:
 1412              	.LBE517:
 1413              		.loc 1 373 0
 1414 04f2 0A4B     		ldr	r3, .L276+12
 1415 04f4 5B88     		ldrh	r3, [r3, #2]
 1416 04f6 9342     		cmp	r3, r2
 1417 04f8 7FF45BAF 		bne	.L261
 1418 04fc 9CE6     		b	.L56
 1419              	.LVL99:
 1420              	.L92:
 1421              	.LBB518:
 1422              	.LBB494:
 1423              		.loc 1 171 0
 1424 04fe 039B     		ldr	r3, [sp, #12]
 1425 0500 1A88     		ldrh	r2, [r3]
ARM GAS  /tmp/ccFxQktx.s 			page 26


 1426              	.LVL100:
 1427              	.LBE494:
 1428              	.LBE518:
 1429              		.loc 1 373 0
 1430 0502 064B     		ldr	r3, .L276+12
 1431 0504 1B88     		ldrh	r3, [r3]
 1432 0506 9342     		cmp	r3, r2
 1433 0508 7FF453AF 		bne	.L261
 1434 050c 94E6     		b	.L56
 1435              	.L277:
 1436 050e 00BF     		.align	2
 1437              	.L276:
 1438 0510 CDCCCCCC 		.word	-858993459
 1439 0514 67666666 		.word	1717986919
 1440 0518 00000000 		.word	g_DR16_RC_Value
 1441 051c 00000000 		.word	.LANCHOR3
 1442              	.L264:
 1443              	.LVL101:
 1444              	.LBB519:
 1445              	.LBB520:
 1446              		.loc 1 365 0
 1447 0520 C388     		ldrh	r3, [r0, #6]
 1448 0522 DE07     		lsls	r6, r3, #31
 1449 0524 03D5     		bpl	.L75
 1450 0526 944E     		ldr	r6, .L278
 1451 0528 3778     		ldrb	r7, [r6]	@ zero_extendqisi2
 1452 052a 002F     		cmp	r7, #0
 1453 052c 72D1     		bne	.L76
 1454              	.L75:
 1455              	.LVL102:
 1456 052e 9F07     		lsls	r7, r3, #30
 1457 0530 04D5     		bpl	.L77
 1458 0532 914E     		ldr	r6, .L278
 1459 0534 3279     		ldrb	r2, [r6, #4]	@ zero_extendqisi2
 1460 0536 002A     		cmp	r2, #0
 1461 0538 40F0E380 		bne	.L164
 1462              	.L77:
 1463              	.LVL103:
 1464 053c 5E07     		lsls	r6, r3, #29
 1465 053e 04D5     		bpl	.L78
 1466 0540 8D4E     		ldr	r6, .L278
 1467 0542 327A     		ldrb	r2, [r6, #8]	@ zero_extendqisi2
 1468 0544 002A     		cmp	r2, #0
 1469 0546 40F0DE80 		bne	.L165
 1470              	.L78:
 1471              	.LVL104:
 1472 054a 1A07     		lsls	r2, r3, #28
 1473 054c 04D5     		bpl	.L79
 1474 054e 8A4E     		ldr	r6, .L278
 1475 0550 327B     		ldrb	r2, [r6, #12]	@ zero_extendqisi2
 1476 0552 002A     		cmp	r2, #0
 1477 0554 40F0D980 		bne	.L166
 1478              	.L79:
 1479              	.LVL105:
 1480 0558 DF06     		lsls	r7, r3, #27
 1481 055a 04D5     		bpl	.L80
 1482 055c 864E     		ldr	r6, .L278
ARM GAS  /tmp/ccFxQktx.s 			page 27


 1483 055e 327C     		ldrb	r2, [r6, #16]	@ zero_extendqisi2
 1484 0560 002A     		cmp	r2, #0
 1485 0562 40F0D680 		bne	.L167
 1486              	.L80:
 1487              	.LVL106:
 1488 0566 9E06     		lsls	r6, r3, #26
 1489 0568 04D5     		bpl	.L81
 1490 056a 834E     		ldr	r6, .L278
 1491 056c 327D     		ldrb	r2, [r6, #20]	@ zero_extendqisi2
 1492 056e 002A     		cmp	r2, #0
 1493 0570 40F0CD80 		bne	.L168
 1494              	.L81:
 1495              	.LVL107:
 1496 0574 5A06     		lsls	r2, r3, #25
 1497 0576 04D5     		bpl	.L82
 1498 0578 7F4E     		ldr	r6, .L278
 1499 057a 327E     		ldrb	r2, [r6, #24]	@ zero_extendqisi2
 1500 057c 002A     		cmp	r2, #0
 1501 057e 40F0CE80 		bne	.L169
 1502              	.L82:
 1503              	.LVL108:
 1504 0582 1F06     		lsls	r7, r3, #24
 1505 0584 04D5     		bpl	.L83
 1506 0586 7C4E     		ldr	r6, .L278
 1507 0588 327F     		ldrb	r2, [r6, #28]	@ zero_extendqisi2
 1508 058a 002A     		cmp	r2, #0
 1509 058c 40F0C380 		bne	.L170
 1510              	.L83:
 1511              	.LVL109:
 1512 0590 DE05     		lsls	r6, r3, #23
 1513 0592 05D5     		bpl	.L84
 1514 0594 784E     		ldr	r6, .L278
 1515 0596 96F82020 		ldrb	r2, [r6, #32]	@ zero_extendqisi2
 1516 059a 002A     		cmp	r2, #0
 1517 059c 40F0BD80 		bne	.L171
 1518              	.L84:
 1519              	.LVL110:
 1520 05a0 9A05     		lsls	r2, r3, #22
 1521 05a2 05D5     		bpl	.L85
 1522 05a4 744E     		ldr	r6, .L278
 1523 05a6 96F82420 		ldrb	r2, [r6, #36]	@ zero_extendqisi2
 1524 05aa 002A     		cmp	r2, #0
 1525 05ac 40F0BB80 		bne	.L172
 1526              	.L85:
 1527              	.LVL111:
 1528 05b0 5F05     		lsls	r7, r3, #21
 1529 05b2 05D5     		bpl	.L86
 1530 05b4 704E     		ldr	r6, .L278
 1531 05b6 96F82820 		ldrb	r2, [r6, #40]	@ zero_extendqisi2
 1532 05ba 002A     		cmp	r2, #0
 1533 05bc 40F0B180 		bne	.L173
 1534              	.L86:
 1535              	.LVL112:
 1536 05c0 1E05     		lsls	r6, r3, #20
 1537 05c2 05D5     		bpl	.L87
 1538 05c4 6C4E     		ldr	r6, .L278
 1539 05c6 96F82C20 		ldrb	r2, [r6, #44]	@ zero_extendqisi2
ARM GAS  /tmp/ccFxQktx.s 			page 28


 1540 05ca 002A     		cmp	r2, #0
 1541 05cc 40F0B180 		bne	.L174
 1542              	.L87:
 1543              	.LVL113:
 1544 05d0 DA04     		lsls	r2, r3, #19
 1545 05d2 05D5     		bpl	.L88
 1546 05d4 684E     		ldr	r6, .L278
 1547 05d6 96F83020 		ldrb	r2, [r6, #48]	@ zero_extendqisi2
 1548 05da 002A     		cmp	r2, #0
 1549 05dc 40F0A580 		bne	.L175
 1550              	.L88:
 1551              	.LVL114:
 1552 05e0 9F04     		lsls	r7, r3, #18
 1553 05e2 05D5     		bpl	.L89
 1554 05e4 644E     		ldr	r6, .L278
 1555 05e6 96F83420 		ldrb	r2, [r6, #52]	@ zero_extendqisi2
 1556 05ea 002A     		cmp	r2, #0
 1557 05ec 40F09F80 		bne	.L176
 1558              	.L89:
 1559              	.LVL115:
 1560 05f0 5E04     		lsls	r6, r3, #17
 1561 05f2 05D5     		bpl	.L90
 1562 05f4 604E     		ldr	r6, .L278
 1563 05f6 96F83820 		ldrb	r2, [r6, #56]	@ zero_extendqisi2
 1564 05fa 002A     		cmp	r2, #0
 1565 05fc 40F09B80 		bne	.L177
 1566              	.L90:
 1567              	.LVL116:
 1568 0600 1A04     		lsls	r2, r3, #16
 1569 0602 7FF519AE 		bpl	.L56
 1570 0606 5C4E     		ldr	r6, .L278
 1571 0608 96F83C30 		ldrb	r3, [r6, #60]	@ zero_extendqisi2
 1572 060c 0F22     		movs	r2, #15
 1573 060e 002B     		cmp	r3, #0
 1574 0610 3FF412AE 		beq	.L56
 1575              	.LVL117:
 1576              	.L76:
 1577              		.loc 1 367 0
 1578 0614 059B     		ldr	r3, [sp, #20]
 1579 0616 06F82230 		strb	r3, [r6, r2, lsl #2]
 1580              	.LBE520:
 1581              	.LBE519:
 1582              	.LBE466:
 1583              	.LBE465:
 1584              	.LBB524:
 1585              	.LBB525:
 1586              	.LBB526:
 1587              		.loc 1 193 0
 1588 061a 039B     		ldr	r3, [sp, #12]
 1589              	.LBE526:
 1590              	.LBE525:
 1591              		.loc 1 487 0
 1592 061c C668     		ldr	r6, [r0, #12]
 1593              	.LVL118:
 1594              	.LBB528:
 1595              	.LBB527:
 1596              		.loc 1 193 0
ARM GAS  /tmp/ccFxQktx.s 			page 29


 1597 061e 5A8A     		ldrh	r2, [r3, #18]
 1598 0620 03E6     		b	.L259
 1599              	.LVL119:
 1600              	.L150:
 1601              	.LBE527:
 1602              	.LBE528:
 1603              	.LBE524:
 1604              	.LBE541:
 1605              	.LBE544:
 1606              	.LBE547:
 1607              	.LBB548:
 1608              	.LBB420:
 1609              	.LBB376:
 1610              	.LBB367:
 1611              		.loc 1 101 0
 1612 0622 0122     		movs	r2, #1
 1613              	.LVL120:
 1614              	.LBE367:
 1615              	.LBE376:
 1616              		.loc 1 210 0
 1617 0624 0398     		ldr	r0, [sp, #12]
 1618 0626 9142     		cmp	r1, r2
 1619 0628 0280     		strh	r2, [r0]	@ movhi
 1620 062a 7FF48CAD 		bne	.L265
 1621              	.L10:
 1622              		.loc 1 217 0
 1623 062e 534A     		ldr	r2, .L278+4
 1624              		.loc 1 216 0
 1625 0630 5349     		ldr	r1, .L278+8
 1626              		.loc 1 217 0
 1627 0632 5288     		ldrh	r2, [r2, #2]
 1628              		.loc 1 216 0
 1629 0634 4988     		ldrh	r1, [r1, #2]
 1630              		.loc 1 217 0
 1631 0636 92B2     		uxth	r2, r2
 1632              	.LVL121:
 1633              	.LBB377:
 1634              	.LBB378:
 1635              		.loc 1 101 0
 1636 0638 40F22C50 		movw	r0, #1324
 1637 063c 8242     		cmp	r2, r0
 1638 063e 24D8     		bhi	.L151
 1639 0640 B2F5357F 		cmp	r2, #724
 1640 0644 3BD2     		bcs	.L266
 1641              	.LVL122:
 1642              	.LBE378:
 1643              	.LBE377:
 1644              		.loc 1 217 0
 1645 0646 039A     		ldr	r2, [sp, #12]
 1646 0648 5180     		strh	r1, [r2, #2]	@ movhi
 1647              	.L14:
 1648              		.loc 1 224 0
 1649 064a 4C4A     		ldr	r2, .L278+4
 1650              		.loc 1 223 0
 1651 064c 4C49     		ldr	r1, .L278+8
 1652              		.loc 1 224 0
 1653 064e 9288     		ldrh	r2, [r2, #4]
ARM GAS  /tmp/ccFxQktx.s 			page 30


 1654              		.loc 1 223 0
 1655 0650 8888     		ldrh	r0, [r1, #4]
 1656              		.loc 1 224 0
 1657 0652 92B2     		uxth	r2, r2
 1658              	.LVL123:
 1659              	.LBB381:
 1660              	.LBB382:
 1661              		.loc 1 101 0
 1662 0654 40F22C51 		movw	r1, #1324
 1663 0658 8A42     		cmp	r2, r1
 1664 065a 32D9     		bls	.L267
 1665 065c 0122     		movs	r2, #1
 1666              	.LVL124:
 1667              	.L15:
 1668              	.LBE382:
 1669              	.LBE381:
 1670              		.loc 1 224 0
 1671 065e 0399     		ldr	r1, [sp, #12]
 1672              		.loc 1 223 0
 1673 0660 9042     		cmp	r0, r2
 1674              		.loc 1 224 0
 1675 0662 8A80     		strh	r2, [r1, #4]	@ movhi
 1676              		.loc 1 223 0
 1677 0664 32D0     		beq	.L17
 1678              	.LBB385:
 1679              	.LBB372:
 1680              		.loc 1 157 0
 1681 0666 0133     		adds	r3, r3, #1
 1682              	.LBE372:
 1683              	.LBE385:
 1684              		.loc 1 227 0
 1685 0668 4648     		ldr	r0, .L278+12
 1686 066a 0490     		str	r0, [sp, #16]
 1687              	.LVL125:
 1688              	.LBB386:
 1689              	.LBB373:
 1690              		.loc 1 157 0
 1691 066c DBB2     		uxtb	r3, r3
 1692              	.LBE373:
 1693              	.LBE386:
 1694              		.loc 1 227 0
 1695 066e 0321     		movs	r1, #3
 1696              	.LBB387:
 1697              	.LBB374:
 1698              		.loc 1 157 0
 1699 0670 052B     		cmp	r3, #5
 1700              	.LBE374:
 1701              	.LBE387:
 1702              		.loc 1 228 0
 1703 0672 4280     		strh	r2, [r0, #2]	@ movhi
 1704              		.loc 1 227 0
 1705 0674 0170     		strb	r1, [r0]
 1706              	.LVL126:
 1707              	.LBB388:
 1708              	.LBB375:
 1709              		.loc 1 157 0
 1710 0676 7FF470AD 		bne	.L268
ARM GAS  /tmp/ccFxQktx.s 			page 31


 1711              	.L51:
 1712              		.loc 1 158 0
 1713 067a 059B     		ldr	r3, [sp, #20]
 1714 067c 88F80130 		strb	r3, [r8, #1]
 1715 0680 0023     		movs	r3, #0
 1716 0682 6DE5     		b	.L52
 1717              	.LVL127:
 1718              	.L9:
 1719              	.LBE375:
 1720              	.LBE388:
 1721              		.loc 1 210 0
 1722 0684 039A     		ldr	r2, [sp, #12]
 1723 0686 1180     		strh	r1, [r2]	@ movhi
 1724 0688 D1E7     		b	.L10
 1725              	.LVL128:
 1726              	.L151:
 1727              	.LBB389:
 1728              	.LBB379:
 1729              		.loc 1 101 0
 1730 068a 0122     		movs	r2, #1
 1731              	.LVL129:
 1732              	.L12:
 1733              	.LBE379:
 1734              	.LBE389:
 1735              		.loc 1 217 0
 1736 068c 0398     		ldr	r0, [sp, #12]
 1737              		.loc 1 216 0
 1738 068e 9142     		cmp	r1, r2
 1739              		.loc 1 217 0
 1740 0690 4280     		strh	r2, [r0, #2]	@ movhi
 1741              		.loc 1 216 0
 1742 0692 DAD0     		beq	.L14
 1743              		.loc 1 220 0
 1744 0694 3B48     		ldr	r0, .L278+12
 1745 0696 0490     		str	r0, [sp, #16]
 1746              	.LVL130:
 1747 0698 0221     		movs	r1, #2
 1748              		.loc 1 221 0
 1749 069a 4280     		strh	r2, [r0, #2]	@ movhi
 1750              		.loc 1 220 0
 1751 069c 0170     		strb	r1, [r0]
 1752 069e 57E5     		b	.L141
 1753              	.LVL131:
 1754              	.L146:
 1755              	.LBE420:
 1756              	.LBE548:
 1757              	.LBE555:
 1758              	.LBB556:
 1759              	.LBB281:
 1760              	.LBB273:
 1761              	.LBB269:
 1762              		.loc 1 101 0
 1763 06a0 0122     		movs	r2, #1
 1764              	.LVL132:
 1765              	.LBE269:
 1766              	.LBE273:
 1767              		.loc 1 152 0
ARM GAS  /tmp/ccFxQktx.s 			page 32


 1768 06a2 CB88     		ldrh	r3, [r1, #6]
 1769              	.LVL133:
 1770              		.loc 1 149 0
 1771 06a4 8A80     		strh	r2, [r1, #4]	@ movhi
 1772              	.LBB274:
 1773              	.LBB272:
 1774              		.loc 1 101 0
 1775 06a6 40F22C52 		movw	r2, #1324
 1776 06aa 9342     		cmp	r3, r2
 1777 06ac 7FF6F7AC 		bls	.L269
 1778              	.L148:
 1779 06b0 0123     		movs	r3, #1
 1780              	.LVL134:
 1781 06b2 0A46     		mov	r2, r1
 1782 06b4 F9E4     		b	.L5
 1783              	.LVL135:
 1784              	.L144:
 1785              	.LBE272:
 1786              	.LBE274:
 1787              	.LBB275:
 1788              	.LBB266:
 1789 06b6 0122     		movs	r2, #1
 1790 06b8 DEE4     		b	.L3
 1791              	.LVL136:
 1792              	.L142:
 1793              	.LBE266:
 1794              	.LBE275:
 1795              	.LBB276:
 1796              	.LBB261:
 1797 06ba 0122     		movs	r2, #1
 1798 06bc CFE4     		b	.L2
 1799              	.LVL137:
 1800              	.L266:
 1801              	.LBE261:
 1802              	.LBE276:
 1803              	.LBE281:
 1804              	.LBE556:
 1805              	.LBB557:
 1806              	.LBB549:
 1807              	.LBB421:
 1808              	.LBB390:
 1809              	.LBB380:
 1810 06be 0322     		movs	r2, #3
 1811              	.LVL138:
 1812 06c0 E4E7     		b	.L12
 1813              	.LVL139:
 1814              	.L267:
 1815              	.LBE380:
 1816              	.LBE390:
 1817              	.LBB391:
 1818              	.LBB383:
 1819 06c2 B2F5357F 		cmp	r2, #724
 1820 06c6 15D2     		bcs	.L270
 1821              	.LVL140:
 1822              	.LBE383:
 1823              	.LBE391:
 1824              		.loc 1 224 0
ARM GAS  /tmp/ccFxQktx.s 			page 33


 1825 06c8 039A     		ldr	r2, [sp, #12]
 1826 06ca 9080     		strh	r0, [r2, #4]	@ movhi
 1827              	.L17:
 1828              		.loc 1 231 0
 1829 06cc 2B4A     		ldr	r2, .L278+4
 1830              		.loc 1 230 0
 1831 06ce 2C49     		ldr	r1, .L278+8
 1832              		.loc 1 231 0
 1833 06d0 D288     		ldrh	r2, [r2, #6]
 1834              		.loc 1 230 0
 1835 06d2 C988     		ldrh	r1, [r1, #6]
 1836              		.loc 1 231 0
 1837 06d4 92B2     		uxth	r2, r2
 1838              	.LVL141:
 1839              	.LBB392:
 1840              	.LBB393:
 1841              		.loc 1 101 0
 1842 06d6 40F22C50 		movw	r0, #1324
 1843 06da 8242     		cmp	r2, r0
 1844 06dc 0CD9     		bls	.L271
 1845 06de 0122     		movs	r2, #1
 1846              	.LVL142:
 1847              	.L18:
 1848              	.LBE393:
 1849              	.LBE392:
 1850              		.loc 1 231 0
 1851 06e0 0398     		ldr	r0, [sp, #12]
 1852              		.loc 1 230 0
 1853 06e2 9142     		cmp	r1, r2
 1854              		.loc 1 231 0
 1855 06e4 C280     		strh	r2, [r0, #6]	@ movhi
 1856              		.loc 1 230 0
 1857 06e6 2BD0     		beq	.L20
 1858              		.loc 1 234 0
 1859 06e8 2648     		ldr	r0, .L278+12
 1860 06ea 0490     		str	r0, [sp, #16]
 1861              	.LVL143:
 1862 06ec 0421     		movs	r1, #4
 1863              		.loc 1 235 0
 1864 06ee 4280     		strh	r2, [r0, #2]	@ movhi
 1865              		.loc 1 234 0
 1866 06f0 0170     		strb	r1, [r0]
 1867 06f2 2DE5     		b	.L141
 1868              	.LVL144:
 1869              	.L270:
 1870              	.LBB396:
 1871              	.LBB384:
 1872              		.loc 1 101 0
 1873 06f4 0322     		movs	r2, #3
 1874              	.LVL145:
 1875 06f6 B2E7     		b	.L15
 1876              	.LVL146:
 1877              	.L271:
 1878              	.LBE384:
 1879              	.LBE396:
 1880              	.LBB397:
 1881              	.LBB394:
ARM GAS  /tmp/ccFxQktx.s 			page 34


 1882 06f8 B2F5357F 		cmp	r2, #724
 1883 06fc 1DD3     		bcc	.L19
 1884 06fe 0322     		movs	r2, #3
 1885              	.LVL147:
 1886 0700 EEE7     		b	.L18
 1887              	.LVL148:
 1888              	.L164:
 1889              	.LBE394:
 1890              	.LBE397:
 1891              	.LBE421:
 1892              	.LBE549:
 1893              	.LBB550:
 1894              	.LBB545:
 1895              	.LBB542:
 1896              	.LBB529:
 1897              	.LBB523:
 1898              	.LBB522:
 1899              	.LBB521:
 1900              		.loc 1 365 0
 1901 0702 0122     		movs	r2, #1
 1902 0704 86E7     		b	.L76
 1903              	.LVL149:
 1904              	.L165:
 1905 0706 0222     		movs	r2, #2
 1906 0708 84E7     		b	.L76
 1907              	.LVL150:
 1908              	.L166:
 1909 070a 0322     		movs	r2, #3
 1910 070c 82E7     		b	.L76
 1911              	.LVL151:
 1912              	.L168:
 1913 070e 0522     		movs	r2, #5
 1914 0710 80E7     		b	.L76
 1915              	.LVL152:
 1916              	.L167:
 1917 0712 0422     		movs	r2, #4
 1918 0714 7EE7     		b	.L76
 1919              	.LVL153:
 1920              	.L170:
 1921 0716 0722     		movs	r2, #7
 1922 0718 7CE7     		b	.L76
 1923              	.LVL154:
 1924              	.L171:
 1925 071a 0822     		movs	r2, #8
 1926 071c 7AE7     		b	.L76
 1927              	.LVL155:
 1928              	.L169:
 1929 071e 0622     		movs	r2, #6
 1930 0720 78E7     		b	.L76
 1931              	.LVL156:
 1932              	.L173:
 1933 0722 0A22     		movs	r2, #10
 1934 0724 76E7     		b	.L76
 1935              	.LVL157:
 1936              	.L172:
 1937 0726 0922     		movs	r2, #9
 1938 0728 74E7     		b	.L76
ARM GAS  /tmp/ccFxQktx.s 			page 35


 1939              	.LVL158:
 1940              	.L175:
 1941 072a 0C22     		movs	r2, #12
 1942 072c 72E7     		b	.L76
 1943              	.LVL159:
 1944              	.L176:
 1945 072e 0D22     		movs	r2, #13
 1946 0730 70E7     		b	.L76
 1947              	.LVL160:
 1948              	.L174:
 1949 0732 0B22     		movs	r2, #11
 1950 0734 6EE7     		b	.L76
 1951              	.LVL161:
 1952              	.L177:
 1953 0736 0E22     		movs	r2, #14
 1954 0738 6CE7     		b	.L76
 1955              	.LVL162:
 1956              	.L19:
 1957              	.LBE521:
 1958              	.LBE522:
 1959              	.LBE523:
 1960              	.LBE529:
 1961              	.LBE542:
 1962              	.LBE545:
 1963              	.LBE550:
 1964              	.LBB551:
 1965              	.LBB422:
 1966              		.loc 1 231 0
 1967 073a 039A     		ldr	r2, [sp, #12]
 1968 073c D180     		strh	r1, [r2, #6]	@ movhi
 1969 073e 1046     		mov	r0, r2
 1970              	.L20:
 1971              		.loc 1 237 0
 1972 0740 0E4A     		ldr	r2, .L278+4
 1973 0742 0F49     		ldr	r1, .L278+8
 1974 0744 127A     		ldrb	r2, [r2, #8]	@ zero_extendqisi2
 1975 0746 097A     		ldrb	r1, [r1, #8]	@ zero_extendqisi2
 1976 0748 D2B2     		uxtb	r2, r2
 1977 074a 9142     		cmp	r1, r2
 1978 074c 0272     		strb	r2, [r0, #8]
 1979 074e 05D0     		beq	.L21
 1980              		.loc 1 239 0
 1981 0750 0C48     		ldr	r0, .L278+12
 1982 0752 0490     		str	r0, [sp, #16]
 1983              	.LVL163:
 1984 0754 0521     		movs	r1, #5
 1985              		.loc 1 240 0
 1986 0756 4280     		strh	r2, [r0, #2]	@ movhi
 1987              		.loc 1 239 0
 1988 0758 0170     		strb	r1, [r0]
 1989 075a F9E4     		b	.L141
 1990              	.LVL164:
 1991              	.L21:
 1992              		.loc 1 242 0
 1993 075c 074A     		ldr	r2, .L278+4
 1994 075e 0849     		ldr	r1, .L278+8
 1995 0760 527A     		ldrb	r2, [r2, #9]	@ zero_extendqisi2
ARM GAS  /tmp/ccFxQktx.s 			page 36


 1996 0762 497A     		ldrb	r1, [r1, #9]	@ zero_extendqisi2
 1997 0764 D2B2     		uxtb	r2, r2
 1998 0766 9142     		cmp	r1, r2
 1999 0768 4272     		strb	r2, [r0, #9]
 2000 076a 0DD0     		beq	.L22
 2001              		.loc 1 244 0
 2002 076c 0548     		ldr	r0, .L278+12
 2003 076e 0490     		str	r0, [sp, #16]
 2004              	.LVL165:
 2005 0770 0621     		movs	r1, #6
 2006              		.loc 1 245 0
 2007 0772 4280     		strh	r2, [r0, #2]	@ movhi
 2008              		.loc 1 244 0
 2009 0774 0170     		strb	r1, [r0]
 2010 0776 EBE4     		b	.L141
 2011              	.L279:
 2012              		.align	2
 2013              	.L278:
 2014 0778 00000000 		.word	.LANCHOR6
 2015 077c 00000000 		.word	g_DR16_RC_Value
 2016 0780 00000000 		.word	.LANCHOR3
 2017 0784 00000000 		.word	.LANCHOR4
 2018              	.LVL166:
 2019              	.L22:
 2020              		.loc 1 248 0
 2021 0788 8C4B     		ldr	r3, .L280
 2022              		.loc 1 247 0
 2023 078a 8D4A     		ldr	r2, .L280+4
 2024              		.loc 1 248 0
 2025 078c 1B7C     		ldrb	r3, [r3, #16]	@ zero_extendqisi2
 2026              		.loc 1 247 0
 2027 078e 127C     		ldrb	r2, [r2, #16]	@ zero_extendqisi2
 2028              		.loc 1 248 0
 2029 0790 DBB2     		uxtb	r3, r3
 2030              		.loc 1 247 0
 2031 0792 9A42     		cmp	r2, r3
 2032              		.loc 1 248 0
 2033 0794 0374     		strb	r3, [r0, #16]
 2034              		.loc 1 247 0
 2035 0796 00F0E380 		beq	.L23
 2036              		.loc 1 250 0
 2037 079a 8A49     		ldr	r1, .L280+8
 2038 079c 0491     		str	r1, [sp, #16]
 2039              	.LVL167:
 2040              		.loc 1 251 0
 2041 079e 9BB2     		uxth	r3, r3
 2042              		.loc 1 250 0
 2043 07a0 0A22     		movs	r2, #10
 2044              		.loc 1 251 0
 2045 07a2 4B80     		strh	r3, [r1, #2]	@ movhi
 2046              		.loc 1 250 0
 2047 07a4 0A70     		strb	r2, [r1]
 2048              		.loc 1 252 0
 2049 07a6 002B     		cmp	r3, #0
 2050 07a8 00F0D580 		beq	.L24
 2051              		.loc 1 253 0
 2052 07ac 8649     		ldr	r1, .L280+12
ARM GAS  /tmp/ccFxQktx.s 			page 37


 2053 07ae 0420     		movs	r0, #4
 2054 07b0 FFF7FEFF 		bl	log_msg
 2055              	.LVL168:
 2056              	.L25:
 2057              		.loc 1 277 0
 2058 07b4 049B     		ldr	r3, [sp, #16]
 2059 07b6 1B78     		ldrb	r3, [r3]	@ zero_extendqisi2
 2060 07b8 0C2B     		cmp	r3, #12
 2061 07ba 40F0C880 		bne	.L30
 2062              	.L29:
 2063 07be 834C     		ldr	r4, .L280+16
 2064 07c0 834F     		ldr	r7, .L280+20
 2065              	.LBB398:
 2066              	.LBB399:
 2067              		.loc 1 342 0
 2068 07c2 DFF82CB2 		ldr	fp, .L280+52
 2069 07c6 DFF82CA2 		ldr	r10, .L280+56
 2070 07ca 04F14009 		add	r9, r4, #64
 2071              	.LBE399:
 2072              	.LBE398:
 2073              	.LBB417:
 2074              	.LBB395:
 2075              		.loc 1 101 0
 2076 07ce 0125     		movs	r5, #1
 2077 07d0 08E0     		b	.L32
 2078              	.LVL169:
 2079              	.L273:
 2080              	.LBE395:
 2081              	.LBE417:
 2082              	.LBB418:
 2083              	.LBB416:
 2084              		.loc 1 291 0
 2085 07d2 0028     		cmp	r0, #0
 2086 07d4 69D1     		bne	.L272
 2087              	.LVL170:
 2088              	.L45:
 2089 07d6 0434     		adds	r4, r4, #4
 2090              		.loc 1 281 0
 2091 07d8 A145     		cmp	r9, r4
 2092 07da 07F10107 		add	r7, r7, #1
 2093              	.LVL171:
 2094 07de 3546     		mov	r5, r6
 2095 07e0 3FF4CFAC 		beq	.L33
 2096              	.LVL172:
 2097              	.L32:
 2098 07e4 6E00     		lsls	r6, r5, #1
 2099              		.loc 1 284 0
 2100 07e6 15F03003 		ands	r3, r5, #48
 2101 07ea B6B2     		uxth	r6, r6
 2102 07ec F3D1     		bne	.L45
 2103 07ee 039A     		ldr	r2, [sp, #12]
 2104              		.loc 1 290 0
 2105 07f0 2370     		strb	r3, [r4]
 2106 07f2 518A     		ldrh	r1, [r2, #18]
 2107              		.loc 1 291 0
 2108 07f4 6278     		ldrb	r2, [r4, #1]	@ zero_extendqisi2
 2109 07f6 05EA0100 		and	r0, r5, r1
ARM GAS  /tmp/ccFxQktx.s 			page 38


 2110 07fa 002A     		cmp	r2, #0
 2111 07fc E9D0     		beq	.L273
 2112              	.L34:
 2113              		.loc 1 309 0
 2114 07fe C8B9     		cbnz	r0, .L41
 2115              		.loc 1 314 0
 2116 0800 3978     		ldrb	r1, [r7]	@ zero_extendqisi2
 2117 0802 E278     		ldrb	r2, [r4, #3]	@ zero_extendqisi2
 2118 0804 A378     		ldrb	r3, [r4, #2]	@ zero_extendqisi2
 2119 0806 0091     		str	r1, [sp]
 2120 0808 7249     		ldr	r1, .L280+24
 2121              		.loc 1 313 0
 2122 080a 6070     		strb	r0, [r4, #1]
 2123              		.loc 1 314 0
 2124 080c 002A     		cmp	r2, #0
 2125 080e 18BF     		it	ne
 2126 0810 5946     		movne	r1, fp
 2127 0812 0A46     		mov	r2, r1
 2128 0814 6F49     		ldr	r1, .L280+24
 2129              		.loc 1 312 0
 2130 0816 0125     		movs	r5, #1
 2131              	.LVL173:
 2132              		.loc 1 314 0
 2133 0818 002B     		cmp	r3, #0
 2134 081a 18BF     		it	ne
 2135 081c 5146     		movne	r1, r10
 2136 081e 0B46     		mov	r3, r1
 2137 0820 0420     		movs	r0, #4
 2138 0822 6D49     		ldr	r1, .L280+28
 2139              		.loc 1 312 0
 2140 0824 2570     		strb	r5, [r4]
 2141              		.loc 1 314 0
 2142 0826 FFF7FEFF 		bl	log_formatted
 2143              	.LVL174:
 2144              		.loc 1 320 0
 2145 082a 6378     		ldrb	r3, [r4, #1]	@ zero_extendqisi2
 2146 082c 002B     		cmp	r3, #0
 2147 082e D2D0     		beq	.L45
 2148 0830 039B     		ldr	r3, [sp, #12]
 2149 0832 598A     		ldrh	r1, [r3, #18]
 2150              	.L41:
 2151 0834 A278     		ldrb	r2, [r4, #2]	@ zero_extendqisi2
 2152              		.loc 1 322 0
 2153 0836 C1F30010 		ubfx	r0, r1, #4, #1
 2154              		.loc 1 320 0
 2155 083a 8242     		cmp	r2, r0
 2156              		.loc 1 322 0
 2157 083c 01F01003 		and	r3, r1, #16
 2158              		.loc 1 320 0
 2159 0840 18D0     		beq	.L46
 2160              		.loc 1 328 0
 2161 0842 3978     		ldrb	r1, [r7]	@ zero_extendqisi2
 2162 0844 E278     		ldrb	r2, [r4, #3]	@ zero_extendqisi2
 2163 0846 0091     		str	r1, [sp]
 2164 0848 6249     		ldr	r1, .L280+24
 2165              		.loc 1 326 0
 2166 084a A070     		strb	r0, [r4, #2]
ARM GAS  /tmp/ccFxQktx.s 			page 39


 2167              		.loc 1 328 0
 2168 084c 002B     		cmp	r3, #0
 2169 084e 18BF     		it	ne
 2170 0850 5146     		movne	r1, r10
 2171 0852 0B46     		mov	r3, r1
 2172 0854 5F49     		ldr	r1, .L280+24
 2173              		.loc 1 325 0
 2174 0856 0125     		movs	r5, #1
 2175              		.loc 1 328 0
 2176 0858 002A     		cmp	r2, #0
 2177 085a 18BF     		it	ne
 2178 085c 5946     		movne	r1, fp
 2179 085e 0A46     		mov	r2, r1
 2180 0860 0420     		movs	r0, #4
 2181 0862 5E49     		ldr	r1, .L280+32
 2182              		.loc 1 325 0
 2183 0864 2570     		strb	r5, [r4]
 2184              		.loc 1 328 0
 2185 0866 FFF7FEFF 		bl	log_formatted
 2186              	.LVL175:
 2187              		.loc 1 334 0
 2188 086a 6378     		ldrb	r3, [r4, #1]	@ zero_extendqisi2
 2189 086c 002B     		cmp	r3, #0
 2190 086e B2D0     		beq	.L45
 2191 0870 039B     		ldr	r3, [sp, #12]
 2192 0872 598A     		ldrh	r1, [r3, #18]
 2193              	.L46:
 2194 0874 E378     		ldrb	r3, [r4, #3]	@ zero_extendqisi2
 2195              		.loc 1 336 0
 2196 0876 C1F34010 		ubfx	r0, r1, #5, #1
 2197              		.loc 1 334 0
 2198 087a 8342     		cmp	r3, r0
 2199              		.loc 1 336 0
 2200 087c 01F02001 		and	r1, r1, #32
 2201              		.loc 1 334 0
 2202 0880 A9D0     		beq	.L45
 2203              		.loc 1 342 0
 2204 0882 3A78     		ldrb	r2, [r7]	@ zero_extendqisi2
 2205 0884 A378     		ldrb	r3, [r4, #2]	@ zero_extendqisi2
 2206 0886 0092     		str	r2, [sp]
 2207 0888 524A     		ldr	r2, .L280+24
 2208              		.loc 1 340 0
 2209 088a E070     		strb	r0, [r4, #3]
 2210              		.loc 1 342 0
 2211 088c 0029     		cmp	r1, #0
 2212 088e 18BF     		it	ne
 2213 0890 5A46     		movne	r2, fp
 2214 0892 5049     		ldr	r1, .L280+24
 2215              		.loc 1 339 0
 2216 0894 0125     		movs	r5, #1
 2217              		.loc 1 342 0
 2218 0896 002B     		cmp	r3, #0
 2219 0898 18BF     		it	ne
 2220 089a 5146     		movne	r1, r10
 2221 089c 0B46     		mov	r3, r1
 2222 089e 0420     		movs	r0, #4
 2223 08a0 4E49     		ldr	r1, .L280+32
ARM GAS  /tmp/ccFxQktx.s 			page 40


 2224              		.loc 1 339 0
 2225 08a2 2570     		strb	r5, [r4]
 2226              		.loc 1 342 0
 2227 08a4 FFF7FEFF 		bl	log_formatted
 2228              	.LVL176:
 2229 08a8 95E7     		b	.L45
 2230              	.LVL177:
 2231              	.L272:
 2232              	.LBB400:
 2233              	.LBB401:
 2234              		.loc 1 157 0
 2235 08aa 98F80130 		ldrb	r3, [r8, #1]	@ zero_extendqisi2
 2236              	.LBE401:
 2237              	.LBE400:
 2238              		.loc 1 297 0
 2239 08ae 01F0300C 		and	ip, r1, #48
 2240              	.LBB409:
 2241              	.LBB402:
 2242              		.loc 1 157 0
 2243 08b2 0133     		adds	r3, r3, #1
 2244              	.LBE402:
 2245              	.LBE409:
 2246              		.loc 1 296 0
 2247 08b4 4CEA000E 		orr	lr, ip, r0
 2248              	.LBB410:
 2249              	.LBB403:
 2250              		.loc 1 157 0
 2251 08b8 DBB2     		uxtb	r3, r3
 2252              	.LBE403:
 2253              	.LBE410:
 2254              		.loc 1 294 0
 2255 08ba 4FF0010C 		mov	ip, #1
 2256              		.loc 1 296 0
 2257 08be 0498     		ldr	r0, [sp, #16]
 2258              		.loc 1 294 0
 2259 08c0 84F800C0 		strb	ip, [r4]
 2260              	.LBB411:
 2261              	.LBB404:
 2262              		.loc 1 157 0
 2263 08c4 052B     		cmp	r3, #5
 2264              	.LBE404:
 2265              	.LBE411:
 2266              		.loc 1 295 0
 2267 08c6 84F801C0 		strb	ip, [r4, #1]
 2268              	.LBB412:
 2269              	.LBB405:
 2270              		.loc 1 160 0
 2271 08ca 98F800C0 		ldrb	ip, [r8]	@ zero_extendqisi2
 2272              	.LBE405:
 2273              	.LBE412:
 2274              		.loc 1 296 0
 2275 08ce A0F802E0 		strh	lr, [r0, #2]	@ movhi
 2276              	.LVL178:
 2277 08d2 1CBF     		itt	ne
 2278 08d4 9A00     		lslne	r2, r3, #2
 2279              	.LBB413:
 2280              	.LBB406:
ARM GAS  /tmp/ccFxQktx.s 			page 41


 2281              		.loc 1 157 0
 2282 08d6 88F80130 		strbne	r3, [r8, #1]
 2283              		.loc 1 159 0
 2284 08da D8F80430 		ldr	r3, [r8, #4]
 2285 08de 0068     		ldr	r0, [r0]
 2286              		.loc 1 158 0
 2287 08e0 08BF     		it	eq
 2288 08e2 88F80120 		strbeq	r2, [r8, #1]
 2289              		.loc 1 160 0
 2290 08e6 BCF1040F 		cmp	ip, #4
 2291              		.loc 1 159 0
 2292 08ea 9850     		str	r0, [r3, r2]	@ unaligned
 2293              		.loc 1 161 0
 2294 08ec 98BF     		it	ls
 2295 08ee 0CF1010C 		addls	ip, ip, #1
 2296 08f2 01F02003 		and	r3, r1, #32
 2297 08f6 98BF     		it	ls
 2298 08f8 88F800C0 		strbls	ip, [r8]
 2299              	.LBE406:
 2300              	.LBE413:
 2301              		.loc 1 302 0
 2302 08fc 002B     		cmp	r3, #0
 2303              		.loc 1 303 0
 2304 08fe 354B     		ldr	r3, .L280+24
 2305 0900 3878     		ldrb	r0, [r7]	@ zero_extendqisi2
 2306 0902 0090     		str	r0, [sp]
 2307 0904 08BF     		it	eq
 2308 0906 1A46     		moveq	r2, r3
 2309              		.loc 1 300 0
 2310 0908 C1F30010 		ubfx	r0, r1, #4, #1
 2311 090c 01F01003 		and	r3, r1, #16
 2312              		.loc 1 303 0
 2313 0910 3049     		ldr	r1, .L280+24
 2314              		.loc 1 300 0
 2315 0912 A070     		strb	r0, [r4, #2]
 2316              		.loc 1 302 0
 2317 0914 16BF     		itet	ne
 2318 0916 4FF0010E 		movne	lr, #1
 2319 091a 4FF0000E 		moveq	lr, #0
 2320              		.loc 1 303 0
 2321 091e 5A46     		movne	r2, fp
 2322 0920 002B     		cmp	r3, #0
 2323 0922 18BF     		it	ne
 2324 0924 5146     		movne	r1, r10
 2325 0926 0B46     		mov	r3, r1
 2326              	.LBB414:
 2327              	.LBB407:
 2328              		.loc 1 162 0
 2329 0928 4FF0010C 		mov	ip, #1
 2330              	.LBE407:
 2331              	.LBE414:
 2332              		.loc 1 302 0
 2333 092c 84F803E0 		strb	lr, [r4, #3]
 2334              		.loc 1 303 0
 2335 0930 2B49     		ldr	r1, .L280+36
 2336              	.LBB415:
 2337              	.LBB408:
ARM GAS  /tmp/ccFxQktx.s 			page 42


 2338              		.loc 1 162 0
 2339 0932 88F803C0 		strb	ip, [r8, #3]
 2340              	.LVL179:
 2341              	.LBE408:
 2342              	.LBE415:
 2343              		.loc 1 303 0
 2344 0936 0420     		movs	r0, #4
 2345 0938 FFF7FEFF 		bl	log_formatted
 2346              	.LVL180:
 2347              		.loc 1 309 0
 2348 093c 6378     		ldrb	r3, [r4, #1]	@ zero_extendqisi2
 2349 093e 002B     		cmp	r3, #0
 2350 0940 3FF449AF 		beq	.L45
 2351 0944 039B     		ldr	r3, [sp, #12]
 2352 0946 598A     		ldrh	r1, [r3, #18]
 2353 0948 05EA0100 		and	r0, r5, r1
 2354 094c 57E7     		b	.L34
 2355              	.LVL181:
 2356              	.L30:
 2357 094e 98F80130 		ldrb	r3, [r8, #1]	@ zero_extendqisi2
 2358 0952 FFF7FDBB 		b	.L141
 2359              	.L24:
 2360              	.LBE416:
 2361              	.LBE418:
 2362              		.loc 1 255 0
 2363 0956 2349     		ldr	r1, .L280+40
 2364 0958 0420     		movs	r0, #4
 2365 095a FFF7FEFF 		bl	log_msg
 2366              	.LVL182:
 2367 095e 29E7     		b	.L25
 2368              	.LVL183:
 2369              	.L23:
 2370              		.loc 1 258 0
 2371 0960 164B     		ldr	r3, .L280
 2372              		.loc 1 257 0
 2373 0962 174A     		ldr	r2, .L280+4
 2374              		.loc 1 258 0
 2375 0964 5B7C     		ldrb	r3, [r3, #17]	@ zero_extendqisi2
 2376              		.loc 1 257 0
 2377 0966 527C     		ldrb	r2, [r2, #17]	@ zero_extendqisi2
 2378              		.loc 1 258 0
 2379 0968 0399     		ldr	r1, [sp, #12]
 2380 096a DBB2     		uxtb	r3, r3
 2381              		.loc 1 257 0
 2382 096c 9A42     		cmp	r2, r3
 2383              		.loc 1 258 0
 2384 096e 4B74     		strb	r3, [r1, #17]
 2385              		.loc 1 257 0
 2386 0970 14D0     		beq	.L26
 2387              		.loc 1 260 0
 2388 0972 1449     		ldr	r1, .L280+8
 2389 0974 0491     		str	r1, [sp, #16]
 2390              	.LVL184:
 2391              		.loc 1 261 0
 2392 0976 9BB2     		uxth	r3, r3
 2393              		.loc 1 260 0
 2394 0978 0B22     		movs	r2, #11
ARM GAS  /tmp/ccFxQktx.s 			page 43


 2395              		.loc 1 261 0
 2396 097a 4B80     		strh	r3, [r1, #2]	@ movhi
 2397              		.loc 1 260 0
 2398 097c 0A70     		strb	r2, [r1]
 2399              		.loc 1 262 0
 2400 097e 43B1     		cbz	r3, .L27
 2401              		.loc 1 263 0
 2402 0980 1949     		ldr	r1, .L280+44
 2403 0982 0420     		movs	r0, #4
 2404 0984 FFF7FEFF 		bl	log_msg
 2405              	.LVL185:
 2406 0988 14E7     		b	.L25
 2407              	.LVL186:
 2408              	.L162:
 2409              	.LBE422:
 2410              	.LBE551:
 2411              	.LBB552:
 2412              	.LBB546:
 2413              	.LBB543:
 2414              	.LBB530:
 2415              	.LBB462:
 2416              		.loc 1 195 0
 2417 098a 0022     		movs	r2, #0
 2418 098c 23E5     		b	.L60
 2419              	.LVL187:
 2420              	.L179:
 2421              	.LBE462:
 2422              	.LBE530:
 2423              	.LBB531:
 2424              	.LBB455:
 2425              	.LBB451:
 2426 098e 0022     		movs	r2, #0
 2427 0990 4BE4     		b	.L259
 2428              	.LVL188:
 2429              	.L27:
 2430              	.LBE451:
 2431              	.LBE455:
 2432              	.LBE531:
 2433              	.LBE543:
 2434              	.LBE546:
 2435              	.LBE552:
 2436              	.LBB553:
 2437              	.LBB423:
 2438              		.loc 1 265 0
 2439 0992 1649     		ldr	r1, .L280+48
 2440 0994 0420     		movs	r0, #4
 2441 0996 FFF7FEFF 		bl	log_msg
 2442              	.LVL189:
 2443 099a 0BE7     		b	.L25
 2444              	.LVL190:
 2445              	.L26:
 2446              		.loc 1 267 0
 2447 099c 074B     		ldr	r3, .L280
 2448 099e 084A     		ldr	r2, .L280+4
 2449 09a0 5B8A     		ldrh	r3, [r3, #18]
 2450 09a2 528A     		ldrh	r2, [r2, #18]
 2451 09a4 0399     		ldr	r1, [sp, #12]
ARM GAS  /tmp/ccFxQktx.s 			page 44


 2452 09a6 9BB2     		uxth	r3, r3
 2453 09a8 9A42     		cmp	r2, r3
 2454 09aa 4B82     		strh	r3, [r1, #18]	@ movhi
 2455 09ac 3FF4F3AB 		beq	.L28
 2456              		.loc 1 269 0
 2457 09b0 0449     		ldr	r1, .L280+8
 2458 09b2 0491     		str	r1, [sp, #16]
 2459              	.LVL191:
 2460 09b4 0C22     		movs	r2, #12
 2461              		.loc 1 270 0
 2462 09b6 4B80     		strh	r3, [r1, #2]	@ movhi
 2463              		.loc 1 269 0
 2464 09b8 0A70     		strb	r2, [r1]
 2465 09ba 00E7     		b	.L29
 2466              	.L281:
 2467              		.align	2
 2468              	.L280:
 2469 09bc 00000000 		.word	g_DR16_RC_Value
 2470 09c0 00000000 		.word	.LANCHOR3
 2471 09c4 00000000 		.word	.LANCHOR4
 2472 09c8 34000000 		.word	.LC5
 2473 09cc 00000000 		.word	.LANCHOR6
 2474 09d0 00000000 		.word	.LANCHOR5
 2475 09d4 04000000 		.word	.LC1
 2476 09d8 7C000000 		.word	.LC10
 2477 09dc 8C000000 		.word	.LC11
 2478 09e0 6C000000 		.word	.LC9
 2479 09e4 40000000 		.word	.LC6
 2480 09e8 50000000 		.word	.LC7
 2481 09ec 5C000000 		.word	.LC8
 2482 09f0 00000000 		.word	.LC0
 2483 09f4 08000000 		.word	.LC2
 2484              	.LBE423:
 2485              	.LBE553:
 2486              	.LBE557:
 2487              		.cfi_endproc
 2488              	.LFE336:
 2489              		.size	key_thd, .-key_thd
 2490              		.section	.text.KeyboardManager_ch2switch,"ax",%progbits
 2491              		.align	1
 2492              		.p2align 2,,3
 2493              		.global	KeyboardManager_ch2switch
 2494              		.syntax unified
 2495              		.thumb
 2496              		.thumb_func
 2497              		.fpu fpv4-sp-d16
 2498              		.type	KeyboardManager_ch2switch, %function
 2499              	KeyboardManager_ch2switch:
 2500              	.LFB327:
 2501              		.loc 1 97 0
 2502              		.cfi_startproc
 2503              		@ args = 0, pretend = 0, frame = 0
 2504              		@ frame_needed = 0, uses_anonymous_args = 0
 2505              		@ link register save eliminated.
 2506              	.LVL192:
 2507              		.loc 1 101 0
 2508 0000 40F22C53 		movw	r3, #1324
ARM GAS  /tmp/ccFxQktx.s 			page 45


 2509 0004 9842     		cmp	r0, r3
 2510 0006 05D8     		bhi	.L284
 2511              		.loc 1 101 0 is_stmt 0 discriminator 1
 2512 0008 B0F5357F 		cmp	r0, #724
 2513 000c 34BF     		ite	cc
 2514 000e 0846     		movcc	r0, r1
 2515              	.LVL193:
 2516 0010 0320     		movcs	r0, #3
 2517 0012 7047     		bx	lr
 2518              	.LVL194:
 2519              	.L284:
 2520              		.loc 1 101 0
 2521 0014 0120     		movs	r0, #1
 2522              	.LVL195:
 2523              		.loc 1 103 0 is_stmt 1
 2524 0016 7047     		bx	lr
 2525              		.cfi_endproc
 2526              	.LFE327:
 2527              		.size	KeyboardManager_ch2switch, .-KeyboardManager_ch2switch
 2528              		.section	.text.KeyboardManager_init,"ax",%progbits
 2529              		.align	1
 2530              		.p2align 2,,3
 2531              		.global	KeyboardManager_init
 2532              		.syntax unified
 2533              		.thumb
 2534              		.thumb_func
 2535              		.fpu fpv4-sp-d16
 2536              		.type	KeyboardManager_init, %function
 2537              	KeyboardManager_init:
 2538              	.LFB337:
 2539              		.loc 1 552 0
 2540              		.cfi_startproc
 2541              		@ args = 0, pretend = 0, frame = 0
 2542              		@ frame_needed = 0, uses_anonymous_args = 0
 2543              	.LVL196:
 2544 0000 10B5     		push	{r4, lr}
 2545              		.cfi_def_cfa_offset 8
 2546              		.cfi_offset 4, -8
 2547              		.cfi_offset 14, -4
 2548 0002 82B0     		sub	sp, sp, #8
 2549              		.cfi_def_cfa_offset 16
 2550              		.loc 1 552 0
 2551 0004 0446     		mov	r4, r0
 2552              		.loc 1 553 0
 2553 0006 0749     		ldr	r1, .L288
 2554 0008 0520     		movs	r0, #5
 2555              	.LVL197:
 2556 000a FFF7FEFF 		bl	log_msg
 2557              	.LVL198:
 2558              		.loc 1 554 0
 2559 000e 0094     		str	r4, [sp]
 2560 0010 054B     		ldr	r3, .L288+4
 2561 0012 0648     		ldr	r0, .L288+8
 2562 0014 8322     		movs	r2, #131
 2563 0016 4FF41471 		mov	r1, #592
 2564 001a FFF7FEFF 		bl	chThdCreateStatic
 2565              	.LVL199:
ARM GAS  /tmp/ccFxQktx.s 			page 46


 2566              		.loc 1 556 0
 2567 001e 02B0     		add	sp, sp, #8
 2568              		.cfi_def_cfa_offset 8
 2569              		@ sp needed
 2570 0020 10BD     		pop	{r4, pc}
 2571              	.LVL200:
 2572              	.L289:
 2573 0022 00BF     		.align	2
 2574              	.L288:
 2575 0024 00000000 		.word	.LC12
 2576 0028 00000000 		.word	key_thd
 2577 002c 00000000 		.word	.LANCHOR7
 2578              		.cfi_endproc
 2579              	.LFE337:
 2580              		.size	KeyboardManager_init, .-KeyboardManager_init
 2581              		.global	key_thd_wa
 2582              		.global	g_KeyboardManager_keymap_state
 2583              		.section	.bss.btn_history,"aw",%nobits
 2584              		.align	2
 2585              		.set	.LANCHOR6,. + 0
 2586              		.type	btn_history, %object
 2587              		.size	btn_history, 64
 2588              	btn_history:
 2589 0000 00000000 		.space	64
 2589      00000000 
 2589      00000000 
 2589      00000000 
 2589      00000000 
 2590              		.section	.bss.current_value,"aw",%nobits
 2591              		.align	2
 2592              		.set	.LANCHOR2,. + 0
 2593              		.type	current_value, %object
 2594              		.size	current_value, 20
 2595              	current_value:
 2596 0000 00000000 		.space	20
 2596      00000000 
 2596      00000000 
 2596      00000000 
 2596      00000000 
 2597              		.section	.bss.element.10233,"aw",%nobits
 2598              		.align	2
 2599              		.set	.LANCHOR4,. + 0
 2600              		.type	element.10233, %object
 2601              		.size	element.10233, 4
 2602              	element.10233:
 2603 0000 00000000 		.space	4
 2604              		.section	.bss.g_KeyboardManager_keymap_state,"aw",%nobits
 2605              		.set	.LANCHOR0,. + 0
 2606              		.type	g_KeyboardManager_keymap_state, %object
 2607              		.size	g_KeyboardManager_keymap_state, 1
 2608              	g_KeyboardManager_keymap_state:
 2609 0000 00       		.space	1
 2610              		.section	.bss.key_thd_wa,"aw",%nobits
 2611              		.align	3
 2612              		.set	.LANCHOR7,. + 0
 2613              		.type	key_thd_wa, %object
 2614              		.size	key_thd_wa, 592
ARM GAS  /tmp/ccFxQktx.s 			page 47


 2615              	key_thd_wa:
 2616 0000 00000000 		.space	592
 2616      00000000 
 2616      00000000 
 2616      00000000 
 2616      00000000 
 2617              		.section	.bss.prev_value,"aw",%nobits
 2618              		.align	2
 2619              		.set	.LANCHOR3,. + 0
 2620              		.type	prev_value, %object
 2621              		.size	prev_value, 20
 2622              	prev_value:
 2623 0000 00000000 		.space	20
 2623      00000000 
 2623      00000000 
 2623      00000000 
 2623      00000000 
 2624              		.section	.bss.sequence_array,"aw",%nobits
 2625              		.align	2
 2626              		.type	sequence_array, %object
 2627              		.size	sequence_array, 20
 2628              	sequence_array:
 2629 0000 00000000 		.space	20
 2629      00000000 
 2629      00000000 
 2629      00000000 
 2629      00000000 
 2630              		.section	.data.buffer,"aw",%progbits
 2631              		.align	2
 2632              		.set	.LANCHOR1,. + 0
 2633              		.type	buffer, %object
 2634              		.size	buffer, 8
 2635              	buffer:
 2636 0000 00       		.byte	0
 2637 0001 00       		.byte	0
 2638 0002 00       		.byte	0
 2639 0003 00       		.byte	0
 2640 0004 00000000 		.word	sequence_array
 2641              		.section	.rodata.CSWTCH.34,"a",%progbits
 2642              		.align	2
 2643              		.set	.LANCHOR5,. + 0
 2644              		.type	CSWTCH.34, %object
 2645              		.size	CSWTCH.34, 16
 2646              	CSWTCH.34:
 2647 0000 57       		.byte	87
 2648 0001 53       		.byte	83
 2649 0002 41       		.byte	65
 2650 0003 44       		.byte	68
 2651 0004 00       		.byte	0
 2652 0005 00       		.byte	0
 2653 0006 51       		.byte	81
 2654 0007 45       		.byte	69
 2655 0008 52       		.byte	82
 2656 0009 46       		.byte	70
 2657 000a 47       		.byte	71
 2658 000b 5A       		.byte	90
 2659 000c 58       		.byte	88
ARM GAS  /tmp/ccFxQktx.s 			page 48


 2660 000d 43       		.byte	67
 2661 000e 56       		.byte	86
 2662 000f 42       		.byte	66
 2663              		.section	.rodata.KeyboardManager_init.str1.4,"aMS",%progbits,1
 2664              		.align	2
 2665              	.LC12:
 2666 0000 4B657962 		.ascii	"Keyboard initialize\000"
 2666      6F617264 
 2666      20696E69 
 2666      7469616C 
 2666      697A6500 
 2667              		.section	.rodata.key_thd.str1.4,"aMS",%progbits,1
 2668              		.align	2
 2669              	.LC0:
 2670 0000 432D00   		.ascii	"C-\000"
 2671 0003 00       		.space	1
 2672              	.LC1:
 2673 0004 00       		.ascii	"\000"
 2674 0005 000000   		.space	3
 2675              	.LC2:
 2676 0008 532D00   		.ascii	"S-\000"
 2677 000b 00       		.space	1
 2678              	.LC3:
 2679 000c 4B65796D 		.ascii	"Keymap state: %d\000"
 2679      61702073 
 2679      74617465 
 2679      3A202564 
 2679      00
 2680 001d 000000   		.space	3
 2681              	.LC4:
 2682 0020 4B65796D 		.ascii	"Keymap handlers: %d\000"
 2682      61702068 
 2682      616E646C 
 2682      6572733A 
 2682      20256400 
 2683              	.LC5:
 2684 0034 6C656674 		.ascii	"left click\000"
 2684      20636C69 
 2684      636B00
 2685 003f 00       		.space	1
 2686              	.LC6:
 2687 0040 6C656674 		.ascii	"left unclick\000"
 2687      20756E63 
 2687      6C69636B 
 2687      00
 2688 004d 000000   		.space	3
 2689              	.LC7:
 2690 0050 72696768 		.ascii	"right click\000"
 2690      7420636C 
 2690      69636B00 
 2691              	.LC8:
 2692 005c 72696768 		.ascii	"right unclick\000"
 2692      7420756E 
 2692      636C6963 
 2692      6B00
 2693 006a 0000     		.space	2
 2694              	.LC9:
ARM GAS  /tmp/ccFxQktx.s 			page 49


 2695 006c 4B657964 		.ascii	"Keydown: %s%s%c\000"
 2695      6F776E3A 
 2695      20257325 
 2695      73256300 
 2696              	.LC10:
 2697 007c 4B657975 		.ascii	"Keyup: %s%s%c\000"
 2697      703A2025 
 2697      73257325 
 2697      6300
 2698 008a 0000     		.space	2
 2699              	.LC11:
 2700 008c 4B657963 		.ascii	"Keychange: %s%s%c\000"
 2700      68616E67 
 2700      653A2025 
 2700      73257325 
 2700      6300
 2701              		.text
 2702              	.Letext0:
 2703              		.file 6 "/usr/lib/gcc/arm-none-eabi/7.3.1/include/stddef.h"
 2704              		.file 7 "/usr/arm-none-eabi/include/machine/_default_types.h"
 2705              		.file 8 "/usr/arm-none-eabi/include/sys/_stdint.h"
 2706              		.file 9 "./RM18A-ChibiOS18-Core/chibios/os/common/ports/ARMCMx/compilers/GCC/chtypes.h"
 2707              		.file 10 "./RM18A-ChibiOS18-Core/chibios/os/rt/include/chsystypes.h"
 2708              		.file 11 "./RM18A-ChibiOS18-Core/chibios/os/rt/include/chschd.h"
 2709              		.file 12 "./RM18A-ChibiOS18-Core/chibios/os/common/ext/ARM/CMSIS/Core/Include/core_cm4.h"
 2710              		.file 13 "./RM18A-ChibiOS18-Core/chibios/os/common/ext/ST/STM32F4xx/system_stm32f4xx.h"
 2711              		.file 14 "./RM18A-ChibiOS18-Core/chibios/os/common/ext/ST/STM32F4xx/stm32f427xx.h"
 2712              		.file 15 "./RM18A-ChibiOS18-Core/chibios/os/common/ports/ARMCMx/chcore.h"
 2713              		.file 16 "./RM18A-ChibiOS18-Core/chibios/os/common/ports/ARMCMx/chcore_v7m.h"
 2714              		.file 17 "./RM18A-ChibiOS18-Core/chibios/os/hal/ports/STM32/LLD/TIMv1/stm32_tim.h"
 2715              		.file 18 "./RM18A-ChibiOS18-Core/chibios/os/rt/include/chtm.h"
 2716              		.file 19 "./RM18A-ChibiOS18-Core/chibios/os/rt/include/chsem.h"
 2717              		.file 20 "./RM18A-ChibiOS18-Core/chibios/os/rt/include/chmtx.h"
 2718              		.file 21 "./RM18A-ChibiOS18-Core/chibios/os/rt/include/chsys.h"
 2719              		.file 22 "./RM18A-ChibiOS18-Core/chibios/os/rt/include/chregistry.h"
 2720              		.file 23 "./RM18A-ChibiOS18-Core/chibios/os/rt/include/chevents.h"
 2721              		.file 24 "./RM18A-ChibiOS18-Core/chibios/os/oslib/include/chmemcore.h"
 2722              		.file 25 "./RM18A-ChibiOS18-Core/chibios/os/oslib/include/chmempools.h"
 2723              		.file 26 "./RM18A-ChibiOS18-Core/chibios/os/oslib/include/chfactory.h"
 2724              		.file 27 "./RM18A-ChibiOS18-Core/chibios/os/hal/ports/STM32/LLD/DMAv2/stm32_dma.h"
 2725              		.file 28 "./RM18A-ChibiOS18-Core/chibios/os/hal/include/hal_queues.h"
 2726              		.file 29 "./RM18A-ChibiOS18-Core/chibios/os/hal/include/hal_pal.h"
 2727              		.file 30 "./RM18A-ChibiOS18-Core/chibios/os/hal/ports/STM32/LLD/GPIOv2/hal_pal_lld.h"
 2728              		.file 31 "./RM18A-ChibiOS18-Core/chibios/os/hal/include/hal_adc.h"
 2729              		.file 32 "./RM18A-ChibiOS18-Core/chibios/os/hal/ports/STM32/LLD/ADCv2/hal_adc_lld.h"
 2730              		.file 33 "./RM18A-ChibiOS18-Core/chibios/os/hal/include/hal_can.h"
 2731              		.file 34 "./RM18A-ChibiOS18-Core/chibios/os/hal/ports/STM32/LLD/CANv1/hal_can_lld.h"
 2732              		.file 35 "./RM18A-ChibiOS18-Core/chibios/os/hal/include/hal_i2c.h"
 2733              		.file 36 "./RM18A-ChibiOS18-Core/chibios/os/hal/lib/fallback/I2C/hal_i2c_lld.h"
 2734              		.file 37 "./RM18A-ChibiOS18-Core/chibios/os/hal/include/hal_icu.h"
 2735              		.file 38 "./RM18A-ChibiOS18-Core/chibios/os/hal/ports/STM32/LLD/TIMv1/hal_icu_lld.h"
 2736              		.file 39 "./RM18A-ChibiOS18-Core/chibios/os/hal/include/hal_pwm.h"
 2737              		.file 40 "./RM18A-ChibiOS18-Core/chibios/os/hal/ports/STM32/LLD/TIMv1/hal_pwm_lld.h"
 2738              		.file 41 "./RM18A-ChibiOS18-Core/chibios/os/hal/include/hal_serial.h"
 2739              		.file 42 "./RM18A-ChibiOS18-Core/chibios/os/hal/ports/STM32/LLD/USARTv1/hal_serial_lld.h"
 2740              		.file 43 "./RM18A-ChibiOS18-Core/chibios/os/hal/include/hal_spi.h"
 2741              		.file 44 "./RM18A-ChibiOS18-Core/chibios/os/hal/ports/STM32/LLD/SPIv1/hal_spi_lld.h"
ARM GAS  /tmp/ccFxQktx.s 			page 50


 2742              		.file 45 "./RM18A-ChibiOS18-Core/chibios/os/hal/include/hal_uart.h"
 2743              		.file 46 "./RM18A-ChibiOS18-Core/chibios/os/hal/ports/STM32/LLD/USARTv1/hal_uart_lld.h"
 2744              		.file 47 "./RM18A-ChibiOS18-Core/chibios/os/hal/include/hal_usb.h"
 2745              		.file 48 "./RM18A-ChibiOS18-Core/chibios/os/hal/ports/STM32/LLD/OTGv1/hal_usb_lld.h"
 2746              		.file 49 "./RM18A-ChibiOS18-Core/chibios/os/hal/ports/STM32/LLD/OTGv1/stm32_otg.h"
 2747              		.file 50 "./RM18A-ChibiOS18-Core/src/ext_hw/DR16.h"
 2748              		.file 51 "./RM18A-ChibiOS18-Core/src/utility/KeyboardManager.h"
 2749              		.file 52 "./RM18A-ChibiOS18-Core/src/shell/shell.h"
 2750              		.file 53 "./RM18A-ChibiOS18-Core/src/diagnostics/logger.h"
 2751              		.file 54 "./RM18A-ChibiOS18-Core/chibios/os/rt/include/chvt.h"
 2752              		.file 55 "./RM18A-ChibiOS18-Core/chibios/os/common/ports/ARMCMx/chcore_timer.h"