ARM GAS  /tmp/cc3GFN38.s 			page 1


   1              		.cpu cortex-m4
   2              		.eabi_attribute 27, 1
   3              		.eabi_attribute 28, 1
   4              		.eabi_attribute 20, 1
   5              		.eabi_attribute 21, 1
   6              		.eabi_attribute 23, 3
   7              		.eabi_attribute 24, 1
   8              		.eabi_attribute 25, 1
   9              		.eabi_attribute 26, 1
  10              		.eabi_attribute 30, 2
  11              		.eabi_attribute 34, 1
  12              		.eabi_attribute 18, 4
  13              		.file	"logger.c"
  14              		.text
  15              	.Ltext0:
  16              		.cfi_sections	.debug_frame
  17              		.section	.text.logger_thd,"ax",%progbits
  18              		.align	1
  19              		.p2align 2,,3
  20              		.global	logger_thd
  21              		.syntax unified
  22              		.thumb
  23              		.thumb_func
  24              		.fpu fpv4-sp-d16
  25              		.type	logger_thd, %function
  26              	logger_thd:
  27              	.LFB332:
  28              		.file 1 "./RM18A-ChibiOS18-Core/src/diagnostics/logger.c"
  29              		.loc 1 158 0
  30              		.cfi_startproc
  31              		@ args = 0, pretend = 0, frame = 8
  32              		@ frame_needed = 0, uses_anonymous_args = 0
  33              	.LVL0:
  34 0000 2DE9F04F 		push	{r4, r5, r6, r7, r8, r9, r10, fp, lr}
  35              		.cfi_def_cfa_offset 36
  36              		.cfi_offset 4, -36
  37              		.cfi_offset 5, -32
  38              		.cfi_offset 6, -28
  39              		.cfi_offset 7, -24
  40              		.cfi_offset 8, -20
  41              		.cfi_offset 9, -16
  42              		.cfi_offset 10, -12
  43              		.cfi_offset 11, -8
  44              		.cfi_offset 14, -4
  45 0004 83B0     		sub	sp, sp, #12
  46              		.cfi_def_cfa_offset 48
  47              		.loc 1 161 0
  48 0006 FFF7FEFF 		bl	Buzzer_initialize
  49              	.LVL1:
  50              	.LBB19:
  51              	.LBB20:
  52              		.file 2 "./RM18A-ChibiOS18-Core/chibios/os/rt/include/chthreads.h"
  53              		.loc 2 347 0
  54 000a 734B     		ldr	r3, .L40
  55 000c 9B69     		ldr	r3, [r3, #24]
  56              	.LBE20:
  57              	.LBE19:
ARM GAS  /tmp/cc3GFN38.s 			page 2


  58              		.loc 1 163 0
  59 000e 93F82130 		ldrb	r3, [r3, #33]	@ zero_extendqisi2
  60 0012 13F00403 		ands	r3, r3, #4
  61 0016 40F0C680 		bne	.L1
  62              	.LBB22:
  63              		.loc 1 172 0
  64 001a DFF8F4B1 		ldr	fp, .L40+56
  65              		.loc 1 188 0
  66 001e DFF8F481 		ldr	r8, .L40+60
  67              	.LBE22:
  68              		.loc 1 162 0
  69 0022 0193     		str	r3, [sp, #4]
  70              	.LBB29:
  71              		.loc 1 172 0
  72 0024 4FF0340A 		mov	r10, #52
  73              	.LVL2:
  74              	.L2:
  75              		.loc 1 165 0
  76 0028 6C4B     		ldr	r3, .L40+4
  77 002a 1B88     		ldrh	r3, [r3]
  78 002c B3F5FA6F 		cmp	r3, #2000
  79 0030 00F08F80 		beq	.L34
  80              		.loc 1 167 0
  81 0034 002B     		cmp	r3, #0
  82 0036 00F09380 		beq	.L5
  83              	.L37:
  84              		.loc 1 168 0
  85 003a 684A     		ldr	r2, .L40+4
  86 003c 013B     		subs	r3, r3, #1
  87 003e 1380     		strh	r3, [r2]	@ movhi
  88              	.L6:
  89              		.loc 1 172 0
  90 0040 6749     		ldr	r1, .L40+8
  91 0042 0E78     		ldrb	r6, [r1]	@ zero_extendqisi2
  92              		.loc 1 174 0
  93 0044 8A78     		ldrb	r2, [r1, #2]	@ zero_extendqisi2
  94              		.loc 1 172 0
  95 0046 F3B2     		uxtb	r3, r6
  96 0048 ABFB0306 		umull	r0, r6, fp, r3
  97 004c 3609     		lsrs	r6, r6, #4
  98 004e 0AFB1636 		mls	r6, r10, r6, r3
  99 0052 F6B2     		uxtb	r6, r6
 100              	.LVL3:
 101              		.loc 1 174 0
 102 0054 002A     		cmp	r2, #0
 103 0056 00F0A980 		beq	.L7
 104              	.LVL4:
 105              		.loc 1 177 0
 106 005a 0023     		movs	r3, #0
 107 005c 8B70     		strb	r3, [r1, #2]
 108              		.loc 1 176 0
 109 005e 3446     		mov	r4, r6
 110              	.LVL5:
 111              	.L8:
 112              	.LBB23:
 113              	.LBB24:
 114              		.loc 1 64 0
ARM GAS  /tmp/cc3GFN38.s 			page 3


 115 0060 06F13303 		add	r3, r6, #51
 116 0064 DAB2     		uxtb	r2, r3
 117 0066 ABFB0213 		umull	r1, r3, fp, r2
 118              	.LBE24:
 119              	.LBE23:
 120              		.loc 1 184 0
 121 006a 5E49     		ldr	r1, .L40+12
 122              	.LBB26:
 123              	.LBB25:
 124              		.loc 1 64 0
 125 006c 1B09     		lsrs	r3, r3, #4
 126 006e 0AFB1323 		mls	r3, r10, r3, r2
 127              	.LBE25:
 128              	.LBE26:
 129              		.loc 1 184 0
 130 0072 0978     		ldrb	r1, [r1]	@ zero_extendqisi2
 131              		.loc 1 183 0
 132 0074 5A4A     		ldr	r2, .L40+8
 133 0076 5370     		strb	r3, [r2, #1]
 134              		.loc 1 184 0
 135 0078 0029     		cmp	r1, #0
 136 007a 40F0A480 		bne	.L35
 137              	.LVL6:
 138              	.L10:
 139              	.LBB27:
 140              	.LBB28:
 141              		.loc 1 64 0
 142 007e 3534     		adds	r4, r4, #53
 143              	.LVL7:
 144 0080 E3B2     		uxtb	r3, r4
 145 0082 ABFB0324 		umull	r2, r4, fp, r3
 146 0086 2409     		lsrs	r4, r4, #4
 147 0088 0AFB1434 		mls	r4, r10, r4, r3
 148 008c E4B2     		uxtb	r4, r4
 149              	.LBE28:
 150              	.LBE27:
 151              		.loc 1 186 0
 152 008e A642     		cmp	r6, r4
 153              		.loc 1 188 0
 154 0090 554D     		ldr	r5, .L40+16
 155              		.loc 1 190 0
 156 0092 564F     		ldr	r7, .L40+20
 157              		.loc 1 186 0
 158 0094 6AD0     		beq	.L36
 159              		.loc 1 188 0
 160 0096 18F80410 		ldrb	r1, [r8, r4]	@ zero_extendqisi2
 161 009a 554B     		ldr	r3, .L40+24
 162 009c 01EB8109 		add	r9, r1, r1, lsl #2
 163 00a0 01EB4901 		add	r1, r1, r9, lsl #1
 164 00a4 03EB0109 		add	r9, r3, r1
 165 00a8 4846     		mov	r0, r9
 166 00aa FFF7FEFF 		bl	strlen
 167              	.LVL8:
 168 00ae 2B68     		ldr	r3, [r5]
 169 00b0 0246     		mov	r2, r0
 170 00b2 4946     		mov	r1, r9
 171 00b4 2846     		mov	r0, r5
ARM GAS  /tmp/cc3GFN38.s 			page 4


 172 00b6 D3F81C90 		ldr	r9, [r3, #28]
 173 00ba 0023     		movs	r3, #0
 174 00bc C847     		blx	r9
 175              	.LVL9:
 176              		.loc 1 190 0
 177 00be 57F82490 		ldr	r9, [r7, r4, lsl #2]
 178 00c2 4846     		mov	r0, r9
 179 00c4 FFF7FEFF 		bl	strlen
 180              	.LVL10:
 181 00c8 2B68     		ldr	r3, [r5]
 182 00ca 0246     		mov	r2, r0
 183 00cc 4946     		mov	r1, r9
 184 00ce 2846     		mov	r0, r5
 185 00d0 D3F81C90 		ldr	r9, [r3, #28]
 186 00d4 0023     		movs	r3, #0
 187 00d6 C847     		blx	r9
 188              	.LVL11:
 189              		.loc 1 192 0
 190 00d8 2B68     		ldr	r3, [r5]
 191 00da 4649     		ldr	r1, .L40+28
 192 00dc D3F81C90 		ldr	r9, [r3, #28]
 193 00e0 0222     		movs	r2, #2
 194 00e2 0023     		movs	r3, #0
 195 00e4 2846     		mov	r0, r5
 196 00e6 C847     		blx	r9
 197              	.LVL12:
 198              		.loc 1 195 0
 199 00e8 434A     		ldr	r2, .L40+32
 200 00ea 18F80410 		ldrb	r1, [r8, r4]	@ zero_extendqisi2
 201 00ee 1278     		ldrb	r2, [r2]	@ zero_extendqisi2
 202              		.loc 1 197 0
 203 00f0 424B     		ldr	r3, .L40+36
 204              		.loc 1 195 0
 205 00f2 9142     		cmp	r1, r2
 206 00f4 C3D8     		bhi	.L10
 207              		.loc 1 197 0
 208 00f6 57F82400 		ldr	r0, [r7, r4, lsl #2]
 209              		.loc 1 202 0
 210 00fa 414D     		ldr	r5, .L40+40
 211              		.loc 1 203 0
 212 00fc DFF818C1 		ldr	ip, .L40+64
 213              		.loc 1 204 0
 214 0100 DFF81891 		ldr	r9, .L40+68
 215              		.loc 1 197 0
 216 0104 C31A     		subs	r3, r0, r3
 217 0106 332B     		cmp	r3, #51
 218              		.loc 1 204 0
 219 0108 4FF01402 		mov	r2, #20
 220 010c 0146     		mov	r1, r0
 221              		.loc 1 197 0
 222 010e 2ADC     		bgt	.L12
 223              		.loc 1 202 0
 224 0110 2B78     		ldrb	r3, [r5]	@ zero_extendqisi2
 225 0112 0133     		adds	r3, r3, #1
 226 0114 DBB2     		uxtb	r3, r3
 227 0116 2B70     		strb	r3, [r5]
 228              		.loc 1 203 0
ARM GAS  /tmp/cc3GFN38.s 			page 5


 229 0118 2B78     		ldrb	r3, [r5]	@ zero_extendqisi2
 230 011a DBB2     		uxtb	r3, r3
 231 011c ACFB030C 		umull	r0, ip, ip, r3
 232 0120 4FEA1C1C 		lsr	ip, ip, #4
 233 0124 0CEB8C0C 		add	ip, ip, ip, lsl #2
 234 0128 A3EB8C0C 		sub	ip, r3, ip, lsl #2
 235 012c 5FFA8CFC 		uxtb	ip, ip
 236 0130 85F800C0 		strb	ip, [r5]
 237              		.loc 1 204 0
 238 0134 2878     		ldrb	r0, [r5]	@ zero_extendqisi2
 239 0136 00EB8000 		add	r0, r0, r0, lsl #2
 240 013a 09EB8000 		add	r0, r9, r0, lsl #2
 241 013e FFF7FEFF 		bl	strncpy
 242              	.LVL13:
 243              		.loc 1 205 0
 244 0142 2878     		ldrb	r0, [r5]	@ zero_extendqisi2
 245 0144 00EB8000 		add	r0, r0, r0, lsl #2
 246 0148 09EB8000 		add	r0, r9, r0, lsl #2
 247 014c FFF7FEFF 		bl	oled_log_msg
 248              	.LVL14:
 249 0150 95E7     		b	.L10
 250              	.LVL15:
 251              	.L34:
 252              		.loc 1 166 0
 253 0152 FFF7FEFF 		bl	Buzzer_start
 254              	.LVL16:
 255 0156 214B     		ldr	r3, .L40+4
 256 0158 1B88     		ldrh	r3, [r3]
 257              		.loc 1 167 0
 258 015a 002B     		cmp	r3, #0
 259 015c 7FF46DAF 		bne	.L37
 260              	.L5:
 261              		.loc 1 170 0
 262 0160 FFF7FEFF 		bl	Buzzer_stop
 263              	.LVL17:
 264 0164 6CE7     		b	.L6
 265              	.LVL18:
 266              	.L12:
 267              		.loc 1 210 0
 268 0166 FFF7FEFF 		bl	oled_log_msg
 269              	.LVL19:
 270 016a 88E7     		b	.L10
 271              	.L36:
 272              		.loc 1 215 0
 273 016c 254B     		ldr	r3, .L40+44
 274 016e 1B78     		ldrb	r3, [r3]	@ zero_extendqisi2
 275 0170 63B1     		cbz	r3, .L14
 276              	.LVL20:
 277              		.loc 1 217 0
 278 0172 019B     		ldr	r3, [sp, #4]
 279 0174 B3F5FA6F 		cmp	r3, #2000
 280 0178 29D1     		bne	.L38
 281              	.LVL21:
 282              		.loc 1 220 0
 283 017a 1B48     		ldr	r0, .L40+16
 284 017c 2249     		ldr	r1, .L40+48
 285 017e 0368     		ldr	r3, [r0]
ARM GAS  /tmp/cc3GFN38.s 			page 6


 286 0180 3022     		movs	r2, #48
 287 0182 DC69     		ldr	r4, [r3, #28]
 288 0184 0023     		movs	r3, #0
 289 0186 A047     		blx	r4
 290              	.LVL22:
 291              		.loc 1 219 0
 292 0188 0023     		movs	r3, #0
 293 018a 0193     		str	r3, [sp, #4]
 294              	.LVL23:
 295              	.L14:
 296              		.loc 1 223 0
 297 018c 154B     		ldr	r3, .L40+12
 298 018e 1B78     		ldrb	r3, [r3]	@ zero_extendqisi2
 299 0190 ABB9     		cbnz	r3, .L39
 300              	.L16:
 301              		.loc 1 225 0
 302 0192 0A20     		movs	r0, #10
 303 0194 FFF7FEFF 		bl	chThdSleep
 304              	.LVL24:
 305              	.LBE29:
 306              	.LBB30:
 307              	.LBB21:
 308              		.loc 2 347 0
 309 0198 0F4B     		ldr	r3, .L40
 310 019a 9B69     		ldr	r3, [r3, #24]
 311              	.LBE21:
 312              	.LBE30:
 313              		.loc 1 163 0
 314 019c 93F82130 		ldrb	r3, [r3, #33]	@ zero_extendqisi2
 315 01a0 5B07     		lsls	r3, r3, #29
 316 01a2 7FF541AF 		bpl	.L2
 317              	.LVL25:
 318              	.L1:
 319              		.loc 1 227 0
 320 01a6 03B0     		add	sp, sp, #12
 321              		.cfi_remember_state
 322              		.cfi_def_cfa_offset 36
 323              		@ sp needed
 324 01a8 BDE8F08F 		pop	{r4, r5, r6, r7, r8, r9, r10, fp, pc}
 325              	.LVL26:
 326              	.L7:
 327              		.cfi_restore_state
 328              	.LBB31:
 329              		.loc 1 181 0
 330 01ac 0C4B     		ldr	r3, .L40+8
 331 01ae 5B78     		ldrb	r3, [r3, #1]	@ zero_extendqisi2
 332 01b0 ABFB0324 		umull	r2, r4, fp, r3
 333 01b4 2409     		lsrs	r4, r4, #4
 334 01b6 0AFB1434 		mls	r4, r10, r4, r3
 335 01ba E4B2     		uxtb	r4, r4
 336              	.LVL27:
 337 01bc 50E7     		b	.L8
 338              	.LVL28:
 339              	.L39:
 340              		.loc 1 224 0
 341 01be 1348     		ldr	r0, .L40+52
 342 01c0 FFF7FEFF 		bl	chMtxUnlock
ARM GAS  /tmp/cc3GFN38.s 			page 7


 343              	.LVL29:
 344 01c4 E5E7     		b	.L16
 345              	.LVL30:
 346              	.L35:
 347              		.loc 1 185 0
 348 01c6 1148     		ldr	r0, .L40+52
 349 01c8 FFF7FEFF 		bl	chMtxLock
 350              	.LVL31:
 351 01cc 57E7     		b	.L10
 352              	.LVL32:
 353              	.L38:
 354              		.loc 1 217 0
 355 01ce 0133     		adds	r3, r3, #1
 356 01d0 9BB2     		uxth	r3, r3
 357 01d2 0193     		str	r3, [sp, #4]
 358              	.LVL33:
 359 01d4 DAE7     		b	.L14
 360              	.L41:
 361 01d6 00BF     		.align	2
 362              	.L40:
 363 01d8 00000000 		.word	ch
 364 01dc 00000000 		.word	.LANCHOR0
 365 01e0 00000000 		.word	.LANCHOR1
 366 01e4 00000000 		.word	shell_initialized
 367 01e8 00000000 		.word	SDU1
 368 01ec 00000000 		.word	.LANCHOR4
 369 01f0 00000000 		.word	.LANCHOR2
 370 01f4 00000000 		.word	.LC0
 371 01f8 00000000 		.word	.LANCHOR5
 372 01fc 00000000 		.word	.LANCHOR6
 373 0200 00000000 		.word	.LANCHOR7
 374 0204 00000000 		.word	.LANCHOR9
 375 0208 00000000 		.word	.LANCHOR10
 376 020c 00000000 		.word	shell_cmd_mutex
 377 0210 4FECC44E 		.word	1321528399
 378 0214 00000000 		.word	.LANCHOR3
 379 0218 CDCCCCCC 		.word	-858993459
 380 021c 00000000 		.word	.LANCHOR8
 381              	.LBE31:
 382              		.cfi_endproc
 383              	.LFE332:
 384              		.size	logger_thd, .-logger_thd
 385              		.section	.text.log_msg,"ax",%progbits
 386              		.align	1
 387              		.p2align 2,,3
 388              		.global	log_msg
 389              		.syntax unified
 390              		.thumb
 391              		.thumb_func
 392              		.fpu fpv4-sp-d16
 393              		.type	log_msg, %function
 394              	log_msg:
 395              	.LFB328:
 396              		.loc 1 74 0
 397              		.cfi_startproc
 398              		@ args = 0, pretend = 0, frame = 0
 399              		@ frame_needed = 0, uses_anonymous_args = 0
ARM GAS  /tmp/cc3GFN38.s 			page 8


 400              		@ link register save eliminated.
 401              	.LVL34:
 402              		.loc 1 75 0
 403 0000 184B     		ldr	r3, .L54
 404 0002 1B78     		ldrb	r3, [r3]	@ zero_extendqisi2
 405 0004 4BBB     		cbnz	r3, .L50
 406              		.loc 1 79 0
 407 0006 0128     		cmp	r0, #1
 408              		.loc 1 80 0
 409 0008 174B     		ldr	r3, .L54+4
 410              		.loc 1 79 0
 411 000a 27D0     		beq	.L52
 412              		.loc 1 81 0
 413 000c 1B78     		ldrb	r3, [r3]	@ zero_extendqisi2
 414 000e 3BBB     		cbnz	r3, .L53
 415              	.L48:
 416              	.LVL35:
 417              		.loc 1 74 0
 418 0010 70B4     		push	{r4, r5, r6}
 419              		.cfi_def_cfa_offset 12
 420              		.cfi_offset 4, -12
 421              		.cfi_offset 5, -8
 422              		.cfi_offset 6, -4
 423              	.LBB35:
 424              	.LBB36:
 425              	.LBB37:
 426              		.loc 1 84 0
 427 0012 164A     		ldr	r2, .L54+8
 428              		.syntax unified
 429              	@ 84 "./RM18A-ChibiOS18-Core/src/diagnostics/logger.c" 1
 430              		1:                            
 431 0014 D2E84F4F 	  ldrexb  r4, [r2]     
 432 0018 04F10103 	  add     r3, r4, #1          
 433 001c C2E8453F 	  strexb  r5, r3, [r2] 
 434 0020 002D     	  cmp     r5, #0              
 435 0022 F7D1     	  bne     1b
 436              	@ 0 "" 2
 437              		.thumb
 438              		.syntax unified
 439              	.LBE37:
 440 0024 124B     		ldr	r3, .L54+12
 441              		.loc 1 85 0
 442 0026 5578     		ldrb	r5, [r2, #1]	@ zero_extendqisi2
 443              	.LBB38:
 444              		.loc 1 84 0
 445 0028 E4B2     		uxtb	r4, r4
 446              	.LVL36:
 447              	.LBE38:
 448 002a A3FB0463 		umull	r6, r3, r3, r4
 449 002e 1B09     		lsrs	r3, r3, #4
 450 0030 3426     		movs	r6, #52
 451 0032 06FB1343 		mls	r3, r6, r3, r4
 452 0036 DBB2     		uxtb	r3, r3
 453              	.LVL37:
 454              		.loc 1 85 0
 455 0038 9D42     		cmp	r5, r3
 456              		.loc 1 86 0
ARM GAS  /tmp/cc3GFN38.s 			page 9


 457 003a 04BF     		itt	eq
 458 003c 0124     		moveq	r4, #1
 459              	.LVL38:
 460 003e 9470     		strbeq	r4, [r2, #2]
 461              		.loc 1 87 0
 462 0040 0C4C     		ldr	r4, .L54+16
 463              		.loc 1 88 0
 464 0042 0D4A     		ldr	r2, .L54+20
 465              		.loc 1 87 0
 466 0044 44F82310 		str	r1, [r4, r3, lsl #2]
 467              		.loc 1 89 0
 468 0048 0228     		cmp	r0, #2
 469              		.loc 1 88 0
 470 004a D054     		strb	r0, [r2, r3]
 471              		.loc 1 89 0
 472 004c 03D8     		bhi	.L42
 473              		.loc 1 90 0
 474 004e 0B4B     		ldr	r3, .L54+24
 475              	.LVL39:
 476 0050 4FF4FA62 		mov	r2, #2000
 477 0054 1A80     		strh	r2, [r3]	@ movhi
 478              	.L42:
 479              	.LBE36:
 480              	.LBE35:
 481              		.loc 1 91 0
 482 0056 70BC     		pop	{r4, r5, r6}
 483              		.cfi_restore 6
 484              		.cfi_restore 5
 485              		.cfi_restore 4
 486              		.cfi_def_cfa_offset 0
 487 0058 7047     		bx	lr
 488              	.LVL40:
 489              	.L50:
 490 005a 7047     		bx	lr
 491              	.L52:
 492              		.loc 1 80 0
 493 005c 1870     		strb	r0, [r3]
 494 005e D7E7     		b	.L48
 495              	.L53:
 496 0060 7047     		bx	lr
 497              	.L55:
 498 0062 00BF     		.align	2
 499              	.L54:
 500 0064 00000000 		.word	.LANCHOR11
 501 0068 00000000 		.word	.LANCHOR9
 502 006c 00000000 		.word	.LANCHOR1
 503 0070 4FECC44E 		.word	1321528399
 504 0074 00000000 		.word	.LANCHOR4
 505 0078 00000000 		.word	.LANCHOR3
 506 007c 00000000 		.word	.LANCHOR0
 507              		.cfi_endproc
 508              	.LFE328:
 509              		.size	log_msg, .-log_msg
 510              		.section	.text.log_formatted,"ax",%progbits
 511              		.align	1
 512              		.p2align 2,,3
 513              		.global	log_formatted
ARM GAS  /tmp/cc3GFN38.s 			page 10


 514              		.syntax unified
 515              		.thumb
 516              		.thumb_func
 517              		.fpu fpv4-sp-d16
 518              		.type	log_formatted, %function
 519              	log_formatted:
 520              	.LFB330:
 521              		.loc 1 113 0
 522              		.cfi_startproc
 523              		@ args = 4, pretend = 12, frame = 8
 524              		@ frame_needed = 0, uses_anonymous_args = 1
 525              	.LVL41:
 526 0000 0EB4     		push	{r1, r2, r3}
 527              		.cfi_def_cfa_offset 12
 528              		.cfi_offset 1, -12
 529              		.cfi_offset 2, -8
 530              		.cfi_offset 3, -4
 531 0002 F0B5     		push	{r4, r5, r6, r7, lr}
 532              		.cfi_def_cfa_offset 32
 533              		.cfi_offset 4, -32
 534              		.cfi_offset 5, -28
 535              		.cfi_offset 6, -24
 536              		.cfi_offset 7, -20
 537              		.cfi_offset 14, -16
 538              		.loc 1 115 0
 539 0004 2F4D     		ldr	r5, .L67
 540 0006 2B78     		ldrb	r3, [r5]	@ zero_extendqisi2
 541              		.loc 1 113 0
 542 0008 82B0     		sub	sp, sp, #8
 543              		.cfi_def_cfa_offset 40
 544              		.loc 1 115 0
 545 000a 23B9     		cbnz	r3, .L56
 546              		.loc 1 118 0
 547 000c 0128     		cmp	r0, #1
 548              		.loc 1 119 0
 549 000e 2E4E     		ldr	r6, .L67+4
 550              		.loc 1 118 0
 551 0010 06D0     		beq	.L65
 552              		.loc 1 120 0
 553 0012 3378     		ldrb	r3, [r6]	@ zero_extendqisi2
 554 0014 2BB1     		cbz	r3, .L62
 555              	.LVL42:
 556              	.L56:
 557              		.loc 1 127 0
 558 0016 02B0     		add	sp, sp, #8
 559              		.cfi_remember_state
 560              		.cfi_def_cfa_offset 32
 561              		@ sp needed
 562 0018 BDE8F040 		pop	{r4, r5, r6, r7, lr}
 563              		.cfi_restore 14
 564              		.cfi_restore 7
 565              		.cfi_restore 6
 566              		.cfi_restore 5
 567              		.cfi_restore 4
 568              		.cfi_def_cfa_offset 12
 569 001c 03B0     		add	sp, sp, #12
 570              		.cfi_restore 3
ARM GAS  /tmp/cc3GFN38.s 			page 11


 571              		.cfi_restore 2
 572              		.cfi_restore 1
 573              		.cfi_def_cfa_offset 0
 574 001e 7047     		bx	lr
 575              	.LVL43:
 576              	.L65:
 577              		.cfi_restore_state
 578              		.loc 1 119 0
 579 0020 3070     		strb	r0, [r6]
 580              	.L62:
 581 0022 0446     		mov	r4, r0
 582              	.LBB47:
 583              		.loc 1 122 0
 584 0024 294B     		ldr	r3, .L67+8
 585              		.syntax unified
 586              	@ 122 "./RM18A-ChibiOS18-Core/src/diagnostics/logger.c" 1
 587              		1:                            
 588 0026 D3E84F2F 	  ldrexb  r2, [r3]     
 589 002a 02F10101 	  add     r1, r2, #1          
 590 002e C3E8401F 	  strexb  r0, r1, [r3] 
 591 0032 0028     	  cmp     r0, #0              
 592 0034 F7D1     	  bne     1b
 593              	@ 0 "" 2
 594              	.LVL44:
 595              		.thumb
 596              		.syntax unified
 597              	.LBE47:
 598 0036 264B     		ldr	r3, .L67+12
 599              		.loc 1 124 0
 600 0038 264F     		ldr	r7, .L67+16
 601              	.LBB48:
 602              		.loc 1 122 0
 603 003a D2B2     		uxtb	r2, r2
 604              	.LVL45:
 605              	.LBE48:
 606 003c A3FB0213 		umull	r1, r3, r3, r2
 607 0040 1B09     		lsrs	r3, r3, #4
 608 0042 3421     		movs	r1, #52
 609 0044 01FB1323 		mls	r3, r1, r3, r2
 610              		.loc 1 124 0
 611 0048 DBB2     		uxtb	r3, r3
 612 004a 03EB8303 		add	r3, r3, r3, lsl #2
 613 004e 03EB8303 		add	r3, r3, r3, lsl #2
 614              		.loc 1 123 0
 615 0052 0DF1200C 		add	ip, sp, #32
 616              		.loc 1 124 0
 617 0056 07EB4307 		add	r7, r7, r3, lsl #1
 618              	.LVL46:
 619              	.LBB49:
 620              	.LBB50:
 621              		.loc 1 99 0
 622 005a 3846     		mov	r0, r7
 623 005c 6346     		mov	r3, ip
 624 005e 079A     		ldr	r2, [sp, #28]
 625              	.LVL47:
 626              	.LBE50:
 627              	.LBE49:
ARM GAS  /tmp/cc3GFN38.s 			page 12


 628              		.loc 1 123 0
 629 0060 CDF804C0 		str	ip, [sp, #4]
 630              	.LBB52:
 631              	.LBB51:
 632              		.loc 1 99 0
 633 0064 3221     		movs	r1, #50
 634 0066 FFF7FEFF 		bl	chvsnprintf
 635              	.LVL48:
 636              	.LBE51:
 637              	.LBE52:
 638              	.LBB53:
 639              	.LBB54:
 640              		.loc 1 75 0
 641 006a 2B78     		ldrb	r3, [r5]	@ zero_extendqisi2
 642 006c 002B     		cmp	r3, #0
 643 006e D2D1     		bne	.L56
 644              		.loc 1 79 0
 645 0070 012C     		cmp	r4, #1
 646 0072 25D0     		beq	.L66
 647              		.loc 1 81 0
 648 0074 3378     		ldrb	r3, [r6]	@ zero_extendqisi2
 649 0076 002B     		cmp	r3, #0
 650 0078 CDD1     		bne	.L56
 651              	.L63:
 652              	.LVL49:
 653              	.LBB55:
 654              	.LBB56:
 655              	.LBB57:
 656              		.loc 1 84 0
 657 007a 174A     		ldr	r2, .L67+20
 658              		.syntax unified
 659              	@ 84 "./RM18A-ChibiOS18-Core/src/diagnostics/logger.c" 1
 660              		1:                            
 661 007c D2E84F1F 	  ldrexb  r1, [r2]     
 662 0080 01F10103 	  add     r3, r1, #1          
 663 0084 C2E8403F 	  strexb  r0, r3, [r2] 
 664 0088 0028     	  cmp     r0, #0              
 665 008a F7D1     	  bne     1b
 666              	@ 0 "" 2
 667              		.thumb
 668              		.syntax unified
 669              	.LBE57:
 670 008c 104B     		ldr	r3, .L67+12
 671              		.loc 1 85 0
 672 008e 5078     		ldrb	r0, [r2, #1]	@ zero_extendqisi2
 673              	.LBB58:
 674              		.loc 1 84 0
 675 0090 C9B2     		uxtb	r1, r1
 676              	.LVL50:
 677              	.LBE58:
 678 0092 A3FB0153 		umull	r5, r3, r3, r1
 679 0096 1B09     		lsrs	r3, r3, #4
 680 0098 3425     		movs	r5, #52
 681 009a 05FB1313 		mls	r3, r5, r3, r1
 682 009e DBB2     		uxtb	r3, r3
 683              	.LVL51:
 684              		.loc 1 85 0
ARM GAS  /tmp/cc3GFN38.s 			page 13


 685 00a0 9842     		cmp	r0, r3
 686              		.loc 1 86 0
 687 00a2 04BF     		itt	eq
 688 00a4 0121     		moveq	r1, #1
 689              	.LVL52:
 690 00a6 9170     		strbeq	r1, [r2, #2]
 691              		.loc 1 87 0
 692 00a8 0C49     		ldr	r1, .L67+24
 693              		.loc 1 88 0
 694 00aa 0D4A     		ldr	r2, .L67+28
 695              		.loc 1 87 0
 696 00ac 41F82370 		str	r7, [r1, r3, lsl #2]
 697              		.loc 1 89 0
 698 00b0 022C     		cmp	r4, #2
 699              		.loc 1 88 0
 700 00b2 D454     		strb	r4, [r2, r3]
 701              		.loc 1 89 0
 702 00b4 AFD8     		bhi	.L56
 703              		.loc 1 90 0
 704 00b6 0B4B     		ldr	r3, .L67+32
 705              	.LVL53:
 706 00b8 4FF4FA62 		mov	r2, #2000
 707 00bc 1A80     		strh	r2, [r3]	@ movhi
 708              	.LVL54:
 709 00be AAE7     		b	.L56
 710              	.LVL55:
 711              	.L66:
 712              	.LBE56:
 713              	.LBE55:
 714              		.loc 1 80 0
 715 00c0 3470     		strb	r4, [r6]
 716 00c2 DAE7     		b	.L63
 717              	.L68:
 718              		.align	2
 719              	.L67:
 720 00c4 00000000 		.word	.LANCHOR11
 721 00c8 00000000 		.word	.LANCHOR9
 722 00cc 00000000 		.word	.LANCHOR12
 723 00d0 4FECC44E 		.word	1321528399
 724 00d4 00000000 		.word	.LANCHOR6
 725 00d8 00000000 		.word	.LANCHOR1
 726 00dc 00000000 		.word	.LANCHOR4
 727 00e0 00000000 		.word	.LANCHOR3
 728 00e4 00000000 		.word	.LANCHOR0
 729              	.LBE54:
 730              	.LBE53:
 731              		.cfi_endproc
 732              	.LFE330:
 733              		.size	log_formatted, .-log_formatted
 734              		.section	.text.logger_dump_logs,"ax",%progbits
 735              		.align	1
 736              		.p2align 2,,3
 737              		.global	logger_dump_logs
 738              		.syntax unified
 739              		.thumb
 740              		.thumb_func
 741              		.fpu fpv4-sp-d16
ARM GAS  /tmp/cc3GFN38.s 			page 14


 742              		.type	logger_dump_logs, %function
 743              	logger_dump_logs:
 744              	.LFB331:
 745              		.loc 1 130 0
 746              		.cfi_startproc
 747              		@ args = 0, pretend = 0, frame = 0
 748              		@ frame_needed = 0, uses_anonymous_args = 0
 749              	.LVL56:
 750 0000 2DE9F84F 		push	{r3, r4, r5, r6, r7, r8, r9, r10, fp, lr}
 751              		.cfi_def_cfa_offset 40
 752              		.cfi_offset 3, -40
 753              		.cfi_offset 4, -36
 754              		.cfi_offset 5, -32
 755              		.cfi_offset 6, -28
 756              		.cfi_offset 7, -24
 757              		.cfi_offset 8, -20
 758              		.cfi_offset 9, -16
 759              		.cfi_offset 10, -12
 760              		.cfi_offset 11, -8
 761              		.cfi_offset 14, -4
 762              		.loc 1 136 0
 763 0004 284C     		ldr	r4, .L78
 764              		.loc 1 137 0
 765 0006 294B     		ldr	r3, .L78+4
 766 0008 294E     		ldr	r6, .L78+8
 767              		.loc 1 139 0
 768 000a 2A49     		ldr	r1, .L78+12
 769              	.LVL57:
 770 000c DFF8B0B0 		ldr	fp, .L78+24
 771              		.loc 1 144 0
 772 0010 DFF8B090 		ldr	r9, .L78+28
 773              		.loc 1 145 0
 774 0014 DFF8B080 		ldr	r8, .L78+32
 775              		.loc 1 136 0
 776 0018 0122     		movs	r2, #1
 777              	.LVL58:
 778 001a 2270     		strb	r2, [r4]
 779              		.loc 1 137 0
 780 001c 1C78     		ldrb	r4, [r3]	@ zero_extendqisi2
 781              		.loc 1 138 0
 782 001e 1D78     		ldrb	r5, [r3]	@ zero_extendqisi2
 783              		.loc 1 137 0
 784 0020 E2B2     		uxtb	r2, r4
 785              		.loc 1 138 0
 786 0022 EBB2     		uxtb	r3, r5
 787              		.loc 1 137 0
 788 0024 A6FB0254 		umull	r5, r4, r6, r2
 789 0028 3427     		movs	r7, #52
 790 002a 2409     		lsrs	r4, r4, #4
 791 002c 07FB1424 		mls	r4, r7, r4, r2
 792              		.loc 1 138 0
 793 0030 A6FB0325 		umull	r2, r5, r6, r3
 794 0034 2D09     		lsrs	r5, r5, #4
 795 0036 07FB1535 		mls	r5, r7, r5, r3
 796              		.loc 1 137 0
 797 003a E4B2     		uxtb	r4, r4
 798              	.LVL59:
ARM GAS  /tmp/cc3GFN38.s 			page 15


 799              		.loc 1 130 0
 800 003c 0746     		mov	r7, r0
 801              		.loc 1 138 0
 802 003e EDB2     		uxtb	r5, r5
 803              	.LVL60:
 804              		.loc 1 139 0
 805 0040 FFF7FEFF 		bl	chprintf
 806              	.LVL61:
 807 0044 0AE0     		b	.L71
 808              	.L70:
 809              	.LVL62:
 810              	.LBB59:
 811              	.LBB60:
 812              		.loc 1 64 0
 813 0046 3534     		adds	r4, r4, #53
 814              	.LVL63:
 815 0048 E3B2     		uxtb	r3, r4
 816 004a A6FB0324 		umull	r2, r4, r6, r3
 817 004e 2409     		lsrs	r4, r4, #4
 818 0050 3422     		movs	r2, #52
 819 0052 02FB1434 		mls	r4, r2, r4, r3
 820 0056 E4B2     		uxtb	r4, r4
 821              	.LBE60:
 822              	.LBE59:
 823              		.loc 1 149 0
 824 0058 A542     		cmp	r5, r4
 825 005a 1BD0     		beq	.L77
 826              	.L71:
 827              	.LVL64:
 828              		.loc 1 142 0
 829 005c 1BF80410 		ldrb	r1, [fp, r4]	@ zero_extendqisi2
 830 0060 0029     		cmp	r1, #0
 831 0062 F0D0     		beq	.L70
 832              		.loc 1 144 0
 833 0064 01EB8103 		add	r3, r1, r1, lsl #2
 834 0068 01EB4301 		add	r1, r1, r3, lsl #1
 835 006c 4944     		add	r1, r1, r9
 836 006e 3846     		mov	r0, r7
 837 0070 FFF7FEFF 		bl	chprintf
 838              	.LVL65:
 839              		.loc 1 145 0
 840 0074 58F824A0 		ldr	r10, [r8, r4, lsl #2]
 841 0078 5046     		mov	r0, r10
 842 007a FFF7FEFF 		bl	strlen
 843              	.LVL66:
 844 007e 3B68     		ldr	r3, [r7]
 845 0080 0246     		mov	r2, r0
 846 0082 5146     		mov	r1, r10
 847 0084 5B68     		ldr	r3, [r3, #4]
 848 0086 3846     		mov	r0, r7
 849 0088 9847     		blx	r3
 850              	.LVL67:
 851              		.loc 1 146 0
 852 008a 0B49     		ldr	r1, .L78+16
 853 008c 3846     		mov	r0, r7
 854 008e FFF7FEFF 		bl	chprintf
 855              	.LVL68:
ARM GAS  /tmp/cc3GFN38.s 			page 16


 856 0092 D8E7     		b	.L70
 857              	.LVL69:
 858              	.L77:
 859              		.loc 1 152 0
 860 0094 3846     		mov	r0, r7
 861 0096 0949     		ldr	r1, .L78+20
 862 0098 FFF7FEFF 		bl	chprintf
 863              	.LVL70:
 864              		.loc 1 153 0
 865 009c 024A     		ldr	r2, .L78
 866 009e 0023     		movs	r3, #0
 867 00a0 1370     		strb	r3, [r2]
 868              		.loc 1 154 0
 869 00a2 BDE8F88F 		pop	{r3, r4, r5, r6, r7, r8, r9, r10, fp, pc}
 870              	.LVL71:
 871              	.L79:
 872 00a6 00BF     		.align	2
 873              	.L78:
 874 00a8 00000000 		.word	.LANCHOR11
 875 00ac 00000000 		.word	.LANCHOR1
 876 00b0 4FECC44E 		.word	1321528399
 877 00b4 00000000 		.word	.LC1
 878 00b8 00000000 		.word	.LC0
 879 00bc 20000000 		.word	.LC2
 880 00c0 00000000 		.word	.LANCHOR3
 881 00c4 00000000 		.word	.LANCHOR2
 882 00c8 00000000 		.word	.LANCHOR4
 883              		.cfi_endproc
 884              	.LFE331:
 885              		.size	logger_dump_logs, .-logger_dump_logs
 886              		.section	.text.logger_initialize,"ax",%progbits
 887              		.align	1
 888              		.p2align 2,,3
 889              		.global	logger_initialize
 890              		.syntax unified
 891              		.thumb
 892              		.thumb_func
 893              		.fpu fpv4-sp-d16
 894              		.type	logger_initialize, %function
 895              	logger_initialize:
 896              	.LFB333:
 897              		.loc 1 233 0
 898              		.cfi_startproc
 899              		@ args = 0, pretend = 0, frame = 0
 900              		@ frame_needed = 0, uses_anonymous_args = 0
 901 0000 00B5     		push	{lr}
 902              		.cfi_def_cfa_offset 4
 903              		.cfi_offset 14, -4
 904 0002 83B0     		sub	sp, sp, #12
 905              		.cfi_def_cfa_offset 16
 906              		.loc 1 234 0
 907 0004 0023     		movs	r3, #0
 908 0006 0093     		str	r3, [sp]
 909 0008 7F22     		movs	r2, #127
 910 000a 044B     		ldr	r3, .L82
 911 000c 0448     		ldr	r0, .L82+4
 912 000e 4FF45471 		mov	r1, #848
ARM GAS  /tmp/cc3GFN38.s 			page 17


 913 0012 FFF7FEFF 		bl	chThdCreateStatic
 914              	.LVL72:
 915              		.loc 1 235 0
 916 0016 03B0     		add	sp, sp, #12
 917              		.cfi_def_cfa_offset 4
 918              		@ sp needed
 919 0018 5DF804FB 		ldr	pc, [sp], #4
 920              	.L83:
 921              		.align	2
 922              	.L82:
 923 001c 00000000 		.word	logger_thd
 924 0020 00000000 		.word	.LANCHOR13
 925              		.cfi_endproc
 926              	.LFE333:
 927              		.size	logger_initialize, .-logger_initialize
 928              		.global	logger_thd_wa
 929              		.global	buzzer_counter
 930              		.global	error_occured
 931              		.global	oled_log_level
 932              		.section	.bss.buzzer_counter,"aw",%nobits
 933              		.align	1
 934              		.set	.LANCHOR0,. + 0
 935              		.type	buzzer_counter, %object
 936              		.size	buzzer_counter, 2
 937              	buzzer_counter:
 938 0000 0000     		.space	2
 939              		.section	.bss.disable_log,"aw",%nobits
 940              		.set	.LANCHOR11,. + 0
 941              		.type	disable_log, %object
 942              		.size	disable_log, 1
 943              	disable_log:
 944 0000 00       		.space	1
 945              		.section	.bss.error_occured,"aw",%nobits
 946              		.set	.LANCHOR9,. + 0
 947              		.type	error_occured, %object
 948              		.size	error_occured, 1
 949              	error_occured:
 950 0000 00       		.space	1
 951              		.section	.bss.logger_thd_wa,"aw",%nobits
 952              		.align	3
 953              		.set	.LANCHOR13,. + 0
 954              		.type	logger_thd_wa, %object
 955              		.size	logger_thd_wa, 848
 956              	logger_thd_wa:
 957 0000 00000000 		.space	848
 957      00000000 
 957      00000000 
 957      00000000 
 957      00000000 
 958              		.section	.bss.msg_buffer_content,"aw",%nobits
 959              		.align	2
 960              		.set	.LANCHOR4,. + 0
 961              		.type	msg_buffer_content, %object
 962              		.size	msg_buffer_content, 208
 963              	msg_buffer_content:
 964 0000 00000000 		.space	208
 964      00000000 
ARM GAS  /tmp/cc3GFN38.s 			page 18


 964      00000000 
 964      00000000 
 964      00000000 
 965              		.section	.bss.msg_buffer_levels,"aw",%nobits
 966              		.align	2
 967              		.set	.LANCHOR3,. + 0
 968              		.type	msg_buffer_levels, %object
 969              		.size	msg_buffer_levels, 52
 970              	msg_buffer_levels:
 971 0000 00000000 		.space	52
 971      00000000 
 971      00000000 
 971      00000000 
 971      00000000 
 972              		.section	.bss.msg_dynamic_buffer_content,"aw",%nobits
 973              		.align	2
 974              		.set	.LANCHOR6,. + 0
 975              		.type	msg_dynamic_buffer_content, %object
 976              		.size	msg_dynamic_buffer_content, 2600
 977              	msg_dynamic_buffer_content:
 978 0000 00000000 		.space	2600
 978      00000000 
 978      00000000 
 978      00000000 
 978      00000000 
 979              		.section	.bss.oled_dynamic_buffer_content,"aw",%nobits
 980              		.align	2
 981              		.set	.LANCHOR8,. + 0
 982              		.type	oled_dynamic_buffer_content, %object
 983              		.size	oled_dynamic_buffer_content, 400
 984              	oled_dynamic_buffer_content:
 985 0000 00000000 		.space	400
 985      00000000 
 985      00000000 
 985      00000000 
 985      00000000 
 986              		.section	.data.msg_buffer,"aw",%progbits
 987              		.align	2
 988              		.set	.LANCHOR1,. + 0
 989              		.type	msg_buffer, %object
 990              		.size	msg_buffer, 3
 991              	msg_buffer:
 992 0000 00       		.byte	0
 993 0001 33       		.byte	51
 994 0002 00       		.byte	0
 995              		.section	.data.msg_dynamic_buffer,"aw",%progbits
 996              		.align	2
 997              		.set	.LANCHOR12,. + 0
 998              		.type	msg_dynamic_buffer, %object
 999              		.size	msg_dynamic_buffer, 3
 1000              	msg_dynamic_buffer:
 1001 0000 00       		.byte	0
 1002 0001 33       		.byte	51
 1003 0002 00       		.byte	0
 1004              		.section	.data.oled_dynamic_buffer,"aw",%progbits
 1005              		.align	2
 1006              		.set	.LANCHOR7,. + 0
ARM GAS  /tmp/cc3GFN38.s 			page 19


 1007              		.type	oled_dynamic_buffer, %object
 1008              		.size	oled_dynamic_buffer, 3
 1009              	oled_dynamic_buffer:
 1010 0000 00       		.byte	0
 1011 0001 13       		.byte	19
 1012 0002 00       		.byte	0
 1013              		.section	.data.oled_log_level,"aw",%progbits
 1014              		.set	.LANCHOR5,. + 0
 1015              		.type	oled_log_level, %object
 1016              		.size	oled_log_level, 1
 1017              	oled_log_level:
 1018 0000 03       		.byte	3
 1019              		.section	.rodata.error_indicator_msg.10450,"a",%progbits
 1020              		.align	2
 1021              		.set	.LANCHOR10,. + 0
 1022              		.type	error_indicator_msg.10450, %object
 1023              		.size	error_indicator_msg.10450, 49
 1024              	error_indicator_msg.10450:
 1025 0000 2A204572 		.ascii	"* Error occured! Use `dump` to dump error log.\015\012"
 1025      726F7220 
 1025      6F636375 
 1025      72656421 
 1025      20557365 
 1026 0030 00       		.ascii	"\000"
 1027              		.section	.rodata.levels,"a",%progbits
 1028              		.align	2
 1029              		.set	.LANCHOR2,. + 0
 1030              		.type	levels, %object
 1031              		.size	levels, 66
 1032              	levels:
 1033 0000 5B4E4F4E 		.ascii	"[NONE] \000"
 1033      455D2000 
 1034 0008 000000   		.space	3
 1035 000b 5B455252 		.ascii	"[ERROR] \000"
 1035      4F525D20 
 1035      00
 1036 0014 0000     		.space	2
 1037 0016 5B574152 		.ascii	"[WARNING] \000"
 1037      4E494E47 
 1037      5D2000
 1038 0021 5B494E46 		.ascii	"[INFO] \000"
 1038      4F5D2000 
 1039 0029 000000   		.space	3
 1040 002c 5B564552 		.ascii	"[VERBOSE] \000"
 1040      424F5345 
 1040      5D2000
 1041 0037 5B444542 		.ascii	"[DEBUG] \000"
 1041      55475D20 
 1041      00
 1042 0040 0000     		.space	2
 1043              		.section	.rodata.logger_dump_logs.str1.4,"aMS",%progbits,1
 1044              		.align	2
 1045              	.LC1:
 1046 0000 3D3D3D3D 		.ascii	"=====   log history   =====\015\012\000"
 1046      3D202020 
 1046      6C6F6720 
 1046      68697374 
ARM GAS  /tmp/cc3GFN38.s 			page 20


 1046      6F727920 
 1047 001e 0000     		.space	2
 1048              	.LC2:
 1049 0020 3D3D3D3D 		.ascii	"===== end log history =====\015\012\000"
 1049      3D20656E 
 1049      64206C6F 
 1049      67206869 
 1049      73746F72 
 1050              		.section	.rodata.logger_thd.str1.4,"aMS",%progbits,1
 1051              		.align	2
 1052              	.LC0:
 1053 0000 0D0A00   		.ascii	"\015\012\000"
 1054              		.text
 1055              	.Letext0:
 1056              		.file 3 "/usr/arm-none-eabi/include/machine/_default_types.h"
 1057              		.file 4 "/usr/arm-none-eabi/include/sys/_stdint.h"
 1058              		.file 5 "/usr/lib/gcc/arm-none-eabi/7.3.1/include/stddef.h"
 1059              		.file 6 "./RM18A-ChibiOS18-Core/chibios/os/common/ports/ARMCMx/compilers/GCC/chtypes.h"
 1060              		.file 7 "./RM18A-ChibiOS18-Core/chibios/os/rt/include/chsystypes.h"
 1061              		.file 8 "./RM18A-ChibiOS18-Core/chibios/os/rt/include/chschd.h"
 1062              		.file 9 "./RM18A-ChibiOS18-Core/chibios/os/rt/include/chtime.h"
 1063              		.file 10 "./RM18A-ChibiOS18-Core/chibios/os/common/ext/ARM/CMSIS/Core/Include/core_cm4.h"
 1064              		.file 11 "./RM18A-ChibiOS18-Core/chibios/os/common/ext/ST/STM32F4xx/system_stm32f4xx.h"
 1065              		.file 12 "./RM18A-ChibiOS18-Core/chibios/os/common/ext/ST/STM32F4xx/stm32f427xx.h"
 1066              		.file 13 "./RM18A-ChibiOS18-Core/chibios/os/common/ports/ARMCMx/chcore.h"
 1067              		.file 14 "./RM18A-ChibiOS18-Core/chibios/os/common/ports/ARMCMx/chcore_v7m.h"
 1068              		.file 15 "./RM18A-ChibiOS18-Core/chibios/os/hal/ports/STM32/LLD/TIMv1/stm32_tim.h"
 1069              		.file 16 "./RM18A-ChibiOS18-Core/chibios/os/rt/include/chtm.h"
 1070              		.file 17 "./RM18A-ChibiOS18-Core/chibios/os/rt/include/chsem.h"
 1071              		.file 18 "./RM18A-ChibiOS18-Core/chibios/os/rt/include/chmtx.h"
 1072              		.file 19 "./RM18A-ChibiOS18-Core/chibios/os/rt/include/chsys.h"
 1073              		.file 20 "./RM18A-ChibiOS18-Core/chibios/os/rt/include/chregistry.h"
 1074              		.file 21 "./RM18A-ChibiOS18-Core/chibios/os/rt/include/chevents.h"
 1075              		.file 22 "./RM18A-ChibiOS18-Core/chibios/os/oslib/include/chmemcore.h"
 1076              		.file 23 "./RM18A-ChibiOS18-Core/chibios/os/oslib/include/chmempools.h"
 1077              		.file 24 "./RM18A-ChibiOS18-Core/chibios/os/oslib/include/chfactory.h"
 1078              		.file 25 "./RM18A-ChibiOS18-Core/chibios/os/hal/ports/STM32/LLD/DMAv2/stm32_dma.h"
 1079              		.file 26 "./RM18A-ChibiOS18-Core/chibios/os/hal/include/hal_streams.h"
 1080              		.file 27 "./RM18A-ChibiOS18-Core/chibios/os/hal/include/hal_channels.h"
 1081              		.file 28 "./RM18A-ChibiOS18-Core/chibios/os/hal/include/hal_buffers.h"
 1082              		.file 29 "./RM18A-ChibiOS18-Core/chibios/os/hal/include/hal_queues.h"
 1083              		.file 30 "./RM18A-ChibiOS18-Core/chibios/os/hal/include/hal_pal.h"
 1084              		.file 31 "./RM18A-ChibiOS18-Core/chibios/os/hal/ports/STM32/LLD/GPIOv2/hal_pal_lld.h"
 1085              		.file 32 "./RM18A-ChibiOS18-Core/chibios/os/hal/include/hal_adc.h"
 1086              		.file 33 "./RM18A-ChibiOS18-Core/chibios/os/hal/ports/STM32/LLD/ADCv2/hal_adc_lld.h"
 1087              		.file 34 "./RM18A-ChibiOS18-Core/chibios/os/hal/include/hal_can.h"
 1088              		.file 35 "./RM18A-ChibiOS18-Core/chibios/os/hal/ports/STM32/LLD/CANv1/hal_can_lld.h"
 1089              		.file 36 "./RM18A-ChibiOS18-Core/chibios/os/hal/include/hal_icu.h"
 1090              		.file 37 "./RM18A-ChibiOS18-Core/chibios/os/hal/ports/STM32/LLD/TIMv1/hal_icu_lld.h"
 1091              		.file 38 "./RM18A-ChibiOS18-Core/chibios/os/hal/include/hal_pwm.h"
 1092              		.file 39 "./RM18A-ChibiOS18-Core/chibios/os/hal/ports/STM32/LLD/TIMv1/hal_pwm_lld.h"
 1093              		.file 40 "./RM18A-ChibiOS18-Core/chibios/os/hal/include/hal_serial.h"
 1094              		.file 41 "./RM18A-ChibiOS18-Core/chibios/os/hal/ports/STM32/LLD/USARTv1/hal_serial_lld.h"
 1095              		.file 42 "./RM18A-ChibiOS18-Core/chibios/os/hal/include/hal_spi.h"
 1096              		.file 43 "./RM18A-ChibiOS18-Core/chibios/os/hal/ports/STM32/LLD/SPIv1/hal_spi_lld.h"
 1097              		.file 44 "./RM18A-ChibiOS18-Core/chibios/os/hal/include/hal_uart.h"
 1098              		.file 45 "./RM18A-ChibiOS18-Core/chibios/os/hal/ports/STM32/LLD/USARTv1/hal_uart_lld.h"
ARM GAS  /tmp/cc3GFN38.s 			page 21


 1099              		.file 46 "./RM18A-ChibiOS18-Core/chibios/os/hal/include/hal_usb.h"
 1100              		.file 47 "./RM18A-ChibiOS18-Core/chibios/os/hal/ports/STM32/LLD/OTGv1/hal_usb_lld.h"
 1101              		.file 48 "./RM18A-ChibiOS18-Core/chibios/os/hal/ports/STM32/LLD/OTGv1/stm32_otg.h"
 1102              		.file 49 "./RM18A-ChibiOS18-Core/chibios/os/hal/include/hal_serial_usb.h"
 1103              		.file 50 "./RM18A-ChibiOS18-Core/src/shell/shell.h"
 1104              		.file 51 "./RM18A-ChibiOS18-Core/src/diagnostics/logger.h"
 1105              		.file 52 "/usr/lib/gcc/arm-none-eabi/7.3.1/include/stdarg.h"
 1106              		.file 53 "<built-in>"
 1107              		.file 54 "/usr/arm-none-eabi/include/sys/lock.h"
 1108              		.file 55 "/usr/arm-none-eabi/include/sys/_types.h"
 1109              		.file 56 "/usr/arm-none-eabi/include/sys/reent.h"
 1110              		.file 57 "./RM18A-ChibiOS18-Core/src/peripherals/usbcfg.h"
 1111              		.file 58 "/usr/arm-none-eabi/include/string.h"
 1112              		.file 59 "./RM18A-ChibiOS18-Core/src/diagnostics/oled_logger.h"
 1113              		.file 60 "./RM18A-ChibiOS18-Core/src/peripherals/buzzer.h"
 1114              		.file 61 "./RM18A-ChibiOS18-Core/chibios/os/hal/lib/streams/chprintf.h"