ARM GAS  /tmp/ccaJehw5.s 			page 1


   1              		.cpu cortex-m4
   2              		.eabi_attribute 27, 1
   3              		.eabi_attribute 28, 1
   4              		.eabi_attribute 20, 1
   5              		.eabi_attribute 21, 1
   6              		.eabi_attribute 23, 3
   7              		.eabi_attribute 24, 1
   8              		.eabi_attribute 25, 1
   9              		.eabi_attribute 26, 1
  10              		.eabi_attribute 30, 2
  11              		.eabi_attribute 34, 1
  12              		.eabi_attribute 18, 4
  13              		.file	"main.cpp"
  14              		.text
  15              	.Ltext0:
  16              		.cfi_sections	.debug_frame
  17              		.section	.text._Z8motor1RxPK10CANRxFrame,"ax",%progbits
  18              		.align	1
  19              		.p2align 2,,3
  20              		.global	_Z8motor1RxPK10CANRxFrame
  21              		.syntax unified
  22              		.thumb
  23              		.thumb_func
  24              		.fpu fpv4-sp-d16
  25              		.type	_Z8motor1RxPK10CANRxFrame, %function
  26              	_Z8motor1RxPK10CANRxFrame:
  27              	.LFB780:
  28              		.file 1 "main.cpp"
  29              		.loc 1 55 0
  30              		.cfi_startproc
  31              		@ args = 0, pretend = 0, frame = 0
  32              		@ frame_needed = 0, uses_anonymous_args = 0
  33              		@ link register save eliminated.
  34              	.LVL0:
  35 0000 F0B4     		push	{r4, r5, r6, r7}
  36              		.cfi_def_cfa_offset 16
  37              		.cfi_offset 4, -16
  38              		.cfi_offset 5, -12
  39              		.cfi_offset 6, -8
  40              		.cfi_offset 7, -4
  41              		.loc 1 57 0
  42 0002 077C     		ldrb	r7, [r0, #16]	@ zero_extendqisi2
  43              		.loc 1 58 0
  44 0004 867C     		ldrb	r6, [r0, #18]	@ zero_extendqisi2
  45              		.loc 1 59 0
  46 0006 047D     		ldrb	r4, [r0, #20]	@ zero_extendqisi2
  47              		.loc 1 57 0
  48 0008 417C     		ldrb	r1, [r0, #17]	@ zero_extendqisi2
  49              		.loc 1 58 0
  50 000a C27C     		ldrb	r2, [r0, #19]	@ zero_extendqisi2
  51              		.loc 1 59 0
  52 000c 437D     		ldrb	r3, [r0, #21]	@ zero_extendqisi2
  53              		.loc 1 57 0
  54 000e 084D     		ldr	r5, .L4
  55              		.loc 1 59 0
  56 0010 0848     		ldr	r0, .L4+4
  57              	.LVL1:
ARM GAS  /tmp/ccaJehw5.s 			page 2


  58              		.loc 1 57 0
  59 0012 41EA0721 		orr	r1, r1, r7, lsl #8
  60              		.loc 1 58 0
  61 0016 42EA0622 		orr	r2, r2, r6, lsl #8
  62              		.loc 1 59 0
  63 001a 43EA0423 		orr	r3, r3, r4, lsl #8
  64              		.loc 1 58 0
  65 001e 064C     		ldr	r4, .L4+8
  66              		.loc 1 57 0
  67 0020 09B2     		sxth	r1, r1
  68              		.loc 1 58 0
  69 0022 12B2     		sxth	r2, r2
  70              		.loc 1 59 0
  71 0024 1BB2     		sxth	r3, r3
  72              		.loc 1 57 0
  73 0026 2980     		strh	r1, [r5]	@ movhi
  74              		.loc 1 58 0
  75 0028 2280     		strh	r2, [r4]	@ movhi
  76              		.loc 1 59 0
  77 002a 0380     		strh	r3, [r0]	@ movhi
  78              		.loc 1 60 0
  79 002c F0BC     		pop	{r4, r5, r6, r7}
  80              		.cfi_restore 7
  81              		.cfi_restore 6
  82              		.cfi_restore 5
  83              		.cfi_restore 4
  84              		.cfi_def_cfa_offset 0
  85 002e 7047     		bx	lr
  86              	.L5:
  87              		.align	2
  88              	.L4:
  89 0030 00000000 		.word	.LANCHOR0
  90 0034 00000000 		.word	.LANCHOR2
  91 0038 00000000 		.word	.LANCHOR1
  92              		.cfi_endproc
  93              	.LFE780:
  94              		.size	_Z8motor1RxPK10CANRxFrame, .-_Z8motor1RxPK10CANRxFrame
  95              		.section	.text._Z12readRegistert,"ax",%progbits
  96              		.align	1
  97              		.p2align 2,,3
  98              		.global	_Z12readRegistert
  99              		.syntax unified
 100              		.thumb
 101              		.thumb_func
 102              		.fpu fpv4-sp-d16
 103              		.type	_Z12readRegistert, %function
 104              	_Z12readRegistert:
 105              	.LFB782:
 106              		.loc 1 123 0
 107              		.cfi_startproc
 108              		@ args = 0, pretend = 0, frame = 8
 109              		@ frame_needed = 0, uses_anonymous_args = 0
 110              	.LVL2:
 111 0000 30B5     		push	{r4, r5, lr}
 112              		.cfi_def_cfa_offset 12
 113              		.cfi_offset 4, -12
 114              		.cfi_offset 5, -8
ARM GAS  /tmp/ccaJehw5.s 			page 3


 115              		.cfi_offset 14, -4
 116              		.loc 1 124 0
 117 0002 0D4D     		ldr	r5, .L8
 118 0004 0D49     		ldr	r1, .L8+4
 119              		.loc 1 128 0
 120 0006 0E4C     		ldr	r4, .L8+8
 121              		.loc 1 123 0
 122 0008 83B0     		sub	sp, sp, #12
 123              		.cfi_def_cfa_offset 24
 124              		.loc 1 123 0
 125 000a ADF80600 		strh	r0, [sp, #6]	@ movhi
 126              		.loc 1 124 0
 127 000e 2846     		mov	r0, r5
 128              	.LVL3:
 129 0010 FFF7FEFF 		bl	spiStart
 130              	.LVL4:
 131              		.loc 1 126 0
 132 0014 BDF80630 		ldrh	r3, [sp, #6]
 133 0018 02AA     		add	r2, sp, #8
 134 001a 03F07F03 		and	r3, r3, #127
 135 001e 22F8023D 		strh	r3, [r2, #-2]!	@ movhi
 136              		.loc 1 134 0
 137 0022 2846     		mov	r0, r5
 138 0024 2346     		mov	r3, r4
 139              		.loc 1 128 0
 140 0026 0225     		movs	r5, #2
 141              		.loc 1 134 0
 142 0028 0121     		movs	r1, #1
 143              		.loc 1 128 0
 144 002a 2580     		strh	r5, [r4]	@ movhi
 145              		.loc 1 134 0
 146 002c FFF7FEFF 		bl	spiExchange
 147              	.LVL5:
 148              		.loc 1 136 0
 149 0030 2088     		ldrh	r0, [r4]
 150 0032 03B0     		add	sp, sp, #12
 151              		.cfi_def_cfa_offset 12
 152              		@ sp needed
 153 0034 30BD     		pop	{r4, r5, pc}
 154              	.L9:
 155 0036 00BF     		.align	2
 156              	.L8:
 157 0038 00000000 		.word	SPID4
 158 003c 00000000 		.word	.LANCHOR3
 159 0040 00000000 		.word	.LANCHOR4
 160              		.cfi_endproc
 161              	.LFE782:
 162              		.size	_Z12readRegistert, .-_Z12readRegistert
 163              		.section	.text.startup.main,"ax",%progbits
 164              		.align	1
 165              		.p2align 2,,3
 166              		.global	main
 167              		.syntax unified
 168              		.thumb
 169              		.thumb_func
 170              		.fpu fpv4-sp-d16
 171              		.type	main, %function
ARM GAS  /tmp/ccaJehw5.s 			page 4


 172              	main:
 173              	.LFB783:
 174              		.loc 1 249 0
 175              		.cfi_startproc
 176              		@ Volatile: function does not return.
 177              		@ args = 0, pretend = 0, frame = 0
 178              		@ frame_needed = 0, uses_anonymous_args = 0
 179 0000 08B5     		push	{r3, lr}
 180              		.cfi_def_cfa_offset 8
 181              		.cfi_offset 3, -8
 182              		.cfi_offset 14, -4
 183              		.loc 1 258 0
 184 0002 FFF7FEFF 		bl	halInit
 185              	.LVL6:
 186              		.loc 1 260 0
 187 0006 FFF7FEFF 		bl	chSysInit
 188              	.LVL7:
 189              		.loc 1 262 0
 190 000a FFF7FEFF 		bl	board_setup_all
 191              	.LVL8:
 192              		.loc 1 285 0
 193 000e FFF7FEFF 		bl	_Z10myi2cstartv
 194              	.LVL9:
 195              		.loc 1 301 0
 196 0012 044C     		ldr	r4, .L13
 197              	.L11:
 198              		.loc 1 301 0 is_stmt 0 discriminator 1
 199 0014 6369     		ldr	r3, [r4, #20]
 200 0016 83F48043 		eor	r3, r3, #16384
 201 001a 6361     		str	r3, [r4, #20]
 202              		.loc 1 302 0 is_stmt 1 discriminator 1
 203 001c 6420     		movs	r0, #100
 204 001e FFF7FEFF 		bl	chThdSleep
 205              	.LVL10:
 206 0022 F7E7     		b	.L11
 207              	.L14:
 208              		.align	2
 209              	.L13:
 210 0024 00140240 		.word	1073878016
 211              		.cfi_endproc
 212              	.LFE783:
 213              		.size	main, .-main
 214              		.global	DelX
 215              		.global	raw_gyro
 216              		.global	g_orientation_1
 217              		.global	g_rpm_1
 218              		.global	g_torque_1
 219              		.section	.bss.g_orientation_1,"aw",%nobits
 220              		.align	1
 221              		.set	.LANCHOR0,. + 0
 222              		.type	g_orientation_1, %object
 223              		.size	g_orientation_1, 2
 224              	g_orientation_1:
 225 0000 0000     		.space	2
 226              		.section	.bss.g_rpm_1,"aw",%nobits
 227              		.align	1
 228              		.set	.LANCHOR1,. + 0
ARM GAS  /tmp/ccaJehw5.s 			page 5


 229              		.type	g_rpm_1, %object
 230              		.size	g_rpm_1, 2
 231              	g_rpm_1:
 232 0000 0000     		.space	2
 233              		.section	.bss.g_torque_1,"aw",%nobits
 234              		.align	1
 235              		.set	.LANCHOR2,. + 0
 236              		.type	g_torque_1, %object
 237              		.size	g_torque_1, 2
 238              	g_torque_1:
 239 0000 0000     		.space	2
 240              		.section	.bss.raw_gyro,"aw",%nobits
 241              		.align	2
 242              		.type	raw_gyro, %object
 243              		.size	raw_gyro, 6
 244              	raw_gyro:
 245 0000 00000000 		.space	6
 245      0000
 246              		.section	.data.DelX,"aw",%progbits
 247              		.type	DelX, %object
 248              		.size	DelX, 1
 249              	DelX:
 250 0000 03       		.byte	3
 251              		.section	.data._ZL4temp,"aw",%progbits
 252              		.align	1
 253              		.set	.LANCHOR4,. + 0
 254              		.type	_ZL4temp, %object
 255              		.size	_ZL4temp, 2
 256              	_ZL4temp:
 257 0000 0200     		.short	2
 258              		.section	.rodata._ZL13SPI1_Config_1,"a",%progbits
 259              		.align	2
 260              		.set	.LANCHOR3,. + 0
 261              		.type	_ZL13SPI1_Config_1, %object
 262              		.size	_ZL13SPI1_Config_1, 16
 263              	_ZL13SPI1_Config_1:
 264 0000 00       		.byte	0
 265 0001 000000   		.space	3
 266 0004 00000000 		.word	0
 267 0008 2FC80000 		.word	51247
 268 000c 0000     		.short	0
 269 000e 0000     		.space	2
 270              		.text
 271              	.Letext0:
 272              		.file 2 "/usr/lib/gcc/arm-none-eabi/7.3.1/include/stddef.h"
 273              		.file 3 "/usr/arm-none-eabi/include/machine/_default_types.h"
 274              		.file 4 "/usr/arm-none-eabi/include/sys/_stdint.h"
 275              		.file 5 "./RM18A-ChibiOS18-Core/chibios/os/common/ports/ARMCMx/compilers/GCC/chtypes.h"
 276              		.file 6 "./RM18A-ChibiOS18-Core/chibios/os/rt/include/chsystypes.h"
 277              		.file 7 "./RM18A-ChibiOS18-Core/chibios/os/rt/include/chschd.h"
 278              		.file 8 "./RM18A-ChibiOS18-Core/chibios/os/rt/include/chtime.h"
 279              		.file 9 "./RM18A-ChibiOS18-Core/chibios/os/common/ext/ARM/CMSIS/Core/Include/core_cm4.h"
 280              		.file 10 "./RM18A-ChibiOS18-Core/chibios/os/common/ext/ST/STM32F4xx/system_stm32f4xx.h"
 281              		.file 11 "./RM18A-ChibiOS18-Core/chibios/os/common/ext/ST/STM32F4xx/stm32f427xx.h"
 282              		.file 12 "./RM18A-ChibiOS18-Core/chibios/os/common/ports/ARMCMx/chcore.h"
 283              		.file 13 "./RM18A-ChibiOS18-Core/chibios/os/common/ports/ARMCMx/chcore_v7m.h"
 284              		.file 14 "./RM18A-ChibiOS18-Core/chibios/os/hal/ports/STM32/LLD/TIMv1/stm32_tim.h"
ARM GAS  /tmp/ccaJehw5.s 			page 6


 285              		.file 15 "./RM18A-ChibiOS18-Core/chibios/os/rt/include/chtm.h"
 286              		.file 16 "./RM18A-ChibiOS18-Core/chibios/os/rt/include/chsem.h"
 287              		.file 17 "./RM18A-ChibiOS18-Core/chibios/os/rt/include/chmtx.h"
 288              		.file 18 "./RM18A-ChibiOS18-Core/chibios/os/rt/include/chsys.h"
 289              		.file 19 "./RM18A-ChibiOS18-Core/chibios/os/rt/include/chregistry.h"
 290              		.file 20 "./RM18A-ChibiOS18-Core/chibios/os/rt/include/chevents.h"
 291              		.file 21 "./RM18A-ChibiOS18-Core/chibios/os/oslib/include/chmemcore.h"
 292              		.file 22 "./RM18A-ChibiOS18-Core/chibios/os/oslib/include/chmempools.h"
 293              		.file 23 "./RM18A-ChibiOS18-Core/chibios/os/oslib/include/chfactory.h"
 294              		.file 24 "./RM18A-ChibiOS18-Core/chibios/os/various/cpp_wrappers/ch.hpp"
 295              		.file 25 "./RM18A-ChibiOS18-Core/chibios/os/hal/ports/STM32/LLD/DMAv2/stm32_dma.h"
 296              		.file 26 "./RM18A-ChibiOS18-Core/chibios/os/hal/include/hal_streams.h"
 297              		.file 27 "./RM18A-ChibiOS18-Core/chibios/os/hal/include/hal_buffers.h"
 298              		.file 28 "./RM18A-ChibiOS18-Core/chibios/os/hal/include/hal_queues.h"
 299              		.file 29 "./RM18A-ChibiOS18-Core/chibios/os/hal/include/hal_pal.h"
 300              		.file 30 "./RM18A-ChibiOS18-Core/chibios/os/hal/ports/STM32/LLD/GPIOv2/stm32_gpio.h"
 301              		.file 31 "./RM18A-ChibiOS18-Core/chibios/os/hal/ports/STM32/LLD/GPIOv2/hal_pal_lld.h"
 302              		.file 32 "./RM18A-ChibiOS18-Core/chibios/os/hal/include/hal_adc.h"
 303              		.file 33 "./RM18A-ChibiOS18-Core/chibios/os/hal/ports/STM32/LLD/ADCv2/hal_adc_lld.h"
 304              		.file 34 "./RM18A-ChibiOS18-Core/chibios/os/hal/include/hal_can.h"
 305              		.file 35 "./RM18A-ChibiOS18-Core/chibios/os/hal/ports/STM32/LLD/CANv1/hal_can_lld.h"
 306              		.file 36 "./RM18A-ChibiOS18-Core/chibios/os/hal/lib/fallback/I2C/hal_i2c_lld.h"
 307              		.file 37 "./RM18A-ChibiOS18-Core/chibios/os/hal/include/hal_icu.h"
 308              		.file 38 "./RM18A-ChibiOS18-Core/chibios/os/hal/ports/STM32/LLD/TIMv1/hal_icu_lld.h"
 309              		.file 39 "./RM18A-ChibiOS18-Core/chibios/os/hal/include/hal_pwm.h"
 310              		.file 40 "./RM18A-ChibiOS18-Core/chibios/os/hal/ports/STM32/LLD/TIMv1/hal_pwm_lld.h"
 311              		.file 41 "./RM18A-ChibiOS18-Core/chibios/os/hal/include/hal_serial.h"
 312              		.file 42 "./RM18A-ChibiOS18-Core/chibios/os/hal/ports/STM32/LLD/USARTv1/hal_serial_lld.h"
 313              		.file 43 "./RM18A-ChibiOS18-Core/chibios/os/hal/include/hal_spi.h"
 314              		.file 44 "./RM18A-ChibiOS18-Core/chibios/os/hal/ports/STM32/LLD/SPIv1/hal_spi_lld.h"
 315              		.file 45 "./RM18A-ChibiOS18-Core/chibios/os/hal/include/hal_uart.h"
 316              		.file 46 "./RM18A-ChibiOS18-Core/chibios/os/hal/ports/STM32/LLD/USARTv1/hal_uart_lld.h"
 317              		.file 47 "./RM18A-ChibiOS18-Core/chibios/os/hal/include/hal_usb.h"
 318              		.file 48 "./RM18A-ChibiOS18-Core/chibios/os/hal/ports/STM32/LLD/OTGv1/hal_usb_lld.h"
 319              		.file 49 "./RM18A-ChibiOS18-Core/chibios/os/hal/ports/STM32/LLD/OTGv1/stm32_otg.h"
 320              		.file 50 "./RM18A-ChibiOS18-Core/chibios/os/hal/include/hal_serial_usb.h"
 321              		.file 51 "/usr/arm-none-eabi/include/sys/lock.h"
 322              		.file 52 "/usr/arm-none-eabi/include/sys/_types.h"
 323              		.file 53 "/usr/arm-none-eabi/include/sys/reent.h"
 324              		.file 54 "/usr/arm-none-eabi/include/c++/7.3.1/cmath"
 325              		.file 55 "/usr/arm-none-eabi/include/c++/7.3.1/cstdlib"
 326              		.file 56 "/usr/arm-none-eabi/include/c++/7.3.1/arm-none-eabi/thumb/v7e-m/fpv4-sp/hard/bits/c++conf
 327              		.file 57 "/usr/arm-none-eabi/include/math.h"
 328              		.file 58 "/usr/arm-none-eabi/include/stdlib.h"
 329              		.file 59 "/usr/arm-none-eabi/include/c++/7.3.1/math.h"
 330              		.file 60 "/usr/arm-none-eabi/include/c++/7.3.1/stdlib.h"
 331              		.file 61 "./RM18A-ChibiOS18-Core/src/shell/shell.h"
 332              		.file 62 "./RM18A-ChibiOS18-Core/src/peripherals/usbcfg.h"
 333              		.file 63 "./RM18A-ChibiOS18-Core/src/ext_hw/DR16.h"
 334              		.file 64 "shellApp.hpp"
 335              		.file 65 "i2c.hpp"
 336              		.file 66 "spiconfig.h"
 337              		.file 67 "./RM18A-ChibiOS18-Core/chibios/os/hal/include/hal.h"
 338              		.file 68 "boardSetup.h"
 339              		.file 69 "./RM18A-ChibiOS18-Core/chibios/os/rt/include/chthreads.h"
 340              		.file 70 "<built-in>"