ARM GAS  /tmp/ccWVN8Qc.s 			page 1


   1              		.cpu cortex-m4
   2              		.eabi_attribute 27, 1
   3              		.eabi_attribute 28, 1
   4              		.eabi_attribute 20, 1
   5              		.eabi_attribute 21, 1
   6              		.eabi_attribute 23, 3
   7              		.eabi_attribute 24, 1
   8              		.eabi_attribute 25, 1
   9              		.eabi_attribute 26, 1
  10              		.eabi_attribute 30, 2
  11              		.eabi_attribute 34, 1
  12              		.eabi_attribute 18, 4
  13              		.file	"math_misc.c"
  14              		.text
  15              	.Ltext0:
  16              		.cfi_sections	.debug_frame
  17              		.section	.text.lpfilter_init,"ax",%progbits
  18              		.align	1
  19              		.p2align 2,,3
  20              		.global	lpfilter_init
  21              		.syntax unified
  22              		.thumb
  23              		.thumb_func
  24              		.fpu fpv4-sp-d16
  25              		.type	lpfilter_init, %function
  26              	lpfilter_init:
  27              	.LFB338:
  28              		.file 1 "./RM18A-ChibiOS18-Core/src/utility/math_misc.c"
  29              		.loc 1 6 0
  30              		.cfi_startproc
  31              		@ args = 0, pretend = 0, frame = 0
  32              		@ frame_needed = 0, uses_anonymous_args = 0
  33              	.LVL0:
  34              		.loc 1 10 0
  35 0000 C0EE200A 		vdiv.f32	s1, s0, s1
  36              	.LVL1:
  37              		.loc 1 7 0
  38 0004 0023     		movs	r3, #0
  39              		.loc 1 6 0
  40 0006 10B5     		push	{r4, lr}
  41              		.cfi_def_cfa_offset 8
  42              		.cfi_offset 4, -8
  43              		.cfi_offset 14, -4
  44              		.loc 1 7 0
  45 0008 4361     		str	r3, [r0, #20]	@ float
  46              		.loc 1 8 0
  47 000a 8361     		str	r3, [r0, #24]	@ float
  48              		.loc 1 6 0
  49 000c 0446     		mov	r4, r0
  50              		.loc 1 11 0
  51 000e 9FED160A 		vldr.32	s0, .L4
  52              	.LVL2:
  53 0012 80EE200A 		vdiv.f32	s0, s0, s1
  54 0016 FFF7FEFF 		bl	tanf
  55              	.LVL3:
  56              		.loc 1 12 0
  57 001a 9FED147A 		vldr.32	s14, .L4+4
ARM GAS  /tmp/ccWVN8Qc.s 			page 2


  58 001e 20EE077A 		vmul.f32	s14, s0, s14
  59 0022 F7EE007A 		vmov.f32	s15, #1.0e+0
  60 0026 20EE000A 		vmul.f32	s0, s0, s0
  61              	.LVL4:
  62 002a 77EE276A 		vadd.f32	s13, s14, s15
  63              		.loc 1 17 0
  64 002e 37EEC77A 		vsub.f32	s14, s15, s14
  65              		.loc 1 12 0
  66 0032 76EE806A 		vadd.f32	s13, s13, s0
  67              	.LVL5:
  68              		.loc 1 16 0
  69 0036 70EE677A 		vsub.f32	s15, s0, s15
  70              		.loc 1 13 0
  71 003a 80EE266A 		vdiv.f32	s12, s0, s13
  72              		.loc 1 17 0
  73 003e 37EE007A 		vadd.f32	s14, s14, s0
  74              		.loc 1 16 0
  75 0042 77EEA77A 		vadd.f32	s15, s15, s15
  76              		.loc 1 17 0
  77 0046 C7EE265A 		vdiv.f32	s11, s14, s13
  78              		.loc 1 16 0
  79 004a 87EEA67A 		vdiv.f32	s14, s15, s13
  80              		.loc 1 14 0
  81 004e 76EE067A 		vadd.f32	s15, s12, s12
  82              		.loc 1 17 0
  83 0052 C4ED015A 		vstr.32	s11, [r4, #4]
  84              		.loc 1 13 0
  85 0056 84ED026A 		vstr.32	s12, [r4, #8]
  86              		.loc 1 15 0
  87 005a 84ED046A 		vstr.32	s12, [r4, #16]
  88              		.loc 1 14 0
  89 005e C4ED037A 		vstr.32	s15, [r4, #12]
  90              		.loc 1 16 0
  91 0062 84ED007A 		vstr.32	s14, [r4]
  92              		.loc 1 18 0
  93 0066 10BD     		pop	{r4, pc}
  94              	.LVL6:
  95              	.L5:
  96              		.align	2
  97              	.L4:
  98 0068 DB0F4940 		.word	1078530011
  99 006c F304B53F 		.word	1068827891
 100              		.cfi_endproc
 101              	.LFE338:
 102              		.size	lpfilter_init, .-lpfilter_init
 103              		.section	.text.lpfilter_apply,"ax",%progbits
 104              		.align	1
 105              		.p2align 2,,3
 106              		.global	lpfilter_apply
 107              		.syntax unified
 108              		.thumb
 109              		.thumb_func
 110              		.fpu fpv4-sp-d16
 111              		.type	lpfilter_apply, %function
 112              	lpfilter_apply:
 113              	.LFB339:
 114              		.loc 1 21 0
ARM GAS  /tmp/ccWVN8Qc.s 			page 3


 115              		.cfi_startproc
 116              		@ args = 0, pretend = 0, frame = 0
 117              		@ frame_needed = 0, uses_anonymous_args = 0
 118              		@ link register save eliminated.
 119              	.LVL7:
 120              		.loc 1 22 0
 121 0000 90ED056A 		vldr.32	s12, [r0, #20]
 122 0004 90ED007A 		vldr.32	s14, [r0]
 123 0008 D0ED065A 		vldr.32	s11, [r0, #24]
 124 000c 90ED015A 		vldr.32	s10, [r0, #4]
 125              		.loc 1 25 0
 126 0010 DFED134A 		vldr.32	s9, .L10
 127              		.loc 1 28 0
 128 0014 D0ED033A 		vldr.32	s7, [r0, #12]
 129 0018 D0ED026A 		vldr.32	s13, [r0, #8]
 130 001c 90ED044A 		vldr.32	s8, [r0, #16]
 131              		.loc 1 30 0
 132 0020 80ED066A 		vstr.32	s12, [r0, #24]
 133              		.loc 1 22 0
 134 0024 66EE077A 		vmul.f32	s15, s12, s14
 135 0028 25EE855A 		vmul.f32	s10, s11, s10
 136 002c 70EE677A 		vsub.f32	s15, s0, s15
 137              		.loc 1 28 0
 138 0030 26EE236A 		vmul.f32	s12, s12, s7
 139              		.loc 1 22 0
 140 0034 77EEC57A 		vsub.f32	s15, s15, s10
 141              	.LVL8:
 142              		.loc 1 28 0
 143 0038 65EE845A 		vmul.f32	s11, s11, s8
 144              		.loc 1 25 0
 145 003c B0EEE77A 		vabs.f32	s14, s15
 146              		.loc 1 26 0
 147 0040 B4EEE47A 		vcmpe.f32	s14, s9
 148 0044 F1EE10FA 		vmrs	APSR_nzcv, FPSCR
 149 0048 88BF     		it	hi
 150 004a F0EE407A 		vmovhi.f32	s15, s0
 151              	.LVL9:
 152              		.loc 1 28 0
 153 004e 67EEA66A 		vmul.f32	s13, s15, s13
 154              		.loc 1 31 0
 155 0052 C0ED057A 		vstr.32	s15, [r0, #20]
 156              		.loc 1 28 0
 157 0056 76EE866A 		vadd.f32	s13, s13, s12
 158              	.LVL10:
 159              		.loc 1 35 0
 160 005a 36EEA50A 		vadd.f32	s0, s13, s11
 161              	.LVL11:
 162 005e 7047     		bx	lr
 163              	.L11:
 164              		.align	2
 165              	.L10:
 166 0060 FFFF7F7F 		.word	2139095039
 167              		.cfi_endproc
 168              	.LFE339:
 169              		.size	lpfilter_apply, .-lpfilter_apply
 170              		.section	.text.threshold_count,"ax",%progbits
 171              		.align	1
ARM GAS  /tmp/ccWVN8Qc.s 			page 4


 172              		.p2align 2,,3
 173              		.global	threshold_count
 174              		.syntax unified
 175              		.thumb
 176              		.thumb_func
 177              		.fpu fpv4-sp-d16
 178              		.type	threshold_count, %function
 179              	threshold_count:
 180              	.LFB345:
 181              		.cfi_startproc
 182              		@ args = 0, pretend = 0, frame = 0
 183              		@ frame_needed = 0, uses_anonymous_args = 0
 184              		@ link register save eliminated.
 185 0000 38B1     		cbz	r0, .L13
 186 0002 1088     		ldrh	r0, [r2]
 187 0004 4FF6FD73 		movw	r3, #65533
 188 0008 9842     		cmp	r0, r3
 189 000a 9ABF     		itte	ls
 190 000c 0130     		addls	r0, r0, #1
 191 000e 80B2     		uxthls	r0, r0
 192 0010 0020     		movhi	r0, #0
 193              	.L13:
 194 0012 8142     		cmp	r1, r0
 195 0014 03D8     		bhi	.L18
 196 0016 0023     		movs	r3, #0
 197 0018 1380     		strh	r3, [r2]	@ movhi
 198 001a 0120     		movs	r0, #1
 199 001c 7047     		bx	lr
 200              	.L18:
 201 001e 1080     		strh	r0, [r2]	@ movhi
 202 0020 0020     		movs	r0, #0
 203 0022 7047     		bx	lr
 204              		.cfi_endproc
 205              	.LFE345:
 206              		.size	threshold_count, .-threshold_count
 207              		.section	.text.state_count,"ax",%progbits
 208              		.align	1
 209              		.p2align 2,,3
 210              		.global	state_count
 211              		.syntax unified
 212              		.thumb
 213              		.thumb_func
 214              		.fpu fpv4-sp-d16
 215              		.type	state_count, %function
 216              	state_count:
 217              	.LFB341:
 218              		.loc 1 54 0
 219              		.cfi_startproc
 220              		@ args = 0, pretend = 0, frame = 0
 221              		@ frame_needed = 0, uses_anonymous_args = 0
 222              		@ link register save eliminated.
 223              	.LVL12:
 224              		.loc 1 55 0
 225 0000 38B1     		cbz	r0, .L20
 226              		.loc 1 55 0 is_stmt 0 discriminator 1
 227 0002 1088     		ldrh	r0, [r2]
 228              	.LVL13:
ARM GAS  /tmp/ccWVN8Qc.s 			page 5


 229 0004 4FF6FD73 		movw	r3, #65533
 230 0008 9842     		cmp	r0, r3
 231              		.loc 1 56 0 is_stmt 1 discriminator 1
 232 000a 9ABF     		itte	ls
 233 000c 0130     		addls	r0, r0, #1
 234 000e 80B2     		uxthls	r0, r0
 235              		.loc 1 58 0 discriminator 1
 236 0010 0020     		movhi	r0, #0
 237              	.L20:
 238              		.loc 1 60 0
 239 0012 8142     		cmp	r1, r0
 240 0014 03D8     		bhi	.L25
 241              		.loc 1 62 0
 242 0016 0023     		movs	r3, #0
 243 0018 1380     		strh	r3, [r2]	@ movhi
 244              		.loc 1 63 0
 245 001a 0120     		movs	r0, #1
 246              		.loc 1 67 0
 247 001c 7047     		bx	lr
 248              	.L25:
 249 001e 1080     		strh	r0, [r2]	@ movhi
 250              		.loc 1 66 0
 251 0020 0020     		movs	r0, #0
 252 0022 7047     		bx	lr
 253              		.cfi_endproc
 254              	.LFE341:
 255              		.size	state_count, .-state_count
 256              		.section	.text.ramp_init,"ax",%progbits
 257              		.align	1
 258              		.p2align 2,,3
 259              		.global	ramp_init
 260              		.syntax unified
 261              		.thumb
 262              		.thumb_func
 263              		.fpu fpv4-sp-d16
 264              		.type	ramp_init, %function
 265              	ramp_init:
 266              	.LFB342:
 267              		.loc 1 70 0
 268              		.cfi_startproc
 269              		@ args = 0, pretend = 0, frame = 0
 270              		@ frame_needed = 0, uses_anonymous_args = 0
 271              		@ link register save eliminated.
 272              	.LVL14:
 273              		.loc 1 72 0
 274 0000 0023     		movs	r3, #0
 275              		.loc 1 71 0
 276 0002 0180     		strh	r1, [r0]	@ movhi
 277              		.loc 1 72 0
 278 0004 4380     		strh	r3, [r0, #2]	@ movhi
 279              		.loc 1 73 0
 280 0006 7047     		bx	lr
 281              		.cfi_endproc
 282              	.LFE342:
 283              		.size	ramp_init, .-ramp_init
 284              		.section	.text.ramp_calc,"ax",%progbits
 285              		.align	1
ARM GAS  /tmp/ccWVN8Qc.s 			page 6


 286              		.p2align 2,,3
 287              		.global	ramp_calc
 288              		.syntax unified
 289              		.thumb
 290              		.thumb_func
 291              		.fpu fpv4-sp-d16
 292              		.type	ramp_calc, %function
 293              	ramp_calc:
 294              	.LFB343:
 295              		.loc 1 76 0
 296              		.cfi_startproc
 297              		@ args = 0, pretend = 0, frame = 0
 298              		@ frame_needed = 0, uses_anonymous_args = 0
 299              		@ link register save eliminated.
 300              	.LVL15:
 301              		.loc 1 77 0
 302 0000 4288     		ldrh	r2, [r0, #2]
 303 0002 0388     		ldrh	r3, [r0]
 304 0004 07EE902A 		vmov	s15, r2	@ int
 305 0008 B8EE677A 		vcvt.f32.u32	s14, s15
 306 000c 07EE903A 		vmov	s15, r3	@ int
 307 0010 F8EE677A 		vcvt.f32.u32	s15, s15
 308              		.loc 1 79 0
 309 0014 9A42     		cmp	r2, r3
 310              		.loc 1 77 0
 311 0016 87EE270A 		vdiv.f32	s0, s14, s15
 312              		.loc 1 81 0
 313 001a 3CBF     		itt	cc
 314 001c 531C     		addcc	r3, r2, #1
 315 001e 9BB2     		uxthcc	r3, r3
 316 0020 4380     		strh	r3, [r0, #2]	@ movhi
 317              		.loc 1 77 0
 318 0022 80ED010A 		vstr.32	s0, [r0, #4]
 319              		.loc 1 86 0
 320 0026 7047     		bx	lr
 321              		.cfi_endproc
 322              	.LFE343:
 323              		.size	ramp_calc, .-ramp_calc
 324              		.text
 325              	.Letext0:
 326              		.file 2 "/usr/lib/gcc/arm-none-eabi/7.3.1/include/stddef.h"
 327              		.file 3 "/usr/arm-none-eabi/include/machine/_default_types.h"
 328              		.file 4 "/usr/arm-none-eabi/include/sys/_stdint.h"
 329              		.file 5 "./RM18A-ChibiOS18-Core/chibios/os/common/ports/ARMCMx/compilers/GCC/chtypes.h"
 330              		.file 6 "./RM18A-ChibiOS18-Core/chibios/os/rt/include/chsystypes.h"
 331              		.file 7 "./RM18A-ChibiOS18-Core/chibios/os/rt/include/chschd.h"
 332              		.file 8 "./RM18A-ChibiOS18-Core/chibios/os/rt/include/chtime.h"
 333              		.file 9 "./RM18A-ChibiOS18-Core/chibios/os/common/ext/ARM/CMSIS/Core/Include/core_cm4.h"
 334              		.file 10 "./RM18A-ChibiOS18-Core/chibios/os/common/ext/ST/STM32F4xx/system_stm32f4xx.h"
 335              		.file 11 "./RM18A-ChibiOS18-Core/chibios/os/common/ext/ST/STM32F4xx/stm32f427xx.h"
 336              		.file 12 "./RM18A-ChibiOS18-Core/chibios/os/common/ports/ARMCMx/chcore.h"
 337              		.file 13 "./RM18A-ChibiOS18-Core/chibios/os/common/ports/ARMCMx/chcore_v7m.h"
 338              		.file 14 "./RM18A-ChibiOS18-Core/chibios/os/hal/ports/STM32/LLD/TIMv1/stm32_tim.h"
 339              		.file 15 "./RM18A-ChibiOS18-Core/chibios/os/rt/include/chtm.h"
 340              		.file 16 "./RM18A-ChibiOS18-Core/chibios/os/rt/include/chsem.h"
 341              		.file 17 "./RM18A-ChibiOS18-Core/chibios/os/rt/include/chmtx.h"
 342              		.file 18 "./RM18A-ChibiOS18-Core/chibios/os/rt/include/chsys.h"
ARM GAS  /tmp/ccWVN8Qc.s 			page 7


 343              		.file 19 "./RM18A-ChibiOS18-Core/chibios/os/rt/include/chregistry.h"
 344              		.file 20 "./RM18A-ChibiOS18-Core/chibios/os/rt/include/chevents.h"
 345              		.file 21 "./RM18A-ChibiOS18-Core/chibios/os/oslib/include/chmemcore.h"
 346              		.file 22 "./RM18A-ChibiOS18-Core/chibios/os/oslib/include/chmempools.h"
 347              		.file 23 "./RM18A-ChibiOS18-Core/chibios/os/oslib/include/chfactory.h"
 348              		.file 24 "./RM18A-ChibiOS18-Core/chibios/os/hal/ports/STM32/LLD/DMAv2/stm32_dma.h"
 349              		.file 25 "./RM18A-ChibiOS18-Core/chibios/os/hal/include/hal_queues.h"
 350              		.file 26 "./RM18A-ChibiOS18-Core/chibios/os/hal/include/hal_pal.h"
 351              		.file 27 "./RM18A-ChibiOS18-Core/chibios/os/hal/ports/STM32/LLD/GPIOv2/hal_pal_lld.h"
 352              		.file 28 "./RM18A-ChibiOS18-Core/chibios/os/hal/include/hal_adc.h"
 353              		.file 29 "./RM18A-ChibiOS18-Core/chibios/os/hal/ports/STM32/LLD/ADCv2/hal_adc_lld.h"
 354              		.file 30 "./RM18A-ChibiOS18-Core/chibios/os/hal/include/hal_can.h"
 355              		.file 31 "./RM18A-ChibiOS18-Core/chibios/os/hal/ports/STM32/LLD/CANv1/hal_can_lld.h"
 356              		.file 32 "./RM18A-ChibiOS18-Core/chibios/os/hal/include/hal_i2c.h"
 357              		.file 33 "./RM18A-ChibiOS18-Core/chibios/os/hal/lib/fallback/I2C/hal_i2c_lld.h"
 358              		.file 34 "./RM18A-ChibiOS18-Core/chibios/os/hal/include/hal_icu.h"
 359              		.file 35 "./RM18A-ChibiOS18-Core/chibios/os/hal/ports/STM32/LLD/TIMv1/hal_icu_lld.h"
 360              		.file 36 "./RM18A-ChibiOS18-Core/chibios/os/hal/include/hal_pwm.h"
 361              		.file 37 "./RM18A-ChibiOS18-Core/chibios/os/hal/ports/STM32/LLD/TIMv1/hal_pwm_lld.h"
 362              		.file 38 "./RM18A-ChibiOS18-Core/chibios/os/hal/include/hal_serial.h"
 363              		.file 39 "./RM18A-ChibiOS18-Core/chibios/os/hal/ports/STM32/LLD/USARTv1/hal_serial_lld.h"
 364              		.file 40 "./RM18A-ChibiOS18-Core/chibios/os/hal/include/hal_spi.h"
 365              		.file 41 "./RM18A-ChibiOS18-Core/chibios/os/hal/ports/STM32/LLD/SPIv1/hal_spi_lld.h"
 366              		.file 42 "./RM18A-ChibiOS18-Core/chibios/os/hal/include/hal_uart.h"
 367              		.file 43 "./RM18A-ChibiOS18-Core/chibios/os/hal/ports/STM32/LLD/USARTv1/hal_uart_lld.h"
 368              		.file 44 "./RM18A-ChibiOS18-Core/chibios/os/hal/include/hal_usb.h"
 369              		.file 45 "./RM18A-ChibiOS18-Core/chibios/os/hal/ports/STM32/LLD/OTGv1/hal_usb_lld.h"
 370              		.file 46 "./RM18A-ChibiOS18-Core/chibios/os/hal/ports/STM32/LLD/OTGv1/stm32_otg.h"
 371              		.file 47 "/usr/arm-none-eabi/include/sys/lock.h"
 372              		.file 48 "/usr/arm-none-eabi/include/sys/_types.h"
 373              		.file 49 "/usr/arm-none-eabi/include/sys/reent.h"
 374              		.file 50 "./RM18A-ChibiOS18-Core/src/utility/math_misc.h"
 375              		.file 51 "/usr/arm-none-eabi/include/math.h"