ARM GAS  /tmp/cc6lS6ie.s 			page 1


   1              		.cpu cortex-m4
   2              		.eabi_attribute 27, 1
   3              		.eabi_attribute 28, 1
   4              		.eabi_attribute 20, 1
   5              		.eabi_attribute 21, 1
   6              		.eabi_attribute 23, 3
   7              		.eabi_attribute 24, 1
   8              		.eabi_attribute 25, 1
   9              		.eabi_attribute 26, 1
  10              		.eabi_attribute 30, 2
  11              		.eabi_attribute 34, 1
  12              		.eabi_attribute 18, 4
  13              		.file	"memstreams.c"
  14              		.text
  15              	.Ltext0:
  16              		.cfi_sections	.debug_frame
  17              		.section	.text._put,"ax",%progbits
  18              		.align	1
  19              		.p2align 2,,3
  20              		.syntax unified
  21              		.thumb
  22              		.thumb_func
  23              		.fpu fpv4-sp-d16
  24              		.type	_put, %function
  25              	_put:
  26              	.LFB329:
  27              		.file 1 "./RM18A-ChibiOS18-Core/chibios/os/hal/lib/streams/memstreams.c"
  28              		.loc 1 67 0
  29              		.cfi_startproc
  30              		@ args = 0, pretend = 0, frame = 0
  31              		@ frame_needed = 0, uses_anonymous_args = 0
  32              		@ link register save eliminated.
  33              	.LVL0:
  34              		.loc 1 70 0
  35 0000 D0E90223 		ldrd	r2, r3, [r0, #8]
  36 0004 9A42     		cmp	r2, r3
  37 0006 06D0     		beq	.L3
  38              		.loc 1 72 0
  39 0008 4268     		ldr	r2, [r0, #4]
  40 000a D154     		strb	r1, [r2, r3]
  41              		.loc 1 73 0
  42 000c C368     		ldr	r3, [r0, #12]
  43 000e 0133     		adds	r3, r3, #1
  44 0010 C360     		str	r3, [r0, #12]
  45              		.loc 1 74 0
  46 0012 0020     		movs	r0, #0
  47              	.LVL1:
  48 0014 7047     		bx	lr
  49              	.LVL2:
  50              	.L3:
  51              		.loc 1 71 0
  52 0016 6FF00100 		mvn	r0, #1
  53              	.LVL3:
  54              		.loc 1 75 0
  55 001a 7047     		bx	lr
  56              		.cfi_endproc
  57              	.LFE329:
ARM GAS  /tmp/cc6lS6ie.s 			page 2


  58              		.size	_put, .-_put
  59              		.section	.text._get,"ax",%progbits
  60              		.align	1
  61              		.p2align 2,,3
  62              		.syntax unified
  63              		.thumb
  64              		.thumb_func
  65              		.fpu fpv4-sp-d16
  66              		.type	_get, %function
  67              	_get:
  68              	.LFB330:
  69              		.loc 1 77 0
  70              		.cfi_startproc
  71              		@ args = 0, pretend = 0, frame = 0
  72              		@ frame_needed = 0, uses_anonymous_args = 0
  73              		@ link register save eliminated.
  74              	.LVL4:
  75              		.loc 1 81 0
  76 0000 D0E90313 		ldrd	r1, r3, [r0, #12]
  77 0004 9942     		cmp	r1, r3
  78              		.loc 1 77 0
  79 0006 0246     		mov	r2, r0
  80              	.LVL5:
  81              		.loc 1 81 0
  82 0008 04D0     		beq	.L7
  83              		.loc 1 83 0
  84 000a 4168     		ldr	r1, [r0, #4]
  85 000c C85C     		ldrb	r0, [r1, r3]	@ zero_extendqisi2
  86              	.LVL6:
  87              		.loc 1 84 0
  88 000e 0133     		adds	r3, r3, #1
  89 0010 1361     		str	r3, [r2, #16]
  90              		.loc 1 85 0
  91 0012 7047     		bx	lr
  92              	.LVL7:
  93              	.L7:
  94              		.loc 1 82 0
  95 0014 6FF00100 		mvn	r0, #1
  96              	.LVL8:
  97              		.loc 1 86 0
  98 0018 7047     		bx	lr
  99              		.cfi_endproc
 100              	.LFE330:
 101              		.size	_get, .-_get
 102 001a 00BF     		.section	.text._reads,"ax",%progbits
 103              		.align	1
 104              		.p2align 2,,3
 105              		.syntax unified
 106              		.thumb
 107              		.thumb_func
 108              		.fpu fpv4-sp-d16
 109              		.type	_reads, %function
 110              	_reads:
 111              	.LFB328:
 112              		.loc 1 57 0
 113              		.cfi_startproc
 114              		@ args = 0, pretend = 0, frame = 0
ARM GAS  /tmp/cc6lS6ie.s 			page 3


 115              		@ frame_needed = 0, uses_anonymous_args = 0
 116              	.LVL9:
 117 0000 70B5     		push	{r4, r5, r6, lr}
 118              		.cfi_def_cfa_offset 16
 119              		.cfi_offset 4, -16
 120              		.cfi_offset 5, -12
 121              		.cfi_offset 6, -8
 122              		.cfi_offset 14, -4
 123              		.loc 1 60 0
 124 0002 D0E90343 		ldrd	r4, r3, [r0, #12]
 125 0006 E41A     		subs	r4, r4, r3
 126              		.loc 1 62 0
 127 0008 4668     		ldr	r6, [r0, #4]
 128 000a 9442     		cmp	r4, r2
 129 000c 28BF     		it	cs
 130 000e 1446     		movcs	r4, r2
 131              		.loc 1 57 0
 132 0010 0546     		mov	r5, r0
 133              	.LVL10:
 134              		.loc 1 62 0
 135 0012 2246     		mov	r2, r4
 136 0014 0846     		mov	r0, r1
 137              	.LVL11:
 138 0016 F118     		adds	r1, r6, r3
 139              	.LVL12:
 140 0018 FFF7FEFF 		bl	memcpy
 141              	.LVL13:
 142              		.loc 1 63 0
 143 001c 2B69     		ldr	r3, [r5, #16]
 144 001e 2344     		add	r3, r3, r4
 145 0020 2B61     		str	r3, [r5, #16]
 146              		.loc 1 65 0
 147 0022 2046     		mov	r0, r4
 148 0024 70BD     		pop	{r4, r5, r6, pc}
 149              		.cfi_endproc
 150              	.LFE328:
 151              		.size	_reads, .-_reads
 152 0026 00BF     		.section	.text._writes,"ax",%progbits
 153              		.align	1
 154              		.p2align 2,,3
 155              		.syntax unified
 156              		.thumb
 157              		.thumb_func
 158              		.fpu fpv4-sp-d16
 159              		.type	_writes, %function
 160              	_writes:
 161              	.LFB327:
 162              		.loc 1 47 0
 163              		.cfi_startproc
 164              		@ args = 0, pretend = 0, frame = 0
 165              		@ frame_needed = 0, uses_anonymous_args = 0
 166              	.LVL14:
 167 0000 38B5     		push	{r3, r4, r5, lr}
 168              		.cfi_def_cfa_offset 16
 169              		.cfi_offset 3, -16
 170              		.cfi_offset 4, -12
 171              		.cfi_offset 5, -8
ARM GAS  /tmp/cc6lS6ie.s 			page 4


 172              		.cfi_offset 14, -4
 173              		.loc 1 50 0
 174 0002 D0E90243 		ldrd	r4, r3, [r0, #8]
 175 0006 E41A     		subs	r4, r4, r3
 176              		.loc 1 47 0
 177 0008 0546     		mov	r5, r0
 178              	.LVL15:
 179 000a 9442     		cmp	r4, r2
 180              		.loc 1 52 0
 181 000c 4068     		ldr	r0, [r0, #4]
 182              	.LVL16:
 183 000e 28BF     		it	cs
 184 0010 1446     		movcs	r4, r2
 185              	.LVL17:
 186 0012 1844     		add	r0, r0, r3
 187 0014 2246     		mov	r2, r4
 188 0016 FFF7FEFF 		bl	memcpy
 189              	.LVL18:
 190              		.loc 1 53 0
 191 001a EB68     		ldr	r3, [r5, #12]
 192 001c 2344     		add	r3, r3, r4
 193 001e EB60     		str	r3, [r5, #12]
 194              		.loc 1 55 0
 195 0020 2046     		mov	r0, r4
 196 0022 38BD     		pop	{r3, r4, r5, pc}
 197              		.cfi_endproc
 198              	.LFE327:
 199              		.size	_writes, .-_writes
 200              		.section	.text.msObjectInit,"ax",%progbits
 201              		.align	1
 202              		.p2align 2,,3
 203              		.global	msObjectInit
 204              		.syntax unified
 205              		.thumb
 206              		.thumb_func
 207              		.fpu fpv4-sp-d16
 208              		.type	msObjectInit, %function
 209              	msObjectInit:
 210              	.LFB331:
 211              		.loc 1 105 0
 212              		.cfi_startproc
 213              		@ args = 0, pretend = 0, frame = 0
 214              		@ frame_needed = 0, uses_anonymous_args = 0
 215              		@ link register save eliminated.
 216              	.LVL19:
 217 0000 10B4     		push	{r4}
 218              		.cfi_def_cfa_offset 4
 219              		.cfi_offset 4, -4
 220              		.loc 1 108 0
 221 0002 4160     		str	r1, [r0, #4]
 222              		.loc 1 107 0
 223 0004 044C     		ldr	r4, .L14
 224 0006 0460     		str	r4, [r0]
 225              		.loc 1 111 0
 226 0008 0021     		movs	r1, #0
 227              	.LVL20:
 228              		.loc 1 110 0
ARM GAS  /tmp/cc6lS6ie.s 			page 5


 229 000a C0E90223 		strd	r2, r3, [r0, #8]
 230              		.loc 1 111 0
 231 000e 0161     		str	r1, [r0, #16]
 232              		.loc 1 112 0
 233 0010 5DF8044B 		ldr	r4, [sp], #4
 234              		.cfi_restore 4
 235              		.cfi_def_cfa_offset 0
 236 0014 7047     		bx	lr
 237              	.L15:
 238 0016 00BF     		.align	2
 239              	.L14:
 240 0018 00000000 		.word	.LANCHOR0
 241              		.cfi_endproc
 242              	.LFE331:
 243              		.size	msObjectInit, .-msObjectInit
 244              		.section	.rodata.vmt,"a",%progbits
 245              		.align	2
 246              		.set	.LANCHOR0,. + 0
 247              		.type	vmt, %object
 248              		.size	vmt, 20
 249              	vmt:
 250 0000 00000000 		.word	0
 251 0004 00000000 		.word	_writes
 252 0008 00000000 		.word	_reads
 253 000c 00000000 		.word	_put
 254 0010 00000000 		.word	_get
 255              		.text
 256              	.Letext0:
 257              		.file 2 "/usr/lib/gcc/arm-none-eabi/7.3.1/include/stddef.h"
 258              		.file 3 "/usr/arm-none-eabi/include/machine/_default_types.h"
 259              		.file 4 "/usr/arm-none-eabi/include/sys/lock.h"
 260              		.file 5 "/usr/arm-none-eabi/include/sys/_types.h"
 261              		.file 6 "/usr/arm-none-eabi/include/sys/reent.h"
 262              		.file 7 "/usr/arm-none-eabi/include/sys/_stdint.h"
 263              		.file 8 "./RM18A-ChibiOS18-Core/chibios/os/common/ports/ARMCMx/compilers/GCC/chtypes.h"
 264              		.file 9 "./RM18A-ChibiOS18-Core/chibios/os/rt/include/chsystypes.h"
 265              		.file 10 "./RM18A-ChibiOS18-Core/chibios/os/rt/include/chschd.h"
 266              		.file 11 "./RM18A-ChibiOS18-Core/chibios/os/rt/include/chtime.h"
 267              		.file 12 "./RM18A-ChibiOS18-Core/chibios/os/common/ext/ARM/CMSIS/Core/Include/core_cm4.h"
 268              		.file 13 "./RM18A-ChibiOS18-Core/chibios/os/common/ext/ST/STM32F4xx/system_stm32f4xx.h"
 269              		.file 14 "./RM18A-ChibiOS18-Core/chibios/os/common/ext/ST/STM32F4xx/stm32f427xx.h"
 270              		.file 15 "./RM18A-ChibiOS18-Core/chibios/os/common/ports/ARMCMx/chcore.h"
 271              		.file 16 "./RM18A-ChibiOS18-Core/chibios/os/common/ports/ARMCMx/chcore_v7m.h"
 272              		.file 17 "./RM18A-ChibiOS18-Core/chibios/os/hal/ports/STM32/LLD/TIMv1/stm32_tim.h"
 273              		.file 18 "./RM18A-ChibiOS18-Core/chibios/os/rt/include/chtm.h"
 274              		.file 19 "./RM18A-ChibiOS18-Core/chibios/os/rt/include/chsem.h"
 275              		.file 20 "./RM18A-ChibiOS18-Core/chibios/os/rt/include/chmtx.h"
 276              		.file 21 "./RM18A-ChibiOS18-Core/chibios/os/rt/include/chsys.h"
 277              		.file 22 "./RM18A-ChibiOS18-Core/chibios/os/rt/include/chregistry.h"
 278              		.file 23 "./RM18A-ChibiOS18-Core/chibios/os/rt/include/chevents.h"
 279              		.file 24 "./RM18A-ChibiOS18-Core/chibios/os/oslib/include/chmemcore.h"
 280              		.file 25 "./RM18A-ChibiOS18-Core/chibios/os/oslib/include/chmempools.h"
 281              		.file 26 "./RM18A-ChibiOS18-Core/chibios/os/oslib/include/chfactory.h"
 282              		.file 27 "./RM18A-ChibiOS18-Core/chibios/os/hal/ports/STM32/LLD/DMAv2/stm32_dma.h"
 283              		.file 28 "./RM18A-ChibiOS18-Core/chibios/os/hal/include/hal_queues.h"
 284              		.file 29 "./RM18A-ChibiOS18-Core/chibios/os/hal/include/hal_pal.h"
 285              		.file 30 "./RM18A-ChibiOS18-Core/chibios/os/hal/ports/STM32/LLD/GPIOv2/hal_pal_lld.h"
ARM GAS  /tmp/cc6lS6ie.s 			page 6


 286              		.file 31 "./RM18A-ChibiOS18-Core/chibios/os/hal/include/hal_adc.h"
 287              		.file 32 "./RM18A-ChibiOS18-Core/chibios/os/hal/ports/STM32/LLD/ADCv2/hal_adc_lld.h"
 288              		.file 33 "./RM18A-ChibiOS18-Core/chibios/os/hal/include/hal_can.h"
 289              		.file 34 "./RM18A-ChibiOS18-Core/chibios/os/hal/ports/STM32/LLD/CANv1/hal_can_lld.h"
 290              		.file 35 "./RM18A-ChibiOS18-Core/chibios/os/hal/include/hal_i2c.h"
 291              		.file 36 "./RM18A-ChibiOS18-Core/chibios/os/hal/lib/fallback/I2C/hal_i2c_lld.h"
 292              		.file 37 "./RM18A-ChibiOS18-Core/chibios/os/hal/include/hal_icu.h"
 293              		.file 38 "./RM18A-ChibiOS18-Core/chibios/os/hal/ports/STM32/LLD/TIMv1/hal_icu_lld.h"
 294              		.file 39 "./RM18A-ChibiOS18-Core/chibios/os/hal/include/hal_pwm.h"
 295              		.file 40 "./RM18A-ChibiOS18-Core/chibios/os/hal/ports/STM32/LLD/TIMv1/hal_pwm_lld.h"
 296              		.file 41 "./RM18A-ChibiOS18-Core/chibios/os/hal/include/hal_serial.h"
 297              		.file 42 "./RM18A-ChibiOS18-Core/chibios/os/hal/ports/STM32/LLD/USARTv1/hal_serial_lld.h"
 298              		.file 43 "./RM18A-ChibiOS18-Core/chibios/os/hal/include/hal_spi.h"
 299              		.file 44 "./RM18A-ChibiOS18-Core/chibios/os/hal/ports/STM32/LLD/SPIv1/hal_spi_lld.h"
 300              		.file 45 "./RM18A-ChibiOS18-Core/chibios/os/hal/include/hal_uart.h"
 301              		.file 46 "./RM18A-ChibiOS18-Core/chibios/os/hal/ports/STM32/LLD/USARTv1/hal_uart_lld.h"
 302              		.file 47 "./RM18A-ChibiOS18-Core/chibios/os/hal/include/hal_usb.h"
 303              		.file 48 "./RM18A-ChibiOS18-Core/chibios/os/hal/ports/STM32/LLD/OTGv1/hal_usb_lld.h"
 304              		.file 49 "./RM18A-ChibiOS18-Core/chibios/os/hal/ports/STM32/LLD/OTGv1/stm32_otg.h"
 305              		.file 50 "./RM18A-ChibiOS18-Core/chibios/os/hal/lib/streams/memstreams.h"
 306              		.file 51 "<built-in>"