ARM GAS  /tmp/ccDXso2P.s 			page 1


   1              		.cpu cortex-m4
   2              		.eabi_attribute 27, 1
   3              		.eabi_attribute 28, 1
   4              		.eabi_attribute 20, 1
   5              		.eabi_attribute 21, 1
   6              		.eabi_attribute 23, 3
   7              		.eabi_attribute 24, 1
   8              		.eabi_attribute 25, 1
   9              		.eabi_attribute 26, 1
  10              		.eabi_attribute 30, 2
  11              		.eabi_attribute 34, 1
  12              		.eabi_attribute 18, 4
  13              		.file	"MonitorManager.c"
  14              		.text
  15              	.Ltext0:
  16              		.cfi_sections	.debug_frame
  17              		.section	.text.Monitor_draw_menu,"ax",%progbits
  18              		.align	1
  19              		.p2align 2,,3
  20              		.global	Monitor_draw_menu
  21              		.syntax unified
  22              		.thumb
  23              		.thumb_func
  24              		.fpu fpv4-sp-d16
  25              		.type	Monitor_draw_menu, %function
  26              	Monitor_draw_menu:
  27              	.LFB327:
  28              		.file 1 "./RM18A-ChibiOS18-Core/src/diagnostics/MonitorManager.c"
  29              		.loc 1 21 0
  30              		.cfi_startproc
  31              		@ args = 0, pretend = 0, frame = 16
  32              		@ frame_needed = 0, uses_anonymous_args = 0
  33              	.LVL0:
  34 0000 2DE9F04F 		push	{r4, r5, r6, r7, r8, r9, r10, fp, lr}
  35              		.cfi_def_cfa_offset 36
  36              		.cfi_offset 4, -36
  37              		.cfi_offset 5, -32
  38              		.cfi_offset 6, -28
  39              		.cfi_offset 7, -24
  40              		.cfi_offset 8, -20
  41              		.cfi_offset 9, -16
  42              		.cfi_offset 10, -12
  43              		.cfi_offset 11, -8
  44              		.cfi_offset 14, -4
  45 0004 89B0     		sub	sp, sp, #36
  46              		.cfi_def_cfa_offset 72
  47              		.loc 1 21 0
  48 0006 0F46     		mov	r7, r1
  49              		.loc 1 22 0
  50 0008 0121     		movs	r1, #1
  51              	.LVL1:
  52              		.loc 1 21 0
  53 000a 0646     		mov	r6, r0
  54 000c 9246     		mov	r10, r2
  55 000e 0493     		str	r3, [sp, #16]
  56              		.loc 1 22 0
  57 0010 FFF7FEFF 		bl	OLED_setMode
ARM GAS  /tmp/ccDXso2P.s 			page 2


  58              	.LVL2:
  59              		.loc 1 23 0
  60 0014 3F23     		movs	r3, #63
  61 0016 3722     		movs	r2, #55
  62 0018 3046     		mov	r0, r6
  63 001a 0093     		str	r3, [sp]
  64 001c 0021     		movs	r1, #0
  65 001e 7F23     		movs	r3, #127
  66 0020 FFF7FEFF 		bl	OLED_fill
  67              	.LVL3:
  68              		.loc 1 24 0
  69 0024 3046     		mov	r0, r6
  70 0026 0021     		movs	r1, #0
  71 0028 FFF7FEFF 		bl	OLED_setMode
  72              	.LVL4:
  73              		.loc 1 26 0
  74 002c 3722     		movs	r2, #55
  75 002e 3046     		mov	r0, r6
  76 0030 0092     		str	r2, [sp]
  77 0032 7F23     		movs	r3, #127
  78 0034 0021     		movs	r1, #0
  79 0036 FFF7FEFF 		bl	OLED_fill
  80              	.LVL5:
  81              	.LBB61:
  82              		.loc 1 29 0
  83 003a BAF1000F 		cmp	r10, #0
  84 003e 44D0     		beq	.L1
  85 0040 0AF1FF33 		add	r3, r10, #-1
  86 0044 DBB2     		uxtb	r3, r3
  87 0046 0233     		adds	r3, r3, #2
  88              	.LBE61:
  89              		.loc 1 28 0
  90 0048 0024     		movs	r4, #0
  91 004a 043F     		subs	r7, r7, #4
  92              	.LVL6:
  93 004c 0593     		str	r3, [sp, #20]
  94              	.LBB64:
  95              		.loc 1 29 0
  96 004e 0125     		movs	r5, #1
  97              	.LBB62:
  98              		.loc 1 38 0
  99 0050 4FF00808 		mov	r8, #8
 100              	.LVL7:
 101              	.L6:
 102              		.loc 1 31 0
 103 0054 57F8043F 		ldr	r3, [r7, #4]!
 104 0058 D3F800B0 		ldr	fp, [r3]
 105 005c 5846     		mov	r0, fp
 106 005e FFF7FEFF 		bl	strlen
 107              	.LVL8:
 108 0062 00EB4000 		add	r0, r0, r0, lsl #1
 109 0066 4000     		lsls	r0, r0, #1
 110              		.loc 1 32 0
 111 0068 6A1E     		subs	r2, r5, #1
 112 006a 049B     		ldr	r3, [sp, #16]
 113 006c D2B2     		uxtb	r2, r2
 114              		.loc 1 31 0
ARM GAS  /tmp/ccDXso2P.s 			page 3


 115 006e 0430     		adds	r0, r0, #4
 116 0070 1FFA84FC 		uxth	ip, r4
 117 0074 C0B2     		uxtb	r0, r0
 118 0076 0CF10209 		add	r9, ip, #2
 119              		.loc 1 32 0
 120 007a 9342     		cmp	r3, r2
 121              		.loc 1 31 0
 122 007c 8DF81F00 		strb	r0, [sp, #31]
 123              		.loc 1 38 0
 124 0080 4FF03802 		mov	r2, #56
 125 0084 4946     		mov	r1, r9
 126 0086 3046     		mov	r0, r6
 127              		.loc 1 32 0
 128 0088 22D0     		beq	.L13
 129              	.LVL9:
 130              		.loc 1 38 0
 131 008a 9DF81FC0 		ldrb	ip, [sp, #31]	@ zero_extendqisi2
 132 008e 0023     		movs	r3, #0
 133 0090 CDE90283 		strd	r8, r3, [sp, #8]
 134 0094 CDE9008B 		strd	r8, fp, [sp]
 135 0098 6346     		mov	r3, ip
 136 009a FFF7FEFF 		bl	OLED_drawString
 137              	.LVL10:
 138              	.L4:
 139              		.loc 1 41 0
 140 009e 9DF81F30 		ldrb	r3, [sp, #31]	@ zero_extendqisi2
 141 00a2 1C44     		add	r4, r4, r3
 142              	.LVL11:
 143 00a4 E4B2     		uxtb	r4, r4
 144              	.LVL12:
 145              		.loc 1 45 0
 146 00a6 23B2     		sxth	r3, r4
 147              		.loc 1 44 0
 148 00a8 5545     		cmp	r5, r10
 149              		.loc 1 45 0
 150 00aa 4FF03F0C 		mov	ip, #63
 151 00ae 05F10105 		add	r5, r5, #1
 152              	.LVL13:
 153 00b2 4FF03702 		mov	r2, #55
 154 00b6 1946     		mov	r1, r3
 155 00b8 3046     		mov	r0, r6
 156              		.loc 1 44 0
 157 00ba 03D0     		beq	.L5
 158              	.LVL14:
 159              		.loc 1 45 0
 160 00bc CDF800C0 		str	ip, [sp]
 161 00c0 FFF7FEFF 		bl	OLED_fill
 162              	.LVL15:
 163              	.L5:
 164              	.LBE62:
 165              		.loc 1 29 0 discriminator 2
 166 00c4 059B     		ldr	r3, [sp, #20]
 167 00c6 AB42     		cmp	r3, r5
 168 00c8 C4D1     		bne	.L6
 169              	.LVL16:
 170              	.L1:
 171              	.LBE64:
ARM GAS  /tmp/ccDXso2P.s 			page 4


 172              		.loc 1 47 0
 173 00ca 09B0     		add	sp, sp, #36
 174              		.cfi_remember_state
 175              		.cfi_def_cfa_offset 36
 176              		@ sp needed
 177 00cc BDE8F08F 		pop	{r4, r5, r6, r7, r8, r9, r10, fp, pc}
 178              	.LVL17:
 179              	.L13:
 180              		.cfi_restore_state
 181              	.LBB65:
 182              	.LBB63:
 183              		.loc 1 35 0
 184 00d0 9DF81F30 		ldrb	r3, [sp, #31]	@ zero_extendqisi2
 185 00d4 3F22     		movs	r2, #63
 186 00d6 6344     		add	r3, r3, ip
 187 00d8 0092     		str	r2, [sp]
 188 00da 2146     		mov	r1, r4
 189 00dc 3822     		movs	r2, #56
 190 00de FFF7FEFF 		bl	OLED_fill
 191              	.LVL18:
 192              		.loc 1 36 0
 193 00e2 3046     		mov	r0, r6
 194 00e4 0121     		movs	r1, #1
 195 00e6 FFF7FEFF 		bl	OLED_setMode
 196              	.LVL19:
 197              		.loc 1 38 0
 198 00ea 0023     		movs	r3, #0
 199 00ec 3A68     		ldr	r2, [r7]
 200 00ee CDE90283 		strd	r8, r3, [sp, #8]
 201 00f2 1268     		ldr	r2, [r2]
 202 00f4 0192     		str	r2, [sp, #4]
 203 00f6 4946     		mov	r1, r9
 204 00f8 3046     		mov	r0, r6
 205 00fa 9DF81F30 		ldrb	r3, [sp, #31]	@ zero_extendqisi2
 206 00fe CDF80080 		str	r8, [sp]
 207 0102 3822     		movs	r2, #56
 208 0104 FFF7FEFF 		bl	OLED_drawString
 209              	.LVL20:
 210              		.loc 1 40 0
 211 0108 0021     		movs	r1, #0
 212 010a 3046     		mov	r0, r6
 213 010c FFF7FEFF 		bl	OLED_setMode
 214              	.LVL21:
 215 0110 C5E7     		b	.L4
 216              	.LBE63:
 217              	.LBE65:
 218              		.cfi_endproc
 219              	.LFE327:
 220              		.size	Monitor_draw_menu, .-Monitor_draw_menu
 221 0112 00BF     		.section	.text.monitor_thd,"ax",%progbits
 222              		.align	1
 223              		.p2align 2,,3
 224              		.global	monitor_thd
 225              		.syntax unified
 226              		.thumb
 227              		.thumb_func
 228              		.fpu fpv4-sp-d16
ARM GAS  /tmp/ccDXso2P.s 			page 5


 229              		.type	monitor_thd, %function
 230              	monitor_thd:
 231              	.LFB329:
 232              		.loc 1 85 0
 233              		.cfi_startproc
 234              		@ args = 0, pretend = 0, frame = 16
 235              		@ frame_needed = 0, uses_anonymous_args = 0
 236              	.LVL22:
 237 0000 2DE9F04F 		push	{r4, r5, r6, r7, r8, r9, r10, fp, lr}
 238              		.cfi_def_cfa_offset 36
 239              		.cfi_offset 4, -36
 240              		.cfi_offset 5, -32
 241              		.cfi_offset 6, -28
 242              		.cfi_offset 7, -24
 243              		.cfi_offset 8, -20
 244              		.cfi_offset 9, -16
 245              		.cfi_offset 10, -12
 246              		.cfi_offset 11, -8
 247              		.cfi_offset 14, -4
 248              		.loc 1 89 0
 249 0004 0023     		movs	r3, #0
 250              		.loc 1 85 0
 251 0006 87B0     		sub	sp, sp, #28
 252              		.cfi_def_cfa_offset 64
 253              	.LVL23:
 254              	.L15:
 255              		.loc 1 89 0 discriminator 1
 256 0008 DCB2     		uxtb	r4, r3
 257              	.LVL24:
 258 000a 0133     		adds	r3, r3, #1
 259 000c 50F82420 		ldr	r2, [r0, r4, lsl #2]
 260 0010 1568     		ldr	r5, [r2]
 261 0012 002D     		cmp	r5, #0
 262 0014 F8D1     		bne	.L15
 263              	.LVL25:
 264              		.loc 1 98 0
 265 0016 14B9     		cbnz	r4, .L71
 266              	.LVL26:
 267              	.L14:
 268              		.loc 1 168 0
 269 0018 07B0     		add	sp, sp, #28
 270              		.cfi_remember_state
 271              		.cfi_def_cfa_offset 36
 272              		@ sp needed
 273 001a BDE8F08F 		pop	{r4, r5, r6, r7, r8, r9, r10, fp, pc}
 274              	.LVL27:
 275              	.L71:
 276              		.cfi_restore_state
 277              		.loc 1 100 0
 278 001e A549     		ldr	r1, .L76
 279 0020 0390     		str	r0, [sp, #12]
 280 0022 0646     		mov	r6, r0
 281 0024 A448     		ldr	r0, .L76+4
 282              	.LVL28:
 283              	.LBB66:
 284              	.LBB67:
 285              	.LBB68:
ARM GAS  /tmp/ccDXso2P.s 			page 6


 286              	.LBB69:
 287              		.file 2 "./RM18A-ChibiOS18-Core/chibios/os/rt/include/chthreads.h"
 288              		.loc 2 274 0
 289 0026 DFF8A4B2 		ldr	fp, .L76+24
 290              	.LBE69:
 291              	.LBE68:
 292              	.LBE67:
 293              	.LBE66:
 294              		.loc 1 100 0
 295 002a FFF7FEFF 		bl	adcStart
 296              	.LVL29:
 297              		.loc 1 101 0
 298 002e FFF7FEFF 		bl	OLED_Init
 299              	.LVL30:
 300              		.loc 1 102 0
 301 0032 FFF7FEFF 		bl	OLED_Display_On
 302              	.LVL31:
 303              		.loc 1 103 0
 304 0036 0121     		movs	r1, #1
 305 0038 A048     		ldr	r0, .L76+8
 306 003a FFF7FEFF 		bl	OLED_setMode
 307              	.LVL32:
 308              		.loc 1 104 0
 309 003e 3F23     		movs	r3, #63
 310 0040 2A46     		mov	r2, r5
 311 0042 0093     		str	r3, [sp]
 312 0044 2946     		mov	r1, r5
 313 0046 7F23     		movs	r3, #127
 314 0048 9C48     		ldr	r0, .L76+8
 315 004a FFF7FEFF 		bl	OLED_fill
 316              	.LVL33:
 317              		.loc 1 105 0
 318 004e 2946     		mov	r1, r5
 319 0050 9A48     		ldr	r0, .L76+8
 320 0052 FFF7FEFF 		bl	OLED_setMode
 321              	.LVL34:
 322              		.loc 1 106 0
 323 0056 2B46     		mov	r3, r5
 324 0058 2246     		mov	r2, r4
 325 005a 3146     		mov	r1, r6
 326 005c 9748     		ldr	r0, .L76+8
 327 005e FFF7FEFF 		bl	Monitor_draw_menu
 328              	.LVL35:
 329              		.loc 1 107 0
 330 0062 0123     		movs	r3, #1
 331 0064 2A46     		mov	r2, r5
 332 0066 0221     		movs	r1, #2
 333 0068 9448     		ldr	r0, .L76+8
 334 006a FFF7FEFF 		bl	OLED_writeToScreen
 335              	.LVL36:
 336              	.LBB72:
 337              	.LBB70:
 338              		.loc 2 347 0
 339 006e DBF81830 		ldr	r3, [fp, #24]
 340              	.LBE70:
 341              	.LBE72:
 342              		.loc 1 108 0
ARM GAS  /tmp/ccDXso2P.s 			page 7


 343 0072 93F82170 		ldrb	r7, [r3, #33]	@ zero_extendqisi2
 344 0076 17F00407 		ands	r7, r7, #4
 345 007a CDD1     		bne	.L14
 346 007c DFF83CA2 		ldr	r10, .L76+8
 347              		.loc 1 91 0
 348 0080 0297     		str	r7, [sp, #8]
 349              		.loc 1 95 0
 350 0082 3E46     		mov	r6, r7
 351              	.LVL37:
 352              		.loc 1 94 0
 353 0084 B846     		mov	r8, r7
 354              		.loc 1 92 0
 355 0086 B946     		mov	r9, r7
 356              	.LBB73:
 357              		.loc 1 160 0
 358 0088 0494     		str	r4, [sp, #16]
 359              	.LVL38:
 360              	.L36:
 361              	.LBB74:
 362              	.LBB75:
 363              	.LBB76:
 364              	.LBB77:
 365              	.LBB78:
 366              	.LBB79:
 367              		.file 3 "./RM18A-ChibiOS18-Core/chibios/os/common/ext/ARM/CMSIS/Core/Include/cmsis_gcc.h"
 368              		.loc 3 493 0
 369 008a 2023     		movs	r3, #32
 370              		.syntax unified
 371              	@ 493 "./RM18A-ChibiOS18-Core/chibios/os/common/ext/ARM/CMSIS/Core/Include/cmsis_gcc.h" 1
 372 008c 83F31188 		MSR basepri, r3
 373              	@ 0 "" 2
 374              	.LVL39:
 375              		.thumb
 376              		.syntax unified
 377              	.LBE79:
 378              	.LBE78:
 379              	.LBE77:
 380              	.LBE76:
 381              	.LBB80:
 382              	.LBB81:
 383              	.LBB82:
 384              	.LBB83:
 385              		.file 4 "./RM18A-ChibiOS18-Core/chibios/os/hal/ports/STM32/LLD/TIMv1/hal_st_lld.h"
 386              		.loc 4 147 0
 387 0090 4FF08043 		mov	r3, #1073741824
 388 0094 5D6A     		ldr	r5, [r3, #36]
 389              	.LVL40:
 390              	.LBE83:
 391              	.LBE82:
 392              	.LBE81:
 393              	.LBE80:
 394              	.LBB84:
 395              	.LBB85:
 396              	.LBB86:
 397              	.LBB87:
 398              	.LBB88:
 399              		.loc 3 493 0
ARM GAS  /tmp/ccDXso2P.s 			page 8


 400 0096 0023     		movs	r3, #0
 401              		.syntax unified
 402              	@ 493 "./RM18A-ChibiOS18-Core/chibios/os/common/ext/ARM/CMSIS/Core/Include/cmsis_gcc.h" 1
 403 0098 83F31188 		MSR basepri, r3
 404              	@ 0 "" 2
 405              	.LVL41:
 406              		.thumb
 407              		.syntax unified
 408              	.LBE88:
 409              	.LBE87:
 410              	.LBE86:
 411              	.LBE85:
 412              	.LBE84:
 413              	.LBE75:
 414              	.LBE74:
 415              		.loc 1 112 0
 416 009c 0123     		movs	r3, #1
 417 009e 884A     		ldr	r2, .L76+12
 418 00a0 8849     		ldr	r1, .L76+16
 419 00a2 8548     		ldr	r0, .L76+4
 420 00a4 FFF7FEFF 		bl	adcStartConversion
 421              	.LVL42:
 422              		.loc 1 113 0
 423 00a8 834B     		ldr	r3, .L76+4
 424 00aa 8549     		ldr	r1, .L76+12
 425 00ac 9B6A     		ldr	r3, [r3, #40]
 426 00ae DB6C     		ldr	r3, [r3, #76]
 427              	.LBB89:
 428              	.LBB90:
 429              		.loc 1 69 0
 430 00b0 40F66762 		movw	r2, #3687
 431              	.LBE90:
 432              	.LBE89:
 433              		.loc 1 113 0
 434 00b4 9BB2     		uxth	r3, r3
 435              	.LBB96:
 436              	.LBB91:
 437              		.loc 1 69 0
 438 00b6 9342     		cmp	r3, r2
 439              	.LBE91:
 440              	.LBE96:
 441              		.loc 1 113 0
 442 00b8 0B80     		strh	r3, [r1]	@ movhi
 443              	.LVL43:
 444              	.LBB97:
 445              	.LBB92:
 446              		.loc 1 69 0
 447 00ba 0FD8     		bhi	.L38
 448              		.loc 1 71 0
 449 00bc 40F63532 		movw	r2, #2869
 450 00c0 9342     		cmp	r3, r2
 451 00c2 55D8     		bhi	.L39
 452              		.loc 1 73 0
 453 00c4 40F62E02 		movw	r2, #2094
 454 00c8 9342     		cmp	r3, r2
 455 00ca 00F28280 		bhi	.L40
 456              		.loc 1 75 0
ARM GAS  /tmp/ccDXso2P.s 			page 9


 457 00ce 40F20952 		movw	r2, #1289
 458 00d2 9342     		cmp	r3, r2
 459 00d4 40F28780 		bls	.L72
 460              		.loc 1 76 0
 461 00d8 0523     		movs	r3, #5
 462              	.LVL44:
 463 00da 00E0     		b	.L17
 464              	.LVL45:
 465              	.L38:
 466              		.loc 1 70 0
 467 00dc 0023     		movs	r3, #0
 468              	.LVL46:
 469              	.L17:
 470              	.LBE92:
 471              	.LBE97:
 472              		.loc 1 115 0
 473 00de 7A4A     		ldr	r2, .L76+20
 474 00e0 1478     		ldrb	r4, [r2]	@ zero_extendqisi2
 475              		.loc 1 114 0
 476 00e2 002C     		cmp	r4, #0
 477 00e4 08BF     		it	eq
 478 00e6 1C46     		moveq	r4, r3
 479              	.LVL47:
 480              		.loc 1 117 0
 481 00e8 4C45     		cmp	r4, r9
 482 00ea 2DD0     		beq	.L73
 483 00ec 0136     		adds	r6, r6, #1
 484              		.loc 1 148 0
 485 00ee 4FF00108 		mov	r8, #1
 486              	.LVL48:
 487              	.L34:
 488              		.loc 1 155 0
 489 00f2 F6B2     		uxtb	r6, r6
 490              		.loc 1 156 0
 491 00f4 3623     		movs	r3, #54
 492              		.loc 1 157 0
 493 00f6 042E     		cmp	r6, #4
 494              		.loc 1 156 0
 495 00f8 AAF81230 		strh	r3, [r10, #18]	@ movhi
 496              		.loc 1 157 0
 497 00fc 7BD1     		bne	.L47
 498 00fe DDE90223 		ldrd	r2, r3, [sp, #8]
 499              		.loc 1 111 0
 500 0102 0021     		movs	r1, #0
 501 0104 03EB8209 		add	r9, r3, r2, lsl #2
 502              	.LVL49:
 503              		.loc 1 157 0
 504 0108 0127     		movs	r7, #1
 505              	.LVL50:
 506              	.L33:
 507              		.loc 1 160 0
 508 010a D9F80030 		ldr	r3, [r9]
 509 010e 6B48     		ldr	r0, .L76+8
 510 0110 5B68     		ldr	r3, [r3, #4]
 511 0112 9847     		blx	r3
 512              	.LVL51:
 513              		.loc 1 159 0
ARM GAS  /tmp/ccDXso2P.s 			page 10


 514 0114 0026     		movs	r6, #0
 515              	.LVL52:
 516              	.L32:
 517              		.loc 1 163 0
 518 0116 0023     		movs	r3, #0
 519 0118 1A46     		mov	r2, r3
 520              		.loc 1 162 0
 521 011a 4FF03F0C 		mov	ip, #63
 522              		.loc 1 163 0
 523 011e 0221     		movs	r1, #2
 524 0120 6648     		ldr	r0, .L76+8
 525              		.loc 1 162 0
 526 0122 AAF812C0 		strh	ip, [r10, #18]	@ movhi
 527              		.loc 1 163 0
 528 0126 FFF7FEFF 		bl	OLED_writeToScreen
 529              	.LVL53:
 530              		.loc 1 166 0
 531 012a 05F1FA01 		add	r1, r5, #250
 532 012e 2846     		mov	r0, r5
 533 0130 FFF7FEFF 		bl	chThdSleepUntilWindowed
 534              	.LVL54:
 535              	.LBE73:
 536              	.LBB101:
 537              	.LBB71:
 538              		.loc 2 347 0
 539 0134 DBF81830 		ldr	r3, [fp, #24]
 540              	.LBE71:
 541              	.LBE101:
 542              		.loc 1 108 0
 543 0138 93F82130 		ldrb	r3, [r3, #33]	@ zero_extendqisi2
 544 013c 5B07     		lsls	r3, r3, #29
 545 013e A146     		mov	r9, r4
 546 0140 A3D5     		bpl	.L36
 547              		.loc 1 168 0
 548 0142 07B0     		add	sp, sp, #28
 549              		.cfi_remember_state
 550              		.cfi_def_cfa_offset 36
 551              		@ sp needed
 552 0144 BDE8F08F 		pop	{r4, r5, r6, r7, r8, r9, r10, fp, pc}
 553              	.LVL55:
 554              	.L73:
 555              		.cfi_restore_state
 556              	.LBB102:
 557              		.loc 1 123 0
 558 0148 B8F1020F 		cmp	r8, #2
 559 014c 6CD1     		bne	.L20
 560              		.loc 1 123 0 is_stmt 0 discriminator 1
 561 014e 8FB9     		cbnz	r7, .L21
 562 0150 0136     		adds	r6, r6, #1
 563              		.loc 1 148 0 is_stmt 1
 564 0152 4FF00308 		mov	r8, #3
 565              	.LVL56:
 566              	.L22:
 567              		.loc 1 155 0
 568 0156 F6B2     		uxtb	r6, r6
 569              		.loc 1 156 0
 570 0158 3623     		movs	r3, #54
ARM GAS  /tmp/ccDXso2P.s 			page 11


 571              		.loc 1 157 0
 572 015a 042E     		cmp	r6, #4
 573              		.loc 1 156 0
 574 015c AAF81230 		strh	r3, [r10, #18]	@ movhi
 575              		.loc 1 157 0
 576 0160 47D1     		bne	.L48
 577 0162 DDE90223 		ldrd	r2, r3, [sp, #8]
 578              		.loc 1 111 0
 579 0166 0021     		movs	r1, #0
 580              		.loc 1 157 0
 581 0168 0F46     		mov	r7, r1
 582 016a 03EB8209 		add	r9, r3, r2, lsl #2
 583              	.LVL57:
 584 016e CCE7     		b	.L33
 585              	.LVL58:
 586              	.L39:
 587              	.LBB98:
 588              	.LBB93:
 589              		.loc 1 72 0
 590 0170 0323     		movs	r3, #3
 591              	.LVL59:
 592 0172 B4E7     		b	.L17
 593              	.LVL60:
 594              	.L21:
 595              	.LBE93:
 596              	.LBE98:
 597              		.loc 1 125 0
 598 0174 BDF90830 		ldrsh	r3, [sp, #8]
 599 0178 039A     		ldr	r2, [sp, #12]
 600 017a 0593     		str	r3, [sp, #20]
 601 017c 52F82320 		ldr	r2, [r2, r3, lsl #2]
 602 0180 4846     		mov	r0, r9
 603 0182 9268     		ldr	r2, [r2, #8]
 604 0184 9047     		blx	r2
 605              	.LVL61:
 606              		.loc 1 126 0
 607 0186 0428     		cmp	r0, #4
 608 0188 25D0     		beq	.L50
 609 018a 0528     		cmp	r0, #5
 610 018c 059B     		ldr	r3, [sp, #20]
 611 018e 08BF     		it	eq
 612 0190 4FF00308 		moveq	r8, #3
 613              	.LVL62:
 614 0194 3DD1     		bne	.L74
 615              	.LVL63:
 616              	.L27:
 617              		.loc 1 135 0
 618 0196 0499     		ldr	r1, [sp, #16]
 619 0198 029B     		ldr	r3, [sp, #8]
 620 019a 0B44     		add	r3, r3, r1
 621 019c 0A46     		mov	r2, r1
 622 019e 0133     		adds	r3, r3, #1
 623              	.L69:
 624 01a0 93FBF2F2 		sdiv	r2, r3, r2
 625 01a4 01FB1233 		mls	r3, r1, r2, r3
 626 01a8 DBB2     		uxtb	r3, r3
 627              		.loc 1 136 0
ARM GAS  /tmp/ccDXso2P.s 			page 12


 628 01aa 0A46     		mov	r2, r1
 629 01ac 4348     		ldr	r0, .L76+8
 630              	.LVL64:
 631 01ae 0399     		ldr	r1, [sp, #12]
 632              		.loc 1 135 0
 633 01b0 0293     		str	r3, [sp, #8]
 634              	.LVL65:
 635              		.loc 1 136 0
 636 01b2 FFF7FEFF 		bl	Monitor_draw_menu
 637              	.LVL66:
 638              		.loc 1 156 0
 639 01b6 3623     		movs	r3, #54
 640              		.loc 1 137 0
 641 01b8 3946     		mov	r1, r7
 642              		.loc 1 156 0
 643 01ba AAF81230 		strh	r3, [r10, #18]	@ movhi
 644              		.loc 1 141 0
 645 01be E7B1     		cbz	r7, .L28
 646              	.LVL67:
 647              		.loc 1 157 0
 648 01c0 032E     		cmp	r6, #3
 649 01c2 21D1     		bne	.L65
 650 01c4 BDF90830 		ldrsh	r3, [sp, #8]
 651              	.LVL68:
 652              	.L29:
 653 01c8 039A     		ldr	r2, [sp, #12]
 654              		.loc 1 148 0
 655 01ca 0127     		movs	r7, #1
 656 01cc 02EB8309 		add	r9, r2, r3, lsl #2
 657 01d0 9BE7     		b	.L33
 658              	.LVL69:
 659              	.L40:
 660              	.LBB99:
 661              	.LBB94:
 662              		.loc 1 74 0
 663 01d2 0223     		movs	r3, #2
 664              	.LVL70:
 665 01d4 83E7     		b	.L17
 666              	.LVL71:
 667              	.L50:
 668              	.LBE94:
 669              	.LBE99:
 670              		.loc 1 126 0
 671 01d6 4FF00308 		mov	r8, #3
 672              	.LVL72:
 673              	.L25:
 674              		.loc 1 130 0
 675 01da 0499     		ldr	r1, [sp, #16]
 676 01dc 029B     		ldr	r3, [sp, #8]
 677 01de 0B44     		add	r3, r3, r1
 678 01e0 0A46     		mov	r2, r1
 679 01e2 013B     		subs	r3, r3, #1
 680 01e4 DCE7     		b	.L69
 681              	.LVL73:
 682              	.L72:
 683              	.LBB100:
 684              	.LBB95:
ARM GAS  /tmp/ccDXso2P.s 			page 13


 685              		.loc 1 78 0
 686 01e6 B3F5D47F 		cmp	r3, #424
 687 01ea 94BF     		ite	ls
 688 01ec 0123     		movls	r3, #1
 689              	.LVL74:
 690 01ee 0423     		movhi	r3, #4
 691 01f0 75E7     		b	.L17
 692              	.LVL75:
 693              	.L48:
 694              	.LBE95:
 695              	.LBE100:
 696              		.loc 1 157 0
 697 01f2 0027     		movs	r7, #0
 698 01f4 8FE7     		b	.L32
 699              	.LVL76:
 700              	.L47:
 701 01f6 0127     		movs	r7, #1
 702 01f8 8DE7     		b	.L32
 703              	.LVL77:
 704              	.L28:
 705 01fa DDE90223 		ldrd	r2, r3, [sp, #8]
 706              		.loc 1 156 0
 707 01fe 0121     		movs	r1, #1
 708 0200 03EB8209 		add	r9, r3, r2, lsl #2
 709              		.loc 1 142 0
 710 0204 B846     		mov	r8, r7
 711 0206 80E7     		b	.L33
 712              	.LVL78:
 713              	.L65:
 714 0208 DDE90223 		ldrd	r2, r3, [sp, #8]
 715 020c 03EB8209 		add	r9, r3, r2, lsl #2
 716 0210 7BE7     		b	.L33
 717              	.LVL79:
 718              	.L74:
 719              		.loc 1 155 0
 720 0212 0136     		adds	r6, r6, #1
 721              	.LVL80:
 722 0214 F6B2     		uxtb	r6, r6
 723              		.loc 1 156 0
 724 0216 3622     		movs	r2, #54
 725              		.loc 1 157 0
 726 0218 042E     		cmp	r6, #4
 727              		.loc 1 156 0
 728 021a AAF81220 		strh	r2, [r10, #18]	@ movhi
 729              		.loc 1 157 0
 730 021e 46D1     		bne	.L45
 731              		.loc 1 111 0
 732 0220 0021     		movs	r1, #0
 733              		.loc 1 157 0
 734 0222 4FF00308 		mov	r8, #3
 735 0226 CFE7     		b	.L29
 736              	.LVL81:
 737              	.L20:
 738              		.loc 1 123 0 discriminator 3
 739 0228 B8F1030F 		cmp	r8, #3
 740 022c 24D1     		bne	.L23
 741              		.loc 1 123 0 is_stmt 0 discriminator 4
ARM GAS  /tmp/ccDXso2P.s 			page 14


 742 022e BFB9     		cbnz	r7, .L44
 743              		.loc 1 125 0 is_stmt 1
 744 0230 BDF90830 		ldrsh	r3, [sp, #8]
 745 0234 0399     		ldr	r1, [sp, #12]
 746 0236 51F82320 		ldr	r2, [r1, r3, lsl #2]
 747 023a 4846     		mov	r0, r9
 748 023c 9268     		ldr	r2, [r2, #8]
 749 023e 01EB8309 		add	r9, r1, r3, lsl #2
 750              	.LVL82:
 751 0242 9047     		blx	r2
 752              	.LVL83:
 753              		.loc 1 126 0
 754 0244 0428     		cmp	r0, #4
 755 0246 15D0     		beq	.L52
 756 0248 0528     		cmp	r0, #5
 757 024a 10D0     		beq	.L75
 758              	.LVL84:
 759              		.loc 1 155 0
 760 024c 0136     		adds	r6, r6, #1
 761              	.LVL85:
 762 024e F6B2     		uxtb	r6, r6
 763              		.loc 1 156 0
 764 0250 3623     		movs	r3, #54
 765              		.loc 1 157 0
 766 0252 042E     		cmp	r6, #4
 767              		.loc 1 156 0
 768 0254 AAF81230 		strh	r3, [r10, #18]	@ movhi
 769              		.loc 1 157 0
 770 0258 07D1     		bne	.L70
 771              		.loc 1 111 0
 772 025a 3946     		mov	r1, r7
 773              		.loc 1 142 0
 774 025c B846     		mov	r8, r7
 775 025e 54E7     		b	.L33
 776              	.LVL86:
 777              	.L44:
 778 0260 0136     		adds	r6, r6, #1
 779              		.loc 1 148 0
 780 0262 4FF00408 		mov	r8, #4
 781              	.LVL87:
 782 0266 44E7     		b	.L34
 783              	.LVL88:
 784              	.L46:
 785              		.loc 1 157 0
 786 0268 1646     		mov	r6, r2
 787              	.LVL89:
 788              	.L70:
 789              		.loc 1 151 0
 790 026a B846     		mov	r8, r7
 791 026c 53E7     		b	.L32
 792              	.LVL90:
 793              	.L75:
 794              		.loc 1 126 0
 795 026e 4FF00408 		mov	r8, #4
 796              	.LVL91:
 797 0272 90E7     		b	.L27
 798              	.LVL92:
ARM GAS  /tmp/ccDXso2P.s 			page 15


 799              	.L52:
 800 0274 8046     		mov	r8, r0
 801              	.LVL93:
 802 0276 B0E7     		b	.L25
 803              	.LVL94:
 804              	.L23:
 805              		.loc 1 148 0
 806 0278 08F10108 		add	r8, r8, #1
 807              	.LVL95:
 808 027c 0136     		adds	r6, r6, #1
 809 027e 5FFA88F8 		uxtb	r8, r8
 810              	.LVL96:
 811 0282 F2B2     		uxtb	r2, r6
 812              		.loc 1 149 0
 813 0284 002F     		cmp	r7, #0
 814 0286 3FF466AF 		beq	.L22
 815              		.loc 1 149 0 is_stmt 0 discriminator 1
 816 028a B8F1050F 		cmp	r8, #5
 817 028e 7FF430AF 		bne	.L34
 818              	.LVL97:
 819              		.loc 1 156 0 is_stmt 1
 820 0292 3623     		movs	r3, #54
 821              		.loc 1 157 0
 822 0294 042A     		cmp	r2, #4
 823              		.loc 1 156 0
 824 0296 AAF81230 		strh	r3, [r10, #18]	@ movhi
 825              		.loc 1 111 0
 826 029a 4FF00007 		mov	r7, #0
 827              		.loc 1 157 0
 828 029e E3D1     		bne	.L46
 829 02a0 DDE90223 		ldrd	r2, r3, [sp, #8]
 830              		.loc 1 152 0
 831 02a4 3946     		mov	r1, r7
 832              		.loc 1 151 0
 833 02a6 B846     		mov	r8, r7
 834 02a8 03EB8209 		add	r9, r3, r2, lsl #2
 835              	.LVL98:
 836 02ac 2DE7     		b	.L33
 837              	.LVL99:
 838              	.L45:
 839              		.loc 1 157 0
 840 02ae 4FF00308 		mov	r8, #3
 841 02b2 30E7     		b	.L32
 842              	.L77:
 843              		.align	2
 844              	.L76:
 845 02b4 00000000 		.word	.LANCHOR0
 846 02b8 00000000 		.word	ADCD1
 847 02bc 00000000 		.word	.LANCHOR1
 848 02c0 00000000 		.word	.LANCHOR2
 849 02c4 00000000 		.word	.LANCHOR3
 850 02c8 00000000 		.word	.LANCHOR4
 851 02cc 00000000 		.word	ch
 852              	.LBE102:
 853              		.cfi_endproc
 854              	.LFE329:
 855              		.size	monitor_thd, .-monitor_thd
ARM GAS  /tmp/ccDXso2P.s 			page 16


 856              		.section	.text.MonitorManager_init,"ax",%progbits
 857              		.align	1
 858              		.p2align 2,,3
 859              		.global	MonitorManager_init
 860              		.syntax unified
 861              		.thumb
 862              		.thumb_func
 863              		.fpu fpv4-sp-d16
 864              		.type	MonitorManager_init, %function
 865              	MonitorManager_init:
 866              	.LFB330:
 867              		.loc 1 171 0
 868              		.cfi_startproc
 869              		@ args = 0, pretend = 0, frame = 0
 870              		@ frame_needed = 0, uses_anonymous_args = 0
 871              	.LVL100:
 872 0000 10B5     		push	{r4, lr}
 873              		.cfi_def_cfa_offset 8
 874              		.cfi_offset 4, -8
 875              		.cfi_offset 14, -4
 876 0002 82B0     		sub	sp, sp, #8
 877              		.cfi_def_cfa_offset 16
 878              		.loc 1 171 0
 879 0004 0446     		mov	r4, r0
 880              		.loc 1 177 0
 881 0006 0749     		ldr	r1, .L80
 882 0008 0748     		ldr	r0, .L80+4
 883              	.LVL101:
 884 000a FFF7FEFF 		bl	spiStart
 885              	.LVL102:
 886              		.loc 1 178 0
 887 000e 0094     		str	r4, [sp]
 888 0010 064B     		ldr	r3, .L80+8
 889 0012 0748     		ldr	r0, .L80+12
 890 0014 7E22     		movs	r2, #126
 891 0016 4FF45471 		mov	r1, #848
 892 001a FFF7FEFF 		bl	chThdCreateStatic
 893              	.LVL103:
 894              		.loc 1 179 0
 895 001e 02B0     		add	sp, sp, #8
 896              		.cfi_def_cfa_offset 8
 897              		@ sp needed
 898 0020 10BD     		pop	{r4, pc}
 899              	.LVL104:
 900              	.L81:
 901 0022 00BF     		.align	2
 902              	.L80:
 903 0024 00000000 		.word	.LANCHOR5
 904 0028 00000000 		.word	SPID1
 905 002c 00000000 		.word	monitor_thd
 906 0030 00000000 		.word	.LANCHOR6
 907              		.cfi_endproc
 908              	.LFE330:
 909              		.size	MonitorManager_init, .-MonitorManager_init
 910              		.global	monitor_thd_wa
 911              		.global	UserOverride
 912              		.global	end_tab
ARM GAS  /tmp/ccDXso2P.s 			page 17


 913              		.section	.bss.UserOverride,"aw",%nobits
 914              		.set	.LANCHOR4,. + 0
 915              		.type	UserOverride, %object
 916              		.size	UserOverride, 1
 917              	UserOverride:
 918 0000 00       		.space	1
 919              		.section	.bss.btnSamples,"aw",%nobits
 920              		.align	2
 921              		.set	.LANCHOR2,. + 0
 922              		.type	btnSamples, %object
 923              		.size	btnSamples, 2
 924              	btnSamples:
 925 0000 0000     		.space	2
 926              		.section	.bss.monitor_thd_wa,"aw",%nobits
 927              		.align	3
 928              		.set	.LANCHOR6,. + 0
 929              		.type	monitor_thd_wa, %object
 930              		.size	monitor_thd_wa, 848
 931              	monitor_thd_wa:
 932 0000 00000000 		.space	848
 932      00000000 
 932      00000000 
 932      00000000 
 932      00000000 
 933              		.section	.bss.oled_buffer_dirty,"aw",%nobits
 934              		.align	2
 935              		.type	oled_buffer_dirty, %object
 936              		.size	oled_buffer_dirty, 72
 937              	oled_buffer_dirty:
 938 0000 00000000 		.space	72
 938      00000000 
 938      00000000 
 938      00000000 
 938      00000000 
 939              		.section	.bss.oled_buffer_pixels,"aw",%nobits
 940              		.align	2
 941              		.type	oled_buffer_pixels, %object
 942              		.size	oled_buffer_pixels, 1040
 943              	oled_buffer_pixels:
 944 0000 00000000 		.space	1040
 944      00000000 
 944      00000000 
 944      00000000 
 944      00000000 
 945              		.section	.data.oled_buffer,"aw",%progbits
 946              		.align	2
 947              		.set	.LANCHOR1,. + 0
 948              		.type	oled_buffer, %object
 949              		.size	oled_buffer, 28
 950              	oled_buffer:
 951 0000 82       		.byte	-126
 952 0001 40       		.byte	64
 953 0002 09       		.byte	9
 954 0003 08       		.byte	8
 955 0004 00000000 		.word	oled_buffer_dirty
 956 0008 00000000 		.word	oled_buffer_pixels
 957 000c 0000     		.short	0
ARM GAS  /tmp/ccDXso2P.s 			page 18


 958 000e 0000     		.short	0
 959 0010 8100     		.short	129
 960 0012 3F00     		.short	63
 961 0014 0000     		.short	0
 962 0016 0000     		.short	0
 963 0018 00       		.byte	0
 964 0019 000000   		.space	3
 965              		.section	.rodata.SPI1_Config.10454,"a",%progbits
 966              		.align	2
 967              		.set	.LANCHOR5,. + 0
 968              		.type	SPI1_Config.10454, %object
 969              		.size	SPI1_Config.10454, 16
 970              	SPI1_Config.10454:
 971 0000 00000000 		.space	4
 972 0004 00000000 		.word	0
 973 0008 00000000 		.space	4
 974 000c 1000     		.short	16
 975 000e 0000     		.short	0
 976              		.section	.rodata.adc_config,"a",%progbits
 977              		.align	2
 978              		.set	.LANCHOR0,. + 0
 979              		.type	adc_config, %object
 980              		.size	adc_config, 1
 981              	adc_config:
 982 0000 00       		.space	1
 983              		.section	.rodata.adc_group,"a",%progbits
 984              		.align	2
 985              		.set	.LANCHOR3,. + 0
 986              		.type	adc_group, %object
 987              		.size	adc_group, 44
 988              	adc_group:
 989 0000 00       		.byte	0
 990 0001 00       		.space	1
 991 0002 0100     		.short	1
 992 0004 00000000 		.word	0
 993 0008 00000000 		.word	0
 994 000c 00000000 		.word	0
 995 0010 00000040 		.word	1073741824
 996 0014 00000000 		.word	0
 997 0018 00000C00 		.word	786432
 998 001c 0000     		.short	0
 999 001e 0000     		.short	0
 1000 0020 00000000 		.word	0
 1001 0024 00000000 		.word	0
 1002 0028 06000000 		.word	6
 1003              		.section	.rodata.end_tab,"a",%progbits
 1004              		.align	2
 1005              		.type	end_tab, %object
 1006              		.size	end_tab, 12
 1007              	end_tab:
 1008 0000 00000000 		.space	12
 1008      00000000 
 1008      00000000 
 1009              		.text
 1010              	.Letext0:
 1011              		.file 5 "/usr/lib/gcc/arm-none-eabi/7.3.1/include/stddef.h"
 1012              		.file 6 "/usr/arm-none-eabi/include/machine/_default_types.h"
ARM GAS  /tmp/ccDXso2P.s 			page 19


 1013              		.file 7 "/usr/arm-none-eabi/include/sys/_stdint.h"
 1014              		.file 8 "./RM18A-ChibiOS18-Core/chibios/os/common/ports/ARMCMx/compilers/GCC/chtypes.h"
 1015              		.file 9 "./RM18A-ChibiOS18-Core/chibios/os/rt/include/chsystypes.h"
 1016              		.file 10 "./RM18A-ChibiOS18-Core/chibios/os/rt/include/chschd.h"
 1017              		.file 11 "./RM18A-ChibiOS18-Core/chibios/os/rt/include/chtime.h"
 1018              		.file 12 "./RM18A-ChibiOS18-Core/chibios/os/common/ext/ARM/CMSIS/Core/Include/core_cm4.h"
 1019              		.file 13 "./RM18A-ChibiOS18-Core/chibios/os/common/ext/ST/STM32F4xx/system_stm32f4xx.h"
 1020              		.file 14 "./RM18A-ChibiOS18-Core/chibios/os/common/ext/ST/STM32F4xx/stm32f427xx.h"
 1021              		.file 15 "./RM18A-ChibiOS18-Core/chibios/os/common/ports/ARMCMx/chcore.h"
 1022              		.file 16 "./RM18A-ChibiOS18-Core/chibios/os/common/ports/ARMCMx/chcore_v7m.h"
 1023              		.file 17 "./RM18A-ChibiOS18-Core/chibios/os/hal/ports/STM32/LLD/TIMv1/stm32_tim.h"
 1024              		.file 18 "./RM18A-ChibiOS18-Core/chibios/os/rt/include/chtm.h"
 1025              		.file 19 "./RM18A-ChibiOS18-Core/chibios/os/rt/include/chsem.h"
 1026              		.file 20 "./RM18A-ChibiOS18-Core/chibios/os/rt/include/chmtx.h"
 1027              		.file 21 "./RM18A-ChibiOS18-Core/chibios/os/rt/include/chsys.h"
 1028              		.file 22 "./RM18A-ChibiOS18-Core/chibios/os/rt/include/chregistry.h"
 1029              		.file 23 "./RM18A-ChibiOS18-Core/chibios/os/rt/include/chevents.h"
 1030              		.file 24 "./RM18A-ChibiOS18-Core/chibios/os/oslib/include/chmemcore.h"
 1031              		.file 25 "./RM18A-ChibiOS18-Core/chibios/os/oslib/include/chmempools.h"
 1032              		.file 26 "./RM18A-ChibiOS18-Core/chibios/os/oslib/include/chfactory.h"
 1033              		.file 27 "./RM18A-ChibiOS18-Core/chibios/os/hal/ports/STM32/LLD/DMAv2/stm32_dma.h"
 1034              		.file 28 "./RM18A-ChibiOS18-Core/chibios/os/hal/include/hal_queues.h"
 1035              		.file 29 "./RM18A-ChibiOS18-Core/chibios/os/hal/include/hal_pal.h"
 1036              		.file 30 "./RM18A-ChibiOS18-Core/chibios/os/hal/ports/STM32/LLD/GPIOv2/hal_pal_lld.h"
 1037              		.file 31 "./RM18A-ChibiOS18-Core/chibios/os/hal/include/hal_adc.h"
 1038              		.file 32 "./RM18A-ChibiOS18-Core/chibios/os/hal/ports/STM32/LLD/ADCv2/hal_adc_lld.h"
 1039              		.file 33 "./RM18A-ChibiOS18-Core/chibios/os/hal/include/hal_can.h"
 1040              		.file 34 "./RM18A-ChibiOS18-Core/chibios/os/hal/ports/STM32/LLD/CANv1/hal_can_lld.h"
 1041              		.file 35 "./RM18A-ChibiOS18-Core/chibios/os/hal/include/hal_icu.h"
 1042              		.file 36 "./RM18A-ChibiOS18-Core/chibios/os/hal/ports/STM32/LLD/TIMv1/hal_icu_lld.h"
 1043              		.file 37 "./RM18A-ChibiOS18-Core/chibios/os/hal/include/hal_pwm.h"
 1044              		.file 38 "./RM18A-ChibiOS18-Core/chibios/os/hal/ports/STM32/LLD/TIMv1/hal_pwm_lld.h"
 1045              		.file 39 "./RM18A-ChibiOS18-Core/chibios/os/hal/include/hal_serial.h"
 1046              		.file 40 "./RM18A-ChibiOS18-Core/chibios/os/hal/ports/STM32/LLD/USARTv1/hal_serial_lld.h"
 1047              		.file 41 "./RM18A-ChibiOS18-Core/chibios/os/hal/include/hal_spi.h"
 1048              		.file 42 "./RM18A-ChibiOS18-Core/chibios/os/hal/ports/STM32/LLD/SPIv1/hal_spi_lld.h"
 1049              		.file 43 "./RM18A-ChibiOS18-Core/chibios/os/hal/include/hal_uart.h"
 1050              		.file 44 "./RM18A-ChibiOS18-Core/chibios/os/hal/ports/STM32/LLD/USARTv1/hal_uart_lld.h"
 1051              		.file 45 "./RM18A-ChibiOS18-Core/chibios/os/hal/include/hal_usb.h"
 1052              		.file 46 "./RM18A-ChibiOS18-Core/chibios/os/hal/ports/STM32/LLD/OTGv1/hal_usb_lld.h"
 1053              		.file 47 "./RM18A-ChibiOS18-Core/chibios/os/hal/ports/STM32/LLD/OTGv1/stm32_otg.h"
 1054              		.file 48 "./RM18A-ChibiOS18-Core/src/ext_hw/SH1106.h"
 1055              		.file 49 "./RM18A-ChibiOS18-Core/src/diagnostics/MonitorManager.h"
 1056              		.file 50 "/usr/arm-none-eabi/include/sys/lock.h"
 1057              		.file 51 "/usr/arm-none-eabi/include/sys/_types.h"
 1058              		.file 52 "/usr/arm-none-eabi/include/sys/reent.h"
 1059              		.file 53 "./RM18A-ChibiOS18-Core/chibios/os/rt/include/chvt.h"
 1060              		.file 54 "./RM18A-ChibiOS18-Core/chibios/os/common/ports/ARMCMx/chcore_timer.h"
 1061              		.file 55 "/usr/arm-none-eabi/include/string.h"