ARM GAS  /tmp/cccZR9D9.s 			page 1


   1              		.cpu cortex-m4
   2              		.eabi_attribute 27, 1
   3              		.eabi_attribute 28, 1
   4              		.eabi_attribute 20, 1
   5              		.eabi_attribute 21, 1
   6              		.eabi_attribute 23, 3
   7              		.eabi_attribute 24, 1
   8              		.eabi_attribute 25, 1
   9              		.eabi_attribute 26, 1
  10              		.eabi_attribute 30, 2
  11              		.eabi_attribute 34, 1
  12              		.eabi_attribute 18, 4
  13              		.file	"motor_status.c"
  14              		.text
  15              	.Ltext0:
  16              		.cfi_sections	.debug_frame
  17              		.section	.text.motor_status_btn_handler,"ax",%progbits
  18              		.align	1
  19              		.p2align 2,,3
  20              		.syntax unified
  21              		.thumb
  22              		.thumb_func
  23              		.fpu fpv4-sp-d16
  24              		.type	motor_status_btn_handler, %function
  25              	motor_status_btn_handler:
  26              	.LFB328:
  27              		.file 1 "./RM18A-ChibiOS18-Core/src/diagnostics/motor_status.c"
  28              		.loc 1 34 0
  29              		.cfi_startproc
  30              		@ args = 0, pretend = 0, frame = 0
  31              		@ frame_needed = 0, uses_anonymous_args = 0
  32              		@ link register save eliminated.
  33              	.LVL0:
  34              		.loc 1 36 0
  35 0000 7047     		bx	lr
  36              		.cfi_endproc
  37              	.LFE328:
  38              		.size	motor_status_btn_handler, .-motor_status_btn_handler
  39 0002 00BF     		.section	.text.motor_status_renderer,"ax",%progbits
  40              		.align	1
  41              		.p2align 2,,3
  42              		.syntax unified
  43              		.thumb
  44              		.thumb_func
  45              		.fpu fpv4-sp-d16
  46              		.type	motor_status_renderer, %function
  47              	motor_status_renderer:
  48              	.LFB327:
  49              		.loc 1 20 0
  50              		.cfi_startproc
  51              		@ args = 0, pretend = 0, frame = 0
  52              		@ frame_needed = 0, uses_anonymous_args = 0
  53              	.LVL1:
  54              	.LBB2:
  55              		.loc 1 24 0
  56 0000 3E4B     		ldr	r3, .L27
  57              	.LBE2:
ARM GAS  /tmp/cccZR9D9.s 			page 2


  58              		.loc 1 20 0
  59 0002 2DE9F041 		push	{r4, r5, r6, r7, r8, lr}
  60              		.cfi_def_cfa_offset 24
  61              		.cfi_offset 4, -24
  62              		.cfi_offset 5, -20
  63              		.cfi_offset 6, -16
  64              		.cfi_offset 7, -12
  65              		.cfi_offset 8, -8
  66              		.cfi_offset 14, -4
  67              	.LBB3:
  68              		.loc 1 24 0
  69 0006 9D7E     		ldrb	r5, [r3, #26]	@ zero_extendqisi2
  70 0008 93F83E10 		ldrb	r1, [r3, #62]	@ zero_extendqisi2
  71              	.LVL2:
  72 000c 93F86220 		ldrb	r2, [r3, #98]	@ zero_extendqisi2
  73 0010 3B4C     		ldr	r4, .L27+4
  74 0012 93F88660 		ldrb	r6, [r3, #134]	@ zero_extendqisi2
  75 0016 93F8F280 		ldrb	r8, [r3, #242]	@ zero_extendqisi2
  76 001a 93F81671 		ldrb	r7, [r3, #278]	@ zero_extendqisi2
  77 001e 93F83AC1 		ldrb	ip, [r3, #314]	@ zero_extendqisi2
  78 0022 002D     		cmp	r5, #0
  79 0024 14BF     		ite	ne
  80 0026 4FF0560E 		movne	lr, #86
  81 002a 4FF02D0E 		moveq	lr, #45
  82 002e 0029     		cmp	r1, #0
  83 0030 93F8AA50 		ldrb	r5, [r3, #170]	@ zero_extendqisi2
  84 0034 84F801E0 		strb	lr, [r4, #1]
  85              	.LVL3:
  86 0038 14BF     		ite	ne
  87 003a 5621     		movne	r1, #86
  88 003c 2D21     		moveq	r1, #45
  89 003e 002A     		cmp	r2, #0
  90 0040 18BF     		it	ne
  91 0042 4FF0560E 		movne	lr, #86
  92 0046 93F8CE20 		ldrb	r2, [r3, #206]	@ zero_extendqisi2
  93 004a 6171     		strb	r1, [r4, #5]
  94              	.LVL4:
  95 004c 08BF     		it	eq
  96 004e 4FF02D0E 		moveq	lr, #45
  97 0052 002E     		cmp	r6, #0
  98 0054 14BF     		ite	ne
  99 0056 5626     		movne	r6, #86
 100 0058 2D26     		moveq	r6, #45
 101 005a 002D     		cmp	r5, #0
 102 005c 14BF     		ite	ne
 103 005e 5625     		movne	r5, #86
 104 0060 2D25     		moveq	r5, #45
 105 0062 002A     		cmp	r2, #0
 106 0064 14BF     		ite	ne
 107 0066 5622     		movne	r2, #86
 108 0068 2D22     		moveq	r2, #45
 109 006a B8F1000F 		cmp	r8, #0
 110 006e 14BF     		ite	ne
 111 0070 5621     		movne	r1, #86
 112 0072 2D21     		moveq	r1, #45
 113 0074 002F     		cmp	r7, #0
 114 0076 93F85E71 		ldrb	r7, [r3, #350]	@ zero_extendqisi2
ARM GAS  /tmp/cccZR9D9.s 			page 3


 115 007a 6673     		strb	r6, [r4, #13]
 116 007c 93F88231 		ldrb	r3, [r3, #386]	@ zero_extendqisi2
 117 0080 6574     		strb	r5, [r4, #17]
 118 0082 14BF     		ite	ne
 119 0084 5626     		movne	r6, #86
 120 0086 2D26     		moveq	r6, #45
 121 0088 BCF1000F 		cmp	ip, #0
 122 008c 14BF     		ite	ne
 123 008e 5625     		movne	r5, #86
 124 0090 2D25     		moveq	r5, #45
 125 0092 002F     		cmp	r7, #0
 126 0094 6275     		strb	r2, [r4, #21]
 127 0096 14BF     		ite	ne
 128 0098 5622     		movne	r2, #86
 129 009a 2D22     		moveq	r2, #45
 130 009c 002B     		cmp	r3, #0
 131              	.LBE3:
 132              		.loc 1 20 0
 133 009e 84B0     		sub	sp, sp, #16
 134              		.cfi_def_cfa_offset 40
 135              	.LBB4:
 136              		.loc 1 24 0
 137 00a0 14BF     		ite	ne
 138 00a2 5623     		movne	r3, #86
 139 00a4 2D23     		moveq	r3, #45
 140 00a6 6176     		strb	r1, [r4, #25]
 141              	.LBE4:
 142              		.loc 1 27 0
 143 00a8 0121     		movs	r1, #1
 144              	.LBB5:
 145              		.loc 1 24 0
 146 00aa 84F809E0 		strb	lr, [r4, #9]
 147              	.LVL5:
 148 00ae 6677     		strb	r6, [r4, #29]
 149              	.LVL6:
 150 00b0 84F82150 		strb	r5, [r4, #33]
 151              	.LVL7:
 152 00b4 84F82520 		strb	r2, [r4, #37]
 153              	.LVL8:
 154              	.LBE5:
 155              		.loc 1 20 0
 156 00b8 0546     		mov	r5, r0
 157              	.LBB6:
 158              		.loc 1 24 0
 159 00ba 84F82930 		strb	r3, [r4, #41]
 160              	.LVL9:
 161              	.LBE6:
 162              		.loc 1 27 0
 163 00be FFF7FEFF 		bl	OLED_setMode
 164              	.LVL10:
 165              		.loc 1 28 0
 166 00c2 0022     		movs	r2, #0
 167 00c4 3623     		movs	r3, #54
 168 00c6 1146     		mov	r1, r2
 169 00c8 2846     		mov	r0, r5
 170 00ca 0093     		str	r3, [sp]
 171 00cc 7F23     		movs	r3, #127
ARM GAS  /tmp/cccZR9D9.s 			page 4


 172 00ce FFF7FEFF 		bl	OLED_fill
 173              	.LVL11:
 174              		.loc 1 29 0
 175 00d2 2846     		mov	r0, r5
 176 00d4 0021     		movs	r1, #0
 177 00d6 FFF7FEFF 		bl	OLED_setMode
 178              	.LVL12:
 179              		.loc 1 30 0
 180 00da 0126     		movs	r6, #1
 181 00dc 0522     		movs	r2, #5
 182 00de 1021     		movs	r1, #16
 183 00e0 3223     		movs	r3, #50
 184 00e2 CDE90216 		strd	r1, r6, [sp, #8]
 185 00e6 0093     		str	r3, [sp]
 186 00e8 0194     		str	r4, [sp, #4]
 187 00ea 2846     		mov	r0, r5
 188 00ec 1146     		mov	r1, r2
 189 00ee 7623     		movs	r3, #118
 190 00f0 FFF7FEFF 		bl	OLED_drawString
 191              	.LVL13:
 192              		.loc 1 31 0
 193 00f4 04B0     		add	sp, sp, #16
 194              		.cfi_def_cfa_offset 24
 195              		@ sp needed
 196 00f6 BDE8F081 		pop	{r4, r5, r6, r7, r8, pc}
 197              	.LVL14:
 198              	.L28:
 199 00fa 00BF     		.align	2
 200              	.L27:
 201 00fc 00000000 		.word	g_motors
 202 0100 00000000 		.word	.LANCHOR0
 203              		.cfi_endproc
 204              	.LFE327:
 205              		.size	motor_status_renderer, .-motor_status_renderer
 206              		.global	motor_tab
 207              		.global	offset
 208              		.global	status_msg
 209              		.section	.data.status_msg,"aw",%progbits
 210              		.align	2
 211              		.set	.LANCHOR0,. + 0
 212              		.type	status_msg, %object
 213              		.size	status_msg, 43
 214              	status_msg:
 215 0000 20582020 		.ascii	" X   X   X   X \012 X   X   X   X \012 X   X   X\000"
 215      20582020 
 215      20582020 
 215      2058200A 
 215      20582020 
 216              		.section	.data.tab_name,"aw",%progbits
 217              		.align	2
 218              		.type	tab_name, %object
 219              		.size	tab_name, 7
 220              	tab_name:
 221 0000 6D6F746F 		.ascii	"motors\000"
 221      727300
 222              		.section	.rodata.motor_tab,"a",%progbits
 223              		.align	2
ARM GAS  /tmp/cccZR9D9.s 			page 5


 224              		.type	motor_tab, %object
 225              		.size	motor_tab, 12
 226              	motor_tab:
 227 0000 00000000 		.word	tab_name
 228 0004 00000000 		.word	motor_status_renderer
 229 0008 00000000 		.word	motor_status_btn_handler
 230              		.section	.rodata.offset,"a",%progbits
 231              		.type	offset, %object
 232              		.size	offset, 1
 233              	offset:
 234 0000 01       		.byte	1
 235              		.text
 236              	.Letext0:
 237              		.file 2 "/usr/lib/gcc/arm-none-eabi/7.3.1/include/stddef.h"
 238              		.file 3 "/usr/arm-none-eabi/include/machine/_default_types.h"
 239              		.file 4 "/usr/arm-none-eabi/include/sys/_stdint.h"
 240              		.file 5 "./RM18A-ChibiOS18-Core/chibios/os/common/ports/ARMCMx/compilers/GCC/chtypes.h"
 241              		.file 6 "./RM18A-ChibiOS18-Core/chibios/os/rt/include/chsystypes.h"
 242              		.file 7 "./RM18A-ChibiOS18-Core/chibios/os/rt/include/chschd.h"
 243              		.file 8 "./RM18A-ChibiOS18-Core/chibios/os/rt/include/chtime.h"
 244              		.file 9 "./RM18A-ChibiOS18-Core/chibios/os/common/ext/ARM/CMSIS/Core/Include/core_cm4.h"
 245              		.file 10 "./RM18A-ChibiOS18-Core/chibios/os/common/ext/ST/STM32F4xx/system_stm32f4xx.h"
 246              		.file 11 "./RM18A-ChibiOS18-Core/chibios/os/common/ext/ST/STM32F4xx/stm32f427xx.h"
 247              		.file 12 "./RM18A-ChibiOS18-Core/chibios/os/common/ports/ARMCMx/chcore.h"
 248              		.file 13 "./RM18A-ChibiOS18-Core/chibios/os/common/ports/ARMCMx/chcore_v7m.h"
 249              		.file 14 "./RM18A-ChibiOS18-Core/chibios/os/hal/ports/STM32/LLD/TIMv1/stm32_tim.h"
 250              		.file 15 "./RM18A-ChibiOS18-Core/chibios/os/rt/include/chtm.h"
 251              		.file 16 "./RM18A-ChibiOS18-Core/chibios/os/rt/include/chsem.h"
 252              		.file 17 "./RM18A-ChibiOS18-Core/chibios/os/rt/include/chmtx.h"
 253              		.file 18 "./RM18A-ChibiOS18-Core/chibios/os/rt/include/chsys.h"
 254              		.file 19 "./RM18A-ChibiOS18-Core/chibios/os/rt/include/chregistry.h"
 255              		.file 20 "./RM18A-ChibiOS18-Core/chibios/os/rt/include/chevents.h"
 256              		.file 21 "./RM18A-ChibiOS18-Core/chibios/os/oslib/include/chmemcore.h"
 257              		.file 22 "./RM18A-ChibiOS18-Core/chibios/os/oslib/include/chmempools.h"
 258              		.file 23 "./RM18A-ChibiOS18-Core/chibios/os/oslib/include/chfactory.h"
 259              		.file 24 "./RM18A-ChibiOS18-Core/chibios/os/hal/ports/STM32/LLD/DMAv2/stm32_dma.h"
 260              		.file 25 "./RM18A-ChibiOS18-Core/chibios/os/hal/include/hal_queues.h"
 261              		.file 26 "./RM18A-ChibiOS18-Core/chibios/os/hal/include/hal_pal.h"
 262              		.file 27 "./RM18A-ChibiOS18-Core/chibios/os/hal/ports/STM32/LLD/GPIOv2/hal_pal_lld.h"
 263              		.file 28 "./RM18A-ChibiOS18-Core/chibios/os/hal/include/hal_adc.h"
 264              		.file 29 "./RM18A-ChibiOS18-Core/chibios/os/hal/ports/STM32/LLD/ADCv2/hal_adc_lld.h"
 265              		.file 30 "./RM18A-ChibiOS18-Core/chibios/os/hal/include/hal_can.h"
 266              		.file 31 "./RM18A-ChibiOS18-Core/chibios/os/hal/ports/STM32/LLD/CANv1/hal_can_lld.h"
 267              		.file 32 "./RM18A-ChibiOS18-Core/chibios/os/hal/include/hal_i2c.h"
 268              		.file 33 "./RM18A-ChibiOS18-Core/chibios/os/hal/lib/fallback/I2C/hal_i2c_lld.h"
 269              		.file 34 "./RM18A-ChibiOS18-Core/chibios/os/hal/include/hal_icu.h"
 270              		.file 35 "./RM18A-ChibiOS18-Core/chibios/os/hal/ports/STM32/LLD/TIMv1/hal_icu_lld.h"
 271              		.file 36 "./RM18A-ChibiOS18-Core/chibios/os/hal/include/hal_pwm.h"
 272              		.file 37 "./RM18A-ChibiOS18-Core/chibios/os/hal/ports/STM32/LLD/TIMv1/hal_pwm_lld.h"
 273              		.file 38 "./RM18A-ChibiOS18-Core/chibios/os/hal/include/hal_serial.h"
 274              		.file 39 "./RM18A-ChibiOS18-Core/chibios/os/hal/ports/STM32/LLD/USARTv1/hal_serial_lld.h"
 275              		.file 40 "./RM18A-ChibiOS18-Core/chibios/os/hal/include/hal_spi.h"
 276              		.file 41 "./RM18A-ChibiOS18-Core/chibios/os/hal/ports/STM32/LLD/SPIv1/hal_spi_lld.h"
 277              		.file 42 "./RM18A-ChibiOS18-Core/chibios/os/hal/include/hal_uart.h"
 278              		.file 43 "./RM18A-ChibiOS18-Core/chibios/os/hal/ports/STM32/LLD/USARTv1/hal_uart_lld.h"
 279              		.file 44 "./RM18A-ChibiOS18-Core/chibios/os/hal/include/hal_usb.h"
 280              		.file 45 "./RM18A-ChibiOS18-Core/chibios/os/hal/ports/STM32/LLD/OTGv1/hal_usb_lld.h"
ARM GAS  /tmp/cccZR9D9.s 			page 6


 281              		.file 46 "./RM18A-ChibiOS18-Core/chibios/os/hal/ports/STM32/LLD/OTGv1/stm32_otg.h"
 282              		.file 47 "./RM18A-ChibiOS18-Core/src/peripherals/CAN_Manager.h"
 283              		.file 48 "./RM18A-ChibiOS18-Core/src/ext_hw/motor.h"
 284              		.file 49 "./RM18A-ChibiOS18-Core/src/ext_hw/SH1106.h"
 285              		.file 50 "./RM18A-ChibiOS18-Core/src/diagnostics/MonitorManager.h"