ARM GAS  /tmp/ccTPQ2Ry.s 			page 1


   1              		.cpu cortex-m4
   2              		.eabi_attribute 27, 1
   3              		.eabi_attribute 28, 1
   4              		.eabi_attribute 20, 1
   5              		.eabi_attribute 21, 1
   6              		.eabi_attribute 23, 3
   7              		.eabi_attribute 24, 1
   8              		.eabi_attribute 25, 1
   9              		.eabi_attribute 26, 1
  10              		.eabi_attribute 30, 2
  11              		.eabi_attribute 34, 1
  12              		.eabi_attribute 18, 4
  13              		.file	"MotorControlImpl.cpp"
  14              		.text
  15              	.Ltext0:
  16              		.cfi_sections	.debug_frame
  17              		.global	__aeabi_f2d
  18              		.global	__aeabi_dmul
  19              		.global	__aeabi_ddiv
  20              		.global	__aeabi_d2iz
  21              		.section	.text._ZN12MotorControl17GenericControllerINS_6PID_awENS_13PID_aw_paramsENS_14GM3510Acces
  22              		.align	1
  23              		.p2align 2,,3
  24              		.global	_ZN12MotorControl17GenericControllerINS_6PID_awENS_13PID_aw_paramsENS_14GM3510AccessorEE15
  25              		.syntax unified
  26              		.thumb
  27              		.thumb_func
  28              		.fpu fpv4-sp-d16
  29              		.type	_ZN12MotorControl17GenericControllerINS_6PID_awENS_13PID_aw_paramsENS_14GM3510AccessorEE15br
  30              	_ZN12MotorControl17GenericControllerINS_6PID_awENS_13PID_aw_paramsENS_14GM3510AccessorEE15broadcast
  31              	.LFB1775:
  32              		.file 1 "./RM18A-ChibiOS18-Core/src/controller/MotorControlImpl.cpp"
  33              		.loc 1 17 0
  34              		.cfi_startproc
  35              		@ args = 0, pretend = 0, frame = 0
  36              		@ frame_needed = 0, uses_anonymous_args = 0
  37              	.LVL0:
  38              		.loc 1 19 0
  39 0000 90F86430 		ldrb	r3, [r0, #100]	@ zero_extendqisi2
  40              		.loc 1 22 0
  41 0004 022B     		cmp	r3, #2
  42              		.loc 1 17 0
  43 0006 2DE9F041 		push	{r4, r5, r6, r7, r8, lr}
  44              		.cfi_def_cfa_offset 24
  45              		.cfi_offset 4, -24
  46              		.cfi_offset 5, -20
  47              		.cfi_offset 6, -16
  48              		.cfi_offset 7, -12
  49              		.cfi_offset 8, -8
  50              		.cfi_offset 14, -4
  51              		.loc 1 17 0
  52 000a 0446     		mov	r4, r0
  53              		.loc 1 22 0
  54 000c 6FD0     		beq	.L27
  55              		.loc 1 22 0 is_stmt 0 discriminator 1
  56 000e 032B     		cmp	r3, #3
  57 0010 28D0     		beq	.L28
ARM GAS  /tmp/ccTPQ2Ry.s 			page 2


  58              	.LVL1:
  59              	.L25:
  60              		.loc 1 39 0 is_stmt 1
  61 0012 0023     		movs	r3, #0
  62 0014 84F87C30 		strb	r3, [r4, #124]
  63              	.L11:
  64              		.loc 1 46 0
  65 0018 94F87630 		ldrb	r3, [r4, #118]	@ zero_extendqisi2
  66 001c 03B3     		cbz	r3, .L1
  67              	.LBB109:
  68              	.LBB110:
  69              		.file 2 "./RM18A-ChibiOS18-Core/src/controller/MotorControl.hpp"
  70              		.loc 2 137 0
  71 001e 626A     		ldr	r2, [r4, #36]
  72              	.LBE110:
  73              	.LBE109:
  74              		.loc 1 48 0
  75 0020 236F     		ldr	r3, [r4, #112]
  76 0022 D268     		ldr	r2, [r2, #12]
  77 0024 94ED077A 		vldr.32	s14, [r4, #28]	@ int
  78 0028 9B1A     		subs	r3, r3, r2
  79 002a 07EE903A 		vmov	s15, r3	@ int
  80 002e F8EEE77A 		vcvt.f32.s32	s15, s15
  81 0032 B8EEC77A 		vcvt.f32.s32	s14, s14
  82 0036 F0EEE77A 		vabs.f32	s15, s15
  83 003a F4EEC77A 		vcmpe.f32	s15, s14
  84 003e F1EE10FA 		vmrs	APSR_nzcv, FPSCR
  85 0042 4FD5     		bpl	.L23
  86              		.loc 1 51 0
  87 0044 94F87430 		ldrb	r3, [r4, #116]	@ zero_extendqisi2
  88 0048 002B     		cmp	r3, #0
  89 004a 00F09D80 		beq	.L29
  90              	.LVL2:
  91              	.LBB111:
  92              	.LBB112:
  93              	.LBB113:
  94              	.LBB114:
  95              	.LBB115:
  96              		.file 3 "./RM18A-ChibiOS18-Core/chibios/os/hal/ports/STM32/LLD/TIMv1/hal_st_lld.h"
  97              		.loc 3 147 0
  98 004e 4FF08043 		mov	r3, #1073741824
  99              	.LBE115:
 100              	.LBE114:
 101              	.LBE113:
 102              	.LBE112:
 103              	.LBB119:
 104              	.LBB120:
 105              		.file 4 "./RM18A-ChibiOS18-Core/chibios/os/rt/include/chtime.h"
 106              		.loc 4 464 0
 107 0052 A16F     		ldr	r1, [r4, #120]
 108              	.LBE120:
 109              	.LBE119:
 110              	.LBB122:
 111              	.LBB118:
 112              	.LBB117:
 113              	.LBB116:
 114              		.loc 3 147 0
ARM GAS  /tmp/ccTPQ2Ry.s 			page 3


 115 0054 5B6A     		ldr	r3, [r3, #36]
 116              	.LVL3:
 117              	.LBE116:
 118              	.LBE117:
 119              	.LBE118:
 120              	.LBE122:
 121              	.LBE111:
 122              		.loc 1 56 0
 123 0056 A269     		ldr	r2, [r4, #24]
 124              	.LBB124:
 125              	.LBB123:
 126              	.LBB121:
 127              		.loc 4 464 0
 128 0058 5B1A     		subs	r3, r3, r1
 129              	.LBE121:
 130              	.LBE123:
 131              	.LBE124:
 132              		.loc 1 56 0
 133 005a 9A42     		cmp	r2, r3
 134 005c 40F2B780 		bls	.L30
 135              	.L1:
 136              		.loc 1 68 0
 137 0060 BDE8F081 		pop	{r4, r5, r6, r7, r8, pc}
 138              	.LVL4:
 139              	.L28:
 140              	.LBB125:
 141              	.LBB126:
 142              		.loc 2 137 0
 143 0064 456A     		ldr	r5, [r0, #36]
 144              	.LVL5:
 145              	.LBE126:
 146              	.LBE125:
 147              		.loc 1 24 0
 148 0066 036F     		ldr	r3, [r0, #112]
 149 0068 EA68     		ldr	r2, [r5, #12]
 150 006a 90ED077A 		vldr.32	s14, [r0, #28]	@ int
 151 006e 9B1A     		subs	r3, r3, r2
 152 0070 07EE903A 		vmov	s15, r3	@ int
 153 0074 F8EEE77A 		vcvt.f32.s32	s15, s15
 154 0078 B8EEC77A 		vcvt.f32.s32	s14, s14
 155 007c F0EEE77A 		vabs.f32	s15, s15
 156              		.loc 1 23 0
 157 0080 F4EEC77A 		vcmpe.f32	s15, s14
 158 0084 F1EE10FA 		vmrs	APSR_nzcv, FPSCR
 159 0088 C3DD     		ble	.L25
 160 008a B5F90800 		ldrsh	r0, [r5, #8]
 161              	.LVL6:
 162 008e D4F81480 		ldr	r8, [r4, #20]
 163 0092 07EE900A 		vmov	s15, r0	@ int
 164 0096 F8EEE77A 		vcvt.f32.s32	s15, s15
 165 009a 17EE900A 		vmov	r0, s15
 166 009e FFF7FEFF 		bl	__aeabi_f2d
 167              	.LVL7:
 168 00a2 0022     		movs	r2, #0
 169 00a4 4F4B     		ldr	r3, .L31
 170 00a6 FFF7FEFF 		bl	__aeabi_dmul
 171              	.LVL8:
ARM GAS  /tmp/ccTPQ2Ry.s 			page 4


 172 00aa D5ED077A 		vldr.32	s15, [r5, #28]	@ int
 173 00ae 9FED4E7A 		vldr.32	s14, .L31+4
 174 00b2 F8EE677A 		vcvt.f32.u32	s15, s15
 175 00b6 0646     		mov	r6, r0
 176 00b8 C7EE877A 		vdiv.f32	s15, s15, s14
 177 00bc 0F46     		mov	r7, r1
 178 00be 17EE900A 		vmov	r0, s15
 179 00c2 FFF7FEFF 		bl	__aeabi_f2d
 180              	.LVL9:
 181 00c6 0B46     		mov	r3, r1
 182 00c8 0246     		mov	r2, r0
 183 00ca 3946     		mov	r1, r7
 184 00cc 3046     		mov	r0, r6
 185 00ce FFF7FEFF 		bl	__aeabi_ddiv
 186              	.LVL10:
 187 00d2 FFF7FEFF 		bl	__aeabi_d2iz
 188              	.LVL11:
 189              		.loc 1 22 0
 190 00d6 E36E     		ldr	r3, [r4, #108]
 191 00d8 002B     		cmp	r3, #0
 192 00da 72DD     		ble	.L10
 193              	.LVL12:
 194              		.loc 1 25 0
 195 00dc 8045     		cmp	r8, r0
 196              	.LBB127:
 197              	.LBB128:
 198              		.loc 2 162 0
 199 00de A062     		str	r0, [r4, #40]
 200              	.LVL13:
 201              	.LBE128:
 202              	.LBE127:
 203              		.loc 1 25 0
 204 00e0 46DC     		bgt	.L8
 205 00e2 96E7     		b	.L25
 206              	.L23:
 207              		.loc 1 65 0
 208 00e4 0023     		movs	r3, #0
 209 00e6 84F87430 		strb	r3, [r4, #116]
 210              		.loc 1 68 0
 211 00ea BDE8F081 		pop	{r4, r5, r6, r7, r8, pc}
 212              	.LVL14:
 213              	.L27:
 214              	.LBB129:
 215              	.LBB130:
 216              		.loc 2 162 0
 217 00ee 456A     		ldr	r5, [r0, #36]
 218              	.LBE130:
 219              	.LBE129:
 220              		.loc 1 20 0
 221 00f0 D0F86C80 		ldr	r8, [r0, #108]
 222              	.LVL15:
 223              	.LBB133:
 224              	.LBB131:
 225              		.loc 2 162 0
 226 00f4 B5F90800 		ldrsh	r0, [r5, #8]
 227              	.LVL16:
 228 00f8 07EE900A 		vmov	s15, r0	@ int
ARM GAS  /tmp/ccTPQ2Ry.s 			page 5


 229 00fc F8EEE77A 		vcvt.f32.s32	s15, s15
 230 0100 17EE900A 		vmov	r0, s15
 231 0104 FFF7FEFF 		bl	__aeabi_f2d
 232              	.LVL17:
 233 0108 0022     		movs	r2, #0
 234 010a 364B     		ldr	r3, .L31
 235 010c FFF7FEFF 		bl	__aeabi_dmul
 236              	.LVL18:
 237              		.loc 2 163 0
 238 0110 D5ED077A 		vldr.32	s15, [r5, #28]	@ int
 239 0114 9FED347A 		vldr.32	s14, .L31+4
 240 0118 F8EE677A 		vcvt.f32.u32	s15, s15
 241              		.loc 2 162 0
 242 011c 0646     		mov	r6, r0
 243              		.loc 2 163 0
 244 011e C7EE877A 		vdiv.f32	s15, s15, s14
 245              		.loc 2 162 0
 246 0122 0F46     		mov	r7, r1
 247              		.loc 2 163 0
 248 0124 17EE900A 		vmov	r0, s15
 249 0128 FFF7FEFF 		bl	__aeabi_f2d
 250              	.LVL19:
 251              		.loc 2 162 0
 252 012c 0B46     		mov	r3, r1
 253 012e 0246     		mov	r2, r0
 254 0130 3946     		mov	r1, r7
 255 0132 3046     		mov	r0, r6
 256 0134 FFF7FEFF 		bl	__aeabi_ddiv
 257              	.LVL20:
 258 0138 FFF7FEFF 		bl	__aeabi_d2iz
 259              	.LVL21:
 260              	.LBE131:
 261              	.LBE133:
 262              		.loc 1 20 0
 263 013c A8EB0003 		sub	r3, r8, r0
 264 0140 07EE903A 		vmov	s15, r3	@ int
 265 0144 6369     		ldr	r3, [r4, #20]
 266              	.LBB134:
 267              	.LBB132:
 268              		.loc 2 162 0
 269 0146 A062     		str	r0, [r4, #40]
 270              	.LVL22:
 271              	.LBE132:
 272              	.LBE134:
 273              		.loc 1 20 0
 274 0148 07EE103A 		vmov	s14, r3	@ int
 275 014c F8EEE77A 		vcvt.f32.s32	s15, s15
 276 0150 B8EE477A 		vcvt.f32.u32	s14, s14
 277 0154 F0EEE77A 		vabs.f32	s15, s15
 278              		.loc 1 19 0
 279 0158 F4EEC77A 		vcmpe.f32	s15, s14
 280 015c F1EE10FA 		vmrs	APSR_nzcv, FPSCR
 281 0160 FFF657AF 		blt	.L25
 282              		.loc 1 22 0
 283 0164 B8F1000F 		cmp	r8, #0
 284 0168 27DD     		ble	.L5
 285              		.loc 1 20 0
ARM GAS  /tmp/ccTPQ2Ry.s 			page 6


 286 016a 9842     		cmp	r0, r3
 287 016c BFF651AF 		bge	.L25
 288              	.L8:
 289              		.loc 1 31 0
 290 0170 94F87C30 		ldrb	r3, [r4, #124]	@ zero_extendqisi2
 291 0174 8BB9     		cbnz	r3, .L6
 292              	.LBB135:
 293              	.LBB136:
 294              	.LBB137:
 295              	.LBB138:
 296              		.loc 3 147 0
 297 0176 4FF08042 		mov	r2, #1073741824
 298              	.LBE138:
 299              	.LBE137:
 300              	.LBE136:
 301              	.LBE135:
 302              		.loc 1 33 0
 303 017a 0123     		movs	r3, #1
 304              	.LBB142:
 305              	.LBB141:
 306              	.LBB140:
 307              	.LBB139:
 308              		.loc 3 147 0
 309 017c 526A     		ldr	r2, [r2, #36]
 310              	.LBE139:
 311              	.LBE140:
 312              	.LBE141:
 313              	.LBE142:
 314              		.loc 1 34 0
 315 017e C4F88020 		str	r2, [r4, #128]
 316              		.loc 1 33 0
 317 0182 84F87C30 		strb	r3, [r4, #124]
 318 0186 47E7     		b	.L11
 319              	.L29:
 320              	.LBB143:
 321              	.LBB144:
 322              	.LBB145:
 323              	.LBB146:
 324              		.loc 3 147 0
 325 0188 4FF08042 		mov	r2, #1073741824
 326              	.LBE146:
 327              	.LBE145:
 328              	.LBE144:
 329              	.LBE143:
 330              		.loc 1 54 0
 331 018c 0123     		movs	r3, #1
 332              	.LBB150:
 333              	.LBB149:
 334              	.LBB148:
 335              	.LBB147:
 336              		.loc 3 147 0
 337 018e 526A     		ldr	r2, [r2, #36]
 338              	.LBE147:
 339              	.LBE148:
 340              	.LBE149:
 341              	.LBE150:
 342              		.loc 1 53 0
ARM GAS  /tmp/ccTPQ2Ry.s 			page 7


 343 0190 A267     		str	r2, [r4, #120]
 344              		.loc 1 54 0
 345 0192 84F87430 		strb	r3, [r4, #116]
 346              		.loc 1 68 0
 347 0196 BDE8F081 		pop	{r4, r5, r6, r7, r8, pc}
 348              	.LVL23:
 349              	.L6:
 350              	.LBB151:
 351              	.LBB152:
 352              	.LBB153:
 353              	.LBB154:
 354              		.loc 3 147 0
 355 019a 4FF08043 		mov	r3, #1073741824
 356              	.LBE154:
 357              	.LBE153:
 358              	.LBE152:
 359              	.LBE151:
 360              	.LBB158:
 361              	.LBB159:
 362              		.loc 4 464 0
 363 019e D4F88010 		ldr	r1, [r4, #128]
 364              	.LBE159:
 365              	.LBE158:
 366              	.LBB161:
 367              	.LBB157:
 368              	.LBB156:
 369              	.LBB155:
 370              		.loc 3 147 0
 371 01a2 5B6A     		ldr	r3, [r3, #36]
 372              	.LBE155:
 373              	.LBE156:
 374              	.LBE157:
 375              	.LBE161:
 376              		.loc 1 36 0
 377 01a4 2269     		ldr	r2, [r4, #16]
 378              	.LBB162:
 379              	.LBB160:
 380              		.loc 4 464 0
 381 01a6 5B1A     		subs	r3, r3, r1
 382              	.LBE160:
 383              	.LBE162:
 384              		.loc 1 36 0
 385 01a8 9A42     		cmp	r2, r3
 386 01aa 3FF635AF 		bhi	.L11
 387              	.LVL24:
 388              	.LBB163:
 389              	.LBB164:
 390              		.file 5 "./RM18A-ChibiOS18-Core/chibios/os/various/cpp_wrappers/ch.hpp"
 391              		.loc 5 2430 0
 392 01ae 0121     		movs	r1, #1
 393 01b0 04F10C00 		add	r0, r4, #12
 394              	.LVL25:
 395 01b4 FFF7FEFF 		bl	chEvtBroadcastFlags
 396              	.LVL26:
 397 01b8 2BE7     		b	.L25
 398              	.LVL27:
 399              	.L5:
ARM GAS  /tmp/ccTPQ2Ry.s 			page 8


 400              	.LBE164:
 401              	.LBE163:
 402              		.loc 1 22 0 discriminator 2
 403 01ba 5B42     		negs	r3, r3
 404              		.loc 1 21 0 discriminator 2
 405 01bc 8342     		cmp	r3, r0
 406 01be D7DB     		blt	.L8
 407 01c0 27E7     		b	.L25
 408              	.L10:
 409              	.LVL28:
 410              		.loc 1 27 0
 411 01c2 C8F10008 		rsb	r8, r8, #0
 412              		.loc 1 26 0
 413 01c6 8045     		cmp	r8, r0
 414              	.LBB165:
 415              	.LBB166:
 416              		.loc 2 162 0
 417 01c8 A062     		str	r0, [r4, #40]
 418              	.LVL29:
 419              	.LBE166:
 420              	.LBE165:
 421              		.loc 1 26 0
 422 01ca D1DB     		blt	.L8
 423 01cc 21E7     		b	.L25
 424              	.L30:
 425              		.loc 1 59 0
 426 01ce 0023     		movs	r3, #0
 427 01d0 84F87630 		strb	r3, [r4, #118]
 428              	.LVL30:
 429              	.LBB167:
 430              	.LBB168:
 431              		.loc 5 2430 0
 432 01d4 04F10C00 		add	r0, r4, #12
 433              	.LVL31:
 434 01d8 0221     		movs	r1, #2
 435              	.LBE168:
 436              	.LBE167:
 437              		.loc 1 68 0
 438 01da BDE8F041 		pop	{r4, r5, r6, r7, r8, lr}
 439              		.cfi_restore 14
 440              		.cfi_restore 8
 441              		.cfi_restore 7
 442              		.cfi_restore 6
 443              		.cfi_restore 5
 444              		.cfi_restore 4
 445              		.cfi_def_cfa_offset 0
 446              	.LVL32:
 447              	.LBB170:
 448              	.LBB169:
 449              		.loc 5 2430 0
 450 01de FFF7FEBF 		b	chEvtBroadcastFlags
 451              	.LVL33:
 452              	.L32:
 453 01e2 00BF     		.align	2
 454              	.L31:
 455 01e4 0000203F 		.word	1059061760
 456 01e8 007C1249 		.word	1225948160
ARM GAS  /tmp/ccTPQ2Ry.s 			page 9


 457              	.LBE169:
 458              	.LBE170:
 459              		.cfi_endproc
 460              	.LFE1775:
 461              		.size	_ZN12MotorControl17GenericControllerINS_6PID_awENS_13PID_aw_paramsENS_14GM3510AccessorEE15br
 462              		.section	.text._ZN12MotorControl17GenericControllerINS_6PID_awENS_13PID_aw_paramsENS_14GM3510Acces
 463              		.align	1
 464              		.p2align 2,,3
 465              		.global	_ZN12MotorControl17GenericControllerINS_6PID_awENS_13PID_aw_paramsENS_14GM3510AccessorEE6u
 466              		.syntax unified
 467              		.thumb
 468              		.thumb_func
 469              		.fpu fpv4-sp-d16
 470              		.type	_ZN12MotorControl17GenericControllerINS_6PID_awENS_13PID_aw_paramsENS_14GM3510AccessorEE6upd
 471              	_ZN12MotorControl17GenericControllerINS_6PID_awENS_13PID_aw_paramsENS_14GM3510AccessorEE6updateEv:
 472              	.LFB1776:
 473              		.loc 1 72 0
 474              		.cfi_startproc
 475              		@ args = 0, pretend = 0, frame = 8
 476              		@ frame_needed = 0, uses_anonymous_args = 0
 477              	.LVL34:
 478 0000 2DE9F043 		push	{r4, r5, r6, r7, r8, r9, lr}
 479              		.cfi_def_cfa_offset 28
 480              		.cfi_offset 4, -28
 481              		.cfi_offset 5, -24
 482              		.cfi_offset 6, -20
 483              		.cfi_offset 7, -16
 484              		.cfi_offset 8, -12
 485              		.cfi_offset 9, -8
 486              		.cfi_offset 14, -4
 487              	.LBB224:
 488              	.LBB225:
 489              		.loc 2 139 0
 490 0004 456A     		ldr	r5, [r0, #36]
 491              	.LVL35:
 492              	.LBE225:
 493              	.LBE224:
 494              		.loc 1 72 0
 495 0006 2DED028B 		vpush.64	{d8}
 496              		.cfi_def_cfa_offset 36
 497              		.cfi_offset 80, -36
 498              		.cfi_offset 81, -32
 499              		.loc 1 73 0
 500 000a AB7E     		ldrb	r3, [r5, #26]	@ zero_extendqisi2
 501              		.loc 1 72 0
 502 000c 83B0     		sub	sp, sp, #12
 503              		.cfi_def_cfa_offset 48
 504              		.loc 1 73 0
 505 000e 23B9     		cbnz	r3, .L67
 506              	.LVL36:
 507              	.L33:
 508              		.loc 1 103 0
 509 0010 03B0     		add	sp, sp, #12
 510              		.cfi_remember_state
 511              		.cfi_def_cfa_offset 36
 512              		@ sp needed
 513 0012 BDEC028B 		vldm	sp!, {d8}
ARM GAS  /tmp/ccTPQ2Ry.s 			page 10


 514              		.cfi_restore 80
 515              		.cfi_restore 81
 516              		.cfi_def_cfa_offset 28
 517 0016 BDE8F083 		pop	{r4, r5, r6, r7, r8, r9, pc}
 518              	.LVL37:
 519              	.L67:
 520              		.cfi_restore_state
 521              	.LBB226:
 522              	.LBB227:
 523              		.loc 1 19 0
 524 001a 90F86430 		ldrb	r3, [r0, #100]	@ zero_extendqisi2
 525              		.loc 1 22 0
 526 001e 022B     		cmp	r3, #2
 527 0020 0446     		mov	r4, r0
 528              	.LVL38:
 529 0022 00F0B280 		beq	.L68
 530              	.LVL39:
 531 0026 032B     		cmp	r3, #3
 532 0028 36D0     		beq	.L69
 533              	.LVL40:
 534              	.L66:
 535              		.loc 1 39 0
 536 002a 0023     		movs	r3, #0
 537 002c 84F87C30 		strb	r3, [r4, #124]
 538              	.L44:
 539              		.loc 1 46 0
 540 0030 94F87630 		ldrb	r3, [r4, #118]	@ zero_extendqisi2
 541 0034 0BB3     		cbz	r3, .L45
 542              	.LBB228:
 543              	.LBB229:
 544              		.loc 2 137 0
 545 0036 626A     		ldr	r2, [r4, #36]
 546              	.LBE229:
 547              	.LBE228:
 548              		.loc 1 48 0
 549 0038 236F     		ldr	r3, [r4, #112]
 550 003a D268     		ldr	r2, [r2, #12]
 551 003c 94ED077A 		vldr.32	s14, [r4, #28]	@ int
 552 0040 9B1A     		subs	r3, r3, r2
 553 0042 07EE903A 		vmov	s15, r3	@ int
 554 0046 F8EEE77A 		vcvt.f32.s32	s15, s15
 555 004a B8EEC77A 		vcvt.f32.s32	s14, s14
 556 004e F0EEE77A 		vabs.f32	s15, s15
 557 0052 F4EEC77A 		vcmpe.f32	s15, s14
 558 0056 F1EE10FA 		vmrs	APSR_nzcv, FPSCR
 559 005a 40F1E380 		bpl	.L64
 560              		.loc 1 51 0
 561 005e 94F87430 		ldrb	r3, [r4, #116]	@ zero_extendqisi2
 562 0062 002B     		cmp	r3, #0
 563 0064 00F04B81 		beq	.L70
 564              	.LVL41:
 565              	.LBB230:
 566              	.LBB231:
 567              	.LBB232:
 568              	.LBB233:
 569              	.LBB234:
 570              		.loc 3 147 0
ARM GAS  /tmp/ccTPQ2Ry.s 			page 11


 571 0068 4FF08043 		mov	r3, #1073741824
 572              	.LBE234:
 573              	.LBE233:
 574              	.LBE232:
 575              	.LBE231:
 576              	.LBB238:
 577              	.LBB239:
 578              		.loc 4 464 0
 579 006c A16F     		ldr	r1, [r4, #120]
 580              	.LBE239:
 581              	.LBE238:
 582              	.LBB241:
 583              	.LBB237:
 584              	.LBB236:
 585              	.LBB235:
 586              		.loc 3 147 0
 587 006e 5B6A     		ldr	r3, [r3, #36]
 588              	.LVL42:
 589              	.LBE235:
 590              	.LBE236:
 591              	.LBE237:
 592              	.LBE241:
 593              	.LBE230:
 594              		.loc 1 56 0
 595 0070 A269     		ldr	r2, [r4, #24]
 596              	.LBB243:
 597              	.LBB242:
 598              	.LBB240:
 599              		.loc 4 464 0
 600 0072 5B1A     		subs	r3, r3, r1
 601              	.LBE240:
 602              	.LBE242:
 603              	.LBE243:
 604              		.loc 1 56 0
 605 0074 9342     		cmp	r3, r2
 606 0076 80F03981 		bcs	.L71
 607              	.L45:
 608              	.LVL43:
 609              	.LBE227:
 610              	.LBE226:
 611              		.loc 1 76 0
 612 007a 94F86430 		ldrb	r3, [r4, #100]	@ zero_extendqisi2
 613 007e 022B     		cmp	r3, #2
 614 0080 00F0D480 		beq	.L49
 615 0084 032B     		cmp	r3, #3
 616 0086 46D0     		beq	.L50
 617 0088 012B     		cmp	r3, #1
 618 008a C1D1     		bne	.L33
 619              	.LVL44:
 620              	.LBB289:
 621              	.LBB290:
 622              		.loc 2 167 0
 623 008c B4F96810 		ldrsh	r1, [r4, #104]
 624 0090 606A     		ldr	r0, [r4, #36]
 625 0092 FFF7FEFF 		bl	Motor_setOutput
 626              	.LVL45:
 627 0096 BBE7     		b	.L33
ARM GAS  /tmp/ccTPQ2Ry.s 			page 12


 628              	.LVL46:
 629              	.L69:
 630              	.LBE290:
 631              	.LBE289:
 632              	.LBB291:
 633              	.LBB286:
 634              		.loc 1 24 0
 635 0098 036F     		ldr	r3, [r0, #112]
 636 009a EA68     		ldr	r2, [r5, #12]
 637 009c 90ED077A 		vldr.32	s14, [r0, #28]	@ int
 638 00a0 9B1A     		subs	r3, r3, r2
 639 00a2 07EE903A 		vmov	s15, r3	@ int
 640 00a6 F8EEE77A 		vcvt.f32.s32	s15, s15
 641 00aa B8EEC77A 		vcvt.f32.s32	s14, s14
 642 00ae F0EEE77A 		vabs.f32	s15, s15
 643              		.loc 1 23 0
 644 00b2 F4EEC77A 		vcmpe.f32	s15, s14
 645 00b6 F1EE10FA 		vmrs	APSR_nzcv, FPSCR
 646 00ba B6DD     		ble	.L66
 647 00bc B5F90800 		ldrsh	r0, [r5, #8]
 648              	.LVL47:
 649 00c0 07EE900A 		vmov	s15, r0	@ int
 650 00c4 F8EEE77A 		vcvt.f32.s32	s15, s15
 651 00c8 17EE900A 		vmov	r0, s15
 652 00cc FFF7FEFF 		bl	__aeabi_f2d
 653              	.LVL48:
 654 00d0 0022     		movs	r2, #0
 655 00d2 974B     		ldr	r3, .L72
 656 00d4 FFF7FEFF 		bl	__aeabi_dmul
 657              	.LVL49:
 658 00d8 D5ED077A 		vldr.32	s15, [r5, #28]	@ int
 659 00dc 9FED957A 		vldr.32	s14, .L72+4
 660 00e0 F8EE677A 		vcvt.f32.u32	s15, s15
 661 00e4 0646     		mov	r6, r0
 662 00e6 C7EE877A 		vdiv.f32	s15, s15, s14
 663 00ea 0F46     		mov	r7, r1
 664 00ec 17EE900A 		vmov	r0, s15
 665 00f0 FFF7FEFF 		bl	__aeabi_f2d
 666              	.LVL50:
 667 00f4 0246     		mov	r2, r0
 668 00f6 0B46     		mov	r3, r1
 669 00f8 3046     		mov	r0, r6
 670 00fa 3946     		mov	r1, r7
 671 00fc FFF7FEFF 		bl	__aeabi_ddiv
 672              	.LVL51:
 673 0100 FFF7FEFF 		bl	__aeabi_d2iz
 674              	.LVL52:
 675              		.loc 1 22 0
 676 0104 E26E     		ldr	r2, [r4, #108]
 677 0106 6369     		ldr	r3, [r4, #20]
 678 0108 002A     		cmp	r2, #0
 679 010a 40F3EA80 		ble	.L43
 680              	.LVL53:
 681              		.loc 1 25 0
 682 010e 9842     		cmp	r0, r3
 683              	.LBB244:
 684              	.LBB245:
ARM GAS  /tmp/ccTPQ2Ry.s 			page 13


 685              		.loc 2 162 0
 686 0110 A062     		str	r0, [r4, #40]
 687              	.LVL54:
 688              	.LBE245:
 689              	.LBE244:
 690              		.loc 1 25 0
 691 0112 7ADB     		blt	.L41
 692 0114 89E7     		b	.L66
 693              	.LVL55:
 694              	.L50:
 695              	.LBE286:
 696              	.LBE291:
 697              	.LBB292:
 698              	.LBB293:
 699              		.loc 2 137 0
 700 0116 D4E90823 		ldrd	r2, r3, [r4, #32]
 701              	.LBE293:
 702              	.LBE292:
 703              		.loc 1 90 0
 704 011a B2F91820 		ldrsh	r2, [r2, #24]
 705 011e 07EE902A 		vmov	s15, r2	@ int
 706              		.loc 1 91 0
 707 0122 DA68     		ldr	r2, [r3, #12]
 708 0124 236F     		ldr	r3, [r4, #112]
 709              		.loc 1 90 0
 710 0126 F8EEE77A 		vcvt.f32.s32	s15, s15
 711              		.loc 1 91 0
 712 012a 9B1A     		subs	r3, r3, r2
 713              		.loc 1 90 0
 714 012c 02AD     		add	r5, sp, #8
 715 012e 65ED017A 		vstmdb.32	r5!, {s15}
 716 0132 07EE903A 		vmov	s15, r3	@ int
 717 0136 04F12C06 		add	r6, r4, #44
 718 013a F8EEE77A 		vcvt.f32.s32	s15, s15
 719 013e 2A46     		mov	r2, r5
 720 0140 3046     		mov	r0, r6
 721 0142 6946     		mov	r1, sp
 722 0144 CDED007A 		vstr.32	s15, [sp]
 723 0148 FFF7FEFF 		bl	_ZN12MotorControl6PID_aw6updateERKfS2_
 724              	.LVL56:
 725              		.loc 1 95 0
 726 014c 2246     		mov	r2, r4
 727 014e 5C32     		adds	r2, r2, #92
 728 0150 D2ED007A 		vldr.32	s15, [r2]
 729 0154 2946     		mov	r1, r5
 730 0156 F1EE677A 		vneg.f32	s15, s15
 731 015a 3046     		mov	r0, r6
 732 015c CDED017A 		vstr.32	s15, [sp, #4]
 733 0160 FFF7FEFF 		bl	_ZNK12MotorControl6PID_aw16getOutputBoundedERKfS2_
 734              	.LVL57:
 735              		.loc 1 94 0
 736 0164 BDEEC00A 		vcvt.s32.f32	s0, s0
 737              	.LVL58:
 738              	.LBB294:
 739              	.LBB295:
 740              		.loc 2 167 0
 741 0168 606A     		ldr	r0, [r4, #36]
ARM GAS  /tmp/ccTPQ2Ry.s 			page 14


 742 016a 10EE103A 		vmov	r3, s0	@ int
 743 016e 19B2     		sxth	r1, r3
 744 0170 FFF7FEFF 		bl	Motor_setOutput
 745              	.LVL59:
 746              	.LBE295:
 747              	.LBE294:
 748              	.LBB296:
 749              	.LBB297:
 750              		.loc 2 137 0
 751 0174 626A     		ldr	r2, [r4, #36]
 752              	.LBE297:
 753              	.LBE296:
 754              		.loc 1 97 0
 755 0176 236F     		ldr	r3, [r4, #112]
 756 0178 D268     		ldr	r2, [r2, #12]
 757 017a 9B1A     		subs	r3, r3, r2
 758              		.loc 1 99 0
 759 017c 002B     		cmp	r3, #0
 760 017e D4BF     		ite	le
 761 0180 4FF0FF33 		movle	r3, #-1
 762 0184 0123     		movgt	r3, #1
 763              		.loc 1 96 0
 764 0186 E366     		str	r3, [r4, #108]
 765              		.loc 1 101 0
 766 0188 42E7     		b	.L33
 767              	.LVL60:
 768              	.L68:
 769              	.LBB298:
 770              	.LBB287:
 771              	.LBB246:
 772              	.LBB247:
 773              		.loc 2 162 0
 774 018a B5F90800 		ldrsh	r0, [r5, #8]
 775              	.LVL61:
 776              	.LBE247:
 777              	.LBE246:
 778              		.loc 1 20 0
 779 018e D4F86C80 		ldr	r8, [r4, #108]
 780              	.LVL62:
 781              	.LBB250:
 782              	.LBB248:
 783              		.loc 2 162 0
 784 0192 07EE900A 		vmov	s15, r0	@ int
 785 0196 F8EEE77A 		vcvt.f32.s32	s15, s15
 786 019a 17EE900A 		vmov	r0, s15
 787 019e FFF7FEFF 		bl	__aeabi_f2d
 788              	.LVL63:
 789 01a2 0022     		movs	r2, #0
 790 01a4 624B     		ldr	r3, .L72
 791 01a6 FFF7FEFF 		bl	__aeabi_dmul
 792              	.LVL64:
 793              		.loc 2 163 0
 794 01aa D5ED077A 		vldr.32	s15, [r5, #28]	@ int
 795 01ae 9FED617A 		vldr.32	s14, .L72+4
 796 01b2 F8EE677A 		vcvt.f32.u32	s15, s15
 797              		.loc 2 162 0
 798 01b6 0646     		mov	r6, r0
ARM GAS  /tmp/ccTPQ2Ry.s 			page 15


 799              		.loc 2 163 0
 800 01b8 C7EE877A 		vdiv.f32	s15, s15, s14
 801              		.loc 2 162 0
 802 01bc 0F46     		mov	r7, r1
 803              		.loc 2 163 0
 804 01be 17EE900A 		vmov	r0, s15
 805 01c2 FFF7FEFF 		bl	__aeabi_f2d
 806              	.LVL65:
 807              		.loc 2 162 0
 808 01c6 0B46     		mov	r3, r1
 809 01c8 0246     		mov	r2, r0
 810 01ca 3946     		mov	r1, r7
 811 01cc 3046     		mov	r0, r6
 812 01ce FFF7FEFF 		bl	__aeabi_ddiv
 813              	.LVL66:
 814 01d2 FFF7FEFF 		bl	__aeabi_d2iz
 815              	.LVL67:
 816              	.LBE248:
 817              	.LBE250:
 818              		.loc 1 20 0
 819 01d6 A8EB0003 		sub	r3, r8, r0
 820 01da 07EE903A 		vmov	s15, r3	@ int
 821 01de 6369     		ldr	r3, [r4, #20]
 822              	.LBB251:
 823              	.LBB249:
 824              		.loc 2 162 0
 825 01e0 A062     		str	r0, [r4, #40]
 826              	.LVL68:
 827              	.LBE249:
 828              	.LBE251:
 829              		.loc 1 20 0
 830 01e2 07EE103A 		vmov	s14, r3	@ int
 831 01e6 F8EEE77A 		vcvt.f32.s32	s15, s15
 832 01ea B8EE477A 		vcvt.f32.u32	s14, s14
 833 01ee F0EEE77A 		vabs.f32	s15, s15
 834              		.loc 1 19 0
 835 01f2 F4EEC77A 		vcmpe.f32	s15, s14
 836 01f6 F1EE10FA 		vmrs	APSR_nzcv, FPSCR
 837 01fa FFF616AF 		blt	.L66
 838              		.loc 1 22 0
 839 01fe B8F1000F 		cmp	r8, #0
 840 0202 6ADD     		ble	.L38
 841              		.loc 1 20 0
 842 0204 9842     		cmp	r0, r3
 843 0206 BFF610AF 		bge	.L66
 844              	.L41:
 845              		.loc 1 31 0
 846 020a 94F87C30 		ldrb	r3, [r4, #124]	@ zero_extendqisi2
 847 020e 002B     		cmp	r3, #0
 848 0210 7DD1     		bne	.L39
 849              	.LBB252:
 850              	.LBB253:
 851              	.LBB254:
 852              	.LBB255:
 853              		.loc 3 147 0
 854 0212 4FF08042 		mov	r2, #1073741824
 855              	.LBE255:
ARM GAS  /tmp/ccTPQ2Ry.s 			page 16


 856              	.LBE254:
 857              	.LBE253:
 858              	.LBE252:
 859              		.loc 1 33 0
 860 0216 0123     		movs	r3, #1
 861              	.LBB259:
 862              	.LBB258:
 863              	.LBB257:
 864              	.LBB256:
 865              		.loc 3 147 0
 866 0218 526A     		ldr	r2, [r2, #36]
 867              	.LBE256:
 868              	.LBE257:
 869              	.LBE258:
 870              	.LBE259:
 871              		.loc 1 34 0
 872 021a C4F88020 		str	r2, [r4, #128]
 873              		.loc 1 33 0
 874 021e 84F87C30 		strb	r3, [r4, #124]
 875 0222 05E7     		b	.L44
 876              	.L64:
 877              		.loc 1 65 0
 878 0224 0023     		movs	r3, #0
 879 0226 84F87430 		strb	r3, [r4, #116]
 880 022a 26E7     		b	.L45
 881              	.LVL69:
 882              	.L49:
 883              	.LBE287:
 884              	.LBE298:
 885              	.LBB299:
 886              	.LBB300:
 887              		.loc 2 162 0
 888 022c 666A     		ldr	r6, [r4, #36]
 889 022e B6F90800 		ldrsh	r0, [r6, #8]
 890 0232 07EE900A 		vmov	s15, r0	@ int
 891 0236 F8EEE77A 		vcvt.f32.s32	s15, s15
 892              	.LBE300:
 893              	.LBE299:
 894              		.loc 1 85 0
 895 023a 02AD     		add	r5, sp, #8
 896              	.LBB304:
 897              	.LBB301:
 898              		.loc 2 162 0
 899 023c 17EE900A 		vmov	r0, s15
 900              	.LBE301:
 901              	.LBE304:
 902              		.loc 1 84 0
 903 0240 D4ED1B7A 		vldr.32	s15, [r4, #108]	@ int
 904 0244 B8EEE78A 		vcvt.f32.s32	s16, s15
 905              	.LVL70:
 906              	.LBB305:
 907              	.LBB302:
 908              		.loc 2 162 0
 909 0248 FFF7FEFF 		bl	__aeabi_f2d
 910              	.LVL71:
 911 024c 0022     		movs	r2, #0
 912 024e 384B     		ldr	r3, .L72
ARM GAS  /tmp/ccTPQ2Ry.s 			page 17


 913 0250 FFF7FEFF 		bl	__aeabi_dmul
 914              	.LVL72:
 915              		.loc 2 163 0
 916 0254 D6ED077A 		vldr.32	s15, [r6, #28]	@ int
 917 0258 9FED367A 		vldr.32	s14, .L72+4
 918 025c F8EE677A 		vcvt.f32.u32	s15, s15
 919              		.loc 2 162 0
 920 0260 8046     		mov	r8, r0
 921              		.loc 2 163 0
 922 0262 C7EE877A 		vdiv.f32	s15, s15, s14
 923              		.loc 2 162 0
 924 0266 8946     		mov	r9, r1
 925              		.loc 2 163 0
 926 0268 17EE900A 		vmov	r0, s15
 927 026c FFF7FEFF 		bl	__aeabi_f2d
 928              	.LVL73:
 929              		.loc 2 162 0
 930 0270 0246     		mov	r2, r0
 931 0272 0B46     		mov	r3, r1
 932 0274 4046     		mov	r0, r8
 933 0276 4946     		mov	r1, r9
 934 0278 FFF7FEFF 		bl	__aeabi_ddiv
 935              	.LVL74:
 936 027c FFF7FEFF 		bl	__aeabi_d2iz
 937              	.LVL75:
 938              	.LBE302:
 939              	.LBE305:
 940              		.loc 1 85 0
 941 0280 B6F91830 		ldrsh	r3, [r6, #24]
 942              	.LBB306:
 943              	.LBB303:
 944              		.loc 2 162 0
 945 0284 A062     		str	r0, [r4, #40]
 946              	.LVL76:
 947              	.LBE303:
 948              	.LBE306:
 949              		.loc 1 85 0
 950 0286 07EE103A 		vmov	s14, r3	@ int
 951              		.loc 1 84 0
 952 028a 07EE900A 		vmov	s15, r0	@ int
 953              		.loc 1 85 0
 954 028e B8EEC77A 		vcvt.f32.s32	s14, s14
 955              		.loc 1 84 0
 956 0292 F8EEE77A 		vcvt.f32.s32	s15, s15
 957              		.loc 1 85 0
 958 0296 25ED017A 		vstmdb.32	r5!, {s14}
 959              		.loc 1 84 0
 960 029a 78EE677A 		vsub.f32	s15, s16, s15
 961 029e 04F14406 		add	r6, r4, #68
 962 02a2 2A46     		mov	r2, r5
 963 02a4 3046     		mov	r0, r6
 964 02a6 6946     		mov	r1, sp
 965 02a8 CDED007A 		vstr.32	s15, [sp]
 966              	.LVL77:
 967 02ac FFF7FEFF 		bl	_ZN12MotorControl6PID_aw6updateERKfS2_
 968              	.LVL78:
 969              		.loc 1 87 0
ARM GAS  /tmp/ccTPQ2Ry.s 			page 18


 970 02b0 2246     		mov	r2, r4
 971 02b2 5C32     		adds	r2, r2, #92
 972 02b4 D2ED007A 		vldr.32	s15, [r2]
 973 02b8 2946     		mov	r1, r5
 974 02ba 3046     		mov	r0, r6
 975 02bc F1EE677A 		vneg.f32	s15, s15
 976 02c0 CDED017A 		vstr.32	s15, [sp, #4]
 977 02c4 FFF7FEFF 		bl	_ZNK12MotorControl6PID_aw16getOutputBoundedERKfS2_
 978              	.LVL79:
 979              		.loc 1 86 0
 980 02c8 BDEEC00A 		vcvt.s32.f32	s0, s0
 981              	.LVL80:
 982              	.LBB307:
 983              	.LBB308:
 984              		.loc 2 167 0
 985 02cc 606A     		ldr	r0, [r4, #36]
 986 02ce 10EE103A 		vmov	r3, s0	@ int
 987 02d2 19B2     		sxth	r1, r3
 988 02d4 FFF7FEFF 		bl	Motor_setOutput
 989              	.LVL81:
 990              	.LBE308:
 991              	.LBE307:
 992              		.loc 1 88 0
 993 02d8 9AE6     		b	.L33
 994              	.LVL82:
 995              	.L38:
 996              	.LBB309:
 997              	.LBB288:
 998              		.loc 1 22 0
 999 02da 5B42     		negs	r3, r3
 1000              		.loc 1 21 0
 1001 02dc 9842     		cmp	r0, r3
 1002 02de 94DC     		bgt	.L41
 1003 02e0 A3E6     		b	.L66
 1004              	.L43:
 1005              	.LVL83:
 1006              		.loc 1 27 0
 1007 02e2 5B42     		negs	r3, r3
 1008              		.loc 1 26 0
 1009 02e4 8342     		cmp	r3, r0
 1010              	.LBB260:
 1011              	.LBB261:
 1012              		.loc 2 162 0
 1013 02e6 A062     		str	r0, [r4, #40]
 1014              	.LVL84:
 1015              	.LBE261:
 1016              	.LBE260:
 1017              		.loc 1 26 0
 1018 02e8 8FDB     		blt	.L41
 1019 02ea 9EE6     		b	.L66
 1020              	.L71:
 1021              		.loc 1 59 0
 1022 02ec 0023     		movs	r3, #0
 1023 02ee 84F87630 		strb	r3, [r4, #118]
 1024              	.LVL85:
 1025              	.LBB262:
 1026              	.LBB263:
ARM GAS  /tmp/ccTPQ2Ry.s 			page 19


 1027              		.loc 5 2430 0
 1028 02f2 0221     		movs	r1, #2
 1029 02f4 04F10C00 		add	r0, r4, #12
 1030              	.LVL86:
 1031 02f8 FFF7FEFF 		bl	chEvtBroadcastFlags
 1032              	.LVL87:
 1033 02fc BDE6     		b	.L45
 1034              	.LVL88:
 1035              	.L70:
 1036              	.LBE263:
 1037              	.LBE262:
 1038              	.LBB264:
 1039              	.LBB265:
 1040              	.LBB266:
 1041              	.LBB267:
 1042              		.loc 3 147 0
 1043 02fe 4FF08042 		mov	r2, #1073741824
 1044              	.LBE267:
 1045              	.LBE266:
 1046              	.LBE265:
 1047              	.LBE264:
 1048              		.loc 1 54 0
 1049 0302 0123     		movs	r3, #1
 1050              	.LBB271:
 1051              	.LBB270:
 1052              	.LBB269:
 1053              	.LBB268:
 1054              		.loc 3 147 0
 1055 0304 526A     		ldr	r2, [r2, #36]
 1056              	.LBE268:
 1057              	.LBE269:
 1058              	.LBE270:
 1059              	.LBE271:
 1060              		.loc 1 53 0
 1061 0306 A267     		str	r2, [r4, #120]
 1062              		.loc 1 54 0
 1063 0308 84F87430 		strb	r3, [r4, #116]
 1064 030c B5E6     		b	.L45
 1065              	.L39:
 1066              	.LBB272:
 1067              	.LBB273:
 1068              	.LBB274:
 1069              	.LBB275:
 1070              		.loc 3 147 0
 1071 030e 4FF08043 		mov	r3, #1073741824
 1072              	.LBE275:
 1073              	.LBE274:
 1074              	.LBE273:
 1075              	.LBE272:
 1076              	.LBB279:
 1077              	.LBB280:
 1078              		.loc 4 464 0
 1079 0312 D4F88010 		ldr	r1, [r4, #128]
 1080              	.LBE280:
 1081              	.LBE279:
 1082              	.LBB282:
 1083              	.LBB278:
ARM GAS  /tmp/ccTPQ2Ry.s 			page 20


 1084              	.LBB277:
 1085              	.LBB276:
 1086              		.loc 3 147 0
 1087 0316 5B6A     		ldr	r3, [r3, #36]
 1088              	.LBE276:
 1089              	.LBE277:
 1090              	.LBE278:
 1091              	.LBE282:
 1092              		.loc 1 36 0
 1093 0318 2269     		ldr	r2, [r4, #16]
 1094              	.LBB283:
 1095              	.LBB281:
 1096              		.loc 4 464 0
 1097 031a 5B1A     		subs	r3, r3, r1
 1098              	.LBE281:
 1099              	.LBE283:
 1100              		.loc 1 36 0
 1101 031c 9342     		cmp	r3, r2
 1102 031e FFF487AE 		bcc	.L44
 1103              	.LVL89:
 1104              	.LBB284:
 1105              	.LBB285:
 1106              		.loc 5 2430 0
 1107 0322 0121     		movs	r1, #1
 1108 0324 04F10C00 		add	r0, r4, #12
 1109              	.LVL90:
 1110 0328 FFF7FEFF 		bl	chEvtBroadcastFlags
 1111              	.LVL91:
 1112 032c 7DE6     		b	.L66
 1113              	.L73:
 1114 032e 00BF     		.align	2
 1115              	.L72:
 1116 0330 0000203F 		.word	1059061760
 1117 0334 007C1249 		.word	1225948160
 1118              	.LBE285:
 1119              	.LBE284:
 1120              	.LBE288:
 1121              	.LBE309:
 1122              		.cfi_endproc
 1123              	.LFE1776:
 1124              		.size	_ZN12MotorControl17GenericControllerINS_6PID_awENS_13PID_aw_paramsENS_14GM3510AccessorEE6upd
 1125              		.text
 1126              	.Letext0:
 1127              		.file 6 "/usr/lib/gcc/arm-none-eabi/7.3.1/include/stddef.h"
 1128              		.file 7 "/usr/arm-none-eabi/include/machine/_default_types.h"
 1129              		.file 8 "/usr/arm-none-eabi/include/sys/_stdint.h"
 1130              		.file 9 "/usr/arm-none-eabi/include/stdint.h"
 1131              		.file 10 "./RM18A-ChibiOS18-Core/chibios/os/common/ports/ARMCMx/compilers/GCC/chtypes.h"
 1132              		.file 11 "./RM18A-ChibiOS18-Core/chibios/os/rt/include/chsystypes.h"
 1133              		.file 12 "./RM18A-ChibiOS18-Core/chibios/os/rt/include/chschd.h"
 1134              		.file 13 "./RM18A-ChibiOS18-Core/chibios/os/common/ext/ARM/CMSIS/Core/Include/core_cm4.h"
 1135              		.file 14 "./RM18A-ChibiOS18-Core/chibios/os/common/ext/ST/STM32F4xx/system_stm32f4xx.h"
 1136              		.file 15 "./RM18A-ChibiOS18-Core/chibios/os/common/ext/ST/STM32F4xx/stm32f427xx.h"
 1137              		.file 16 "./RM18A-ChibiOS18-Core/chibios/os/common/ports/ARMCMx/chcore.h"
 1138              		.file 17 "./RM18A-ChibiOS18-Core/chibios/os/common/ports/ARMCMx/chcore_v7m.h"
 1139              		.file 18 "./RM18A-ChibiOS18-Core/chibios/os/hal/ports/STM32/LLD/TIMv1/stm32_tim.h"
 1140              		.file 19 "./RM18A-ChibiOS18-Core/chibios/os/rt/include/chtm.h"
ARM GAS  /tmp/ccTPQ2Ry.s 			page 21


 1141              		.file 20 "./RM18A-ChibiOS18-Core/chibios/os/rt/include/chsem.h"
 1142              		.file 21 "./RM18A-ChibiOS18-Core/chibios/os/rt/include/chmtx.h"
 1143              		.file 22 "./RM18A-ChibiOS18-Core/chibios/os/rt/include/chsys.h"
 1144              		.file 23 "./RM18A-ChibiOS18-Core/chibios/os/rt/include/chregistry.h"
 1145              		.file 24 "./RM18A-ChibiOS18-Core/chibios/os/rt/include/chevents.h"
 1146              		.file 25 "./RM18A-ChibiOS18-Core/chibios/os/oslib/include/chmemcore.h"
 1147              		.file 26 "./RM18A-ChibiOS18-Core/chibios/os/oslib/include/chmempools.h"
 1148              		.file 27 "./RM18A-ChibiOS18-Core/chibios/os/oslib/include/chfactory.h"
 1149              		.file 28 "./RM18A-ChibiOS18-Core/chibios/os/hal/ports/STM32/LLD/DMAv2/stm32_dma.h"
 1150              		.file 29 "./RM18A-ChibiOS18-Core/chibios/os/hal/include/hal_streams.h"
 1151              		.file 30 "./RM18A-ChibiOS18-Core/chibios/os/hal/include/hal_queues.h"
 1152              		.file 31 "./RM18A-ChibiOS18-Core/chibios/os/hal/include/hal_pal.h"
 1153              		.file 32 "./RM18A-ChibiOS18-Core/chibios/os/hal/ports/STM32/LLD/GPIOv2/hal_pal_lld.h"
 1154              		.file 33 "./RM18A-ChibiOS18-Core/chibios/os/hal/include/hal_adc.h"
 1155              		.file 34 "./RM18A-ChibiOS18-Core/chibios/os/hal/ports/STM32/LLD/ADCv2/hal_adc_lld.h"
 1156              		.file 35 "./RM18A-ChibiOS18-Core/chibios/os/hal/include/hal_can.h"
 1157              		.file 36 "./RM18A-ChibiOS18-Core/chibios/os/hal/ports/STM32/LLD/CANv1/hal_can_lld.h"
 1158              		.file 37 "./RM18A-ChibiOS18-Core/chibios/os/hal/include/hal_icu.h"
 1159              		.file 38 "./RM18A-ChibiOS18-Core/chibios/os/hal/ports/STM32/LLD/TIMv1/hal_icu_lld.h"
 1160              		.file 39 "./RM18A-ChibiOS18-Core/chibios/os/hal/include/hal_pwm.h"
 1161              		.file 40 "./RM18A-ChibiOS18-Core/chibios/os/hal/ports/STM32/LLD/TIMv1/hal_pwm_lld.h"
 1162              		.file 41 "./RM18A-ChibiOS18-Core/chibios/os/hal/include/hal_serial.h"
 1163              		.file 42 "./RM18A-ChibiOS18-Core/chibios/os/hal/ports/STM32/LLD/USARTv1/hal_serial_lld.h"
 1164              		.file 43 "./RM18A-ChibiOS18-Core/chibios/os/hal/include/hal_spi.h"
 1165              		.file 44 "./RM18A-ChibiOS18-Core/chibios/os/hal/ports/STM32/LLD/SPIv1/hal_spi_lld.h"
 1166              		.file 45 "./RM18A-ChibiOS18-Core/chibios/os/hal/include/hal_uart.h"
 1167              		.file 46 "./RM18A-ChibiOS18-Core/chibios/os/hal/ports/STM32/LLD/USARTv1/hal_uart_lld.h"
 1168              		.file 47 "./RM18A-ChibiOS18-Core/chibios/os/hal/include/hal_usb.h"
 1169              		.file 48 "./RM18A-ChibiOS18-Core/chibios/os/hal/ports/STM32/LLD/OTGv1/hal_usb_lld.h"
 1170              		.file 49 "./RM18A-ChibiOS18-Core/chibios/os/hal/ports/STM32/LLD/OTGv1/stm32_otg.h"
 1171              		.file 50 "./RM18A-ChibiOS18-Core/src/peripherals/flash.h"
 1172              		.file 51 "./RM18A-ChibiOS18-Core/src/shell/shell.h"
 1173              		.file 52 "./RM18A-ChibiOS18-Core/src/Persistence.hpp"
 1174              		.file 53 "./RM18A-ChibiOS18-Core/src/peripherals/CAN_Manager.h"
 1175              		.file 54 "./RM18A-ChibiOS18-Core/src/ext_hw/motor.h"
 1176              		.file 55 "./RM18A-ChibiOS18-Core/src/controller/PID_aw.hpp"
 1177              		.file 56 "./RM18A-ChibiOS18-Core/src/controller/MotorControlImpl.hpp"
 1178              		.file 57 "/usr/arm-none-eabi/include/c++/7.3.1/type_traits"
 1179              		.file 58 "/usr/arm-none-eabi/include/c++/7.3.1/arm-none-eabi/thumb/v7e-m/fpv4-sp/hard/bits/c++conf
 1180              		.file 59 "/usr/arm-none-eabi/include/c++/7.3.1/bits/stl_pair.h"
 1181              		.file 60 "/usr/arm-none-eabi/include/c++/7.3.1/new"
 1182              		.file 61 "/usr/arm-none-eabi/include/c++/7.3.1/bits/exception_ptr.h"
 1183              		.file 62 "/usr/arm-none-eabi/include/c++/7.3.1/debug/debug.h"
 1184              		.file 63 "/usr/arm-none-eabi/include/c++/7.3.1/cwchar"
 1185              		.file 64 "/usr/arm-none-eabi/include/c++/7.3.1/cstdint"
 1186              		.file 65 "/usr/arm-none-eabi/include/c++/7.3.1/clocale"
 1187              		.file 66 "/usr/arm-none-eabi/include/c++/7.3.1/cstdlib"
 1188              		.file 67 "/usr/arm-none-eabi/include/c++/7.3.1/cstdio"
 1189              		.file 68 "/usr/arm-none-eabi/include/c++/7.3.1/cmath"
 1190              		.file 69 "/usr/arm-none-eabi/include/c++/7.3.1/bits/predefined_ops.h"
 1191              		.file 70 "/usr/arm-none-eabi/include/c++/7.3.1/ext/new_allocator.h"
 1192              		.file 71 "/usr/arm-none-eabi/include/c++/7.3.1/ext/numeric_traits.h"
 1193              		.file 72 "/usr/arm-none-eabi/include/sys/lock.h"
 1194              		.file 73 "/usr/arm-none-eabi/include/sys/_types.h"
 1195              		.file 74 "/usr/arm-none-eabi/include/sys/reent.h"
 1196              		.file 75 "/usr/lib/gcc/arm-none-eabi/7.3.1/include/stdarg.h"
 1197              		.file 76 "<built-in>"
ARM GAS  /tmp/ccTPQ2Ry.s 			page 22


 1198              		.file 77 "/usr/arm-none-eabi/include/wchar.h"
 1199              		.file 78 "/usr/arm-none-eabi/include/locale.h"
 1200              		.file 79 "/usr/arm-none-eabi/include/ctype.h"
 1201              		.file 80 "/usr/arm-none-eabi/include/stdlib.h"
 1202              		.file 81 "/usr/arm-none-eabi/include/stdio.h"
 1203              		.file 82 "/usr/arm-none-eabi/include/sys/errno.h"
 1204              		.file 83 "/usr/arm-none-eabi/include/math.h"
 1205              		.file 84 "/usr/arm-none-eabi/include/c++/7.3.1/math.h"
 1206              		.file 85 "./RM18A-ChibiOS18-Core/chibios/os/rt/include/chvt.h"
 1207              		.file 86 "./RM18A-ChibiOS18-Core/chibios/os/common/ports/ARMCMx/chcore_timer.h"