ARM GAS  /tmp/ccB7DtyR.s 			page 1


   1              		.cpu cortex-m4
   2              		.eabi_attribute 27, 1
   3              		.eabi_attribute 28, 1
   4              		.eabi_attribute 20, 1
   5              		.eabi_attribute 21, 1
   6              		.eabi_attribute 23, 3
   7              		.eabi_attribute 24, 1
   8              		.eabi_attribute 25, 1
   9              		.eabi_attribute 26, 1
  10              		.eabi_attribute 30, 2
  11              		.eabi_attribute 34, 1
  12              		.eabi_attribute 18, 4
  13              		.file	"motor.c"
  14              		.text
  15              	.Ltext0:
  16              		.cfi_sections	.debug_frame
  17              		.section	.text.Motor_FeedbackReceptionCallback,"ax",%progbits
  18              		.align	1
  19              		.p2align 2,,3
  20              		.global	Motor_FeedbackReceptionCallback
  21              		.syntax unified
  22              		.thumb
  23              		.thumb_func
  24              		.fpu fpv4-sp-d16
  25              		.type	Motor_FeedbackReceptionCallback, %function
  26              	Motor_FeedbackReceptionCallback:
  27              	.LFB330:
  28              		.file 1 "./RM18A-ChibiOS18-Core/src/ext_hw/motor.c"
  29              		.loc 1 205 0
  30              		.cfi_startproc
  31              		@ args = 0, pretend = 0, frame = 8
  32              		@ frame_needed = 0, uses_anonymous_args = 0
  33              	.LVL0:
  34              		.loc 1 210 0
  35 0000 2E48     		ldr	r0, .L15
  36              	.LVL1:
  37 0002 1389     		ldrh	r3, [r2, #8]
  38              		.loc 1 205 0
  39 0004 F0B5     		push	{r4, r5, r6, r7, lr}
  40              		.cfi_def_cfa_offset 20
  41              		.cfi_offset 4, -20
  42              		.cfi_offset 5, -16
  43              		.cfi_offset 6, -12
  44              		.cfi_offset 7, -8
  45              		.cfi_offset 14, -4
  46              		.loc 1 210 0
  47 0006 8842     		cmp	r0, r1
  48 0008 C3F30A03 		ubfx	r3, r3, #0, #11
  49 000c 0ABF     		itet	eq
  50 000e 6FF40071 		mvneq	r1, #512
  51              	.LVL2:
  52 0012 A3F5FB74 		subne	r4, r3, #502
  53 0016 5C18     		addeq	r4, r3, r1
  54              	.LVL3:
  55              		.loc 1 211 0
  56 0018 152C     		cmp	r4, #21
  57              		.loc 1 205 0
ARM GAS  /tmp/ccB7DtyR.s 			page 2


  58 001a 83B0     		sub	sp, sp, #12
  59              		.cfi_def_cfa_offset 32
  60              		.loc 1 211 0
  61 001c 44D8     		bhi	.L1
  62              		.loc 1 215 0
  63 001e E600     		lsls	r6, r4, #3
  64 0020 274D     		ldr	r5, .L15+4
  65 0022 907C     		ldrb	r0, [r2, #18]	@ zero_extendqisi2
  66 0024 D17C     		ldrb	r1, [r2, #19]	@ zero_extendqisi2
  67              		.loc 1 216 0
  68 0026 937D     		ldrb	r3, [r2, #22]	@ zero_extendqisi2
  69              		.loc 1 215 0
  70 0028 06EB040C 		add	ip, r6, r4
  71 002c 4FEA8C0C 		lsl	ip, ip, #2
  72 0030 05EB0C07 		add	r7, r5, ip
  73 0034 41EA0021 		orr	r1, r1, r0, lsl #8
  74              		.loc 1 216 0
  75 0038 BB71     		strb	r3, [r7, #6]
  76              		.loc 1 220 0
  77 003a 92F810E0 		ldrb	lr, [r2, #16]	@ zero_extendqisi2
  78 003e 507C     		ldrb	r0, [r2, #17]	@ zero_extendqisi2
  79              		.loc 1 219 0
  80 0040 35F80C30 		ldrh	r3, [r5, ip]
  81              	.LVL4:
  82              		.loc 1 215 0
  83 0044 7980     		strh	r1, [r7, #2]	@ movhi
  84              		.loc 1 220 0
  85 0046 40EA0E20 		orr	r0, r0, lr, lsl #8
  86              		.loc 1 217 0
  87 004a 517D     		ldrb	r1, [r2, #21]	@ zero_extendqisi2
  88 004c 92F814E0 		ldrb	lr, [r2, #20]	@ zero_extendqisi2
  89              		.loc 1 220 0
  90 0050 25F80C00 		strh	r0, [r5, ip]	@ movhi
  91              		.loc 1 225 0
  92 0054 C01A     		subs	r0, r0, r3
  93 0056 03B2     		sxth	r3, r0
  94              	.LVL5:
  95              		.loc 1 226 0
  96 0058 83EA6302 		eor	r2, r3, r3, asr #1
  97              	.LVL6:
  98 005c D204     		lsls	r2, r2, #19
  99              		.loc 1 230 0
 100 005e 06EB0402 		add	r2, r6, r4
 101 0062 05EB8202 		add	r2, r5, r2, lsl #2
 102              		.loc 1 228 0
 103 0066 48BF     		it	mi
 104 0068 83F46043 		eormi	r3, r3, #57344
 105              		.loc 1 231 0
 106 006c 1069     		ldr	r0, [r2, #16]
 107 006e 0190     		str	r0, [sp, #4]
 108              		.loc 1 230 0
 109 0070 D068     		ldr	r0, [r2, #12]
 110              		.loc 1 228 0
 111 0072 48BF     		it	mi
 112 0074 1BB2     		sxthmi	r3, r3
 113              		.loc 1 217 0
 114 0076 41EA0E21 		orr	r1, r1, lr, lsl #8
ARM GAS  /tmp/ccB7DtyR.s 			page 3


 115 007a 09B2     		sxth	r1, r1
 116              		.loc 1 228 0
 117 007c 3B81     		strh	r3, [r7, #8]	@ movhi
 118              		.loc 1 230 0
 119 007e 0344     		add	r3, r3, r0
 120              		.loc 1 231 0
 121 0080 0198     		ldr	r0, [sp, #4]
 122              		.loc 1 217 0
 123 0082 B980     		strh	r1, [r7, #4]	@ movhi
 124              		.loc 1 233 0
 125 0084 5769     		ldr	r7, [r2, #20]
 126              		.loc 1 231 0
 127 0086 0144     		add	r1, r1, r0
 128 0088 C2E90331 		strd	r3, r1, [r2, #12]
 129              		.loc 1 233 0
 130 008c 77B9     		cbnz	r7, .L14
 131              	.L6:
 132              	.LBB35:
 133              	.LBB36:
 134              	.LBB37:
 135              	.LBB38:
 136              		.file 2 "./RM18A-ChibiOS18-Core/chibios/os/hal/ports/STM32/LLD/TIMv1/hal_st_lld.h"
 137              		.loc 2 147 0
 138 008e 4FF08042 		mov	r2, #1073741824
 139              	.LBE38:
 140              	.LBE37:
 141              	.LBE36:
 142              	.LBE35:
 143              		.loc 1 237 0
 144 0092 3319     		adds	r3, r6, r4
 145              		.loc 1 238 0
 146 0094 0B48     		ldr	r0, .L15+8
 147              	.LBB42:
 148              	.LBB41:
 149              	.LBB40:
 150              	.LBB39:
 151              		.loc 2 147 0
 152 0096 516A     		ldr	r1, [r2, #36]
 153              	.LBE39:
 154              	.LBE40:
 155              	.LBE41:
 156              	.LBE42:
 157              		.loc 1 237 0
 158 0098 05EB8303 		add	r3, r5, r3, lsl #2
 159              		.loc 1 238 0
 160 009c 0125     		movs	r5, #1
 161              		.loc 1 239 0
 162 009e 7A19     		adds	r2, r7, r5
 163              		.loc 1 238 0
 164 00a0 00F83450 		strb	r5, [r0, r4, lsl #3]
 165              		.loc 1 237 0
 166 00a4 1962     		str	r1, [r3, #32]
 167              		.loc 1 239 0
 168 00a6 5A61     		str	r2, [r3, #20]
 169              	.L1:
 170              		.loc 1 244 0
 171 00a8 03B0     		add	sp, sp, #12
ARM GAS  /tmp/ccB7DtyR.s 			page 4


 172              		.cfi_remember_state
 173              		.cfi_def_cfa_offset 20
 174              		@ sp needed
 175 00aa F0BD     		pop	{r4, r5, r6, r7, pc}
 176              	.LVL7:
 177              	.L14:
 178              		.cfi_restore_state
 179              	.LBB43:
 180              	.LBB44:
 181              	.LBB45:
 182              	.LBB46:
 183              	.LBB47:
 184              		.loc 2 147 0
 185 00ac 4FF08043 		mov	r3, #1073741824
 186              	.LBE47:
 187              	.LBE46:
 188              	.LBE45:
 189              	.LBE44:
 190              	.LBB51:
 191              	.LBB52:
 192              		.file 3 "./RM18A-ChibiOS18-Core/chibios/os/rt/include/chtime.h"
 193              		.loc 3 464 0
 194 00b0 116A     		ldr	r1, [r2, #32]
 195              	.LBE52:
 196              	.LBE51:
 197              	.LBB54:
 198              	.LBB50:
 199              	.LBB49:
 200              	.LBB48:
 201              		.loc 2 147 0
 202 00b2 5B6A     		ldr	r3, [r3, #36]
 203              	.LVL8:
 204              	.LBE48:
 205              	.LBE49:
 206              	.LBE50:
 207              	.LBE54:
 208              	.LBB55:
 209              	.LBB53:
 210              		.loc 3 464 0
 211 00b4 5B1A     		subs	r3, r3, r1
 212              	.LBE53:
 213              	.LBE55:
 214              	.LBE43:
 215              		.loc 1 235 0
 216 00b6 D361     		str	r3, [r2, #28]
 217 00b8 E9E7     		b	.L6
 218              	.L16:
 219 00ba 00BF     		.align	2
 220              	.L15:
 221 00bc 00000000 		.word	CAND1
 222 00c0 00000000 		.word	.LANCHOR0
 223 00c4 00000000 		.word	.LANCHOR1
 224              		.cfi_endproc
 225              	.LFE330:
 226              		.size	Motor_FeedbackReceptionCallback, .-Motor_FeedbackReceptionCallback
 227              		.section	.text.Motor_CommandReceptionCallback,"ax",%progbits
 228              		.align	1
ARM GAS  /tmp/ccB7DtyR.s 			page 5


 229              		.p2align 2,,3
 230              		.global	Motor_CommandReceptionCallback
 231              		.syntax unified
 232              		.thumb
 233              		.thumb_func
 234              		.fpu fpv4-sp-d16
 235              		.type	Motor_CommandReceptionCallback, %function
 236              	Motor_CommandReceptionCallback:
 237              	.LFB331:
 238              		.loc 1 248 0
 239              		.cfi_startproc
 240              		@ args = 0, pretend = 0, frame = 0
 241              		@ frame_needed = 0, uses_anonymous_args = 0
 242              		@ link register save eliminated.
 243              	.LVL9:
 244              		.loc 1 253 0
 245 0000 7047     		bx	lr
 246              		.cfi_endproc
 247              	.LFE331:
 248              		.size	Motor_CommandReceptionCallback, .-Motor_CommandReceptionCallback
 249 0002 00BF     		.section	.text.Motor_Monitor,"ax",%progbits
 250              		.align	1
 251              		.p2align 2,,3
 252              		.syntax unified
 253              		.thumb
 254              		.thumb_func
 255              		.fpu fpv4-sp-d16
 256              		.type	Motor_Monitor, %function
 257              	Motor_Monitor:
 258              	.LFB329:
 259              		.loc 1 148 0
 260              		.cfi_startproc
 261              		@ args = 0, pretend = 0, frame = 8
 262              		@ frame_needed = 0, uses_anonymous_args = 0
 263              	.LVL10:
 264              	.LBB56:
 265              	.LBB57:
 266              		.file 4 "./RM18A-ChibiOS18-Core/chibios/os/rt/include/chthreads.h"
 267              		.loc 4 347 0
 268 0000 3D4B     		ldr	r3, .L52
 269 0002 9B69     		ldr	r3, [r3, #24]
 270              	.LBE57:
 271              	.LBE56:
 272              		.loc 1 152 0
 273 0004 93F82130 		ldrb	r3, [r3, #33]	@ zero_extendqisi2
 274 0008 5A07     		lsls	r2, r3, #29
 275 000a 74D4     		bmi	.L44
 276              		.loc 1 148 0
 277 000c 2DE9F04F 		push	{r4, r5, r6, r7, r8, r9, r10, fp, lr}
 278              		.cfi_def_cfa_offset 36
 279              		.cfi_offset 4, -36
 280              		.cfi_offset 5, -32
 281              		.cfi_offset 6, -28
 282              		.cfi_offset 7, -24
 283              		.cfi_offset 8, -20
 284              		.cfi_offset 9, -16
 285              		.cfi_offset 10, -12
ARM GAS  /tmp/ccB7DtyR.s 			page 6


 286              		.cfi_offset 11, -8
 287              		.cfi_offset 14, -4
 288 0010 3A4F     		ldr	r7, .L52+4
 289 0012 DFF8FC80 		ldr	r8, .L52+24
 290              	.LBB59:
 291              		.loc 1 180 0
 292 0016 DFF8FC90 		ldr	r9, .L52+28
 293              		.loc 1 179 0
 294 001a DFF8FCA0 		ldr	r10, .L52+32
 295              	.LBE59:
 296              		.loc 1 148 0
 297 001e 83B0     		sub	sp, sp, #12
 298              		.cfi_def_cfa_offset 48
 299              	.LVL11:
 300              	.L19:
 301              		.loc 1 154 0
 302 0020 0025     		movs	r5, #0
 303 0022 374E     		ldr	r6, .L52+8
 304 0024 374C     		ldr	r4, .L52+12
 305              	.LBB60:
 306              		.loc 1 167 0
 307 0026 DFF8F4B0 		ldr	fp, .L52+36
 308              	.LBE60:
 309              		.loc 1 154 0
 310 002a 3D60     		str	r5, [r7]
 311 002c C8F80050 		str	r5, [r8]
 312              	.LVL12:
 313 0030 0EE0     		b	.L25
 314              	.LVL13:
 315              	.L49:
 316              	.LBB61:
 317              		.loc 1 160 0
 318 0032 04F8041C 		strb	r1, [r4, #-4]
 319              		.loc 1 161 0
 320 0036 22B9     		cbnz	r2, .L23
 321              		.loc 1 163 0
 322 0038 2368     		ldr	r3, [r4]
 323 003a 0133     		adds	r3, r3, #1
 324              		.loc 1 164 0
 325 003c 272B     		cmp	r3, #39
 326              		.loc 1 163 0
 327 003e 2360     		str	r3, [r4]
 328              		.loc 1 164 0
 329 0040 3CD8     		bhi	.L47
 330              	.L23:
 331              		.loc 1 156 0 discriminator 2
 332 0042 0135     		adds	r5, r5, #1
 333              	.LVL14:
 334 0044 162D     		cmp	r5, #22
 335 0046 06F12406 		add	r6, r6, #36
 336 004a 04F10804 		add	r4, r4, #8
 337 004e 23D0     		beq	.L48
 338              	.LVL15:
 339              	.L25:
 340              		.loc 1 158 0
 341 0050 14F8043C 		ldrb	r3, [r4, #-4]	@ zero_extendqisi2
 342 0054 B27E     		ldrb	r2, [r6, #26]	@ zero_extendqisi2
ARM GAS  /tmp/ccB7DtyR.s 			page 7


 343              		.loc 1 160 0
 344 0056 0021     		movs	r1, #0
 345              		.loc 1 158 0
 346 0058 002B     		cmp	r3, #0
 347 005a EAD1     		bne	.L49
 348              		.loc 1 177 0
 349 005c 002A     		cmp	r2, #0
 350 005e F0D0     		beq	.L23
 351 0060 0193     		str	r3, [sp, #4]
 352              		.loc 1 180 0
 353 0062 A9FB0532 		umull	r3, r2, r9, r5
 354 0066 D208     		lsrs	r2, r2, #3
 355 0068 02EB4202 		add	r2, r2, r2, lsl #1
 356 006c A5EB8202 		sub	r2, r5, r2, lsl #2
 357              		.loc 1 179 0
 358 0070 0132     		adds	r2, r2, #1
 359 0072 5146     		mov	r1, r10
 360 0074 0220     		movs	r0, #2
 361 0076 FFF7FEFF 		bl	log_formatted
 362              	.LVL16:
 363              		.loc 1 182 0
 364 007a 3968     		ldr	r1, [r7]
 365              		.loc 1 181 0
 366 007c 019B     		ldr	r3, [sp, #4]
 367 007e B376     		strb	r3, [r6, #26]
 368              		.loc 1 182 0
 369 0080 0122     		movs	r2, #1
 370 0082 AA40     		lsls	r2, r2, r5
 371              		.loc 1 156 0
 372 0084 0135     		adds	r5, r5, #1
 373              	.LVL17:
 374              		.loc 1 182 0
 375 0086 0A43     		orrs	r2, r2, r1
 376              		.loc 1 156 0
 377 0088 162D     		cmp	r5, #22
 378              		.loc 1 183 0
 379 008a 2360     		str	r3, [r4]
 380              		.loc 1 182 0
 381 008c 3A60     		str	r2, [r7]
 382 008e 06F12406 		add	r6, r6, #36
 383 0092 04F10804 		add	r4, r4, #8
 384              		.loc 1 156 0
 385 0096 DBD1     		bne	.L25
 386              	.L48:
 387              	.LBE61:
 388              		.loc 1 187 0
 389 0098 D8F80010 		ldr	r1, [r8]
 390 009c 39BB     		cbnz	r1, .L50
 391              	.L26:
 392              		.loc 1 189 0
 393 009e 3968     		ldr	r1, [r7]
 394 00a0 09BB     		cbnz	r1, .L51
 395              	.L27:
 396              		.loc 1 192 0
 397 00a2 4FF4FA70 		mov	r0, #500
 398 00a6 FFF7FEFF 		bl	chThdSleep
 399              	.LVL18:
ARM GAS  /tmp/ccB7DtyR.s 			page 8


 400              	.LBB62:
 401              	.LBB58:
 402              		.loc 4 347 0
 403 00aa 134B     		ldr	r3, .L52
 404 00ac 9B69     		ldr	r3, [r3, #24]
 405              	.LBE58:
 406              	.LBE62:
 407              		.loc 1 152 0
 408 00ae 93F82130 		ldrb	r3, [r3, #33]	@ zero_extendqisi2
 409 00b2 5B07     		lsls	r3, r3, #29
 410 00b4 B4D5     		bpl	.L19
 411              		.loc 1 194 0
 412 00b6 03B0     		add	sp, sp, #12
 413              		.cfi_remember_state
 414              		.cfi_def_cfa_offset 36
 415              		@ sp needed
 416 00b8 BDE8F08F 		pop	{r4, r5, r6, r7, r8, r9, r10, fp, pc}
 417              	.LVL19:
 418              	.L47:
 419              		.cfi_restore_state
 420              	.LBB63:
 421              		.loc 1 168 0
 422 00bc A9FB0532 		umull	r3, r2, r9, r5
 423 00c0 D208     		lsrs	r2, r2, #3
 424 00c2 02EB4202 		add	r2, r2, r2, lsl #1
 425 00c6 A5EB8202 		sub	r2, r5, r2, lsl #2
 426              		.loc 1 167 0
 427 00ca 0132     		adds	r2, r2, #1
 428 00cc 5946     		mov	r1, fp
 429 00ce 0320     		movs	r0, #3
 430 00d0 FFF7FEFF 		bl	log_formatted
 431              	.LVL20:
 432              		.loc 1 169 0
 433 00d4 0123     		movs	r3, #1
 434              		.loc 1 170 0
 435 00d6 D8F80020 		ldr	r2, [r8]
 436              		.loc 1 169 0
 437 00da B376     		strb	r3, [r6, #26]
 438              		.loc 1 170 0
 439 00dc AB40     		lsls	r3, r3, r5
 440 00de 1343     		orrs	r3, r3, r2
 441 00e0 C8F80030 		str	r3, [r8]
 442 00e4 ADE7     		b	.L23
 443              	.L51:
 444              	.LBE63:
 445              		.loc 1 190 0
 446 00e6 0848     		ldr	r0, .L52+16
 447 00e8 FFF7FEFF 		bl	chEvtBroadcastFlags
 448              	.LVL21:
 449 00ec D9E7     		b	.L27
 450              	.L50:
 451              		.loc 1 188 0
 452 00ee 0748     		ldr	r0, .L52+20
 453 00f0 FFF7FEFF 		bl	chEvtBroadcastFlags
 454              	.LVL22:
 455 00f4 D3E7     		b	.L26
 456              	.LVL23:
ARM GAS  /tmp/ccB7DtyR.s 			page 9


 457              	.L44:
 458              		.cfi_def_cfa_offset 0
 459              		.cfi_restore 4
 460              		.cfi_restore 5
 461              		.cfi_restore 6
 462              		.cfi_restore 7
 463              		.cfi_restore 8
 464              		.cfi_restore 9
 465              		.cfi_restore 10
 466              		.cfi_restore 11
 467              		.cfi_restore 14
 468 00f6 7047     		bx	lr
 469              	.L53:
 470              		.align	2
 471              	.L52:
 472 00f8 00000000 		.word	ch
 473 00fc 00000000 		.word	.LANCHOR2
 474 0100 00000000 		.word	.LANCHOR0
 475 0104 04000000 		.word	.LANCHOR1+4
 476 0108 00000000 		.word	.LANCHOR5
 477 010c 00000000 		.word	.LANCHOR4
 478 0110 00000000 		.word	.LANCHOR3
 479 0114 ABAAAAAA 		.word	-1431655765
 480 0118 18000000 		.word	.LC1
 481 011c 00000000 		.word	.LC0
 482              		.cfi_endproc
 483              	.LFE329:
 484              		.size	Motor_Monitor, .-Motor_Monitor
 485              		.section	.text.Motor_setOutput,"ax",%progbits
 486              		.align	1
 487              		.p2align 2,,3
 488              		.global	Motor_setOutput
 489              		.syntax unified
 490              		.thumb
 491              		.thumb_func
 492              		.fpu fpv4-sp-d16
 493              		.type	Motor_setOutput, %function
 494              	Motor_setOutput:
 495              	.LFB327:
 496              		.loc 1 83 0
 497              		.cfi_startproc
 498              		@ args = 0, pretend = 0, frame = 0
 499              		@ frame_needed = 0, uses_anonymous_args = 0
 500              		@ link register save eliminated.
 501              	.LVL24:
 502              		.loc 1 84 0
 503 0000 164A     		ldr	r2, .L62
 504 0002 174B     		ldr	r3, .L62+4
 505 0004 821A     		subs	r2, r0, r2
 506              		.loc 1 83 0
 507 0006 30B4     		push	{r4, r5}
 508              		.cfi_def_cfa_offset 8
 509              		.cfi_offset 4, -8
 510              		.cfi_offset 5, -4
 511              		.loc 1 84 0
 512 0008 9410     		asrs	r4, r2, #2
 513 000a 03FB04F3 		mul	r3, r3, r4
ARM GAS  /tmp/ccB7DtyR.s 			page 10


 514              	.LVL25:
 515              		.loc 1 86 0
 516 000e 152B     		cmp	r3, #21
 517 0010 20D8     		bhi	.L60
 518              		.loc 1 91 0
 519 0012 B2F5B47F 		cmp	r2, #360
 520 0016 15DC     		bgt	.L61
 521              		.loc 1 98 0
 522 0018 9C10     		asrs	r4, r3, #2
 523              	.LVL26:
 524              	.L58:
 525              		.loc 1 106 0
 526 001a 5D42     		rsbs	r5, r3, #0
 527 001c 114A     		ldr	r2, .L62+8
 528              		.loc 1 104 0
 529 001e 0183     		strh	r1, [r0, #24]	@ movhi
 530              		.loc 1 106 0
 531 0020 05F00300 		and	r0, r5, #3
 532              	.LVL27:
 533 0024 02EB0412 		add	r2, r2, r4, lsl #4
 534 0028 03F00303 		and	r3, r3, #3
 535              	.LVL28:
 536 002c 58BF     		it	pl
 537 002e 4342     		rsbpl	r3, r0, #0
 538              		.loc 1 105 0
 539 0030 0D48     		ldr	r0, .L62+12
 540              		.loc 1 106 0
 541 0032 02EB4303 		add	r3, r2, r3, lsl #1
 542              		.loc 1 105 0
 543 0036 0122     		movs	r2, #1
 544 0038 0255     		strb	r2, [r0, r4]
 545              		.loc 1 106 0
 546 003a 0A12     		asrs	r2, r1, #8
 547              		.loc 1 107 0
 548 003c 5972     		strb	r1, [r3, #9]
 549              		.loc 1 106 0
 550 003e 1A72     		strb	r2, [r3, #8]
 551              		.loc 1 109 0
 552 0040 30BC     		pop	{r4, r5}
 553              		.cfi_remember_state
 554              		.cfi_restore 5
 555              		.cfi_restore 4
 556              		.cfi_def_cfa_offset 0
 557              	.LVL29:
 558 0042 7047     		bx	lr
 559              	.LVL30:
 560              	.L61:
 561              		.cfi_restore_state
 562              		.loc 1 93 0
 563 0044 0B3B     		subs	r3, r3, #11
 564              	.LVL31:
 565              		.loc 1 94 0
 566 0046 002B     		cmp	r3, #0
 567 0048 1C46     		mov	r4, r3
 568 004a B8BF     		it	lt
 569 004c DC1C     		addlt	r4, r3, #3
 570 004e A410     		asrs	r4, r4, #2
ARM GAS  /tmp/ccB7DtyR.s 			page 11


 571 0050 0334     		adds	r4, r4, #3
 572              	.LVL32:
 573 0052 E2E7     		b	.L58
 574              	.LVL33:
 575              	.L60:
 576              		.loc 1 88 0
 577 0054 0548     		ldr	r0, .L62+16
 578              	.LVL34:
 579              		.loc 1 109 0
 580 0056 30BC     		pop	{r4, r5}
 581              		.cfi_restore 5
 582              		.cfi_restore 4
 583              		.cfi_def_cfa_offset 0
 584              		.loc 1 88 0
 585 0058 FFF7FEBF 		b	chSysHalt
 586              	.LVL35:
 587              	.L63:
 588              		.align	2
 589              	.L62:
 590 005c 00000000 		.word	.LANCHOR0
 591 0060 398EE338 		.word	954437177
 592 0064 00000000 		.word	.LANCHOR7
 593 0068 00000000 		.word	.LANCHOR6
 594 006c 00000000 		.word	.LC2
 595              		.cfi_endproc
 596              	.LFE327:
 597              		.size	Motor_setOutput, .-Motor_setOutput
 598              		.section	.text.Motor_sendOutput,"ax",%progbits
 599              		.align	1
 600              		.p2align 2,,3
 601              		.global	Motor_sendOutput
 602              		.syntax unified
 603              		.thumb
 604              		.thumb_func
 605              		.fpu fpv4-sp-d16
 606              		.type	Motor_sendOutput, %function
 607              	Motor_sendOutput:
 608              	.LFB328:
 609              		.loc 1 120 0
 610              		.cfi_startproc
 611              		@ args = 0, pretend = 0, frame = 0
 612              		@ frame_needed = 0, uses_anonymous_args = 0
 613              	.LVL36:
 614 0000 F8B5     		push	{r3, r4, r5, r6, r7, lr}
 615              		.cfi_def_cfa_offset 24
 616              		.cfi_offset 3, -24
 617              		.cfi_offset 4, -20
 618              		.cfi_offset 5, -16
 619              		.cfi_offset 6, -12
 620              		.cfi_offset 7, -8
 621              		.cfi_offset 14, -4
 622              	.LBB64:
 623              		.loc 1 125 0
 624 0002 334C     		ldr	r4, .L101
 625 0004 2578     		ldrb	r5, [r4]	@ zero_extendqisi2
 626              	.LBE64:
 627              		.loc 1 120 0
ARM GAS  /tmp/ccB7DtyR.s 			page 12


 628 0006 0646     		mov	r6, r0
 629              	.LBB65:
 630              		.loc 1 125 0
 631 0008 75B9     		cbnz	r5, .L95
 632              	.LVL37:
 633 000a 6778     		ldrb	r7, [r4, #1]	@ zero_extendqisi2
 634 000c D7B9     		cbnz	r7, .L96
 635              	.LVL38:
 636              	.L66:
 637 000e A778     		ldrb	r7, [r4, #2]	@ zero_extendqisi2
 638 0010 37BB     		cbnz	r7, .L97
 639              	.L68:
 640              	.LVL39:
 641 0012 E778     		ldrb	r7, [r4, #3]	@ zero_extendqisi2
 642 0014 002F     		cmp	r7, #0
 643 0016 31D1     		bne	.L98
 644              	.L70:
 645              	.LVL40:
 646 0018 2779     		ldrb	r7, [r4, #4]	@ zero_extendqisi2
 647 001a 002F     		cmp	r7, #0
 648 001c 3CD1     		bne	.L99
 649              	.L72:
 650              	.LVL41:
 651 001e 6779     		ldrb	r7, [r4, #5]	@ zero_extendqisi2
 652 0020 002F     		cmp	r7, #0
 653 0022 47D1     		bne	.L100
 654              	.L74:
 655              	.LVL42:
 656              	.LBE65:
 657              		.loc 1 139 0
 658 0024 2846     		mov	r0, r5
 659 0026 F8BD     		pop	{r3, r4, r5, r6, r7, pc}
 660              	.LVL43:
 661              	.L95:
 662              	.LBB66:
 663              		.loc 1 127 0
 664 0028 0346     		mov	r3, r0
 665 002a 2A4A     		ldr	r2, .L101+4
 666 002c 2A48     		ldr	r0, .L101+8
 667              	.LVL44:
 668 002e 0021     		movs	r1, #0
 669 0030 FFF7FEFF 		bl	canTransmitTimeout
 670              	.LVL45:
 671              		.loc 1 133 0
 672 0034 0023     		movs	r3, #0
 673              		.loc 1 125 0
 674 0036 6778     		ldrb	r7, [r4, #1]	@ zero_extendqisi2
 675              		.loc 1 133 0
 676 0038 2370     		strb	r3, [r4]
 677              		.loc 1 127 0
 678 003a C51A     		subs	r5, r0, r3
 679 003c 18BF     		it	ne
 680 003e 0125     		movne	r5, #1
 681              	.LVL46:
 682              		.loc 1 125 0
 683 0040 002F     		cmp	r7, #0
 684 0042 E4D0     		beq	.L66
ARM GAS  /tmp/ccB7DtyR.s 			page 13


 685              	.L96:
 686              		.loc 1 127 0
 687 0044 3346     		mov	r3, r6
 688 0046 254A     		ldr	r2, .L101+12
 689 0048 2348     		ldr	r0, .L101+8
 690 004a 0021     		movs	r1, #0
 691 004c FFF7FEFF 		bl	canTransmitTimeout
 692              	.LVL47:
 693              		.loc 1 133 0
 694 0050 0023     		movs	r3, #0
 695 0052 9842     		cmp	r0, r3
 696 0054 18BF     		it	ne
 697 0056 3D46     		movne	r5, r7
 698              	.LVL48:
 699              		.loc 1 125 0
 700 0058 A778     		ldrb	r7, [r4, #2]	@ zero_extendqisi2
 701              		.loc 1 133 0
 702 005a 6370     		strb	r3, [r4, #1]
 703              	.LVL49:
 704              		.loc 1 125 0
 705 005c 002F     		cmp	r7, #0
 706 005e D8D0     		beq	.L68
 707              	.L97:
 708              		.loc 1 127 0
 709 0060 3346     		mov	r3, r6
 710 0062 1F4A     		ldr	r2, .L101+16
 711 0064 1C48     		ldr	r0, .L101+8
 712 0066 0021     		movs	r1, #0
 713 0068 FFF7FEFF 		bl	canTransmitTimeout
 714              	.LVL50:
 715              		.loc 1 133 0
 716 006c 0023     		movs	r3, #0
 717 006e 9842     		cmp	r0, r3
 718 0070 18BF     		it	ne
 719 0072 3D46     		movne	r5, r7
 720              	.LVL51:
 721              		.loc 1 125 0
 722 0074 E778     		ldrb	r7, [r4, #3]	@ zero_extendqisi2
 723              		.loc 1 133 0
 724 0076 A370     		strb	r3, [r4, #2]
 725              	.LVL52:
 726              		.loc 1 125 0
 727 0078 002F     		cmp	r7, #0
 728 007a CDD0     		beq	.L70
 729              	.L98:
 730              		.loc 1 127 0
 731 007c 3346     		mov	r3, r6
 732 007e 194A     		ldr	r2, .L101+20
 733 0080 1948     		ldr	r0, .L101+24
 734 0082 0021     		movs	r1, #0
 735 0084 FFF7FEFF 		bl	canTransmitTimeout
 736              	.LVL53:
 737              		.loc 1 133 0
 738 0088 0023     		movs	r3, #0
 739 008a 9842     		cmp	r0, r3
 740 008c 18BF     		it	ne
 741 008e 3D46     		movne	r5, r7
ARM GAS  /tmp/ccB7DtyR.s 			page 14


 742              	.LVL54:
 743              		.loc 1 125 0
 744 0090 2779     		ldrb	r7, [r4, #4]	@ zero_extendqisi2
 745              		.loc 1 133 0
 746 0092 E370     		strb	r3, [r4, #3]
 747              	.LVL55:
 748              		.loc 1 125 0
 749 0094 002F     		cmp	r7, #0
 750 0096 C2D0     		beq	.L72
 751              	.L99:
 752              		.loc 1 127 0
 753 0098 3346     		mov	r3, r6
 754 009a 144A     		ldr	r2, .L101+28
 755 009c 1248     		ldr	r0, .L101+24
 756 009e 0021     		movs	r1, #0
 757 00a0 FFF7FEFF 		bl	canTransmitTimeout
 758              	.LVL56:
 759              		.loc 1 133 0
 760 00a4 0023     		movs	r3, #0
 761 00a6 9842     		cmp	r0, r3
 762 00a8 18BF     		it	ne
 763 00aa 3D46     		movne	r5, r7
 764              	.LVL57:
 765              		.loc 1 125 0
 766 00ac 6779     		ldrb	r7, [r4, #5]	@ zero_extendqisi2
 767              		.loc 1 133 0
 768 00ae 2371     		strb	r3, [r4, #4]
 769              	.LVL58:
 770              		.loc 1 125 0
 771 00b0 002F     		cmp	r7, #0
 772 00b2 B7D0     		beq	.L74
 773              	.L100:
 774              		.loc 1 127 0
 775 00b4 3346     		mov	r3, r6
 776 00b6 0E4A     		ldr	r2, .L101+32
 777 00b8 0B48     		ldr	r0, .L101+24
 778 00ba 0021     		movs	r1, #0
 779 00bc FFF7FEFF 		bl	canTransmitTimeout
 780              	.LVL59:
 781              		.loc 1 133 0
 782 00c0 0023     		movs	r3, #0
 783 00c2 9842     		cmp	r0, r3
 784 00c4 18BF     		it	ne
 785 00c6 3D46     		movne	r5, r7
 786              	.LVL60:
 787 00c8 6371     		strb	r3, [r4, #5]
 788              	.LVL61:
 789              	.LBE66:
 790              		.loc 1 139 0
 791 00ca 2846     		mov	r0, r5
 792 00cc F8BD     		pop	{r3, r4, r5, r6, r7, pc}
 793              	.LVL62:
 794              	.L102:
 795 00ce 00BF     		.align	2
 796              	.L101:
 797 00d0 00000000 		.word	.LANCHOR6
 798 00d4 00000000 		.word	.LANCHOR7
ARM GAS  /tmp/ccB7DtyR.s 			page 15


 799 00d8 00000000 		.word	CAND1
 800 00dc 10000000 		.word	.LANCHOR7+16
 801 00e0 20000000 		.word	.LANCHOR7+32
 802 00e4 30000000 		.word	.LANCHOR7+48
 803 00e8 00000000 		.word	CAND2
 804 00ec 40000000 		.word	.LANCHOR7+64
 805 00f0 50000000 		.word	.LANCHOR7+80
 806              		.cfi_endproc
 807              	.LFE328:
 808              		.size	Motor_sendOutput, .-Motor_sendOutput
 809              		.section	.text.Motor_initialize,"ax",%progbits
 810              		.align	1
 811              		.p2align 2,,3
 812              		.global	Motor_initialize
 813              		.syntax unified
 814              		.thumb
 815              		.thumb_func
 816              		.fpu fpv4-sp-d16
 817              		.type	Motor_initialize, %function
 818              	Motor_initialize:
 819              	.LFB332:
 820              		.loc 1 259 0
 821              		.cfi_startproc
 822              		@ args = 0, pretend = 0, frame = 0
 823              		@ frame_needed = 0, uses_anonymous_args = 0
 824 0000 00B5     		push	{lr}
 825              		.cfi_def_cfa_offset 4
 826              		.cfi_offset 14, -4
 827              		.loc 1 264 0
 828 0002 0849     		ldr	r1, .L105
 829              		.loc 1 259 0
 830 0004 83B0     		sub	sp, sp, #12
 831              		.cfi_def_cfa_offset 16
 832              		.loc 1 264 0
 833 0006 0520     		movs	r0, #5
 834 0008 FFF7FEFF 		bl	log_msg
 835              	.LVL63:
 836              		.loc 1 265 0
 837 000c 0023     		movs	r3, #0
 838 000e 0093     		str	r3, [sp]
 839 0010 8022     		movs	r2, #128
 840 0012 054B     		ldr	r3, .L105+4
 841 0014 0548     		ldr	r0, .L105+8
 842 0016 4FF4C871 		mov	r1, #400
 843 001a FFF7FEFF 		bl	chThdCreateStatic
 844              	.LVL64:
 845              		.loc 1 267 0
 846 001e 03B0     		add	sp, sp, #12
 847              		.cfi_def_cfa_offset 4
 848              		@ sp needed
 849 0020 5DF804FB 		ldr	pc, [sp], #4
 850              	.L106:
 851              		.align	2
 852              	.L105:
 853 0024 00000000 		.word	.LC3
 854 0028 00000000 		.word	Motor_Monitor
 855 002c 00000000 		.word	.LANCHOR8
ARM GAS  /tmp/ccB7DtyR.s 			page 16


 856              		.cfi_endproc
 857              	.LFE332:
 858              		.size	Motor_initialize, .-Motor_initialize
 859              		.global	Motor_CANFilter_208_20B
 860              		.global	Motor_CANFilter_201_207
 861              		.global	Motor_CANFilter_2FF
 862              		.global	Motor_CANFilter_1FF
 863              		.global	Motor_CANFilter_200
 864              		.global	Motor_OutputCANFrame
 865              		.global	Motor_OutputGroupUpdated
 866              		.global	g_motors
 867              		.global	g_MotorDisconnectionEvent
 868              		.global	g_MotorConnectionEvent
 869              		.section	.bss.Motor_Monitor_wa,"aw",%nobits
 870              		.align	3
 871              		.set	.LANCHOR8,. + 0
 872              		.type	Motor_Monitor_wa, %object
 873              		.size	Motor_Monitor_wa, 400
 874              	Motor_Monitor_wa:
 875 0000 00000000 		.space	400
 875      00000000 
 875      00000000 
 875      00000000 
 875      00000000 
 876              		.section	.bss.Motor_OutputGroupUpdated,"aw",%nobits
 877              		.align	2
 878              		.set	.LANCHOR6,. + 0
 879              		.type	Motor_OutputGroupUpdated, %object
 880              		.size	Motor_OutputGroupUpdated, 6
 881              	Motor_OutputGroupUpdated:
 882 0000 00000000 		.space	6
 882      0000
 883              		.section	.bss.connectionFlag.10163,"aw",%nobits
 884              		.align	2
 885              		.set	.LANCHOR3,. + 0
 886              		.type	connectionFlag.10163, %object
 887              		.size	connectionFlag.10163, 4
 888              	connectionFlag.10163:
 889 0000 00000000 		.space	4
 890              		.section	.bss.connection_info,"aw",%nobits
 891              		.align	2
 892              		.set	.LANCHOR1,. + 0
 893              		.type	connection_info, %object
 894              		.size	connection_info, 176
 895              	connection_info:
 896 0000 00000000 		.space	176
 896      00000000 
 896      00000000 
 896      00000000 
 896      00000000 
 897              		.section	.bss.disconnectionFlag.10164,"aw",%nobits
 898              		.align	2
 899              		.set	.LANCHOR2,. + 0
 900              		.type	disconnectionFlag.10164, %object
 901              		.size	disconnectionFlag.10164, 4
 902              	disconnectionFlag.10164:
 903 0000 00000000 		.space	4
ARM GAS  /tmp/ccB7DtyR.s 			page 17


 904              		.section	.bss.g_motors,"aw",%nobits
 905              		.align	2
 906              		.set	.LANCHOR0,. + 0
 907              		.type	g_motors, %object
 908              		.size	g_motors, 792
 909              	g_motors:
 910 0000 00000000 		.space	792
 910      00000000 
 910      00000000 
 910      00000000 
 910      00000000 
 911              		.section	.data.Motor_OutputCANFrame,"aw",%progbits
 912              		.align	3
 913              		.set	.LANCHOR7,. + 0
 914              		.type	Motor_OutputCANFrame, %object
 915              		.size	Motor_OutputCANFrame, 96
 916              	Motor_OutputCANFrame:
 917 0000 08       		.byte	8
 918 0001 000000   		.space	3
 919 0004 00       		.byte	0
 920 0005 02       		.byte	2
 921 0006 0000     		.space	2
 922 0008 00000000 		.word	0
 923 000c 00000000 		.word	0
 924 0010 08       		.byte	8
 925 0011 000000   		.space	3
 926 0014 FF       		.byte	255
 927 0015 01       		.byte	1
 928 0016 0000     		.space	2
 929 0018 00000000 		.word	0
 930 001c 00000000 		.word	0
 931 0020 08       		.byte	8
 932 0021 000000   		.space	3
 933 0024 FF       		.byte	255
 934 0025 02       		.byte	2
 935 0026 0000     		.space	2
 936 0028 00000000 		.word	0
 937 002c 00000000 		.word	0
 938 0030 08       		.byte	8
 939 0031 000000   		.space	3
 940 0034 00       		.byte	0
 941 0035 02       		.byte	2
 942 0036 0000     		.space	2
 943 0038 00000000 		.word	0
 944 003c 00000000 		.word	0
 945 0040 08       		.byte	8
 946 0041 000000   		.space	3
 947 0044 FF       		.byte	255
 948 0045 01       		.byte	1
 949 0046 0000     		.space	2
 950 0048 00000000 		.word	0
 951 004c 00000000 		.word	0
 952 0050 08       		.byte	8
 953 0051 000000   		.space	3
 954 0054 FF       		.byte	255
 955 0055 02       		.byte	2
 956 0056 0000     		.space	2
ARM GAS  /tmp/ccB7DtyR.s 			page 18


 957 0058 00000000 		.word	0
 958 005c 00000000 		.word	0
 959              		.section	.data.g_MotorConnectionEvent,"aw",%progbits
 960              		.align	2
 961              		.set	.LANCHOR4,. + 0
 962              		.type	g_MotorConnectionEvent, %object
 963              		.size	g_MotorConnectionEvent, 4
 964              	g_MotorConnectionEvent:
 965 0000 00000000 		.word	g_MotorConnectionEvent
 966              		.section	.data.g_MotorDisconnectionEvent,"aw",%progbits
 967              		.align	2
 968              		.set	.LANCHOR5,. + 0
 969              		.type	g_MotorDisconnectionEvent, %object
 970              		.size	g_MotorDisconnectionEvent, 4
 971              	g_MotorDisconnectionEvent:
 972 0000 00000000 		.word	g_MotorDisconnectionEvent
 973              		.section	.rodata.Motor_CANFilter_1FF,"a",%progbits
 974              		.align	2
 975              		.type	Motor_CANFilter_1FF, %object
 976              		.size	Motor_CANFilter_1FF, 20
 977              	Motor_CANFilter_1FF:
 978 0000 00000000 		.word	Motor_CommandReceptionCallback
 979 0004 00000000 		.word	0
 980 0008 0000E03F 		.word	1071644672
 981 000c 00000000 		.word	0
 982 0010 01       		.byte	1
 983 0011 01       		.byte	1
 984 0012 0000     		.space	2
 985              		.section	.rodata.Motor_CANFilter_200,"a",%progbits
 986              		.align	2
 987              		.type	Motor_CANFilter_200, %object
 988              		.size	Motor_CANFilter_200, 20
 989              	Motor_CANFilter_200:
 990 0000 00000000 		.word	Motor_CommandReceptionCallback
 991 0004 00000000 		.word	0
 992 0008 00000040 		.word	1073741824
 993 000c 00000000 		.word	0
 994 0010 01       		.byte	1
 995 0011 01       		.byte	1
 996 0012 0000     		.space	2
 997              		.section	.rodata.Motor_CANFilter_201_207,"a",%progbits
 998              		.align	2
 999              		.type	Motor_CANFilter_201_207, %object
 1000              		.size	Motor_CANFilter_201_207, 20
 1001              	Motor_CANFilter_201_207:
 1002 0000 00000000 		.word	Motor_FeedbackReceptionCallback
 1003 0004 00000000 		.word	0
 1004 0008 00400000 		.word	16384
 1005 000c 18FF0000 		.word	65304
 1006 0010 00       		.byte	0
 1007 0011 00       		.byte	0
 1008 0012 0000     		.space	2
 1009              		.section	.rodata.Motor_CANFilter_208_20B,"a",%progbits
 1010              		.align	2
 1011              		.type	Motor_CANFilter_208_20B, %object
 1012              		.size	Motor_CANFilter_208_20B, 20
 1013              	Motor_CANFilter_208_20B:
ARM GAS  /tmp/ccB7DtyR.s 			page 19


 1014 0000 00000000 		.word	Motor_FeedbackReceptionCallback
 1015 0004 00000000 		.word	0
 1016 0008 00410000 		.word	16640
 1017 000c 98FF0000 		.word	65432
 1018 0010 00       		.byte	0
 1019 0011 00       		.byte	0
 1020 0012 0000     		.space	2
 1021              		.section	.rodata.Motor_CANFilter_2FF,"a",%progbits
 1022              		.align	2
 1023              		.type	Motor_CANFilter_2FF, %object
 1024              		.size	Motor_CANFilter_2FF, 20
 1025              	Motor_CANFilter_2FF:
 1026 0000 00000000 		.word	Motor_CommandReceptionCallback
 1027 0004 00000000 		.word	0
 1028 0008 0000E05F 		.word	1608515584
 1029 000c 00000000 		.word	0
 1030 0010 01       		.byte	1
 1031 0011 01       		.byte	1
 1032 0012 0000     		.space	2
 1033              		.section	.rodata.Motor_Monitor.str1.4,"aMS",%progbits,1
 1034              		.align	2
 1035              	.LC0:
 1036 0000 4D6F746F 		.ascii	"Motor 0x20%X Connected\000"
 1036      72203078 
 1036      32302558 
 1036      20436F6E 
 1036      6E656374 
 1037 0017 00       		.space	1
 1038              	.LC1:
 1039 0018 4D6F746F 		.ascii	"Motor 0x20%X Disconnected\000"
 1039      72203078 
 1039      32302558 
 1039      20446973 
 1039      636F6E6E 
 1040              		.section	.rodata.Motor_initialize.str1.4,"aMS",%progbits,1
 1041              		.align	2
 1042              	.LC3:
 1043 0000 6D6F746F 		.ascii	"motor thread started\000"
 1043      72207468 
 1043      72656164 
 1043      20737461 
 1043      72746564 
 1044              		.section	.rodata.Motor_setOutput.str1.4,"aMS",%progbits,1
 1045              		.align	2
 1046              	.LC2:
 1047 0000 696E7661 		.ascii	"invalid Motor_Data_t * passed to Motor_set_current\000"
 1047      6C696420 
 1047      4D6F746F 
 1047      725F4461 
 1047      74615F74 
 1048              		.text
 1049              	.Letext0:
 1050              		.file 5 "/usr/lib/gcc/arm-none-eabi/7.3.1/include/stddef.h"
 1051              		.file 6 "/usr/arm-none-eabi/include/machine/_default_types.h"
 1052              		.file 7 "/usr/arm-none-eabi/include/sys/_stdint.h"
 1053              		.file 8 "./RM18A-ChibiOS18-Core/chibios/os/common/ports/ARMCMx/compilers/GCC/chtypes.h"
 1054              		.file 9 "./RM18A-ChibiOS18-Core/chibios/os/rt/include/chsystypes.h"
ARM GAS  /tmp/ccB7DtyR.s 			page 20


 1055              		.file 10 "./RM18A-ChibiOS18-Core/chibios/os/rt/include/chschd.h"
 1056              		.file 11 "./RM18A-ChibiOS18-Core/chibios/os/common/ext/ARM/CMSIS/Core/Include/core_cm4.h"
 1057              		.file 12 "./RM18A-ChibiOS18-Core/chibios/os/common/ext/ST/STM32F4xx/system_stm32f4xx.h"
 1058              		.file 13 "./RM18A-ChibiOS18-Core/chibios/os/common/ext/ST/STM32F4xx/stm32f427xx.h"
 1059              		.file 14 "./RM18A-ChibiOS18-Core/chibios/os/common/ports/ARMCMx/chcore.h"
 1060              		.file 15 "./RM18A-ChibiOS18-Core/chibios/os/common/ports/ARMCMx/chcore_v7m.h"
 1061              		.file 16 "./RM18A-ChibiOS18-Core/chibios/os/hal/ports/STM32/LLD/TIMv1/stm32_tim.h"
 1062              		.file 17 "./RM18A-ChibiOS18-Core/chibios/os/rt/include/chtm.h"
 1063              		.file 18 "./RM18A-ChibiOS18-Core/chibios/os/rt/include/chsem.h"
 1064              		.file 19 "./RM18A-ChibiOS18-Core/chibios/os/rt/include/chmtx.h"
 1065              		.file 20 "./RM18A-ChibiOS18-Core/chibios/os/rt/include/chsys.h"
 1066              		.file 21 "./RM18A-ChibiOS18-Core/chibios/os/rt/include/chregistry.h"
 1067              		.file 22 "./RM18A-ChibiOS18-Core/chibios/os/rt/include/chevents.h"
 1068              		.file 23 "./RM18A-ChibiOS18-Core/chibios/os/oslib/include/chmemcore.h"
 1069              		.file 24 "./RM18A-ChibiOS18-Core/chibios/os/oslib/include/chmempools.h"
 1070              		.file 25 "./RM18A-ChibiOS18-Core/chibios/os/oslib/include/chfactory.h"
 1071              		.file 26 "./RM18A-ChibiOS18-Core/chibios/os/hal/ports/STM32/LLD/DMAv2/stm32_dma.h"
 1072              		.file 27 "./RM18A-ChibiOS18-Core/chibios/os/hal/include/hal_queues.h"
 1073              		.file 28 "./RM18A-ChibiOS18-Core/chibios/os/hal/include/hal_pal.h"
 1074              		.file 29 "./RM18A-ChibiOS18-Core/chibios/os/hal/ports/STM32/LLD/GPIOv2/hal_pal_lld.h"
 1075              		.file 30 "./RM18A-ChibiOS18-Core/chibios/os/hal/include/hal_adc.h"
 1076              		.file 31 "./RM18A-ChibiOS18-Core/chibios/os/hal/ports/STM32/LLD/ADCv2/hal_adc_lld.h"
 1077              		.file 32 "./RM18A-ChibiOS18-Core/chibios/os/hal/include/hal_can.h"
 1078              		.file 33 "./RM18A-ChibiOS18-Core/chibios/os/hal/ports/STM32/LLD/CANv1/hal_can_lld.h"
 1079              		.file 34 "./RM18A-ChibiOS18-Core/chibios/os/hal/include/hal_i2c.h"
 1080              		.file 35 "./RM18A-ChibiOS18-Core/chibios/os/hal/lib/fallback/I2C/hal_i2c_lld.h"
 1081              		.file 36 "./RM18A-ChibiOS18-Core/chibios/os/hal/include/hal_icu.h"
 1082              		.file 37 "./RM18A-ChibiOS18-Core/chibios/os/hal/ports/STM32/LLD/TIMv1/hal_icu_lld.h"
 1083              		.file 38 "./RM18A-ChibiOS18-Core/chibios/os/hal/include/hal_pwm.h"
 1084              		.file 39 "./RM18A-ChibiOS18-Core/chibios/os/hal/ports/STM32/LLD/TIMv1/hal_pwm_lld.h"
 1085              		.file 40 "./RM18A-ChibiOS18-Core/chibios/os/hal/include/hal_serial.h"
 1086              		.file 41 "./RM18A-ChibiOS18-Core/chibios/os/hal/ports/STM32/LLD/USARTv1/hal_serial_lld.h"
 1087              		.file 42 "./RM18A-ChibiOS18-Core/chibios/os/hal/include/hal_spi.h"
 1088              		.file 43 "./RM18A-ChibiOS18-Core/chibios/os/hal/ports/STM32/LLD/SPIv1/hal_spi_lld.h"
 1089              		.file 44 "./RM18A-ChibiOS18-Core/chibios/os/hal/include/hal_uart.h"
 1090              		.file 45 "./RM18A-ChibiOS18-Core/chibios/os/hal/ports/STM32/LLD/USARTv1/hal_uart_lld.h"
 1091              		.file 46 "./RM18A-ChibiOS18-Core/chibios/os/hal/include/hal_usb.h"
 1092              		.file 47 "./RM18A-ChibiOS18-Core/chibios/os/hal/ports/STM32/LLD/OTGv1/hal_usb_lld.h"
 1093              		.file 48 "./RM18A-ChibiOS18-Core/chibios/os/hal/ports/STM32/LLD/OTGv1/stm32_otg.h"
 1094              		.file 49 "./RM18A-ChibiOS18-Core/src/peripherals/CAN_Manager.h"
 1095              		.file 50 "./RM18A-ChibiOS18-Core/src/ext_hw/motor.h"
 1096              		.file 51 "./RM18A-ChibiOS18-Core/src/shell/shell.h"
 1097              		.file 52 "./RM18A-ChibiOS18-Core/src/diagnostics/logger.h"
 1098              		.file 53 "./RM18A-ChibiOS18-Core/chibios/os/rt/include/chvt.h"
 1099              		.file 54 "./RM18A-ChibiOS18-Core/chibios/os/common/ports/ARMCMx/chcore_timer.h"
 1100              		.file 55 "./RM18A-ChibiOS18-Core/chibios/os/rt/include/ch.h"