ARM GAS  /tmp/ccXQcnKi.s 			page 1


   1              		.cpu cortex-m4
   2              		.eabi_attribute 27, 1
   3              		.eabi_attribute 28, 1
   4              		.eabi_attribute 20, 1
   5              		.eabi_attribute 21, 1
   6              		.eabi_attribute 23, 3
   7              		.eabi_attribute 24, 1
   8              		.eabi_attribute 25, 1
   9              		.eabi_attribute 26, 1
  10              		.eabi_attribute 30, 2
  11              		.eabi_attribute 34, 1
  12              		.eabi_attribute 18, 4
  13              		.file	"mpu6500.c"
  14              		.text
  15              	.Ltext0:
  16              		.cfi_sections	.debug_frame
  17              		.section	.text.mpu6500_tempCtrl_thd,"ax",%progbits
  18              		.align	1
  19              		.p2align 2,,3
  20              		.syntax unified
  21              		.thumb
  22              		.thumb_func
  23              		.fpu fpv4-sp-d16
  24              		.type	mpu6500_tempCtrl_thd, %function
  25              	mpu6500_tempCtrl_thd:
  26              	.LFB346:
  27              		.file 1 "./RM18A-ChibiOS18-Core/src/ext_hw/mpu6500.c"
  28              		.loc 1 311 0
  29              		.cfi_startproc
  30              		@ args = 0, pretend = 0, frame = 56
  31              		@ frame_needed = 0, uses_anonymous_args = 0
  32              	.LVL0:
  33 0000 2DE9F047 		push	{r4, r5, r6, r7, r8, r9, r10, lr}
  34              		.cfi_def_cfa_offset 32
  35              		.cfi_offset 4, -32
  36              		.cfi_offset 5, -28
  37              		.cfi_offset 6, -24
  38              		.cfi_offset 7, -20
  39              		.cfi_offset 8, -16
  40              		.cfi_offset 9, -12
  41              		.cfi_offset 10, -8
  42              		.cfi_offset 14, -4
  43 0004 2DED028B 		vpush.64	{d8}
  44              		.cfi_def_cfa_offset 40
  45              		.cfi_offset 80, -40
  46              		.cfi_offset 81, -36
  47              		.loc 1 318 0
  48 0008 4E4D     		ldr	r5, .L25
  49              		.loc 1 314 0
  50 000a 4F48     		ldr	r0, .L25+4
  51              	.LVL1:
  52              	.LBB61:
  53              	.LBB62:
  54              	.LBB63:
  55              	.LBB64:
  56              		.file 2 "./RM18A-ChibiOS18-Core/chibios/os/rt/include/chthreads.h"
  57              		.loc 2 274 0
ARM GAS  /tmp/ccXQcnKi.s 			page 2


  58 000c 4F4E     		ldr	r6, .L25+8
  59              	.LBE64:
  60              	.LBE63:
  61              	.LBE62:
  62              	.LBE61:
  63              		.loc 1 311 0
  64 000e 8EB0     		sub	sp, sp, #56
  65              		.cfi_def_cfa_offset 96
  66              		.loc 1 314 0
  67 0010 4FF48D72 		mov	r2, #282
  68 0014 2021     		movs	r1, #32
  69 0016 FFF7FEFF 		bl	_pal_lld_setgroupmode
  70              	.LVL2:
  71              		.loc 1 318 0
  72 001a 0FCD     		ldmia	r5!, {r0, r1, r2, r3}
  73 001c 01AC     		add	r4, sp, #4
  74 001e 0FC4     		stmia	r4!, {r0, r1, r2, r3}
  75 0020 0FCD     		ldmia	r5!, {r0, r1, r2, r3}
  76 0022 0FC4     		stmia	r4!, {r0, r1, r2, r3}
  77 0024 0FCD     		ldmia	r5!, {r0, r1, r2, r3}
  78 0026 0FC4     		stmia	r4!, {r0, r1, r2, r3}
  79 0028 2B68     		ldr	r3, [r5]
  80              		.loc 1 330 0
  81 002a 4948     		ldr	r0, .L25+12
  82              		.loc 1 318 0
  83 002c 2360     		str	r3, [r4]
  84              		.loc 1 330 0
  85 002e 01A9     		add	r1, sp, #4
  86 0030 FFF7FEFF 		bl	pwmStart
  87              	.LVL3:
  88              		.loc 1 331 0
  89 0034 DFED470A 		vldr.32	s1, .L25+16
  90 0038 9FED470A 		vldr.32	s0, .L25+20
  91 003c 4748     		ldr	r0, .L25+24
  92 003e FFF7FEFF 		bl	pid_init
  93              	.LVL4:
  94              		.loc 1 332 0
  95 0042 9FED471A 		vldr.32	s2, .L25+28
  96 0046 DFED470A 		vldr.32	s1, .L25+32
  97 004a 9FED470A 		vldr.32	s0, .L25+36
  98 004e 4348     		ldr	r0, .L25+24
  99 0050 FFF7FEFF 		bl	pid_load_param
 100              	.LVL5:
 101              	.LBB67:
 102              	.LBB65:
 103              		.loc 2 347 0
 104 0054 B369     		ldr	r3, [r6, #24]
 105              	.LBE65:
 106              	.LBE67:
 107              		.loc 1 334 0
 108 0056 93F82130 		ldrb	r3, [r3, #33]	@ zero_extendqisi2
 109 005a 5A07     		lsls	r2, r3, #29
 110 005c 6CD4     		bmi	.L1
 111 005e 3C4F     		ldr	r7, .L25+12
 112 0060 424C     		ldr	r4, .L25+40
 113 0062 DFF81481 		ldr	r8, .L25+52
 114              	.LBB68:
ARM GAS  /tmp/ccXQcnKi.s 			page 3


 115              		.loc 1 338 0
 116 0066 9FED428A 		vldr.32	s16, .L25+44
 117              		.loc 1 344 0
 118 006a DFED428A 		vldr.32	s17, .L25+48
 119              		.loc 1 351 0
 120 006e DFF8ECA0 		ldr	r10, .L25+24
 121              		.loc 1 358 0
 122 0072 DFF80891 		ldr	r9, .L25+56
 123              		.loc 1 346 0
 124 0076 3D46     		mov	r5, r7
 125 0078 4AE0     		b	.L12
 126              	.LVL6:
 127              	.L24:
 128              		.loc 1 339 0 discriminator 1
 129 007a B8EE087A 		vmov.f32	s14, #-3.0e+0
 130 007e F4EEC77A 		vcmpe.f32	s15, s14
 131 0082 F1EE10FA 		vmrs	APSR_nzcv, FPSCR
 132 0086 4ED4     		bmi	.L3
 133              		.loc 1 342 0
 134 0088 E38F     		ldrh	r3, [r4, #62]
 135 008a 23F00103 		bic	r3, r3, #1
 136 008e 1B04     		lsls	r3, r3, #16
 137 0090 1B0C     		lsrs	r3, r3, #16
 138 0092 E387     		strh	r3, [r4, #62]	@ movhi
 139              	.L6:
 140              		.loc 1 344 0
 141 0094 D4ED067A 		vldr.32	s15, [r4, #24]
 142              	.LVL7:
 143 0098 F5EEC07A 		vcmpe.f32	s15, #0
 144 009c F1EE10FA 		vmrs	APSR_nzcv, FPSCR
 145 00a0 06D4     		bmi	.L7
 146              		.loc 1 344 0 is_stmt 0 discriminator 1
 147 00a2 D4ED067A 		vldr.32	s15, [r4, #24]
 148 00a6 F4EEE87A 		vcmpe.f32	s15, s17
 149 00aa F1EE10FA 		vmrs	APSR_nzcv, FPSCR
 150 00ae 04DD     		ble	.L8
 151              	.L7:
 152              		.loc 1 346 0 is_stmt 1
 153 00b0 0022     		movs	r2, #0
 154 00b2 0121     		movs	r1, #1
 155 00b4 2846     		mov	r0, r5
 156 00b6 FFF7FEFF 		bl	pwmEnableChannel
 157              	.LVL8:
 158              	.L8:
 159              		.loc 1 349 0
 160 00ba 94F83C30 		ldrb	r3, [r4, #60]	@ zero_extendqisi2
 161 00be 042B     		cmp	r3, #4
 162 00c0 36D0     		beq	.L10
 163              		.loc 1 349 0 is_stmt 0 discriminator 1
 164 00c2 94F83C30 		ldrb	r3, [r4, #60]	@ zero_extendqisi2
 165 00c6 052B     		cmp	r3, #5
 166 00c8 32D0     		beq	.L10
 167              		.loc 1 351 0 is_stmt 1
 168 00ca D4ED060A 		vldr.32	s1, [r4, #24]
 169 00ce B0EE480A 		vmov.f32	s0, s16
 170 00d2 5046     		mov	r0, r10
 171 00d4 FFF7FEFF 		bl	pid_update
ARM GAS  /tmp/ccXQcnKi.s 			page 4


 172              	.LVL9:
 173 00d8 BDEEC00A 		vcvt.s32.f32	s0, s0
 174 00dc 10EE103A 		vmov	r3, s0	@ int
 175 00e0 1AB2     		sxth	r2, r3
 176              		.loc 1 352 0
 177 00e2 002A     		cmp	r2, #0
 178              		.loc 1 351 0
 179 00e4 A8F80020 		strh	r2, [r8]	@ movhi
 180              		.loc 1 352 0
 181 00e8 22DB     		blt	.L10
 182              	.L11:
 183              		.loc 1 358 0
 184 00ea BB68     		ldr	r3, [r7, #8]
 185 00ec 03FB02F2 		mul	r2, r3, r2
 186 00f0 A9FB0232 		umull	r3, r2, r9, r2
 187 00f4 520B     		lsrs	r2, r2, #13
 188 00f6 0121     		movs	r1, #1
 189 00f8 2846     		mov	r0, r5
 190 00fa FFF7FEFF 		bl	pwmEnableChannel
 191              	.LVL10:
 192              		.loc 1 359 0
 193 00fe 41F28830 		movw	r0, #5000
 194 0102 FFF7FEFF 		bl	chThdSleep
 195              	.LVL11:
 196              	.LBE68:
 197              	.LBB69:
 198              	.LBB66:
 199              		.loc 2 347 0
 200 0106 B369     		ldr	r3, [r6, #24]
 201              	.LBE66:
 202              	.LBE69:
 203              		.loc 1 334 0
 204 0108 93F82130 		ldrb	r3, [r3, #33]	@ zero_extendqisi2
 205 010c 5B07     		lsls	r3, r3, #29
 206 010e 13D4     		bmi	.L1
 207              	.L12:
 208              	.LBB70:
 209              		.loc 1 338 0
 210 0110 D4ED067A 		vldr.32	s15, [r4, #24]
 211 0114 78EE677A 		vsub.f32	s15, s16, s15
 212              	.LVL12:
 213              		.loc 1 339 0
 214 0118 B0EE087A 		vmov.f32	s14, #3.0e+0
 215 011c F4EEC77A 		vcmpe.f32	s15, s14
 216 0120 F1EE10FA 		vmrs	APSR_nzcv, FPSCR
 217 0124 A9DD     		ble	.L24
 218              	.L3:
 219              		.loc 1 340 0
 220 0126 E38F     		ldrh	r3, [r4, #62]
 221 0128 43F00103 		orr	r3, r3, #1
 222 012c E387     		strh	r3, [r4, #62]	@ movhi
 223 012e B1E7     		b	.L6
 224              	.LVL13:
 225              	.L10:
 226              		.loc 1 353 0
 227 0130 0022     		movs	r2, #0
 228 0132 A8F80020 		strh	r2, [r8]	@ movhi
ARM GAS  /tmp/ccXQcnKi.s 			page 5


 229 0136 D8E7     		b	.L11
 230              	.L1:
 231              	.LBE70:
 232              		.loc 1 361 0
 233 0138 0EB0     		add	sp, sp, #56
 234              		.cfi_def_cfa_offset 40
 235              		@ sp needed
 236 013a BDEC028B 		vldm	sp!, {d8}
 237              		.cfi_restore 80
 238              		.cfi_restore 81
 239              		.cfi_def_cfa_offset 32
 240 013e BDE8F087 		pop	{r4, r5, r6, r7, r8, r9, r10, pc}
 241              	.L26:
 242 0142 00BF     		.align	2
 243              	.L25:
 244 0144 00000000 		.word	.LANCHOR0
 245 0148 00040240 		.word	1073873920
 246 014c 00000000 		.word	ch
 247 0150 00000000 		.word	PWMD3
 248 0154 00401C46 		.word	1176256512
 249 0158 00800945 		.word	1158250496
 250 015c 00000000 		.word	.LANCHOR1
 251 0160 00000000 		.word	0
 252 0164 0000C842 		.word	1120403456
 253 0168 0000AF45 		.word	1169096704
 254 016c 00000000 		.word	.LANCHOR2
 255 0170 00004842 		.word	1112014848
 256 0174 00009642 		.word	1117126656
 257 0178 00000000 		.word	.LANCHOR3
 258 017c 5917B7D1 		.word	-776530087
 259              		.cfi_endproc
 260              	.LFE346:
 261              		.size	mpu6500_tempCtrl_thd, .-mpu6500_tempCtrl_thd
 262              		.section	.text.mpu6500_getData,"ax",%progbits
 263              		.align	1
 264              		.p2align 2,,3
 265              		.global	mpu6500_getData
 266              		.syntax unified
 267              		.thumb
 268              		.thumb_func
 269              		.fpu fpv4-sp-d16
 270              		.type	mpu6500_getData, %function
 271              	mpu6500_getData:
 272              	.LFB338:
 273              		.loc 1 145 0
 274              		.cfi_startproc
 275              		@ args = 0, pretend = 0, frame = 0
 276              		@ frame_needed = 0, uses_anonymous_args = 0
 277              		@ link register save eliminated.
 278              		.loc 1 147 0
 279 0000 0048     		ldr	r0, .L28
 280 0002 7047     		bx	lr
 281              	.L29:
 282              		.align	2
 283              	.L28:
 284 0004 00000000 		.word	.LANCHOR2
 285              		.cfi_endproc
ARM GAS  /tmp/ccXQcnKi.s 			page 6


 286              	.LFE338:
 287              		.size	mpu6500_getData, .-mpu6500_getData
 288              		.section	.text.mpu6500_sleep,"ax",%progbits
 289              		.align	1
 290              		.p2align 2,,3
 291              		.global	mpu6500_sleep
 292              		.syntax unified
 293              		.thumb
 294              		.thumb_func
 295              		.fpu fpv4-sp-d16
 296              		.type	mpu6500_sleep, %function
 297              	mpu6500_sleep:
 298              	.LFB339:
 299              		.loc 1 158 0
 300              		.cfi_startproc
 301              		@ args = 0, pretend = 0, frame = 0
 302              		@ frame_needed = 0, uses_anonymous_args = 0
 303              		@ link register save eliminated.
 304              		.loc 1 159 0
 305 0000 014B     		ldr	r3, .L31
 306 0002 0422     		movs	r2, #4
 307 0004 1A70     		strb	r2, [r3]
 308              		.loc 1 160 0
 309 0006 7047     		bx	lr
 310              	.L32:
 311              		.align	2
 312              	.L31:
 313 0008 00000000 		.word	.LANCHOR4
 314              		.cfi_endproc
 315              	.LFE339:
 316              		.size	mpu6500_sleep, .-mpu6500_sleep
 317              		.section	.text.mpu6500_useGyro,"ax",%progbits
 318              		.align	1
 319              		.p2align 2,,3
 320              		.global	mpu6500_useGyro
 321              		.syntax unified
 322              		.thumb
 323              		.thumb_func
 324              		.fpu fpv4-sp-d16
 325              		.type	mpu6500_useGyro, %function
 326              	mpu6500_useGyro:
 327              	.LFB340:
 328              		.loc 1 163 0
 329              		.cfi_startproc
 330              		@ args = 0, pretend = 0, frame = 0
 331              		@ frame_needed = 0, uses_anonymous_args = 0
 332              		@ link register save eliminated.
 333              		.loc 1 164 0
 334 0000 014B     		ldr	r3, .L34
 335 0002 0322     		movs	r2, #3
 336 0004 1A70     		strb	r2, [r3]
 337              		.loc 1 165 0
 338 0006 7047     		bx	lr
 339              	.L35:
 340              		.align	2
 341              	.L34:
 342 0008 00000000 		.word	.LANCHOR4
ARM GAS  /tmp/ccXQcnKi.s 			page 7


 343              		.cfi_endproc
 344              	.LFE340:
 345              		.size	mpu6500_useGyro, .-mpu6500_useGyro
 346              		.section	.text.mpu6500_resume,"ax",%progbits
 347              		.align	1
 348              		.p2align 2,,3
 349              		.global	mpu6500_resume
 350              		.syntax unified
 351              		.thumb
 352              		.thumb_func
 353              		.fpu fpv4-sp-d16
 354              		.type	mpu6500_resume, %function
 355              	mpu6500_resume:
 356              	.LFB341:
 357              		.loc 1 168 0
 358              		.cfi_startproc
 359              		@ args = 0, pretend = 0, frame = 0
 360              		@ frame_needed = 0, uses_anonymous_args = 0
 361 0000 38B5     		push	{r3, r4, r5, lr}
 362              		.cfi_def_cfa_offset 16
 363              		.cfi_offset 3, -16
 364              		.cfi_offset 4, -12
 365              		.cfi_offset 5, -8
 366              		.cfi_offset 14, -4
 367              		.loc 1 170 0
 368 0002 0F4C     		ldr	r4, .L43
 369              		.loc 1 169 0
 370 0004 0F4D     		ldr	r5, .L43+4
 371              		.loc 1 170 0
 372 0006 E26D     		ldr	r2, [r4, #92]
 373              		.loc 1 169 0
 374 0008 0123     		movs	r3, #1
 375 000a 2B70     		strb	r3, [r5]
 376              		.loc 1 170 0
 377 000c 2AB1     		cbz	r2, .L37
 378              		.loc 1 171 0
 379 000e 0021     		movs	r1, #0
 380 0010 04F15C00 		add	r0, r4, #92
 381 0014 FFF7FEFF 		bl	chThdResume
 382              	.LVL14:
 383 0018 2B78     		ldrb	r3, [r5]	@ zero_extendqisi2
 384              	.L37:
 385              		.loc 1 173 0
 386 001a 0022     		movs	r2, #0
 387 001c 84F83C20 		strb	r2, [r4, #60]
 388              		.loc 1 176 0
 389 0020 94F83C20 		ldrb	r2, [r4, #60]	@ zero_extendqisi2
 390 0024 9342     		cmp	r3, r2
 391 0026 08D0     		beq	.L38
 392              	.L39:
 393              		.loc 1 177 0
 394 0028 4FF47A70 		mov	r0, #1000
 395 002c FFF7FEFF 		bl	chThdSleep
 396              	.LVL15:
 397              		.loc 1 176 0
 398 0030 94F83C30 		ldrb	r3, [r4, #60]	@ zero_extendqisi2
 399 0034 2A78     		ldrb	r2, [r5]	@ zero_extendqisi2
ARM GAS  /tmp/ccXQcnKi.s 			page 8


 400 0036 9A42     		cmp	r2, r3
 401 0038 F6D1     		bne	.L39
 402              	.L38:
 403              		.loc 1 180 0
 404 003a 0120     		movs	r0, #1
 405 003c 38BD     		pop	{r3, r4, r5, pc}
 406              	.L44:
 407 003e 00BF     		.align	2
 408              	.L43:
 409 0040 00000000 		.word	.LANCHOR2
 410 0044 00000000 		.word	.LANCHOR4
 411              		.cfi_endproc
 412              	.LFE341:
 413              		.size	mpu6500_resume, .-mpu6500_resume
 414              		.section	.text.mpu6500_getDataRaw,"ax",%progbits
 415              		.align	1
 416              		.p2align 2,,3
 417              		.global	mpu6500_getDataRaw
 418              		.syntax unified
 419              		.thumb
 420              		.thumb_func
 421              		.fpu fpv4-sp-d16
 422              		.type	mpu6500_getDataRaw, %function
 423              	mpu6500_getDataRaw:
 424              	.LFB344:
 425              		.loc 1 245 0
 426              		.cfi_startproc
 427              		@ args = 0, pretend = 0, frame = 0
 428              		@ frame_needed = 0, uses_anonymous_args = 0
 429              	.LVL16:
 430 0000 2DE9F843 		push	{r3, r4, r5, r6, r7, r8, r9, lr}
 431              		.cfi_def_cfa_offset 32
 432              		.cfi_offset 3, -32
 433              		.cfi_offset 4, -28
 434              		.cfi_offset 5, -24
 435              		.cfi_offset 6, -20
 436              		.cfi_offset 7, -16
 437              		.cfi_offset 8, -12
 438              		.cfi_offset 9, -8
 439              		.cfi_offset 14, -4
 440              		.loc 1 249 0
 441 0004 284D     		ldr	r5, .L47
 442              		.loc 1 247 0
 443 0006 DFF8AC90 		ldr	r9, .L47+12
 444              		.loc 1 252 0
 445 000a 284C     		ldr	r4, .L47+4
 446              		.loc 1 247 0
 447 000c BB23     		movs	r3, #187
 448              		.loc 1 245 0
 449 000e 0746     		mov	r7, r0
 450              		.loc 1 249 0
 451 0010 2846     		mov	r0, r5
 452              	.LVL17:
 453              		.loc 1 245 0
 454 0012 8846     		mov	r8, r1
 455 0014 1646     		mov	r6, r2
 456              		.loc 1 247 0
ARM GAS  /tmp/ccXQcnKi.s 			page 9


 457 0016 89F80030 		strb	r3, [r9]
 458              		.loc 1 249 0
 459 001a FFF7FEFF 		bl	spiSelect
 460              	.LVL18:
 461              		.loc 1 251 0
 462 001e 4A46     		mov	r2, r9
 463 0020 2846     		mov	r0, r5
 464 0022 0121     		movs	r1, #1
 465 0024 FFF7FEFF 		bl	spiSend
 466              	.LVL19:
 467              		.loc 1 252 0
 468 0028 2246     		mov	r2, r4
 469 002a 2846     		mov	r0, r5
 470 002c 0E21     		movs	r1, #14
 471 002e FFF7FEFF 		bl	spiReceive
 472              	.LVL20:
 473              		.loc 1 254 0
 474 0032 2846     		mov	r0, r5
 475 0034 FFF7FEFF 		bl	spiUnselect
 476              	.LVL21:
 477              		.loc 1 257 0
 478 0038 2278     		ldrb	r2, [r4]	@ zero_extendqisi2
 479 003a 6378     		ldrb	r3, [r4, #1]	@ zero_extendqisi2
 480              		.loc 1 266 0
 481 003c 9FED1C6A 		vldr.32	s12, .L47+8
 482              		.loc 1 257 0
 483 0040 43EA0223 		orr	r3, r3, r2, lsl #8
 484 0044 A8F80030 		strh	r3, [r8]	@ movhi
 485              		.loc 1 258 0
 486 0048 A278     		ldrb	r2, [r4, #2]	@ zero_extendqisi2
 487 004a E378     		ldrb	r3, [r4, #3]	@ zero_extendqisi2
 488 004c 43EA0223 		orr	r3, r3, r2, lsl #8
 489 0050 A8F80230 		strh	r3, [r8, #2]	@ movhi
 490              		.loc 1 259 0
 491 0054 2279     		ldrb	r2, [r4, #4]	@ zero_extendqisi2
 492 0056 6379     		ldrb	r3, [r4, #5]	@ zero_extendqisi2
 493 0058 43EA0223 		orr	r3, r3, r2, lsl #8
 494 005c A8F80430 		strh	r3, [r8, #4]	@ movhi
 495              		.loc 1 260 0
 496 0060 227A     		ldrb	r2, [r4, #8]	@ zero_extendqisi2
 497 0062 637A     		ldrb	r3, [r4, #9]	@ zero_extendqisi2
 498 0064 43EA0223 		orr	r3, r3, r2, lsl #8
 499 0068 3380     		strh	r3, [r6]	@ movhi
 500              		.loc 1 261 0
 501 006a A27A     		ldrb	r2, [r4, #10]	@ zero_extendqisi2
 502 006c E37A     		ldrb	r3, [r4, #11]	@ zero_extendqisi2
 503 006e 43EA0223 		orr	r3, r3, r2, lsl #8
 504 0072 7380     		strh	r3, [r6, #2]	@ movhi
 505              		.loc 1 262 0
 506 0074 227B     		ldrb	r2, [r4, #12]	@ zero_extendqisi2
 507 0076 637B     		ldrb	r3, [r4, #13]	@ zero_extendqisi2
 508 0078 43EA0223 		orr	r3, r3, r2, lsl #8
 509 007c B380     		strh	r3, [r6, #4]	@ movhi
 510              	.LVL22:
 511              		.loc 1 263 0
 512 007e A279     		ldrb	r2, [r4, #6]	@ zero_extendqisi2
 513 0080 E379     		ldrb	r3, [r4, #7]	@ zero_extendqisi2
ARM GAS  /tmp/ccXQcnKi.s 			page 10


 514 0082 43EA0223 		orr	r3, r3, r2, lsl #8
 515              		.loc 1 266 0
 516 0086 1BB2     		sxth	r3, r3
 517 0088 07EE903A 		vmov	s15, r3	@ int
 518 008c F8EEE77A 		vcvt.f32.s32	s15, s15
 519 0090 F3EE056A 		vmov.f32	s13, #2.1e+1
 520 0094 87EE867A 		vdiv.f32	s14, s15, s12
 521              		.loc 1 269 0
 522 0098 0020     		movs	r0, #0
 523              		.loc 1 266 0
 524 009a 77EE267A 		vadd.f32	s15, s14, s13
 525 009e C7ED067A 		vstr.32	s15, [r7, #24]
 526              		.loc 1 269 0
 527 00a2 BDE8F883 		pop	{r3, r4, r5, r6, r7, r8, r9, pc}
 528              	.LVL23:
 529              	.L48:
 530 00a6 00BF     		.align	2
 531              	.L47:
 532 00a8 00000000 		.word	SPID5
 533 00ac 00000000 		.word	.LANCHOR6
 534 00b0 5CEFA643 		.word	1135013724
 535 00b4 00000000 		.word	.LANCHOR5
 536              		.cfi_endproc
 537              	.LFE344:
 538              		.size	mpu6500_getDataRaw, .-mpu6500_getDataRaw
 539              		.section	.text.mpu6500_update,"ax",%progbits
 540              		.align	1
 541              		.p2align 2,,3
 542              		.global	mpu6500_update
 543              		.syntax unified
 544              		.thumb
 545              		.thumb_func
 546              		.fpu fpv4-sp-d16
 547              		.type	mpu6500_update, %function
 548              	mpu6500_update:
 549              	.LFB343:
 550              		.loc 1 206 0
 551              		.cfi_startproc
 552              		@ args = 0, pretend = 0, frame = 40
 553              		@ frame_needed = 0, uses_anonymous_args = 0
 554              	.LVL24:
 555 0000 F0B5     		push	{r4, r5, r6, r7, lr}
 556              		.cfi_def_cfa_offset 20
 557              		.cfi_offset 4, -20
 558              		.cfi_offset 5, -16
 559              		.cfi_offset 6, -12
 560              		.cfi_offset 7, -8
 561              		.cfi_offset 14, -4
 562 0002 8BB0     		sub	sp, sp, #44
 563              		.cfi_def_cfa_offset 64
 564              		.loc 1 208 0
 565 0004 02AA     		add	r2, sp, #8
 566 0006 6946     		mov	r1, sp
 567              		.loc 1 206 0
 568 0008 0446     		mov	r4, r0
 569              		.loc 1 208 0
 570 000a FFF7FEFF 		bl	mpu6500_getDataRaw
ARM GAS  /tmp/ccXQcnKi.s 			page 11


 571              	.LVL25:
 572              		.loc 1 214 0
 573 000e BDF90830 		ldrsh	r3, [sp, #8]
 574 0012 9FED3E4A 		vldr.32	s8, .L51
 575              		.loc 1 213 0
 576 0016 DFED3E4A 		vldr.32	s9, .L51+4
 577              		.loc 1 214 0
 578 001a D4ED092A 		vldr.32	s5, [r4, #36]
 579              		.loc 1 218 0
 580 001e 94ED0A3A 		vldr.32	s6, [r4, #40]
 581              		.loc 1 222 0
 582 0022 D4ED0B3A 		vldr.32	s7, [r4, #44]
 583              		.loc 1 228 0
 584 0026 3B4D     		ldr	r5, .L51+8
 585              		.loc 1 214 0
 586 0028 06EE903A 		vmov	s13, r3	@ int
 587              		.loc 1 218 0
 588 002c BDF90A30 		ldrsh	r3, [sp, #10]
 589 0030 07EE103A 		vmov	s14, r3	@ int
 590              		.loc 1 222 0
 591 0034 BDF90C30 		ldrsh	r3, [sp, #12]
 592 0038 07EE903A 		vmov	s15, r3	@ int
 593              		.loc 1 213 0
 594 003c BDF90030 		ldrsh	r3, [sp]
 595 0040 05EE103A 		vmov	s10, r3	@ int
 596              		.loc 1 217 0
 597 0044 BDF90230 		ldrsh	r3, [sp, #2]
 598 0048 05EE903A 		vmov	s11, r3	@ int
 599              		.loc 1 221 0
 600 004c BDF90430 		ldrsh	r3, [sp, #4]
 601              		.loc 1 214 0
 602 0050 F8EEE66A 		vcvt.f32.s32	s13, s13
 603              		.loc 1 221 0
 604 0054 06EE103A 		vmov	s12, r3	@ int
 605              		.loc 1 218 0
 606 0058 B8EEC77A 		vcvt.f32.s32	s14, s14
 607              		.loc 1 222 0
 608 005c F8EEE77A 		vcvt.f32.s32	s15, s15
 609              		.loc 1 214 0
 610 0060 66EE846A 		vmul.f32	s13, s13, s8
 611              		.loc 1 218 0
 612 0064 27EE047A 		vmul.f32	s14, s14, s8
 613              		.loc 1 222 0
 614 0068 67EE847A 		vmul.f32	s15, s15, s8
 615              		.loc 1 213 0
 616 006c B8EEC55A 		vcvt.f32.s32	s10, s10
 617              		.loc 1 217 0
 618 0070 F8EEE55A 		vcvt.f32.s32	s11, s11
 619              		.loc 1 221 0
 620 0074 B8EEC66A 		vcvt.f32.s32	s12, s12
 621              		.loc 1 214 0
 622 0078 76EEE26A 		vsub.f32	s13, s13, s5
 623              		.loc 1 218 0
 624 007c 37EE437A 		vsub.f32	s14, s14, s6
 625              		.loc 1 222 0
 626 0080 77EEE37A 		vsub.f32	s15, s15, s7
 627              		.loc 1 213 0
ARM GAS  /tmp/ccXQcnKi.s 			page 12


 628 0084 25EE245A 		vmul.f32	s10, s10, s9
 629              		.loc 1 217 0
 630 0088 65EEA45A 		vmul.f32	s11, s11, s9
 631              		.loc 1 221 0
 632 008c 26EE246A 		vmul.f32	s12, s12, s9
 633              		.loc 1 224 0
 634 0090 04F14407 		add	r7, r4, #68
 635              		.loc 1 208 0
 636 0094 0646     		mov	r6, r0
 637              	.LVL26:
 638              		.loc 1 224 0
 639 0096 3846     		mov	r0, r7
 640              		.loc 1 214 0
 641 0098 CDED076A 		vstr.32	s13, [sp, #28]
 642              		.loc 1 218 0
 643 009c 8DED087A 		vstr.32	s14, [sp, #32]
 644              		.loc 1 222 0
 645 00a0 CDED097A 		vstr.32	s15, [sp, #36]
 646              		.loc 1 213 0
 647 00a4 8DED045A 		vstr.32	s10, [sp, #16]
 648              		.loc 1 217 0
 649 00a8 CDED055A 		vstr.32	s11, [sp, #20]
 650              		.loc 1 221 0
 651 00ac 8DED066A 		vstr.32	s12, [sp, #24]
 652              		.loc 1 224 0
 653 00b0 FFF7FEFF 		bl	chMtxLock
 654              	.LVL27:
 655              		.loc 1 225 0
 656 00b4 07AA     		add	r2, sp, #28
 657 00b6 04A9     		add	r1, sp, #16
 658 00b8 2046     		mov	r0, r4
 659 00ba FFF7FEFF 		bl	imu_update
 660              	.LVL28:
 661              	.LBB75:
 662              	.LBB76:
 663              	.LBB77:
 664              	.LBB78:
 665              		.file 3 "./RM18A-ChibiOS18-Core/chibios/os/hal/ports/STM32/LLD/TIMv1/hal_st_lld.h"
 666              		.loc 3 147 0
 667 00be 4FF08043 		mov	r3, #1073741824
 668              	.LBE78:
 669              	.LBE77:
 670              	.LBE76:
 671              	.LBE75:
 672              		.loc 1 228 0
 673 00c2 2846     		mov	r0, r5
 674              	.LBB82:
 675              	.LBB81:
 676              	.LBB80:
 677              	.LBB79:
 678              		.loc 3 147 0
 679 00c4 5B6A     		ldr	r3, [r3, #36]
 680              	.LBE79:
 681              	.LBE80:
 682              	.LBE81:
 683              	.LBE82:
 684              		.loc 1 227 0
ARM GAS  /tmp/ccXQcnKi.s 			page 13


 685 00c6 013B     		subs	r3, r3, #1
 686 00c8 E361     		str	r3, [r4, #28]
 687              		.loc 1 228 0
 688 00ca 94ED000A 		vldr.32	s0, [r4]
 689 00ce FFF7FEFF 		bl	lpfilter_apply
 690              	.LVL29:
 691 00d2 84ED0C0A 		vstr.32	s0, [r4, #48]
 692              		.loc 1 229 0
 693 00d6 05F11C00 		add	r0, r5, #28
 694 00da 94ED010A 		vldr.32	s0, [r4, #4]
 695 00de FFF7FEFF 		bl	lpfilter_apply
 696              	.LVL30:
 697 00e2 84ED0D0A 		vstr.32	s0, [r4, #52]
 698              		.loc 1 230 0
 699 00e6 05F13800 		add	r0, r5, #56
 700 00ea 94ED020A 		vldr.32	s0, [r4, #8]
 701 00ee FFF7FEFF 		bl	lpfilter_apply
 702              	.LVL31:
 703              		.loc 1 232 0
 704 00f2 04F15400 		add	r0, r4, #84
 705              		.loc 1 230 0
 706 00f6 84ED0E0A 		vstr.32	s0, [r4, #56]
 707              		.loc 1 232 0
 708 00fa FFF7FEFF 		bl	chCondBroadcast
 709              	.LVL32:
 710              		.loc 1 233 0
 711 00fe 3846     		mov	r0, r7
 712 0100 FFF7FEFF 		bl	chMtxUnlock
 713              	.LVL33:
 714              		.loc 1 236 0
 715 0104 3046     		mov	r0, r6
 716 0106 0BB0     		add	sp, sp, #44
 717              		.cfi_def_cfa_offset 20
 718              		@ sp needed
 719 0108 F0BD     		pop	{r4, r5, r6, r7, pc}
 720              	.LVL34:
 721              	.L52:
 722 010a 00BF     		.align	2
 723              	.L51:
 724 010c 797D8B3A 		.word	982220153
 725 0110 0AE81C3B 		.word	991750154
 726 0114 00000000 		.word	.LANCHOR7
 727              		.cfi_endproc
 728              	.LFE343:
 729              		.size	mpu6500_update, .-mpu6500_update
 730              		.section	.text.mpu6500_Thd,"ax",%progbits
 731              		.align	1
 732              		.p2align 2,,3
 733              		.syntax unified
 734              		.thumb
 735              		.thumb_func
 736              		.fpu fpv4-sp-d16
 737              		.type	mpu6500_Thd, %function
 738              	mpu6500_Thd:
 739              	.LFB345:
 740              		.loc 1 280 0
 741              		.cfi_startproc
ARM GAS  /tmp/ccXQcnKi.s 			page 14


 742              		@ args = 0, pretend = 0, frame = 40
 743              		@ frame_needed = 0, uses_anonymous_args = 0
 744              	.LVL35:
 745 0000 70B5     		push	{r4, r5, r6, lr}
 746              		.cfi_def_cfa_offset 16
 747              		.cfi_offset 4, -16
 748              		.cfi_offset 5, -12
 749              		.cfi_offset 6, -8
 750              		.cfi_offset 14, -4
 751              	.LBB114:
 752              	.LBB115:
 753              	.LBB116:
 754              	.LBB117:
 755              		.loc 3 147 0
 756 0002 4FF08043 		mov	r3, #1073741824
 757              	.LBE117:
 758              	.LBE116:
 759              	.LBE115:
 760              	.LBE114:
 761              		.loc 1 280 0
 762 0006 2DED028B 		vpush.64	{d8}
 763              		.cfi_def_cfa_offset 24
 764              		.cfi_offset 80, -24
 765              		.cfi_offset 81, -20
 766 000a 5F4D     		ldr	r5, .L76
 767              	.LBB121:
 768              	.LBB120:
 769              	.LBB119:
 770              	.LBB118:
 771              		.loc 3 147 0
 772 000c 5E6A     		ldr	r6, [r3, #36]
 773              	.LBE118:
 774              	.LBE119:
 775              	.LBE120:
 776              	.LBE121:
 777              	.LBB122:
 778              	.LBB123:
 779              		.loc 1 208 0
 780 000e 5F4C     		ldr	r4, .L76+4
 781              		.loc 1 213 0
 782 0010 DFED5F8A 		vldr.32	s17, .L76+8
 783              		.loc 1 214 0
 784 0014 9FED5F8A 		vldr.32	s16, .L76+12
 785              	.LBE123:
 786              	.LBE122:
 787              		.loc 1 280 0
 788 0018 8AB0     		sub	sp, sp, #40
 789              		.cfi_def_cfa_offset 64
 790              	.LVL36:
 791              	.L54:
 792              	.LBB133:
 793              	.LBB134:
 794              		.loc 2 347 0
 795 001a AB69     		ldr	r3, [r5, #24]
 796              	.LBE134:
 797              	.LBE133:
 798              		.loc 1 284 0
ARM GAS  /tmp/ccXQcnKi.s 			page 15


 799 001c 93F82130 		ldrb	r3, [r3, #33]	@ zero_extendqisi2
 800 0020 5B07     		lsls	r3, r3, #29
 801 0022 00F19A80 		bmi	.L74
 802              	.L60:
 803              	.LVL37:
 804              	.LBB136:
 805              	.LBB132:
 806              		.loc 1 208 0
 807 0026 02AA     		add	r2, sp, #8
 808 0028 6946     		mov	r1, sp
 809 002a 5848     		ldr	r0, .L76+4
 810 002c FFF7FEFF 		bl	mpu6500_getDataRaw
 811              	.LVL38:
 812              		.loc 1 214 0
 813 0030 BDF90830 		ldrsh	r3, [sp, #8]
 814 0034 D4ED093A 		vldr.32	s7, [r4, #36]
 815              		.loc 1 218 0
 816 0038 94ED0A4A 		vldr.32	s8, [r4, #40]
 817              		.loc 1 222 0
 818 003c D4ED0B4A 		vldr.32	s9, [r4, #44]
 819              		.loc 1 224 0
 820 0040 5548     		ldr	r0, .L76+16
 821              		.loc 1 214 0
 822 0042 06EE903A 		vmov	s13, r3	@ int
 823              		.loc 1 218 0
 824 0046 BDF90A30 		ldrsh	r3, [sp, #10]
 825 004a 07EE103A 		vmov	s14, r3	@ int
 826              		.loc 1 222 0
 827 004e BDF90C30 		ldrsh	r3, [sp, #12]
 828 0052 07EE903A 		vmov	s15, r3	@ int
 829              		.loc 1 213 0
 830 0056 BDF90030 		ldrsh	r3, [sp]
 831 005a 05EE103A 		vmov	s10, r3	@ int
 832              		.loc 1 217 0
 833 005e BDF90230 		ldrsh	r3, [sp, #2]
 834 0062 05EE903A 		vmov	s11, r3	@ int
 835              		.loc 1 221 0
 836 0066 BDF90430 		ldrsh	r3, [sp, #4]
 837              		.loc 1 214 0
 838 006a F8EEE66A 		vcvt.f32.s32	s13, s13
 839              		.loc 1 221 0
 840 006e 06EE103A 		vmov	s12, r3	@ int
 841              		.loc 1 218 0
 842 0072 B8EEC77A 		vcvt.f32.s32	s14, s14
 843              		.loc 1 222 0
 844 0076 F8EEE77A 		vcvt.f32.s32	s15, s15
 845              		.loc 1 214 0
 846 007a 66EE886A 		vmul.f32	s13, s13, s16
 847              		.loc 1 218 0
 848 007e 27EE087A 		vmul.f32	s14, s14, s16
 849              		.loc 1 222 0
 850 0082 67EE887A 		vmul.f32	s15, s15, s16
 851              		.loc 1 213 0
 852 0086 B8EEC55A 		vcvt.f32.s32	s10, s10
 853              		.loc 1 217 0
 854 008a F8EEE55A 		vcvt.f32.s32	s11, s11
 855              		.loc 1 221 0
ARM GAS  /tmp/ccXQcnKi.s 			page 16


 856 008e B8EEC66A 		vcvt.f32.s32	s12, s12
 857              		.loc 1 214 0
 858 0092 76EEE36A 		vsub.f32	s13, s13, s7
 859              		.loc 1 218 0
 860 0096 37EE447A 		vsub.f32	s14, s14, s8
 861              		.loc 1 222 0
 862 009a 77EEE47A 		vsub.f32	s15, s15, s9
 863              		.loc 1 213 0
 864 009e 25EE285A 		vmul.f32	s10, s10, s17
 865              		.loc 1 217 0
 866 00a2 65EEA85A 		vmul.f32	s11, s11, s17
 867              		.loc 1 221 0
 868 00a6 26EE286A 		vmul.f32	s12, s12, s17
 869              		.loc 1 214 0
 870 00aa CDED076A 		vstr.32	s13, [sp, #28]
 871              		.loc 1 218 0
 872 00ae 8DED087A 		vstr.32	s14, [sp, #32]
 873              		.loc 1 222 0
 874 00b2 CDED097A 		vstr.32	s15, [sp, #36]
 875              		.loc 1 213 0
 876 00b6 8DED045A 		vstr.32	s10, [sp, #16]
 877              		.loc 1 217 0
 878 00ba CDED055A 		vstr.32	s11, [sp, #20]
 879              		.loc 1 221 0
 880 00be 8DED066A 		vstr.32	s12, [sp, #24]
 881              		.loc 1 224 0
 882 00c2 FFF7FEFF 		bl	chMtxLock
 883              	.LVL39:
 884              		.loc 1 225 0
 885 00c6 07AA     		add	r2, sp, #28
 886 00c8 04A9     		add	r1, sp, #16
 887 00ca 3048     		ldr	r0, .L76+4
 888 00cc FFF7FEFF 		bl	imu_update
 889              	.LVL40:
 890              	.LBB124:
 891              	.LBB125:
 892              	.LBB126:
 893              	.LBB127:
 894              		.loc 3 147 0
 895 00d0 4FF08043 		mov	r3, #1073741824
 896              	.LBE127:
 897              	.LBE126:
 898              	.LBE125:
 899              	.LBE124:
 900              		.loc 1 228 0
 901 00d4 3148     		ldr	r0, .L76+20
 902              	.LBB131:
 903              	.LBB130:
 904              	.LBB129:
 905              	.LBB128:
 906              		.loc 3 147 0
 907 00d6 5B6A     		ldr	r3, [r3, #36]
 908              	.LBE128:
 909              	.LBE129:
 910              	.LBE130:
 911              	.LBE131:
 912              		.loc 1 227 0
ARM GAS  /tmp/ccXQcnKi.s 			page 17


 913 00d8 013B     		subs	r3, r3, #1
 914 00da E361     		str	r3, [r4, #28]
 915              		.loc 1 228 0
 916 00dc 94ED000A 		vldr.32	s0, [r4]
 917 00e0 FFF7FEFF 		bl	lpfilter_apply
 918              	.LVL41:
 919 00e4 84ED0C0A 		vstr.32	s0, [r4, #48]
 920              		.loc 1 229 0
 921 00e8 2D48     		ldr	r0, .L76+24
 922 00ea 94ED010A 		vldr.32	s0, [r4, #4]
 923 00ee FFF7FEFF 		bl	lpfilter_apply
 924              	.LVL42:
 925 00f2 84ED0D0A 		vstr.32	s0, [r4, #52]
 926              		.loc 1 230 0
 927 00f6 2B48     		ldr	r0, .L76+28
 928 00f8 94ED020A 		vldr.32	s0, [r4, #8]
 929 00fc FFF7FEFF 		bl	lpfilter_apply
 930              	.LVL43:
 931              		.loc 1 232 0
 932 0100 2948     		ldr	r0, .L76+32
 933              		.loc 1 230 0
 934 0102 84ED0E0A 		vstr.32	s0, [r4, #56]
 935              		.loc 1 232 0
 936 0106 FFF7FEFF 		bl	chCondBroadcast
 937              	.LVL44:
 938              		.loc 1 233 0
 939 010a 2348     		ldr	r0, .L76+16
 940 010c FFF7FEFF 		bl	chMtxUnlock
 941              	.LVL45:
 942              	.LBE132:
 943              	.LBE136:
 944              		.loc 1 288 0
 945 0110 94F83C30 		ldrb	r3, [r4, #60]	@ zero_extendqisi2
 946 0114 042B     		cmp	r3, #4
 947 0116 24D0     		beq	.L55
 948              		.loc 1 289 0 discriminator 1
 949 0118 94F83C30 		ldrb	r3, [r4, #60]	@ zero_extendqisi2
 950              		.loc 1 288 0 discriminator 1
 951 011c 022B     		cmp	r3, #2
 952 011e 20D0     		beq	.L55
 953              		.loc 1 290 0
 954 0120 94F83C30 		ldrb	r3, [r4, #60]	@ zero_extendqisi2
 955              		.loc 1 289 0
 956 0124 052B     		cmp	r3, #5
 957 0126 1CD0     		beq	.L55
 958              		.loc 1 296 0
 959 0128 94F83C30 		ldrb	r3, [r4, #60]	@ zero_extendqisi2
 960 012c 052B     		cmp	r3, #5
 961 012e 07D0     		beq	.L57
 962              		.loc 1 296 0 is_stmt 0 discriminator 1
 963 0130 94F83C30 		ldrb	r3, [r4, #60]	@ zero_extendqisi2
 964 0134 022B     		cmp	r3, #2
 965 0136 03D0     		beq	.L57
 966              		.loc 1 297 0 is_stmt 1
 967 0138 1C4B     		ldr	r3, .L76+36
 968 013a 1B78     		ldrb	r3, [r3]	@ zero_extendqisi2
 969 013c 84F83C30 		strb	r3, [r4, #60]
ARM GAS  /tmp/ccXQcnKi.s 			page 18


 970              	.L57:
 971              	.LBB137:
 972              	.LBB138:
 973              	.LBB139:
 974              	.LBB140:
 975              		.loc 3 147 0
 976 0140 4FF08043 		mov	r3, #1073741824
 977              	.LBE140:
 978              	.LBE139:
 979              	.LBE138:
 980              	.LBE137:
 981              		.loc 1 299 0
 982 0144 0A36     		adds	r6, r6, #10
 983              	.LVL46:
 984              	.LBB150:
 985              	.LBB147:
 986              	.LBB144:
 987              	.LBB141:
 988              		.loc 3 147 0
 989 0146 5A6A     		ldr	r2, [r3, #36]
 990              	.LBE141:
 991              	.LBE144:
 992              	.LBE147:
 993              	.LBE150:
 994              		.loc 1 300 0
 995 0148 9642     		cmp	r6, r2
 996 014a 19D8     		bhi	.L75
 997              	.L58:
 998              	.LBB151:
 999              	.LBB152:
 1000              	.LBB153:
 1001              	.LBB154:
 1002              		.loc 3 147 0
 1003 014c 5E6A     		ldr	r6, [r3, #36]
 1004              	.LVL47:
 1005              	.LBE154:
 1006              	.LBE153:
 1007              	.LBE152:
 1008              	.LBE151:
 1009              	.LBB155:
 1010              	.LBB135:
 1011              		.loc 2 347 0
 1012 014e AB69     		ldr	r3, [r5, #24]
 1013              	.LBE135:
 1014              	.LBE155:
 1015              		.loc 1 284 0
 1016 0150 93F82130 		ldrb	r3, [r3, #33]	@ zero_extendqisi2
 1017 0154 5B07     		lsls	r3, r3, #29
 1018 0156 7FF566AF 		bpl	.L60
 1019              	.L74:
 1020              		.loc 1 307 0
 1021 015a 0AB0     		add	sp, sp, #40
 1022              		.cfi_remember_state
 1023              		.cfi_def_cfa_offset 24
 1024              		@ sp needed
 1025 015c BDEC028B 		vldm	sp!, {d8}
 1026              		.cfi_restore 80
ARM GAS  /tmp/ccXQcnKi.s 			page 19


 1027              		.cfi_restore 81
 1028              		.cfi_def_cfa_offset 16
 1029 0160 70BD     		pop	{r4, r5, r6, pc}
 1030              	.LVL48:
 1031              	.L55:
 1032              		.cfi_restore_state
 1033              	.LBB156:
 1034              	.LBB157:
 1035              	.LBB158:
 1036              	.LBB159:
 1037              		.file 4 "./RM18A-ChibiOS18-Core/chibios/os/common/ext/ARM/CMSIS/Core/Include/cmsis_gcc.h"
 1038              		.loc 4 493 0
 1039 0162 2023     		movs	r3, #32
 1040              		.syntax unified
 1041              	@ 493 "./RM18A-ChibiOS18-Core/chibios/os/common/ext/ARM/CMSIS/Core/Include/cmsis_gcc.h" 1
 1042 0164 83F31188 		MSR basepri, r3
 1043              	@ 0 "" 2
 1044              	.LVL49:
 1045              		.thumb
 1046              		.syntax unified
 1047              	.LBE159:
 1048              	.LBE158:
 1049              	.LBE157:
 1050              	.LBE156:
 1051              		.loc 1 293 0
 1052 0168 1148     		ldr	r0, .L76+40
 1053 016a FFF7FEFF 		bl	chThdSuspendS
 1054              	.LVL50:
 1055              	.LBB160:
 1056              	.LBB161:
 1057              	.LBB162:
 1058              	.LBB163:
 1059              	.LBB164:
 1060              		.loc 4 493 0
 1061 016e 0023     		movs	r3, #0
 1062              		.syntax unified
 1063              	@ 493 "./RM18A-ChibiOS18-Core/chibios/os/common/ext/ARM/CMSIS/Core/Include/cmsis_gcc.h" 1
 1064 0170 83F31188 		MSR basepri, r3
 1065              	@ 0 "" 2
 1066              	.LVL51:
 1067              		.thumb
 1068              		.syntax unified
 1069              	.LBE164:
 1070              	.LBE163:
 1071              	.LBE162:
 1072              	.LBE161:
 1073              	.LBE160:
 1074              	.LBB165:
 1075              	.LBB148:
 1076              	.LBB145:
 1077              	.LBB142:
 1078              		.loc 3 147 0
 1079 0174 4FF08043 		mov	r3, #1073741824
 1080              	.LBE142:
 1081              	.LBE145:
 1082              	.LBE148:
 1083              	.LBE165:
ARM GAS  /tmp/ccXQcnKi.s 			page 20


 1084              		.loc 1 299 0
 1085 0178 0A36     		adds	r6, r6, #10
 1086              	.LVL52:
 1087              	.LBB166:
 1088              	.LBB149:
 1089              	.LBB146:
 1090              	.LBB143:
 1091              		.loc 3 147 0
 1092 017a 5A6A     		ldr	r2, [r3, #36]
 1093              	.LBE143:
 1094              	.LBE146:
 1095              	.LBE149:
 1096              	.LBE166:
 1097              		.loc 1 300 0
 1098 017c 9642     		cmp	r6, r2
 1099 017e E5D9     		bls	.L58
 1100              	.L75:
 1101              		.loc 1 301 0
 1102 0180 3046     		mov	r0, r6
 1103 0182 FFF7FEFF 		bl	chThdSleepUntil
 1104              	.LVL53:
 1105 0186 48E7     		b	.L54
 1106              	.L77:
 1107              		.align	2
 1108              	.L76:
 1109 0188 00000000 		.word	ch
 1110 018c 00000000 		.word	.LANCHOR2
 1111 0190 0AE81C3B 		.word	991750154
 1112 0194 797D8B3A 		.word	982220153
 1113 0198 44000000 		.word	.LANCHOR2+68
 1114 019c 00000000 		.word	.LANCHOR7
 1115 01a0 1C000000 		.word	.LANCHOR7+28
 1116 01a4 38000000 		.word	.LANCHOR7+56
 1117 01a8 54000000 		.word	.LANCHOR2+84
 1118 01ac 00000000 		.word	.LANCHOR4
 1119 01b0 5C000000 		.word	.LANCHOR2+92
 1120              		.cfi_endproc
 1121              	.LFE345:
 1122              		.size	mpu6500_Thd, .-mpu6500_Thd
 1123              		.section	.text.mpu6500_start,"ax",%progbits
 1124              		.align	1
 1125              		.p2align 2,,3
 1126              		.global	mpu6500_start
 1127              		.syntax unified
 1128              		.thumb
 1129              		.thumb_func
 1130              		.fpu fpv4-sp-d16
 1131              		.type	mpu6500_start, %function
 1132              	mpu6500_start:
 1133              	.LFB347:
 1134              		.loc 1 369 0
 1135              		.cfi_startproc
 1136              		@ args = 0, pretend = 0, frame = 16
 1137              		@ frame_needed = 0, uses_anonymous_args = 0
 1138              	.LVL54:
 1139 0000 2DE9F047 		push	{r4, r5, r6, r7, r8, r9, r10, lr}
 1140              		.cfi_def_cfa_offset 32
ARM GAS  /tmp/ccXQcnKi.s 			page 21


 1141              		.cfi_offset 4, -32
 1142              		.cfi_offset 5, -28
 1143              		.cfi_offset 6, -24
 1144              		.cfi_offset 7, -20
 1145              		.cfi_offset 8, -16
 1146              		.cfi_offset 9, -12
 1147              		.cfi_offset 10, -8
 1148              		.cfi_offset 14, -4
 1149              	.LBB169:
 1150              	.LBB170:
 1151              		.loc 1 188 0
 1152 0004 544E     		ldr	r6, .L80
 1153              		.loc 1 194 0
 1154 0006 DFF87C91 		ldr	r9, .L80+44
 1155              	.LBE170:
 1156              	.LBE169:
 1157              		.loc 1 373 0
 1158 000a DFF87C81 		ldr	r8, .L80+48
 1159              		.loc 1 369 0
 1160 000e 2DED028B 		vpush.64	{d8}
 1161              		.cfi_def_cfa_offset 40
 1162              		.cfi_offset 80, -40
 1163              		.cfi_offset 81, -36
 1164              	.LBB175:
 1165              	.LBB171:
 1166              		.loc 1 188 0
 1167 0012 06F12404 		add	r4, r6, #36
 1168              	.LBE171:
 1169              	.LBE175:
 1170              		.loc 1 369 0
 1171 0016 8246     		mov	r10, r0
 1172              	.LBB176:
 1173              	.LBB172:
 1174              		.loc 1 188 0
 1175 0018 94E80700 		ldm	r4, {r0, r1, r2}
 1176              	.LVL55:
 1177              	.LBE172:
 1178              	.LBE176:
 1179              		.loc 1 369 0
 1180 001c 86B0     		sub	sp, sp, #24
 1181              		.cfi_def_cfa_offset 64
 1182              	.LBB177:
 1183              	.LBB173:
 1184              		.loc 1 188 0
 1185 001e 03AD     		add	r5, sp, #12
 1186 0020 85E80700 		stm	r5, {r0, r1, r2}
 1187              		.loc 1 189 0
 1188 0024 3046     		mov	r0, r6
 1189 0026 6022     		movs	r2, #96
 1190 0028 0021     		movs	r1, #0
 1191 002a FFF7FEFF 		bl	memset
 1192              	.LVL56:
 1193              		.loc 1 190 0
 1194 002e 95E80700 		ldm	r5, {r0, r1, r2}
 1195              		.loc 1 194 0
 1196 0032 DFED4A8A 		vldr.32	s17, .L80+4
 1197 0036 9FED4A8A 		vldr.32	s16, .L80+8
ARM GAS  /tmp/ccXQcnKi.s 			page 22


 1198              	.LBE173:
 1199              	.LBE177:
 1200              		.loc 1 380 0
 1201 003a 4A4D     		ldr	r5, .L80+12
 1202              	.LBB178:
 1203              	.LBB174:
 1204              		.loc 1 190 0
 1205 003c 84E80700 		stm	r4, {r0, r1, r2}
 1206              		.loc 1 192 0
 1207 0040 0027     		movs	r7, #0
 1208              		.loc 1 194 0
 1209 0042 F0EE680A 		vmov.f32	s1, s17
 1210 0046 B0EE480A 		vmov.f32	s0, s16
 1211 004a 4846     		mov	r0, r9
 1212              		.loc 1 192 0
 1213 004c F765     		str	r7, [r6, #92]
 1214              		.loc 1 194 0
 1215 004e FFF7FEFF 		bl	lpfilter_init
 1216              	.LVL57:
 1217              		.loc 1 195 0
 1218 0052 F0EE680A 		vmov.f32	s1, s17
 1219 0056 B0EE480A 		vmov.f32	s0, s16
 1220 005a 09F11C00 		add	r0, r9, #28
 1221 005e FFF7FEFF 		bl	lpfilter_init
 1222              	.LVL58:
 1223              		.loc 1 196 0
 1224 0062 F0EE680A 		vmov.f32	s1, s17
 1225 0066 B0EE480A 		vmov.f32	s0, s16
 1226 006a 09F13800 		add	r0, r9, #56
 1227 006e FFF7FEFF 		bl	lpfilter_init
 1228              	.LVL59:
 1229              	.LBE174:
 1230              	.LBE178:
 1231              		.loc 1 373 0
 1232 0072 4046     		mov	r0, r8
 1233 0074 40F29A22 		movw	r2, #666
 1234 0078 4FF48071 		mov	r1, #256
 1235              		.loc 1 371 0
 1236 007c C6F820A0 		str	r10, [r6, #32]
 1237              		.loc 1 373 0
 1238 0080 FFF7FEFF 		bl	_pal_lld_setgroupmode
 1239              	.LVL60:
 1240              		.loc 1 374 0
 1241 0084 4046     		mov	r0, r8
 1242 0086 40F29A22 		movw	r2, #666
 1243 008a 4FF40071 		mov	r1, #512
 1244              		.loc 1 378 0
 1245 008e 364C     		ldr	r4, .L80+16
 1246              		.loc 1 374 0
 1247 0090 FFF7FEFF 		bl	_pal_lld_setgroupmode
 1248              	.LVL61:
 1249              		.loc 1 375 0
 1250 0094 4046     		mov	r0, r8
 1251 0096 40F29A22 		movw	r2, #666
 1252 009a 8021     		movs	r1, #128
 1253 009c FFF7FEFF 		bl	_pal_lld_setgroupmode
 1254              	.LVL62:
ARM GAS  /tmp/ccXQcnKi.s 			page 23


 1255              		.loc 1 376 0
 1256 00a0 1922     		movs	r2, #25
 1257 00a2 4046     		mov	r0, r8
 1258 00a4 4021     		movs	r1, #64
 1259 00a6 FFF7FEFF 		bl	_pal_lld_setgroupmode
 1260              	.LVL63:
 1261              		.loc 1 378 0
 1262 00aa 2046     		mov	r0, r4
 1263 00ac 2F49     		ldr	r1, .L80+20
 1264 00ae FFF7FEFF 		bl	spiStart
 1265              	.LVL64:
 1266              		.loc 1 380 0
 1267 00b2 4CF26B03 		movw	r3, #49259
 1268 00b6 2B80     		strh	r3, [r5]	@ movhi
 1269              		.loc 1 383 0
 1270 00b8 2046     		mov	r0, r4
 1271 00ba FFF7FEFF 		bl	spiSelect
 1272              	.LVL65:
 1273              		.loc 1 385 0
 1274 00be 2A46     		mov	r2, r5
 1275 00c0 0221     		movs	r1, #2
 1276 00c2 2046     		mov	r0, r4
 1277 00c4 FFF7FEFF 		bl	spiSend
 1278              	.LVL66:
 1279              		.loc 1 387 0
 1280 00c8 2046     		mov	r0, r4
 1281 00ca FFF7FEFF 		bl	spiUnselect
 1282              	.LVL67:
 1283              		.loc 1 389 0
 1284 00ce 4FF47A70 		mov	r0, #1000
 1285 00d2 FFF7FEFF 		bl	chThdSleep
 1286              	.LVL68:
 1287              		.loc 1 391 0
 1288 00d6 40F26B13 		movw	r3, #363
 1289 00da 2B80     		strh	r3, [r5]	@ movhi
 1290              		.loc 1 394 0
 1291 00dc 2046     		mov	r0, r4
 1292 00de FFF7FEFF 		bl	spiSelect
 1293              	.LVL69:
 1294              		.loc 1 396 0
 1295 00e2 2A46     		mov	r2, r5
 1296 00e4 0221     		movs	r1, #2
 1297 00e6 2046     		mov	r0, r4
 1298 00e8 FFF7FEFF 		bl	spiSend
 1299              	.LVL70:
 1300              		.loc 1 398 0
 1301 00ec 2046     		mov	r0, r4
 1302 00ee FFF7FEFF 		bl	spiUnselect
 1303              	.LVL71:
 1304              		.loc 1 400 0
 1305 00f2 3220     		movs	r0, #50
 1306 00f4 FFF7FEFF 		bl	chThdSleep
 1307              	.LVL72:
 1308              		.loc 1 402 0
 1309 00f8 1D4B     		ldr	r3, .L80+24
 1310 00fa 2B60     		str	r3, [r5]
 1311              		.loc 1 406 0
ARM GAS  /tmp/ccXQcnKi.s 			page 24


 1312 00fc 4FF00508 		mov	r8, #5
 1313              		.loc 1 408 0
 1314 0100 2046     		mov	r0, r4
 1315              		.loc 1 406 0
 1316 0102 85F80480 		strb	r8, [r5, #4]
 1317              		.loc 1 408 0
 1318 0106 FFF7FEFF 		bl	spiSelect
 1319              	.LVL73:
 1320              		.loc 1 410 0
 1321 010a 2A46     		mov	r2, r5
 1322 010c 4146     		mov	r1, r8
 1323 010e 2046     		mov	r0, r4
 1324 0110 FFF7FEFF 		bl	spiSend
 1325              	.LVL74:
 1326              		.loc 1 412 0
 1327 0114 2046     		mov	r0, r4
 1328 0116 FFF7FEFF 		bl	spiUnselect
 1329              	.LVL75:
 1330              		.loc 1 414 0
 1331 011a 06F14400 		add	r0, r6, #68
 1332 011e FFF7FEFF 		bl	chMtxObjectInit
 1333              	.LVL76:
 1334              		.loc 1 415 0
 1335 0122 06F15400 		add	r0, r6, #84
 1336 0126 FFF7FEFF 		bl	chCondObjectInit
 1337              	.LVL77:
 1338              		.loc 1 417 0
 1339 012a 0097     		str	r7, [sp]
 1340 012c 114B     		ldr	r3, .L80+28
 1341 012e 1248     		ldr	r0, .L80+32
 1342 0130 8722     		movs	r2, #135
 1343 0132 4FF4E871 		mov	r1, #464
 1344 0136 FFF7FEFF 		bl	chThdCreateStatic
 1345              	.LVL78:
 1346              		.loc 1 420 0
 1347 013a 0097     		str	r7, [sp]
 1348 013c 0F4B     		ldr	r3, .L80+36
 1349 013e 1048     		ldr	r0, .L80+40
 1350 0140 8722     		movs	r2, #135
 1351 0142 4FF4AA61 		mov	r1, #1360
 1352 0146 FFF7FEFF 		bl	chThdCreateStatic
 1353              	.LVL79:
 1354              		.loc 1 424 0
 1355 014a 3846     		mov	r0, r7
 1356 014c 06B0     		add	sp, sp, #24
 1357              		.cfi_def_cfa_offset 40
 1358              		@ sp needed
 1359 014e BDEC028B 		vldm	sp!, {d8}
 1360              		.cfi_restore 80
 1361              		.cfi_restore 81
 1362              		.cfi_def_cfa_offset 32
 1363 0152 BDE8F087 		pop	{r4, r5, r6, r7, r8, r9, r10, pc}
 1364              	.LVL80:
 1365              	.L81:
 1366 0156 00BF     		.align	2
 1367              	.L80:
 1368 0158 00000000 		.word	.LANCHOR2
ARM GAS  /tmp/ccXQcnKi.s 			page 25


 1369 015c 00007042 		.word	1114636288
 1370 0160 00007A44 		.word	1148846080
 1371 0164 00000000 		.word	.LANCHOR5
 1372 0168 00000000 		.word	SPID5
 1373 016c 00000000 		.word	.LANCHOR8
 1374 0170 1A071810 		.word	270010138
 1375 0174 00000000 		.word	mpu6500_tempCtrl_thd
 1376 0178 00000000 		.word	.LANCHOR9
 1377 017c 00000000 		.word	mpu6500_Thd
 1378 0180 00000000 		.word	.LANCHOR10
 1379 0184 00000000 		.word	.LANCHOR7
 1380 0188 00140240 		.word	1073878016
 1381              		.cfi_endproc
 1382              	.LFE347:
 1383              		.size	mpu6500_start, .-mpu6500_start
 1384              		.section	.rodata
 1385              		.align	2
 1386              		.set	.LANCHOR0,. + 0
 1387              	.LC0:
 1388 0000 40420F00 		.word	1000000
 1389 0004 E8030000 		.word	1000
 1390 0008 00000000 		.word	0
 1391 000c 00000000 		.word	0
 1392 0010 00000000 		.word	0
 1393 0014 01000000 		.word	1
 1394 0018 00000000 		.word	0
 1395 001c 00000000 		.word	0
 1396 0020 00000000 		.word	0
 1397 0024 00000000 		.word	0
 1398 0028 00000000 		.word	0
 1399 002c 00000000 		.word	0
 1400 0030 00000000 		.word	0
 1401              		.section	.bss.g_IMU1,"aw",%nobits
 1402              		.align	2
 1403              		.set	.LANCHOR2,. + 0
 1404              		.type	g_IMU1, %object
 1405              		.size	g_IMU1, 96
 1406              	g_IMU1:
 1407 0000 00000000 		.space	96
 1407      00000000 
 1407      00000000 
 1407      00000000 
 1407      00000000 
 1408              		.section	.bss.gyro_lpf,"aw",%nobits
 1409              		.align	2
 1410              		.set	.LANCHOR7,. + 0
 1411              		.type	gyro_lpf, %object
 1412              		.size	gyro_lpf, 84
 1413              	gyro_lpf:
 1414 0000 00000000 		.space	84
 1414      00000000 
 1414      00000000 
 1414      00000000 
 1414      00000000 
 1415              		.section	.bss.imuRXData,"aw",%nobits
 1416              		.align	2
 1417              		.set	.LANCHOR6,. + 0
ARM GAS  /tmp/ccXQcnKi.s 			page 26


 1418              		.type	imuRXData, %object
 1419              		.size	imuRXData, 14
 1420              	imuRXData:
 1421 0000 00000000 		.space	14
 1421      00000000 
 1421      00000000 
 1421      0000
 1422              		.section	.bss.imuTXData,"aw",%nobits
 1423              		.align	2
 1424              		.set	.LANCHOR5,. + 0
 1425              		.type	imuTXData, %object
 1426              		.size	imuTXData, 5
 1427              	imuTXData:
 1428 0000 00000000 		.space	5
 1428      00
 1429              		.section	.bss.mpu6500_Thd_wa,"aw",%nobits
 1430              		.align	3
 1431              		.set	.LANCHOR10,. + 0
 1432              		.type	mpu6500_Thd_wa, %object
 1433              		.size	mpu6500_Thd_wa, 1360
 1434              	mpu6500_Thd_wa:
 1435 0000 00000000 		.space	1360
 1435      00000000 
 1435      00000000 
 1435      00000000 
 1435      00000000 
 1436              		.section	.bss.mpu6500_tempCtrl_thd_wa,"aw",%nobits
 1437              		.align	3
 1438              		.set	.LANCHOR9,. + 0
 1439              		.type	mpu6500_tempCtrl_thd_wa, %object
 1440              		.size	mpu6500_tempCtrl_thd_wa, 464
 1441              	mpu6500_tempCtrl_thd_wa:
 1442 0000 00000000 		.space	464
 1442      00000000 
 1442      00000000 
 1442      00000000 
 1442      00000000 
 1443              		.section	.bss.pid_output.11061,"aw",%nobits
 1444              		.align	1
 1445              		.set	.LANCHOR3,. + 0
 1446              		.type	pid_output.11061, %object
 1447              		.size	pid_output.11061, 2
 1448              	pid_output.11061:
 1449 0000 0000     		.space	2
 1450              		.section	.bss.temp_pid.11059,"aw",%nobits
 1451              		.align	2
 1452              		.set	.LANCHOR1,. + 0
 1453              		.type	temp_pid.11059, %object
 1454              		.size	temp_pid.11059, 36
 1455              	temp_pid.11059:
 1456 0000 00000000 		.space	36
 1456      00000000 
 1456      00000000 
 1456      00000000 
 1456      00000000 
 1457              		.section	.data.imu_setState,"aw",%progbits
 1458              		.set	.LANCHOR4,. + 0
ARM GAS  /tmp/ccXQcnKi.s 			page 27


 1459              		.type	imu_setState, %object
 1460              		.size	imu_setState, 1
 1461              	imu_setState:
 1462 0000 01       		.byte	1
 1463              		.section	.rodata.MPU6500_SPI_cfg,"a",%progbits
 1464              		.align	2
 1465              		.set	.LANCHOR8,. + 0
 1466              		.type	MPU6500_SPI_cfg, %object
 1467              		.size	MPU6500_SPI_cfg, 16
 1468              	MPU6500_SPI_cfg:
 1469 0000 00       		.byte	0
 1470 0001 000000   		.space	3
 1471 0004 00000000 		.word	0
 1472 0008 06140240 		.word	1073878022
 1473 000c 3700     		.short	55
 1474 000e 0000     		.short	0
 1475              		.text
 1476              	.Letext0:
 1477              		.file 5 "/usr/lib/gcc/arm-none-eabi/7.3.1/include/stddef.h"
 1478              		.file 6 "/usr/arm-none-eabi/include/machine/_default_types.h"
 1479              		.file 7 "/usr/arm-none-eabi/include/sys/_stdint.h"
 1480              		.file 8 "./RM18A-ChibiOS18-Core/chibios/os/common/ports/ARMCMx/compilers/GCC/chtypes.h"
 1481              		.file 9 "./RM18A-ChibiOS18-Core/chibios/os/rt/include/chsystypes.h"
 1482              		.file 10 "./RM18A-ChibiOS18-Core/chibios/os/rt/include/chschd.h"
 1483              		.file 11 "./RM18A-ChibiOS18-Core/chibios/os/rt/include/chtime.h"
 1484              		.file 12 "./RM18A-ChibiOS18-Core/chibios/os/common/ext/ARM/CMSIS/Core/Include/core_cm4.h"
 1485              		.file 13 "./RM18A-ChibiOS18-Core/chibios/os/common/ext/ST/STM32F4xx/system_stm32f4xx.h"
 1486              		.file 14 "./RM18A-ChibiOS18-Core/chibios/os/common/ext/ST/STM32F4xx/stm32f427xx.h"
 1487              		.file 15 "./RM18A-ChibiOS18-Core/chibios/os/common/ports/ARMCMx/chcore.h"
 1488              		.file 16 "./RM18A-ChibiOS18-Core/chibios/os/common/ports/ARMCMx/chcore_v7m.h"
 1489              		.file 17 "./RM18A-ChibiOS18-Core/chibios/os/hal/ports/STM32/LLD/TIMv1/stm32_tim.h"
 1490              		.file 18 "./RM18A-ChibiOS18-Core/chibios/os/rt/include/chtm.h"
 1491              		.file 19 "./RM18A-ChibiOS18-Core/chibios/os/rt/include/chsem.h"
 1492              		.file 20 "./RM18A-ChibiOS18-Core/chibios/os/rt/include/chmtx.h"
 1493              		.file 21 "./RM18A-ChibiOS18-Core/chibios/os/rt/include/chsys.h"
 1494              		.file 22 "./RM18A-ChibiOS18-Core/chibios/os/rt/include/chregistry.h"
 1495              		.file 23 "./RM18A-ChibiOS18-Core/chibios/os/rt/include/chcond.h"
 1496              		.file 24 "./RM18A-ChibiOS18-Core/chibios/os/rt/include/chevents.h"
 1497              		.file 25 "./RM18A-ChibiOS18-Core/chibios/os/oslib/include/chmemcore.h"
 1498              		.file 26 "./RM18A-ChibiOS18-Core/chibios/os/oslib/include/chmempools.h"
 1499              		.file 27 "./RM18A-ChibiOS18-Core/chibios/os/oslib/include/chfactory.h"
 1500              		.file 28 "./RM18A-ChibiOS18-Core/chibios/os/hal/ports/STM32/LLD/DMAv2/stm32_dma.h"
 1501              		.file 29 "./RM18A-ChibiOS18-Core/chibios/os/hal/include/hal_queues.h"
 1502              		.file 30 "./RM18A-ChibiOS18-Core/chibios/os/hal/include/hal_pal.h"
 1503              		.file 31 "./RM18A-ChibiOS18-Core/chibios/os/hal/ports/STM32/LLD/GPIOv2/stm32_gpio.h"
 1504              		.file 32 "./RM18A-ChibiOS18-Core/chibios/os/hal/ports/STM32/LLD/GPIOv2/hal_pal_lld.h"
 1505              		.file 33 "./RM18A-ChibiOS18-Core/chibios/os/hal/include/hal_adc.h"
 1506              		.file 34 "./RM18A-ChibiOS18-Core/chibios/os/hal/ports/STM32/LLD/ADCv2/hal_adc_lld.h"
 1507              		.file 35 "./RM18A-ChibiOS18-Core/chibios/os/hal/include/hal_can.h"
 1508              		.file 36 "./RM18A-ChibiOS18-Core/chibios/os/hal/ports/STM32/LLD/CANv1/hal_can_lld.h"
 1509              		.file 37 "./RM18A-ChibiOS18-Core/chibios/os/hal/include/hal_i2c.h"
 1510              		.file 38 "./RM18A-ChibiOS18-Core/chibios/os/hal/lib/fallback/I2C/hal_i2c_lld.h"
 1511              		.file 39 "./RM18A-ChibiOS18-Core/chibios/os/hal/include/hal_icu.h"
 1512              		.file 40 "./RM18A-ChibiOS18-Core/chibios/os/hal/ports/STM32/LLD/TIMv1/hal_icu_lld.h"
 1513              		.file 41 "./RM18A-ChibiOS18-Core/chibios/os/hal/include/hal_pwm.h"
 1514              		.file 42 "./RM18A-ChibiOS18-Core/chibios/os/hal/ports/STM32/LLD/TIMv1/hal_pwm_lld.h"
 1515              		.file 43 "./RM18A-ChibiOS18-Core/chibios/os/hal/include/hal_serial.h"
ARM GAS  /tmp/ccXQcnKi.s 			page 28


 1516              		.file 44 "./RM18A-ChibiOS18-Core/chibios/os/hal/ports/STM32/LLD/USARTv1/hal_serial_lld.h"
 1517              		.file 45 "./RM18A-ChibiOS18-Core/chibios/os/hal/include/hal_spi.h"
 1518              		.file 46 "./RM18A-ChibiOS18-Core/chibios/os/hal/ports/STM32/LLD/SPIv1/hal_spi_lld.h"
 1519              		.file 47 "./RM18A-ChibiOS18-Core/chibios/os/hal/include/hal_uart.h"
 1520              		.file 48 "./RM18A-ChibiOS18-Core/chibios/os/hal/ports/STM32/LLD/USARTv1/hal_uart_lld.h"
 1521              		.file 49 "./RM18A-ChibiOS18-Core/chibios/os/hal/include/hal_usb.h"
 1522              		.file 50 "./RM18A-ChibiOS18-Core/chibios/os/hal/ports/STM32/LLD/OTGv1/hal_usb_lld.h"
 1523              		.file 51 "./RM18A-ChibiOS18-Core/chibios/os/hal/ports/STM32/LLD/OTGv1/stm32_otg.h"
 1524              		.file 52 "/usr/arm-none-eabi/include/sys/lock.h"
 1525              		.file 53 "/usr/arm-none-eabi/include/sys/_types.h"
 1526              		.file 54 "/usr/arm-none-eabi/include/sys/reent.h"
 1527              		.file 55 "./RM18A-ChibiOS18-Core/src/utility/math_misc.h"
 1528              		.file 56 "./RM18A-ChibiOS18-Core/src/imu.h"
 1529              		.file 57 "./RM18A-ChibiOS18-Core/src/utility/pid.h"
 1530              		.file 58 "./RM18A-ChibiOS18-Core/chibios/os/rt/include/chvt.h"
 1531              		.file 59 "./RM18A-ChibiOS18-Core/chibios/os/common/ports/ARMCMx/chcore_timer.h"
 1532              		.file 60 "<built-in>"