ARM GAS  /tmp/cc6XGJ21.s 			page 1


   1              		.cpu cortex-m4
   2              		.eabi_attribute 27, 1
   3              		.eabi_attribute 28, 1
   4              		.eabi_attribute 20, 1
   5              		.eabi_attribute 21, 1
   6              		.eabi_attribute 23, 3
   7              		.eabi_attribute 24, 1
   8              		.eabi_attribute 25, 1
   9              		.eabi_attribute 26, 1
  10              		.eabi_attribute 30, 2
  11              		.eabi_attribute 34, 1
  12              		.eabi_attribute 18, 4
  13              		.file	"nvic.c"
  14              		.text
  15              	.Ltext0:
  16              		.cfi_sections	.debug_frame
  17              		.section	.text.nvicEnableVector,"ax",%progbits
  18              		.align	1
  19              		.p2align 2,,3
  20              		.global	nvicEnableVector
  21              		.syntax unified
  22              		.thumb
  23              		.thumb_func
  24              		.fpu fpv4-sp-d16
  25              		.type	nvicEnableVector, %function
  26              	nvicEnableVector:
  27              	.LFB327:
  28              		.file 1 "./RM18A-ChibiOS18-Core/chibios/os/hal/ports/common/ARMCMx/nvic.c"
  29              		.loc 1 57 0
  30              		.cfi_startproc
  31              		@ args = 0, pretend = 0, frame = 0
  32              		@ frame_needed = 0, uses_anonymous_args = 0
  33              		@ link register save eliminated.
  34              	.LVL0:
  35              		.loc 1 65 0
  36 0000 4309     		lsrs	r3, r0, #5
  37              		.loc 1 57 0
  38 0002 10B4     		push	{r4}
  39              		.cfi_def_cfa_offset 4
  40              		.cfi_offset 4, -4
  41 0004 9B00     		lsls	r3, r3, #2
  42              		.loc 1 63 0
  43 0006 00F16044 		add	r4, r0, #-536870912
  44 000a 04F56144 		add	r4, r4, #57600
  45 000e 03F16043 		add	r3, r3, #-536870912
  46 0012 0901     		lsls	r1, r1, #4
  47              	.LVL1:
  48 0014 03F56143 		add	r3, r3, #57600
  49              		.loc 1 65 0
  50 0018 00F01F00 		and	r0, r0, #31
  51              	.LVL2:
  52 001c 0122     		movs	r2, #1
  53              		.loc 1 63 0
  54 001e C9B2     		uxtb	r1, r1
  55 0020 84F80013 		strb	r1, [r4, #768]
  56              		.loc 1 65 0
  57 0024 02FA00F0 		lsl	r0, r2, r0
ARM GAS  /tmp/cc6XGJ21.s 			page 2


  58 0028 C3F88001 		str	r0, [r3, #384]
  59              		.loc 1 67 0
  60 002c 5DF8044B 		ldr	r4, [sp], #4
  61              		.cfi_restore 4
  62              		.cfi_def_cfa_offset 0
  63              	.LVL3:
  64              		.loc 1 66 0
  65 0030 1860     		str	r0, [r3]
  66              		.loc 1 67 0
  67 0032 7047     		bx	lr
  68              		.cfi_endproc
  69              	.LFE327:
  70              		.size	nvicEnableVector, .-nvicEnableVector
  71              		.section	.text.nvicDisableVector,"ax",%progbits
  72              		.align	1
  73              		.p2align 2,,3
  74              		.global	nvicDisableVector
  75              		.syntax unified
  76              		.thumb
  77              		.thumb_func
  78              		.fpu fpv4-sp-d16
  79              		.type	nvicDisableVector, %function
  80              	nvicDisableVector:
  81              	.LFB328:
  82              		.loc 1 74 0
  83              		.cfi_startproc
  84              		@ args = 0, pretend = 0, frame = 0
  85              		@ frame_needed = 0, uses_anonymous_args = 0
  86              		@ link register save eliminated.
  87              	.LVL4:
  88              		.loc 1 76 0
  89 0000 0849     		ldr	r1, .L6
  90 0002 4309     		lsrs	r3, r0, #5
  91              		.loc 1 74 0
  92 0004 10B4     		push	{r4}
  93              		.cfi_def_cfa_offset 4
  94              		.cfi_offset 4, -4
  95              		.loc 1 76 0
  96 0006 2033     		adds	r3, r3, #32
  97 0008 00F01F04 		and	r4, r0, #31
  98 000c 0122     		movs	r2, #1
  99              		.loc 1 80 0
 100 000e 0844     		add	r0, r0, r1
 101              	.LVL5:
 102              		.loc 1 76 0
 103 0010 A240     		lsls	r2, r2, r4
 104              		.loc 1 80 0
 105 0012 0024     		movs	r4, #0
 106              		.loc 1 76 0
 107 0014 41F82320 		str	r2, [r1, r3, lsl #2]
 108              		.loc 1 80 0
 109 0018 80F80043 		strb	r4, [r0, #768]
 110              		.loc 1 82 0
 111 001c 5DF8044B 		ldr	r4, [sp], #4
 112              		.cfi_restore 4
 113              		.cfi_def_cfa_offset 0
 114 0020 7047     		bx	lr
ARM GAS  /tmp/cc6XGJ21.s 			page 3


 115              	.L7:
 116 0022 00BF     		.align	2
 117              	.L6:
 118 0024 00E100E0 		.word	-536813312
 119              		.cfi_endproc
 120              	.LFE328:
 121              		.size	nvicDisableVector, .-nvicDisableVector
 122              		.section	.text.nvicSetSystemHandlerPriority,"ax",%progbits
 123              		.align	1
 124              		.p2align 2,,3
 125              		.global	nvicSetSystemHandlerPriority
 126              		.syntax unified
 127              		.thumb
 128              		.thumb_func
 129              		.fpu fpv4-sp-d16
 130              		.type	nvicSetSystemHandlerPriority, %function
 131              	nvicSetSystemHandlerPriority:
 132              	.LFB329:
 133              		.loc 1 90 0
 134              		.cfi_startproc
 135              		@ args = 0, pretend = 0, frame = 0
 136              		@ frame_needed = 0, uses_anonymous_args = 0
 137              		@ link register save eliminated.
 138              	.LVL6:
 139              		.loc 1 100 0
 140 0000 00F16040 		add	r0, r0, #-536870912
 141              	.LVL7:
 142 0004 00F56D40 		add	r0, r0, #60672
 143              	.LVL8:
 144 0008 0901     		lsls	r1, r1, #4
 145              	.LVL9:
 146 000a C9B2     		uxtb	r1, r1
 147 000c 0176     		strb	r1, [r0, #24]
 148              		.loc 1 102 0
 149 000e 7047     		bx	lr
 150              		.cfi_endproc
 151              	.LFE329:
 152              		.size	nvicSetSystemHandlerPriority, .-nvicSetSystemHandlerPriority
 153              		.section	.text.nvicClearPending,"ax",%progbits
 154              		.align	1
 155              		.p2align 2,,3
 156              		.global	nvicClearPending
 157              		.syntax unified
 158              		.thumb
 159              		.thumb_func
 160              		.fpu fpv4-sp-d16
 161              		.type	nvicClearPending, %function
 162              	nvicClearPending:
 163              	.LFB330:
 164              		.loc 1 109 0
 165              		.cfi_startproc
 166              		@ args = 0, pretend = 0, frame = 0
 167              		@ frame_needed = 0, uses_anonymous_args = 0
 168              		@ link register save eliminated.
 169              	.LVL10:
 170              		.loc 1 111 0
 171 0000 4309     		lsrs	r3, r0, #5
ARM GAS  /tmp/cc6XGJ21.s 			page 4


 172 0002 6033     		adds	r3, r3, #96
 173 0004 00F01F00 		and	r0, r0, #31
 174              	.LVL11:
 175 0008 0122     		movs	r2, #1
 176 000a 0349     		ldr	r1, .L10
 177 000c 02FA00F0 		lsl	r0, r2, r0
 178 0010 41F82300 		str	r0, [r1, r3, lsl #2]
 179              		.loc 1 112 0
 180 0014 7047     		bx	lr
 181              	.L11:
 182 0016 00BF     		.align	2
 183              	.L10:
 184 0018 00E100E0 		.word	-536813312
 185              		.cfi_endproc
 186              	.LFE330:
 187              		.size	nvicClearPending, .-nvicClearPending
 188              		.text
 189              	.Letext0:
 190              		.file 2 "/usr/lib/gcc/arm-none-eabi/7.3.1/include/stddef.h"
 191              		.file 3 "/usr/arm-none-eabi/include/machine/_default_types.h"
 192              		.file 4 "/usr/arm-none-eabi/include/sys/_stdint.h"
 193              		.file 5 "./RM18A-ChibiOS18-Core/chibios/os/common/ports/ARMCMx/compilers/GCC/chtypes.h"
 194              		.file 6 "./RM18A-ChibiOS18-Core/chibios/os/rt/include/chsystypes.h"
 195              		.file 7 "./RM18A-ChibiOS18-Core/chibios/os/rt/include/chschd.h"
 196              		.file 8 "./RM18A-ChibiOS18-Core/chibios/os/rt/include/chtime.h"
 197              		.file 9 "./RM18A-ChibiOS18-Core/chibios/os/common/ext/ARM/CMSIS/Core/Include/core_cm4.h"
 198              		.file 10 "./RM18A-ChibiOS18-Core/chibios/os/common/ext/ST/STM32F4xx/system_stm32f4xx.h"
 199              		.file 11 "./RM18A-ChibiOS18-Core/chibios/os/common/ext/ST/STM32F4xx/stm32f427xx.h"
 200              		.file 12 "./RM18A-ChibiOS18-Core/chibios/os/common/ports/ARMCMx/chcore.h"
 201              		.file 13 "./RM18A-ChibiOS18-Core/chibios/os/common/ports/ARMCMx/chcore_v7m.h"
 202              		.file 14 "./RM18A-ChibiOS18-Core/chibios/os/hal/ports/STM32/LLD/TIMv1/stm32_tim.h"
 203              		.file 15 "./RM18A-ChibiOS18-Core/chibios/os/rt/include/chtm.h"
 204              		.file 16 "./RM18A-ChibiOS18-Core/chibios/os/rt/include/chsem.h"
 205              		.file 17 "./RM18A-ChibiOS18-Core/chibios/os/rt/include/chmtx.h"
 206              		.file 18 "./RM18A-ChibiOS18-Core/chibios/os/rt/include/chsys.h"
 207              		.file 19 "./RM18A-ChibiOS18-Core/chibios/os/rt/include/chregistry.h"
 208              		.file 20 "./RM18A-ChibiOS18-Core/chibios/os/rt/include/chevents.h"
 209              		.file 21 "./RM18A-ChibiOS18-Core/chibios/os/oslib/include/chmemcore.h"
 210              		.file 22 "./RM18A-ChibiOS18-Core/chibios/os/oslib/include/chmempools.h"
 211              		.file 23 "./RM18A-ChibiOS18-Core/chibios/os/oslib/include/chfactory.h"
 212              		.file 24 "./RM18A-ChibiOS18-Core/chibios/os/hal/ports/STM32/LLD/DMAv2/stm32_dma.h"
 213              		.file 25 "./RM18A-ChibiOS18-Core/chibios/os/hal/include/hal_queues.h"
 214              		.file 26 "./RM18A-ChibiOS18-Core/chibios/os/hal/include/hal_pal.h"
 215              		.file 27 "./RM18A-ChibiOS18-Core/chibios/os/hal/ports/STM32/LLD/GPIOv2/hal_pal_lld.h"
 216              		.file 28 "./RM18A-ChibiOS18-Core/chibios/os/hal/include/hal_adc.h"
 217              		.file 29 "./RM18A-ChibiOS18-Core/chibios/os/hal/ports/STM32/LLD/ADCv2/hal_adc_lld.h"
 218              		.file 30 "./RM18A-ChibiOS18-Core/chibios/os/hal/include/hal_can.h"
 219              		.file 31 "./RM18A-ChibiOS18-Core/chibios/os/hal/ports/STM32/LLD/CANv1/hal_can_lld.h"
 220              		.file 32 "./RM18A-ChibiOS18-Core/chibios/os/hal/include/hal_i2c.h"
 221              		.file 33 "./RM18A-ChibiOS18-Core/chibios/os/hal/lib/fallback/I2C/hal_i2c_lld.h"
 222              		.file 34 "./RM18A-ChibiOS18-Core/chibios/os/hal/include/hal_icu.h"
 223              		.file 35 "./RM18A-ChibiOS18-Core/chibios/os/hal/ports/STM32/LLD/TIMv1/hal_icu_lld.h"
 224              		.file 36 "./RM18A-ChibiOS18-Core/chibios/os/hal/include/hal_pwm.h"
 225              		.file 37 "./RM18A-ChibiOS18-Core/chibios/os/hal/ports/STM32/LLD/TIMv1/hal_pwm_lld.h"
 226              		.file 38 "./RM18A-ChibiOS18-Core/chibios/os/hal/include/hal_serial.h"
 227              		.file 39 "./RM18A-ChibiOS18-Core/chibios/os/hal/ports/STM32/LLD/USARTv1/hal_serial_lld.h"
 228              		.file 40 "./RM18A-ChibiOS18-Core/chibios/os/hal/include/hal_spi.h"
ARM GAS  /tmp/cc6XGJ21.s 			page 5


 229              		.file 41 "./RM18A-ChibiOS18-Core/chibios/os/hal/ports/STM32/LLD/SPIv1/hal_spi_lld.h"
 230              		.file 42 "./RM18A-ChibiOS18-Core/chibios/os/hal/include/hal_uart.h"
 231              		.file 43 "./RM18A-ChibiOS18-Core/chibios/os/hal/ports/STM32/LLD/USARTv1/hal_uart_lld.h"
 232              		.file 44 "./RM18A-ChibiOS18-Core/chibios/os/hal/include/hal_usb.h"
 233              		.file 45 "./RM18A-ChibiOS18-Core/chibios/os/hal/ports/STM32/LLD/OTGv1/hal_usb_lld.h"
 234              		.file 46 "./RM18A-ChibiOS18-Core/chibios/os/hal/ports/STM32/LLD/OTGv1/stm32_otg.h"