ARM GAS  /tmp/ccOE0xWq.s 			page 1


   1              		.cpu cortex-m4
   2              		.eabi_attribute 27, 1
   3              		.eabi_attribute 28, 1
   4              		.eabi_attribute 20, 1
   5              		.eabi_attribute 21, 1
   6              		.eabi_attribute 23, 3
   7              		.eabi_attribute 24, 1
   8              		.eabi_attribute 25, 1
   9              		.eabi_attribute 26, 1
  10              		.eabi_attribute 30, 2
  11              		.eabi_attribute 34, 1
  12              		.eabi_attribute 18, 4
  13              		.file	"oled_logger.c"
  14              		.text
  15              	.Ltext0:
  16              		.cfi_sections	.debug_frame
  17              		.section	.text.log_btn_handler,"ax",%progbits
  18              		.align	1
  19              		.p2align 2,,3
  20              		.syntax unified
  21              		.thumb
  22              		.thumb_func
  23              		.fpu fpv4-sp-d16
  24              		.type	log_btn_handler, %function
  25              	log_btn_handler:
  26              	.LFB330:
  27              		.file 1 "./RM18A-ChibiOS18-Core/src/diagnostics/oled_logger.c"
  28              		.loc 1 118 0
  29              		.cfi_startproc
  30              		@ args = 0, pretend = 0, frame = 0
  31              		@ frame_needed = 0, uses_anonymous_args = 0
  32              	.LVL0:
  33 0000 2DE9F843 		push	{r3, r4, r5, r6, r7, r8, r9, lr}
  34              		.cfi_def_cfa_offset 32
  35              		.cfi_offset 3, -32
  36              		.cfi_offset 4, -28
  37              		.cfi_offset 5, -24
  38              		.cfi_offset 6, -20
  39              		.cfi_offset 7, -16
  40              		.cfi_offset 8, -12
  41              		.cfi_offset 9, -8
  42              		.cfi_offset 14, -4
  43              		.loc 1 119 0
  44 0004 6A4C     		ldr	r4, .L23
  45 0006 2378     		ldrb	r3, [r4]	@ zero_extendqisi2
  46              		.loc 1 118 0
  47 0008 0746     		mov	r7, r0
  48              		.loc 1 119 0
  49 000a 5BB9     		cbnz	r3, .L2
  50              		.loc 1 123 0
  51 000c 694E     		ldr	r6, .L23+4
  52 000e 03F0FF05 		and	r5, r3, #255
  53              	.LVL1:
  54              	.L3:
  55              		.loc 1 123 0 is_stmt 0 discriminator 1
  56 0012 3046     		mov	r0, r6
  57              		.loc 1 122 0 is_stmt 1 discriminator 1
ARM GAS  /tmp/ccOE0xWq.s 			page 2


  58 0014 2570     		strb	r5, [r4]
  59              		.loc 1 123 0 discriminator 1
  60 0016 FFF7FEFF 		bl	chMtxObjectInit
  61              	.LVL2:
  62              		.loc 1 124 0 discriminator 1
  63 001a 2378     		ldrb	r3, [r4]	@ zero_extendqisi2
  64 001c 002B     		cmp	r3, #0
  65 001e F8D1     		bne	.L3
  66              		.loc 1 125 0
  67 0020 0123     		movs	r3, #1
  68 0022 2370     		strb	r3, [r4]
  69              	.L2:
  70              		.loc 1 127 0
  71 0024 022F     		cmp	r7, #2
  72 0026 47D0     		beq	.L5
  73 0028 032F     		cmp	r7, #3
  74 002a 18D0     		beq	.L6
  75 002c 012F     		cmp	r7, #1
  76 002e 02D0     		beq	.L20
  77              		.loc 1 189 0
  78 0030 3846     		mov	r0, r7
  79 0032 BDE8F883 		pop	{r3, r4, r5, r6, r7, r8, r9, pc}
  80              	.L20:
  81              		.loc 1 176 0
  82 0036 5F48     		ldr	r0, .L23+4
  83              		.loc 1 180 0
  84 0038 5F4D     		ldr	r5, .L23+8
  85              		.loc 1 181 0
  86 003a 604C     		ldr	r4, .L23+12
  87              		.loc 1 176 0
  88 003c FFF7FEFF 		bl	chMtxLock
  89              	.LVL3:
  90              		.loc 1 177 0
  91 0040 5F4A     		ldr	r2, .L23+16
  92              		.loc 1 182 0
  93 0042 6049     		ldr	r1, .L23+20
  94              		.loc 1 183 0
  95 0044 5B48     		ldr	r0, .L23+4
  96              		.loc 1 178 0
  97 0046 9770     		strb	r7, [r2, #2]
  98              		.loc 1 177 0
  99 0048 0023     		movs	r3, #0
 100 004a D370     		strb	r3, [r2, #3]
 101              		.loc 1 179 0
 102 004c 5370     		strb	r3, [r2, #1]
 103              		.loc 1 180 0
 104 004e 2B70     		strb	r3, [r5]
 105              		.loc 1 181 0
 106 0050 2370     		strb	r3, [r4]
 107              		.loc 1 182 0
 108 0052 0B70     		strb	r3, [r1]
 109              		.loc 1 183 0
 110 0054 FFF7FEFF 		bl	chMtxUnlock
 111              	.LVL4:
 112              		.loc 1 189 0
 113 0058 3846     		mov	r0, r7
 114 005a BDE8F883 		pop	{r3, r4, r5, r6, r7, r8, r9, pc}
ARM GAS  /tmp/ccOE0xWq.s 			page 3


 115              	.L6:
 116              		.loc 1 154 0
 117 005e 564C     		ldr	r4, .L23+8
 118              		.loc 1 152 0
 119 0060 5448     		ldr	r0, .L23+4
 120              		.loc 1 154 0
 121 0062 564E     		ldr	r6, .L23+12
 122              		.loc 1 152 0
 123 0064 FFF7FEFF 		bl	chMtxLock
 124              	.LVL5:
 125              	.LBB50:
 126              	.LBB51:
 127              		.loc 1 41 0
 128 0068 2378     		ldrb	r3, [r4]	@ zero_extendqisi2
 129 006a 5748     		ldr	r0, .L23+24
 130              	.LBE51:
 131              	.LBE50:
 132              		.loc 1 154 0
 133 006c 96F800C0 		ldrb	ip, [r6]	@ zero_extendqisi2
 134              		.loc 1 153 0
 135 0070 5649     		ldr	r1, .L23+28
 136              	.LBB53:
 137              	.LBB52:
 138              		.loc 1 41 0
 139 0072 1533     		adds	r3, r3, #21
 140 0074 DBB2     		uxtb	r3, r3
 141 0076 A0FB0352 		umull	r5, r2, r0, r3
 142 007a 1209     		lsrs	r2, r2, #4
 143 007c 02EB8202 		add	r2, r2, r2, lsl #2
 144 0080 A3EB8203 		sub	r3, r3, r2, lsl #2
 145 0084 DBB2     		uxtb	r3, r3
 146              	.LBE52:
 147              	.LBE53:
 148              		.loc 1 153 0
 149 0086 0022     		movs	r2, #0
 150              		.loc 1 154 0
 151 0088 9C45     		cmp	ip, r3
 152              		.loc 1 153 0
 153 008a 0A70     		strb	r2, [r1]
 154              		.loc 1 154 0
 155 008c 65D0     		beq	.L21
 156              		.loc 1 168 0
 157 008e 4C4A     		ldr	r2, .L23+16
 158              		.loc 1 167 0
 159 0090 2370     		strb	r3, [r4]
 160              		.loc 1 168 0
 161 0092 0120     		movs	r0, #1
 162 0094 5578     		ldrb	r5, [r2, #1]	@ zero_extendqisi2
 163 0096 9070     		strb	r0, [r2, #2]
 164 0098 1533     		adds	r3, r3, #21
 165              	.L15:
 166              	.LBB54:
 167              	.LBB55:
 168              		.loc 1 41 0
 169 009a 4B4A     		ldr	r2, .L23+24
 170 009c DBB2     		uxtb	r3, r3
 171 009e A2FB0302 		umull	r0, r2, r2, r3
ARM GAS  /tmp/ccOE0xWq.s 			page 4


 172 00a2 1209     		lsrs	r2, r2, #4
 173 00a4 02EB8202 		add	r2, r2, r2, lsl #2
 174 00a8 A3EB8203 		sub	r3, r3, r2, lsl #2
 175              	.LBE55:
 176              	.LBE54:
 177              		.loc 1 171 0
 178 00ac DBB2     		uxtb	r3, r3
 179 00ae AB42     		cmp	r3, r5
 180 00b0 1CD1     		bne	.L11
 181              	.L16:
 182              		.loc 1 172 0
 183 00b2 0123     		movs	r3, #1
 184 00b4 0B70     		strb	r3, [r1]
 185 00b6 19E0     		b	.L11
 186              	.L5:
 187              		.loc 1 130 0
 188 00b8 3E48     		ldr	r0, .L23+4
 189              		.loc 1 131 0
 190 00ba 444C     		ldr	r4, .L23+28
 191              		.loc 1 130 0
 192 00bc FFF7FEFF 		bl	chMtxLock
 193              	.LVL6:
 194              		.loc 1 132 0
 195 00c0 3D49     		ldr	r1, .L23+8
 196 00c2 4048     		ldr	r0, .L23+20
 197 00c4 0B78     		ldrb	r3, [r1]	@ zero_extendqisi2
 198 00c6 0278     		ldrb	r2, [r0]	@ zero_extendqisi2
 199              		.loc 1 131 0
 200 00c8 0025     		movs	r5, #0
 201              		.loc 1 132 0
 202 00ca 9342     		cmp	r3, r2
 203              		.loc 1 131 0
 204 00cc 2570     		strb	r5, [r4]
 205              		.loc 1 132 0
 206 00ce 13D0     		beq	.L22
 207              	.LBB56:
 208              	.LBB57:
 209              		.loc 1 41 0
 210 00d0 1333     		adds	r3, r3, #19
 211 00d2 3D4A     		ldr	r2, .L23+24
 212              	.LBE57:
 213              	.LBE56:
 214              		.loc 1 147 0
 215 00d4 3A48     		ldr	r0, .L23+16
 216              	.LBB59:
 217              	.LBB58:
 218              		.loc 1 41 0
 219 00d6 DBB2     		uxtb	r3, r3
 220 00d8 A2FB0342 		umull	r4, r2, r2, r3
 221 00dc 1209     		lsrs	r2, r2, #4
 222 00de 02EB8202 		add	r2, r2, r2, lsl #2
 223 00e2 A3EB8203 		sub	r3, r3, r2, lsl #2
 224              	.LBE58:
 225              	.LBE59:
 226              		.loc 1 147 0
 227 00e6 0122     		movs	r2, #1
 228              		.loc 1 146 0
ARM GAS  /tmp/ccOE0xWq.s 			page 5


 229 00e8 0B70     		strb	r3, [r1]
 230              		.loc 1 147 0
 231 00ea 8270     		strb	r2, [r0, #2]
 232              	.L11:
 233              		.loc 1 149 0
 234 00ec 3148     		ldr	r0, .L23+4
 235 00ee FFF7FEFF 		bl	chMtxUnlock
 236              	.LVL7:
 237              		.loc 1 189 0
 238 00f2 3846     		mov	r0, r7
 239 00f4 BDE8F883 		pop	{r3, r4, r5, r6, r7, r8, r9, pc}
 240              	.L22:
 241              		.loc 1 134 0
 242 00f8 314D     		ldr	r5, .L23+16
 243 00fa EC78     		ldrb	r4, [r5, #3]	@ zero_extendqisi2
 244 00fc 002C     		cmp	r4, #0
 245 00fe 53D1     		bne	.L9
 246              		.loc 1 134 0 is_stmt 0 discriminator 1
 247 0100 002B     		cmp	r3, #0
 248 0102 F3D0     		beq	.L11
 249              	.L10:
 250              		.loc 1 140 0 is_stmt 1
 251 0104 2D4E     		ldr	r6, .L23+12
 252              	.LBB60:
 253              	.LBB61:
 254              		.loc 1 41 0
 255 0106 304C     		ldr	r4, .L23+24
 256              	.LBE61:
 257              	.LBE60:
 258              	.LBB68:
 259              	.LBB69:
 260 0108 96F800C0 		ldrb	ip, [r6]	@ zero_extendqisi2
 261              	.LBE69:
 262              	.LBE68:
 263              	.LBB75:
 264              	.LBB62:
 265 010c 1333     		adds	r3, r3, #19
 266              	.LBE62:
 267              	.LBE75:
 268              	.LBB76:
 269              	.LBB77:
 270 010e 1332     		adds	r2, r2, #19
 271              	.LBE77:
 272              	.LBE76:
 273              	.LBB83:
 274              	.LBB70:
 275 0110 0CF1130C 		add	ip, ip, #19
 276              	.LBE70:
 277              	.LBE83:
 278              	.LBB84:
 279              	.LBB63:
 280 0114 DBB2     		uxtb	r3, r3
 281              	.LBE63:
 282              	.LBE84:
 283              	.LBB85:
 284              	.LBB78:
 285 0116 D2B2     		uxtb	r2, r2
ARM GAS  /tmp/ccOE0xWq.s 			page 6


 286              	.LBE78:
 287              	.LBE85:
 288              	.LBB86:
 289              	.LBB71:
 290 0118 5FFA8CFC 		uxtb	ip, ip
 291 011c A4FB0CE8 		umull	lr, r8, r4, ip
 292              	.LBE71:
 293              	.LBE86:
 294              	.LBB87:
 295              	.LBB64:
 296 0120 A4FB039E 		umull	r9, lr, r4, r3
 297              	.LBE64:
 298              	.LBE87:
 299              	.LBB88:
 300              	.LBB79:
 301 0124 A4FB0294 		umull	r9, r4, r4, r2
 302              	.LBE79:
 303              	.LBE88:
 304              	.LBB89:
 305              	.LBB72:
 306 0128 4FEA1818 		lsr	r8, r8, #4
 307              	.LBE72:
 308              	.LBE89:
 309              	.LBB90:
 310              	.LBB65:
 311 012c 4FEA1E1E 		lsr	lr, lr, #4
 312              	.LBE65:
 313              	.LBE90:
 314              	.LBB91:
 315              	.LBB80:
 316 0130 2409     		lsrs	r4, r4, #4
 317              	.LBE80:
 318              	.LBE91:
 319              	.LBB92:
 320              	.LBB73:
 321 0132 08EB8808 		add	r8, r8, r8, lsl #2
 322              	.LBE73:
 323              	.LBE92:
 324              	.LBB93:
 325              	.LBB66:
 326 0136 0EEB8E0E 		add	lr, lr, lr, lsl #2
 327              	.LBE66:
 328              	.LBE93:
 329              	.LBB94:
 330              	.LBB81:
 331 013a 04EB8404 		add	r4, r4, r4, lsl #2
 332              	.LBE81:
 333              	.LBE94:
 334              	.LBB95:
 335              	.LBB67:
 336 013e A3EB8E0E 		sub	lr, r3, lr, lsl #2
 337              	.LBE67:
 338              	.LBE95:
 339              	.LBB96:
 340              	.LBB74:
 341 0142 ACEB8808 		sub	r8, ip, r8, lsl #2
 342              	.LBE74:
ARM GAS  /tmp/ccOE0xWq.s 			page 7


 343              	.LBE96:
 344              	.LBB97:
 345              	.LBB82:
 346 0146 A2EB8404 		sub	r4, r2, r4, lsl #2
 347              	.LBE82:
 348              	.LBE97:
 349              		.loc 1 141 0
 350 014a 0123     		movs	r3, #1
 351              		.loc 1 140 0
 352 014c 86F80080 		strb	r8, [r6]
 353              		.loc 1 138 0
 354 0150 81F800E0 		strb	lr, [r1]
 355              		.loc 1 139 0
 356 0154 0470     		strb	r4, [r0]
 357              		.loc 1 141 0
 358 0156 AB70     		strb	r3, [r5, #2]
 359 0158 C8E7     		b	.L11
 360              	.L21:
 361              		.loc 1 156 0
 362 015a DFF864E0 		ldr	lr, .L23+16
 363 015e 9EF80150 		ldrb	r5, [lr, #1]	@ zero_extendqisi2
 364 0162 6545     		cmp	r5, ip
 365 0164 A5D0     		beq	.L16
 366              		.loc 1 160 0
 367 0166 DFF85C80 		ldr	r8, .L23+20
 368              		.loc 1 159 0
 369 016a 84F800C0 		strb	ip, [r4]
 370              	.LBB98:
 371              	.LBB99:
 372              		.loc 1 41 0
 373 016e 98F80020 		ldrb	r2, [r8]	@ zero_extendqisi2
 374              	.LBE99:
 375              	.LBE98:
 376              	.LBB105:
 377              	.LBB106:
 378 0172 0CF11503 		add	r3, ip, #21
 379              	.LBE106:
 380              	.LBE105:
 381              	.LBB112:
 382              	.LBB100:
 383 0176 1532     		adds	r2, r2, #21
 384 0178 D2B2     		uxtb	r2, r2
 385              	.LBE100:
 386              	.LBE112:
 387              	.LBB113:
 388              	.LBB107:
 389 017a 5FFA83FC 		uxtb	ip, r3
 390              	.LBE107:
 391              	.LBE113:
 392              	.LBB114:
 393              	.LBB101:
 394 017e A0FB0294 		umull	r9, r4, r0, r2
 395              	.LBE101:
 396              	.LBE114:
 397              	.LBB115:
 398              	.LBB108:
 399 0182 A0FB0C90 		umull	r9, r0, r0, ip
ARM GAS  /tmp/ccOE0xWq.s 			page 8


 400              	.LBE108:
 401              	.LBE115:
 402              	.LBB116:
 403              	.LBB102:
 404 0186 2409     		lsrs	r4, r4, #4
 405              	.LBE102:
 406              	.LBE116:
 407              	.LBB117:
 408              	.LBB109:
 409 0188 0009     		lsrs	r0, r0, #4
 410              	.LBE109:
 411              	.LBE117:
 412              	.LBB118:
 413              	.LBB103:
 414 018a 04EB8404 		add	r4, r4, r4, lsl #2
 415              	.LBE103:
 416              	.LBE118:
 417              	.LBB119:
 418              	.LBB110:
 419 018e 00EB8000 		add	r0, r0, r0, lsl #2
 420              	.LBE110:
 421              	.LBE119:
 422              	.LBB120:
 423              	.LBB104:
 424 0192 A2EB8404 		sub	r4, r2, r4, lsl #2
 425              	.LBE104:
 426              	.LBE120:
 427              	.LBB121:
 428              	.LBB111:
 429 0196 ACEB8000 		sub	r0, ip, r0, lsl #2
 430              	.LBE111:
 431              	.LBE121:
 432              		.loc 1 162 0
 433 019a 0122     		movs	r2, #1
 434              		.loc 1 160 0
 435 019c 88F80040 		strb	r4, [r8]
 436              		.loc 1 161 0
 437 01a0 3070     		strb	r0, [r6]
 438              		.loc 1 162 0
 439 01a2 8EF80220 		strb	r2, [lr, #2]
 440 01a6 78E7     		b	.L15
 441              	.L9:
 442              		.loc 1 135 0
 443 01a8 6C78     		ldrb	r4, [r5, #1]	@ zero_extendqisi2
 444 01aa 9C42     		cmp	r4, r3
 445 01ac AAD1     		bne	.L10
 446 01ae 9DE7     		b	.L11
 447              	.L24:
 448              		.align	2
 449              	.L23:
 450 01b0 00000000 		.word	.LANCHOR0
 451 01b4 00000000 		.word	.LANCHOR1
 452 01b8 00000000 		.word	.LANCHOR3
 453 01bc 00000000 		.word	.LANCHOR6
 454 01c0 00000000 		.word	.LANCHOR5
 455 01c4 00000000 		.word	.LANCHOR4
 456 01c8 CDCCCCCC 		.word	-858993459
ARM GAS  /tmp/ccOE0xWq.s 			page 9


 457 01cc 00000000 		.word	.LANCHOR2
 458              		.cfi_endproc
 459              	.LFE330:
 460              		.size	log_btn_handler, .-log_btn_handler
 461              		.section	.text.log_renderer,"ax",%progbits
 462              		.align	1
 463              		.p2align 2,,3
 464              		.syntax unified
 465              		.thumb
 466              		.thumb_func
 467              		.fpu fpv4-sp-d16
 468              		.type	log_renderer, %function
 469              	log_renderer:
 470              	.LFB328:
 471              		.loc 1 45 0
 472              		.cfi_startproc
 473              		@ args = 0, pretend = 0, frame = 0
 474              		@ frame_needed = 0, uses_anonymous_args = 0
 475              	.LVL8:
 476              		.loc 1 46 0
 477 0000 3D4B     		ldr	r3, .L41
 478 0002 11B9     		cbnz	r1, .L26
 479              		.loc 1 46 0 is_stmt 0 discriminator 1
 480 0004 9A78     		ldrb	r2, [r3, #2]	@ zero_extendqisi2
 481 0006 002A     		cmp	r2, #0
 482 0008 75D0     		beq	.L36
 483              	.L26:
 484              		.loc 1 45 0 is_stmt 1
 485 000a 2DE9F04F 		push	{r4, r5, r6, r7, r8, r9, r10, fp, lr}
 486              		.cfi_def_cfa_offset 36
 487              		.cfi_offset 4, -36
 488              		.cfi_offset 5, -32
 489              		.cfi_offset 6, -28
 490              		.cfi_offset 7, -24
 491              		.cfi_offset 8, -20
 492              		.cfi_offset 9, -16
 493              		.cfi_offset 10, -12
 494              		.cfi_offset 11, -8
 495              		.cfi_offset 14, -4
 496              	.LBB129:
 497              	.LBB130:
 498              		.loc 1 51 0
 499 000e 0121     		movs	r1, #1
 500              	.LVL9:
 501              		.loc 1 49 0
 502 0010 0025     		movs	r5, #0
 503              	.LBE130:
 504              	.LBE129:
 505              		.loc 1 45 0
 506 0012 85B0     		sub	sp, sp, #20
 507              		.cfi_def_cfa_offset 56
 508 0014 0746     		mov	r7, r0
 509              	.LVL10:
 510              	.LBB141:
 511              	.LBB139:
 512              		.loc 1 49 0
 513 0016 9D70     		strb	r5, [r3, #2]
ARM GAS  /tmp/ccOE0xWq.s 			page 10


 514              		.loc 1 51 0
 515 0018 FFF7FEFF 		bl	OLED_setMode
 516              	.LVL11:
 517              		.loc 1 52 0
 518 001c 3623     		movs	r3, #54
 519 001e 2A46     		mov	r2, r5
 520 0020 2946     		mov	r1, r5
 521 0022 0093     		str	r3, [sp]
 522 0024 3846     		mov	r0, r7
 523 0026 7F23     		movs	r3, #127
 524 0028 FFF7FEFF 		bl	OLED_fill
 525              	.LVL12:
 526              		.loc 1 53 0
 527 002c 2946     		mov	r1, r5
 528 002e 3846     		mov	r0, r7
 529 0030 FFF7FEFF 		bl	OLED_setMode
 530              	.LVL13:
 531 0034 DFF8CCA0 		ldr	r10, .L41+12
 532              	.LBB131:
 533              		.loc 1 56 0
 534 0038 304A     		ldr	r2, .L41+4
 535 003a 9AF80030 		ldrb	r3, [r10]	@ zero_extendqisi2
 536 003e 1478     		ldrb	r4, [r2]	@ zero_extendqisi2
 537              	.LVL14:
 538              		.loc 1 58 0
 539 0040 DFF8C490 		ldr	r9, .L41+16
 540              		.loc 1 65 0
 541 0044 DFF8C4B0 		ldr	fp, .L41+20
 542              		.loc 1 56 0
 543 0048 9C42     		cmp	r4, r3
 544              		.loc 1 65 0
 545 004a 4FF00008 		mov	r8, #0
 546 004e AEB2     		uxth	r6, r5
 547              		.loc 1 56 0
 548 0050 3AD0     		beq	.L38
 549              	.L31:
 550              		.loc 1 58 0
 551 0052 99F80030 		ldrb	r3, [r9]	@ zero_extendqisi2
 552 0056 A342     		cmp	r3, r4
 553 0058 3ED0     		beq	.L39
 554              	.L28:
 555              		.loc 1 65 0
 556 005a 5BF82410 		ldr	r1, [fp, r4, lsl #2]
 557 005e CDF80C80 		str	r8, [sp, #12]
 558 0062 721C     		adds	r2, r6, #1
 559 0064 0820     		movs	r0, #8
 560 0066 0A23     		movs	r3, #10
 561 0068 CDE90110 		strd	r1, r0, [sp, #4]
 562 006c 0093     		str	r3, [sp]
 563 006e 12B2     		sxth	r2, r2
 564 0070 7C23     		movs	r3, #124
 565 0072 0121     		movs	r1, #1
 566 0074 3846     		mov	r0, r7
 567 0076 FFF7FEFF 		bl	OLED_drawString
 568              	.LVL15:
 569              		.loc 1 67 0
 570 007a 99F80030 		ldrb	r3, [r9]	@ zero_extendqisi2
ARM GAS  /tmp/ccOE0xWq.s 			page 11


 571              		.loc 1 66 0
 572 007e 05F10A06 		add	r6, r5, #10
 573              		.loc 1 67 0
 574 0082 A342     		cmp	r3, r4
 575              		.loc 1 66 0
 576 0084 F6B2     		uxtb	r6, r6
 577              	.LVL16:
 578              		.loc 1 67 0
 579 0086 22D0     		beq	.L40
 580              	.L29:
 581              	.LVL17:
 582              	.LBB132:
 583              	.LBB133:
 584              		.loc 1 41 0
 585 0088 1534     		adds	r4, r4, #21
 586              	.LVL18:
 587 008a 1D4B     		ldr	r3, .L41+8
 588 008c E4B2     		uxtb	r4, r4
 589 008e A3FB0423 		umull	r2, r3, r3, r4
 590 0092 1B09     		lsrs	r3, r3, #4
 591 0094 03EB8303 		add	r3, r3, r3, lsl #2
 592 0098 A4EB8304 		sub	r4, r4, r3, lsl #2
 593              	.LBE133:
 594              	.LBE132:
 595              		.loc 1 69 0
 596 009c 9AF80030 		ldrb	r3, [r10]	@ zero_extendqisi2
 597              	.LBB136:
 598              	.LBB134:
 599              		.loc 1 41 0
 600 00a0 E4B2     		uxtb	r4, r4
 601              	.LBE134:
 602              	.LBE136:
 603              		.loc 1 69 0
 604 00a2 9C42     		cmp	r4, r3
 605              		.loc 1 71 0
 606 00a4 32B2     		sxth	r2, r6
 607              		.loc 1 69 0
 608 00a6 09D0     		beq	.L30
 609              		.loc 1 71 0
 610 00a8 7F23     		movs	r3, #127
 611 00aa 0092     		str	r2, [sp]
 612 00ac 0021     		movs	r1, #0
 613 00ae 3846     		mov	r0, r7
 614 00b0 FFF7FEFF 		bl	OLED_fill
 615              	.LVL19:
 616              		.loc 1 72 0
 617 00b4 0B35     		adds	r5, r5, #11
 618 00b6 9AF80030 		ldrb	r3, [r10]	@ zero_extendqisi2
 619 00ba EEB2     		uxtb	r6, r5
 620              	.LVL20:
 621              	.L30:
 622              	.LBB137:
 623              	.LBB135:
 624              		.loc 1 41 0
 625 00bc 3546     		mov	r5, r6
 626              	.LVL21:
 627              	.LBE135:
ARM GAS  /tmp/ccOE0xWq.s 			page 12


 628              	.LBE137:
 629              		.loc 1 56 0
 630 00be 9C42     		cmp	r4, r3
 631              		.loc 1 65 0
 632 00c0 4FF00008 		mov	r8, #0
 633 00c4 AEB2     		uxth	r6, r5
 634              		.loc 1 56 0
 635 00c6 C4D1     		bne	.L31
 636              	.L38:
 637              	.LBE131:
 638              	.LBE139:
 639              	.LBE141:
 640              		.loc 1 75 0
 641 00c8 05B0     		add	sp, sp, #20
 642              		.cfi_remember_state
 643              		.cfi_def_cfa_offset 36
 644              		@ sp needed
 645 00ca BDE8F08F 		pop	{r4, r5, r6, r7, r8, r9, r10, fp, pc}
 646              	.LVL22:
 647              	.L40:
 648              		.cfi_restore_state
 649              	.LBB142:
 650              	.LBB140:
 651              	.LBB138:
 652              		.loc 1 68 0
 653 00ce 4146     		mov	r1, r8
 654 00d0 3846     		mov	r0, r7
 655 00d2 FFF7FEFF 		bl	OLED_setMode
 656              	.LVL23:
 657 00d6 D7E7     		b	.L29
 658              	.LVL24:
 659              	.L39:
 660              		.loc 1 61 0
 661 00d8 06F10A03 		add	r3, r6, #10
 662 00dc 1BB2     		sxth	r3, r3
 663 00de 0093     		str	r3, [sp]
 664 00e0 3846     		mov	r0, r7
 665 00e2 7F23     		movs	r3, #127
 666 00e4 2AB2     		sxth	r2, r5
 667 00e6 0021     		movs	r1, #0
 668 00e8 FFF7FEFF 		bl	OLED_fill
 669              	.LVL25:
 670              		.loc 1 62 0
 671 00ec 0121     		movs	r1, #1
 672 00ee 3846     		mov	r0, r7
 673 00f0 FFF7FEFF 		bl	OLED_setMode
 674              	.LVL26:
 675 00f4 B1E7     		b	.L28
 676              	.LVL27:
 677              	.L36:
 678              		.cfi_def_cfa_offset 0
 679              		.cfi_restore 4
 680              		.cfi_restore 5
 681              		.cfi_restore 6
 682              		.cfi_restore 7
 683              		.cfi_restore 8
 684              		.cfi_restore 9
ARM GAS  /tmp/ccOE0xWq.s 			page 13


 685              		.cfi_restore 10
 686              		.cfi_restore 11
 687              		.cfi_restore 14
 688 00f6 7047     		bx	lr
 689              	.L42:
 690              		.align	2
 691              	.L41:
 692 00f8 00000000 		.word	.LANCHOR5
 693 00fc 00000000 		.word	.LANCHOR4
 694 0100 CDCCCCCC 		.word	-858993459
 695 0104 00000000 		.word	.LANCHOR6
 696 0108 00000000 		.word	.LANCHOR3
 697 010c 00000000 		.word	.LANCHOR7
 698              	.LBE138:
 699              	.LBE140:
 700              	.LBE142:
 701              		.cfi_endproc
 702              	.LFE328:
 703              		.size	log_renderer, .-log_renderer
 704              		.section	.text.oled_log_msg,"ax",%progbits
 705              		.align	1
 706              		.p2align 2,,3
 707              		.global	oled_log_msg
 708              		.syntax unified
 709              		.thumb
 710              		.thumb_func
 711              		.fpu fpv4-sp-d16
 712              		.type	oled_log_msg, %function
 713              	oled_log_msg:
 714              	.LFB329:
 715              		.loc 1 78 0
 716              		.cfi_startproc
 717              		@ args = 0, pretend = 0, frame = 0
 718              		@ frame_needed = 0, uses_anonymous_args = 0
 719              	.LVL28:
 720 0000 F8B5     		push	{r3, r4, r5, r6, r7, lr}
 721              		.cfi_def_cfa_offset 24
 722              		.cfi_offset 3, -24
 723              		.cfi_offset 4, -20
 724              		.cfi_offset 5, -16
 725              		.cfi_offset 6, -12
 726              		.cfi_offset 7, -8
 727              		.cfi_offset 14, -4
 728              		.loc 1 79 0
 729 0002 484C     		ldr	r4, .L57
 730 0004 2378     		ldrb	r3, [r4]	@ zero_extendqisi2
 731              		.loc 1 78 0
 732 0006 0546     		mov	r5, r0
 733              		.loc 1 79 0
 734 0008 5BB9     		cbnz	r3, .L44
 735              		.loc 1 83 0
 736 000a 474F     		ldr	r7, .L57+4
 737 000c 03F0FF06 		and	r6, r3, #255
 738              	.LVL29:
 739              	.L45:
 740              		.loc 1 83 0 is_stmt 0 discriminator 1
 741 0010 3846     		mov	r0, r7
ARM GAS  /tmp/ccOE0xWq.s 			page 14


 742              		.loc 1 82 0 is_stmt 1 discriminator 1
 743 0012 2670     		strb	r6, [r4]
 744              		.loc 1 83 0 discriminator 1
 745 0014 FFF7FEFF 		bl	chMtxObjectInit
 746              	.LVL30:
 747              		.loc 1 84 0 discriminator 1
 748 0018 2378     		ldrb	r3, [r4]	@ zero_extendqisi2
 749 001a 002B     		cmp	r3, #0
 750 001c F8D1     		bne	.L45
 751              		.loc 1 85 0
 752 001e 0123     		movs	r3, #1
 753 0020 2370     		strb	r3, [r4]
 754              	.L44:
 755              		.loc 1 87 0
 756 0022 4148     		ldr	r0, .L57+4
 757              	.LBB143:
 758              	.LBB144:
 759              		.loc 1 41 0
 760 0024 414C     		ldr	r4, .L57+8
 761              	.LBE144:
 762              	.LBE143:
 763              		.loc 1 88 0
 764 0026 424E     		ldr	r6, .L57+12
 765              		.loc 1 87 0
 766 0028 FFF7FEFF 		bl	chMtxLock
 767              	.LVL31:
 768              		.loc 1 88 0
 769 002c 4149     		ldr	r1, .L57+16
 770 002e 4878     		ldrb	r0, [r1, #1]	@ zero_extendqisi2
 771              	.LBB146:
 772              	.LBB145:
 773              		.loc 1 41 0
 774 0030 00F11503 		add	r3, r0, #21
 775 0034 DBB2     		uxtb	r3, r3
 776 0036 A4FB0372 		umull	r7, r2, r4, r3
 777 003a 1209     		lsrs	r2, r2, #4
 778 003c 02EB8202 		add	r2, r2, r2, lsl #2
 779 0040 A3EB8203 		sub	r3, r3, r2, lsl #2
 780 0044 DBB2     		uxtb	r3, r3
 781              	.LBE145:
 782              	.LBE146:
 783              		.loc 1 90 0
 784 0046 0122     		movs	r2, #1
 785              		.loc 1 88 0
 786 0048 46F82050 		str	r5, [r6, r0, lsl #2]
 787              		.loc 1 89 0
 788 004c 4B70     		strb	r3, [r1, #1]
 789              		.loc 1 90 0
 790 004e 8A70     		strb	r2, [r1, #2]
 791              		.loc 1 91 0
 792 0050 73BB     		cbnz	r3, .L46
 793              		.loc 1 91 0 is_stmt 0 discriminator 1
 794 0052 C878     		ldrb	r0, [r1, #3]	@ zero_extendqisi2
 795 0054 00B9     		cbnz	r0, .L47
 796              		.loc 1 92 0 is_stmt 1
 797 0056 CA70     		strb	r2, [r1, #3]
 798              	.L47:
ARM GAS  /tmp/ccOE0xWq.s 			page 15


 799 0058 374A     		ldr	r2, .L57+20
 800 005a 1278     		ldrb	r2, [r2]	@ zero_extendqisi2
 801              	.L48:
 802              		.loc 1 100 0
 803 005c 002A     		cmp	r2, #0
 804 005e 41D1     		bne	.L56
 805              		.loc 1 106 0
 806 0060 3648     		ldr	r0, .L57+24
 807              	.LBB147:
 808              	.LBB148:
 809              		.loc 1 41 0
 810 0062 3249     		ldr	r1, .L57+8
 811              	.LBE148:
 812              	.LBE147:
 813              		.loc 1 106 0
 814 0064 0478     		ldrb	r4, [r0]	@ zero_extendqisi2
 815              	.LVL32:
 816              	.LBB150:
 817              	.LBB149:
 818              		.loc 1 41 0
 819 0066 04F11502 		add	r2, r4, #21
 820 006a D2B2     		uxtb	r2, r2
 821 006c A1FB0251 		umull	r5, r1, r1, r2
 822              	.LVL33:
 823 0070 0909     		lsrs	r1, r1, #4
 824 0072 01EB8101 		add	r1, r1, r1, lsl #2
 825 0076 A2EB8102 		sub	r2, r2, r1, lsl #2
 826 007a D2B2     		uxtb	r2, r2
 827              	.LVL34:
 828              	.LBE149:
 829              	.LBE150:
 830              		.loc 1 106 0
 831 007c 9342     		cmp	r3, r2
 832 007e 4CD1     		bne	.L50
 833              		.loc 1 109 0
 834 0080 2F4B     		ldr	r3, .L57+28
 835              		.loc 1 111 0
 836 0082 0270     		strb	r2, [r0]
 837              		.loc 1 109 0
 838 0084 1978     		ldrb	r1, [r3]	@ zero_extendqisi2
 839              		.loc 1 114 0
 840 0086 2848     		ldr	r0, .L57+4
 841              		.loc 1 109 0
 842 0088 A142     		cmp	r1, r4
 843              		.loc 1 112 0
 844 008a 2E4C     		ldr	r4, .L57+32
 845              		.loc 1 110 0
 846 008c 08BF     		it	eq
 847 008e 1A70     		strbeq	r2, [r3]
 848              	.LBB151:
 849              	.LBB152:
 850              		.loc 1 41 0
 851 0090 2378     		ldrb	r3, [r4]	@ zero_extendqisi2
 852 0092 2649     		ldr	r1, .L57+8
 853 0094 1533     		adds	r3, r3, #21
 854 0096 DBB2     		uxtb	r3, r3
 855 0098 A1FB0312 		umull	r1, r2, r1, r3
ARM GAS  /tmp/ccOE0xWq.s 			page 16


 856 009c 1209     		lsrs	r2, r2, #4
 857 009e 02EB8202 		add	r2, r2, r2, lsl #2
 858 00a2 A3EB8203 		sub	r3, r3, r2, lsl #2
 859              	.LBE152:
 860              	.LBE151:
 861              		.loc 1 112 0
 862 00a6 2370     		strb	r3, [r4]
 863              		.loc 1 115 0
 864 00a8 BDE8F840 		pop	{r3, r4, r5, r6, r7, lr}
 865              		.cfi_remember_state
 866              		.cfi_restore 14
 867              		.cfi_restore 7
 868              		.cfi_restore 6
 869              		.cfi_restore 5
 870              		.cfi_restore 4
 871              		.cfi_restore 3
 872              		.cfi_def_cfa_offset 0
 873              		.loc 1 114 0
 874 00ac FFF7FEBF 		b	chMtxUnlock
 875              	.LVL35:
 876              	.L46:
 877              		.cfi_restore_state
 878 00b0 214A     		ldr	r2, .L57+20
 879              		.loc 1 93 0
 880 00b2 C978     		ldrb	r1, [r1, #3]	@ zero_extendqisi2
 881 00b4 1278     		ldrb	r2, [r2]	@ zero_extendqisi2
 882 00b6 0029     		cmp	r1, #0
 883 00b8 D0D1     		bne	.L48
 884              		.loc 1 93 0 is_stmt 0 discriminator 1
 885 00ba 042B     		cmp	r3, #4
 886 00bc CED8     		bhi	.L48
 887              		.loc 1 96 0 is_stmt 1
 888 00be 2149     		ldr	r1, .L57+32
 889 00c0 0B70     		strb	r3, [r1]
 890              		.loc 1 97 0
 891 00c2 52B3     		cbz	r2, .L50
 892              	.LBB153:
 893              	.LBB154:
 894              		.loc 1 41 0
 895 00c4 1333     		adds	r3, r3, #19
 896 00c6 DBB2     		uxtb	r3, r3
 897 00c8 A4FB0324 		umull	r2, r4, r4, r3
 898 00cc 2409     		lsrs	r4, r4, #4
 899 00ce 04EB8404 		add	r4, r4, r4, lsl #2
 900              	.LBE154:
 901              	.LBE153:
 902              		.loc 1 98 0
 903 00d2 1B4A     		ldr	r2, .L57+28
 904              		.loc 1 114 0
 905 00d4 1448     		ldr	r0, .L57+4
 906              	.LBB156:
 907              	.LBB155:
 908              		.loc 1 41 0
 909 00d6 A3EB8404 		sub	r4, r3, r4, lsl #2
 910              	.LBE155:
 911              	.LBE156:
 912              		.loc 1 98 0
ARM GAS  /tmp/ccOE0xWq.s 			page 17


 913 00da 1470     		strb	r4, [r2]
 914              		.loc 1 115 0
 915 00dc BDE8F840 		pop	{r3, r4, r5, r6, r7, lr}
 916              		.cfi_remember_state
 917              		.cfi_restore 14
 918              		.cfi_restore 7
 919              		.cfi_restore 6
 920              		.cfi_restore 5
 921              		.cfi_restore 4
 922              		.cfi_restore 3
 923              		.cfi_def_cfa_offset 0
 924              	.LVL36:
 925              		.loc 1 114 0
 926 00e0 FFF7FEBF 		b	chMtxUnlock
 927              	.LVL37:
 928              	.L56:
 929              		.cfi_restore_state
 930              	.LBB157:
 931              	.LBB158:
 932              		.loc 1 41 0
 933 00e4 114A     		ldr	r2, .L57+8
 934              	.LBE158:
 935              	.LBE157:
 936              		.loc 1 103 0
 937 00e6 154E     		ldr	r6, .L57+24
 938              		.loc 1 104 0
 939 00e8 154D     		ldr	r5, .L57+28
 940              	.LVL38:
 941              	.LBB164:
 942              	.LBB159:
 943              		.loc 1 41 0
 944 00ea 03F10F00 		add	r0, r3, #15
 945              	.LBE159:
 946              	.LBE164:
 947              	.LBB165:
 948              	.LBB166:
 949 00ee 03F11301 		add	r1, r3, #19
 950 00f2 C9B2     		uxtb	r1, r1
 951              	.LBE166:
 952              	.LBE165:
 953              	.LBB169:
 954              	.LBB160:
 955 00f4 C0B2     		uxtb	r0, r0
 956 00f6 A2FB0074 		umull	r7, r4, r2, r0
 957              	.LBE160:
 958              	.LBE169:
 959              	.LBB170:
 960              	.LBB167:
 961 00fa A2FB0172 		umull	r7, r2, r2, r1
 962 00fe 1209     		lsrs	r2, r2, #4
 963              	.LBE167:
 964              	.LBE170:
 965              	.LBB171:
 966              	.LBB161:
 967 0100 2409     		lsrs	r4, r4, #4
 968              	.LBE161:
 969              	.LBE171:
ARM GAS  /tmp/ccOE0xWq.s 			page 18


 970              	.LBB172:
 971              	.LBB168:
 972 0102 02EB8202 		add	r2, r2, r2, lsl #2
 973 0106 A1EB8202 		sub	r2, r1, r2, lsl #2
 974              	.LBE168:
 975              	.LBE172:
 976              	.LBB173:
 977              	.LBB162:
 978 010a 04EB8404 		add	r4, r4, r4, lsl #2
 979              	.LBE162:
 980              	.LBE173:
 981              		.loc 1 102 0
 982 010e 0D49     		ldr	r1, .L57+32
 983              		.loc 1 104 0
 984 0110 2A70     		strb	r2, [r5]
 985              	.LBB174:
 986              	.LBB163:
 987              		.loc 1 41 0
 988 0112 A0EB8400 		sub	r0, r0, r4, lsl #2
 989              	.LBE163:
 990              	.LBE174:
 991              		.loc 1 103 0
 992 0116 3070     		strb	r0, [r6]
 993              		.loc 1 102 0
 994 0118 0B70     		strb	r3, [r1]
 995              	.L50:
 996              		.loc 1 114 0
 997 011a 0348     		ldr	r0, .L57+4
 998              		.loc 1 115 0
 999 011c BDE8F840 		pop	{r3, r4, r5, r6, r7, lr}
 1000              		.cfi_restore 14
 1001              		.cfi_restore 7
 1002              		.cfi_restore 6
 1003              		.cfi_restore 5
 1004              		.cfi_restore 4
 1005              		.cfi_restore 3
 1006              		.cfi_def_cfa_offset 0
 1007              		.loc 1 114 0
 1008 0120 FFF7FEBF 		b	chMtxUnlock
 1009              	.LVL39:
 1010              	.L58:
 1011              		.align	2
 1012              	.L57:
 1013 0124 00000000 		.word	.LANCHOR0
 1014 0128 00000000 		.word	.LANCHOR1
 1015 012c CDCCCCCC 		.word	-858993459
 1016 0130 00000000 		.word	.LANCHOR7
 1017 0134 00000000 		.word	.LANCHOR5
 1018 0138 00000000 		.word	.LANCHOR2
 1019 013c 00000000 		.word	.LANCHOR4
 1020 0140 00000000 		.word	.LANCHOR3
 1021 0144 00000000 		.word	.LANCHOR6
 1022              		.cfi_endproc
 1023              	.LFE329:
 1024              		.size	oled_log_msg, .-oled_log_msg
 1025              		.global	log_tab
 1026              		.section	.bss.lock,"aw",%nobits
ARM GAS  /tmp/ccOE0xWq.s 			page 19


 1027              		.align	2
 1028              		.set	.LANCHOR1,. + 0
 1029              		.type	lock, %object
 1030              		.size	lock, 16
 1031              	lock:
 1032 0000 00000000 		.space	16
 1032      00000000 
 1032      00000000 
 1032      00000000 
 1033              		.section	.bss.lock_initialized,"aw",%nobits
 1034              		.set	.LANCHOR0,. + 0
 1035              		.type	lock_initialized, %object
 1036              		.size	lock_initialized, 1
 1037              	lock_initialized:
 1038 0000 00       		.space	1
 1039              		.section	.bss.log_buffer,"aw",%nobits
 1040              		.align	2
 1041              		.set	.LANCHOR7,. + 0
 1042              		.type	log_buffer, %object
 1043              		.size	log_buffer, 80
 1044              	log_buffer:
 1045 0000 00000000 		.space	80
 1045      00000000 
 1045      00000000 
 1045      00000000 
 1045      00000000 
 1046              		.section	.bss.log_selected_index,"aw",%nobits
 1047              		.set	.LANCHOR3,. + 0
 1048              		.type	log_selected_index, %object
 1049              		.size	log_selected_index, 1
 1050              	log_selected_index:
 1051 0000 00       		.space	1
 1052              		.section	.bss.log_window_end,"aw",%nobits
 1053              		.set	.LANCHOR6,. + 0
 1054              		.type	log_window_end, %object
 1055              		.size	log_window_end, 1
 1056              	log_window_end:
 1057 0000 00       		.space	1
 1058              		.section	.bss.log_window_first,"aw",%nobits
 1059              		.set	.LANCHOR4,. + 0
 1060              		.type	log_window_first, %object
 1061              		.size	log_window_first, 1
 1062              	log_window_first:
 1063 0000 00       		.space	1
 1064              		.section	.data.auto_scroll,"aw",%progbits
 1065              		.set	.LANCHOR2,. + 0
 1066              		.type	auto_scroll, %object
 1067              		.size	auto_scroll, 1
 1068              	auto_scroll:
 1069 0000 01       		.byte	1
 1070              		.section	.data.log_circular_array,"aw",%progbits
 1071              		.align	2
 1072              		.set	.LANCHOR5,. + 0
 1073              		.type	log_circular_array, %object
 1074              		.size	log_circular_array, 8
 1075              	log_circular_array:
 1076 0000 14       		.byte	20
ARM GAS  /tmp/ccOE0xWq.s 			page 20


 1077 0001 00       		.byte	0
 1078 0002 00       		.byte	0
 1079 0003 00       		.byte	0
 1080 0004 00000000 		.word	log_buffer
 1081              		.section	.data.tab_name,"aw",%progbits
 1082              		.align	2
 1083              		.type	tab_name, %object
 1084              		.size	tab_name, 4
 1085              	tab_name:
 1086 0000 6C6F6700 		.ascii	"log\000"
 1087              		.section	.rodata.log_tab,"a",%progbits
 1088              		.align	2
 1089              		.type	log_tab, %object
 1090              		.size	log_tab, 12
 1091              	log_tab:
 1092 0000 00000000 		.word	tab_name
 1093 0004 00000000 		.word	log_renderer
 1094 0008 00000000 		.word	log_btn_handler
 1095              		.text
 1096              	.Letext0:
 1097              		.file 2 "/usr/lib/gcc/arm-none-eabi/7.3.1/include/stddef.h"
 1098              		.file 3 "/usr/arm-none-eabi/include/machine/_default_types.h"
 1099              		.file 4 "/usr/arm-none-eabi/include/sys/_stdint.h"
 1100              		.file 5 "./RM18A-ChibiOS18-Core/chibios/os/common/ports/ARMCMx/compilers/GCC/chtypes.h"
 1101              		.file 6 "./RM18A-ChibiOS18-Core/chibios/os/rt/include/chsystypes.h"
 1102              		.file 7 "./RM18A-ChibiOS18-Core/chibios/os/rt/include/chschd.h"
 1103              		.file 8 "./RM18A-ChibiOS18-Core/chibios/os/rt/include/chtime.h"
 1104              		.file 9 "./RM18A-ChibiOS18-Core/chibios/os/common/ext/ARM/CMSIS/Core/Include/core_cm4.h"
 1105              		.file 10 "./RM18A-ChibiOS18-Core/chibios/os/common/ext/ST/STM32F4xx/system_stm32f4xx.h"
 1106              		.file 11 "./RM18A-ChibiOS18-Core/chibios/os/common/ext/ST/STM32F4xx/stm32f427xx.h"
 1107              		.file 12 "./RM18A-ChibiOS18-Core/chibios/os/common/ports/ARMCMx/chcore.h"
 1108              		.file 13 "./RM18A-ChibiOS18-Core/chibios/os/common/ports/ARMCMx/chcore_v7m.h"
 1109              		.file 14 "./RM18A-ChibiOS18-Core/chibios/os/hal/ports/STM32/LLD/TIMv1/stm32_tim.h"
 1110              		.file 15 "./RM18A-ChibiOS18-Core/chibios/os/rt/include/chtm.h"
 1111              		.file 16 "./RM18A-ChibiOS18-Core/chibios/os/rt/include/chsem.h"
 1112              		.file 17 "./RM18A-ChibiOS18-Core/chibios/os/rt/include/chmtx.h"
 1113              		.file 18 "./RM18A-ChibiOS18-Core/chibios/os/rt/include/chsys.h"
 1114              		.file 19 "./RM18A-ChibiOS18-Core/chibios/os/rt/include/chregistry.h"
 1115              		.file 20 "./RM18A-ChibiOS18-Core/chibios/os/rt/include/chevents.h"
 1116              		.file 21 "./RM18A-ChibiOS18-Core/chibios/os/oslib/include/chmemcore.h"
 1117              		.file 22 "./RM18A-ChibiOS18-Core/chibios/os/oslib/include/chmempools.h"
 1118              		.file 23 "./RM18A-ChibiOS18-Core/chibios/os/oslib/include/chfactory.h"
 1119              		.file 24 "./RM18A-ChibiOS18-Core/chibios/os/hal/ports/STM32/LLD/DMAv2/stm32_dma.h"
 1120              		.file 25 "./RM18A-ChibiOS18-Core/chibios/os/hal/include/hal_queues.h"
 1121              		.file 26 "./RM18A-ChibiOS18-Core/chibios/os/hal/include/hal_pal.h"
 1122              		.file 27 "./RM18A-ChibiOS18-Core/chibios/os/hal/ports/STM32/LLD/GPIOv2/hal_pal_lld.h"
 1123              		.file 28 "./RM18A-ChibiOS18-Core/chibios/os/hal/include/hal_adc.h"
 1124              		.file 29 "./RM18A-ChibiOS18-Core/chibios/os/hal/ports/STM32/LLD/ADCv2/hal_adc_lld.h"
 1125              		.file 30 "./RM18A-ChibiOS18-Core/chibios/os/hal/include/hal_can.h"
 1126              		.file 31 "./RM18A-ChibiOS18-Core/chibios/os/hal/ports/STM32/LLD/CANv1/hal_can_lld.h"
 1127              		.file 32 "./RM18A-ChibiOS18-Core/chibios/os/hal/include/hal_i2c.h"
 1128              		.file 33 "./RM18A-ChibiOS18-Core/chibios/os/hal/ports/STM32/LLD/I2Cv1/hal_i2c_lld.h"
 1129              		.file 34 "./RM18A-ChibiOS18-Core/chibios/os/hal/include/hal_pwm.h"
 1130              		.file 35 "./RM18A-ChibiOS18-Core/chibios/os/hal/ports/STM32/LLD/TIMv1/hal_pwm_lld.h"
 1131              		.file 36 "./RM18A-ChibiOS18-Core/chibios/os/hal/include/hal_serial.h"
 1132              		.file 37 "./RM18A-ChibiOS18-Core/chibios/os/hal/ports/STM32/LLD/USARTv1/hal_serial_lld.h"
 1133              		.file 38 "./RM18A-ChibiOS18-Core/chibios/os/hal/include/hal_spi.h"
ARM GAS  /tmp/ccOE0xWq.s 			page 21


 1134              		.file 39 "./RM18A-ChibiOS18-Core/chibios/os/hal/ports/STM32/LLD/SPIv1/hal_spi_lld.h"
 1135              		.file 40 "./RM18A-ChibiOS18-Core/chibios/os/hal/include/hal_uart.h"
 1136              		.file 41 "./RM18A-ChibiOS18-Core/chibios/os/hal/ports/STM32/LLD/USARTv1/hal_uart_lld.h"
 1137              		.file 42 "./RM18A-ChibiOS18-Core/chibios/os/hal/include/hal_usb.h"
 1138              		.file 43 "./RM18A-ChibiOS18-Core/chibios/os/hal/ports/STM32/LLD/OTGv1/hal_usb_lld.h"
 1139              		.file 44 "./RM18A-ChibiOS18-Core/chibios/os/hal/ports/STM32/LLD/OTGv1/stm32_otg.h"
 1140              		.file 45 "./RM18A-ChibiOS18-Core/src/shell/shell.h"
 1141              		.file 46 "./RM18A-ChibiOS18-Core/src/diagnostics/logger.h"
 1142              		.file 47 "./RM18A-ChibiOS18-Core/src/ext_hw/SH1106.h"
 1143              		.file 48 "./RM18A-ChibiOS18-Core/src/diagnostics/MonitorManager.h"