ARM GAS  /tmp/ccQQfwoY.s 			page 1


   1              		.cpu cortex-m4
   2              		.eabi_attribute 27, 1
   3              		.eabi_attribute 28, 1
   4              		.eabi_attribute 20, 1
   5              		.eabi_attribute 21, 1
   6              		.eabi_attribute 23, 3
   7              		.eabi_attribute 24, 1
   8              		.eabi_attribute 25, 1
   9              		.eabi_attribute 26, 1
  10              		.eabi_attribute 30, 2
  11              		.eabi_attribute 34, 1
  12              		.eabi_attribute 18, 4
  13              		.file	"PersistenceHelpers.cpp"
  14              		.text
  15              	.Ltext0:
  16              		.cfi_sections	.debug_frame
  17              		.global	__aeabi_f2d
  18              		.section	.text._Z18paramSerializer_fpP20BaseSequentialStreamPK24Param_DataTypeDefinitionPKv,"ax",%
  19              		.align	1
  20              		.p2align 2,,3
  21              		.global	_Z18paramSerializer_fpP20BaseSequentialStreamPK24Param_DataTypeDefinitionPKv
  22              		.syntax unified
  23              		.thumb
  24              		.thumb_func
  25              		.fpu fpv4-sp-d16
  26              		.type	_Z18paramSerializer_fpP20BaseSequentialStreamPK24Param_DataTypeDefinitionPKv, %function
  27              	_Z18paramSerializer_fpP20BaseSequentialStreamPK24Param_DataTypeDefinitionPKv:
  28              	.LFB334:
  29              		.file 1 "./RM18A-ChibiOS18-Core/src/PersistenceHelpers.cpp"
  30              		.loc 1 24 0
  31              		.cfi_startproc
  32              		@ args = 0, pretend = 0, frame = 0
  33              		@ frame_needed = 0, uses_anonymous_args = 0
  34              	.LVL0:
  35              		.loc 1 25 0
  36 0000 4B68     		ldr	r3, [r1, #4]
  37 0002 042B     		cmp	r3, #4
  38 0004 04D0     		beq	.L7
  39              		.loc 1 28 0
  40 0006 D2E90023 		ldrd	r2, [r2]
  41              	.LVL1:
  42 000a 0849     		ldr	r1, .L8
  43              	.LVL2:
  44 000c FFF7FEBF 		b	chprintf
  45              	.LVL3:
  46              	.L7:
  47              		.loc 1 24 0
  48 0010 10B5     		push	{r4, lr}
  49              		.cfi_def_cfa_offset 8
  50              		.cfi_offset 4, -8
  51              		.cfi_offset 14, -4
  52 0012 0446     		mov	r4, r0
  53              		.loc 1 26 0
  54 0014 1068     		ldr	r0, [r2]	@ float
  55              	.LVL4:
  56 0016 FFF7FEFF 		bl	__aeabi_f2d
  57              	.LVL5:
ARM GAS  /tmp/ccQQfwoY.s 			page 2


  58 001a 0246     		mov	r2, r0
  59 001c 0B46     		mov	r3, r1
  60 001e 2046     		mov	r0, r4
  61 0020 0249     		ldr	r1, .L8
  62              		.loc 1 29 0
  63 0022 BDE81040 		pop	{r4, lr}
  64              		.cfi_restore 14
  65              		.cfi_restore 4
  66              		.cfi_def_cfa_offset 0
  67              	.LVL6:
  68              		.loc 1 26 0
  69 0026 FFF7FEBF 		b	chprintf
  70              	.LVL7:
  71              	.L9:
  72 002a 00BF     		.align	2
  73              	.L8:
  74 002c 00000000 		.word	.LC0
  75              		.cfi_endproc
  76              	.LFE334:
  77              		.size	_Z18paramSerializer_fpP20BaseSequentialStreamPK24Param_DataTypeDefinitionPKv, .-_Z18paramSer
  78              		.section	.text._Z20paramSerializer_boolP20BaseSequentialStreamPK24Param_DataTypeDefinitionPKv,"ax"
  79              		.align	1
  80              		.p2align 2,,3
  81              		.global	_Z20paramSerializer_boolP20BaseSequentialStreamPK24Param_DataTypeDefinitionPKv
  82              		.syntax unified
  83              		.thumb
  84              		.thumb_func
  85              		.fpu fpv4-sp-d16
  86              		.type	_Z20paramSerializer_boolP20BaseSequentialStreamPK24Param_DataTypeDefinitionPKv, %function
  87              	_Z20paramSerializer_boolP20BaseSequentialStreamPK24Param_DataTypeDefinitionPKv:
  88              	.LFB335:
  89              		.loc 1 35 0
  90              		.cfi_startproc
  91              		@ args = 0, pretend = 0, frame = 0
  92              		@ frame_needed = 0, uses_anonymous_args = 0
  93              		@ link register save eliminated.
  94              	.LVL8:
  95 0000 10B4     		push	{r4}
  96              		.cfi_def_cfa_offset 4
  97              		.cfi_offset 4, -4
  98              		.loc 1 37 0
  99 0002 054B     		ldr	r3, .L14
 100 0004 1478     		ldrb	r4, [r2]	@ zero_extendqisi2
 101 0006 054A     		ldr	r2, .L14+4
 102              	.LVL9:
 103 0008 0549     		ldr	r1, .L14+8
 104              	.LVL10:
 105 000a 002C     		cmp	r4, #0
 106 000c 08BF     		it	eq
 107 000e 1A46     		moveq	r2, r3
 108              		.loc 1 38 0
 109 0010 5DF8044B 		ldr	r4, [sp], #4
 110              		.cfi_restore 4
 111              		.cfi_def_cfa_offset 0
 112              		.loc 1 37 0
 113 0014 FFF7FEBF 		b	chprintf
 114              	.LVL11:
ARM GAS  /tmp/ccQQfwoY.s 			page 3


 115              	.L15:
 116              		.align	2
 117              	.L14:
 118 0018 08000000 		.word	.LC2
 119 001c 00000000 		.word	.LC1
 120 0020 10000000 		.word	.LC3
 121              		.cfi_endproc
 122              	.LFE335:
 123              		.size	_Z20paramSerializer_boolP20BaseSequentialStreamPK24Param_DataTypeDefinitionPKv, .-_Z20paramS
 124              		.global	__aeabi_d2f
 125              		.section	.text._Z14paramParser_fpPK24Param_DataTypeDefinitionPKcPv,"ax",%progbits
 126              		.align	1
 127              		.p2align 2,,3
 128              		.global	_Z14paramParser_fpPK24Param_DataTypeDefinitionPKcPv
 129              		.syntax unified
 130              		.thumb
 131              		.thumb_func
 132              		.fpu fpv4-sp-d16
 133              		.type	_Z14paramParser_fpPK24Param_DataTypeDefinitionPKcPv, %function
 134              	_Z14paramParser_fpPK24Param_DataTypeDefinitionPKcPv:
 135              	.LFB336:
 136              		.loc 1 44 0
 137              		.cfi_startproc
 138              		@ args = 0, pretend = 0, frame = 8
 139              		@ frame_needed = 0, uses_anonymous_args = 0
 140              	.LVL12:
 141 0000 70B5     		push	{r4, r5, r6, lr}
 142              		.cfi_def_cfa_offset 16
 143              		.cfi_offset 4, -16
 144              		.cfi_offset 5, -12
 145              		.cfi_offset 6, -8
 146              		.cfi_offset 14, -4
 147 0002 0C46     		mov	r4, r1
 148 0004 82B0     		sub	sp, sp, #8
 149              		.cfi_def_cfa_offset 24
 150              		.loc 1 44 0
 151 0006 0546     		mov	r5, r0
 152              		.loc 1 46 0
 153 0008 01A9     		add	r1, sp, #4
 154              	.LVL13:
 155 000a 2046     		mov	r0, r4
 156              	.LVL14:
 157              		.loc 1 44 0
 158 000c 1646     		mov	r6, r2
 159              		.loc 1 46 0
 160 000e FFF7FEFF 		bl	strtod
 161              	.LVL15:
 162              		.loc 1 47 0
 163 0012 019B     		ldr	r3, [sp, #4]
 164 0014 A342     		cmp	r3, r4
 165 0016 08D0     		beq	.L19
 166              		.loc 1 54 0
 167 0018 6B68     		ldr	r3, [r5, #4]
 168 001a 082B     		cmp	r3, #8
 169 001c 09D0     		beq	.L22
 170              		.loc 1 56 0
 171 001e 042B     		cmp	r3, #4
ARM GAS  /tmp/ccQQfwoY.s 			page 4


 172 0020 0DD0     		beq	.L23
 173              		.loc 1 58 0
 174 0022 0123     		movs	r3, #1
 175              		.loc 1 60 0
 176 0024 1846     		mov	r0, r3
 177 0026 02B0     		add	sp, sp, #8
 178              		.cfi_remember_state
 179              		.cfi_def_cfa_offset 16
 180              		@ sp needed
 181 0028 70BD     		pop	{r4, r5, r6, pc}
 182              	.LVL16:
 183              	.L19:
 184              		.cfi_restore_state
 185              		.loc 1 50 0
 186 002a 0023     		movs	r3, #0
 187              		.loc 1 60 0
 188 002c 1846     		mov	r0, r3
 189 002e 02B0     		add	sp, sp, #8
 190              		.cfi_remember_state
 191              		.cfi_def_cfa_offset 16
 192              		@ sp needed
 193 0030 70BD     		pop	{r4, r5, r6, pc}
 194              	.LVL17:
 195              	.L22:
 196              		.cfi_restore_state
 197              		.loc 1 58 0
 198 0032 0123     		movs	r3, #1
 199              		.loc 1 60 0
 200 0034 1846     		mov	r0, r3
 201              		.loc 1 55 0
 202 0036 86ED000B 		vstr.64	d0, [r6]
 203              		.loc 1 60 0
 204 003a 02B0     		add	sp, sp, #8
 205              		.cfi_remember_state
 206              		.cfi_def_cfa_offset 16
 207              		@ sp needed
 208 003c 70BD     		pop	{r4, r5, r6, pc}
 209              	.LVL18:
 210              	.L23:
 211              		.cfi_restore_state
 212              		.loc 1 57 0
 213 003e 51EC100B 		vmov	r0, r1, d0
 214 0042 FFF7FEFF 		bl	__aeabi_d2f
 215              	.LVL19:
 216              		.loc 1 58 0
 217 0046 0123     		movs	r3, #1
 218              		.loc 1 57 0
 219 0048 3060     		str	r0, [r6]	@ float
 220              		.loc 1 60 0
 221 004a 1846     		mov	r0, r3
 222 004c 02B0     		add	sp, sp, #8
 223              		.cfi_def_cfa_offset 16
 224              		@ sp needed
 225 004e 70BD     		pop	{r4, r5, r6, pc}
 226              		.cfi_endproc
 227              	.LFE336:
 228              		.size	_Z14paramParser_fpPK24Param_DataTypeDefinitionPKcPv, .-_Z14paramParser_fpPK24Param_DataTypeD
ARM GAS  /tmp/ccQQfwoY.s 			page 5


 229              		.section	.text._Z21paramParser_signedIntPK24Param_DataTypeDefinitionPKcPv,"ax",%progbits
 230              		.align	1
 231              		.p2align 2,,3
 232              		.global	_Z21paramParser_signedIntPK24Param_DataTypeDefinitionPKcPv
 233              		.syntax unified
 234              		.thumb
 235              		.thumb_func
 236              		.fpu fpv4-sp-d16
 237              		.type	_Z21paramParser_signedIntPK24Param_DataTypeDefinitionPKcPv, %function
 238              	_Z21paramParser_signedIntPK24Param_DataTypeDefinitionPKcPv:
 239              	.LFB337:
 240              		.loc 1 66 0
 241              		.cfi_startproc
 242              		@ args = 0, pretend = 0, frame = 16
 243              		@ frame_needed = 0, uses_anonymous_args = 0
 244              	.LVL20:
 245 0000 2DE9F041 		push	{r4, r5, r6, r7, r8, lr}
 246              		.cfi_def_cfa_offset 24
 247              		.cfi_offset 4, -24
 248              		.cfi_offset 5, -20
 249              		.cfi_offset 6, -16
 250              		.cfi_offset 7, -12
 251              		.cfi_offset 8, -8
 252              		.cfi_offset 14, -4
 253 0004 84B0     		sub	sp, sp, #16
 254              		.cfi_def_cfa_offset 40
 255              		.loc 1 66 0
 256 0006 0C46     		mov	r4, r1
 257 0008 0546     		mov	r5, r0
 258 000a 1646     		mov	r6, r2
 259              		.loc 1 68 0
 260 000c 0846     		mov	r0, r1
 261              	.LVL21:
 262 000e 0A22     		movs	r2, #10
 263              	.LVL22:
 264 0010 01A9     		add	r1, sp, #4
 265              	.LVL23:
 266 0012 FFF7FEFF 		bl	strtoll
 267              	.LVL24:
 268              		.loc 1 70 0
 269 0016 019B     		ldr	r3, [sp, #4]
 270 0018 A342     		cmp	r3, r4
 271              		.loc 1 68 0
 272 001a CDE90201 		strd	r0, [sp, #8]
 273              		.loc 1 70 0
 274 001e 20D0     		beq	.L26
 275              		.loc 1 71 0 discriminator 1
 276 0020 6A68     		ldr	r2, [r5, #4]
 277 0022 D700     		lsls	r7, r2, #3
 278 0024 07F1FF3E 		add	lr, r7, #-1
 279 0028 4FF00108 		mov	r8, #1
 280 002c 213F     		subs	r7, r7, #33
 281 002e CEF1200C 		rsb	ip, lr, #32
 282 0032 08FA07F5 		lsl	r5, r8, r7
 283              	.LVL25:
 284 0036 28FA0CFC 		lsr	ip, r8, ip
 285 003a 08FA0EF4 		lsl	r4, r8, lr
ARM GAS  /tmp/ccQQfwoY.s 			page 6


 286              	.LVL26:
 287 003e 45EA0C05 		orr	r5, r5, ip
 288              		.loc 1 70 0 discriminator 1
 289 0042 A042     		cmp	r0, r4
 290 0044 71EB0507 		sbcs	r7, r1, r5
 291              		.loc 1 71 0 discriminator 1
 292 0048 4FF00003 		mov	r3, #0
 293              		.loc 1 70 0 discriminator 1
 294 004c 09DA     		bge	.L26
 295              		.loc 1 72 0
 296 004e 6442     		rsbs	r4, r4, #0
 297 0050 65EB4505 		sbc	r5, r5, r5, lsl #1
 298              		.loc 1 71 0
 299 0054 A042     		cmp	r0, r4
 300 0056 A941     		sbcs	r1, r1, r5
 301 0058 07DA     		bge	.L30
 302              		.loc 1 75 0
 303 005a 1846     		mov	r0, r3
 304              		.loc 1 82 0
 305 005c 04B0     		add	sp, sp, #16
 306              		.cfi_remember_state
 307              		.cfi_def_cfa_offset 24
 308              		@ sp needed
 309 005e BDE8F081 		pop	{r4, r5, r6, r7, r8, pc}
 310              	.LVL27:
 311              	.L26:
 312              		.cfi_restore_state
 313              		.loc 1 75 0
 314 0062 0020     		movs	r0, #0
 315              		.loc 1 82 0
 316 0064 04B0     		add	sp, sp, #16
 317              		.cfi_remember_state
 318              		.cfi_def_cfa_offset 24
 319              		@ sp needed
 320 0066 BDE8F081 		pop	{r4, r5, r6, r7, r8, pc}
 321              	.LVL28:
 322              	.L30:
 323              		.cfi_restore_state
 324              		.loc 1 79 0
 325 006a 3046     		mov	r0, r6
 326 006c 02A9     		add	r1, sp, #8
 327 006e FFF7FEFF 		bl	memcpy
 328              	.LVL29:
 329              		.loc 1 80 0
 330 0072 4046     		mov	r0, r8
 331              		.loc 1 82 0
 332 0074 04B0     		add	sp, sp, #16
 333              		.cfi_def_cfa_offset 24
 334              		@ sp needed
 335 0076 BDE8F081 		pop	{r4, r5, r6, r7, r8, pc}
 336              		.cfi_endproc
 337              	.LFE337:
 338              		.size	_Z21paramParser_signedIntPK24Param_DataTypeDefinitionPKcPv, .-_Z21paramParser_signedIntPK24P
 339 007a 00BF     		.section	.text._Z23paramParser_unsignedIntPK24Param_DataTypeDefinitionPKcPv,"ax",%progbits
 340              		.align	1
 341              		.p2align 2,,3
 342              		.global	_Z23paramParser_unsignedIntPK24Param_DataTypeDefinitionPKcPv
ARM GAS  /tmp/ccQQfwoY.s 			page 7


 343              		.syntax unified
 344              		.thumb
 345              		.thumb_func
 346              		.fpu fpv4-sp-d16
 347              		.type	_Z23paramParser_unsignedIntPK24Param_DataTypeDefinitionPKcPv, %function
 348              	_Z23paramParser_unsignedIntPK24Param_DataTypeDefinitionPKcPv:
 349              	.LFB338:
 350              		.loc 1 88 0
 351              		.cfi_startproc
 352              		@ args = 0, pretend = 0, frame = 16
 353              		@ frame_needed = 0, uses_anonymous_args = 0
 354              	.LVL30:
 355 0000 2DE9F041 		push	{r4, r5, r6, r7, r8, lr}
 356              		.cfi_def_cfa_offset 24
 357              		.cfi_offset 4, -24
 358              		.cfi_offset 5, -20
 359              		.cfi_offset 6, -16
 360              		.cfi_offset 7, -12
 361              		.cfi_offset 8, -8
 362              		.cfi_offset 14, -4
 363 0004 84B0     		sub	sp, sp, #16
 364              		.cfi_def_cfa_offset 40
 365              		.loc 1 88 0
 366 0006 0C46     		mov	r4, r1
 367 0008 0546     		mov	r5, r0
 368 000a 1746     		mov	r7, r2
 369              		.loc 1 90 0
 370 000c 0846     		mov	r0, r1
 371              	.LVL31:
 372 000e 0A22     		movs	r2, #10
 373              	.LVL32:
 374 0010 01A9     		add	r1, sp, #4
 375              	.LVL33:
 376 0012 FFF7FEFF 		bl	strtoll
 377              	.LVL34:
 378              		.loc 1 92 0
 379 0016 019B     		ldr	r3, [sp, #4]
 380 0018 A342     		cmp	r3, r4
 381              		.loc 1 90 0
 382 001a CDE90201 		strd	r0, [sp, #8]
 383              		.loc 1 92 0
 384 001e 1CD0     		beq	.L34
 385              		.loc 1 92 0 is_stmt 0 discriminator 1
 386 0020 0028     		cmp	r0, #0
 387 0022 71F10003 		sbcs	r3, r1, #0
 388 0026 18DB     		blt	.L34
 389              		.loc 1 94 0 is_stmt 1
 390 0028 6A68     		ldr	r2, [r5, #4]
 391 002a 4FEAC20C 		lsl	ip, r2, #3
 392 002e 0126     		movs	r6, #1
 393 0030 ACF12008 		sub	r8, ip, #32
 394 0034 CCF1200E 		rsb	lr, ip, #32
 395 0038 06FA08F5 		lsl	r5, r6, r8
 396              	.LVL35:
 397 003c 26FA0EFE 		lsr	lr, r6, lr
 398 0040 06FA0CF4 		lsl	r4, r6, ip
 399              	.LVL36:
ARM GAS  /tmp/ccQQfwoY.s 			page 8


 400 0044 45EA0E05 		orr	r5, r5, lr
 401              		.loc 1 93 0
 402 0048 A042     		cmp	r0, r4
 403 004a A941     		sbcs	r1, r1, r5
 404              		.loc 1 94 0
 405 004c 4FF00003 		mov	r3, #0
 406              		.loc 1 93 0
 407 0050 07DB     		blt	.L37
 408              		.loc 1 97 0
 409 0052 1846     		mov	r0, r3
 410              		.loc 1 104 0
 411 0054 04B0     		add	sp, sp, #16
 412              		.cfi_remember_state
 413              		.cfi_def_cfa_offset 24
 414              		@ sp needed
 415 0056 BDE8F081 		pop	{r4, r5, r6, r7, r8, pc}
 416              	.LVL37:
 417              	.L34:
 418              		.cfi_restore_state
 419              		.loc 1 97 0
 420 005a 0020     		movs	r0, #0
 421              		.loc 1 104 0
 422 005c 04B0     		add	sp, sp, #16
 423              		.cfi_remember_state
 424              		.cfi_def_cfa_offset 24
 425              		@ sp needed
 426 005e BDE8F081 		pop	{r4, r5, r6, r7, r8, pc}
 427              	.LVL38:
 428              	.L37:
 429              		.cfi_restore_state
 430              		.loc 1 101 0
 431 0062 3846     		mov	r0, r7
 432 0064 02A9     		add	r1, sp, #8
 433 0066 FFF7FEFF 		bl	memcpy
 434              	.LVL39:
 435              		.loc 1 102 0
 436 006a 3046     		mov	r0, r6
 437              		.loc 1 104 0
 438 006c 04B0     		add	sp, sp, #16
 439              		.cfi_def_cfa_offset 24
 440              		@ sp needed
 441 006e BDE8F081 		pop	{r4, r5, r6, r7, r8, pc}
 442              		.cfi_endproc
 443              	.LFE338:
 444              		.size	_Z23paramParser_unsignedIntPK24Param_DataTypeDefinitionPKcPv, .-_Z23paramParser_unsignedIntP
 445 0072 00BF     		.section	.text._Z16paramParser_boolPK24Param_DataTypeDefinitionPKcPv,"ax",%progbits
 446              		.align	1
 447              		.p2align 2,,3
 448              		.global	_Z16paramParser_boolPK24Param_DataTypeDefinitionPKcPv
 449              		.syntax unified
 450              		.thumb
 451              		.thumb_func
 452              		.fpu fpv4-sp-d16
 453              		.type	_Z16paramParser_boolPK24Param_DataTypeDefinitionPKcPv, %function
 454              	_Z16paramParser_boolPK24Param_DataTypeDefinitionPKcPv:
 455              	.LFB339:
 456              		.loc 1 110 0
ARM GAS  /tmp/ccQQfwoY.s 			page 9


 457              		.cfi_startproc
 458              		@ args = 0, pretend = 0, frame = 0
 459              		@ frame_needed = 0, uses_anonymous_args = 0
 460              		@ link register save eliminated.
 461              	.LVL40:
 462              		.loc 1 112 0
 463 0000 0B78     		ldrb	r3, [r1]	@ zero_extendqisi2
 464 0002 03F0DF03 		and	r3, r3, #223
 465 0006 542B     		cmp	r3, #84
 466 0008 06D0     		beq	.L42
 467              		.loc 1 119 0
 468 000a 462B     		cmp	r3, #70
 469              		.loc 1 123 0
 470 000c 03BF     		ittte	eq
 471 000e 0023     		moveq	r3, #0
 472              		.loc 1 124 0
 473 0010 0120     		moveq	r0, #1
 474              	.LVL41:
 475              		.loc 1 123 0
 476 0012 1370     		strbeq	r3, [r2]
 477              		.loc 1 128 0
 478 0014 0020     		movne	r0, #0
 479              		.loc 1 130 0
 480 0016 7047     		bx	lr
 481              	.LVL42:
 482              	.L42:
 483              		.loc 1 116 0
 484 0018 0120     		movs	r0, #1
 485              	.LVL43:
 486 001a 1070     		strb	r0, [r2]
 487              		.loc 1 117 0
 488 001c 7047     		bx	lr
 489              		.cfi_endproc
 490              	.LFE339:
 491              		.size	_Z16paramParser_boolPK24Param_DataTypeDefinitionPKcPv, .-_Z16paramParser_boolPK24Param_DataT
 492 001e 00BF     		.section	.text._Z20paramParser_tunerHexPK24Param_DataTypeDefinitionPKcPv,"ax",%progbits
 493              		.align	1
 494              		.p2align 2,,3
 495              		.global	_Z20paramParser_tunerHexPK24Param_DataTypeDefinitionPKcPv
 496              		.syntax unified
 497              		.thumb
 498              		.thumb_func
 499              		.fpu fpv4-sp-d16
 500              		.type	_Z20paramParser_tunerHexPK24Param_DataTypeDefinitionPKcPv, %function
 501              	_Z20paramParser_tunerHexPK24Param_DataTypeDefinitionPKcPv:
 502              	.LFB340:
 503              		.loc 1 137 0
 504              		.cfi_startproc
 505              		@ args = 0, pretend = 0, frame = 0
 506              		@ frame_needed = 0, uses_anonymous_args = 0
 507              	.LVL44:
 508 0000 F8B5     		push	{r3, r4, r5, r6, r7, lr}
 509              		.cfi_def_cfa_offset 24
 510              		.cfi_offset 3, -24
 511              		.cfi_offset 4, -20
 512              		.cfi_offset 5, -16
 513              		.cfi_offset 6, -12
ARM GAS  /tmp/ccQQfwoY.s 			page 10


 514              		.cfi_offset 7, -8
 515              		.cfi_offset 14, -4
 516              		.loc 1 137 0
 517 0002 0546     		mov	r5, r0
 518 0004 1746     		mov	r7, r2
 519              		.loc 1 138 0
 520 0006 3548     		ldr	r0, .L65
 521              	.LVL45:
 522 0008 0222     		movs	r2, #2
 523              	.LVL46:
 524              		.loc 1 137 0
 525 000a 0C46     		mov	r4, r1
 526              		.loc 1 138 0
 527 000c FFF7FEFF 		bl	strncmp
 528              	.LVL47:
 529 0010 0028     		cmp	r0, #0
 530 0012 49D1     		bne	.L54
 531 0014 0646     		mov	r6, r0
 532              		.loc 1 139 0 discriminator 1
 533 0016 2046     		mov	r0, r4
 534 0018 FFF7FEFF 		bl	strlen
 535              	.LVL48:
 536 001c 6B68     		ldr	r3, [r5, #4]
 537 001e 5A1C     		adds	r2, r3, #1
 538              		.loc 1 138 0 discriminator 1
 539 0020 B0EB420F 		cmp	r0, r2, lsl #1
 540 0024 01D0     		beq	.L61
 541              		.loc 1 140 0
 542 0026 3046     		mov	r0, r6
 543              		.loc 1 164 0
 544 0028 F8BD     		pop	{r3, r4, r5, r6, r7, pc}
 545              	.LVL49:
 546              	.L61:
 547              	.LBB2:
 548              		.loc 1 143 0
 549 002a 002B     		cmp	r3, #0
 550 002c 3AD0     		beq	.L52
 551 002e 7A1E     		subs	r2, r7, #1
 552 0030 3046     		mov	r0, r6
 553              	.LBE2:
 554              		.loc 1 142 0
 555 0032 0221     		movs	r1, #2
 556 0034 17E0     		b	.L53
 557              	.LVL50:
 558              	.L46:
 559              	.LBB7:
 560              	.LBB3:
 561              		.loc 1 148 0
 562 0036 A6F16103 		sub	r3, r6, #97
 563 003a 052B     		cmp	r3, #5
 564 003c 36D8     		bhi	.L48
 565              		.loc 1 149 0
 566 003e 0131     		adds	r1, r1, #1
 567              	.LVL51:
 568 0040 A6F15703 		sub	r3, r6, #87
 569              		.loc 1 153 0
 570 0044 665C     		ldrb	r6, [r4, r1]	@ zero_extendqisi2
ARM GAS  /tmp/ccQQfwoY.s 			page 11


 571 0046 A6F13007 		sub	r7, r6, #48
 572 004a FFB2     		uxtb	r7, r7
 573              		.loc 1 149 0
 574 004c 1B01     		lsls	r3, r3, #4
 575              		.loc 1 153 0
 576 004e 092F     		cmp	r7, #9
 577              		.loc 1 149 0
 578 0050 DBB2     		uxtb	r3, r3
 579              	.LVL52:
 580              		.loc 1 153 0
 581 0052 17D8     		bhi	.L50
 582              	.L62:
 583              		.loc 1 154 0
 584 0054 3B44     		add	r3, r3, r7
 585              	.LVL53:
 586 0056 DBB2     		uxtb	r3, r3
 587 0058 0131     		adds	r1, r1, #1
 588              	.LVL54:
 589              	.L51:
 590              		.loc 1 160 0 discriminator 2
 591 005a 02F8013F 		strb	r3, [r2, #1]!
 592              	.LBE3:
 593              		.loc 1 143 0 discriminator 2
 594 005e 6B68     		ldr	r3, [r5, #4]
 595              	.LVL55:
 596 0060 0130     		adds	r0, r0, #1
 597              	.LVL56:
 598 0062 8342     		cmp	r3, r0
 599 0064 1ED9     		bls	.L52
 600              	.LVL57:
 601              	.L53:
 602              	.LBB4:
 603              		.loc 1 146 0
 604 0066 665C     		ldrb	r6, [r4, r1]	@ zero_extendqisi2
 605 0068 A6F13003 		sub	r3, r6, #48
 606 006c DBB2     		uxtb	r3, r3
 607 006e 092B     		cmp	r3, #9
 608 0070 E1D8     		bhi	.L46
 609              		.loc 1 151 0
 610 0072 1B01     		lsls	r3, r3, #4
 611 0074 DBB2     		uxtb	r3, r3
 612 0076 0131     		adds	r1, r1, #1
 613              	.LVL58:
 614              	.L64:
 615              		.loc 1 153 0
 616 0078 665C     		ldrb	r6, [r4, r1]	@ zero_extendqisi2
 617 007a A6F13007 		sub	r7, r6, #48
 618 007e FFB2     		uxtb	r7, r7
 619 0080 092F     		cmp	r7, #9
 620 0082 E7D9     		bls	.L62
 621              	.L50:
 622              		.loc 1 155 0
 623 0084 A6F16107 		sub	r7, r6, #97
 624 0088 052F     		cmp	r7, #5
 625 008a 24D8     		bhi	.L63
 626 008c 3344     		add	r3, r3, r6
 627              	.LVL59:
ARM GAS  /tmp/ccQQfwoY.s 			page 12


 628              		.loc 1 156 0
 629 008e 573B     		subs	r3, r3, #87
 630 0090 03F0FF03 		and	r3, r3, #255
 631              		.loc 1 160 0
 632 0094 02F8013F 		strb	r3, [r2, #1]!
 633              	.LBE4:
 634              		.loc 1 143 0
 635 0098 6B68     		ldr	r3, [r5, #4]
 636 009a 0130     		adds	r0, r0, #1
 637              	.LVL60:
 638 009c 8342     		cmp	r3, r0
 639              	.LBB5:
 640              		.loc 1 156 0
 641 009e 01F10101 		add	r1, r1, #1
 642              	.LVL61:
 643              	.LBE5:
 644              		.loc 1 143 0
 645 00a2 E0D8     		bhi	.L53
 646              	.LVL62:
 647              	.L52:
 648              	.LBE7:
 649              		.loc 1 163 0
 650 00a4 0120     		movs	r0, #1
 651              		.loc 1 164 0
 652 00a6 F8BD     		pop	{r3, r4, r5, r6, r7, pc}
 653              	.LVL63:
 654              	.L54:
 655              		.loc 1 140 0
 656 00a8 0020     		movs	r0, #0
 657              		.loc 1 164 0
 658 00aa F8BD     		pop	{r3, r4, r5, r6, r7, pc}
 659              	.LVL64:
 660              	.L48:
 661              	.LBB8:
 662              	.LBB6:
 663              		.loc 1 150 0
 664 00ac A6F14107 		sub	r7, r6, #65
 665 00b0 FBB2     		uxtb	r3, r7
 666 00b2 052B     		cmp	r3, #5
 667 00b4 05D8     		bhi	.L56
 668              		.loc 1 151 0
 669 00b6 A6F13703 		sub	r3, r6, #55
 670 00ba 1B01     		lsls	r3, r3, #4
 671 00bc DBB2     		uxtb	r3, r3
 672 00be 0131     		adds	r1, r1, #1
 673              	.LVL65:
 674 00c0 DAE7     		b	.L64
 675              	.LVL66:
 676              	.L56:
 677              		.loc 1 145 0
 678 00c2 0023     		movs	r3, #0
 679              	.LVL67:
 680              	.L49:
 681              		.loc 1 157 0
 682 00c4 FFB2     		uxtb	r7, r7
 683 00c6 052F     		cmp	r7, #5
 684 00c8 C7D8     		bhi	.L51
ARM GAS  /tmp/ccQQfwoY.s 			page 13


 685 00ca 3344     		add	r3, r3, r6
 686              	.LVL68:
 687              		.loc 1 158 0
 688 00cc 373B     		subs	r3, r3, #55
 689 00ce 03F0FF03 		and	r3, r3, #255
 690 00d2 0131     		adds	r1, r1, #1
 691              	.LVL69:
 692 00d4 C1E7     		b	.L51
 693              	.L63:
 694 00d6 A6F14107 		sub	r7, r6, #65
 695 00da F3E7     		b	.L49
 696              	.L66:
 697              		.align	2
 698              	.L65:
 699 00dc 00000000 		.word	.LC4
 700              	.LBE6:
 701              	.LBE8:
 702              		.cfi_endproc
 703              	.LFE340:
 704              		.size	_Z20paramParser_tunerHexPK24Param_DataTypeDefinitionPKcPv, .-_Z20paramParser_tunerHexPK24Par
 705              		.section	.rodata._Z18paramSerializer_fpP20BaseSequentialStreamPK24Param_DataTypeDefinitionPKv.str1
 706              		.align	2
 707              	.LC0:
 708 0000 256600   		.ascii	"%f\000"
 709              		.section	.rodata._Z20paramParser_tunerHexPK24Param_DataTypeDefinitionPKcPv.str1.4,"aMS",%progbits,
 710              		.align	2
 711              	.LC4:
 712 0000 307800   		.ascii	"0x\000"
 713              		.section	.rodata._Z20paramSerializer_boolP20BaseSequentialStreamPK24Param_DataTypeDefinitionPKv.st
 714              		.align	2
 715              	.LC1:
 716 0000 74727565 		.ascii	"true\000"
 716      00
 717 0005 000000   		.space	3
 718              	.LC2:
 719 0008 66616C73 		.ascii	"false\000"
 719      6500
 720 000e 0000     		.space	2
 721              	.LC3:
 722 0010 257300   		.ascii	"%s\000"
 723              		.text
 724              	.Letext0:
 725              		.file 2 "/usr/lib/gcc/arm-none-eabi/7.3.1/include/stddef.h"
 726              		.file 3 "/usr/arm-none-eabi/include/machine/_default_types.h"
 727              		.file 4 "/usr/arm-none-eabi/include/sys/_stdint.h"
 728              		.file 5 "./RM18A-ChibiOS18-Core/chibios/os/common/ports/ARMCMx/compilers/GCC/chtypes.h"
 729              		.file 6 "./RM18A-ChibiOS18-Core/chibios/os/rt/include/chsystypes.h"
 730              		.file 7 "./RM18A-ChibiOS18-Core/chibios/os/rt/include/chschd.h"
 731              		.file 8 "./RM18A-ChibiOS18-Core/chibios/os/rt/include/chtime.h"
 732              		.file 9 "./RM18A-ChibiOS18-Core/chibios/os/common/ext/ARM/CMSIS/Core/Include/core_cm4.h"
 733              		.file 10 "./RM18A-ChibiOS18-Core/chibios/os/common/ext/ST/STM32F4xx/system_stm32f4xx.h"
 734              		.file 11 "./RM18A-ChibiOS18-Core/chibios/os/common/ext/ST/STM32F4xx/stm32f427xx.h"
 735              		.file 12 "./RM18A-ChibiOS18-Core/chibios/os/common/ports/ARMCMx/chcore.h"
 736              		.file 13 "./RM18A-ChibiOS18-Core/chibios/os/common/ports/ARMCMx/chcore_v7m.h"
 737              		.file 14 "./RM18A-ChibiOS18-Core/chibios/os/hal/ports/STM32/LLD/TIMv1/stm32_tim.h"
 738              		.file 15 "./RM18A-ChibiOS18-Core/chibios/os/rt/include/chtm.h"
 739              		.file 16 "./RM18A-ChibiOS18-Core/chibios/os/rt/include/chsem.h"
ARM GAS  /tmp/ccQQfwoY.s 			page 14


 740              		.file 17 "./RM18A-ChibiOS18-Core/chibios/os/rt/include/chmtx.h"
 741              		.file 18 "./RM18A-ChibiOS18-Core/chibios/os/rt/include/chsys.h"
 742              		.file 19 "./RM18A-ChibiOS18-Core/chibios/os/rt/include/chregistry.h"
 743              		.file 20 "./RM18A-ChibiOS18-Core/chibios/os/rt/include/chevents.h"
 744              		.file 21 "./RM18A-ChibiOS18-Core/chibios/os/oslib/include/chmemcore.h"
 745              		.file 22 "./RM18A-ChibiOS18-Core/chibios/os/oslib/include/chmempools.h"
 746              		.file 23 "./RM18A-ChibiOS18-Core/chibios/os/oslib/include/chfactory.h"
 747              		.file 24 "./RM18A-ChibiOS18-Core/chibios/os/hal/ports/STM32/LLD/DMAv2/stm32_dma.h"
 748              		.file 25 "./RM18A-ChibiOS18-Core/chibios/os/hal/include/hal_streams.h"
 749              		.file 26 "./RM18A-ChibiOS18-Core/chibios/os/hal/include/hal_queues.h"
 750              		.file 27 "./RM18A-ChibiOS18-Core/chibios/os/hal/include/hal_pal.h"
 751              		.file 28 "./RM18A-ChibiOS18-Core/chibios/os/hal/ports/STM32/LLD/GPIOv2/hal_pal_lld.h"
 752              		.file 29 "./RM18A-ChibiOS18-Core/chibios/os/hal/include/hal_adc.h"
 753              		.file 30 "./RM18A-ChibiOS18-Core/chibios/os/hal/ports/STM32/LLD/ADCv2/hal_adc_lld.h"
 754              		.file 31 "./RM18A-ChibiOS18-Core/chibios/os/hal/include/hal_can.h"
 755              		.file 32 "./RM18A-ChibiOS18-Core/chibios/os/hal/ports/STM32/LLD/CANv1/hal_can_lld.h"
 756              		.file 33 "./RM18A-ChibiOS18-Core/chibios/os/hal/include/hal_icu.h"
 757              		.file 34 "./RM18A-ChibiOS18-Core/chibios/os/hal/ports/STM32/LLD/TIMv1/hal_icu_lld.h"
 758              		.file 35 "./RM18A-ChibiOS18-Core/chibios/os/hal/include/hal_pwm.h"
 759              		.file 36 "./RM18A-ChibiOS18-Core/chibios/os/hal/ports/STM32/LLD/TIMv1/hal_pwm_lld.h"
 760              		.file 37 "./RM18A-ChibiOS18-Core/chibios/os/hal/include/hal_serial.h"
 761              		.file 38 "./RM18A-ChibiOS18-Core/chibios/os/hal/ports/STM32/LLD/USARTv1/hal_serial_lld.h"
 762              		.file 39 "./RM18A-ChibiOS18-Core/chibios/os/hal/include/hal_spi.h"
 763              		.file 40 "./RM18A-ChibiOS18-Core/chibios/os/hal/ports/STM32/LLD/SPIv1/hal_spi_lld.h"
 764              		.file 41 "./RM18A-ChibiOS18-Core/chibios/os/hal/include/hal_uart.h"
 765              		.file 42 "./RM18A-ChibiOS18-Core/chibios/os/hal/ports/STM32/LLD/USARTv1/hal_uart_lld.h"
 766              		.file 43 "./RM18A-ChibiOS18-Core/chibios/os/hal/include/hal_usb.h"
 767              		.file 44 "./RM18A-ChibiOS18-Core/chibios/os/hal/ports/STM32/LLD/OTGv1/hal_usb_lld.h"
 768              		.file 45 "./RM18A-ChibiOS18-Core/chibios/os/hal/ports/STM32/LLD/OTGv1/stm32_otg.h"
 769              		.file 46 "./RM18A-ChibiOS18-Core/src/peripherals/flash.h"
 770              		.file 47 "./RM18A-ChibiOS18-Core/src/shell/shell.h"
 771              		.file 48 "./RM18A-ChibiOS18-Core/src/Persistence.hpp"
 772              		.file 49 "/usr/arm-none-eabi/include/c++/7.3.1/cstdlib"
 773              		.file 50 "/usr/arm-none-eabi/include/c++/7.3.1/arm-none-eabi/thumb/v7e-m/fpv4-sp/hard/bits/c++conf
 774              		.file 51 "/usr/arm-none-eabi/include/sys/lock.h"
 775              		.file 52 "/usr/arm-none-eabi/include/sys/_types.h"
 776              		.file 53 "/usr/arm-none-eabi/include/sys/reent.h"
 777              		.file 54 "/usr/arm-none-eabi/include/stdlib.h"
 778              		.file 55 "/usr/arm-none-eabi/include/c++/7.3.1/stdlib.h"
 779              		.file 56 "/usr/arm-none-eabi/include/string.h"
 780              		.file 57 "./RM18A-ChibiOS18-Core/chibios/os/hal/lib/streams/chprintf.h"
 781              		.file 58 "<built-in>"