ARM GAS  /tmp/ccwidgtl.s 			page 1


   1              		.cpu cortex-m4
   2              		.eabi_attribute 27, 1
   3              		.eabi_attribute 28, 1
   4              		.eabi_attribute 20, 1
   5              		.eabi_attribute 21, 1
   6              		.eabi_attribute 23, 3
   7              		.eabi_attribute 24, 1
   8              		.eabi_attribute 25, 1
   9              		.eabi_attribute 26, 1
  10              		.eabi_attribute 30, 2
  11              		.eabi_attribute 34, 1
  12              		.eabi_attribute 18, 4
  13              		.file	"Persistence.cpp"
  14              		.text
  15              	.Ltext0:
  16              		.cfi_sections	.debug_frame
  17              		.section	.text._ZL15Param_DebugHaltPKc,"ax",%progbits
  18              		.align	1
  19              		.p2align 2,,3
  20              		.syntax unified
  21              		.thumb
  22              		.thumb_func
  23              		.fpu fpv4-sp-d16
  24              		.type	_ZL15Param_DebugHaltPKc, %function
  25              	_ZL15Param_DebugHaltPKc:
  26              	.LFB1128:
  27              		.file 1 "./RM18A-ChibiOS18-Core/src/Persistence.cpp"
  28              		.loc 1 116 0
  29              		.cfi_startproc
  30              		@ Volatile: function does not return.
  31              		@ args = 0, pretend = 0, frame = 0
  32              		@ frame_needed = 0, uses_anonymous_args = 0
  33              	.LVL0:
  34              		.loc 1 117 0
  35 0000 0146     		mov	r1, r0
  36              		.loc 1 116 0
  37 0002 08B5     		push	{r3, lr}
  38              		.cfi_def_cfa_offset 8
  39              		.cfi_offset 3, -8
  40              		.cfi_offset 14, -4
  41              		.loc 1 117 0
  42 0004 0120     		movs	r0, #1
  43              	.LVL1:
  44 0006 FFF7FEFF 		bl	log_msg
  45              	.LVL2:
  46              		.loc 1 121 0
  47 000a 0A4E     		ldr	r6, .L5
  48              		.loc 1 122 0
  49 000c 0A4D     		ldr	r5, .L5+4
  50              		.loc 1 123 0
  51 000e 0B4C     		ldr	r4, .L5+8
  52              	.L2:
  53              		.loc 1 121 0 discriminator 1
  54 0010 7369     		ldr	r3, [r6, #20]
  55 0012 83F4FF73 		eor	r3, r3, #510
  56 0016 7361     		str	r3, [r6, #20]
  57              		.loc 1 122 0 discriminator 1
ARM GAS  /tmp/ccwidgtl.s 			page 2


  58 0018 6B69     		ldr	r3, [r5, #20]
  59 001a 83F48043 		eor	r3, r3, #16384
  60 001e 6B61     		str	r3, [r5, #20]
  61              		.loc 1 123 0 discriminator 1
  62 0020 6369     		ldr	r3, [r4, #20]
  63 0022 83F40063 		eor	r3, r3, #2048
  64 0026 6361     		str	r3, [r4, #20]
  65              		.loc 1 124 0 discriminator 1
  66 0028 41F28830 		movw	r0, #5000
  67 002c FFF7FEFF 		bl	chThdSleep
  68              	.LVL3:
  69 0030 EEE7     		b	.L2
  70              	.L6:
  71 0032 00BF     		.align	2
  72              	.L5:
  73 0034 00180240 		.word	1073879040
  74 0038 00140240 		.word	1073878016
  75 003c 00100240 		.word	1073876992
  76              		.cfi_endproc
  77              	.LFE1128:
  78              		.size	_ZL15Param_DebugHaltPKc, .-_ZL15Param_DebugHaltPKc
  79              		.section	.text._ZNSt7__cxx114listIPK16Param_DefinitionSaIS3_EED2Ev,"axG",%progbits,_ZNSt7__cxx114l
  80              		.align	1
  81              		.p2align 2,,3
  82              		.weak	_ZNSt7__cxx114listIPK16Param_DefinitionSaIS3_EED2Ev
  83              		.syntax unified
  84              		.thumb
  85              		.thumb_func
  86              		.fpu fpv4-sp-d16
  87              		.type	_ZNSt7__cxx114listIPK16Param_DefinitionSaIS3_EED2Ev, %function
  88              	_ZNSt7__cxx114listIPK16Param_DefinitionSaIS3_EED2Ev:
  89              	.LFB1238:
  90              		.file 2 "/usr/arm-none-eabi/include/c++/7.3.1/bits/stl_list.h"
  91              		.loc 2 733 0
  92              		.cfi_startproc
  93              		@ args = 0, pretend = 0, frame = 0
  94              		@ frame_needed = 0, uses_anonymous_args = 0
  95              	.LVL4:
  96 0000 38B5     		push	{r3, r4, r5, lr}
  97              		.cfi_def_cfa_offset 16
  98              		.cfi_offset 3, -16
  99              		.cfi_offset 4, -12
 100              		.cfi_offset 5, -8
 101              		.cfi_offset 14, -4
 102              		.loc 2 733 0
 103 0002 0546     		mov	r5, r0
 104              	.LVL5:
 105              	.LBB624:
 106              	.LBB625:
 107              	.LBB626:
 108              		.file 3 "/usr/arm-none-eabi/include/c++/7.3.1/bits/list.tcc"
 109              		.loc 3 69 0
 110 0004 0068     		ldr	r0, [r0]
 111              	.LVL6:
 112              		.loc 3 70 0
 113 0006 A842     		cmp	r0, r5
 114 0008 05D0     		beq	.L8
ARM GAS  /tmp/ccwidgtl.s 			page 3


 115              	.L9:
 116              	.LVL7:
 117              	.LBB627:
 118              		.loc 3 73 0
 119 000a 0468     		ldr	r4, [r0]
 120              	.LVL8:
 121              	.LBB628:
 122              	.LBB629:
 123              	.LBB630:
 124              	.LBB631:
 125              		.file 4 "/usr/arm-none-eabi/include/c++/7.3.1/ext/new_allocator.h"
 126              		.loc 4 125 0
 127 000c FFF7FEFF 		bl	_ZdlPv
 128              	.LVL9:
 129              	.LBE631:
 130              	.LBE630:
 131              	.LBE629:
 132              	.LBE628:
 133              	.LBE627:
 134              		.loc 3 70 0
 135 0010 AC42     		cmp	r4, r5
 136 0012 2046     		mov	r0, r4
 137 0014 F9D1     		bne	.L9
 138              	.LVL10:
 139              	.L8:
 140              	.LBE626:
 141              	.LBE625:
 142              	.LBE624:
 143              		.loc 2 733 0
 144 0016 2846     		mov	r0, r5
 145 0018 38BD     		pop	{r3, r4, r5, pc}
 146              		.cfi_endproc
 147              	.LFE1238:
 148              		.size	_ZNSt7__cxx114listIPK16Param_DefinitionSaIS3_EED2Ev, .-_ZNSt7__cxx114listIPK16Param_Definiti
 149              		.weak	_ZNSt7__cxx114listIPK16Param_DefinitionSaIS3_EED1Ev
 150              		.thumb_set _ZNSt7__cxx114listIPK16Param_DefinitionSaIS3_EED1Ev,_ZNSt7__cxx114listIPK16Param_Defini
 151 001a 00BF     		.section	.text._Z21paramSerializerNumberImEvP20BaseSequentialStreamPK24Param_DataTypeDefinitionPKv
 152              		.align	1
 153              		.p2align 2,,3
 154              		.weak	_Z21paramSerializerNumberImEvP20BaseSequentialStreamPK24Param_DataTypeDefinitionPKv
 155              		.syntax unified
 156              		.thumb
 157              		.thumb_func
 158              		.fpu fpv4-sp-d16
 159              		.type	_Z21paramSerializerNumberImEvP20BaseSequentialStreamPK24Param_DataTypeDefinitionPKv, %functi
 160              	_Z21paramSerializerNumberImEvP20BaseSequentialStreamPK24Param_DataTypeDefinitionPKv:
 161              	.LFB1167:
 162              		.loc 1 93 0
 163              		.cfi_startproc
 164              		@ args = 0, pretend = 0, frame = 0
 165              		@ frame_needed = 0, uses_anonymous_args = 0
 166              		@ link register save eliminated.
 167              	.LVL11:
 168              		.loc 1 97 0
 169 0000 1268     		ldr	r2, [r2]
 170              	.LVL12:
 171 0002 0149     		ldr	r1, .L13
ARM GAS  /tmp/ccwidgtl.s 			page 4


 172              	.LVL13:
 173 0004 FFF7FEBF 		b	chprintf
 174              	.LVL14:
 175              	.L14:
 176              		.align	2
 177              	.L13:
 178 0008 00000000 		.word	.LC0
 179              		.cfi_endproc
 180              	.LFE1167:
 181              		.size	_Z21paramSerializerNumberImEvP20BaseSequentialStreamPK24Param_DataTypeDefinitionPKv, .-_Z21p
 182              		.section	.text._Z21paramSerializerNumberIlEvP20BaseSequentialStreamPK24Param_DataTypeDefinitionPKv
 183              		.align	1
 184              		.p2align 2,,3
 185              		.weak	_Z21paramSerializerNumberIlEvP20BaseSequentialStreamPK24Param_DataTypeDefinitionPKv
 186              		.syntax unified
 187              		.thumb
 188              		.thumb_func
 189              		.fpu fpv4-sp-d16
 190              		.type	_Z21paramSerializerNumberIlEvP20BaseSequentialStreamPK24Param_DataTypeDefinitionPKv, %functi
 191              	_Z21paramSerializerNumberIlEvP20BaseSequentialStreamPK24Param_DataTypeDefinitionPKv:
 192              	.LFB1166:
 193              		.loc 1 93 0
 194              		.cfi_startproc
 195              		@ args = 0, pretend = 0, frame = 0
 196              		@ frame_needed = 0, uses_anonymous_args = 0
 197              		@ link register save eliminated.
 198              	.LVL15:
 199              		.loc 1 97 0
 200 0000 1268     		ldr	r2, [r2]
 201              	.LVL16:
 202 0002 0149     		ldr	r1, .L16
 203              	.LVL17:
 204 0004 FFF7FEBF 		b	chprintf
 205              	.LVL18:
 206              	.L17:
 207              		.align	2
 208              	.L16:
 209 0008 00000000 		.word	.LC0
 210              		.cfi_endproc
 211              	.LFE1166:
 212              		.size	_Z21paramSerializerNumberIlEvP20BaseSequentialStreamPK24Param_DataTypeDefinitionPKv, .-_Z21p
 213              		.section	.text._Z21paramSerializerNumberItEvP20BaseSequentialStreamPK24Param_DataTypeDefinitionPKv
 214              		.align	1
 215              		.p2align 2,,3
 216              		.weak	_Z21paramSerializerNumberItEvP20BaseSequentialStreamPK24Param_DataTypeDefinitionPKv
 217              		.syntax unified
 218              		.thumb
 219              		.thumb_func
 220              		.fpu fpv4-sp-d16
 221              		.type	_Z21paramSerializerNumberItEvP20BaseSequentialStreamPK24Param_DataTypeDefinitionPKv, %functi
 222              	_Z21paramSerializerNumberItEvP20BaseSequentialStreamPK24Param_DataTypeDefinitionPKv:
 223              	.LFB1165:
 224              		.loc 1 93 0
 225              		.cfi_startproc
 226              		@ args = 0, pretend = 0, frame = 0
 227              		@ frame_needed = 0, uses_anonymous_args = 0
 228              		@ link register save eliminated.
ARM GAS  /tmp/ccwidgtl.s 			page 5


 229              	.LVL19:
 230              		.loc 1 97 0
 231 0000 1288     		ldrh	r2, [r2]
 232              	.LVL20:
 233 0002 0149     		ldr	r1, .L19
 234              	.LVL21:
 235 0004 FFF7FEBF 		b	chprintf
 236              	.LVL22:
 237              	.L20:
 238              		.align	2
 239              	.L19:
 240 0008 00000000 		.word	.LC0
 241              		.cfi_endproc
 242              	.LFE1165:
 243              		.size	_Z21paramSerializerNumberItEvP20BaseSequentialStreamPK24Param_DataTypeDefinitionPKv, .-_Z21p
 244              		.section	.text._Z21paramSerializerNumberIsEvP20BaseSequentialStreamPK24Param_DataTypeDefinitionPKv
 245              		.align	1
 246              		.p2align 2,,3
 247              		.weak	_Z21paramSerializerNumberIsEvP20BaseSequentialStreamPK24Param_DataTypeDefinitionPKv
 248              		.syntax unified
 249              		.thumb
 250              		.thumb_func
 251              		.fpu fpv4-sp-d16
 252              		.type	_Z21paramSerializerNumberIsEvP20BaseSequentialStreamPK24Param_DataTypeDefinitionPKv, %functi
 253              	_Z21paramSerializerNumberIsEvP20BaseSequentialStreamPK24Param_DataTypeDefinitionPKv:
 254              	.LFB1164:
 255              		.loc 1 93 0
 256              		.cfi_startproc
 257              		@ args = 0, pretend = 0, frame = 0
 258              		@ frame_needed = 0, uses_anonymous_args = 0
 259              		@ link register save eliminated.
 260              	.LVL23:
 261              		.loc 1 97 0
 262 0000 B2F90020 		ldrsh	r2, [r2]
 263              	.LVL24:
 264 0004 0149     		ldr	r1, .L22
 265              	.LVL25:
 266 0006 FFF7FEBF 		b	chprintf
 267              	.LVL26:
 268              	.L23:
 269 000a 00BF     		.align	2
 270              	.L22:
 271 000c 00000000 		.word	.LC0
 272              		.cfi_endproc
 273              	.LFE1164:
 274              		.size	_Z21paramSerializerNumberIsEvP20BaseSequentialStreamPK24Param_DataTypeDefinitionPKv, .-_Z21p
 275              		.section	.text._Z21paramSerializerNumberIhEvP20BaseSequentialStreamPK24Param_DataTypeDefinitionPKv
 276              		.align	1
 277              		.p2align 2,,3
 278              		.weak	_Z21paramSerializerNumberIhEvP20BaseSequentialStreamPK24Param_DataTypeDefinitionPKv
 279              		.syntax unified
 280              		.thumb
 281              		.thumb_func
 282              		.fpu fpv4-sp-d16
 283              		.type	_Z21paramSerializerNumberIhEvP20BaseSequentialStreamPK24Param_DataTypeDefinitionPKv, %functi
 284              	_Z21paramSerializerNumberIhEvP20BaseSequentialStreamPK24Param_DataTypeDefinitionPKv:
 285              	.LFB1163:
ARM GAS  /tmp/ccwidgtl.s 			page 6


 286              		.loc 1 93 0
 287              		.cfi_startproc
 288              		@ args = 0, pretend = 0, frame = 0
 289              		@ frame_needed = 0, uses_anonymous_args = 0
 290              		@ link register save eliminated.
 291              	.LVL27:
 292              		.loc 1 97 0
 293 0000 1278     		ldrb	r2, [r2]	@ zero_extendqisi2
 294              	.LVL28:
 295 0002 0149     		ldr	r1, .L25
 296              	.LVL29:
 297 0004 FFF7FEBF 		b	chprintf
 298              	.LVL30:
 299              	.L26:
 300              		.align	2
 301              	.L25:
 302 0008 00000000 		.word	.LC0
 303              		.cfi_endproc
 304              	.LFE1163:
 305              		.size	_Z21paramSerializerNumberIhEvP20BaseSequentialStreamPK24Param_DataTypeDefinitionPKv, .-_Z21p
 306              		.section	.text._Z21paramSerializerNumberIaEvP20BaseSequentialStreamPK24Param_DataTypeDefinitionPKv
 307              		.align	1
 308              		.p2align 2,,3
 309              		.weak	_Z21paramSerializerNumberIaEvP20BaseSequentialStreamPK24Param_DataTypeDefinitionPKv
 310              		.syntax unified
 311              		.thumb
 312              		.thumb_func
 313              		.fpu fpv4-sp-d16
 314              		.type	_Z21paramSerializerNumberIaEvP20BaseSequentialStreamPK24Param_DataTypeDefinitionPKv, %functi
 315              	_Z21paramSerializerNumberIaEvP20BaseSequentialStreamPK24Param_DataTypeDefinitionPKv:
 316              	.LFB1162:
 317              		.loc 1 93 0
 318              		.cfi_startproc
 319              		@ args = 0, pretend = 0, frame = 0
 320              		@ frame_needed = 0, uses_anonymous_args = 0
 321              		@ link register save eliminated.
 322              	.LVL31:
 323              		.loc 1 97 0
 324 0000 92F90020 		ldrsb	r2, [r2]
 325              	.LVL32:
 326 0004 0149     		ldr	r1, .L28
 327              	.LVL33:
 328 0006 FFF7FEBF 		b	chprintf
 329              	.LVL34:
 330              	.L29:
 331 000a 00BF     		.align	2
 332              	.L28:
 333 000c 00000000 		.word	.LC0
 334              		.cfi_endproc
 335              	.LFE1162:
 336              		.size	_Z21paramSerializerNumberIaEvP20BaseSequentialStreamPK24Param_DataTypeDefinitionPKv, .-_Z21p
 337              		.section	.text._ZL18Param_ShellCmd_setP20BaseSequentialStreamiPPcb,"ax",%progbits
 338              		.align	1
 339              		.p2align 2,,3
 340              		.syntax unified
 341              		.thumb
 342              		.thumb_func
ARM GAS  /tmp/ccwidgtl.s 			page 7


 343              		.fpu fpv4-sp-d16
 344              		.type	_ZL18Param_ShellCmd_setP20BaseSequentialStreamiPPcb, %function
 345              	_ZL18Param_ShellCmd_setP20BaseSequentialStreamiPPcb:
 346              	.LFB1151:
 347              		.loc 1 644 0
 348              		.cfi_startproc
 349              		@ args = 0, pretend = 0, frame = 8
 350              		@ frame_needed = 1, uses_anonymous_args = 0
 351              	.LVL35:
 352 0000 2DE9F04F 		push	{r4, r5, r6, r7, r8, r9, r10, fp, lr}
 353              		.cfi_def_cfa_offset 36
 354              		.cfi_offset 4, -36
 355              		.cfi_offset 5, -32
 356              		.cfi_offset 6, -28
 357              		.cfi_offset 7, -24
 358              		.cfi_offset 8, -20
 359              		.cfi_offset 9, -16
 360              		.cfi_offset 10, -12
 361              		.cfi_offset 11, -8
 362              		.cfi_offset 14, -4
 363              	.LBB699:
 364              		.loc 1 646 0
 365 0004 0229     		cmp	r1, #2
 366              	.LBE699:
 367              		.loc 1 644 0
 368 0006 83B0     		sub	sp, sp, #12
 369              		.cfi_def_cfa_offset 48
 370 0008 00AF     		add	r7, sp, #0
 371              		.cfi_def_cfa_register 7
 372              	.LBB721:
 373              		.loc 1 646 0
 374 000a 05D0     		beq	.L77
 375              	.LBE721:
 376              		.loc 1 700 0
 377 000c 0024     		movs	r4, #0
 378              	.LVL36:
 379              	.L75:
 380              		.loc 1 701 0
 381 000e 2046     		mov	r0, r4
 382 0010 0C37     		adds	r7, r7, #12
 383              		.cfi_remember_state
 384              		.cfi_def_cfa_offset 36
 385 0012 BD46     		mov	sp, r7
 386              		.cfi_def_cfa_register 13
 387              		@ sp needed
 388 0014 BDE8F08F 		pop	{r4, r5, r6, r7, r8, r9, r10, fp, pc}
 389              	.LVL37:
 390              	.L77:
 391              		.cfi_restore_state
 392              	.LBB722:
 393              	.LBB700:
 394              	.LBB701:
 395              	.LBB702:
 396              		.loc 1 557 0
 397 0018 DFF8D491 		ldr	r9, .L83+36
 398 001c 1168     		ldr	r1, [r2]
 399              	.LVL38:
ARM GAS  /tmp/ccwidgtl.s 			page 8


 400 001e 9246     		mov	r10, r2
 401 0020 0646     		mov	r6, r0
 402 0022 4A46     		mov	r2, r9
 403              	.LVL39:
 404 0024 6948     		ldr	r0, .L83
 405              	.LVL40:
 406 0026 9846     		mov	r8, r3
 407 0028 FFF7FEFF 		bl	_Z23paramParser_unsignedIntPK24Param_DataTypeDefinitionPKcPv
 408              	.LVL41:
 409 002c 0446     		mov	r4, r0
 410 002e 88B1     		cbz	r0, .L32
 411              	.LVL42:
 412              	.LBB703:
 413              	.LBB704:
 414              	.LBB705:
 415              	.LBB706:
 416              		.loc 1 47 0
 417 0030 674D     		ldr	r5, .L83+4
 418              	.LBE706:
 419              	.LBE705:
 420              		.loc 1 558 0
 421 0032 D9F80000 		ldr	r0, [r9]
 422              	.LVL43:
 423              	.LBB710:
 424              	.LBB709:
 425              		.loc 1 47 0
 426 0036 2B68     		ldr	r3, [r5]
 427              	.LVL44:
 428              		.loc 1 48 0
 429 0038 AB42     		cmp	r3, r5
 430 003a 0BD0     		beq	.L32
 431              		.loc 1 50 0
 432 003c 0028     		cmp	r0, #0
 433 003e 3ED0     		beq	.L33
 434 0040 1A46     		mov	r2, r3
 435              		.loc 1 46 0
 436 0042 0021     		movs	r1, #0
 437 0044 01E0     		b	.L34
 438              	.LVL45:
 439              	.L36:
 440              		.loc 1 50 0
 441 0046 8842     		cmp	r0, r1
 442 0048 0AD0     		beq	.L78
 443              	.LVL46:
 444              	.L34:
 445              	.LBB707:
 446              	.LBB708:
 447              		.loc 2 170 0
 448 004a 1268     		ldr	r2, [r2]
 449              	.LVL47:
 450              	.LBE708:
 451              	.LBE707:
 452              		.loc 1 48 0
 453 004c AA42     		cmp	r2, r5
 454              		.loc 1 55 0
 455 004e 01F10101 		add	r1, r1, #1
 456              	.LVL48:
ARM GAS  /tmp/ccwidgtl.s 			page 9


 457              		.loc 1 48 0
 458 0052 F8D1     		bne	.L36
 459              	.LVL49:
 460              	.L32:
 461              	.LBE709:
 462              	.LBE710:
 463              	.LBE704:
 464              	.LBE703:
 465              	.LBE702:
 466              	.LBE701:
 467              		.loc 1 697 0
 468 0054 3046     		mov	r0, r6
 469 0056 5F49     		ldr	r1, .L83+8
 470 0058 FFF7FEFF 		bl	chprintf
 471              	.LVL50:
 472              	.LBE700:
 473              	.LBE722:
 474              		.loc 1 700 0
 475 005c 0024     		movs	r4, #0
 476              	.LBB723:
 477 005e D6E7     		b	.L75
 478              	.LVL51:
 479              	.L78:
 480              	.LBB719:
 481              	.LBB717:
 482              	.LBB715:
 483              	.LBB713:
 484              	.LBB711:
 485              		.loc 1 558 0
 486 0060 9268     		ldr	r2, [r2, #8]
 487 0062 002A     		cmp	r2, #0
 488 0064 F6D0     		beq	.L32
 489              	.LBE711:
 490              	.LBE713:
 491              	.LBE715:
 492              	.LBE717:
 493              	.LBE719:
 494              	.LBE723:
 495              	.LBB724:
 496              	.LBB725:
 497              	.LBB726:
 498              	.LBB727:
 499              	.LBB728:
 500              		.loc 1 46 0
 501 0066 0022     		movs	r2, #0
 502 0068 01E0     		b	.L35
 503              	.LVL52:
 504              	.L38:
 505              		.loc 1 50 0
 506 006a 9042     		cmp	r0, r2
 507 006c 2AD0     		beq	.L59
 508              	.LVL53:
 509              	.L35:
 510              	.LBB729:
 511              	.LBB730:
 512              		.loc 2 170 0
 513 006e 1B68     		ldr	r3, [r3]
ARM GAS  /tmp/ccwidgtl.s 			page 10


 514              	.LVL54:
 515              	.LBE730:
 516              	.LBE729:
 517              		.loc 1 48 0
 518 0070 AB42     		cmp	r3, r5
 519              		.loc 1 55 0
 520 0072 02F10102 		add	r2, r2, #1
 521              	.LVL55:
 522              		.loc 1 48 0
 523 0076 F8D1     		bne	.L38
 524              		.loc 1 57 0
 525 0078 0023     		movs	r3, #0
 526              	.LVL56:
 527              	.L37:
 528 007a 1879     		ldrb	r0, [r3, #4]	@ zero_extendqisi2
 529              	.LBE728:
 530              	.LBE727:
 531              	.LBB732:
 532              	.LBB733:
 533              		.loc 1 654 0
 534 007c 564B     		ldr	r3, .L83+12
 535 007e 7B60     		str	r3, [r7, #4]
 536              	.LBE733:
 537              		.loc 1 652 0
 538 0080 B8F1000F 		cmp	r8, #0
 539 0084 20D0     		beq	.L39
 540              	.LBB742:
 541              		.loc 1 654 0
 542 0086 03EB0010 		add	r0, r3, r0, lsl #4
 543 008a C368     		ldr	r3, [r0, #12]
 544 008c 002B     		cmp	r3, #0
 545 008e 44D0     		beq	.L40
 546              	.LBB734:
 547              		.loc 1 656 0
 548 0090 4268     		ldr	r2, [r0, #4]
 549              		.loc 1 658 0
 550 0092 DAF80410 		ldr	r1, [r10, #4]
 551              		.loc 1 656 0
 552 0096 0732     		adds	r2, r2, #7
 553 0098 22F00702 		bic	r2, r2, #7
 554              		.loc 1 669 0
 555 009c EA46     		mov	r10, sp
 556              	.LVL57:
 557              		.loc 1 656 0
 558 009e ADEB020D 		sub	sp, sp, r2
 559              		.loc 1 658 0
 560 00a2 6A46     		mov	r2, sp
 561              		.loc 1 656 0
 562 00a4 6C46     		mov	r4, sp
 563              	.LVL58:
 564              		.loc 1 658 0
 565 00a6 9847     		blx	r3
 566              	.LVL59:
 567 00a8 0028     		cmp	r0, #0
 568 00aa 3ED1     		bne	.L79
 569              		.loc 1 668 0
 570 00ac 3368     		ldr	r3, [r6]
ARM GAS  /tmp/ccwidgtl.s 			page 11


 571 00ae 4B49     		ldr	r1, .L83+16
 572 00b0 5B68     		ldr	r3, [r3, #4]
 573 00b2 3046     		mov	r0, r6
 574 00b4 2222     		movs	r2, #34
 575 00b6 9847     		blx	r3
 576              	.LVL60:
 577              	.L48:
 578 00b8 4446     		mov	r4, r8
 579              	.LVL61:
 580 00ba D546     		mov	sp, r10
 581              	.LVL62:
 582 00bc A7E7     		b	.L75
 583              	.LVL63:
 584              	.L33:
 585              	.LBE734:
 586              	.LBE742:
 587              	.LBE732:
 588              	.LBE726:
 589              	.LBE725:
 590              	.LBE724:
 591              	.LBB760:
 592              	.LBB720:
 593              	.LBB718:
 594              	.LBB716:
 595              	.LBB714:
 596              	.LBB712:
 597              		.loc 1 558 0
 598 00be 9A68     		ldr	r2, [r3, #8]
 599 00c0 002A     		cmp	r2, #0
 600 00c2 C7D0     		beq	.L32
 601              	.L59:
 602              	.LBE712:
 603              	.LBE714:
 604              	.LBE716:
 605              	.LBE718:
 606              	.LBE720:
 607              	.LBE760:
 608              	.LBB761:
 609              	.LBB759:
 610              	.LBB758:
 611              	.LBB756:
 612              	.LBB731:
 613              		.loc 1 52 0
 614 00c4 9B68     		ldr	r3, [r3, #8]
 615 00c6 D8E7     		b	.L37
 616              	.L39:
 617              	.LBE731:
 618              	.LBE756:
 619              	.LBB757:
 620              	.LBB743:
 621              		.loc 1 679 0
 622 00c8 03EB0010 		add	r0, r3, r0, lsl #4
 623              		.loc 1 681 0
 624 00cc DAF80410 		ldr	r1, [r10, #4]
 625              		.loc 1 679 0
 626 00d0 4268     		ldr	r2, [r0, #4]
 627 00d2 0732     		adds	r2, r2, #7
ARM GAS  /tmp/ccwidgtl.s 			page 12


 628 00d4 22F00702 		bic	r2, r2, #7
 629              		.loc 1 692 0
 630 00d8 EA46     		mov	r10, sp
 631              	.LVL64:
 632              		.loc 1 679 0
 633 00da ADEB020D 		sub	sp, sp, r2
 634              		.loc 1 681 0
 635 00de 6A46     		mov	r2, sp
 636              		.loc 1 679 0
 637 00e0 EB46     		mov	fp, sp
 638              	.LVL65:
 639              		.loc 1 681 0
 640 00e2 FFF7FEFF 		bl	_Z20paramParser_tunerHexPK24Param_DataTypeDefinitionPKcPv
 641              	.LVL66:
 642 00e6 38B9     		cbnz	r0, .L80
 643              		.loc 1 690 0
 644 00e8 3368     		ldr	r3, [r6]
 645 00ea 3D49     		ldr	r1, .L83+20
 646 00ec 5B68     		ldr	r3, [r3, #4]
 647 00ee 3046     		mov	r0, r6
 648 00f0 2E22     		movs	r2, #46
 649 00f2 9847     		blx	r3
 650              	.LVL67:
 651 00f4 D546     		mov	sp, r10
 652 00f6 8AE7     		b	.L75
 653              	.L80:
 654              	.LVL68:
 655              	.LBB744:
 656              	.LBB745:
 657              	.LBB746:
 658              	.LBB747:
 659              		.loc 1 47 0
 660 00f8 2A68     		ldr	r2, [r5]
 661 00fa 99F80010 		ldrb	r1, [r9]	@ zero_extendqisi2
 662              	.LVL69:
 663              		.loc 1 48 0
 664 00fe AA42     		cmp	r2, r5
 665 0100 08D0     		beq	.L51
 666              		.loc 1 50 0
 667 0102 11B9     		cbnz	r1, .L53
 668 0104 40E0     		b	.L52
 669              	.LVL70:
 670              	.L55:
 671 0106 4145     		cmp	r1, r8
 672 0108 3ED0     		beq	.L52
 673              	.LVL71:
 674              	.L53:
 675              	.LBB748:
 676              	.LBB749:
 677              		.loc 2 170 0
 678 010a 1268     		ldr	r2, [r2]
 679              	.LVL72:
 680              	.LBE749:
 681              	.LBE748:
 682              		.loc 1 48 0
 683 010c AA42     		cmp	r2, r5
 684              		.loc 1 55 0
ARM GAS  /tmp/ccwidgtl.s 			page 13


 685 010e 08F10108 		add	r8, r8, #1
 686              	.LVL73:
 687              		.loc 1 48 0
 688 0112 F8D1     		bne	.L55
 689              	.LVL74:
 690              	.L51:
 691              	.LBE747:
 692              	.LBE746:
 693              		.loc 1 450 0
 694 0114 0023     		movs	r3, #0
 695 0116 1B68     		ldr	r3, [r3]
 696 0118 FFDE     		.inst	0xdeff
 697              	.LVL75:
 698              	.L40:
 699              	.LBE745:
 700              	.LBE744:
 701              	.LBE743:
 702              	.LBB754:
 703              		.loc 1 673 0
 704 011a 3368     		ldr	r3, [r6]
 705 011c 3149     		ldr	r1, .L83+24
 706 011e 5B68     		ldr	r3, [r3, #4]
 707 0120 3046     		mov	r0, r6
 708 0122 2D22     		movs	r2, #45
 709 0124 4446     		mov	r4, r8
 710 0126 9847     		blx	r3
 711              	.LVL76:
 712 0128 71E7     		b	.L75
 713              	.LVL77:
 714              	.L79:
 715              	.LBB741:
 716              	.LBB735:
 717              	.LBB736:
 718              	.LBB737:
 719              	.LBB738:
 720              		.loc 1 47 0
 721 012a 2A68     		ldr	r2, [r5]
 722 012c 99F80000 		ldrb	r0, [r9]	@ zero_extendqisi2
 723              	.LVL78:
 724              		.loc 1 48 0
 725 0130 AA42     		cmp	r2, r5
 726 0132 EFD0     		beq	.L51
 727              		.loc 1 50 0
 728 0134 48B1     		cbz	r0, .L43
 729              		.loc 1 46 0
 730 0136 0021     		movs	r1, #0
 731 0138 01E0     		b	.L44
 732              	.LVL79:
 733              	.L46:
 734              		.loc 1 50 0
 735 013a 8142     		cmp	r1, r0
 736 013c 05D0     		beq	.L43
 737              	.LVL80:
 738              	.L44:
 739              	.LBB739:
 740              	.LBB740:
 741              		.loc 2 170 0
ARM GAS  /tmp/ccwidgtl.s 			page 14


 742 013e 1268     		ldr	r2, [r2]
 743              	.LVL81:
 744              	.LBE740:
 745              	.LBE739:
 746              		.loc 1 48 0
 747 0140 AA42     		cmp	r2, r5
 748              		.loc 1 55 0
 749 0142 01F10101 		add	r1, r1, #1
 750              	.LVL82:
 751              		.loc 1 48 0
 752 0146 F8D1     		bne	.L46
 753 0148 E4E7     		b	.L51
 754              	.LVL83:
 755              	.L43:
 756              		.loc 1 52 0
 757 014a 9568     		ldr	r5, [r2, #8]
 758              	.LVL84:
 759              	.LBE738:
 760              	.LBE737:
 761              		.loc 1 444 0
 762 014c 002D     		cmp	r5, #0
 763 014e E1D0     		beq	.L51
 764              		.loc 1 445 0
 765 0150 2A69     		ldr	r2, [r5, #16]
 766 0152 12B1     		cbz	r2, .L49
 767              		.loc 1 447 0
 768 0154 2046     		mov	r0, r4
 769 0156 9047     		blx	r2
 770              	.LVL85:
 771 0158 78B1     		cbz	r0, .L81
 772              	.L49:
 773              		.loc 1 450 0
 774 015a 2A79     		ldrb	r2, [r5, #4]	@ zero_extendqisi2
 775 015c 7B68     		ldr	r3, [r7, #4]
 776 015e 2868     		ldr	r0, [r5]
 777 0160 03EB0213 		add	r3, r3, r2, lsl #4
 778 0164 2146     		mov	r1, r4
 779 0166 5A68     		ldr	r2, [r3, #4]
 780 0168 FFF7FEFF 		bl	memcpy
 781              	.LVL86:
 782              	.LBE736:
 783              	.LBE735:
 784              		.loc 1 662 0
 785 016c 3368     		ldr	r3, [r6]
 786 016e 1E49     		ldr	r1, .L83+28
 787 0170 5B68     		ldr	r3, [r3, #4]
 788 0172 3046     		mov	r0, r6
 789 0174 0A22     		movs	r2, #10
 790 0176 9847     		blx	r3
 791              	.LVL87:
 792 0178 9EE7     		b	.L48
 793              	.LVL88:
 794              	.L81:
 795              		.loc 1 664 0
 796 017a 3368     		ldr	r3, [r6]
 797 017c 1B49     		ldr	r1, .L83+32
 798 017e 5B68     		ldr	r3, [r3, #4]
ARM GAS  /tmp/ccwidgtl.s 			page 15


 799 0180 3046     		mov	r0, r6
 800 0182 1E22     		movs	r2, #30
 801 0184 9847     		blx	r3
 802              	.LVL89:
 803 0186 97E7     		b	.L48
 804              	.LVL90:
 805              	.L52:
 806              	.LBE741:
 807              	.LBE754:
 808              	.LBB755:
 809              	.LBB753:
 810              	.LBB752:
 811              	.LBB751:
 812              	.LBB750:
 813              		.loc 1 52 0
 814 0188 9568     		ldr	r5, [r2, #8]
 815              	.LVL91:
 816              	.LBE750:
 817              	.LBE751:
 818              		.loc 1 444 0
 819 018a 002D     		cmp	r5, #0
 820 018c C2D0     		beq	.L51
 821              		.loc 1 445 0
 822 018e 2A69     		ldr	r2, [r5, #16]
 823 0190 12B1     		cbz	r2, .L58
 824              		.loc 1 447 0
 825 0192 5846     		mov	r0, fp
 826 0194 9047     		blx	r2
 827              	.LVL92:
 828 0196 80B1     		cbz	r0, .L82
 829              	.L58:
 830              		.loc 1 450 0
 831 0198 2A79     		ldrb	r2, [r5, #4]	@ zero_extendqisi2
 832 019a 7B68     		ldr	r3, [r7, #4]
 833 019c 2868     		ldr	r0, [r5]
 834 019e 03EB0213 		add	r3, r3, r2, lsl #4
 835 01a2 5946     		mov	r1, fp
 836 01a4 5A68     		ldr	r2, [r3, #4]
 837 01a6 FFF7FEFF 		bl	memcpy
 838              	.LVL93:
 839              	.LBE752:
 840              	.LBE753:
 841              		.loc 1 684 0
 842 01aa 3368     		ldr	r3, [r6]
 843 01ac 0E49     		ldr	r1, .L83+28
 844 01ae 5B68     		ldr	r3, [r3, #4]
 845 01b0 3046     		mov	r0, r6
 846 01b2 0A22     		movs	r2, #10
 847 01b4 9847     		blx	r3
 848              	.LVL94:
 849 01b6 D546     		mov	sp, r10
 850 01b8 29E7     		b	.L75
 851              	.LVL95:
 852              	.L82:
 853              		.loc 1 686 0
 854 01ba 3368     		ldr	r3, [r6]
 855 01bc 0B49     		ldr	r1, .L83+32
ARM GAS  /tmp/ccwidgtl.s 			page 16


 856 01be 5B68     		ldr	r3, [r3, #4]
 857 01c0 3046     		mov	r0, r6
 858 01c2 1E22     		movs	r2, #30
 859 01c4 9847     		blx	r3
 860              	.LVL96:
 861 01c6 D546     		mov	sp, r10
 862 01c8 21E7     		b	.L75
 863              	.L84:
 864 01ca 00BF     		.align	2
 865              	.L83:
 866 01cc 70000000 		.word	.LANCHOR1+112
 867 01d0 00000000 		.word	.LANCHOR2
 868 01d4 00000000 		.word	.LANCHOR8
 869 01d8 00000000 		.word	.LANCHOR1
 870 01dc 00000000 		.word	.LANCHOR5
 871 01e0 00000000 		.word	.LANCHOR7
 872 01e4 00000000 		.word	.LANCHOR6
 873 01e8 00000000 		.word	.LANCHOR3
 874 01ec 00000000 		.word	.LANCHOR4
 875 01f0 00000000 		.word	.LANCHOR0
 876              	.LBE755:
 877              	.LBE757:
 878              	.LBE758:
 879              	.LBE759:
 880              	.LBE761:
 881              		.cfi_endproc
 882              	.LFE1151:
 883              		.size	_ZL18Param_ShellCmd_setP20BaseSequentialStreamiPPcb, .-_ZL18Param_ShellCmd_setP20BaseSequent
 884              		.section	.text._Z16Param_getDefByIDj,"ax",%progbits
 885              		.align	1
 886              		.p2align 2,,3
 887              		.global	_Z16Param_getDefByIDj
 888              		.syntax unified
 889              		.thumb
 890              		.thumb_func
 891              		.fpu fpv4-sp-d16
 892              		.type	_Z16Param_getDefByIDj, %function
 893              	_Z16Param_getDefByIDj:
 894              	.LFB1126:
 895              		.loc 1 45 0
 896              		.cfi_startproc
 897              		@ args = 0, pretend = 0, frame = 0
 898              		@ frame_needed = 0, uses_anonymous_args = 0
 899              		@ link register save eliminated.
 900              	.LVL97:
 901              		.loc 1 47 0
 902 0000 0849     		ldr	r1, .L95
 903 0002 0B68     		ldr	r3, [r1]
 904              	.LVL98:
 905              		.loc 1 48 0
 906 0004 8B42     		cmp	r3, r1
 907 0006 09D0     		beq	.L90
 908              		.loc 1 50 0
 909 0008 50B1     		cbz	r0, .L87
 910              		.loc 1 46 0
 911 000a 0022     		movs	r2, #0
 912 000c 01E0     		b	.L88
ARM GAS  /tmp/ccwidgtl.s 			page 17


 913              	.LVL99:
 914              	.L89:
 915              		.loc 1 50 0
 916 000e 9042     		cmp	r0, r2
 917 0010 06D0     		beq	.L87
 918              	.LVL100:
 919              	.L88:
 920              	.LBB762:
 921              	.LBB763:
 922              		.loc 2 170 0
 923 0012 1B68     		ldr	r3, [r3]
 924              	.LVL101:
 925              	.LBE763:
 926              	.LBE762:
 927              		.loc 1 48 0
 928 0014 8B42     		cmp	r3, r1
 929              		.loc 1 55 0
 930 0016 02F10102 		add	r2, r2, #1
 931              	.LVL102:
 932              		.loc 1 48 0
 933 001a F8D1     		bne	.L89
 934              	.LVL103:
 935              	.L90:
 936              		.loc 1 57 0
 937 001c 0020     		movs	r0, #0
 938              	.LVL104:
 939              		.loc 1 58 0
 940 001e 7047     		bx	lr
 941              	.LVL105:
 942              	.L87:
 943              		.loc 1 52 0
 944 0020 9868     		ldr	r0, [r3, #8]
 945              	.LVL106:
 946 0022 7047     		bx	lr
 947              	.L96:
 948              		.align	2
 949              	.L95:
 950 0024 00000000 		.word	.LANCHOR2
 951              		.cfi_endproc
 952              	.LFE1126:
 953              		.size	_Z16Param_getDefByIDj, .-_Z16Param_getDefByIDj
 954              		.section	.text._Z9Param_addRK16Param_Definition,"ax",%progbits
 955              		.align	1
 956              		.p2align 2,,3
 957              		.global	_Z9Param_addRK16Param_Definition
 958              		.syntax unified
 959              		.thumb
 960              		.thumb_func
 961              		.fpu fpv4-sp-d16
 962              		.type	_Z9Param_addRK16Param_Definition, %function
 963              	_Z9Param_addRK16Param_Definition:
 964              	.LFB1132:
 965              		.loc 1 219 0
 966              		.cfi_startproc
 967              		@ args = 0, pretend = 0, frame = 8
 968              		@ frame_needed = 0, uses_anonymous_args = 0
 969              	.LVL107:
ARM GAS  /tmp/ccwidgtl.s 			page 18


 970 0000 2DE9F04F 		push	{r4, r5, r6, r7, r8, r9, r10, fp, lr}
 971              		.cfi_def_cfa_offset 36
 972              		.cfi_offset 4, -36
 973              		.cfi_offset 5, -32
 974              		.cfi_offset 6, -28
 975              		.cfi_offset 7, -24
 976              		.cfi_offset 8, -20
 977              		.cfi_offset 9, -16
 978              		.cfi_offset 10, -12
 979              		.cfi_offset 11, -8
 980              		.cfi_offset 14, -4
 981              		.loc 1 220 0
 982 0004 D0F808A0 		ldr	r10, [r0, #8]
 983              		.loc 1 219 0
 984 0008 83B0     		sub	sp, sp, #12
 985              		.cfi_def_cfa_offset 48
 986              		.loc 1 219 0
 987 000a 0190     		str	r0, [sp, #4]
 988              		.loc 1 220 0
 989 000c BAF1000F 		cmp	r10, #0
 990 0010 00F08480 		beq	.L148
 991              	.LVL108:
 992              	.LBB796:
 993              	.LBB797:
 994              		.loc 1 132 0
 995 0014 5046     		mov	r0, r10
 996              	.LVL109:
 997 0016 FFF7FEFF 		bl	strlen
 998              	.LVL110:
 999              		.loc 1 133 0
 1000 001a 019B     		ldr	r3, [sp, #4]
 1001 001c D3F81880 		ldr	r8, [r3, #24]
 1002              		.loc 1 132 0
 1003 0020 0446     		mov	r4, r0
 1004              	.LVL111:
 1005              		.loc 1 133 0
 1006 0022 B8F1000F 		cmp	r8, #0
 1007 0026 03D0     		beq	.L99
 1008              		.loc 1 134 0
 1009 0028 4046     		mov	r0, r8
 1010              	.LVL112:
 1011 002a FFF7FEFF 		bl	strlen
 1012              	.LVL113:
 1013 002e 0444     		add	r4, r4, r0
 1014              	.LVL114:
 1015              	.L99:
 1016              	.LBE797:
 1017              	.LBE796:
 1018              		.loc 1 223 0
 1019 0030 002C     		cmp	r4, #0
 1020 0032 70D0     		beq	.L149
 1021              		.loc 1 225 0
 1022 0034 FF2C     		cmp	r4, #255
 1023 0036 6BD8     		bhi	.L150
 1024              	.LVL115:
 1025              	.LBB798:
 1026              		.loc 1 227 0
ARM GAS  /tmp/ccwidgtl.s 			page 19


 1027 0038 DFF8E890 		ldr	r9, .L155
 1028 003c D9F800B0 		ldr	fp, [r9]
 1029              	.LVL116:
 1030 0040 CB45     		cmp	fp, r9
 1031 0042 2CD0     		beq	.L102
 1032              	.L116:
 1033 0044 DBF808C0 		ldr	ip, [fp, #8]
 1034              	.LVL117:
 1035              	.LBB799:
 1036              	.LBB800:
 1037              		.loc 1 146 0
 1038 0048 DCF80840 		ldr	r4, [ip, #8]
 1039              	.LVL118:
 1040              		.loc 1 148 0
 1041 004c 1CB3     		cbz	r4, .L103
 1042 004e 2378     		ldrb	r3, [r4]	@ zero_extendqisi2
 1043 0050 B8F1000F 		cmp	r8, #0
 1044 0054 4BD0     		beq	.L117
 1045              		.loc 1 143 0
 1046 0056 0025     		movs	r5, #0
 1047              		.loc 1 142 0
 1048 0058 2F46     		mov	r7, r5
 1049              		.loc 1 141 0
 1050 005a 2846     		mov	r0, r5
 1051              		.loc 1 140 0
 1052 005c 2946     		mov	r1, r5
 1053              		.loc 1 148 0
 1054 005e 5646     		mov	r6, r10
 1055              	.LVL119:
 1056              	.L111:
 1057              		.loc 1 154 0
 1058 0060 725C     		ldrb	r2, [r6, r1]	@ zero_extendqisi2
 1059 0062 7AB9     		cbnz	r2, .L151
 1060              	.L105:
 1061 0064 B3B9     		cbnz	r3, .L109
 1062 0066 002F     		cmp	r7, #0
 1063 0068 35D1     		bne	.L147
 1064              		.loc 1 166 0
 1065 006a 1946     		mov	r1, r3
 1066              	.LVL120:
 1067              		.loc 1 154 0
 1068 006c 4646     		mov	r6, r8
 1069              	.LVL121:
 1070              		.loc 1 164 0
 1071 006e 0127     		movs	r7, #1
 1072              	.LVL122:
 1073              	.L108:
 1074              		.loc 1 172 0
 1075 0070 8DB9     		cbnz	r5, .L103
 1076 0072 DCF81840 		ldr	r4, [ip, #24]
 1077              	.LVL123:
 1078 0076 74B1     		cbz	r4, .L103
 1079              		.loc 1 154 0
 1080 0078 725C     		ldrb	r2, [r6, r1]	@ zero_extendqisi2
 1081 007a 2378     		ldrb	r3, [r4]	@ zero_extendqisi2
 1082              		.loc 1 174 0
 1083 007c 0125     		movs	r5, #1
ARM GAS  /tmp/ccwidgtl.s 			page 20


 1084              	.LVL124:
 1085              		.loc 1 176 0
 1086 007e 0020     		movs	r0, #0
 1087              	.LVL125:
 1088              		.loc 1 154 0
 1089 0080 002A     		cmp	r2, #0
 1090 0082 EFD0     		beq	.L105
 1091              	.L151:
 1092              		.loc 1 169 0
 1093 0084 002B     		cmp	r3, #0
 1094 0086 F3D0     		beq	.L108
 1095              		.loc 1 181 0
 1096 0088 9A42     		cmp	r2, r3
 1097 008a 04D1     		bne	.L103
 1098              		.loc 1 184 0
 1099 008c 0130     		adds	r0, r0, #1
 1100              	.LVL126:
 1101              		.loc 1 183 0
 1102 008e 0131     		adds	r1, r1, #1
 1103              	.LVL127:
 1104 0090 235C     		ldrb	r3, [r4, r0]	@ zero_extendqisi2
 1105 0092 E5E7     		b	.L111
 1106              	.L109:
 1107              		.loc 1 162 0
 1108 0094 3FB3     		cbz	r7, .L152
 1109              	.LVL128:
 1110              	.L103:
 1111              	.LBE800:
 1112              	.LBE799:
 1113              	.LBB803:
 1114              	.LBB804:
 1115              		.loc 2 162 0 discriminator 3
 1116 0096 DBF800B0 		ldr	fp, [fp]
 1117              	.LVL129:
 1118              	.LBE804:
 1119              	.LBE803:
 1120              		.loc 1 227 0 discriminator 3
 1121 009a CB45     		cmp	fp, r9
 1122 009c D2D1     		bne	.L116
 1123              	.LVL130:
 1124              	.L102:
 1125              	.LBE798:
 1126              	.LBB807:
 1127              	.LBB808:
 1128              	.LBB809:
 1129              	.LBB810:
 1130              	.LBB811:
 1131              	.LBB812:
 1132              	.LBB813:
 1133              	.LBB814:
 1134              	.LBB815:
 1135              		.loc 4 111 0
 1136 009e 0C20     		movs	r0, #12
 1137 00a0 FFF7FEFF 		bl	_Znwj
 1138              	.LVL131:
 1139              	.LBE815:
 1140              	.LBE814:
ARM GAS  /tmp/ccwidgtl.s 			page 21


 1141              	.LBE813:
 1142              	.LBE812:
 1143              	.LBB816:
 1144              	.LBB817:
 1145              	.LBB818:
 1146              		.loc 4 136 0
 1147 00a4 019B     		ldr	r3, [sp, #4]
 1148 00a6 8360     		str	r3, [r0, #8]
 1149              	.LVL132:
 1150              	.LBE818:
 1151              	.LBE817:
 1152              	.LBE816:
 1153              	.LBE811:
 1154              	.LBE810:
 1155              		.loc 2 1802 0
 1156 00a8 1E49     		ldr	r1, .L155
 1157 00aa FFF7FEFF 		bl	_ZNSt8__detail15_List_node_base7_M_hookEPS0_
 1158              	.LVL133:
 1159              	.LBB819:
 1160              	.LBB820:
 1161              		.loc 2 354 0
 1162 00ae D9F80830 		ldr	r3, [r9, #8]
 1163 00b2 0133     		adds	r3, r3, #1
 1164 00b4 C9F80830 		str	r3, [r9, #8]
 1165              	.LVL134:
 1166              	.LBE820:
 1167              	.LBE819:
 1168              	.LBE809:
 1169              	.LBE808:
 1170              	.LBE807:
 1171              		.loc 1 233 0
 1172 00b8 03B0     		add	sp, sp, #12
 1173              		.cfi_remember_state
 1174              		.cfi_def_cfa_offset 36
 1175              		@ sp needed
 1176 00ba BDE8F08F 		pop	{r4, r5, r6, r7, r8, r9, r10, fp, pc}
 1177              	.LVL135:
 1178              	.L154:
 1179              		.cfi_restore_state
 1180              	.LBB821:
 1181              	.LBB805:
 1182              	.LBB801:
 1183              		.loc 1 172 0
 1184 00be 002D     		cmp	r5, #0
 1185 00c0 E9D1     		bne	.L103
 1186 00c2 DCF81840 		ldr	r4, [ip, #24]
 1187              	.LVL136:
 1188 00c6 002C     		cmp	r4, #0
 1189 00c8 E5D0     		beq	.L103
 1190 00ca 2378     		ldrb	r3, [r4]	@ zero_extendqisi2
 1191              		.loc 1 174 0
 1192 00cc 0125     		movs	r5, #1
 1193              	.LVL137:
 1194              		.loc 1 176 0
 1195 00ce 0022     		movs	r2, #0
 1196              	.LVL138:
 1197              	.L104:
ARM GAS  /tmp/ccwidgtl.s 			page 22


 1198              		.loc 1 154 0
 1199 00d0 A1B9     		cbnz	r1, .L112
 1200              	.L153:
 1201 00d2 002B     		cmp	r3, #0
 1202 00d4 DFD1     		bne	.L103
 1203              	.LVL139:
 1204              	.L147:
 1205 00d6 1DB9     		cbnz	r5, .L110
 1206              		.loc 1 155 0
 1207 00d8 DCF81830 		ldr	r3, [ip, #24]
 1208 00dc 002B     		cmp	r3, #0
 1209 00de DAD1     		bne	.L103
 1210              	.L110:
 1211              	.LVL140:
 1212              	.LBE801:
 1213              	.LBE805:
 1214              		.loc 1 230 0
 1215 00e0 1148     		ldr	r0, .L155+4
 1216 00e2 FFF7FEFF 		bl	_ZL15Param_DebugHaltPKc
 1217              	.LVL141:
 1218              	.L152:
 1219              	.LBB806:
 1220              	.LBB802:
 1221              		.loc 1 166 0
 1222 00e6 1146     		mov	r1, r2
 1223              	.LVL142:
 1224              		.loc 1 162 0
 1225 00e8 4646     		mov	r6, r8
 1226              	.LVL143:
 1227              		.loc 1 164 0
 1228 00ea 0127     		movs	r7, #1
 1229              	.LVL144:
 1230 00ec B8E7     		b	.L111
 1231              	.LVL145:
 1232              	.L117:
 1233 00ee 9AF80010 		ldrb	r1, [r10]	@ zero_extendqisi2
 1234              		.loc 1 143 0
 1235 00f2 4546     		mov	r5, r8
 1236              		.loc 1 141 0
 1237 00f4 4246     		mov	r2, r8
 1238              		.loc 1 140 0
 1239 00f6 4046     		mov	r0, r8
 1240              	.LVL146:
 1241              		.loc 1 154 0
 1242 00f8 0029     		cmp	r1, #0
 1243 00fa EAD0     		beq	.L153
 1244              	.LVL147:
 1245              	.L112:
 1246              		.loc 1 169 0
 1247 00fc 002B     		cmp	r3, #0
 1248 00fe DED0     		beq	.L154
 1249              		.loc 1 181 0
 1250 0100 9942     		cmp	r1, r3
 1251 0102 C8D1     		bne	.L103
 1252              		.loc 1 183 0
 1253 0104 0130     		adds	r0, r0, #1
 1254              	.LVL148:
ARM GAS  /tmp/ccwidgtl.s 			page 23


 1255              		.loc 1 184 0
 1256 0106 0132     		adds	r2, r2, #1
 1257              	.LVL149:
 1258 0108 1AF80010 		ldrb	r1, [r10, r0]	@ zero_extendqisi2
 1259 010c A35C     		ldrb	r3, [r4, r2]	@ zero_extendqisi2
 1260 010e DFE7     		b	.L104
 1261              	.LVL150:
 1262              	.L150:
 1263              	.LBE802:
 1264              	.LBE806:
 1265              	.LBE821:
 1266              		.loc 1 226 0
 1267 0110 0648     		ldr	r0, .L155+8
 1268 0112 FFF7FEFF 		bl	_ZL15Param_DebugHaltPKc
 1269              	.LVL151:
 1270              	.L149:
 1271              		.loc 1 224 0
 1272 0116 0648     		ldr	r0, .L155+12
 1273 0118 FFF7FEFF 		bl	_ZL15Param_DebugHaltPKc
 1274              	.LVL152:
 1275              	.L148:
 1276              		.loc 1 221 0
 1277 011c 0548     		ldr	r0, .L155+16
 1278              	.LVL153:
 1279 011e FFF7FEFF 		bl	_ZL15Param_DebugHaltPKc
 1280              	.LVL154:
 1281              	.L156:
 1282 0122 00BF     		.align	2
 1283              	.L155:
 1284 0124 00000000 		.word	.LANCHOR2
 1285 0128 A0000000 		.word	.LC4
 1286 012c 6C000000 		.word	.LC3
 1287 0130 28000000 		.word	.LC2
 1288 0134 00000000 		.word	.LC1
 1289              		.cfi_endproc
 1290              	.LFE1132:
 1291              		.size	_Z9Param_addRK16Param_Definition, .-_Z9Param_addRK16Param_Definition
 1292              		.section	.text._Z10Param_InitPK16Param_Definition,"ax",%progbits
 1293              		.align	1
 1294              		.p2align 2,,3
 1295              		.global	_Z10Param_InitPK16Param_Definition
 1296              		.syntax unified
 1297              		.thumb
 1298              		.thumb_func
 1299              		.fpu fpv4-sp-d16
 1300              		.type	_Z10Param_InitPK16Param_Definition, %function
 1301              	_Z10Param_InitPK16Param_Definition:
 1302              	.LFB1133:
 1303              		.loc 1 243 0
 1304              		.cfi_startproc
 1305              		@ args = 0, pretend = 0, frame = 0
 1306              		@ frame_needed = 0, uses_anonymous_args = 0
 1307              	.LVL155:
 1308              	.LBB822:
 1309              		.loc 1 244 0
 1310 0000 0368     		ldr	r3, [r0]
 1311 0002 73B1     		cbz	r3, .L165
ARM GAS  /tmp/ccwidgtl.s 			page 24


 1312              	.LBE822:
 1313              		.loc 1 243 0
 1314 0004 10B5     		push	{r4, lr}
 1315              		.cfi_def_cfa_offset 8
 1316              		.cfi_offset 4, -8
 1317              		.cfi_offset 14, -4
 1318 0006 0446     		mov	r4, r0
 1319              	.LVL156:
 1320              	.L159:
 1321              	.LBB823:
 1322              		.loc 1 246 0 discriminator 2
 1323 0008 2046     		mov	r0, r4
 1324 000a FFF7FEFF 		bl	_Z9Param_addRK16Param_Definition
 1325              	.LVL157:
 1326              		.loc 1 244 0 discriminator 2
 1327 000e 54F81C3F 		ldr	r3, [r4, #28]!
 1328 0012 002B     		cmp	r3, #0
 1329 0014 F8D1     		bne	.L159
 1330              	.LBE823:
 1331              		.loc 1 248 0
 1332 0016 0549     		ldr	r1, .L168
 1333 0018 0320     		movs	r0, #3
 1334              		.loc 1 249 0
 1335 001a BDE81040 		pop	{r4, lr}
 1336              		.cfi_restore 14
 1337              		.cfi_restore 4
 1338              		.cfi_def_cfa_offset 0
 1339              		.loc 1 248 0
 1340 001e FFF7FEBF 		b	log_msg
 1341              	.LVL158:
 1342              	.L165:
 1343 0022 0249     		ldr	r1, .L168
 1344 0024 0320     		movs	r0, #3
 1345              	.LVL159:
 1346 0026 FFF7FEBF 		b	log_msg
 1347              	.LVL160:
 1348              	.L169:
 1349 002a 00BF     		.align	2
 1350              	.L168:
 1351 002c 00000000 		.word	.LC5
 1352              		.cfi_endproc
 1353              	.LFE1133:
 1354              		.size	_Z10Param_InitPK16Param_Definition, .-_Z10Param_InitPK16Param_Definition
 1355              		.section	.text._Z10Param_Savev,"ax",%progbits
 1356              		.align	1
 1357              		.p2align 2,,3
 1358              		.global	_Z10Param_Savev
 1359              		.syntax unified
 1360              		.thumb
 1361              		.thumb_func
 1362              		.fpu fpv4-sp-d16
 1363              		.type	_Z10Param_Savev, %function
 1364              	_Z10Param_Savev:
 1365              	.LFB1134:
 1366              		.loc 1 258 0
 1367              		.cfi_startproc
 1368              		@ args = 0, pretend = 0, frame = 8
ARM GAS  /tmp/ccwidgtl.s 			page 25


 1369              		@ frame_needed = 0, uses_anonymous_args = 0
 1370 0000 2DE9F043 		push	{r4, r5, r6, r7, r8, r9, lr}
 1371              		.cfi_def_cfa_offset 28
 1372              		.cfi_offset 4, -28
 1373              		.cfi_offset 5, -24
 1374              		.cfi_offset 6, -20
 1375              		.cfi_offset 7, -16
 1376              		.cfi_offset 8, -12
 1377              		.cfi_offset 9, -8
 1378              		.cfi_offset 14, -4
 1379              		.loc 1 259 0
 1380 0004 3549     		ldr	r1, .L183
 1381              		.loc 1 258 0
 1382 0006 83B0     		sub	sp, sp, #12
 1383              		.cfi_def_cfa_offset 40
 1384              		.loc 1 259 0
 1385 0008 0320     		movs	r0, #3
 1386 000a FFF7FEFF 		bl	log_msg
 1387              	.LVL161:
 1388              	.LBB908:
 1389              		.loc 1 260 0
 1390 000e 1720     		movs	r0, #23
 1391 0010 FFF7FEFF 		bl	Flash_Open
 1392              	.LVL162:
 1393 0014 8046     		mov	r8, r0
 1394 0016 0028     		cmp	r0, #0
 1395 0018 57D0     		beq	.L171
 1396              	.LBE908:
 1397              	.LBB909:
 1398              	.LBB910:
 1399              	.LBB911:
 1400              		.loc 1 262 0
 1401 001a 314E     		ldr	r6, .L183+4
 1402 001c 3568     		ldr	r5, [r6]
 1403              	.LVL163:
 1404 001e B542     		cmp	r5, r6
 1405 0020 3DD0     		beq	.L173
 1406 0022 304F     		ldr	r7, .L183+8
 1407              	.L172:
 1408              	.LBB912:
 1409              		.loc 1 264 0
 1410 0024 D5F80890 		ldr	r9, [r5, #8]
 1411 0028 D9F80830 		ldr	r3, [r9, #8]
 1412              	.LVL164:
 1413              	.LBB913:
 1414              	.LBB914:
 1415              		.loc 1 132 0
 1416 002c 1846     		mov	r0, r3
 1417              		.loc 1 130 0
 1418 002e 5BB1     		cbz	r3, .L174
 1419              		.loc 1 132 0
 1420 0030 FFF7FEFF 		bl	strlen
 1421              	.LVL165:
 1422              		.loc 1 133 0
 1423 0034 D9F81830 		ldr	r3, [r9, #24]
 1424              		.loc 1 132 0
 1425 0038 0446     		mov	r4, r0
ARM GAS  /tmp/ccwidgtl.s 			page 26


 1426              	.LVL166:
 1427              		.loc 1 134 0
 1428 003a 1846     		mov	r0, r3
 1429              	.LVL167:
 1430              		.loc 1 133 0
 1431 003c 002B     		cmp	r3, #0
 1432 003e 42D0     		beq	.L182
 1433              		.loc 1 134 0
 1434 0040 FFF7FEFF 		bl	strlen
 1435              	.LVL168:
 1436 0044 2318     		adds	r3, r4, r0
 1437              	.LVL169:
 1438 0046 DBB2     		uxtb	r3, r3
 1439              	.LVL170:
 1440              	.L174:
 1441              	.LBE914:
 1442              	.LBE913:
 1443              		.loc 1 265 0
 1444 0048 0121     		movs	r1, #1
 1445 004a 09F10400 		add	r0, r9, #4
 1446              		.loc 1 264 0
 1447 004e 8DF80730 		strb	r3, [sp, #7]
 1448              		.loc 1 265 0
 1449 0052 FFF7FEFF 		bl	Flash_Append
 1450              	.LVL171:
 1451              		.loc 1 266 0
 1452 0056 AA68     		ldr	r2, [r5, #8]
 1453 0058 1379     		ldrb	r3, [r2, #4]	@ zero_extendqisi2
 1454 005a 1068     		ldr	r0, [r2]
 1455 005c 07EB0313 		add	r3, r7, r3, lsl #4
 1456 0060 5968     		ldr	r1, [r3, #4]
 1457 0062 FFF7FEFF 		bl	Flash_Append
 1458              	.LVL172:
 1459              		.loc 1 267 0
 1460 0066 0121     		movs	r1, #1
 1461 0068 0DF10700 		add	r0, sp, #7
 1462 006c FFF7FEFF 		bl	Flash_Append
 1463              	.LVL173:
 1464              		.loc 1 268 0
 1465 0070 AB68     		ldr	r3, [r5, #8]
 1466 0072 9A69     		ldr	r2, [r3, #24]
 1467 0074 EAB1     		cbz	r2, .L176
 1468              		.loc 1 270 0
 1469 0076 9C68     		ldr	r4, [r3, #8]
 1470 0078 2046     		mov	r0, r4
 1471 007a FFF7FEFF 		bl	strlen
 1472              	.LVL174:
 1473 007e 0146     		mov	r1, r0
 1474 0080 2046     		mov	r0, r4
 1475 0082 FFF7FEFF 		bl	Flash_Append
 1476              	.LVL175:
 1477              		.loc 1 271 0
 1478 0086 AB68     		ldr	r3, [r5, #8]
 1479 0088 9C69     		ldr	r4, [r3, #24]
 1480 008a 2046     		mov	r0, r4
 1481 008c FFF7FEFF 		bl	strlen
 1482              	.LVL176:
ARM GAS  /tmp/ccwidgtl.s 			page 27


 1483 0090 411C     		adds	r1, r0, #1
 1484 0092 2046     		mov	r0, r4
 1485 0094 FFF7FEFF 		bl	Flash_Append
 1486              	.LVL177:
 1487              	.LBE912:
 1488              	.LBB915:
 1489              	.LBB916:
 1490              		.loc 2 170 0
 1491 0098 2D68     		ldr	r5, [r5]
 1492              	.LVL178:
 1493              	.LBE916:
 1494              	.LBE915:
 1495              		.loc 1 262 0
 1496 009a B542     		cmp	r5, r6
 1497 009c C2D1     		bne	.L172
 1498              	.LVL179:
 1499              	.L173:
 1500              	.LBE911:
 1501              		.loc 1 279 0
 1502 009e FFF7FEFF 		bl	Flash_Close
 1503              	.LVL180:
 1504              		.loc 1 280 0
 1505 00a2 1149     		ldr	r1, .L183+12
 1506 00a4 0320     		movs	r0, #3
 1507 00a6 FFF7FEFF 		bl	log_msg
 1508              	.LVL181:
 1509              	.LBE910:
 1510              	.LBE909:
 1511              		.loc 1 285 0
 1512 00aa 4046     		mov	r0, r8
 1513 00ac 03B0     		add	sp, sp, #12
 1514              		.cfi_remember_state
 1515              		.cfi_def_cfa_offset 28
 1516              		@ sp needed
 1517 00ae BDE8F083 		pop	{r4, r5, r6, r7, r8, r9, pc}
 1518              	.LVL182:
 1519              	.L176:
 1520              		.cfi_restore_state
 1521              	.LBB922:
 1522              	.LBB921:
 1523              	.LBB920:
 1524              	.LBB918:
 1525              		.loc 1 275 0
 1526 00b2 9DF80710 		ldrb	r1, [sp, #7]	@ zero_extendqisi2
 1527 00b6 9868     		ldr	r0, [r3, #8]
 1528 00b8 0131     		adds	r1, r1, #1
 1529 00ba FFF7FEFF 		bl	Flash_Append
 1530              	.LVL183:
 1531              	.LBE918:
 1532              	.LBB919:
 1533              	.LBB917:
 1534              		.loc 2 170 0
 1535 00be 2D68     		ldr	r5, [r5]
 1536              	.LVL184:
 1537              	.LBE917:
 1538              	.LBE919:
 1539              		.loc 1 262 0
ARM GAS  /tmp/ccwidgtl.s 			page 28


 1540 00c0 B542     		cmp	r5, r6
 1541 00c2 AFD1     		bne	.L172
 1542 00c4 EBE7     		b	.L173
 1543              	.LVL185:
 1544              	.L182:
 1545 00c6 E3B2     		uxtb	r3, r4
 1546 00c8 BEE7     		b	.L174
 1547              	.LVL186:
 1548              	.L171:
 1549              	.LBE920:
 1550              	.LBE921:
 1551              	.LBE922:
 1552              		.loc 1 283 0
 1553 00ca 0849     		ldr	r1, .L183+16
 1554 00cc 0120     		movs	r0, #1
 1555 00ce FFF7FEFF 		bl	log_msg
 1556              	.LVL187:
 1557              		.loc 1 285 0
 1558 00d2 4046     		mov	r0, r8
 1559 00d4 03B0     		add	sp, sp, #12
 1560              		.cfi_def_cfa_offset 28
 1561              		@ sp needed
 1562 00d6 BDE8F083 		pop	{r4, r5, r6, r7, r8, r9, pc}
 1563              	.L184:
 1564 00da 00BF     		.align	2
 1565              	.L183:
 1566 00dc 00000000 		.word	.LC6
 1567 00e0 00000000 		.word	.LANCHOR2
 1568 00e4 00000000 		.word	.LANCHOR1
 1569 00e8 14000000 		.word	.LC7
 1570 00ec 30000000 		.word	.LC8
 1571              		.cfi_endproc
 1572              	.LFE1134:
 1573              		.size	_Z10Param_Savev, .-_Z10Param_Savev
 1574              		.section	.text._Z13Param_LoadOnePK16Param_Definition,"ax",%progbits
 1575              		.align	1
 1576              		.p2align 2,,3
 1577              		.global	_Z13Param_LoadOnePK16Param_Definition
 1578              		.syntax unified
 1579              		.thumb
 1580              		.thumb_func
 1581              		.fpu fpv4-sp-d16
 1582              		.type	_Z13Param_LoadOnePK16Param_Definition, %function
 1583              	_Z13Param_LoadOnePK16Param_Definition:
 1584              	.LFB1136:
 1585              		.loc 1 296 0
 1586              		.cfi_startproc
 1587              		@ args = 0, pretend = 0, frame = 0
 1588              		@ frame_needed = 0, uses_anonymous_args = 0
 1589              	.LVL188:
 1590 0000 2DE9F84F 		push	{r3, r4, r5, r6, r7, r8, r9, r10, fp, lr}
 1591              		.cfi_def_cfa_offset 40
 1592              		.cfi_offset 3, -40
 1593              		.cfi_offset 4, -36
 1594              		.cfi_offset 5, -32
 1595              		.cfi_offset 6, -28
 1596              		.cfi_offset 7, -24
ARM GAS  /tmp/ccwidgtl.s 			page 29


 1597              		.cfi_offset 8, -20
 1598              		.cfi_offset 9, -16
 1599              		.cfi_offset 10, -12
 1600              		.cfi_offset 11, -8
 1601              		.cfi_offset 14, -4
 1602              		.loc 1 299 0
 1603 0004 2F4B     		ldr	r3, .L223
 1604 0006 1968     		ldr	r1, [r3]
 1605 0008 2F4B     		ldr	r3, .L223+4
 1606              		.loc 1 300 0
 1607 000a 0C78     		ldrb	r4, [r1]	@ zero_extendqisi2
 1608              		.loc 1 299 0
 1609 000c 1960     		str	r1, [r3]
 1610              		.loc 1 300 0
 1611 000e 082C     		cmp	r4, #8
 1612 0010 48D8     		bhi	.L186
 1613 0012 8346     		mov	fp, r0
 1614              		.loc 1 303 0
 1615 0014 90F80480 		ldrb	r8, [r0, #4]	@ zero_extendqisi2
 1616 0018 DFF8B0E0 		ldr	lr, .L223+8
 1617 001c 4FF00009 		mov	r9, #0
 1618 0020 07E0     		b	.L195
 1619              	.LVL189:
 1620              	.L187:
 1621              		.loc 1 314 0
 1622 0022 0332     		adds	r2, r2, #3
 1623 0024 1A44     		add	r2, r2, r3
 1624 0026 1144     		add	r1, r1, r2
 1625 0028 4FF00109 		mov	r9, #1
 1626              		.loc 1 300 0
 1627 002c 0C78     		ldrb	r4, [r1]	@ zero_extendqisi2
 1628 002e 082C     		cmp	r4, #8
 1629 0030 36D8     		bhi	.L220
 1630              	.L195:
 1631              		.loc 1 302 0
 1632 0032 0EEB0413 		add	r3, lr, r4, lsl #4
 1633              		.loc 1 303 0
 1634 0036 A045     		cmp	r8, r4
 1635              		.loc 1 302 0
 1636 0038 5A68     		ldr	r2, [r3, #4]
 1637 003a 01EB0203 		add	r3, r1, r2
 1638 003e 5B78     		ldrb	r3, [r3, #1]	@ zero_extendqisi2
 1639              		.loc 1 303 0
 1640 0040 EFD1     		bne	.L187
 1641              	.LVL190:
 1642              	.LBB925:
 1643              	.LBB926:
 1644              		.loc 1 193 0
 1645 0042 DBF80800 		ldr	r0, [fp, #8]
 1646              	.LVL191:
 1647              		.loc 1 194 0
 1648 0046 0028     		cmp	r0, #0
 1649 0048 EBD0     		beq	.L187
 1650              	.LBE926:
 1651              	.LBE925:
 1652              		.loc 1 307 0
 1653 004a 941C     		adds	r4, r2, #2
ARM GAS  /tmp/ccwidgtl.s 			page 30


 1654              	.LVL192:
 1655              	.LBB929:
 1656              	.LBB927:
 1657              		.loc 1 192 0
 1658 004c 4FF0000C 		mov	ip, #0
 1659 0050 0E5D     		ldrb	r6, [r1, r4]	@ zero_extendqisi2
 1660              	.LBE927:
 1661              	.LBE929:
 1662              		.loc 1 307 0
 1663 0052 0F19     		adds	r7, r1, r4
 1664              	.LBB930:
 1665              	.LBB928:
 1666              		.loc 1 191 0
 1667 0054 E246     		mov	r10, ip
 1668              		.loc 1 190 0
 1669 0056 6546     		mov	r5, ip
 1670              	.LVL193:
 1671              	.L188:
 1672              		.loc 1 198 0
 1673 0058 445D     		ldrb	r4, [r0, r5]	@ zero_extendqisi2
 1674 005a 64B9     		cbnz	r4, .L189
 1675              	.L221:
 1676 005c AEB9     		cbnz	r6, .L190
 1677 005e BCF1000F 		cmp	ip, #0
 1678 0062 22D1     		bne	.L193
 1679 0064 DBF81800 		ldr	r0, [fp, #24]
 1680              	.LVL194:
 1681 0068 F8B1     		cbz	r0, .L193
 1682              		.loc 1 206 0
 1683 006a 3546     		mov	r5, r6
 1684              	.LVL195:
 1685              		.loc 1 204 0
 1686 006c 4FF0010C 		mov	ip, #1
 1687              	.LVL196:
 1688              		.loc 1 198 0
 1689 0070 445D     		ldrb	r4, [r0, r5]	@ zero_extendqisi2
 1690 0072 002C     		cmp	r4, #0
 1691 0074 F2D0     		beq	.L221
 1692              	.L189:
 1693              		.loc 1 209 0
 1694 0076 002E     		cmp	r6, #0
 1695 0078 D3D0     		beq	.L187
 1696              		.loc 1 211 0
 1697 007a B442     		cmp	r4, r6
 1698 007c D1D1     		bne	.L187
 1699              		.loc 1 214 0
 1700 007e 0AF1010A 		add	r10, r10, #1
 1701              	.LVL197:
 1702              		.loc 1 213 0
 1703 0082 0135     		adds	r5, r5, #1
 1704              	.LVL198:
 1705 0084 17F80A60 		ldrb	r6, [r7, r10]	@ zero_extendqisi2
 1706 0088 E6E7     		b	.L188
 1707              	.L190:
 1708              		.loc 1 202 0
 1709 008a BCF1000F 		cmp	ip, #0
 1710 008e C8D1     		bne	.L187
ARM GAS  /tmp/ccwidgtl.s 			page 31


 1711 0090 DBF81800 		ldr	r0, [fp, #24]
 1712              	.LVL199:
 1713 0094 0028     		cmp	r0, #0
 1714 0096 C4D0     		beq	.L187
 1715              		.loc 1 206 0
 1716 0098 2546     		mov	r5, r4
 1717              	.LVL200:
 1718              		.loc 1 204 0
 1719 009a 4FF0010C 		mov	ip, #1
 1720              	.LVL201:
 1721 009e DBE7     		b	.L188
 1722              	.LVL202:
 1723              	.L220:
 1724 00a0 094B     		ldr	r3, .L223+4
 1725 00a2 1960     		str	r1, [r3]
 1726              	.LVL203:
 1727              	.L186:
 1728              	.LBE928:
 1729              	.LBE930:
 1730              		.loc 1 316 0
 1731 00a4 0020     		movs	r0, #0
 1732              	.L213:
 1733              		.loc 1 317 0
 1734 00a6 BDE8F88F 		pop	{r3, r4, r5, r6, r7, r8, r9, r10, fp, pc}
 1735              	.LVL204:
 1736              	.L193:
 1737 00aa B9F1000F 		cmp	r9, #0
 1738 00ae 06D1     		bne	.L222
 1739              	.L192:
 1740              	.LVL205:
 1741              		.loc 1 309 0
 1742 00b0 0131     		adds	r1, r1, #1
 1743 00b2 DBF80000 		ldr	r0, [fp]
 1744 00b6 FFF7FEFF 		bl	memcpy
 1745              	.LVL206:
 1746              		.loc 1 311 0
 1747 00ba 0120     		movs	r0, #1
 1748 00bc F3E7     		b	.L213
 1749              	.LVL207:
 1750              	.L222:
 1751 00be 024B     		ldr	r3, .L223+4
 1752 00c0 1960     		str	r1, [r3]
 1753 00c2 F5E7     		b	.L192
 1754              	.L224:
 1755              		.align	2
 1756              	.L223:
 1757 00c4 00000000 		.word	.LANCHOR9
 1758 00c8 00000000 		.word	.LANCHOR10
 1759 00cc 00000000 		.word	.LANCHOR1
 1760              		.cfi_endproc
 1761              	.LFE1136:
 1762              		.size	_Z13Param_LoadOnePK16Param_Definition, .-_Z13Param_LoadOnePK16Param_Definition
 1763              		.section	.text._Z13Param_LoadAllv,"ax",%progbits
 1764              		.align	1
 1765              		.p2align 2,,3
 1766              		.global	_Z13Param_LoadAllv
 1767              		.syntax unified
ARM GAS  /tmp/ccwidgtl.s 			page 32


 1768              		.thumb
 1769              		.thumb_func
 1770              		.fpu fpv4-sp-d16
 1771              		.type	_Z13Param_LoadAllv, %function
 1772              	_Z13Param_LoadAllv:
 1773              	.LFB1137:
 1774              		.loc 1 327 0
 1775              		.cfi_startproc
 1776              		@ args = 0, pretend = 0, frame = 0
 1777              		@ frame_needed = 0, uses_anonymous_args = 0
 1778 0000 2DE9F047 		push	{r4, r5, r6, r7, r8, r9, r10, lr}
 1779              		.cfi_def_cfa_offset 32
 1780              		.cfi_offset 4, -32
 1781              		.cfi_offset 5, -28
 1782              		.cfi_offset 6, -24
 1783              		.cfi_offset 7, -20
 1784              		.cfi_offset 8, -16
 1785              		.cfi_offset 9, -12
 1786              		.cfi_offset 10, -8
 1787              		.cfi_offset 14, -4
 1788              		.loc 1 329 0
 1789 0004 2849     		ldr	r1, .L240
 1790 0006 0320     		movs	r0, #3
 1791 0008 FFF7FEFF 		bl	log_msg
 1792              	.LVL208:
 1793              	.LBB931:
 1794              	.LBB932:
 1795              	.LBB933:
 1796              		.loc 1 287 0
 1797 000c 274B     		ldr	r3, .L240+4
 1798 000e 1B68     		ldr	r3, [r3]
 1799              	.LBE933:
 1800              	.LBE932:
 1801              		.loc 1 330 0
 1802 0010 1B78     		ldrb	r3, [r3]	@ zero_extendqisi2
 1803 0012 FF2B     		cmp	r3, #255
 1804 0014 40D0     		beq	.L226
 1805              	.LBB934:
 1806              	.LBB935:
 1807              		.loc 1 333 0
 1808 0016 264F     		ldr	r7, .L240+8
 1809              	.LBE935:
 1810              		.loc 1 332 0
 1811 0018 264E     		ldr	r6, .L240+12
 1812              	.LBB940:
 1813              		.loc 1 333 0
 1814 001a 3C68     		ldr	r4, [r7]
 1815              	.LBE940:
 1816              		.loc 1 332 0
 1817 001c 0023     		movs	r3, #0
 1818              	.LBB941:
 1819              		.loc 1 333 0
 1820 001e BC42     		cmp	r4, r7
 1821              	.LBE941:
 1822              		.loc 1 332 0
 1823 0020 3360     		str	r3, [r6]
 1824              	.LVL209:
ARM GAS  /tmp/ccwidgtl.s 			page 33


 1825              	.LBB942:
 1826              		.loc 1 333 0
 1827 0022 2DD0     		beq	.L227
 1828              		.loc 1 350 0
 1829 0024 DFF89890 		ldr	r9, .L240+24
 1830              		.loc 1 348 0
 1831 0028 DFF898A0 		ldr	r10, .L240+28
 1832              		.loc 1 344 0
 1833 002c DFF89880 		ldr	r8, .L240+32
 1834 0030 05E0     		b	.L232
 1835              	.LVL210:
 1836              	.L239:
 1837              		.loc 1 336 0
 1838 0032 3368     		ldr	r3, [r6]
 1839 0034 0133     		adds	r3, r3, #1
 1840 0036 3360     		str	r3, [r6]
 1841              	.L229:
 1842              	.LVL211:
 1843              	.LBB936:
 1844              	.LBB937:
 1845              		.loc 2 162 0 discriminator 3
 1846 0038 2468     		ldr	r4, [r4]
 1847              	.LVL212:
 1848              	.LBE937:
 1849              	.LBE936:
 1850              		.loc 1 333 0 discriminator 3
 1851 003a BC42     		cmp	r4, r7
 1852 003c 20D0     		beq	.L227
 1853              	.LVL213:
 1854              	.L232:
 1855              		.loc 1 333 0 is_stmt 0
 1856 003e A568     		ldr	r5, [r4, #8]
 1857              	.LVL214:
 1858              		.loc 1 335 0 is_stmt 1
 1859 0040 2846     		mov	r0, r5
 1860 0042 FFF7FEFF 		bl	_Z13Param_LoadOnePK16Param_Definition
 1861              	.LVL215:
 1862 0046 0028     		cmp	r0, #0
 1863 0048 F3D1     		bne	.L239
 1864              		.loc 1 340 0
 1865 004a EB68     		ldr	r3, [r5, #12]
 1866              		.loc 1 344 0
 1867 004c 4146     		mov	r1, r8
 1868 004e 0320     		movs	r0, #3
 1869              		.loc 1 340 0
 1870 0050 002B     		cmp	r3, #0
 1871 0052 F1D0     		beq	.L229
 1872              		.loc 1 342 0
 1873 0054 D5F818C0 		ldr	ip, [r5, #24]
 1874 0058 D5F808E0 		ldr	lr, [r5, #8]
 1875              		.loc 1 344 0
 1876 005c 6346     		mov	r3, ip
 1877 005e 7246     		mov	r2, lr
 1878              		.loc 1 342 0
 1879 0060 BCF1000F 		cmp	ip, #0
 1880 0064 13D0     		beq	.L230
 1881              		.loc 1 344 0
ARM GAS  /tmp/ccwidgtl.s 			page 34


 1882 0066 FFF7FEFF 		bl	log_formatted
 1883              	.LVL216:
 1884              	.L231:
 1885              		.loc 1 350 0
 1886 006a 2B79     		ldrb	r3, [r5, #4]	@ zero_extendqisi2
 1887 006c E968     		ldr	r1, [r5, #12]
 1888 006e 2868     		ldr	r0, [r5]
 1889 0070 09EB0313 		add	r3, r9, r3, lsl #4
 1890 0074 5A68     		ldr	r2, [r3, #4]
 1891 0076 FFF7FEFF 		bl	memcpy
 1892              	.LVL217:
 1893              	.LBB939:
 1894              	.LBB938:
 1895              		.loc 2 162 0
 1896 007a 2468     		ldr	r4, [r4]
 1897              	.LVL218:
 1898              	.LBE938:
 1899              	.LBE939:
 1900              		.loc 1 333 0
 1901 007c BC42     		cmp	r4, r7
 1902 007e DED1     		bne	.L232
 1903              	.LVL219:
 1904              	.L227:
 1905              	.LBE942:
 1906              		.loc 1 354 0
 1907 0080 0D49     		ldr	r1, .L240+16
 1908 0082 0320     		movs	r0, #3
 1909 0084 FFF7FEFF 		bl	log_msg
 1910              	.LVL220:
 1911              		.loc 1 355 0
 1912 0088 3068     		ldr	r0, [r6]
 1913              	.LBE934:
 1914              	.LBE931:
 1915              		.loc 1 362 0
 1916 008a BDE8F087 		pop	{r4, r5, r6, r7, r8, r9, r10, pc}
 1917              	.LVL221:
 1918              	.L230:
 1919              	.LBB945:
 1920              	.LBB944:
 1921              	.LBB943:
 1922              		.loc 1 348 0
 1923 008e 5146     		mov	r1, r10
 1924 0090 0320     		movs	r0, #3
 1925 0092 FFF7FEFF 		bl	log_formatted
 1926              	.LVL222:
 1927 0096 E8E7     		b	.L231
 1928              	.LVL223:
 1929              	.L226:
 1930              	.LBE943:
 1931              	.LBE944:
 1932              		.loc 1 359 0
 1933 0098 0849     		ldr	r1, .L240+20
 1934 009a 0220     		movs	r0, #2
 1935 009c FFF7FEFF 		bl	log_msg
 1936              	.LVL224:
 1937              		.loc 1 360 0
 1938 00a0 0020     		movs	r0, #0
ARM GAS  /tmp/ccwidgtl.s 			page 35


 1939              	.LBE945:
 1940              		.loc 1 362 0
 1941 00a2 BDE8F087 		pop	{r4, r5, r6, r7, r8, r9, r10, pc}
 1942              	.L241:
 1943 00a6 00BF     		.align	2
 1944              	.L240:
 1945 00a8 00000000 		.word	.LC9
 1946 00ac 00000000 		.word	.LANCHOR9
 1947 00b0 00000000 		.word	.LANCHOR2
 1948 00b4 00000000 		.word	.LANCHOR11
 1949 00b8 38000000 		.word	.LC12
 1950 00bc 54000000 		.word	.LC13
 1951 00c0 00000000 		.word	.LANCHOR1
 1952 00c4 28000000 		.word	.LC11
 1953 00c8 14000000 		.word	.LC10
 1954              		.cfi_endproc
 1955              	.LFE1137:
 1956              		.size	_Z13Param_LoadAllv, .-_Z13Param_LoadAllv
 1957              		.section	.text._Z17Param_LoadOneByIDj,"ax",%progbits
 1958              		.align	1
 1959              		.p2align 2,,3
 1960              		.global	_Z17Param_LoadOneByIDj
 1961              		.syntax unified
 1962              		.thumb
 1963              		.thumb_func
 1964              		.fpu fpv4-sp-d16
 1965              		.type	_Z17Param_LoadOneByIDj, %function
 1966              	_Z17Param_LoadOneByIDj:
 1967              	.LFB1138:
 1968              		.loc 1 371 0
 1969              		.cfi_startproc
 1970              		@ args = 0, pretend = 0, frame = 0
 1971              		@ frame_needed = 0, uses_anonymous_args = 0
 1972              		@ link register save eliminated.
 1973              	.LVL225:
 1974              	.LBB954:
 1975              	.LBB955:
 1976              		.loc 1 47 0
 1977 0000 0A49     		ldr	r1, .L253
 1978 0002 0B68     		ldr	r3, [r1]
 1979              	.LVL226:
 1980              		.loc 1 48 0
 1981 0004 8B42     		cmp	r3, r1
 1982 0006 09D0     		beq	.L243
 1983              		.loc 1 50 0
 1984 0008 50B1     		cbz	r0, .L244
 1985              		.loc 1 46 0
 1986 000a 0022     		movs	r2, #0
 1987 000c 01E0     		b	.L245
 1988              	.LVL227:
 1989              	.L247:
 1990              		.loc 1 50 0
 1991 000e 9042     		cmp	r0, r2
 1992 0010 06D0     		beq	.L244
 1993              	.LVL228:
 1994              	.L245:
 1995              	.LBB956:
ARM GAS  /tmp/ccwidgtl.s 			page 36


 1996              	.LBB957:
 1997              		.loc 2 170 0
 1998 0012 1B68     		ldr	r3, [r3]
 1999              	.LVL229:
 2000              	.LBE957:
 2001              	.LBE956:
 2002              		.loc 1 48 0
 2003 0014 8B42     		cmp	r3, r1
 2004              		.loc 1 55 0
 2005 0016 02F10102 		add	r2, r2, #1
 2006              	.LVL230:
 2007              		.loc 1 48 0
 2008 001a F8D1     		bne	.L247
 2009              	.LVL231:
 2010              	.L243:
 2011              	.LBE955:
 2012              	.LBE954:
 2013              		.loc 1 376 0
 2014 001c 0020     		movs	r0, #0
 2015 001e 7047     		bx	lr
 2016              	.LVL232:
 2017              	.L244:
 2018              	.LBB959:
 2019              	.LBB958:
 2020              		.loc 1 52 0
 2021 0020 9868     		ldr	r0, [r3, #8]
 2022              	.LVL233:
 2023              	.LBE958:
 2024              	.LBE959:
 2025              		.loc 1 373 0
 2026 0022 0028     		cmp	r0, #0
 2027 0024 FAD0     		beq	.L243
 2028              		.loc 1 374 0
 2029 0026 FFF7FEBF 		b	_Z13Param_LoadOnePK16Param_Definition
 2030              	.LVL234:
 2031              	.L254:
 2032 002a 00BF     		.align	2
 2033              	.L253:
 2034 002c 00000000 		.word	.LANCHOR2
 2035              		.cfi_endproc
 2036              	.LFE1138:
 2037              		.size	_Z17Param_LoadOneByIDj, .-_Z17Param_LoadOneByIDj
 2038              		.section	.text._Z22Param_LoadOneByPointerPv,"ax",%progbits
 2039              		.align	1
 2040              		.p2align 2,,3
 2041              		.global	_Z22Param_LoadOneByPointerPv
 2042              		.syntax unified
 2043              		.thumb
 2044              		.thumb_func
 2045              		.fpu fpv4-sp-d16
 2046              		.type	_Z22Param_LoadOneByPointerPv, %function
 2047              	_Z22Param_LoadOneByPointerPv:
 2048              	.LFB1139:
 2049              		.loc 1 385 0
 2050              		.cfi_startproc
 2051              		@ args = 0, pretend = 0, frame = 0
 2052              		@ frame_needed = 0, uses_anonymous_args = 0
ARM GAS  /tmp/ccwidgtl.s 			page 37


 2053              		@ link register save eliminated.
 2054              	.LVL235:
 2055 0000 10B4     		push	{r4}
 2056              		.cfi_def_cfa_offset 4
 2057              		.cfi_offset 4, -4
 2058              	.LBB960:
 2059              		.loc 1 386 0
 2060 0002 0C4C     		ldr	r4, .L263
 2061 0004 2368     		ldr	r3, [r4]
 2062              	.LVL236:
 2063 0006 A342     		cmp	r3, r4
 2064 0008 0BD0     		beq	.L256
 2065 000a 9A68     		ldr	r2, [r3, #8]
 2066              	.LVL237:
 2067              		.loc 1 388 0
 2068 000c 1168     		ldr	r1, [r2]
 2069 000e 8842     		cmp	r0, r1
 2070 0010 04D1     		bne	.L258
 2071 0012 0AE0     		b	.L257
 2072              	.LVL238:
 2073              	.L259:
 2074              		.loc 1 386 0
 2075 0014 9A68     		ldr	r2, [r3, #8]
 2076              		.loc 1 388 0
 2077 0016 1168     		ldr	r1, [r2]
 2078 0018 8142     		cmp	r1, r0
 2079 001a 06D0     		beq	.L257
 2080              	.LVL239:
 2081              	.L258:
 2082              	.LBB961:
 2083              	.LBB962:
 2084              		.loc 2 162 0
 2085 001c 1B68     		ldr	r3, [r3]
 2086              	.LVL240:
 2087              	.LBE962:
 2088              	.LBE961:
 2089              		.loc 1 386 0
 2090 001e A342     		cmp	r3, r4
 2091 0020 F8D1     		bne	.L259
 2092              	.LVL241:
 2093              	.L256:
 2094              	.LBE960:
 2095              		.loc 1 394 0
 2096 0022 0020     		movs	r0, #0
 2097              	.LVL242:
 2098 0024 5DF8044B 		ldr	r4, [sp], #4
 2099              		.cfi_remember_state
 2100              		.cfi_restore 4
 2101              		.cfi_def_cfa_offset 0
 2102 0028 7047     		bx	lr
 2103              	.LVL243:
 2104              	.L257:
 2105              		.cfi_restore_state
 2106              	.LBB963:
 2107              		.loc 1 390 0
 2108 002a 1046     		mov	r0, r2
 2109              	.LVL244:
ARM GAS  /tmp/ccwidgtl.s 			page 38


 2110              	.LBE963:
 2111              		.loc 1 394 0
 2112 002c 5DF8044B 		ldr	r4, [sp], #4
 2113              		.cfi_restore 4
 2114              		.cfi_def_cfa_offset 0
 2115              	.LBB964:
 2116              		.loc 1 390 0
 2117 0030 FFF7FEBF 		b	_Z13Param_LoadOnePK16Param_Definition
 2118              	.LVL245:
 2119              	.L264:
 2120              		.align	2
 2121              	.L263:
 2122 0034 00000000 		.word	.LANCHOR2
 2123              	.LBE964:
 2124              		.cfi_endproc
 2125              	.LFE1139:
 2126              		.size	_Z22Param_LoadOneByPointerPv, .-_Z22Param_LoadOneByPointerPv
 2127              		.section	.text._Z16Param_setDefaultPK16Param_Definition,"ax",%progbits
 2128              		.align	1
 2129              		.p2align 2,,3
 2130              		.global	_Z16Param_setDefaultPK16Param_Definition
 2131              		.syntax unified
 2132              		.thumb
 2133              		.thumb_func
 2134              		.fpu fpv4-sp-d16
 2135              		.type	_Z16Param_setDefaultPK16Param_Definition, %function
 2136              	_Z16Param_setDefaultPK16Param_Definition:
 2137              	.LFB1140:
 2138              		.loc 1 397 0
 2139              		.cfi_startproc
 2140              		@ args = 0, pretend = 0, frame = 0
 2141              		@ frame_needed = 0, uses_anonymous_args = 0
 2142              	.LVL246:
 2143              		.loc 1 398 0
 2144 0000 C168     		ldr	r1, [r0, #12]
 2145 0002 51B1     		cbz	r1, .L267
 2146              		.loc 1 401 0
 2147 0004 0279     		ldrb	r2, [r0, #4]	@ zero_extendqisi2
 2148              		.loc 1 400 0
 2149 0006 0068     		ldr	r0, [r0]
 2150              	.LVL247:
 2151              		.loc 1 397 0
 2152 0008 08B5     		push	{r3, lr}
 2153              		.cfi_def_cfa_offset 8
 2154              		.cfi_offset 3, -8
 2155              		.cfi_offset 14, -4
 2156              		.loc 1 401 0
 2157 000a 054B     		ldr	r3, .L272
 2158 000c 03EB0213 		add	r3, r3, r2, lsl #4
 2159              		.loc 1 400 0
 2160 0010 5A68     		ldr	r2, [r3, #4]
 2161 0012 FFF7FEFF 		bl	memcpy
 2162              	.LVL248:
 2163              		.loc 1 402 0
 2164 0016 0120     		movs	r0, #1
 2165              		.loc 1 405 0
 2166 0018 08BD     		pop	{r3, pc}
ARM GAS  /tmp/ccwidgtl.s 			page 39


 2167              	.LVL249:
 2168              	.L267:
 2169              		.cfi_def_cfa_offset 0
 2170              		.cfi_restore 3
 2171              		.cfi_restore 14
 2172              		.loc 1 404 0
 2173 001a 0846     		mov	r0, r1
 2174              	.LVL250:
 2175              		.loc 1 405 0
 2176 001c 7047     		bx	lr
 2177              	.L273:
 2178 001e 00BF     		.align	2
 2179              	.L272:
 2180 0020 00000000 		.word	.LANCHOR1
 2181              		.cfi_endproc
 2182              	.LFE1140:
 2183              		.size	_Z16Param_setDefaultPK16Param_Definition, .-_Z16Param_setDefaultPK16Param_Definition
 2184              		.section	.text._Z20Param_setDefaultByIDj,"ax",%progbits
 2185              		.align	1
 2186              		.p2align 2,,3
 2187              		.global	_Z20Param_setDefaultByIDj
 2188              		.syntax unified
 2189              		.thumb
 2190              		.thumb_func
 2191              		.fpu fpv4-sp-d16
 2192              		.type	_Z20Param_setDefaultByIDj, %function
 2193              	_Z20Param_setDefaultByIDj:
 2194              	.LFB1141:
 2195              		.loc 1 416 0
 2196              		.cfi_startproc
 2197              		@ args = 0, pretend = 0, frame = 0
 2198              		@ frame_needed = 0, uses_anonymous_args = 0
 2199              	.LVL251:
 2200 0000 08B5     		push	{r3, lr}
 2201              		.cfi_def_cfa_offset 8
 2202              		.cfi_offset 3, -8
 2203              		.cfi_offset 14, -4
 2204              	.LBB975:
 2205              	.LBB976:
 2206              		.loc 1 47 0
 2207 0002 1049     		ldr	r1, .L287
 2208 0004 0B68     		ldr	r3, [r1]
 2209              	.LVL252:
 2210              		.loc 1 48 0
 2211 0006 8B42     		cmp	r3, r1
 2212 0008 09D0     		beq	.L280
 2213              		.loc 1 50 0
 2214 000a 50B1     		cbz	r0, .L276
 2215              		.loc 1 46 0
 2216 000c 0022     		movs	r2, #0
 2217 000e 01E0     		b	.L277
 2218              	.LVL253:
 2219              	.L279:
 2220              		.loc 1 50 0
 2221 0010 9042     		cmp	r0, r2
 2222 0012 06D0     		beq	.L276
 2223              	.LVL254:
ARM GAS  /tmp/ccwidgtl.s 			page 40


 2224              	.L277:
 2225              	.LBB977:
 2226              	.LBB978:
 2227              		.loc 2 170 0
 2228 0014 1B68     		ldr	r3, [r3]
 2229              	.LVL255:
 2230              	.LBE978:
 2231              	.LBE977:
 2232              		.loc 1 48 0
 2233 0016 8B42     		cmp	r3, r1
 2234              		.loc 1 55 0
 2235 0018 02F10102 		add	r2, r2, #1
 2236              	.LVL256:
 2237              		.loc 1 48 0
 2238 001c F8D1     		bne	.L279
 2239              	.LVL257:
 2240              	.L280:
 2241              	.LBE976:
 2242              	.LBE975:
 2243              		.loc 1 420 0
 2244 001e 0020     		movs	r0, #0
 2245              	.LVL258:
 2246              	.L275:
 2247              		.loc 1 421 0
 2248 0020 08BD     		pop	{r3, pc}
 2249              	.LVL259:
 2250              	.L276:
 2251              	.LBB980:
 2252              	.LBB979:
 2253              		.loc 1 52 0
 2254 0022 9868     		ldr	r0, [r3, #8]
 2255              	.LVL260:
 2256              	.LBE979:
 2257              	.LBE980:
 2258              		.loc 1 418 0
 2259 0024 0028     		cmp	r0, #0
 2260 0026 FBD0     		beq	.L275
 2261              	.LVL261:
 2262              	.LBB981:
 2263              	.LBB982:
 2264              		.loc 1 398 0
 2265 0028 C168     		ldr	r1, [r0, #12]
 2266 002a 49B1     		cbz	r1, .L281
 2267              		.loc 1 401 0
 2268 002c 0279     		ldrb	r2, [r0, #4]	@ zero_extendqisi2
 2269 002e 064B     		ldr	r3, .L287+4
 2270              		.loc 1 400 0
 2271 0030 0068     		ldr	r0, [r0]
 2272              	.LVL262:
 2273              		.loc 1 401 0
 2274 0032 03EB0213 		add	r3, r3, r2, lsl #4
 2275              		.loc 1 400 0
 2276 0036 5A68     		ldr	r2, [r3, #4]
 2277 0038 FFF7FEFF 		bl	memcpy
 2278              	.LVL263:
 2279              		.loc 1 402 0
 2280 003c 0120     		movs	r0, #1
ARM GAS  /tmp/ccwidgtl.s 			page 41


 2281              	.LBE982:
 2282              	.LBE981:
 2283              		.loc 1 421 0
 2284 003e 08BD     		pop	{r3, pc}
 2285              	.LVL264:
 2286              	.L281:
 2287              		.loc 1 420 0
 2288 0040 0846     		mov	r0, r1
 2289              	.LVL265:
 2290              		.loc 1 421 0
 2291 0042 08BD     		pop	{r3, pc}
 2292              	.LVL266:
 2293              	.L288:
 2294              		.align	2
 2295              	.L287:
 2296 0044 00000000 		.word	.LANCHOR2
 2297 0048 00000000 		.word	.LANCHOR1
 2298              		.cfi_endproc
 2299              	.LFE1141:
 2300              		.size	_Z20Param_setDefaultByIDj, .-_Z20Param_setDefaultByIDj
 2301              		.section	.text._Z19Param_setDefaultAllv,"ax",%progbits
 2302              		.align	1
 2303              		.p2align 2,,3
 2304              		.global	_Z19Param_setDefaultAllv
 2305              		.syntax unified
 2306              		.thumb
 2307              		.thumb_func
 2308              		.fpu fpv4-sp-d16
 2309              		.type	_Z19Param_setDefaultAllv, %function
 2310              	_Z19Param_setDefaultAllv:
 2311              	.LFB1142:
 2312              		.loc 1 427 0
 2313              		.cfi_startproc
 2314              		@ args = 0, pretend = 0, frame = 0
 2315              		@ frame_needed = 0, uses_anonymous_args = 0
 2316              	.LVL267:
 2317 0000 70B5     		push	{r4, r5, r6, lr}
 2318              		.cfi_def_cfa_offset 16
 2319              		.cfi_offset 4, -16
 2320              		.cfi_offset 5, -12
 2321              		.cfi_offset 6, -8
 2322              		.cfi_offset 14, -4
 2323              	.LBB992:
 2324              		.loc 1 428 0
 2325 0002 0C4D     		ldr	r5, .L296
 2326 0004 2C68     		ldr	r4, [r5]
 2327              	.LVL268:
 2328 0006 AC42     		cmp	r4, r5
 2329 0008 0ED0     		beq	.L289
 2330              	.LBB993:
 2331              	.LBB994:
 2332              		.loc 1 401 0
 2333 000a 0B4E     		ldr	r6, .L296+4
 2334              	.L290:
 2335              	.LVL269:
 2336              	.LBE994:
 2337              	.LBE993:
ARM GAS  /tmp/ccwidgtl.s 			page 42


 2338              		.loc 1 428 0
 2339 000c A368     		ldr	r3, [r4, #8]
 2340              	.LVL270:
 2341              	.LBB996:
 2342              	.LBB995:
 2343              		.loc 1 398 0
 2344 000e DA68     		ldr	r2, [r3, #12]
 2345              		.loc 1 400 0
 2346 0010 1146     		mov	r1, r2
 2347              		.loc 1 398 0
 2348 0012 52B1     		cbz	r2, .L292
 2349              		.loc 1 401 0
 2350 0014 1A79     		ldrb	r2, [r3, #4]	@ zero_extendqisi2
 2351              		.loc 1 400 0
 2352 0016 1868     		ldr	r0, [r3]
 2353              		.loc 1 401 0
 2354 0018 06EB0213 		add	r3, r6, r2, lsl #4
 2355              	.LVL271:
 2356              		.loc 1 400 0
 2357 001c 5A68     		ldr	r2, [r3, #4]
 2358 001e FFF7FEFF 		bl	memcpy
 2359              	.LVL272:
 2360              	.LBE995:
 2361              	.LBE996:
 2362              	.LBB997:
 2363              	.LBB998:
 2364              		.loc 2 162 0
 2365 0022 2468     		ldr	r4, [r4]
 2366              	.LVL273:
 2367              	.LBE998:
 2368              	.LBE997:
 2369              		.loc 1 428 0
 2370 0024 AC42     		cmp	r4, r5
 2371 0026 F1D1     		bne	.L290
 2372              	.LVL274:
 2373              	.L289:
 2374              	.LBE992:
 2375              		.loc 1 432 0
 2376 0028 70BD     		pop	{r4, r5, r6, pc}
 2377              	.LVL275:
 2378              	.L292:
 2379              	.LBB1001:
 2380              	.LBB1000:
 2381              	.LBB999:
 2382              		.loc 2 162 0
 2383 002a 2468     		ldr	r4, [r4]
 2384              	.LVL276:
 2385              	.LBE999:
 2386              	.LBE1000:
 2387              		.loc 1 428 0
 2388 002c AC42     		cmp	r4, r5
 2389 002e EDD1     		bne	.L290
 2390              	.LBE1001:
 2391              		.loc 1 432 0
 2392 0030 70BD     		pop	{r4, r5, r6, pc}
 2393              	.LVL277:
 2394              	.L297:
ARM GAS  /tmp/ccwidgtl.s 			page 43


 2395 0032 00BF     		.align	2
 2396              	.L296:
 2397 0034 00000000 		.word	.LANCHOR2
 2398 0038 00000000 		.word	.LANCHOR1
 2399              		.cfi_endproc
 2400              	.LFE1142:
 2401              		.size	_Z19Param_setDefaultAllv, .-_Z19Param_setDefaultAllv
 2402              		.section	.text._Z12Param_ModifyhPKv,"ax",%progbits
 2403              		.align	1
 2404              		.p2align 2,,3
 2405              		.global	_Z12Param_ModifyhPKv
 2406              		.syntax unified
 2407              		.thumb
 2408              		.thumb_func
 2409              		.fpu fpv4-sp-d16
 2410              		.type	_Z12Param_ModifyhPKv, %function
 2411              	_Z12Param_ModifyhPKv:
 2412              	.LFB1143:
 2413              		.loc 1 442 0
 2414              		.cfi_startproc
 2415              		@ args = 0, pretend = 0, frame = 0
 2416              		@ frame_needed = 0, uses_anonymous_args = 0
 2417              	.LVL278:
 2418 0000 38B5     		push	{r3, r4, r5, lr}
 2419              		.cfi_def_cfa_offset 16
 2420              		.cfi_offset 3, -16
 2421              		.cfi_offset 4, -12
 2422              		.cfi_offset 5, -8
 2423              		.cfi_offset 14, -4
 2424              	.LBB1002:
 2425              	.LBB1003:
 2426              		.loc 1 47 0
 2427 0002 124C     		ldr	r4, .L313
 2428 0004 2368     		ldr	r3, [r4]
 2429              	.LVL279:
 2430              		.loc 1 48 0
 2431 0006 A342     		cmp	r3, r4
 2432 0008 09D0     		beq	.L299
 2433              		.loc 1 50 0
 2434 000a 58B1     		cbz	r0, .L300
 2435              		.loc 1 46 0
 2436 000c 0022     		movs	r2, #0
 2437 000e 01E0     		b	.L301
 2438              	.LVL280:
 2439              	.L303:
 2440              		.loc 1 50 0
 2441 0010 9042     		cmp	r0, r2
 2442 0012 07D0     		beq	.L300
 2443              	.LVL281:
 2444              	.L301:
 2445              	.LBB1004:
 2446              	.LBB1005:
 2447              		.loc 2 170 0
 2448 0014 1B68     		ldr	r3, [r3]
 2449              	.LVL282:
 2450              	.LBE1005:
 2451              	.LBE1004:
ARM GAS  /tmp/ccwidgtl.s 			page 44


 2452              		.loc 1 48 0
 2453 0016 A342     		cmp	r3, r4
 2454              		.loc 1 55 0
 2455 0018 02F10102 		add	r2, r2, #1
 2456              	.LVL283:
 2457              		.loc 1 48 0
 2458 001c F8D1     		bne	.L303
 2459              	.LVL284:
 2460              	.L299:
 2461              	.LBE1003:
 2462              	.LBE1002:
 2463              		.loc 1 450 0
 2464 001e 0023     		movs	r3, #0
 2465 0020 1B68     		ldr	r3, [r3]
 2466 0022 FFDE     		.inst	0xdeff
 2467              	.LVL285:
 2468              	.L300:
 2469              	.LBB1007:
 2470              	.LBB1006:
 2471              		.loc 1 52 0
 2472 0024 9D68     		ldr	r5, [r3, #8]
 2473              	.LVL286:
 2474              	.LBE1006:
 2475              	.LBE1007:
 2476              		.loc 1 444 0
 2477 0026 002D     		cmp	r5, #0
 2478 0028 F9D0     		beq	.L299
 2479              		.loc 1 445 0
 2480 002a 2B69     		ldr	r3, [r5, #16]
 2481 002c 0C46     		mov	r4, r1
 2482 002e 13B1     		cbz	r3, .L306
 2483              		.loc 1 447 0
 2484 0030 0846     		mov	r0, r1
 2485              	.LVL287:
 2486 0032 9847     		blx	r3
 2487              	.LVL288:
 2488 0034 48B1     		cbz	r0, .L311
 2489              	.L306:
 2490              		.loc 1 450 0
 2491 0036 2A79     		ldrb	r2, [r5, #4]	@ zero_extendqisi2
 2492 0038 054B     		ldr	r3, .L313+4
 2493 003a 2868     		ldr	r0, [r5]
 2494 003c 03EB0213 		add	r3, r3, r2, lsl #4
 2495 0040 2146     		mov	r1, r4
 2496 0042 5A68     		ldr	r2, [r3, #4]
 2497 0044 FFF7FEFF 		bl	memcpy
 2498              	.LVL289:
 2499              		.loc 1 451 0
 2500 0048 0120     		movs	r0, #1
 2501              	.L311:
 2502              		.loc 1 452 0
 2503 004a 38BD     		pop	{r3, r4, r5, pc}
 2504              	.LVL290:
 2505              	.L314:
 2506              		.align	2
 2507              	.L313:
 2508 004c 00000000 		.word	.LANCHOR2
ARM GAS  /tmp/ccwidgtl.s 			page 45


 2509 0050 00000000 		.word	.LANCHOR1
 2510              		.cfi_endproc
 2511              	.LFE1143:
 2512              		.size	_Z12Param_ModifyhPKv, .-_Z12Param_ModifyhPKv
 2513              		.section	.text._Z25Param_Shell_Enumerate_OneP20BaseSequentialStreamjb,"ax",%progbits
 2514              		.align	1
 2515              		.p2align 2,,3
 2516              		.global	_Z25Param_Shell_Enumerate_OneP20BaseSequentialStreamjb
 2517              		.syntax unified
 2518              		.thumb
 2519              		.thumb_func
 2520              		.fpu fpv4-sp-d16
 2521              		.type	_Z25Param_Shell_Enumerate_OneP20BaseSequentialStreamjb, %function
 2522              	_Z25Param_Shell_Enumerate_OneP20BaseSequentialStreamjb:
 2523              	.LFB1145:
 2524              		.loc 1 492 0
 2525              		.cfi_startproc
 2526              		@ args = 0, pretend = 0, frame = 0
 2527              		@ frame_needed = 0, uses_anonymous_args = 0
 2528              	.LVL291:
 2529 0000 2DE9F047 		push	{r4, r5, r6, r7, r8, r9, r10, lr}
 2530              		.cfi_def_cfa_offset 32
 2531              		.cfi_offset 4, -32
 2532              		.cfi_offset 5, -28
 2533              		.cfi_offset 6, -24
 2534              		.cfi_offset 7, -20
 2535              		.cfi_offset 8, -16
 2536              		.cfi_offset 9, -12
 2537              		.cfi_offset 10, -8
 2538              		.cfi_offset 14, -4
 2539              		.loc 1 493 0
 2540 0004 0368     		ldr	r3, [r0]
 2541              		.loc 1 492 0
 2542 0006 82B0     		sub	sp, sp, #8
 2543              		.cfi_def_cfa_offset 40
 2544              		.loc 1 493 0
 2545 0008 5B68     		ldr	r3, [r3, #4]
 2546              		.loc 1 492 0
 2547 000a 0D46     		mov	r5, r1
 2548 000c 1746     		mov	r7, r2
 2549              		.loc 1 493 0
 2550 000e 5149     		ldr	r1, .L366
 2551              	.LVL292:
 2552 0010 0222     		movs	r2, #2
 2553              	.LVL293:
 2554              		.loc 1 492 0
 2555 0012 0446     		mov	r4, r0
 2556              		.loc 1 493 0
 2557 0014 9847     		blx	r3
 2558              	.LVL294:
 2559              	.LBB1034:
 2560              	.LBB1035:
 2561              		.loc 1 47 0
 2562 0016 5049     		ldr	r1, .L366+4
 2563 0018 0B68     		ldr	r3, [r1]
 2564              	.LVL295:
 2565              		.loc 1 48 0
ARM GAS  /tmp/ccwidgtl.s 			page 46


 2566 001a 8B42     		cmp	r3, r1
 2567 001c 09D0     		beq	.L315
 2568              		.loc 1 50 0
 2569 001e 5DB1     		cbz	r5, .L317
 2570              		.loc 1 46 0
 2571 0020 0022     		movs	r2, #0
 2572 0022 01E0     		b	.L318
 2573              	.LVL296:
 2574              	.L320:
 2575              		.loc 1 50 0
 2576 0024 9542     		cmp	r5, r2
 2577 0026 07D0     		beq	.L317
 2578              	.LVL297:
 2579              	.L318:
 2580              	.LBB1036:
 2581              	.LBB1037:
 2582              		.loc 2 170 0
 2583 0028 1B68     		ldr	r3, [r3]
 2584              	.LVL298:
 2585              	.LBE1037:
 2586              	.LBE1036:
 2587              		.loc 1 48 0
 2588 002a 8B42     		cmp	r3, r1
 2589              		.loc 1 55 0
 2590 002c 02F10102 		add	r2, r2, #1
 2591              	.LVL299:
 2592              		.loc 1 48 0
 2593 0030 F8D1     		bne	.L320
 2594              	.LVL300:
 2595              	.L315:
 2596              	.LBE1035:
 2597              	.LBE1034:
 2598              		.loc 1 521 0
 2599 0032 02B0     		add	sp, sp, #8
 2600              		.cfi_remember_state
 2601              		.cfi_def_cfa_offset 32
 2602              		@ sp needed
 2603 0034 BDE8F087 		pop	{r4, r5, r6, r7, r8, r9, r10, pc}
 2604              	.LVL301:
 2605              	.L317:
 2606              		.cfi_restore_state
 2607              	.LBB1039:
 2608              	.LBB1038:
 2609              		.loc 1 52 0
 2610 0038 9E68     		ldr	r6, [r3, #8]
 2611              	.LVL302:
 2612              	.LBE1038:
 2613              	.LBE1039:
 2614              		.loc 1 496 0
 2615 003a 002E     		cmp	r6, #0
 2616 003c F9D0     		beq	.L315
 2617              		.loc 1 498 0
 2618 003e B269     		ldr	r2, [r6, #24]
 2619 0040 B368     		ldr	r3, [r6, #8]
 2620 0042 002A     		cmp	r2, #0
 2621 0044 74D0     		beq	.L321
 2622              		.loc 1 500 0
ARM GAS  /tmp/ccwidgtl.s 			page 47


 2623 0046 0092     		str	r2, [sp]
 2624 0048 4449     		ldr	r1, .L366+8
 2625 004a 2A46     		mov	r2, r5
 2626 004c 2046     		mov	r0, r4
 2627 004e FFF7FEFF 		bl	chprintf
 2628              	.LVL303:
 2629              	.L322:
 2630              		.loc 1 506 0
 2631 0052 3379     		ldrb	r3, [r6, #4]	@ zero_extendqisi2
 2632 0054 DFF81C81 		ldr	r8, .L366+32
 2633 0058 4149     		ldr	r1, .L366+12
 2634 005a 1B01     		lsls	r3, r3, #4
 2635 005c 2046     		mov	r0, r4
 2636 005e 58F80320 		ldr	r2, [r8, r3]
 2637 0062 FFF7FEFF 		bl	chprintf
 2638              	.LVL304:
 2639              		.loc 1 507 0
 2640 0066 7269     		ldr	r2, [r6, #20]
 2641 0068 1AB1     		cbz	r2, .L323
 2642              		.loc 1 508 0
 2643 006a 3D49     		ldr	r1, .L366+12
 2644 006c 2046     		mov	r0, r4
 2645 006e FFF7FEFF 		bl	chprintf
 2646              	.LVL305:
 2647              	.L323:
 2648              		.loc 1 509 0
 2649 0072 F368     		ldr	r3, [r6, #12]
 2650 0074 6BB3     		cbz	r3, .L324
 2651              		.loc 1 511 0
 2652 0076 3B49     		ldr	r1, .L366+16
 2653 0078 2046     		mov	r0, r4
 2654 007a FFF7FEFF 		bl	chprintf
 2655              	.LVL306:
 2656              		.loc 1 512 0
 2657 007e 96F80490 		ldrb	r9, [r6, #4]	@ zero_extendqisi2
 2658 0082 F568     		ldr	r5, [r6, #12]
 2659              	.LVL307:
 2660              	.LBB1040:
 2661              	.LBB1041:
 2662              		.loc 1 468 0
 2663 0084 4FEA0919 		lsl	r9, r9, #4
 2664              	.LVL308:
 2665 0088 08EB0901 		add	r1, r8, r9
 2666 008c 8B68     		ldr	r3, [r1, #8]
 2667 008e 002B     		cmp	r3, #0
 2668 0090 5AD1     		bne	.L364
 2669              	.L325:
 2670              	.LBB1042:
 2671              		.loc 1 474 0
 2672 0092 2368     		ldr	r3, [r4]
 2673 0094 3021     		movs	r1, #48
 2674 0096 DB68     		ldr	r3, [r3, #12]
 2675 0098 2046     		mov	r0, r4
 2676 009a 9847     		blx	r3
 2677              	.LVL309:
 2678              		.loc 1 475 0
 2679 009c 2368     		ldr	r3, [r4]
ARM GAS  /tmp/ccwidgtl.s 			page 48


 2680              	.LBE1042:
 2681              	.LBE1041:
 2682              	.LBB1044:
 2683              	.LBB1045:
 2684              		.loc 1 477 0
 2685 009e C144     		add	r9, r9, r8
 2686              	.LBE1045:
 2687              	.LBE1044:
 2688              	.LBB1047:
 2689              	.LBB1043:
 2690              		.loc 1 475 0
 2691 00a0 DB68     		ldr	r3, [r3, #12]
 2692 00a2 7821     		movs	r1, #120
 2693 00a4 2046     		mov	r0, r4
 2694 00a6 9847     		blx	r3
 2695              	.LVL310:
 2696              	.LBE1043:
 2697              	.LBE1047:
 2698              	.LBB1048:
 2699              	.LBB1046:
 2700              		.loc 1 477 0
 2701 00a8 D9F80430 		ldr	r3, [r9, #4]
 2702 00ac 63B1     		cbz	r3, .L326
 2703 00ae 013D     		subs	r5, r5, #1
 2704              	.LVL311:
 2705              		.loc 1 479 0
 2706 00b0 DFF8B8A0 		ldr	r10, .L366+24
 2707 00b4 05EB0309 		add	r9, r5, r3
 2708              	.LVL312:
 2709              	.L328:
 2710 00b8 15F8012F 		ldrb	r2, [r5, #1]!	@ zero_extendqisi2
 2711 00bc 5146     		mov	r1, r10
 2712 00be 2046     		mov	r0, r4
 2713 00c0 FFF7FEFF 		bl	chprintf
 2714              	.LVL313:
 2715              		.loc 1 477 0
 2716 00c4 A945     		cmp	r9, r5
 2717 00c6 F7D1     		bne	.L328
 2718              	.LVL314:
 2719              	.L326:
 2720              	.LBE1046:
 2721              	.LBE1048:
 2722              	.LBE1040:
 2723              		.loc 1 514 0
 2724 00c8 2368     		ldr	r3, [r4]
 2725 00ca 5D21     		movs	r1, #93
 2726 00cc DB68     		ldr	r3, [r3, #12]
 2727 00ce 2046     		mov	r0, r4
 2728 00d0 9847     		blx	r3
 2729              	.LVL315:
 2730              	.L324:
 2731              		.loc 1 516 0
 2732 00d2 2368     		ldr	r3, [r4]
 2733 00d4 2449     		ldr	r1, .L366+20
 2734 00d6 5B68     		ldr	r3, [r3, #4]
 2735 00d8 0422     		movs	r2, #4
 2736 00da 2046     		mov	r0, r4
ARM GAS  /tmp/ccwidgtl.s 			page 49


 2737 00dc 9847     		blx	r3
 2738              	.LVL316:
 2739              		.loc 1 517 0
 2740 00de 3379     		ldrb	r3, [r6, #4]	@ zero_extendqisi2
 2741 00e0 3568     		ldr	r5, [r6]
 2742              	.LVL317:
 2743              	.LBB1050:
 2744              	.LBB1051:
 2745              		.loc 1 468 0
 2746 00e2 1E01     		lsls	r6, r3, #4
 2747 00e4 08EB0601 		add	r1, r8, r6
 2748 00e8 8B68     		ldr	r3, [r1, #8]
 2749              	.LVL318:
 2750 00ea 3BBB     		cbnz	r3, .L365
 2751              	.L329:
 2752              	.LBB1052:
 2753              		.loc 1 474 0
 2754 00ec 2368     		ldr	r3, [r4]
 2755 00ee 3021     		movs	r1, #48
 2756 00f0 DB68     		ldr	r3, [r3, #12]
 2757 00f2 2046     		mov	r0, r4
 2758 00f4 9847     		blx	r3
 2759              	.LVL319:
 2760              		.loc 1 475 0
 2761 00f6 2368     		ldr	r3, [r4]
 2762              	.LBE1052:
 2763              	.LBE1051:
 2764              	.LBB1054:
 2765              	.LBB1055:
 2766              		.loc 1 477 0
 2767 00f8 B044     		add	r8, r8, r6
 2768              	.LBE1055:
 2769              	.LBE1054:
 2770              	.LBB1057:
 2771              	.LBB1053:
 2772              		.loc 1 475 0
 2773 00fa 7821     		movs	r1, #120
 2774 00fc DB68     		ldr	r3, [r3, #12]
 2775 00fe 2046     		mov	r0, r4
 2776 0100 9847     		blx	r3
 2777              	.LVL320:
 2778              	.LBE1053:
 2779              	.LBE1057:
 2780              	.LBB1058:
 2781              	.LBB1056:
 2782              		.loc 1 477 0
 2783 0102 D8F80460 		ldr	r6, [r8, #4]
 2784 0106 56B1     		cbz	r6, .L330
 2785 0108 013D     		subs	r5, r5, #1
 2786              	.LVL321:
 2787              		.loc 1 479 0
 2788 010a 184F     		ldr	r7, .L366+24
 2789              	.LVL322:
 2790 010c 2E44     		add	r6, r6, r5
 2791              	.LVL323:
 2792              	.L332:
 2793 010e 15F8012F 		ldrb	r2, [r5, #1]!	@ zero_extendqisi2
ARM GAS  /tmp/ccwidgtl.s 			page 50


 2794 0112 3946     		mov	r1, r7
 2795 0114 2046     		mov	r0, r4
 2796 0116 FFF7FEFF 		bl	chprintf
 2797              	.LVL324:
 2798              		.loc 1 477 0
 2799 011a AE42     		cmp	r6, r5
 2800 011c F7D1     		bne	.L332
 2801              	.LVL325:
 2802              	.L330:
 2803              	.LBE1056:
 2804              	.LBE1058:
 2805              	.LBE1050:
 2806              		.loc 1 519 0
 2807 011e 2368     		ldr	r3, [r4]
 2808 0120 0C49     		ldr	r1, .L366
 2809 0122 5B68     		ldr	r3, [r3, #4]
 2810 0124 2046     		mov	r0, r4
 2811 0126 0222     		movs	r2, #2
 2812              		.loc 1 521 0
 2813 0128 02B0     		add	sp, sp, #8
 2814              		.cfi_remember_state
 2815              		.cfi_def_cfa_offset 32
 2816              		@ sp needed
 2817 012a BDE8F047 		pop	{r4, r5, r6, r7, r8, r9, r10, lr}
 2818              		.cfi_restore 14
 2819              		.cfi_restore 10
 2820              		.cfi_restore 9
 2821              		.cfi_restore 8
 2822              		.cfi_restore 7
 2823              		.cfi_restore 6
 2824              		.cfi_restore 5
 2825              		.cfi_restore 4
 2826              		.cfi_def_cfa_offset 0
 2827              	.LVL326:
 2828              		.loc 1 519 0
 2829 012e 1847     		bx	r3
 2830              	.LVL327:
 2831              	.L321:
 2832              		.cfi_restore_state
 2833              		.loc 1 504 0
 2834 0130 2A46     		mov	r2, r5
 2835 0132 0F49     		ldr	r1, .L366+28
 2836 0134 2046     		mov	r0, r4
 2837 0136 FFF7FEFF 		bl	chprintf
 2838              	.LVL328:
 2839 013a 8AE7     		b	.L322
 2840              	.LVL329:
 2841              	.L365:
 2842              	.LBB1060:
 2843              	.LBB1059:
 2844              		.loc 1 468 0
 2845 013c 002F     		cmp	r7, #0
 2846 013e D5D0     		beq	.L329
 2847              		.loc 1 470 0
 2848 0140 2A46     		mov	r2, r5
 2849 0142 2046     		mov	r0, r4
 2850 0144 9847     		blx	r3
ARM GAS  /tmp/ccwidgtl.s 			page 51


 2851              	.LVL330:
 2852 0146 EAE7     		b	.L330
 2853              	.LVL331:
 2854              	.L364:
 2855              	.LBE1059:
 2856              	.LBE1060:
 2857              	.LBB1061:
 2858              	.LBB1049:
 2859              		.loc 1 468 0
 2860 0148 002F     		cmp	r7, #0
 2861 014a A2D0     		beq	.L325
 2862              		.loc 1 470 0
 2863 014c 2A46     		mov	r2, r5
 2864 014e 2046     		mov	r0, r4
 2865 0150 9847     		blx	r3
 2866              	.LVL332:
 2867 0152 B9E7     		b	.L326
 2868              	.L367:
 2869              		.align	2
 2870              	.L366:
 2871 0154 00000000 		.word	.LC14
 2872 0158 00000000 		.word	.LANCHOR2
 2873 015c 04000000 		.word	.LC15
 2874 0160 18000000 		.word	.LC17
 2875 0164 20000000 		.word	.LC18
 2876 0168 3C000000 		.word	.LC20
 2877 016c 34000000 		.word	.LC19
 2878 0170 10000000 		.word	.LC16
 2879 0174 00000000 		.word	.LANCHOR1
 2880              	.LBE1049:
 2881              	.LBE1061:
 2882              		.cfi_endproc
 2883              	.LFE1145:
 2884              		.size	_Z25Param_Shell_Enumerate_OneP20BaseSequentialStreamjb, .-_Z25Param_Shell_Enumerate_OneP20Ba
 2885              		.section	.text._Z14Param_ShellCmdP20BaseSequentialStreamiPPc,"ax",%progbits
 2886              		.align	1
 2887              		.p2align 2,,3
 2888              		.global	_Z14Param_ShellCmdP20BaseSequentialStreamiPPc
 2889              		.syntax unified
 2890              		.thumb
 2891              		.thumb_func
 2892              		.fpu fpv4-sp-d16
 2893              		.type	_Z14Param_ShellCmdP20BaseSequentialStreamiPPc, %function
 2894              	_Z14Param_ShellCmdP20BaseSequentialStreamiPPc:
 2895              	.LFB1153:
 2896              		.loc 1 723 0
 2897              		.cfi_startproc
 2898              		@ args = 0, pretend = 0, frame = 0
 2899              		@ frame_needed = 0, uses_anonymous_args = 0
 2900              	.LVL333:
 2901 0000 2DE9F041 		push	{r4, r5, r6, r7, r8, lr}
 2902              		.cfi_def_cfa_offset 24
 2903              		.cfi_offset 4, -24
 2904              		.cfi_offset 5, -20
 2905              		.cfi_offset 6, -16
 2906              		.cfi_offset 7, -12
 2907              		.cfi_offset 8, -8
ARM GAS  /tmp/ccwidgtl.s 			page 52


 2908              		.cfi_offset 14, -4
 2909 0004 0646     		mov	r6, r0
 2910 0006 8CB0     		sub	sp, sp, #48
 2911              		.cfi_def_cfa_offset 72
 2912              		.loc 1 724 0
 2913 0008 0029     		cmp	r1, #0
 2914 000a 32D0     		beq	.L383
 2915              		.loc 1 726 0
 2916 000c 1568     		ldr	r5, [r2]
 2917 000e 9E48     		ldr	r0, .L475
 2918              	.LVL334:
 2919 0010 0C46     		mov	r4, r1
 2920 0012 2946     		mov	r1, r5
 2921              	.LVL335:
 2922 0014 1746     		mov	r7, r2
 2923 0016 FFF7FEFF 		bl	strcmp
 2924              	.LVL336:
 2925 001a 0028     		cmp	r0, #0
 2926 001c 4AD0     		beq	.L464
 2927              		.loc 1 731 0
 2928 001e 2946     		mov	r1, r5
 2929 0020 9A48     		ldr	r0, .L475+4
 2930 0022 FFF7FEFF 		bl	strcmp
 2931              	.LVL337:
 2932 0026 8046     		mov	r8, r0
 2933 0028 0028     		cmp	r0, #0
 2934 002a 6ED0     		beq	.L465
 2935              		.loc 1 736 0
 2936 002c 2946     		mov	r1, r5
 2937 002e 9848     		ldr	r0, .L475+8
 2938 0030 FFF7FEFF 		bl	strcmp
 2939              	.LVL338:
 2940 0034 8046     		mov	r8, r0
 2941 0036 0028     		cmp	r0, #0
 2942 0038 00F08E80 		beq	.L466
 2943              		.loc 1 741 0
 2944 003c 2946     		mov	r1, r5
 2945 003e 9548     		ldr	r0, .L475+12
 2946 0040 FFF7FEFF 		bl	strcmp
 2947              	.LVL339:
 2948 0044 0028     		cmp	r0, #0
 2949 0046 3DD0     		beq	.L467
 2950              		.loc 1 746 0
 2951 0048 2946     		mov	r1, r5
 2952 004a 9348     		ldr	r0, .L475+16
 2953 004c FFF7FEFF 		bl	strcmp
 2954              	.LVL340:
 2955 0050 0028     		cmp	r0, #0
 2956 0052 00F0C380 		beq	.L468
 2957              		.loc 1 751 0
 2958 0056 2946     		mov	r1, r5
 2959 0058 9048     		ldr	r0, .L475+20
 2960 005a FFF7FEFF 		bl	strcmp
 2961              	.LVL341:
 2962 005e 0028     		cmp	r0, #0
 2963 0060 00F0CE80 		beq	.L469
 2964              		.loc 1 756 0
ARM GAS  /tmp/ccwidgtl.s 			page 53


 2965 0064 2946     		mov	r1, r5
 2966 0066 8E48     		ldr	r0, .L475+24
 2967 0068 FFF7FEFF 		bl	strcmp
 2968              	.LVL342:
 2969 006c 0028     		cmp	r0, #0
 2970 006e 00F0A280 		beq	.L470
 2971              	.LVL343:
 2972              	.L383:
 2973              		.loc 1 764 0
 2974 0072 8C4A     		ldr	r2, .L475+28
 2975 0074 8C4B     		ldr	r3, .L475+32
 2976 0076 8D4C     		ldr	r4, .L475+36
 2977 0078 8D49     		ldr	r1, .L475+40
 2978 007a 0B92     		str	r2, [sp, #44]
 2979 007c 0A93     		str	r3, [sp, #40]
 2980 007e 8D4A     		ldr	r2, .L475+44
 2981 0080 8D4B     		ldr	r3, .L475+48
 2982 0082 8E48     		ldr	r0, .L475+52
 2983 0084 0894     		str	r4, [sp, #32]
 2984 0086 0791     		str	r1, [sp, #28]
 2985 0088 8D4C     		ldr	r4, .L475+56
 2986 008a 8E49     		ldr	r1, .L475+60
 2987 008c 0692     		str	r2, [sp, #24]
 2988 008e 0593     		str	r3, [sp, #20]
 2989 0090 8D4A     		ldr	r2, .L475+64
 2990 0092 8E4B     		ldr	r3, .L475+68
 2991 0094 0990     		str	r0, [sp, #36]
 2992 0096 8E48     		ldr	r0, .L475+72
 2993 0098 0490     		str	r0, [sp, #16]
 2994 009a CDE90032 		strd	r3, r2, [sp]
 2995 009e CDE90214 		strd	r1, r4, [sp, #8]
 2996 00a2 3046     		mov	r0, r6
 2997 00a4 8B4B     		ldr	r3, .L475+76
 2998 00a6 784A     		ldr	r2, .L475
 2999 00a8 8B49     		ldr	r1, .L475+80
 3000 00aa FFF7FEFF 		bl	chprintf
 3001              	.LVL344:
 3002              	.L368:
 3003              		.loc 1 783 0
 3004 00ae 0CB0     		add	sp, sp, #48
 3005              		.cfi_remember_state
 3006              		.cfi_def_cfa_offset 24
 3007              		@ sp needed
 3008 00b0 BDE8F081 		pop	{r4, r5, r6, r7, r8, pc}
 3009              	.LVL345:
 3010              	.L464:
 3011              		.cfi_restore_state
 3012              	.LBB1207:
 3013              	.LBB1208:
 3014              		.loc 1 566 0
 3015 00b4 012C     		cmp	r4, #1
 3016 00b6 DCD1     		bne	.L383
 3017              		.loc 1 568 0
 3018 00b8 FFF7FEFF 		bl	_Z10Param_Savev
 3019              	.LVL346:
 3020 00bc F0B9     		cbnz	r0, .L463
 3021              		.loc 1 574 0
ARM GAS  /tmp/ccwidgtl.s 			page 54


 3022 00be 3046     		mov	r0, r6
 3023 00c0 8649     		ldr	r1, .L475+84
 3024 00c2 1DE0     		b	.L461
 3025              	.LVL347:
 3026              	.L467:
 3027              	.LBE1208:
 3028              	.LBE1207:
 3029              		.loc 1 743 0
 3030 00c4 3A1D     		adds	r2, r7, #4
 3031 00c6 611E     		subs	r1, r4, #1
 3032 00c8 0123     		movs	r3, #1
 3033 00ca 3046     		mov	r0, r6
 3034 00cc FFF7FEFF 		bl	_ZL18Param_ShellCmd_setP20BaseSequentialStreamiPPcb
 3035              	.LVL348:
 3036 00d0 0028     		cmp	r0, #0
 3037 00d2 CED0     		beq	.L383
 3038 00d4 EBE7     		b	.L368
 3039              	.LVL349:
 3040              	.L390:
 3041              	.LBB1210:
 3042              	.LBB1211:
 3043              	.LBB1212:
 3044              	.LBB1213:
 3045              	.LBB1214:
 3046              	.LBB1215:
 3047              		.loc 1 558 0
 3048 00d6 9A68     		ldr	r2, [r3, #8]
 3049 00d8 002A     		cmp	r2, #0
 3050 00da 38D0     		beq	.L374
 3051              	.L417:
 3052              	.LBE1215:
 3053              	.LBE1214:
 3054              	.LBE1213:
 3055              	.LBE1212:
 3056              	.LBB1228:
 3057              	.LBB1229:
 3058              	.LBB1230:
 3059              	.LBB1231:
 3060              		.loc 1 52 0
 3061 00dc 9B68     		ldr	r3, [r3, #8]
 3062              	.LBE1231:
 3063              	.LBE1230:
 3064              		.loc 1 418 0
 3065 00de 002B     		cmp	r3, #0
 3066 00e0 00F05D81 		beq	.L395
 3067              	.LVL350:
 3068              	.LBB1235:
 3069              	.LBB1236:
 3070              		.loc 1 398 0
 3071 00e4 D968     		ldr	r1, [r3, #12]
 3072 00e6 0029     		cmp	r1, #0
 3073 00e8 00F05981 		beq	.L395
 3074              		.loc 1 401 0
 3075 00ec 7C4A     		ldr	r2, .L475+88
 3076 00ee 1C79     		ldrb	r4, [r3, #4]	@ zero_extendqisi2
 3077              		.loc 1 400 0
 3078 00f0 1868     		ldr	r0, [r3]
ARM GAS  /tmp/ccwidgtl.s 			page 55


 3079              		.loc 1 401 0
 3080 00f2 02EB0413 		add	r3, r2, r4, lsl #4
 3081              	.LVL351:
 3082              		.loc 1 400 0
 3083 00f6 5A68     		ldr	r2, [r3, #4]
 3084 00f8 FFF7FEFF 		bl	memcpy
 3085              	.LVL352:
 3086              	.L463:
 3087              	.LBE1236:
 3088              	.LBE1235:
 3089              	.LBE1229:
 3090              	.LBE1228:
 3091              		.loc 1 627 0
 3092 00fc 7949     		ldr	r1, .L475+92
 3093 00fe 3046     		mov	r0, r6
 3094              	.LVL353:
 3095              	.L461:
 3096              	.LBE1211:
 3097              	.LBE1210:
 3098              		.loc 1 783 0
 3099 0100 0CB0     		add	sp, sp, #48
 3100              		.cfi_remember_state
 3101              		.cfi_def_cfa_offset 24
 3102              		@ sp needed
 3103 0102 BDE8F041 		pop	{r4, r5, r6, r7, r8, lr}
 3104              		.cfi_restore 14
 3105              		.cfi_restore 8
 3106              		.cfi_restore 7
 3107              		.cfi_restore 6
 3108              		.cfi_restore 5
 3109              		.cfi_restore 4
 3110              		.cfi_def_cfa_offset 0
 3111              	.LBB1255:
 3112              	.LBB1209:
 3113              		.loc 1 574 0
 3114 0106 FFF7FEBF 		b	chprintf
 3115              	.LVL354:
 3116              	.L465:
 3117              		.cfi_restore_state
 3118              	.LBE1209:
 3119              	.LBE1255:
 3120              	.LBB1256:
 3121              	.LBB1257:
 3122              	.LBB1258:
 3123              		.loc 1 584 0
 3124 010a 022C     		cmp	r4, #2
 3125 010c B1D1     		bne	.L383
 3126              	.LBB1259:
 3127              		.loc 1 586 0
 3128 010e 7C68     		ldr	r4, [r7, #4]
 3129              	.LVL355:
 3130 0110 7548     		ldr	r0, .L475+96
 3131 0112 2146     		mov	r1, r4
 3132 0114 FFF7FEFF 		bl	strcmp
 3133              	.LVL356:
 3134 0118 0028     		cmp	r0, #0
 3135 011a 40D0     		beq	.L471
ARM GAS  /tmp/ccwidgtl.s 			page 56


 3136              	.LVL357:
 3137              	.LBB1260:
 3138              	.LBB1261:
 3139              		.loc 1 557 0
 3140 011c 734D     		ldr	r5, .L475+100
 3141 011e 7448     		ldr	r0, .L475+104
 3142 0120 2146     		mov	r1, r4
 3143 0122 2A46     		mov	r2, r5
 3144 0124 FFF7FEFF 		bl	_Z23paramParser_unsignedIntPK24Param_DataTypeDefinitionPKcPv
 3145              	.LVL358:
 3146 0128 88B1     		cbz	r0, .L374
 3147              	.LVL359:
 3148              	.LBB1262:
 3149              	.LBB1263:
 3150              	.LBB1264:
 3151              	.LBB1265:
 3152              		.loc 1 47 0
 3153 012a 724C     		ldr	r4, .L475+108
 3154              	.LVL360:
 3155              	.LBE1265:
 3156              	.LBE1264:
 3157              		.loc 1 558 0
 3158 012c 2968     		ldr	r1, [r5]
 3159              	.LVL361:
 3160              	.LBB1269:
 3161              	.LBB1268:
 3162              		.loc 1 47 0
 3163 012e 2368     		ldr	r3, [r4]
 3164              	.LVL362:
 3165              		.loc 1 48 0
 3166 0130 A342     		cmp	r3, r4
 3167 0132 0CD0     		beq	.L374
 3168              		.loc 1 50 0
 3169 0134 0029     		cmp	r1, #0
 3170 0136 00F01781 		beq	.L375
 3171 013a 1A46     		mov	r2, r3
 3172 013c 02E0     		b	.L376
 3173              	.LVL363:
 3174              	.L378:
 3175 013e 4145     		cmp	r1, r8
 3176 0140 00F00281 		beq	.L472
 3177              	.LVL364:
 3178              	.L376:
 3179              	.LBB1266:
 3180              	.LBB1267:
 3181              		.loc 2 170 0
 3182 0144 1268     		ldr	r2, [r2]
 3183              	.LVL365:
 3184              	.LBE1267:
 3185              	.LBE1266:
 3186              		.loc 1 48 0
 3187 0146 A242     		cmp	r2, r4
 3188              		.loc 1 55 0
 3189 0148 08F10108 		add	r8, r8, #1
 3190              	.LVL366:
 3191              		.loc 1 48 0
 3192 014c F7D1     		bne	.L378
ARM GAS  /tmp/ccwidgtl.s 			page 57


 3193              	.LVL367:
 3194              	.L374:
 3195              	.LBE1268:
 3196              	.LBE1269:
 3197              	.LBE1263:
 3198              	.LBE1262:
 3199              	.LBE1261:
 3200              	.LBE1260:
 3201              		.loc 1 606 0
 3202 014e 6A49     		ldr	r1, .L475+112
 3203 0150 3046     		mov	r0, r6
 3204 0152 FFF7FEFF 		bl	chprintf
 3205              	.LVL368:
 3206 0156 8CE7     		b	.L383
 3207              	.LVL369:
 3208              	.L466:
 3209              	.LBE1259:
 3210              	.LBE1258:
 3211              	.LBE1257:
 3212              	.LBE1256:
 3213              	.LBB1302:
 3214              	.LBB1252:
 3215              		.loc 1 615 0
 3216 0158 022C     		cmp	r4, #2
 3217 015a 8AD1     		bne	.L383
 3218              		.loc 1 617 0
 3219 015c 7C68     		ldr	r4, [r7, #4]
 3220              	.LVL370:
 3221 015e 6248     		ldr	r0, .L475+96
 3222 0160 2146     		mov	r1, r4
 3223 0162 FFF7FEFF 		bl	strcmp
 3224              	.LVL371:
 3225 0166 0028     		cmp	r0, #0
 3226 0168 74D0     		beq	.L473
 3227              	.LVL372:
 3228              	.LBB1239:
 3229              	.LBB1226:
 3230              		.loc 1 557 0
 3231 016a 644D     		ldr	r5, .L475+116
 3232 016c 6048     		ldr	r0, .L475+104
 3233 016e 2146     		mov	r1, r4
 3234 0170 2A46     		mov	r2, r5
 3235 0172 FFF7FEFF 		bl	_Z23paramParser_unsignedIntPK24Param_DataTypeDefinitionPKcPv
 3236              	.LVL373:
 3237 0176 0028     		cmp	r0, #0
 3238 0178 E9D0     		beq	.L374
 3239              	.LVL374:
 3240              	.LBB1224:
 3241              	.LBB1222:
 3242              	.LBB1216:
 3243              	.LBB1217:
 3244              		.loc 1 47 0
 3245 017a 5E4C     		ldr	r4, .L475+108
 3246              	.LVL375:
 3247              	.LBE1217:
 3248              	.LBE1216:
 3249              		.loc 1 558 0
ARM GAS  /tmp/ccwidgtl.s 			page 58


 3250 017c 2968     		ldr	r1, [r5]
 3251              	.LVL376:
 3252              	.LBB1221:
 3253              	.LBB1220:
 3254              		.loc 1 47 0
 3255 017e 2368     		ldr	r3, [r4]
 3256              	.LVL377:
 3257              		.loc 1 48 0
 3258 0180 A342     		cmp	r3, r4
 3259 0182 E4D0     		beq	.L374
 3260              		.loc 1 50 0
 3261 0184 0029     		cmp	r1, #0
 3262 0186 A6D0     		beq	.L390
 3263 0188 1A46     		mov	r2, r3
 3264 018a 02E0     		b	.L391
 3265              	.LVL378:
 3266              	.L393:
 3267 018c 4145     		cmp	r1, r8
 3268 018e 00F0F880 		beq	.L474
 3269              	.LVL379:
 3270              	.L391:
 3271              	.LBB1218:
 3272              	.LBB1219:
 3273              		.loc 2 170 0
 3274 0192 1268     		ldr	r2, [r2]
 3275              	.LVL380:
 3276              	.LBE1219:
 3277              	.LBE1218:
 3278              		.loc 1 48 0
 3279 0194 A242     		cmp	r2, r4
 3280              		.loc 1 55 0
 3281 0196 08F10108 		add	r8, r8, #1
 3282              	.LVL381:
 3283              		.loc 1 48 0
 3284 019a F7D1     		bne	.L393
 3285 019c D7E7     		b	.L374
 3286              	.LVL382:
 3287              	.L471:
 3288              	.LBE1220:
 3289              	.LBE1221:
 3290              	.LBE1222:
 3291              	.LBE1224:
 3292              	.LBE1226:
 3293              	.LBE1239:
 3294              	.LBE1252:
 3295              	.LBE1302:
 3296              	.LBB1303:
 3297              	.LBB1299:
 3298              	.LBB1296:
 3299              	.LBB1293:
 3300              	.LBB1276:
 3301              		.loc 1 588 0
 3302 019e FFF7FEFF 		bl	_Z13Param_LoadAllv
 3303              	.LVL383:
 3304              	.LBB1277:
 3305              	.LBB1278:
 3306              	.LBB1279:
ARM GAS  /tmp/ccwidgtl.s 			page 59


 3307              		.loc 2 364 0
 3308 01a2 544B     		ldr	r3, .L475+108
 3309              	.LBE1279:
 3310              	.LBE1278:
 3311              	.LBE1277:
 3312              		.loc 1 589 0
 3313 01a4 5649     		ldr	r1, .L475+120
 3314 01a6 9B68     		ldr	r3, [r3, #8]
 3315 01a8 0246     		mov	r2, r0
 3316 01aa 3046     		mov	r0, r6
 3317              	.LVL384:
 3318              	.LBE1276:
 3319              	.LBE1293:
 3320              	.LBE1296:
 3321              	.LBE1299:
 3322              	.LBE1303:
 3323              		.loc 1 783 0
 3324 01ac 0CB0     		add	sp, sp, #48
 3325              		.cfi_remember_state
 3326              		.cfi_def_cfa_offset 24
 3327              		@ sp needed
 3328 01ae BDE8F041 		pop	{r4, r5, r6, r7, r8, lr}
 3329              		.cfi_restore 14
 3330              		.cfi_restore 8
 3331              		.cfi_restore 7
 3332              		.cfi_restore 6
 3333              		.cfi_restore 5
 3334              		.cfi_restore 4
 3335              		.cfi_def_cfa_offset 0
 3336              	.LVL385:
 3337              	.LBB1304:
 3338              	.LBB1300:
 3339              	.LBB1297:
 3340              	.LBB1294:
 3341              	.LBB1280:
 3342              		.loc 1 589 0
 3343 01b2 FFF7FEBF 		b	chprintf
 3344              	.LVL386:
 3345              	.L470:
 3346              		.cfi_restore_state
 3347              	.LBE1280:
 3348              	.LBE1294:
 3349              	.LBE1297:
 3350              	.LBE1300:
 3351              	.LBE1304:
 3352              	.LBB1305:
 3353              	.LBB1306:
 3354              		.loc 1 706 0
 3355 01b6 012C     		cmp	r4, #1
 3356 01b8 00F3A680 		bgt	.L409
 3357              	.L460:
 3358 01bc 4D4C     		ldr	r4, .L475+108
 3359              	.LVL387:
 3360              	.L411:
 3361              	.LBB1307:
 3362              	.LBB1308:
 3363              		.loc 1 530 0
ARM GAS  /tmp/ccwidgtl.s 			page 60


 3364 01be A368     		ldr	r3, [r4, #8]
 3365 01c0 002B     		cmp	r3, #0
 3366 01c2 3FF474AF 		beq	.L368
 3367 01c6 0025     		movs	r5, #0
 3368              	.LVL388:
 3369              	.L410:
 3370              		.loc 1 532 0
 3371 01c8 2946     		mov	r1, r5
 3372 01ca 0022     		movs	r2, #0
 3373 01cc 3046     		mov	r0, r6
 3374 01ce FFF7FEFF 		bl	_Z25Param_Shell_Enumerate_OneP20BaseSequentialStreamjb
 3375              	.LVL389:
 3376              		.loc 1 530 0
 3377 01d2 A368     		ldr	r3, [r4, #8]
 3378 01d4 0135     		adds	r5, r5, #1
 3379              	.LVL390:
 3380 01d6 AB42     		cmp	r3, r5
 3381 01d8 F6D8     		bhi	.L410
 3382 01da 68E7     		b	.L368
 3383              	.LVL391:
 3384              	.L468:
 3385              	.LBE1308:
 3386              	.LBE1307:
 3387              	.LBE1306:
 3388              	.LBE1305:
 3389              	.LBB1327:
 3390              	.LBB1328:
 3391              		.loc 1 706 0
 3392 01dc 012C     		cmp	r4, #1
 3393 01de 19DC     		bgt	.L400
 3394              	.L459:
 3395 01e0 444C     		ldr	r4, .L475+108
 3396              	.LVL392:
 3397              	.L403:
 3398              	.LBB1329:
 3399              	.LBB1330:
 3400              		.loc 1 530 0
 3401 01e2 A368     		ldr	r3, [r4, #8]
 3402 01e4 002B     		cmp	r3, #0
 3403 01e6 3FF462AF 		beq	.L368
 3404 01ea 0025     		movs	r5, #0
 3405              	.LVL393:
 3406              	.L401:
 3407              		.loc 1 532 0
 3408 01ec 2946     		mov	r1, r5
 3409 01ee 0122     		movs	r2, #1
 3410 01f0 3046     		mov	r0, r6
 3411 01f2 FFF7FEFF 		bl	_Z25Param_Shell_Enumerate_OneP20BaseSequentialStreamjb
 3412              	.LVL394:
 3413              		.loc 1 530 0
 3414 01f6 A368     		ldr	r3, [r4, #8]
 3415 01f8 0135     		adds	r5, r5, #1
 3416              	.LVL395:
 3417 01fa AB42     		cmp	r3, r5
 3418 01fc F6D8     		bhi	.L401
 3419 01fe 56E7     		b	.L368
 3420              	.LVL396:
ARM GAS  /tmp/ccwidgtl.s 			page 61


 3421              	.L469:
 3422              	.LBE1330:
 3423              	.LBE1329:
 3424              	.LBE1328:
 3425              	.LBE1327:
 3426              		.loc 1 753 0
 3427 0200 0346     		mov	r3, r0
 3428 0202 3A1D     		adds	r2, r7, #4
 3429 0204 611E     		subs	r1, r4, #1
 3430 0206 3046     		mov	r0, r6
 3431 0208 FFF7FEFF 		bl	_ZL18Param_ShellCmd_setP20BaseSequentialStreamiPPcb
 3432              	.LVL397:
 3433 020c 0028     		cmp	r0, #0
 3434 020e 3FF430AF 		beq	.L383
 3435 0212 4CE7     		b	.L368
 3436              	.LVL398:
 3437              	.L400:
 3438              	.LBB1344:
 3439              	.LBB1343:
 3440              	.LBB1331:
 3441              	.LBB1332:
 3442              		.loc 1 557 0
 3443 0214 3B4D     		ldr	r5, .L475+124
 3444 0216 7968     		ldr	r1, [r7, #4]
 3445 0218 3548     		ldr	r0, .L475+104
 3446 021a 2A46     		mov	r2, r5
 3447 021c FFF7FEFF 		bl	_Z23paramParser_unsignedIntPK24Param_DataTypeDefinitionPKcPv
 3448              	.LVL399:
 3449 0220 0028     		cmp	r0, #0
 3450 0222 DDD0     		beq	.L459
 3451              	.LVL400:
 3452              	.LBB1333:
 3453              	.LBB1334:
 3454              	.LBB1335:
 3455              	.LBB1336:
 3456              		.loc 1 47 0
 3457 0224 334C     		ldr	r4, .L475+108
 3458              	.LVL401:
 3459              	.LBE1336:
 3460              	.LBE1335:
 3461              		.loc 1 558 0
 3462 0226 2968     		ldr	r1, [r5]
 3463              	.LVL402:
 3464              	.LBB1340:
 3465              	.LBB1339:
 3466              		.loc 1 47 0
 3467 0228 2368     		ldr	r3, [r4]
 3468              	.LVL403:
 3469              		.loc 1 48 0
 3470 022a A342     		cmp	r3, r4
 3471 022c D9D0     		beq	.L403
 3472              		.loc 1 50 0
 3473 022e 39B1     		cbz	r1, .L404
 3474              		.loc 1 46 0
 3475 0230 0022     		movs	r2, #0
 3476              	.LVL404:
 3477              	.L405:
ARM GAS  /tmp/ccwidgtl.s 			page 62


 3478              	.LBB1337:
 3479              	.LBB1338:
 3480              		.loc 2 170 0
 3481 0232 1B68     		ldr	r3, [r3]
 3482              	.LVL405:
 3483              	.LBE1338:
 3484              	.LBE1337:
 3485              		.loc 1 48 0
 3486 0234 A342     		cmp	r3, r4
 3487              		.loc 1 55 0
 3488 0236 02F10102 		add	r2, r2, #1
 3489              	.LVL406:
 3490              		.loc 1 48 0
 3491 023a D2D0     		beq	.L403
 3492              		.loc 1 50 0
 3493 023c 9142     		cmp	r1, r2
 3494 023e F8D1     		bne	.L405
 3495              	.LVL407:
 3496              	.L404:
 3497              	.LBE1339:
 3498              	.LBE1340:
 3499              		.loc 1 558 0
 3500 0240 9B68     		ldr	r3, [r3, #8]
 3501 0242 002B     		cmp	r3, #0
 3502 0244 CDD0     		beq	.L403
 3503              	.LVL408:
 3504              	.LBE1334:
 3505              	.LBE1333:
 3506              	.LBE1332:
 3507              	.LBE1331:
 3508              	.LBB1341:
 3509              	.LBB1342:
 3510              		.loc 1 710 0
 3511 0246 3046     		mov	r0, r6
 3512 0248 0122     		movs	r2, #1
 3513              	.LVL409:
 3514              	.L462:
 3515              	.LBE1342:
 3516              	.LBE1341:
 3517              	.LBE1343:
 3518              	.LBE1344:
 3519              		.loc 1 783 0
 3520 024a 0CB0     		add	sp, sp, #48
 3521              		.cfi_remember_state
 3522              		.cfi_def_cfa_offset 24
 3523              		@ sp needed
 3524 024c BDE8F041 		pop	{r4, r5, r6, r7, r8, lr}
 3525              		.cfi_restore 14
 3526              		.cfi_restore 8
 3527              		.cfi_restore 7
 3528              		.cfi_restore 6
 3529              		.cfi_restore 5
 3530              		.cfi_restore 4
 3531              		.cfi_def_cfa_offset 0
 3532              	.LVL410:
 3533              	.LBB1345:
 3534              	.LBB1325:
ARM GAS  /tmp/ccwidgtl.s 			page 63


 3535              	.LBB1309:
 3536              	.LBB1310:
 3537              		.loc 1 710 0
 3538 0250 FFF7FEBF 		b	_Z25Param_Shell_Enumerate_OneP20BaseSequentialStreamjb
 3539              	.LVL411:
 3540              	.L473:
 3541              		.cfi_restore_state
 3542              	.LBE1310:
 3543              	.LBE1309:
 3544              	.LBE1325:
 3545              	.LBE1345:
 3546              	.LBB1346:
 3547              	.LBB1253:
 3548              	.LBB1240:
 3549              	.LBB1241:
 3550              		.loc 1 428 0
 3551 0254 274C     		ldr	r4, .L475+108
 3552 0256 2568     		ldr	r5, [r4]
 3553              	.LVL412:
 3554 0258 A542     		cmp	r5, r4
 3555 025a 3FF44FAF 		beq	.L463
 3556              	.LBB1242:
 3557              	.LBB1243:
 3558              		.loc 1 401 0
 3559 025e 204F     		ldr	r7, .L475+88
 3560              	.LVL413:
 3561              	.L386:
 3562              	.LBE1243:
 3563              	.LBE1242:
 3564              		.loc 1 428 0
 3565 0260 AB68     		ldr	r3, [r5, #8]
 3566              	.LVL414:
 3567              	.LBB1245:
 3568              	.LBB1244:
 3569              		.loc 1 398 0
 3570 0262 DA68     		ldr	r2, [r3, #12]
 3571              		.loc 1 400 0
 3572 0264 1146     		mov	r1, r2
 3573              		.loc 1 398 0
 3574 0266 52B1     		cbz	r2, .L388
 3575              		.loc 1 401 0
 3576 0268 1A79     		ldrb	r2, [r3, #4]	@ zero_extendqisi2
 3577              		.loc 1 400 0
 3578 026a 1868     		ldr	r0, [r3]
 3579              		.loc 1 401 0
 3580 026c 07EB0213 		add	r3, r7, r2, lsl #4
 3581              	.LVL415:
 3582              		.loc 1 400 0
 3583 0270 5A68     		ldr	r2, [r3, #4]
 3584 0272 FFF7FEFF 		bl	memcpy
 3585              	.LVL416:
 3586              	.LBE1244:
 3587              	.LBE1245:
 3588              	.LBB1246:
 3589              	.LBB1247:
 3590              		.loc 2 162 0
 3591 0276 2D68     		ldr	r5, [r5]
ARM GAS  /tmp/ccwidgtl.s 			page 64


 3592              	.LVL417:
 3593              	.LBE1247:
 3594              	.LBE1246:
 3595              		.loc 1 428 0
 3596 0278 A542     		cmp	r5, r4
 3597 027a F1D1     		bne	.L386
 3598 027c 3EE7     		b	.L463
 3599              	.LVL418:
 3600              	.L388:
 3601              	.LBB1249:
 3602              	.LBB1248:
 3603              		.loc 2 162 0
 3604 027e 2D68     		ldr	r5, [r5]
 3605              	.LVL419:
 3606              	.LBE1248:
 3607              	.LBE1249:
 3608              		.loc 1 428 0
 3609 0280 A542     		cmp	r5, r4
 3610 0282 EDD1     		bne	.L386
 3611 0284 3AE7     		b	.L463
 3612              	.L476:
 3613 0286 00BF     		.align	2
 3614              	.L475:
 3615 0288 00000000 		.word	.LC21
 3616 028c 08000000 		.word	.LC22
 3617 0290 30000000 		.word	.LC25
 3618 0294 38000000 		.word	.LC26
 3619 0298 3C000000 		.word	.LC27
 3620 029c 44000000 		.word	.LC28
 3621 02a0 4C000000 		.word	.LC29
 3622 02a4 F4000000 		.word	.LC32
 3623 02a8 1C010000 		.word	.LC33
 3624 02ac 5C010000 		.word	.LC35
 3625 02b0 68010000 		.word	.LC36
 3626 02b4 8C010000 		.word	.LC37
 3627 02b8 A0010000 		.word	.LC38
 3628 02bc 28010000 		.word	.LC34
 3629 02c0 EC010000 		.word	.LC40
 3630 02c4 20020000 		.word	.LC41
 3631 02c8 2C020000 		.word	.LC42
 3632 02cc 60020000 		.word	.LC43
 3633 02d0 E0010000 		.word	.LC39
 3634 02d4 54000000 		.word	.LC30
 3635 02d8 78000000 		.word	.LC31
 3636 02dc 00000000 		.word	.LANCHOR12
 3637 02e0 00000000 		.word	.LANCHOR1
 3638 02e4 00000000 		.word	.LANCHOR3
 3639 02e8 10000000 		.word	.LC23
 3640 02ec 00000000 		.word	.LANCHOR13
 3641 02f0 70000000 		.word	.LANCHOR1+112
 3642 02f4 00000000 		.word	.LANCHOR2
 3643 02f8 00000000 		.word	.LANCHOR8
 3644 02fc 00000000 		.word	.LANCHOR15
 3645 0300 14000000 		.word	.LC24
 3646 0304 00000000 		.word	.LANCHOR17
 3647              	.LVL420:
 3648              	.L409:
ARM GAS  /tmp/ccwidgtl.s 			page 65


 3649              	.LBE1241:
 3650              	.LBE1240:
 3651              	.LBE1253:
 3652              	.LBE1346:
 3653              	.LBB1347:
 3654              	.LBB1326:
 3655              	.LBB1312:
 3656              	.LBB1313:
 3657              		.loc 1 557 0
 3658 0308 7968     		ldr	r1, [r7, #4]
 3659 030a 264A     		ldr	r2, .L477
 3660 030c 2648     		ldr	r0, .L477+4
 3661 030e FFF7FEFF 		bl	_Z23paramParser_unsignedIntPK24Param_DataTypeDefinitionPKcPv
 3662              	.LVL421:
 3663 0312 0028     		cmp	r0, #0
 3664 0314 3FF452AF 		beq	.L460
 3665              	.LVL422:
 3666              	.LBB1314:
 3667              	.LBB1315:
 3668              	.LBB1316:
 3669              	.LBB1317:
 3670              		.loc 1 47 0
 3671 0318 244C     		ldr	r4, .L477+8
 3672              	.LVL423:
 3673              	.LBE1317:
 3674              	.LBE1316:
 3675              		.loc 1 558 0
 3676 031a 224A     		ldr	r2, .L477
 3677              	.LBB1322:
 3678              	.LBB1320:
 3679              		.loc 1 47 0
 3680 031c 2368     		ldr	r3, [r4]
 3681              	.LBE1320:
 3682              	.LBE1322:
 3683              		.loc 1 558 0
 3684 031e 1168     		ldr	r1, [r2]
 3685              	.LVL424:
 3686              	.LBB1323:
 3687              	.LBB1321:
 3688              		.loc 1 48 0
 3689 0320 A342     		cmp	r3, r4
 3690 0322 3FF44CAF 		beq	.L411
 3691              		.loc 1 50 0
 3692 0326 41B1     		cbz	r1, .L412
 3693              		.loc 1 46 0
 3694 0328 0022     		movs	r2, #0
 3695              	.LVL425:
 3696              	.L413:
 3697              	.LBB1318:
 3698              	.LBB1319:
 3699              		.loc 2 170 0
 3700 032a 1B68     		ldr	r3, [r3]
 3701              	.LVL426:
 3702              	.LBE1319:
 3703              	.LBE1318:
 3704              		.loc 1 48 0
 3705 032c A342     		cmp	r3, r4
ARM GAS  /tmp/ccwidgtl.s 			page 66


 3706              		.loc 1 55 0
 3707 032e 02F10102 		add	r2, r2, #1
 3708              	.LVL427:
 3709              		.loc 1 48 0
 3710 0332 3FF444AF 		beq	.L411
 3711              		.loc 1 50 0
 3712 0336 9142     		cmp	r1, r2
 3713 0338 F7D1     		bne	.L413
 3714              	.LVL428:
 3715              	.L412:
 3716              	.LBE1321:
 3717              	.LBE1323:
 3718              		.loc 1 558 0
 3719 033a 9B68     		ldr	r3, [r3, #8]
 3720 033c 002B     		cmp	r3, #0
 3721 033e 3FF43EAF 		beq	.L411
 3722              	.LVL429:
 3723              	.LBE1315:
 3724              	.LBE1314:
 3725              	.LBE1313:
 3726              	.LBE1312:
 3727              	.LBB1324:
 3728              	.LBB1311:
 3729              		.loc 1 710 0
 3730 0342 3046     		mov	r0, r6
 3731 0344 0022     		movs	r2, #0
 3732 0346 80E7     		b	.L462
 3733              	.LVL430:
 3734              	.L472:
 3735              	.LBE1311:
 3736              	.LBE1324:
 3737              	.LBE1326:
 3738              	.LBE1347:
 3739              	.LBB1348:
 3740              	.LBB1301:
 3741              	.LBB1298:
 3742              	.LBB1295:
 3743              	.LBB1281:
 3744              	.LBB1274:
 3745              	.LBB1272:
 3746              	.LBB1270:
 3747              		.loc 1 558 0
 3748 0348 9268     		ldr	r2, [r2, #8]
 3749 034a 002A     		cmp	r2, #0
 3750 034c 3FF4FFAE 		beq	.L374
 3751              	.LBE1270:
 3752              	.LBE1272:
 3753              	.LBE1274:
 3754              	.LBE1281:
 3755              	.LBB1282:
 3756              	.LBB1283:
 3757              	.LBB1284:
 3758              	.LBB1285:
 3759              		.loc 1 46 0
 3760 0350 0022     		movs	r2, #0
 3761 0352 01E0     		b	.L377
 3762              	.LVL431:
ARM GAS  /tmp/ccwidgtl.s 			page 67


 3763              	.L381:
 3764              		.loc 1 50 0
 3765 0354 9142     		cmp	r1, r2
 3766 0356 0BD0     		beq	.L416
 3767              	.LVL432:
 3768              	.L377:
 3769              	.LBB1286:
 3770              	.LBB1287:
 3771              		.loc 2 170 0
 3772 0358 1B68     		ldr	r3, [r3]
 3773              	.LVL433:
 3774              	.LBE1287:
 3775              	.LBE1286:
 3776              		.loc 1 48 0
 3777 035a A342     		cmp	r3, r4
 3778              		.loc 1 55 0
 3779 035c 02F10102 		add	r2, r2, #1
 3780              	.LVL434:
 3781              		.loc 1 48 0
 3782 0360 F8D1     		bne	.L381
 3783              	.LVL435:
 3784              	.L380:
 3785              	.LBE1285:
 3786              	.LBE1284:
 3787              	.LBE1283:
 3788              	.LBE1282:
 3789              		.loc 1 600 0
 3790 0362 3046     		mov	r0, r6
 3791 0364 1249     		ldr	r1, .L477+12
 3792 0366 CBE6     		b	.L461
 3793              	.LVL436:
 3794              	.L375:
 3795              	.LBB1291:
 3796              	.LBB1275:
 3797              	.LBB1273:
 3798              	.LBB1271:
 3799              		.loc 1 558 0
 3800 0368 9A68     		ldr	r2, [r3, #8]
 3801 036a 002A     		cmp	r2, #0
 3802 036c 3FF4EFAE 		beq	.L374
 3803              	.L416:
 3804              	.LBE1271:
 3805              	.LBE1273:
 3806              	.LBE1275:
 3807              	.LBE1291:
 3808              	.LBB1292:
 3809              	.LBB1290:
 3810              	.LBB1289:
 3811              	.LBB1288:
 3812              		.loc 1 52 0
 3813 0370 9868     		ldr	r0, [r3, #8]
 3814              	.LBE1288:
 3815              	.LBE1289:
 3816              		.loc 1 373 0
 3817 0372 0028     		cmp	r0, #0
 3818 0374 F5D0     		beq	.L380
 3819              		.loc 1 374 0
ARM GAS  /tmp/ccwidgtl.s 			page 68


 3820 0376 FFF7FEFF 		bl	_Z13Param_LoadOnePK16Param_Definition
 3821              	.LVL437:
 3822              	.LBE1290:
 3823              	.LBE1292:
 3824              		.loc 1 594 0
 3825 037a 0028     		cmp	r0, #0
 3826 037c 7FF4BEAE 		bne	.L463
 3827 0380 EFE7     		b	.L380
 3828              	.LVL438:
 3829              	.L474:
 3830              	.LBE1295:
 3831              	.LBE1298:
 3832              	.LBE1301:
 3833              	.LBE1348:
 3834              	.LBB1349:
 3835              	.LBB1254:
 3836              	.LBB1250:
 3837              	.LBB1227:
 3838              	.LBB1225:
 3839              	.LBB1223:
 3840              		.loc 1 558 0
 3841 0382 9268     		ldr	r2, [r2, #8]
 3842 0384 002A     		cmp	r2, #0
 3843 0386 3FF4E2AE 		beq	.L374
 3844              	.LBE1223:
 3845              	.LBE1225:
 3846              	.LBE1227:
 3847              	.LBE1250:
 3848              	.LBB1251:
 3849              	.LBB1238:
 3850              	.LBB1237:
 3851              	.LBB1234:
 3852              		.loc 1 46 0
 3853 038a 0022     		movs	r2, #0
 3854 038c 02E0     		b	.L392
 3855              	.LVL439:
 3856              	.L396:
 3857              		.loc 1 50 0
 3858 038e 9142     		cmp	r1, r2
 3859 0390 3FF4A4AE 		beq	.L417
 3860              	.LVL440:
 3861              	.L392:
 3862              	.LBB1232:
 3863              	.LBB1233:
 3864              		.loc 2 170 0
 3865 0394 1B68     		ldr	r3, [r3]
 3866              	.LVL441:
 3867              	.LBE1233:
 3868              	.LBE1232:
 3869              		.loc 1 48 0
 3870 0396 A342     		cmp	r3, r4
 3871              		.loc 1 55 0
 3872 0398 02F10102 		add	r2, r2, #1
 3873              	.LVL442:
 3874              		.loc 1 48 0
 3875 039c F7D1     		bne	.L396
 3876              	.LVL443:
ARM GAS  /tmp/ccwidgtl.s 			page 69


 3877              	.L395:
 3878              	.LBE1234:
 3879              	.LBE1237:
 3880              	.LBE1238:
 3881              	.LBE1251:
 3882              		.loc 1 631 0
 3883 039e 3046     		mov	r0, r6
 3884 03a0 0449     		ldr	r1, .L477+16
 3885 03a2 ADE6     		b	.L461
 3886              	.L478:
 3887              		.align	2
 3888              	.L477:
 3889 03a4 00000000 		.word	.LANCHOR17
 3890 03a8 70000000 		.word	.LANCHOR1+112
 3891 03ac 00000000 		.word	.LANCHOR2
 3892 03b0 00000000 		.word	.LANCHOR14
 3893 03b4 00000000 		.word	.LANCHOR16
 3894              	.LBE1254:
 3895              	.LBE1349:
 3896              		.cfi_endproc
 3897              	.LFE1153:
 3898              		.size	_Z14Param_ShellCmdP20BaseSequentialStreamiPPc, .-_Z14Param_ShellCmdP20BaseSequentialStreamiP
 3899              		.section	.text._Z21Param_Shell_EnumerateP20BaseSequentialStreamb,"ax",%progbits
 3900              		.align	1
 3901              		.p2align 2,,3
 3902              		.global	_Z21Param_Shell_EnumerateP20BaseSequentialStreamb
 3903              		.syntax unified
 3904              		.thumb
 3905              		.thumb_func
 3906              		.fpu fpv4-sp-d16
 3907              		.type	_Z21Param_Shell_EnumerateP20BaseSequentialStreamb, %function
 3908              	_Z21Param_Shell_EnumerateP20BaseSequentialStreamb:
 3909              	.LFB1146:
 3910              		.loc 1 529 0
 3911              		.cfi_startproc
 3912              		@ args = 0, pretend = 0, frame = 0
 3913              		@ frame_needed = 0, uses_anonymous_args = 0
 3914              	.LVL444:
 3915 0000 F8B5     		push	{r3, r4, r5, r6, r7, lr}
 3916              		.cfi_def_cfa_offset 24
 3917              		.cfi_offset 3, -24
 3918              		.cfi_offset 4, -20
 3919              		.cfi_offset 5, -16
 3920              		.cfi_offset 6, -12
 3921              		.cfi_offset 7, -8
 3922              		.cfi_offset 14, -4
 3923              	.LBB1350:
 3924              	.LBB1351:
 3925              	.LBB1352:
 3926              	.LBB1353:
 3927              		.loc 2 364 0
 3928 0002 084F     		ldr	r7, .L487
 3929              	.LBE1353:
 3930              	.LBE1352:
 3931              	.LBE1351:
 3932              		.loc 1 530 0
 3933 0004 BB68     		ldr	r3, [r7, #8]
ARM GAS  /tmp/ccwidgtl.s 			page 70


 3934 0006 5BB1     		cbz	r3, .L479
 3935 0008 0E46     		mov	r6, r1
 3936 000a 0546     		mov	r5, r0
 3937 000c 0024     		movs	r4, #0
 3938              	.LVL445:
 3939              	.L481:
 3940              		.loc 1 532 0 discriminator 2
 3941 000e 2146     		mov	r1, r4
 3942 0010 3246     		mov	r2, r6
 3943 0012 2846     		mov	r0, r5
 3944 0014 FFF7FEFF 		bl	_Z25Param_Shell_Enumerate_OneP20BaseSequentialStreamjb
 3945              	.LVL446:
 3946              		.loc 1 530 0 discriminator 2
 3947 0018 BB68     		ldr	r3, [r7, #8]
 3948 001a 0134     		adds	r4, r4, #1
 3949              	.LVL447:
 3950 001c A342     		cmp	r3, r4
 3951 001e F6D8     		bhi	.L481
 3952              	.LVL448:
 3953              	.L479:
 3954              	.LBE1350:
 3955              		.loc 1 534 0
 3956 0020 F8BD     		pop	{r3, r4, r5, r6, r7, pc}
 3957              	.L488:
 3958 0022 00BF     		.align	2
 3959              	.L487:
 3960 0024 00000000 		.word	.LANCHOR2
 3961              		.cfi_endproc
 3962              	.LFE1146:
 3963              		.size	_Z21Param_Shell_EnumerateP20BaseSequentialStreamb, .-_Z21Param_Shell_EnumerateP20BaseSequent
 3964              		.section	.text.startup._GLOBAL__sub_I__Z16Param_getDefByIDj,"ax",%progbits
 3965              		.align	1
 3966              		.p2align 2,,3
 3967              		.syntax unified
 3968              		.thumb
 3969              		.thumb_func
 3970              		.fpu fpv4-sp-d16
 3971              		.type	_GLOBAL__sub_I__Z16Param_getDefByIDj, %function
 3972              	_GLOBAL__sub_I__Z16Param_getDefByIDj:
 3973              	.LFB1240:
 3974              		.loc 1 788 0
 3975              		.cfi_startproc
 3976              		@ args = 0, pretend = 0, frame = 0
 3977              		@ frame_needed = 0, uses_anonymous_args = 0
 3978              	.LVL449:
 3979 0000 10B5     		push	{r4, lr}
 3980              		.cfi_def_cfa_offset 8
 3981              		.cfi_offset 4, -8
 3982              		.cfi_offset 14, -4
 3983              	.LBB1365:
 3984              	.LBB1366:
 3985              		.loc 1 40 0
 3986 0002 1720     		movs	r0, #23
 3987 0004 FFF7FEFF 		bl	Flash_SectorBegin
 3988              	.LVL450:
 3989              	.LBB1367:
 3990              	.LBB1368:
ARM GAS  /tmp/ccwidgtl.s 			page 71


 3991              	.LBB1369:
 3992              	.LBB1370:
 3993              	.LBB1371:
 3994              		.loc 2 333 0
 3995 0008 064B     		ldr	r3, .L491
 3996              	.LBE1371:
 3997              	.LBE1370:
 3998              	.LBE1369:
 3999              	.LBE1368:
 4000              	.LBE1367:
 4001              		.loc 1 40 0
 4002 000a 074A     		ldr	r2, .L491+4
 4003              		.loc 1 42 0
 4004 000c 0749     		ldr	r1, .L491+8
 4005              		.loc 1 40 0
 4006 000e 1060     		str	r0, [r2]
 4007              	.LVL451:
 4008              	.LBB1378:
 4009              	.LBB1377:
 4010              	.LBB1374:
 4011              	.LBB1375:
 4012              		.loc 2 451 0
 4013 0010 C3E90033 		strd	r3, r3, [r3]
 4014              	.LBE1375:
 4015              	.LBE1374:
 4016              	.LBB1376:
 4017              	.LBB1373:
 4018              	.LBB1372:
 4019              		.loc 2 333 0
 4020 0014 0024     		movs	r4, #0
 4021 0016 9C60     		str	r4, [r3, #8]
 4022              	.LVL452:
 4023              	.LBE1372:
 4024              	.LBE1373:
 4025              	.LBE1376:
 4026              	.LBE1377:
 4027              	.LBE1378:
 4028              		.loc 1 42 0
 4029 0018 1846     		mov	r0, r3
 4030 001a 054A     		ldr	r2, .L491+12
 4031              	.LBE1366:
 4032              	.LBE1365:
 4033              		.loc 1 788 0
 4034 001c BDE81040 		pop	{r4, lr}
 4035              		.cfi_restore 14
 4036              		.cfi_restore 4
 4037              		.cfi_def_cfa_offset 0
 4038              	.LBB1380:
 4039              	.LBB1379:
 4040              		.loc 1 42 0
 4041 0020 FFF7FEBF 		b	__aeabi_atexit
 4042              	.LVL453:
 4043              	.L492:
 4044              		.align	2
 4045              	.L491:
 4046 0024 00000000 		.word	.LANCHOR2
 4047 0028 00000000 		.word	.LANCHOR9
ARM GAS  /tmp/ccwidgtl.s 			page 72


 4048 002c 00000000 		.word	_ZNSt7__cxx114listIPK16Param_DefinitionSaIS3_EED1Ev
 4049 0030 00000000 		.word	__dso_handle
 4050              	.LBE1379:
 4051              	.LBE1380:
 4052              		.cfi_endproc
 4053              	.LFE1240:
 4054              		.size	_GLOBAL__sub_I__Z16Param_getDefByIDj, .-_GLOBAL__sub_I__Z16Param_getDefByIDj
 4055              		.section	.init_array,"aw",%init_array
 4056              		.align	2
 4057 0000 00000000 		.word	_GLOBAL__sub_I__Z16Param_getDefByIDj(target1)
 4058              		.global	g_Persistence_ShellCommand
 4059              		.section	.bss._ZL19p_PARAM_FLASH_START,"aw",%nobits
 4060              		.align	2
 4061              		.set	.LANCHOR9,. + 0
 4062              		.type	_ZL19p_PARAM_FLASH_START, %object
 4063              		.size	_ZL19p_PARAM_FLASH_START, 4
 4064              	_ZL19p_PARAM_FLASH_START:
 4065 0000 00000000 		.space	4
 4066              		.section	.bss._ZL6params,"aw",%nobits
 4067              		.align	2
 4068              		.set	.LANCHOR2,. + 0
 4069              		.type	_ZL6params, %object
 4070              		.size	_ZL6params, 12
 4071              	_ZL6params:
 4072 0000 00000000 		.space	12
 4072      00000000 
 4072      00000000 
 4073              		.section	.bss._ZZ13Param_LoadAllvE5count,"aw",%nobits
 4074              		.align	2
 4075              		.set	.LANCHOR11,. + 0
 4076              		.type	_ZZ13Param_LoadAllvE5count, %object
 4077              		.size	_ZZ13Param_LoadAllvE5count, 4
 4078              	_ZZ13Param_LoadAllvE5count:
 4079 0000 00000000 		.space	4
 4080              		.section	.bss._ZZ13Param_LoadOnePK16Param_DefinitionE7p_param,"aw",%nobits
 4081              		.align	2
 4082              		.set	.LANCHOR10,. + 0
 4083              		.type	_ZZ13Param_LoadOnePK16Param_DefinitionE7p_param, %object
 4084              		.size	_ZZ13Param_LoadOnePK16Param_DefinitionE7p_param, 4
 4085              	_ZZ13Param_LoadOnePK16Param_DefinitionE7p_param:
 4086 0000 00000000 		.space	4
 4087              		.section	.bss._ZZL18Param_ShellCmd_setP20BaseSequentialStreamiPPcbE5index,"aw",%nobits
 4088              		.align	2
 4089              		.set	.LANCHOR0,. + 0
 4090              		.type	_ZZL18Param_ShellCmd_setP20BaseSequentialStreamiPPcbE5index, %object
 4091              		.size	_ZZL18Param_ShellCmd_setP20BaseSequentialStreamiPPcbE5index, 4
 4092              	_ZZL18Param_ShellCmd_setP20BaseSequentialStreamiPPcbE5index:
 4093 0000 00000000 		.space	4
 4094              		.section	.bss._ZZL19Param_ShellCmd_listP20BaseSequentialStreamiPPcbE2id,"aw",%nobits
 4095              		.align	2
 4096              		.set	.LANCHOR17,. + 0
 4097              		.type	_ZZL19Param_ShellCmd_listP20BaseSequentialStreamiPPcbE2id, %object
 4098              		.size	_ZZL19Param_ShellCmd_listP20BaseSequentialStreamiPPcbE2id, 4
 4099              	_ZZL19Param_ShellCmd_listP20BaseSequentialStreamiPPcbE2id:
 4100 0000 00000000 		.space	4
 4101              		.section	.bss._ZZL19Param_ShellCmd_loadP20BaseSequentialStreamiPPcE2id,"aw",%nobits
 4102              		.align	2
ARM GAS  /tmp/ccwidgtl.s 			page 73


 4103              		.set	.LANCHOR13,. + 0
 4104              		.type	_ZZL19Param_ShellCmd_loadP20BaseSequentialStreamiPPcE2id, %object
 4105              		.size	_ZZL19Param_ShellCmd_loadP20BaseSequentialStreamiPPcE2id, 4
 4106              	_ZZL19Param_ShellCmd_loadP20BaseSequentialStreamiPPcE2id:
 4107 0000 00000000 		.space	4
 4108              		.section	.bss._ZZL20Param_ShellCmd_resetP20BaseSequentialStreamiPPcE2id,"aw",%nobits
 4109              		.align	2
 4110              		.set	.LANCHOR15,. + 0
 4111              		.type	_ZZL20Param_ShellCmd_resetP20BaseSequentialStreamiPPcE2id, %object
 4112              		.size	_ZZL20Param_ShellCmd_resetP20BaseSequentialStreamiPPcE2id, 4
 4113              	_ZZL20Param_ShellCmd_resetP20BaseSequentialStreamiPPcE2id:
 4114 0000 00000000 		.space	4
 4115              		.section	.rodata._Z10Param_InitPK16Param_Definition.str1.4,"aMS",%progbits,1
 4116              		.align	2
 4117              	.LC5:
 4118 0000 70657273 		.ascii	"persistence init\000"
 4118      69737465 
 4118      6E636520 
 4118      696E6974 
 4118      00
 4119              		.section	.rodata._Z10Param_Savev.str1.4,"aMS",%progbits,1
 4120              		.align	2
 4121              	.LC6:
 4122 0000 70657273 		.ascii	"persistence save\000"
 4122      69737465 
 4122      6E636520 
 4122      73617665 
 4122      00
 4123 0011 000000   		.space	3
 4124              	.LC7:
 4125 0014 70657273 		.ascii	"persistence save finished\000"
 4125      69737465 
 4125      6E636520 
 4125      73617665 
 4125      2066696E 
 4126 002e 0000     		.space	2
 4127              	.LC8:
 4128 0030 70657273 		.ascii	"persistence save failed\000"
 4128      69737465 
 4128      6E636520 
 4128      73617665 
 4128      20666169 
 4129              		.section	.rodata._Z13Param_LoadAllv.str1.4,"aMS",%progbits,1
 4130              		.align	2
 4131              	.LC9:
 4132 0000 70657273 		.ascii	"persistence load\000"
 4132      69737465 
 4132      6E636520 
 4132      6C6F6164 
 4132      00
 4133 0011 000000   		.space	3
 4134              	.LC10:
 4135 0014 25732573 		.ascii	"%s%s not in flash\000"
 4135      206E6F74 
 4135      20696E20 
 4135      666C6173 
 4135      6800
ARM GAS  /tmp/ccwidgtl.s 			page 74


 4136 0026 0000     		.space	2
 4137              	.LC11:
 4138 0028 2573206E 		.ascii	"%s not in flash\000"
 4138      6F742069 
 4138      6E20666C 
 4138      61736800 
 4139              	.LC12:
 4140 0038 70657273 		.ascii	"persistence load finished\000"
 4140      69737465 
 4140      6E636520 
 4140      6C6F6164 
 4140      2066696E 
 4141 0052 0000     		.space	2
 4142              	.LC13:
 4143 0054 70657273 		.ascii	"persistence flash empty\000"
 4143      69737465 
 4143      6E636520 
 4143      666C6173 
 4143      6820656D 
 4144              		.section	.rodata._Z14Param_ShellCmdP20BaseSequentialStreamiPPc.str1.4,"aMS",%progbits,1
 4145              		.align	2
 4146              	.LC21:
 4147 0000 73617665 		.ascii	"save\000"
 4147      00
 4148 0005 000000   		.space	3
 4149              	.LC22:
 4150 0008 6C6F6164 		.ascii	"load\000"
 4150      00
 4151 000d 000000   		.space	3
 4152              	.LC23:
 4153 0010 616C6C00 		.ascii	"all\000"
 4154              	.LC24:
 4155 0014 6C6F6164 		.ascii	"loaded %d/%d paramters\015\012\000"
 4155      65642025 
 4155      642F2564 
 4155      20706172 
 4155      616D7465 
 4156 002d 000000   		.space	3
 4157              	.LC25:
 4158 0030 72657365 		.ascii	"reset\000"
 4158      7400
 4159 0036 0000     		.space	2
 4160              	.LC26:
 4161 0038 73657400 		.ascii	"set\000"
 4162              	.LC27:
 4163 003c 6C697374 		.ascii	"list\000"
 4163      00
 4164 0041 000000   		.space	3
 4165              	.LC28:
 4166 0044 54736574 		.ascii	"Tset\000"
 4166      00
 4167 0049 000000   		.space	3
 4168              	.LC29:
 4169 004c 546C6973 		.ascii	"Tlist\000"
 4169      7400
 4170 0052 0000     		.space	2
 4171              	.LC30:
ARM GAS  /tmp/ccwidgtl.s 			page 75


 4172 0054 73617665 		.ascii	"save all parameters to the flash.\000"
 4172      20616C6C 
 4172      20706172 
 4172      616D6574 
 4172      65727320 
 4173 0076 0000     		.space	2
 4174              	.LC31:
 4175 0078 75736167 		.ascii	"usage: param<command> [<args>]\015\012commands:\015"
 4175      653A2070 
 4175      6172616D 
 4175      3C636F6D 
 4175      6D616E64 
 4176 00a2 0A09252D 		.ascii	"\012\011%-28s\011%s\015\012\011%-28s\011%s\015\012\011"
 4176      32387309 
 4176      25730D0A 
 4176      09252D32 
 4176      38730925 
 4177 00ba 252D3238 		.ascii	"%-28s\011%s\015\012\011%-28s\011%s\015\012\011%-28s"
 4177      73092573 
 4177      0D0A0925 
 4177      2D323873 
 4177      0925730D 
 4178 00d5 0925730D 		.ascii	"\011%s\015\012\011%-28s\011%s\015\012\011%-28s\011%"
 4178      0A09252D 
 4178      32387309 
 4178      25730D0A 
 4178      09252D32 
 4179 00ed 730D0A00 		.ascii	"s\015\012\000"
 4180 00f1 000000   		.space	3
 4181              	.LC32:
 4182 00f4 73657420 		.ascii	"set one paramter to its default value.\000"
 4182      6F6E6520 
 4182      70617261 
 4182      6D746572 
 4182      20746F20 
 4183 011b 00       		.space	1
 4184              	.LC33:
 4185 011c 72657365 		.ascii	"reset [id]\000"
 4185      74205B69 
 4185      645D00
 4186 0127 00       		.space	1
 4187              	.LC34:
 4188 0128 73657420 		.ascii	"set all paramter to their default value if defined."
 4188      616C6C20 
 4188      70617261 
 4188      6D746572 
 4188      20746F20 
 4189 015b 00       		.ascii	"\000"
 4190              	.LC35:
 4191 015c 72657365 		.ascii	"reset all\000"
 4191      7420616C 
 4191      6C00
 4192 0166 0000     		.space	2
 4193              	.LC36:
 4194 0168 73657420 		.ascii	"set a paramter to certain value.\000"
 4194      61207061 
 4194      72616D74 
ARM GAS  /tmp/ccwidgtl.s 			page 76


 4194      65722074 
 4194      6F206365 
 4195 0189 000000   		.space	3
 4196              	.LC37:
 4197 018c 73657420 		.ascii	"set [id] [value]\000"
 4197      5B69645D 
 4197      205B7661 
 4197      6C75655D 
 4197      00
 4198 019d 000000   		.space	3
 4199              	.LC38:
 4200 01a0 6C697374 		.ascii	"list one or all parameters' properties and their cu"
 4200      206F6E65 
 4200      206F7220 
 4200      616C6C20 
 4200      70617261 
 4201 01d3 7272656E 		.ascii	"rrent value.\000"
 4201      74207661 
 4201      6C75652E 
 4201      00
 4202              	.LC39:
 4203 01e0 6C697374 		.ascii	"list [id]\000"
 4203      205B6964 
 4203      5D00
 4204 01ea 0000     		.space	2
 4205              	.LC40:
 4206 01ec 6C6F6164 		.ascii	"load all parameters from flash if CRC check valid\000"
 4206      20616C6C 
 4206      20706172 
 4206      616D6574 
 4206      65727320 
 4207 021e 0000     		.space	2
 4208              	.LC41:
 4209 0220 6C6F6164 		.ascii	"load all\000"
 4209      20616C6C 
 4209      00
 4210 0229 000000   		.space	3
 4211              	.LC42:
 4212 022c 6C6F6164 		.ascii	"load one parameters from flash if CRC check valid\000"
 4212      206F6E65 
 4212      20706172 
 4212      616D6574 
 4212      65727320 
 4213 025e 0000     		.space	2
 4214              	.LC43:
 4215 0260 6C6F6164 		.ascii	"load [id]\000"
 4215      205B6964 
 4215      5D00
 4216              		.section	.rodata._Z21paramSerializerNumberImEvP20BaseSequentialStreamPK24Param_DataTypeDefinitionP
 4217              		.align	2
 4218              	.LC0:
 4219 0000 256C6400 		.ascii	"%ld\000"
 4220              		.section	.rodata._Z25Param_Shell_Enumerate_OneP20BaseSequentialStreamjb.str1.4,"aMS",%progbits,1
 4221              		.align	2
 4222              	.LC14:
 4223 0000 0D0A00   		.ascii	"\015\012\000"
 4224 0003 00       		.space	1
ARM GAS  /tmp/ccwidgtl.s 			page 77


 4225              	.LC15:
 4226 0004 2564202D 		.ascii	"%d - %s%s\000"
 4226      20257325 
 4226      7300
 4227 000e 0000     		.space	2
 4228              	.LC16:
 4229 0010 2564202D 		.ascii	"%d - %s\000"
 4229      20257300 
 4230              	.LC17:
 4231 0018 205B2573 		.ascii	" [%s]\000"
 4231      5D00
 4232 001e 0000     		.space	2
 4233              	.LC18:
 4234 0020 205B6465 		.ascii	" [default value: \000"
 4234      6661756C 
 4234      74207661 
 4234      6C75653A 
 4234      2000
 4235 0032 0000     		.space	2
 4236              	.LC19:
 4237 0034 25303278 		.ascii	"%02x\000"
 4237      00
 4238 0039 000000   		.space	3
 4239              	.LC20:
 4240 003c 0D0A3D20 		.ascii	"\015\012= \000"
 4240      00
 4241              		.section	.rodata._Z9Param_addRK16Param_Definition.str1.4,"aMS",%progbits,1
 4242              		.align	2
 4243              	.LC1:
 4244 0000 50657273 		.ascii	"Persistence: Unnamed parameter found\000"
 4244      69737465 
 4244      6E63653A 
 4244      20556E6E 
 4244      616D6564 
 4245 0025 000000   		.space	3
 4246              	.LC2:
 4247 0028 50657273 		.ascii	"Persistence: Parameter name too short, check PARAM_"
 4247      69737465 
 4247      6E63653A 
 4247      20506172 
 4247      616D6574 
 4248 005b 4D494E5F 		.ascii	"MIN_NAME_LENGTH\000"
 4248      4E414D45 
 4248      5F4C454E 
 4248      47544800 
 4249 006b 00       		.space	1
 4250              	.LC3:
 4251 006c 50657273 		.ascii	"Persistence: Parameter name too long, length<256\000"
 4251      69737465 
 4251      6E63653A 
 4251      20506172 
 4251      616D6574 
 4252 009d 000000   		.space	3
 4253              	.LC4:
 4254 00a0 50657273 		.ascii	"Persistence: Parameters with same name!\000"
 4254      69737465 
 4254      6E63653A 
ARM GAS  /tmp/ccwidgtl.s 			page 78


 4254      20506172 
 4254      616D6574 
 4255              		.section	.rodata._ZL15Param_StrNoSave,"a",%progbits
 4256              		.align	2
 4257              		.set	.LANCHOR14,. + 0
 4258              		.type	_ZL15Param_StrNoSave, %object
 4259              		.size	_ZL15Param_StrNoSave, 21
 4260              	_ZL15Param_StrNoSave:
 4261 0000 4552523A 		.ascii	"ERR: no valid save\015\012\000"
 4261      206E6F20 
 4261      76616C69 
 4261      64207361 
 4261      76650D0A 
 4262              		.section	.rodata._ZL16Param_StrSuccess,"a",%progbits
 4263              		.align	2
 4264              		.set	.LANCHOR3,. + 0
 4265              		.type	_ZL16Param_StrSuccess, %object
 4266              		.size	_ZL16Param_StrSuccess, 11
 4267              	_ZL16Param_StrSuccess:
 4268 0000 53554343 		.ascii	"SUCCESS.\015\012\000"
 4268      4553532E 
 4268      0D0A00
 4269              		.section	.rodata._ZL17Param_StrParserNA,"a",%progbits
 4270              		.align	2
 4271              		.set	.LANCHOR6,. + 0
 4272              		.type	_ZL17Param_StrParserNA, %object
 4273              		.size	_ZL17Param_StrParserNA, 46
 4274              	_ZL17Param_StrParserNA:
 4275 0000 4552523A 		.ascii	"ERR: Parser not available for this paramter\015\012"
 4275      20506172 
 4275      73657220 
 4275      6E6F7420 
 4275      61766169 
 4276 002d 00       		.ascii	"\000"
 4277              		.section	.rodata._ZL18Param_DataTypeDefs,"a",%progbits
 4278              		.align	2
 4279              		.set	.LANCHOR1,. + 0
 4280              		.type	_ZL18Param_DataTypeDefs, %object
 4281              		.size	_ZL18Param_DataTypeDefs, 144
 4282              	_ZL18Param_DataTypeDefs:
 4283 0000 08000000 		.word	.LC45
 4284 0004 04000000 		.word	4
 4285 0008 00000000 		.word	_Z18paramSerializer_fpP20BaseSequentialStreamPK24Param_DataTypeDefinitionPKv
 4286 000c 00000000 		.word	_Z14paramParser_fpPK24Param_DataTypeDefinitionPKcPv
 4287 0010 10000000 		.word	.LC46
 4288 0014 08000000 		.word	8
 4289 0018 00000000 		.word	_Z18paramSerializer_fpP20BaseSequentialStreamPK24Param_DataTypeDefinitionPKv
 4290 001c 00000000 		.word	_Z14paramParser_fpPK24Param_DataTypeDefinitionPKcPv
 4291 0020 18000000 		.word	.LC47
 4292 0024 01000000 		.word	1
 4293 0028 00000000 		.word	_Z21paramSerializerNumberIaEvP20BaseSequentialStreamPK24Param_DataTypeDefinitionPKv
 4294 002c 00000000 		.word	_Z21paramParser_signedIntPK24Param_DataTypeDefinitionPKcPv
 4295 0030 20000000 		.word	.LC48
 4296 0034 01000000 		.word	1
 4297 0038 00000000 		.word	_Z21paramSerializerNumberIhEvP20BaseSequentialStreamPK24Param_DataTypeDefinitionPKv
 4298 003c 00000000 		.word	_Z23paramParser_unsignedIntPK24Param_DataTypeDefinitionPKcPv
 4299 0040 28000000 		.word	.LC49
ARM GAS  /tmp/ccwidgtl.s 			page 79


 4300 0044 02000000 		.word	2
 4301 0048 00000000 		.word	_Z21paramSerializerNumberIsEvP20BaseSequentialStreamPK24Param_DataTypeDefinitionPKv
 4302 004c 00000000 		.word	_Z21paramParser_signedIntPK24Param_DataTypeDefinitionPKcPv
 4303 0050 30000000 		.word	.LC50
 4304 0054 02000000 		.word	2
 4305 0058 00000000 		.word	_Z21paramSerializerNumberItEvP20BaseSequentialStreamPK24Param_DataTypeDefinitionPKv
 4306 005c 00000000 		.word	_Z23paramParser_unsignedIntPK24Param_DataTypeDefinitionPKcPv
 4307 0060 38000000 		.word	.LC51
 4308 0064 04000000 		.word	4
 4309 0068 00000000 		.word	_Z21paramSerializerNumberIlEvP20BaseSequentialStreamPK24Param_DataTypeDefinitionPKv
 4310 006c 00000000 		.word	_Z21paramParser_signedIntPK24Param_DataTypeDefinitionPKcPv
 4311 0070 40000000 		.word	.LC52
 4312 0074 04000000 		.word	4
 4313 0078 00000000 		.word	_Z21paramSerializerNumberImEvP20BaseSequentialStreamPK24Param_DataTypeDefinitionPKv
 4314 007c 00000000 		.word	_Z23paramParser_unsignedIntPK24Param_DataTypeDefinitionPKcPv
 4315 0080 48000000 		.word	.LC53
 4316 0084 01000000 		.word	1
 4317 0088 00000000 		.word	_Z20paramSerializer_boolP20BaseSequentialStreamPK24Param_DataTypeDefinitionPKv
 4318 008c 00000000 		.word	_Z16paramParser_boolPK24Param_DataTypeDefinitionPKcPv
 4319              		.section	.rodata._ZL18Param_StrNoDefault,"a",%progbits
 4320              		.align	2
 4321              		.set	.LANCHOR16,. + 0
 4322              		.type	_ZL18Param_StrNoDefault, %object
 4323              		.size	_ZL18Param_StrNoDefault, 51
 4324              	_ZL18Param_StrNoDefault:
 4325 0000 4552523A 		.ascii	"ERR: No default value defined for this parameter\015"
 4325      204E6F20 
 4325      64656661 
 4325      756C7420 
 4325      76616C75 
 4326 0031 0A00     		.ascii	"\012\000"
 4327              		.section	.rodata._ZL18Param_StrSaveError,"a",%progbits
 4328              		.align	2
 4329              		.set	.LANCHOR12,. + 0
 4330              		.type	_ZL18Param_StrSaveError, %object
 4331              		.size	_ZL18Param_StrSaveError, 21
 4332              	_ZL18Param_StrSaveError:
 4333 0000 4552523A 		.ascii	"ERR: Saving failed\015\012\000"
 4333      20536176 
 4333      696E6720 
 4333      6661696C 
 4333      65640D0A 
 4334              		.section	.rodata._ZL20Param_StrHexNotMatch,"a",%progbits
 4335              		.align	2
 4336              		.set	.LANCHOR7,. + 0
 4337              		.type	_ZL20Param_StrHexNotMatch, %object
 4338              		.size	_ZL20Param_StrHexNotMatch, 47
 4339              	_ZL20Param_StrHexNotMatch:
 4340 0000 4552523A 		.ascii	"ERR: HEX number doesn't match this parameter\015\012"
 4340      20484558 
 4340      206E756D 
 4340      62657220 
 4340      646F6573 
 4341 002e 00       		.ascii	"\000"
 4342              		.section	.rodata._ZL21Param_StrIndexInvalid,"a",%progbits
 4343              		.align	2
 4344              		.set	.LANCHOR8,. + 0
ARM GAS  /tmp/ccwidgtl.s 			page 80


 4345              		.type	_ZL21Param_StrIndexInvalid, %object
 4346              		.size	_ZL21Param_StrIndexInvalid, 27
 4347              	_ZL21Param_StrIndexInvalid:
 4348 0000 4552523A 		.ascii	"ERR: Invalid param index\015\012\000"
 4348      20496E76 
 4348      616C6964 
 4348      20706172 
 4348      616D2069 
 4349              		.section	.rodata._ZL21Param_StrValueInvalid,"a",%progbits
 4350              		.align	2
 4351              		.set	.LANCHOR4,. + 0
 4352              		.type	_ZL21Param_StrValueInvalid, %object
 4353              		.size	_ZL21Param_StrValueInvalid, 31
 4354              	_ZL21Param_StrValueInvalid:
 4355 0000 4552523A 		.ascii	"ERR: Input value invalidated\015\012\000"
 4355      20496E70 
 4355      75742076 
 4355      616C7565 
 4355      20696E76 
 4356              		.section	.rodata._ZL22Param_StrFormatInvalid,"a",%progbits
 4357              		.align	2
 4358              		.set	.LANCHOR5,. + 0
 4359              		.type	_ZL22Param_StrFormatInvalid, %object
 4360              		.size	_ZL22Param_StrFormatInvalid, 35
 4361              	_ZL22Param_StrFormatInvalid:
 4362 0000 4552523A 		.ascii	"ERR: Invalid input string format\015\012\000"
 4362      20496E76 
 4362      616C6964 
 4362      20696E70 
 4362      75742073 
 4363              		.section	.rodata.g_Persistence_ShellCommand,"a",%progbits
 4364              		.align	2
 4365              		.type	g_Persistence_ShellCommand, %object
 4366              		.size	g_Persistence_ShellCommand, 8
 4367              	g_Persistence_ShellCommand:
 4368 0000 00000000 		.word	.LC44
 4369 0004 00000000 		.word	_Z14Param_ShellCmdP20BaseSequentialStreamiPPc
 4370              		.section	.rodata.str1.4,"aMS",%progbits,1
 4371              		.align	2
 4372              	.LC44:
 4373 0000 70617261 		.ascii	"param\000"
 4373      6D00
 4374 0006 0000     		.space	2
 4375              	.LC45:
 4376 0008 666C6F61 		.ascii	"float\000"
 4376      7400
 4377 000e 0000     		.space	2
 4378              	.LC46:
 4379 0010 646F7562 		.ascii	"double\000"
 4379      6C6500
 4380 0017 00       		.space	1
 4381              	.LC47:
 4382 0018 696E7438 		.ascii	"int8\000"
 4382      00
 4383 001d 000000   		.space	3
 4384              	.LC48:
 4385 0020 75696E74 		.ascii	"uint8\000"
ARM GAS  /tmp/ccwidgtl.s 			page 81


 4385      3800
 4386 0026 0000     		.space	2
 4387              	.LC49:
 4388 0028 696E7431 		.ascii	"int16\000"
 4388      3600
 4389 002e 0000     		.space	2
 4390              	.LC50:
 4391 0030 75696E74 		.ascii	"uint16\000"
 4391      313600
 4392 0037 00       		.space	1
 4393              	.LC51:
 4394 0038 696E7433 		.ascii	"int32\000"
 4394      3200
 4395 003e 0000     		.space	2
 4396              	.LC52:
 4397 0040 75696E74 		.ascii	"uint32\000"
 4397      333200
 4398 0047 00       		.space	1
 4399              	.LC53:
 4400 0048 626F6F6C 		.ascii	"bool\000"
 4400      00
 4401              		.text
 4402              	.Letext0:
 4403              		.file 5 "/usr/lib/gcc/arm-none-eabi/7.3.1/include/stddef.h"
 4404              		.file 6 "/usr/arm-none-eabi/include/machine/_default_types.h"
 4405              		.file 7 "/usr/arm-none-eabi/include/sys/_stdint.h"
 4406              		.file 8 "./RM18A-ChibiOS18-Core/chibios/os/common/ports/ARMCMx/compilers/GCC/chtypes.h"
 4407              		.file 9 "./RM18A-ChibiOS18-Core/chibios/os/rt/include/chsystypes.h"
 4408              		.file 10 "./RM18A-ChibiOS18-Core/chibios/os/rt/include/chschd.h"
 4409              		.file 11 "./RM18A-ChibiOS18-Core/chibios/os/rt/include/chtime.h"
 4410              		.file 12 "./RM18A-ChibiOS18-Core/chibios/os/common/ext/ARM/CMSIS/Core/Include/core_cm4.h"
 4411              		.file 13 "./RM18A-ChibiOS18-Core/chibios/os/common/ext/ST/STM32F4xx/system_stm32f4xx.h"
 4412              		.file 14 "./RM18A-ChibiOS18-Core/chibios/os/common/ext/ST/STM32F4xx/stm32f427xx.h"
 4413              		.file 15 "./RM18A-ChibiOS18-Core/chibios/os/common/ports/ARMCMx/chcore.h"
 4414              		.file 16 "./RM18A-ChibiOS18-Core/chibios/os/common/ports/ARMCMx/chcore_v7m.h"
 4415              		.file 17 "./RM18A-ChibiOS18-Core/chibios/os/hal/ports/STM32/LLD/TIMv1/stm32_tim.h"
 4416              		.file 18 "./RM18A-ChibiOS18-Core/chibios/os/rt/include/chtm.h"
 4417              		.file 19 "./RM18A-ChibiOS18-Core/chibios/os/rt/include/chsem.h"
 4418              		.file 20 "./RM18A-ChibiOS18-Core/chibios/os/rt/include/chmtx.h"
 4419              		.file 21 "./RM18A-ChibiOS18-Core/chibios/os/rt/include/chsys.h"
 4420              		.file 22 "./RM18A-ChibiOS18-Core/chibios/os/rt/include/chregistry.h"
 4421              		.file 23 "./RM18A-ChibiOS18-Core/chibios/os/rt/include/chevents.h"
 4422              		.file 24 "./RM18A-ChibiOS18-Core/chibios/os/oslib/include/chmemcore.h"
 4423              		.file 25 "./RM18A-ChibiOS18-Core/chibios/os/oslib/include/chmempools.h"
 4424              		.file 26 "./RM18A-ChibiOS18-Core/chibios/os/oslib/include/chfactory.h"
 4425              		.file 27 "./RM18A-ChibiOS18-Core/chibios/os/hal/ports/STM32/LLD/DMAv2/stm32_dma.h"
 4426              		.file 28 "./RM18A-ChibiOS18-Core/chibios/os/hal/include/hal_streams.h"
 4427              		.file 29 "./RM18A-ChibiOS18-Core/chibios/os/hal/include/hal_buffers.h"
 4428              		.file 30 "./RM18A-ChibiOS18-Core/chibios/os/hal/include/hal_queues.h"
 4429              		.file 31 "./RM18A-ChibiOS18-Core/chibios/os/hal/include/hal_pal.h"
 4430              		.file 32 "./RM18A-ChibiOS18-Core/chibios/os/hal/ports/STM32/LLD/GPIOv2/stm32_gpio.h"
 4431              		.file 33 "./RM18A-ChibiOS18-Core/chibios/os/hal/ports/STM32/LLD/GPIOv2/hal_pal_lld.h"
 4432              		.file 34 "./RM18A-ChibiOS18-Core/chibios/os/hal/include/hal_adc.h"
 4433              		.file 35 "./RM18A-ChibiOS18-Core/chibios/os/hal/ports/STM32/LLD/ADCv2/hal_adc_lld.h"
 4434              		.file 36 "./RM18A-ChibiOS18-Core/chibios/os/hal/include/hal_can.h"
 4435              		.file 37 "./RM18A-ChibiOS18-Core/chibios/os/hal/ports/STM32/LLD/CANv1/hal_can_lld.h"
 4436              		.file 38 "./RM18A-ChibiOS18-Core/chibios/os/hal/include/hal_i2c.h"
ARM GAS  /tmp/ccwidgtl.s 			page 82


 4437              		.file 39 "./RM18A-ChibiOS18-Core/chibios/os/hal/lib/fallback/I2C/hal_i2c_lld.h"
 4438              		.file 40 "./RM18A-ChibiOS18-Core/chibios/os/hal/include/hal_icu.h"
 4439              		.file 41 "./RM18A-ChibiOS18-Core/chibios/os/hal/ports/STM32/LLD/TIMv1/hal_icu_lld.h"
 4440              		.file 42 "./RM18A-ChibiOS18-Core/chibios/os/hal/include/hal_pwm.h"
 4441              		.file 43 "./RM18A-ChibiOS18-Core/chibios/os/hal/ports/STM32/LLD/TIMv1/hal_pwm_lld.h"
 4442              		.file 44 "./RM18A-ChibiOS18-Core/chibios/os/hal/include/hal_serial.h"
 4443              		.file 45 "./RM18A-ChibiOS18-Core/chibios/os/hal/ports/STM32/LLD/USARTv1/hal_serial_lld.h"
 4444              		.file 46 "./RM18A-ChibiOS18-Core/chibios/os/hal/include/hal_spi.h"
 4445              		.file 47 "./RM18A-ChibiOS18-Core/chibios/os/hal/ports/STM32/LLD/SPIv1/hal_spi_lld.h"
 4446              		.file 48 "./RM18A-ChibiOS18-Core/chibios/os/hal/include/hal_uart.h"
 4447              		.file 49 "./RM18A-ChibiOS18-Core/chibios/os/hal/ports/STM32/LLD/USARTv1/hal_uart_lld.h"
 4448              		.file 50 "./RM18A-ChibiOS18-Core/chibios/os/hal/include/hal_usb.h"
 4449              		.file 51 "./RM18A-ChibiOS18-Core/chibios/os/hal/ports/STM32/LLD/OTGv1/hal_usb_lld.h"
 4450              		.file 52 "./RM18A-ChibiOS18-Core/chibios/os/hal/ports/STM32/LLD/OTGv1/stm32_otg.h"
 4451              		.file 53 "./RM18A-ChibiOS18-Core/chibios/os/hal/include/hal_serial_usb.h"
 4452              		.file 54 "./RM18A-ChibiOS18-Core/src/peripherals/flash.h"
 4453              		.file 55 "./RM18A-ChibiOS18-Core/src/shell/shell.h"
 4454              		.file 56 "./RM18A-ChibiOS18-Core/src/Persistence.hpp"
 4455              		.file 57 "/usr/arm-none-eabi/include/c++/7.3.1/type_traits"
 4456              		.file 58 "/usr/arm-none-eabi/include/c++/7.3.1/bits/stl_pair.h"
 4457              		.file 59 "/usr/arm-none-eabi/include/c++/7.3.1/debug/debug.h"
 4458              		.file 60 "/usr/arm-none-eabi/include/c++/7.3.1/arm-none-eabi/thumb/v7e-m/fpv4-sp/hard/bits/c++conf
 4459              		.file 61 "/usr/arm-none-eabi/include/c++/7.3.1/bits/exception_ptr.h"
 4460              		.file 62 "/usr/arm-none-eabi/include/c++/7.3.1/new"
 4461              		.file 63 "/usr/arm-none-eabi/include/c++/7.3.1/bits/alloc_traits.h"
 4462              		.file 64 "/usr/arm-none-eabi/include/c++/7.3.1/bits/allocator.h"
 4463              		.file 65 "/usr/arm-none-eabi/include/c++/7.3.1/bits/allocated_ptr.h"
 4464              		.file 66 "/usr/arm-none-eabi/include/c++/7.3.1/bits/move.h"
 4465              		.file 67 "/usr/arm-none-eabi/include/c++/7.3.1/bits/predefined_ops.h"
 4466              		.file 68 "/usr/arm-none-eabi/include/c++/7.3.1/ext/aligned_buffer.h"
 4467              		.file 69 "/usr/arm-none-eabi/include/c++/7.3.1/ext/alloc_traits.h"
 4468              		.file 70 "./RM18A-ChibiOS18-Core/chibios/os/various/cpp_wrappers/ch.hpp"
 4469              		.file 71 "./RM18A-ChibiOS18-Core/src/diagnostics/logger.h"
 4470              		.file 72 "/usr/arm-none-eabi/include/sys/lock.h"
 4471              		.file 73 "/usr/arm-none-eabi/include/sys/_types.h"
 4472              		.file 74 "/usr/arm-none-eabi/include/sys/reent.h"
 4473              		.file 75 "./RM18A-ChibiOS18-Core/src/peripherals/usbcfg.h"
 4474              		.file 76 "./RM18A-ChibiOS18-Core/chibios/os/hal/lib/streams/chprintf.h"
 4475              		.file 77 "/usr/arm-none-eabi/include/string.h"
 4476              		.file 78 "./RM18A-ChibiOS18-Core/chibios/os/rt/include/chthreads.h"
 4477              		.file 79 "<built-in>"