ARM GAS  /tmp/cc10ShHs.s 			page 1


   1              		.cpu cortex-m4
   2              		.eabi_attribute 27, 1
   3              		.eabi_attribute 28, 1
   4              		.eabi_attribute 20, 1
   5              		.eabi_attribute 21, 1
   6              		.eabi_attribute 23, 3
   7              		.eabi_attribute 24, 1
   8              		.eabi_attribute 25, 1
   9              		.eabi_attribute 26, 1
  10              		.eabi_attribute 30, 2
  11              		.eabi_attribute 34, 1
  12              		.eabi_attribute 18, 4
  13              		.file	"pid.c"
  14              		.text
  15              	.Ltext0:
  16              		.cfi_sections	.debug_frame
  17              		.section	.text.pid_init,"ax",%progbits
  18              		.align	1
  19              		.p2align 2,,3
  20              		.global	pid_init
  21              		.syntax unified
  22              		.thumb
  23              		.thumb_func
  24              		.fpu fpv4-sp-d16
  25              		.type	pid_init, %function
  26              	pid_init:
  27              	.LFB327:
  28              		.file 1 "./RM18A-ChibiOS18-Core/src/utility/pid.c"
  29              		.loc 1 4 0
  30              		.cfi_startproc
  31              		@ args = 0, pretend = 0, frame = 0
  32              		@ frame_needed = 0, uses_anonymous_args = 0
  33              		@ link register save eliminated.
  34              	.LVL0:
  35              	.LBB33:
  36              	.LBB34:
  37              	.LBB35:
  38              	.LBB36:
  39              		.file 2 "./RM18A-ChibiOS18-Core/chibios/os/hal/ports/STM32/LLD/TIMv1/hal_st_lld.h"
  40              		.loc 2 147 0
  41 0000 4FF08042 		mov	r2, #1073741824
  42              	.LBE36:
  43              	.LBE35:
  44              	.LBE34:
  45              	.LBE33:
  46              		.loc 1 5 0
  47 0004 0023     		movs	r3, #0
  48              	.LBB40:
  49              	.LBB39:
  50              	.LBB38:
  51              	.LBB37:
  52              		.loc 2 147 0
  53 0006 526A     		ldr	r2, [r2, #36]
  54              	.LBE37:
  55              	.LBE38:
  56              	.LBE39:
  57              	.LBE40:
ARM GAS  /tmp/cc10ShHs.s 			page 2


  58              		.loc 1 7 0
  59 0008 4261     		str	r2, [r0, #20]
  60              		.loc 1 9 0
  61 000a 80ED070A 		vstr.32	s0, [r0, #28]
  62              		.loc 1 10 0
  63 000e C0ED080A 		vstr.32	s1, [r0, #32]
  64              		.loc 1 5 0
  65 0012 C360     		str	r3, [r0, #12]	@ float
  66              		.loc 1 6 0
  67 0014 0361     		str	r3, [r0, #16]	@ float
  68              		.loc 1 11 0
  69 0016 7047     		bx	lr
  70              		.cfi_endproc
  71              	.LFE327:
  72              		.size	pid_init, .-pid_init
  73              		.section	.text.pid_load_param,"ax",%progbits
  74              		.align	1
  75              		.p2align 2,,3
  76              		.global	pid_load_param
  77              		.syntax unified
  78              		.thumb
  79              		.thumb_func
  80              		.fpu fpv4-sp-d16
  81              		.type	pid_load_param, %function
  82              	pid_load_param:
  83              	.LFB328:
  84              		.loc 1 14 0
  85              		.cfi_startproc
  86              		@ args = 0, pretend = 0, frame = 0
  87              		@ frame_needed = 0, uses_anonymous_args = 0
  88              		@ link register save eliminated.
  89              	.LVL1:
  90              		.loc 1 15 0
  91 0000 80ED000A 		vstr.32	s0, [r0]
  92              		.loc 1 16 0
  93 0004 C0ED010A 		vstr.32	s1, [r0, #4]
  94              		.loc 1 17 0
  95 0008 80ED021A 		vstr.32	s2, [r0, #8]
  96              		.loc 1 18 0
  97 000c 7047     		bx	lr
  98              		.cfi_endproc
  99              	.LFE328:
 100              		.size	pid_load_param, .-pid_load_param
 101              		.global	__aeabi_uldivmod
 102              		.global	__aeabi_ldivmod
 103 000e 00BF     		.section	.text.pid_update,"ax",%progbits
 104              		.align	1
 105              		.p2align 2,,3
 106              		.global	pid_update
 107              		.syntax unified
 108              		.thumb
 109              		.thumb_func
 110              		.fpu fpv4-sp-d16
 111              		.type	pid_update, %function
 112              	pid_update:
 113              	.LFB329:
 114              		.loc 1 21 0
ARM GAS  /tmp/cc10ShHs.s 			page 3


 115              		.cfi_startproc
 116              		@ args = 0, pretend = 0, frame = 0
 117              		@ frame_needed = 0, uses_anonymous_args = 0
 118              	.LVL2:
 119 0000 10B5     		push	{r4, lr}
 120              		.cfi_def_cfa_offset 8
 121              		.cfi_offset 4, -8
 122              		.cfi_offset 14, -4
 123              		.loc 1 25 0
 124 0002 D0ED047A 		vldr.32	s15, [r0, #16]
 125 0006 90ED027A 		vldr.32	s14, [r0, #8]
 126              		.loc 1 27 0
 127 000a 4269     		ldr	r2, [r0, #20]
 128              		.loc 1 21 0
 129 000c 2DED028B 		vpush.64	{d8}
 130              		.cfi_def_cfa_offset 16
 131              		.cfi_offset 80, -16
 132              		.cfi_offset 81, -12
 133              	.LBB41:
 134              	.LBB42:
 135              	.LBB43:
 136              	.LBB44:
 137              		.loc 2 147 0
 138 0010 4FF08043 		mov	r3, #1073741824
 139              	.LBE44:
 140              	.LBE43:
 141              	.LBE42:
 142              	.LBE41:
 143              		.loc 1 22 0
 144 0014 70EE608A 		vsub.f32	s17, s0, s1
 145              	.LVL3:
 146              		.loc 1 25 0
 147 0018 90ED008A 		vldr.32	s16, [r0]
 148              	.LBB48:
 149              	.LBB47:
 150              	.LBB46:
 151              	.LBB45:
 152              		.loc 2 147 0
 153 001c 5B6A     		ldr	r3, [r3, #36]
 154              	.LBE45:
 155              	.LBE46:
 156              	.LBE47:
 157              	.LBE48:
 158              		.loc 1 25 0
 159 001e 78EEE77A 		vsub.f32	s15, s17, s15
 160              		.loc 1 27 0
 161 0022 9B1A     		subs	r3, r3, r2
 162              		.loc 1 25 0
 163 0024 67EE877A 		vmul.f32	s15, s15, s14
 164              		.loc 1 27 0
 165 0028 4FF47A72 		mov	r2, #1000
 166              		.loc 1 21 0
 167 002c 0446     		mov	r4, r0
 168              		.loc 1 25 0
 169 002e 28EE888A 		vmul.f32	s16, s17, s16
 170              		.loc 1 27 0
 171 0032 42F20F70 		movw	r0, #9999
ARM GAS  /tmp/cc10ShHs.s 			page 4


 172              	.LVL4:
 173 0036 0021     		movs	r1, #0
 174 0038 E2FB0301 		umlal	r0, r1, r2, r3
 175 003c 42F21072 		movw	r2, #10000
 176 0040 0023     		movs	r3, #0
 177              		.loc 1 25 0
 178 0042 37EE888A 		vadd.f32	s16, s15, s16
 179              	.LVL5:
 180              		.loc 1 27 0
 181 0046 FFF7FEFF 		bl	__aeabi_uldivmod
 182              	.LVL6:
 183 004a 07EE100A 		vmov	s14, r0	@ int
 184              		.loc 1 28 0
 185 004e DFED2B7A 		vldr.32	s15, .L18
 186              		.loc 1 27 0
 187 0052 F8EEC76A 		vcvt.f32.s32	s13, s14
 188              	.LVL7:
 189              		.loc 1 28 0
 190 0056 F4EEE76A 		vcmpe.f32	s13, s15
 191 005a F1EE10FA 		vmrs	APSR_nzcv, FPSCR
 192 005e 4ADC     		bgt	.L12
 193              		.loc 1 29 0
 194 0060 DFED277A 		vldr.32	s15, .L18+4
 195 0064 F4EE676A 		vcmp.f32	s13, s15
 196 0068 F1EE10FA 		vmrs	APSR_nzcv, FPSCR
 197 006c 48BF     		it	mi
 198 006e F0EE676A 		vmovmi.f32	s13, s15
 199              	.LVL8:
 200              	.L5:
 201              		.loc 1 33 0
 202 0072 D4ED017A 		vldr.32	s15, [r4, #4]
 203 0076 94ED036A 		vldr.32	s12, [r4, #12]
 204              		.loc 1 36 0
 205 007a 94ED077A 		vldr.32	s14, [r4, #28]
 206              		.loc 1 41 0
 207 007e 94ED080A 		vldr.32	s0, [r4, #32]
 208              		.loc 1 33 0
 209 0082 68EEA77A 		vmul.f32	s15, s17, s15
 210              	.LBB49:
 211              	.LBB50:
 212              	.LBB51:
 213              	.LBB52:
 214              		.loc 2 147 0
 215 0086 4FF08043 		mov	r3, #1073741824
 216              	.LBE52:
 217              	.LBE51:
 218              	.LBE50:
 219              	.LBE49:
 220              		.loc 1 33 0
 221 008a 67EEA67A 		vmul.f32	s15, s15, s13
 222              	.LBB56:
 223              	.LBB55:
 224              	.LBB54:
 225              	.LBB53:
 226              		.loc 2 147 0
 227 008e 5B6A     		ldr	r3, [r3, #36]
 228              	.LBE53:
ARM GAS  /tmp/cc10ShHs.s 			page 5


 229              	.LBE54:
 230              	.LBE55:
 231              	.LBE56:
 232              		.loc 1 34 0
 233 0090 C4ED048A 		vstr.32	s17, [r4, #16]
 234              		.loc 1 33 0
 235 0094 77EE867A 		vadd.f32	s15, s15, s12
 236              		.loc 1 31 0
 237 0098 6361     		str	r3, [r4, #20]
 238              		.loc 1 36 0
 239 009a F4EEC77A 		vcmpe.f32	s15, s14
 240 009e F1EE10FA 		vmrs	APSR_nzcv, FPSCR
 241              		.loc 1 33 0
 242 00a2 C4ED037A 		vstr.32	s15, [r4, #12]
 243              		.loc 1 36 0
 244 00a6 C4BF     		itt	gt
 245 00a8 F0EE477A 		vmovgt.f32	s15, s14
 246 00ac 84ED037A 		vstrgt.32	s14, [r4, #12]
 247              		.loc 1 37 0
 248 00b0 B1EE477A 		vneg.f32	s14, s14
 249 00b4 B4EEE77A 		vcmpe.f32	s14, s15
 250 00b8 F1EE10FA 		vmrs	APSR_nzcv, FPSCR
 251 00bc C8BF     		it	gt
 252 00be F0EE477A 		vmovgt.f32	s15, s14
 253              		.loc 1 39 0
 254 00c2 78EE277A 		vadd.f32	s15, s16, s15
 255              	.LVL9:
 256              		.loc 1 37 0
 257 00c6 C8BF     		it	gt
 258 00c8 84ED037A 		vstrgt.32	s14, [r4, #12]
 259              		.loc 1 41 0
 260 00cc B4EE670A 		vcmp.f32	s0, s15
 261 00d0 F1EE10FA 		vmrs	APSR_nzcv, FPSCR
 262              		.loc 1 46 0
 263 00d4 BDEC028B 		vldm	sp!, {d8}
 264              		.cfi_remember_state
 265              		.cfi_restore 80
 266              		.cfi_restore 81
 267              		.cfi_def_cfa_offset 8
 268              		.loc 1 41 0
 269 00d8 48BF     		it	mi
 270 00da F0EE407A 		vmovmi.f32	s15, s0
 271              	.LVL10:
 272              		.loc 1 42 0
 273 00de B1EE400A 		vneg.f32	s0, s0
 274 00e2 B4EEE70A 		vcmpe.f32	s0, s15
 275 00e6 F1EE10FA 		vmrs	APSR_nzcv, FPSCR
 276 00ea D8BF     		it	le
 277 00ec B0EE670A 		vmovle.f32	s0, s15
 278              	.LVL11:
 279              		.loc 1 43 0
 280 00f0 84ED060A 		vstr.32	s0, [r4, #24]
 281              		.loc 1 46 0
 282 00f4 10BD     		pop	{r4, pc}
 283              	.LVL12:
 284              	.L12:
 285              		.cfi_restore_state
ARM GAS  /tmp/cc10ShHs.s 			page 6


 286              		.loc 1 28 0
 287 00f6 F0EE676A 		vmov.f32	s13, s15
 288              	.LVL13:
 289 00fa BAE7     		b	.L5
 290              	.L19:
 291              		.align	2
 292              	.L18:
 293 00fc 00007A44 		.word	1148846080
 294 0100 00007AC4 		.word	3296329728
 295              		.cfi_endproc
 296              	.LFE329:
 297              		.size	pid_update, .-pid_update
 298              		.section	.text.pimd_update,"ax",%progbits
 299              		.align	1
 300              		.p2align 2,,3
 301              		.global	pimd_update
 302              		.syntax unified
 303              		.thumb
 304              		.thumb_func
 305              		.fpu fpv4-sp-d16
 306              		.type	pimd_update, %function
 307              	pimd_update:
 308              	.LFB330:
 309              		.loc 1 50 0
 310              		.cfi_startproc
 311              		@ args = 0, pretend = 0, frame = 0
 312              		@ frame_needed = 0, uses_anonymous_args = 0
 313              	.LVL14:
 314 0000 10B5     		push	{r4, lr}
 315              		.cfi_def_cfa_offset 8
 316              		.cfi_offset 4, -8
 317              		.cfi_offset 14, -4
 318              	.LBB57:
 319              	.LBB58:
 320              	.LBB59:
 321              	.LBB60:
 322              		.loc 2 147 0
 323 0002 4FF08043 		mov	r3, #1073741824
 324              	.LBE60:
 325              	.LBE59:
 326              	.LBE58:
 327              	.LBE57:
 328              		.loc 1 50 0
 329 0006 2DED028B 		vpush.64	{d8}
 330              		.cfi_def_cfa_offset 16
 331              		.cfi_offset 80, -16
 332              		.cfi_offset 81, -12
 333              		.loc 1 57 0
 334 000a 4269     		ldr	r2, [r0, #20]
 335              		.loc 1 55 0
 336 000c 90ED008A 		vldr.32	s16, [r0]
 337              	.LBB64:
 338              	.LBB63:
 339              	.LBB62:
 340              	.LBB61:
 341              		.loc 2 147 0
 342 0010 5B6A     		ldr	r3, [r3, #36]
ARM GAS  /tmp/cc10ShHs.s 			page 7


 343              	.LBE61:
 344              	.LBE62:
 345              	.LBE63:
 346              	.LBE64:
 347              		.loc 1 51 0
 348 0012 70EE608A 		vsub.f32	s17, s0, s1
 349              	.LVL15:
 350              		.loc 1 52 0
 351 0016 71EE611A 		vsub.f32	s3, s2, s3
 352              	.LVL16:
 353              		.loc 1 55 0
 354 001a 90ED021A 		vldr.32	s2, [r0, #8]
 355              	.LVL17:
 356              		.loc 1 57 0
 357 001e 9B1A     		subs	r3, r3, r2
 358              		.loc 1 55 0
 359 0020 61EE811A 		vmul.f32	s3, s3, s2
 360              	.LVL18:
 361              		.loc 1 57 0
 362 0024 4FF47A72 		mov	r2, #1000
 363              		.loc 1 50 0
 364 0028 0446     		mov	r4, r0
 365              		.loc 1 55 0
 366 002a 28EE888A 		vmul.f32	s16, s17, s16
 367              		.loc 1 57 0
 368 002e 42F20F70 		movw	r0, #9999
 369              	.LVL19:
 370 0032 0021     		movs	r1, #0
 371 0034 E2FB0301 		umlal	r0, r1, r2, r3
 372 0038 42F21072 		movw	r2, #10000
 373 003c 0023     		movs	r3, #0
 374              		.loc 1 55 0
 375 003e 31EE888A 		vadd.f32	s16, s3, s16
 376              	.LVL20:
 377              		.loc 1 57 0
 378 0042 FFF7FEFF 		bl	__aeabi_uldivmod
 379              	.LVL21:
 380 0046 07EE100A 		vmov	s14, r0	@ int
 381              		.loc 1 58 0
 382 004a DFED2B7A 		vldr.32	s15, .L34
 383              		.loc 1 57 0
 384 004e B8EEC77A 		vcvt.f32.s32	s14, s14
 385              	.LVL22:
 386              		.loc 1 58 0
 387 0052 B4EEE77A 		vcmpe.f32	s14, s15
 388 0056 F1EE10FA 		vmrs	APSR_nzcv, FPSCR
 389 005a 4ADC     		bgt	.L28
 390              		.loc 1 59 0
 391 005c DFED277A 		vldr.32	s15, .L34+4
 392 0060 B4EE677A 		vcmp.f32	s14, s15
 393 0064 F1EE10FA 		vmrs	APSR_nzcv, FPSCR
 394 0068 48BF     		it	mi
 395 006a B0EE677A 		vmovmi.f32	s14, s15
 396              	.LVL23:
 397              	.L21:
 398              		.loc 1 63 0
 399 006e D4ED011A 		vldr.32	s3, [r4, #4]
ARM GAS  /tmp/cc10ShHs.s 			page 8


 400 0072 D4ED036A 		vldr.32	s13, [r4, #12]
 401              		.loc 1 66 0
 402 0076 D4ED077A 		vldr.32	s15, [r4, #28]
 403              		.loc 1 71 0
 404 007a 94ED080A 		vldr.32	s0, [r4, #32]
 405              		.loc 1 63 0
 406 007e 68EEA11A 		vmul.f32	s3, s17, s3
 407              	.LBB65:
 408              	.LBB66:
 409              	.LBB67:
 410              	.LBB68:
 411              		.loc 2 147 0
 412 0082 4FF08043 		mov	r3, #1073741824
 413              	.LBE68:
 414              	.LBE67:
 415              	.LBE66:
 416              	.LBE65:
 417              		.loc 1 63 0
 418 0086 61EE871A 		vmul.f32	s3, s3, s14
 419              	.LBB72:
 420              	.LBB71:
 421              	.LBB70:
 422              	.LBB69:
 423              		.loc 2 147 0
 424 008a 5B6A     		ldr	r3, [r3, #36]
 425              	.LBE69:
 426              	.LBE70:
 427              	.LBE71:
 428              	.LBE72:
 429              		.loc 1 64 0
 430 008c C4ED048A 		vstr.32	s17, [r4, #16]
 431              		.loc 1 63 0
 432 0090 71EEA61A 		vadd.f32	s3, s3, s13
 433              		.loc 1 61 0
 434 0094 6361     		str	r3, [r4, #20]
 435              		.loc 1 66 0
 436 0096 F4EEE71A 		vcmpe.f32	s3, s15
 437 009a F1EE10FA 		vmrs	APSR_nzcv, FPSCR
 438              		.loc 1 63 0
 439 009e C4ED031A 		vstr.32	s3, [r4, #12]
 440              		.loc 1 66 0
 441 00a2 C4BF     		itt	gt
 442 00a4 F0EE671A 		vmovgt.f32	s3, s15
 443 00a8 C4ED037A 		vstrgt.32	s15, [r4, #12]
 444              		.loc 1 67 0
 445 00ac F1EE677A 		vneg.f32	s15, s15
 446 00b0 F4EEE17A 		vcmpe.f32	s15, s3
 447 00b4 F1EE10FA 		vmrs	APSR_nzcv, FPSCR
 448 00b8 C8BF     		it	gt
 449 00ba F0EE671A 		vmovgt.f32	s3, s15
 450              		.loc 1 69 0
 451 00be 78EE211A 		vadd.f32	s3, s16, s3
 452              	.LVL24:
 453              		.loc 1 67 0
 454 00c2 C8BF     		it	gt
 455 00c4 C4ED037A 		vstrgt.32	s15, [r4, #12]
 456              		.loc 1 71 0
ARM GAS  /tmp/cc10ShHs.s 			page 9


 457 00c8 B4EE610A 		vcmp.f32	s0, s3
 458 00cc F1EE10FA 		vmrs	APSR_nzcv, FPSCR
 459              		.loc 1 76 0
 460 00d0 BDEC028B 		vldm	sp!, {d8}
 461              		.cfi_remember_state
 462              		.cfi_restore 80
 463              		.cfi_restore 81
 464              		.cfi_def_cfa_offset 8
 465              		.loc 1 71 0
 466 00d4 48BF     		it	mi
 467 00d6 F0EE401A 		vmovmi.f32	s3, s0
 468              	.LVL25:
 469              		.loc 1 72 0
 470 00da B1EE400A 		vneg.f32	s0, s0
 471 00de B4EEE10A 		vcmpe.f32	s0, s3
 472 00e2 F1EE10FA 		vmrs	APSR_nzcv, FPSCR
 473 00e6 D8BF     		it	le
 474 00e8 B0EE610A 		vmovle.f32	s0, s3
 475              	.LVL26:
 476              		.loc 1 73 0
 477 00ec 84ED060A 		vstr.32	s0, [r4, #24]
 478              		.loc 1 76 0
 479 00f0 10BD     		pop	{r4, pc}
 480              	.LVL27:
 481              	.L28:
 482              		.cfi_restore_state
 483              		.loc 1 58 0
 484 00f2 B0EE677A 		vmov.f32	s14, s15
 485              	.LVL28:
 486 00f6 BAE7     		b	.L21
 487              	.L35:
 488              		.align	2
 489              	.L34:
 490 00f8 00007A44 		.word	1148846080
 491 00fc 00007AC4 		.word	3296329728
 492              		.cfi_endproc
 493              	.LFE330:
 494              		.size	pimd_update, .-pimd_update
 495              		.text
 496              	.Letext0:
 497              		.file 3 "/usr/lib/gcc/arm-none-eabi/7.3.1/include/stddef.h"
 498              		.file 4 "/usr/arm-none-eabi/include/machine/_default_types.h"
 499              		.file 5 "/usr/arm-none-eabi/include/sys/_stdint.h"
 500              		.file 6 "./RM18A-ChibiOS18-Core/chibios/os/common/ports/ARMCMx/compilers/GCC/chtypes.h"
 501              		.file 7 "./RM18A-ChibiOS18-Core/chibios/os/rt/include/chsystypes.h"
 502              		.file 8 "./RM18A-ChibiOS18-Core/chibios/os/rt/include/chschd.h"
 503              		.file 9 "./RM18A-ChibiOS18-Core/chibios/os/rt/include/chtime.h"
 504              		.file 10 "./RM18A-ChibiOS18-Core/chibios/os/common/ext/ARM/CMSIS/Core/Include/core_cm4.h"
 505              		.file 11 "./RM18A-ChibiOS18-Core/chibios/os/common/ext/ST/STM32F4xx/system_stm32f4xx.h"
 506              		.file 12 "./RM18A-ChibiOS18-Core/chibios/os/common/ext/ST/STM32F4xx/stm32f427xx.h"
 507              		.file 13 "./RM18A-ChibiOS18-Core/chibios/os/common/ports/ARMCMx/chcore.h"
 508              		.file 14 "./RM18A-ChibiOS18-Core/chibios/os/common/ports/ARMCMx/chcore_v7m.h"
 509              		.file 15 "./RM18A-ChibiOS18-Core/chibios/os/hal/ports/STM32/LLD/TIMv1/stm32_tim.h"
 510              		.file 16 "./RM18A-ChibiOS18-Core/chibios/os/rt/include/chtm.h"
 511              		.file 17 "./RM18A-ChibiOS18-Core/chibios/os/rt/include/chsem.h"
 512              		.file 18 "./RM18A-ChibiOS18-Core/chibios/os/rt/include/chmtx.h"
 513              		.file 19 "./RM18A-ChibiOS18-Core/chibios/os/rt/include/chsys.h"
ARM GAS  /tmp/cc10ShHs.s 			page 10


 514              		.file 20 "./RM18A-ChibiOS18-Core/chibios/os/rt/include/chregistry.h"
 515              		.file 21 "./RM18A-ChibiOS18-Core/chibios/os/rt/include/chevents.h"
 516              		.file 22 "./RM18A-ChibiOS18-Core/chibios/os/oslib/include/chmemcore.h"
 517              		.file 23 "./RM18A-ChibiOS18-Core/chibios/os/oslib/include/chmempools.h"
 518              		.file 24 "./RM18A-ChibiOS18-Core/chibios/os/oslib/include/chfactory.h"
 519              		.file 25 "./RM18A-ChibiOS18-Core/chibios/os/hal/ports/STM32/LLD/DMAv2/stm32_dma.h"
 520              		.file 26 "./RM18A-ChibiOS18-Core/chibios/os/hal/include/hal_queues.h"
 521              		.file 27 "./RM18A-ChibiOS18-Core/chibios/os/hal/include/hal_pal.h"
 522              		.file 28 "./RM18A-ChibiOS18-Core/chibios/os/hal/ports/STM32/LLD/GPIOv2/hal_pal_lld.h"
 523              		.file 29 "./RM18A-ChibiOS18-Core/chibios/os/hal/include/hal_adc.h"
 524              		.file 30 "./RM18A-ChibiOS18-Core/chibios/os/hal/ports/STM32/LLD/ADCv2/hal_adc_lld.h"
 525              		.file 31 "./RM18A-ChibiOS18-Core/chibios/os/hal/include/hal_can.h"
 526              		.file 32 "./RM18A-ChibiOS18-Core/chibios/os/hal/ports/STM32/LLD/CANv1/hal_can_lld.h"
 527              		.file 33 "./RM18A-ChibiOS18-Core/chibios/os/hal/include/hal_icu.h"
 528              		.file 34 "./RM18A-ChibiOS18-Core/chibios/os/hal/ports/STM32/LLD/TIMv1/hal_icu_lld.h"
 529              		.file 35 "./RM18A-ChibiOS18-Core/chibios/os/hal/include/hal_pwm.h"
 530              		.file 36 "./RM18A-ChibiOS18-Core/chibios/os/hal/ports/STM32/LLD/TIMv1/hal_pwm_lld.h"
 531              		.file 37 "./RM18A-ChibiOS18-Core/chibios/os/hal/include/hal_serial.h"
 532              		.file 38 "./RM18A-ChibiOS18-Core/chibios/os/hal/ports/STM32/LLD/USARTv1/hal_serial_lld.h"
 533              		.file 39 "./RM18A-ChibiOS18-Core/chibios/os/hal/include/hal_spi.h"
 534              		.file 40 "./RM18A-ChibiOS18-Core/chibios/os/hal/ports/STM32/LLD/SPIv1/hal_spi_lld.h"
 535              		.file 41 "./RM18A-ChibiOS18-Core/chibios/os/hal/include/hal_uart.h"
 536              		.file 42 "./RM18A-ChibiOS18-Core/chibios/os/hal/ports/STM32/LLD/USARTv1/hal_uart_lld.h"
 537              		.file 43 "./RM18A-ChibiOS18-Core/chibios/os/hal/include/hal_usb.h"
 538              		.file 44 "./RM18A-ChibiOS18-Core/chibios/os/hal/ports/STM32/LLD/OTGv1/hal_usb_lld.h"
 539              		.file 45 "./RM18A-ChibiOS18-Core/chibios/os/hal/ports/STM32/LLD/OTGv1/stm32_otg.h"
 540              		.file 46 "./RM18A-ChibiOS18-Core/src/utility/pid.h"
 541              		.file 47 "./RM18A-ChibiOS18-Core/chibios/os/rt/include/chvt.h"
 542              		.file 48 "./RM18A-ChibiOS18-Core/chibios/os/common/ports/ARMCMx/chcore_timer.h"