ARM GAS  /tmp/cchLT3YH.s 			page 1


   1              		.cpu cortex-m4
   2              		.eabi_attribute 27, 1
   3              		.eabi_attribute 28, 1
   4              		.eabi_attribute 20, 1
   5              		.eabi_attribute 21, 1
   6              		.eabi_attribute 23, 3
   7              		.eabi_attribute 24, 1
   8              		.eabi_attribute 25, 1
   9              		.eabi_attribute 26, 1
  10              		.eabi_attribute 30, 2
  11              		.eabi_attribute 34, 1
  12              		.eabi_attribute 18, 4
  13              		.file	"PID_aw.cpp"
  14              		.text
  15              	.Ltext0:
  16              		.cfi_sections	.debug_frame
  17              		.section	.text._ZN12MotorControl13PID_aw_paramsC2EPKcffffff,"ax",%progbits
  18              		.align	1
  19              		.p2align 2,,3
  20              		.global	_ZN12MotorControl13PID_aw_paramsC2EPKcffffff
  21              		.syntax unified
  22              		.thumb
  23              		.thumb_func
  24              		.fpu fpv4-sp-d16
  25              		.type	_ZN12MotorControl13PID_aw_paramsC2EPKcffffff, %function
  26              	_ZN12MotorControl13PID_aw_paramsC2EPKcffffff:
  27              	.LFB1314:
  28              		.file 1 "./RM18A-ChibiOS18-Core/src/controller/PID_aw.cpp"
  29              		.loc 1 18 0
  30              		.cfi_startproc
  31              		@ args = 0, pretend = 0, frame = 0
  32              		@ frame_needed = 0, uses_anonymous_args = 0
  33              		@ link register save eliminated.
  34              	.LVL0:
  35 0000 0346     		mov	r3, r0
  36              	.LBB57:
  37              		.loc 1 35 0
  38 0002 284A     		ldr	r2, .L4
  39 0004 80ED000A 		vstr.32	s0, [r0]
  40              	.LBE57:
  41              		.loc 1 18 0
  42 0008 30B4     		push	{r4, r5}
  43              		.cfi_def_cfa_offset 8
  44              		.cfi_offset 4, -8
  45              		.cfi_offset 5, -4
  46              	.LBB58:
  47              		.loc 1 35 0
  48 000a 274C     		ldr	r4, .L4+4
  49 000c C0ED010A 		vstr.32	s1, [r0, #4]
  50 0010 C0ED021A 		vstr.32	s3, [r0, #8]
  51 0014 80ED031A 		vstr.32	s2, [r0, #12]
  52 0018 80ED042A 		vstr.32	s4, [r0, #16]
  53 001c 9861     		str	r0, [r3, #24]
  54 001e 0263     		str	r2, [r0, #48]
  55              		.loc 1 28 0
  56 0020 021D     		adds	r2, r0, #4
  57              		.loc 1 35 0
ARM GAS  /tmp/cchLT3YH.s 			page 2


  58 0022 224D     		ldr	r5, .L4+8
  59 0024 4263     		str	r2, [r0, #52]
  60 0026 8466     		str	r4, [r0, #104]
  61              		.loc 1 30 0
  62 0028 00F10802 		add	r2, r0, #8
  63              		.loc 1 35 0
  64 002c 204C     		ldr	r4, .L4+12
  65 002e C564     		str	r5, [r0, #76]
  66 0030 0265     		str	r2, [r0, #80]
  67              		.loc 1 32 0
  68 0032 00F10C05 		add	r5, r0, #12
  69              		.loc 1 35 0
  70 0036 0022     		movs	r2, #0
  71 0038 0162     		str	r1, [r0, #32]
  72 003a C163     		str	r1, [r0, #60]
  73 003c 8165     		str	r1, [r0, #88]
  74 003e 4167     		str	r1, [r0, #116]
  75 0040 C566     		str	r5, [r0, #108]
  76 0042 0277     		strb	r2, [r0, #28]
  77 0044 C0E90922 		strd	r2, r2, [r0, #36]
  78 0048 C262     		str	r2, [r0, #44]
  79 004a 80F83820 		strb	r2, [r0, #56]
  80 004e C0E91022 		strd	r2, r2, [r0, #64]
  81 0052 8264     		str	r2, [r0, #72]
  82 0054 80F85420 		strb	r2, [r0, #84]
  83 0058 C0E91722 		strd	r2, r2, [r0, #92]
  84 005c 4266     		str	r2, [r0, #100]
  85 005e 80F87020 		strb	r2, [r0, #112]
  86 0062 C0E91E22 		strd	r2, r2, [r0, #120]
  87 0066 C0E92024 		strd	r2, r4, [r0, #128]
  88 006a 124C     		ldr	r4, .L4+16
  89 006c 80F88C20 		strb	r2, [r0, #140]
  90              		.loc 1 33 0
  91 0070 00F11005 		add	r5, r0, #16
  92              		.loc 1 35 0
  93 0074 C0E92412 		strd	r1, r2, [r0, #144]
  94 0078 C0E92622 		strd	r2, r2, [r0, #152]
  95 007c 80F8A820 		strb	r2, [r0, #168]
  96 0080 C0F8AC10 		str	r1, [r0, #172]
  97 0084 C0E92C22 		strd	r2, r2, [r0, #176]
  98              		.loc 1 34 0
  99 0088 00F11401 		add	r1, r0, #20
 100              	.LVL1:
 101              		.loc 1 35 0
 102 008c C0F8B820 		str	r2, [r0, #184]
 103 0090 094A     		ldr	r2, .L4+20
 104 0092 C0F88850 		str	r5, [r0, #136]
 105 0096 C0E92841 		strd	r4, r1, [r0, #160]
 106 009a C0F8BC20 		str	r2, [r0, #188]
 107              	.LBE58:
 108 009e 30BC     		pop	{r4, r5}
 109              		.cfi_restore 5
 110              		.cfi_restore 4
 111              		.cfi_def_cfa_offset 0
 112 00a0 7047     		bx	lr
 113              	.L5:
 114 00a2 00BF     		.align	2
ARM GAS  /tmp/cchLT3YH.s 			page 3


 115              	.L4:
 116 00a4 00000000 		.word	.LC0
 117 00a8 08000000 		.word	.LC2
 118 00ac 04000000 		.word	.LC1
 119 00b0 0C000000 		.word	.LC3
 120 00b4 10000000 		.word	.LC4
 121 00b8 14000000 		.word	.LC5
 122              		.cfi_endproc
 123              	.LFE1314:
 124              		.size	_ZN12MotorControl13PID_aw_paramsC2EPKcffffff, .-_ZN12MotorControl13PID_aw_paramsC2EPKcffffff
 125              		.global	_ZN12MotorControl13PID_aw_paramsC1EPKcffffff
 126              		.thumb_set _ZN12MotorControl13PID_aw_paramsC1EPKcffffff,_ZN12MotorControl13PID_aw_paramsC2EPKcffff
 127              		.section	.text._ZN12MotorControl13PID_aw_params9addParamsEv,"ax",%progbits
 128              		.align	1
 129              		.p2align 2,,3
 130              		.global	_ZN12MotorControl13PID_aw_params9addParamsEv
 131              		.syntax unified
 132              		.thumb
 133              		.thumb_func
 134              		.fpu fpv4-sp-d16
 135              		.type	_ZN12MotorControl13PID_aw_params9addParamsEv, %function
 136              	_ZN12MotorControl13PID_aw_params9addParamsEv:
 137              	.LFB1316:
 138              		.loc 1 38 0
 139              		.cfi_startproc
 140              		@ args = 0, pretend = 0, frame = 0
 141              		@ frame_needed = 0, uses_anonymous_args = 0
 142              	.LVL2:
 143 0000 10B5     		push	{r4, lr}
 144              		.cfi_def_cfa_offset 8
 145              		.cfi_offset 4, -8
 146              		.cfi_offset 14, -4
 147              		.loc 1 38 0
 148 0002 0446     		mov	r4, r0
 149              		.loc 1 39 0
 150 0004 1830     		adds	r0, r0, #24
 151              	.LVL3:
 152 0006 FFF7FEFF 		bl	_Z9Param_addRK16Param_Definition
 153              	.LVL4:
 154              		.loc 1 40 0
 155 000a 04F13400 		add	r0, r4, #52
 156 000e FFF7FEFF 		bl	_Z9Param_addRK16Param_Definition
 157              	.LVL5:
 158              		.loc 1 41 0
 159 0012 04F15000 		add	r0, r4, #80
 160 0016 FFF7FEFF 		bl	_Z9Param_addRK16Param_Definition
 161              	.LVL6:
 162              		.loc 1 42 0
 163 001a 04F16C00 		add	r0, r4, #108
 164 001e FFF7FEFF 		bl	_Z9Param_addRK16Param_Definition
 165              	.LVL7:
 166              		.loc 1 43 0
 167 0022 04F18800 		add	r0, r4, #136
 168 0026 FFF7FEFF 		bl	_Z9Param_addRK16Param_Definition
 169              	.LVL8:
 170              		.loc 1 44 0
 171 002a 04F1A400 		add	r0, r4, #164
ARM GAS  /tmp/cchLT3YH.s 			page 4


 172              		.loc 1 45 0
 173 002e BDE81040 		pop	{r4, lr}
 174              		.cfi_restore 14
 175              		.cfi_restore 4
 176              		.cfi_def_cfa_offset 0
 177              	.LVL9:
 178              		.loc 1 44 0
 179 0032 FFF7FEBF 		b	_Z9Param_addRK16Param_Definition
 180              	.LVL10:
 181              		.cfi_endproc
 182              	.LFE1316:
 183              		.size	_ZN12MotorControl13PID_aw_params9addParamsEv, .-_ZN12MotorControl13PID_aw_params9addParamsEv
 184 0036 00BF     		.section	.text._ZN12MotorControl6PID_aw6updateERKfS2_,"ax",%progbits
 185              		.align	1
 186              		.p2align 2,,3
 187              		.global	_ZN12MotorControl6PID_aw6updateERKfS2_
 188              		.syntax unified
 189              		.thumb
 190              		.thumb_func
 191              		.fpu fpv4-sp-d16
 192              		.type	_ZN12MotorControl6PID_aw6updateERKfS2_, %function
 193              	_ZN12MotorControl6PID_aw6updateERKfS2_:
 194              	.LFB1317:
 195              		.loc 1 48 0
 196              		.cfi_startproc
 197              		@ args = 0, pretend = 0, frame = 0
 198              		@ frame_needed = 0, uses_anonymous_args = 0
 199              		@ link register save eliminated.
 200              	.LVL11:
 201              		.loc 1 49 0
 202 0000 D0ED027A 		vldr.32	s15, [r0, #8]
 203 0004 4369     		ldr	r3, [r0, #20]
 204 0006 91ED007A 		vldr.32	s14, [r1]
 205 000a 37EE677A 		vsub.f32	s14, s14, s15
 206 000e D3ED047A 		vldr.32	s15, [r3, #16]
 207              		.loc 1 48 0
 208 0012 10B4     		push	{r4}
 209              		.cfi_def_cfa_offset 4
 210              		.cfi_offset 4, -4
 211              		.loc 1 49 0
 212 0014 27EE277A 		vmul.f32	s14, s14, s15
 213              	.LVL12:
 214              	.LBB78:
 215              	.LBB79:
 216              	.LBB80:
 217              	.LBB81:
 218              	.LBB82:
 219              	.LBB83:
 220              	.LBB84:
 221              	.LBB85:
 222              		.file 2 "./RM18A-ChibiOS18-Core/chibios/os/common/ext/ARM/CMSIS/Core/Include/cmsis_gcc.h"
 223              		.loc 2 493 0
 224 0018 2023     		movs	r3, #32
 225              		.syntax unified
 226              	@ 493 "./RM18A-ChibiOS18-Core/chibios/os/common/ext/ARM/CMSIS/Core/Include/cmsis_gcc.h" 1
 227 001a 83F31188 		MSR basepri, r3
 228              	@ 0 "" 2
ARM GAS  /tmp/cchLT3YH.s 			page 5


 229              	.LVL13:
 230              		.thumb
 231              		.syntax unified
 232              	.LBE85:
 233              	.LBE84:
 234              	.LBE83:
 235              	.LBE82:
 236              	.LBB86:
 237              	.LBB87:
 238              	.LBB88:
 239              	.LBB89:
 240              		.file 3 "./RM18A-ChibiOS18-Core/chibios/os/hal/ports/STM32/LLD/TIMv1/hal_st_lld.h"
 241              		.loc 3 147 0
 242 001e 4FF08044 		mov	r4, #1073741824
 243              	.LBE89:
 244              	.LBE88:
 245              	.LBE87:
 246              	.LBE86:
 247              	.LBB93:
 248              	.LBB94:
 249              	.LBB95:
 250              	.LBB96:
 251              	.LBB97:
 252              		.loc 2 493 0
 253 0022 0023     		movs	r3, #0
 254              	.LBE97:
 255              	.LBE96:
 256              	.LBE95:
 257              	.LBE94:
 258              	.LBE93:
 259              	.LBB102:
 260              	.LBB92:
 261              	.LBB91:
 262              	.LBB90:
 263              		.loc 3 147 0
 264 0024 646A     		ldr	r4, [r4, #36]
 265              	.LVL14:
 266              	.LBE90:
 267              	.LBE91:
 268              	.LBE92:
 269              	.LBE102:
 270              	.LBB103:
 271              	.LBB101:
 272              	.LBB100:
 273              	.LBB99:
 274              	.LBB98:
 275              		.loc 2 493 0
 276              		.syntax unified
 277              	@ 493 "./RM18A-ChibiOS18-Core/chibios/os/common/ext/ARM/CMSIS/Core/Include/cmsis_gcc.h" 1
 278 0026 83F31188 		MSR basepri, r3
 279              	@ 0 "" 2
 280              	.LVL15:
 281              		.thumb
 282              		.syntax unified
 283              	.LBE98:
 284              	.LBE99:
 285              	.LBE100:
ARM GAS  /tmp/cchLT3YH.s 			page 6


 286              	.LBE101:
 287              	.LBE103:
 288              	.LBE81:
 289              	.LBE80:
 290              	.LBB104:
 291              	.LBB105:
 292              		.file 4 "./RM18A-ChibiOS18-Core/chibios/os/rt/include/chtime.h"
 293              		.loc 4 464 0
 294 002a 0369     		ldr	r3, [r0, #16]
 295              	.LBE105:
 296              	.LBE104:
 297              		.loc 1 57 0
 298 002c DFED2C7A 		vldr.32	s15, .L21
 299              		.loc 1 62 0
 300 0030 D0ED025A 		vldr.32	s11, [r0, #8]
 301              		.loc 1 61 0
 302 0034 80ED007A 		vstr.32	s14, [r0]
 303              	.LBB107:
 304              	.LBB106:
 305              		.loc 4 464 0
 306 0038 E31A     		subs	r3, r4, r3
 307              	.LBE106:
 308              	.LBE107:
 309              		.loc 1 57 0
 310 003a 06EE903A 		vmov	s13, r3	@ int
 311 003e F8EE666A 		vcvt.f32.u32	s13, s13
 312              		.loc 1 65 0
 313 0042 4369     		ldr	r3, [r0, #20]
 314 0044 D0ED012A 		vldr.32	s5, [r0, #4]
 315 0048 D3ED033A 		vldr.32	s7, [r3, #12]
 316 004c 93ED013A 		vldr.32	s6, [r3, #4]
 317              		.loc 1 67 0
 318 0050 93ED055A 		vldr.32	s10, [r3, #20]
 319              		.loc 1 65 0
 320 0054 90ED034A 		vldr.32	s8, [r0, #12]
 321              		.loc 1 58 0
 322 0058 0461     		str	r4, [r0, #16]
 323              		.loc 1 57 0
 324 005a 86EEA76A 		vdiv.f32	s12, s13, s15
 325              	.LVL16:
 326              		.loc 1 62 0
 327 005e E7EE065A 		vfma.f32	s11, s14, s12
 328              		.loc 1 67 0
 329 0062 66EE054A 		vmul.f32	s9, s12, s10
 330              		.loc 1 62 0
 331 0066 C0ED025A 		vstr.32	s11, [r0, #8]
 332              		.loc 1 65 0
 333 006a D2ED007A 		vldr.32	s15, [r2]
 334 006e D1ED006A 		vldr.32	s13, [r1]
 335 0072 77EEE27A 		vsub.f32	s15, s15, s5
 336 0076 66EE836A 		vmul.f32	s13, s13, s6
 337 007a 67EEA37A 		vmul.f32	s15, s15, s7
 338 007e E6EE267A 		vfma.f32	s15, s12, s13
 339 0082 77EE847A 		vadd.f32	s15, s15, s8
 340              		.loc 1 67 0
 341 0086 F4EEE47A 		vcmpe.f32	s15, s9
 342 008a F1EE10FA 		vmrs	APSR_nzcv, FPSCR
ARM GAS  /tmp/cchLT3YH.s 			page 7


 343              		.loc 1 65 0
 344 008e C0ED037A 		vstr.32	s15, [r0, #12]
 345              		.loc 1 67 0
 346 0092 20DC     		bgt	.L19
 347              		.loc 1 69 0
 348 0094 25EE466A 		vnmul.f32	s12, s10, s12
 349              	.LVL17:
 350 0098 F4EEC67A 		vcmpe.f32	s15, s12
 351 009c F1EE10FA 		vmrs	APSR_nzcv, FPSCR
 352 00a0 14D9     		bls	.L20
 353              		.loc 1 72 0
 354 00a2 DFED106A 		vldr.32	s13, .L21+4
 355 00a6 F0EE667A 		vmov.f32	s15, s13
 356 00aa C0ED036A 		vstr.32	s13, [r0, #12]
 357              	.L11:
 358              		.loc 1 74 0
 359 00ae D1ED005A 		vldr.32	s11, [r1]
 360 00b2 93ED006A 		vldr.32	s12, [r3]
 361 00b6 D3ED026A 		vldr.32	s13, [r3, #8]
 362              	.LBE79:
 363              	.LBE78:
 364              		.loc 1 50 0
 365 00ba 5DF8044B 		ldr	r4, [sp], #4
 366              		.cfi_remember_state
 367              		.cfi_restore 4
 368              		.cfi_def_cfa_offset 0
 369              	.LBB110:
 370              	.LBB108:
 371              		.loc 1 74 0
 372 00be E5EE867A 		vfma.f32	s15, s11, s12
 373 00c2 E7EE267A 		vfma.f32	s15, s14, s13
 374 00c6 C0ED017A 		vstr.32	s15, [r0, #4]
 375              	.LVL18:
 376              	.LBE108:
 377              	.LBE110:
 378              		.loc 1 50 0
 379 00ca 7047     		bx	lr
 380              	.LVL19:
 381              	.L20:
 382              		.cfi_restore_state
 383              	.LBB111:
 384              	.LBB109:
 385              		.loc 1 70 0
 386 00cc 77EEA47A 		vadd.f32	s15, s15, s9
 387 00d0 C0ED037A 		vstr.32	s15, [r0, #12]
 388 00d4 EBE7     		b	.L11
 389              	.LVL20:
 390              	.L19:
 391              		.loc 1 68 0
 392 00d6 77EEE47A 		vsub.f32	s15, s15, s9
 393 00da C0ED037A 		vstr.32	s15, [r0, #12]
 394 00de E6E7     		b	.L11
 395              	.L22:
 396              		.align	2
 397              	.L21:
 398 00e0 00401C46 		.word	1176256512
 399 00e4 00000000 		.word	0
ARM GAS  /tmp/cchLT3YH.s 			page 8


 400              	.LBE109:
 401              	.LBE111:
 402              		.cfi_endproc
 403              	.LFE1317:
 404              		.size	_ZN12MotorControl6PID_aw6updateERKfS2_, .-_ZN12MotorControl6PID_aw6updateERKfS2_
 405              		.section	.text._ZN12MotorControl6PID_aw6updateERKfS2_S2_,"ax",%progbits
 406              		.align	1
 407              		.p2align 2,,3
 408              		.global	_ZN12MotorControl6PID_aw6updateERKfS2_S2_
 409              		.syntax unified
 410              		.thumb
 411              		.thumb_func
 412              		.fpu fpv4-sp-d16
 413              		.type	_ZN12MotorControl6PID_aw6updateERKfS2_S2_, %function
 414              	_ZN12MotorControl6PID_aw6updateERKfS2_S2_:
 415              	.LFB1318:
 416              		.loc 1 54 0
 417              		.cfi_startproc
 418              		@ args = 0, pretend = 0, frame = 0
 419              		@ frame_needed = 0, uses_anonymous_args = 0
 420              		@ link register save eliminated.
 421              	.LVL21:
 422 0000 30B4     		push	{r4, r5}
 423              		.cfi_def_cfa_offset 8
 424              		.cfi_offset 4, -8
 425              		.cfi_offset 5, -4
 426              	.LBB112:
 427              	.LBB113:
 428              	.LBB114:
 429              	.LBB115:
 430              	.LBB116:
 431              	.LBB117:
 432              		.loc 2 493 0
 433 0002 2024     		movs	r4, #32
 434              		.syntax unified
 435              	@ 493 "./RM18A-ChibiOS18-Core/chibios/os/common/ext/ARM/CMSIS/Core/Include/cmsis_gcc.h" 1
 436 0004 84F31188 		MSR basepri, r4
 437              	@ 0 "" 2
 438              	.LVL22:
 439              		.thumb
 440              		.syntax unified
 441              	.LBE117:
 442              	.LBE116:
 443              	.LBE115:
 444              	.LBE114:
 445              	.LBB118:
 446              	.LBB119:
 447              	.LBB120:
 448              	.LBB121:
 449              		.loc 3 147 0
 450 0008 4FF08045 		mov	r5, #1073741824
 451              	.LBE121:
 452              	.LBE120:
 453              	.LBE119:
 454              	.LBE118:
 455              	.LBB125:
 456              	.LBB126:
ARM GAS  /tmp/cchLT3YH.s 			page 9


 457              	.LBB127:
 458              	.LBB128:
 459              	.LBB129:
 460              		.loc 2 493 0
 461 000c 0024     		movs	r4, #0
 462              	.LBE129:
 463              	.LBE128:
 464              	.LBE127:
 465              	.LBE126:
 466              	.LBE125:
 467              	.LBB134:
 468              	.LBB124:
 469              	.LBB123:
 470              	.LBB122:
 471              		.loc 3 147 0
 472 000e 6D6A     		ldr	r5, [r5, #36]
 473              	.LVL23:
 474              	.LBE122:
 475              	.LBE123:
 476              	.LBE124:
 477              	.LBE134:
 478              	.LBB135:
 479              	.LBB133:
 480              	.LBB132:
 481              	.LBB131:
 482              	.LBB130:
 483              		.loc 2 493 0
 484              		.syntax unified
 485              	@ 493 "./RM18A-ChibiOS18-Core/chibios/os/common/ext/ARM/CMSIS/Core/Include/cmsis_gcc.h" 1
 486 0010 84F31188 		MSR basepri, r4
 487              	@ 0 "" 2
 488              	.LVL24:
 489              		.thumb
 490              		.syntax unified
 491              	.LBE130:
 492              	.LBE131:
 493              	.LBE132:
 494              	.LBE133:
 495              	.LBE135:
 496              	.LBE113:
 497              	.LBE112:
 498              	.LBB136:
 499              	.LBB137:
 500              		.loc 4 464 0
 501 0014 0469     		ldr	r4, [r0, #16]
 502              	.LBE137:
 503              	.LBE136:
 504              		.loc 1 57 0
 505 0016 DFED2D7A 		vldr.32	s15, .L36
 506              		.loc 1 61 0
 507 001a 93ED006A 		vldr.32	s12, [r3]
 508              		.loc 1 62 0
 509 001e D0ED025A 		vldr.32	s11, [r0, #8]
 510              		.loc 1 65 0
 511 0022 4369     		ldr	r3, [r0, #20]
 512              	.LVL25:
 513              		.loc 1 61 0
ARM GAS  /tmp/cchLT3YH.s 			page 10


 514 0024 80ED006A 		vstr.32	s12, [r0]
 515              	.LBB139:
 516              	.LBB138:
 517              		.loc 4 464 0
 518 0028 2C1B     		subs	r4, r5, r4
 519              	.LBE138:
 520              	.LBE139:
 521              		.loc 1 57 0
 522 002a 07EE104A 		vmov	s14, r4	@ int
 523 002e B8EE477A 		vcvt.f32.u32	s14, s14
 524              		.loc 1 65 0
 525 0032 D3ED033A 		vldr.32	s7, [r3, #12]
 526 0036 93ED013A 		vldr.32	s6, [r3, #4]
 527              		.loc 1 67 0
 528 003a 93ED055A 		vldr.32	s10, [r3, #20]
 529              		.loc 1 65 0
 530 003e D0ED012A 		vldr.32	s5, [r0, #4]
 531 0042 90ED034A 		vldr.32	s8, [r0, #12]
 532              		.loc 1 58 0
 533 0046 0561     		str	r5, [r0, #16]
 534              		.loc 1 57 0
 535 0048 C7EE276A 		vdiv.f32	s13, s14, s15
 536              	.LVL26:
 537              		.loc 1 62 0
 538 004c E6EE265A 		vfma.f32	s11, s12, s13
 539              		.loc 1 67 0
 540 0050 65EE264A 		vmul.f32	s9, s10, s13
 541              		.loc 1 62 0
 542 0054 C0ED025A 		vstr.32	s11, [r0, #8]
 543              		.loc 1 65 0
 544 0058 D2ED007A 		vldr.32	s15, [r2]
 545 005c 91ED007A 		vldr.32	s14, [r1]
 546 0060 77EEE27A 		vsub.f32	s15, s15, s5
 547 0064 27EE037A 		vmul.f32	s14, s14, s6
 548 0068 67EEA37A 		vmul.f32	s15, s15, s7
 549 006c E7EE267A 		vfma.f32	s15, s14, s13
 550 0070 77EE847A 		vadd.f32	s15, s15, s8
 551              		.loc 1 67 0
 552 0074 F4EEE47A 		vcmpe.f32	s15, s9
 553 0078 F1EE10FA 		vmrs	APSR_nzcv, FPSCR
 554              		.loc 1 65 0
 555 007c C0ED037A 		vstr.32	s15, [r0, #12]
 556              		.loc 1 67 0
 557 0080 1FDC     		bgt	.L34
 558              		.loc 1 69 0
 559 0082 65EE666A 		vnmul.f32	s13, s10, s13
 560              	.LVL27:
 561 0086 F4EEE67A 		vcmpe.f32	s15, s13
 562 008a F1EE10FA 		vmrs	APSR_nzcv, FPSCR
 563 008e 13D9     		bls	.L35
 564              		.loc 1 72 0
 565 0090 9FED0F7A 		vldr.32	s14, .L36+4
 566 0094 F0EE477A 		vmov.f32	s15, s14
 567 0098 80ED037A 		vstr.32	s14, [r0, #12]
 568              	.L26:
 569              		.loc 1 74 0
 570 009c D1ED005A 		vldr.32	s11, [r1]
ARM GAS  /tmp/cchLT3YH.s 			page 11


 571 00a0 D3ED006A 		vldr.32	s13, [r3]
 572 00a4 93ED027A 		vldr.32	s14, [r3, #8]
 573 00a8 E5EEA67A 		vfma.f32	s15, s11, s13
 574              		.loc 1 75 0
 575 00ac 30BC     		pop	{r4, r5}
 576              		.cfi_remember_state
 577              		.cfi_restore 5
 578              		.cfi_restore 4
 579              		.cfi_def_cfa_offset 0
 580              	.LVL28:
 581              		.loc 1 74 0
 582 00ae E6EE077A 		vfma.f32	s15, s12, s14
 583 00b2 C0ED017A 		vstr.32	s15, [r0, #4]
 584              		.loc 1 75 0
 585 00b6 7047     		bx	lr
 586              	.LVL29:
 587              	.L35:
 588              		.cfi_restore_state
 589              		.loc 1 70 0
 590 00b8 77EEA47A 		vadd.f32	s15, s15, s9
 591 00bc C0ED037A 		vstr.32	s15, [r0, #12]
 592 00c0 ECE7     		b	.L26
 593              	.LVL30:
 594              	.L34:
 595              		.loc 1 68 0
 596 00c2 77EEE47A 		vsub.f32	s15, s15, s9
 597 00c6 C0ED037A 		vstr.32	s15, [r0, #12]
 598 00ca E7E7     		b	.L26
 599              	.L37:
 600              		.align	2
 601              	.L36:
 602 00cc 00401C46 		.word	1176256512
 603 00d0 00000000 		.word	0
 604              		.cfi_endproc
 605              	.LFE1318:
 606              		.size	_ZN12MotorControl6PID_aw6updateERKfS2_S2_, .-_ZN12MotorControl6PID_aw6updateERKfS2_S2_
 607              		.section	.text._ZNK12MotorControl6PID_aw9getOutputEv,"ax",%progbits
 608              		.align	1
 609              		.p2align 2,,3
 610              		.global	_ZNK12MotorControl6PID_aw9getOutputEv
 611              		.syntax unified
 612              		.thumb
 613              		.thumb_func
 614              		.fpu fpv4-sp-d16
 615              		.type	_ZNK12MotorControl6PID_aw9getOutputEv, %function
 616              	_ZNK12MotorControl6PID_aw9getOutputEv:
 617              	.LFB1319:
 618              		.loc 1 77 0
 619              		.cfi_startproc
 620              		@ args = 0, pretend = 0, frame = 0
 621              		@ frame_needed = 0, uses_anonymous_args = 0
 622              		@ link register save eliminated.
 623              	.LVL31:
 624              		.loc 1 77 0
 625 0000 90ED010A 		vldr.32	s0, [r0, #4]
 626 0004 7047     		bx	lr
 627              		.cfi_endproc
ARM GAS  /tmp/cchLT3YH.s 			page 12


 628              	.LFE1319:
 629              		.size	_ZNK12MotorControl6PID_aw9getOutputEv, .-_ZNK12MotorControl6PID_aw9getOutputEv
 630 0006 00BF     		.section	.text._ZNK12MotorControl6PID_aw16getOutputBoundedERKfS2_,"ax",%progbits
 631              		.align	1
 632              		.p2align 2,,3
 633              		.global	_ZNK12MotorControl6PID_aw16getOutputBoundedERKfS2_
 634              		.syntax unified
 635              		.thumb
 636              		.thumb_func
 637              		.fpu fpv4-sp-d16
 638              		.type	_ZNK12MotorControl6PID_aw16getOutputBoundedERKfS2_, %function
 639              	_ZNK12MotorControl6PID_aw16getOutputBoundedERKfS2_:
 640              	.LFB1320:
 641              		.loc 1 80 0
 642              		.cfi_startproc
 643              		@ args = 0, pretend = 0, frame = 0
 644              		@ frame_needed = 0, uses_anonymous_args = 0
 645              		@ link register save eliminated.
 646              	.LVL32:
 647              		.loc 1 81 0
 648 0000 D0ED017A 		vldr.32	s15, [r0, #4]
 649 0004 92ED000A 		vldr.32	s0, [r2]
 650 0008 F4EEC07A 		vcmpe.f32	s15, s0
 651 000c F1EE10FA 		vmrs	APSR_nzcv, FPSCR
 652 0010 08DC     		bgt	.L39
 653              		.loc 1 83 0
 654 0012 91ED000A 		vldr.32	s0, [r1]
 655 0016 F4EEC07A 		vcmpe.f32	s15, s0
 656 001a F1EE10FA 		vmrs	APSR_nzcv, FPSCR
 657              		.loc 1 86 0
 658 001e 58BF     		it	pl
 659 0020 B0EE670A 		vmovpl.f32	s0, s15
 660              	.L39:
 661              		.loc 1 87 0
 662 0024 7047     		bx	lr
 663              		.cfi_endproc
 664              	.LFE1320:
 665              		.size	_ZNK12MotorControl6PID_aw16getOutputBoundedERKfS2_, .-_ZNK12MotorControl6PID_aw16getOutputBo
 666 0026 00BF     		.section	.text._ZN12MotorControl6PID_aw5resetEv,"ax",%progbits
 667              		.align	1
 668              		.p2align 2,,3
 669              		.global	_ZN12MotorControl6PID_aw5resetEv
 670              		.syntax unified
 671              		.thumb
 672              		.thumb_func
 673              		.fpu fpv4-sp-d16
 674              		.type	_ZN12MotorControl6PID_aw5resetEv, %function
 675              	_ZN12MotorControl6PID_aw5resetEv:
 676              	.LFB1321:
 677              		.loc 1 90 0
 678              		.cfi_startproc
 679              		@ args = 0, pretend = 0, frame = 0
 680              		@ frame_needed = 0, uses_anonymous_args = 0
 681              		@ link register save eliminated.
 682              	.LVL33:
 683              	.LBB140:
 684              	.LBB141:
ARM GAS  /tmp/cchLT3YH.s 			page 13


 685              	.LBB142:
 686              	.LBB143:
 687              		.loc 3 147 0
 688 0000 4FF08042 		mov	r2, #1073741824
 689              	.LBE143:
 690              	.LBE142:
 691              	.LBE141:
 692              	.LBE140:
 693              		.loc 1 91 0
 694 0004 0023     		movs	r3, #0
 695              	.LBB147:
 696              	.LBB146:
 697              	.LBB145:
 698              	.LBB144:
 699              		.loc 3 147 0
 700 0006 526A     		ldr	r2, [r2, #36]
 701              	.LBE144:
 702              	.LBE145:
 703              	.LBE146:
 704              	.LBE147:
 705              		.loc 1 92 0
 706 0008 0261     		str	r2, [r0, #16]
 707              		.loc 1 91 0
 708 000a 4360     		str	r3, [r0, #4]	@ float
 709 000c 8360     		str	r3, [r0, #8]	@ float
 710 000e C360     		str	r3, [r0, #12]	@ float
 711              		.loc 1 93 0
 712 0010 7047     		bx	lr
 713              		.cfi_endproc
 714              	.LFE1321:
 715              		.size	_ZN12MotorControl6PID_aw5resetEv, .-_ZN12MotorControl6PID_aw5resetEv
 716              		.section	.rodata._ZN12MotorControl13PID_aw_paramsC2EPKcffffff.str1.4,"aMS",%progbits,1
 717              		.align	2
 718              	.LC0:
 719 0000 5F4B7000 		.ascii	"_Kp\000"
 720              	.LC1:
 721 0004 5F4B6900 		.ascii	"_Ki\000"
 722              	.LC2:
 723 0008 5F4B6400 		.ascii	"_Kd\000"
 724              	.LC3:
 725 000c 5F4B6200 		.ascii	"_Kb\000"
 726              	.LC4:
 727 0010 5F4E00   		.ascii	"_N\000"
 728 0013 00       		.space	1
 729              	.LC5:
 730 0014 5F494465 		.ascii	"_IDecay\000"
 730      63617900 
 731              		.text
 732              	.Letext0:
 733              		.file 5 "/usr/lib/gcc/arm-none-eabi/7.3.1/include/stddef.h"
 734              		.file 6 "/usr/arm-none-eabi/include/machine/_default_types.h"
 735              		.file 7 "/usr/arm-none-eabi/include/sys/_stdint.h"
 736              		.file 8 "/usr/arm-none-eabi/include/stdint.h"
 737              		.file 9 "./RM18A-ChibiOS18-Core/chibios/os/common/ports/ARMCMx/compilers/GCC/chtypes.h"
 738              		.file 10 "./RM18A-ChibiOS18-Core/chibios/os/rt/include/chsystypes.h"
 739              		.file 11 "./RM18A-ChibiOS18-Core/chibios/os/rt/include/chschd.h"
 740              		.file 12 "./RM18A-ChibiOS18-Core/chibios/os/common/ext/ARM/CMSIS/Core/Include/core_cm4.h"
ARM GAS  /tmp/cchLT3YH.s 			page 14


 741              		.file 13 "./RM18A-ChibiOS18-Core/chibios/os/common/ext/ST/STM32F4xx/system_stm32f4xx.h"
 742              		.file 14 "./RM18A-ChibiOS18-Core/chibios/os/common/ext/ST/STM32F4xx/stm32f427xx.h"
 743              		.file 15 "./RM18A-ChibiOS18-Core/chibios/os/common/ports/ARMCMx/chcore.h"
 744              		.file 16 "./RM18A-ChibiOS18-Core/chibios/os/common/ports/ARMCMx/chcore_v7m.h"
 745              		.file 17 "./RM18A-ChibiOS18-Core/chibios/os/hal/ports/STM32/LLD/TIMv1/stm32_tim.h"
 746              		.file 18 "./RM18A-ChibiOS18-Core/chibios/os/rt/include/chtm.h"
 747              		.file 19 "./RM18A-ChibiOS18-Core/chibios/os/rt/include/chsem.h"
 748              		.file 20 "./RM18A-ChibiOS18-Core/chibios/os/rt/include/chmtx.h"
 749              		.file 21 "./RM18A-ChibiOS18-Core/chibios/os/rt/include/chsys.h"
 750              		.file 22 "./RM18A-ChibiOS18-Core/chibios/os/rt/include/chregistry.h"
 751              		.file 23 "./RM18A-ChibiOS18-Core/chibios/os/rt/include/chevents.h"
 752              		.file 24 "./RM18A-ChibiOS18-Core/chibios/os/oslib/include/chmemcore.h"
 753              		.file 25 "./RM18A-ChibiOS18-Core/chibios/os/oslib/include/chmempools.h"
 754              		.file 26 "./RM18A-ChibiOS18-Core/chibios/os/oslib/include/chfactory.h"
 755              		.file 27 "./RM18A-ChibiOS18-Core/chibios/os/hal/ports/STM32/LLD/DMAv2/stm32_dma.h"
 756              		.file 28 "./RM18A-ChibiOS18-Core/chibios/os/hal/include/hal_streams.h"
 757              		.file 29 "./RM18A-ChibiOS18-Core/chibios/os/hal/include/hal_queues.h"
 758              		.file 30 "./RM18A-ChibiOS18-Core/chibios/os/hal/include/hal_pal.h"
 759              		.file 31 "./RM18A-ChibiOS18-Core/chibios/os/hal/ports/STM32/LLD/GPIOv2/hal_pal_lld.h"
 760              		.file 32 "./RM18A-ChibiOS18-Core/chibios/os/hal/include/hal_adc.h"
 761              		.file 33 "./RM18A-ChibiOS18-Core/chibios/os/hal/ports/STM32/LLD/ADCv2/hal_adc_lld.h"
 762              		.file 34 "./RM18A-ChibiOS18-Core/chibios/os/hal/include/hal_can.h"
 763              		.file 35 "./RM18A-ChibiOS18-Core/chibios/os/hal/ports/STM32/LLD/CANv1/hal_can_lld.h"
 764              		.file 36 "./RM18A-ChibiOS18-Core/chibios/os/hal/include/hal_i2c.h"
 765              		.file 37 "./RM18A-ChibiOS18-Core/chibios/os/hal/lib/fallback/I2C/hal_i2c_lld.h"
 766              		.file 38 "./RM18A-ChibiOS18-Core/chibios/os/hal/include/hal_icu.h"
 767              		.file 39 "./RM18A-ChibiOS18-Core/chibios/os/hal/ports/STM32/LLD/TIMv1/hal_icu_lld.h"
 768              		.file 40 "./RM18A-ChibiOS18-Core/chibios/os/hal/include/hal_pwm.h"
 769              		.file 41 "./RM18A-ChibiOS18-Core/chibios/os/hal/ports/STM32/LLD/TIMv1/hal_pwm_lld.h"
 770              		.file 42 "./RM18A-ChibiOS18-Core/chibios/os/hal/include/hal_serial.h"
 771              		.file 43 "./RM18A-ChibiOS18-Core/chibios/os/hal/ports/STM32/LLD/USARTv1/hal_serial_lld.h"
 772              		.file 44 "./RM18A-ChibiOS18-Core/chibios/os/hal/include/hal_spi.h"
 773              		.file 45 "./RM18A-ChibiOS18-Core/chibios/os/hal/ports/STM32/LLD/SPIv1/hal_spi_lld.h"
 774              		.file 46 "./RM18A-ChibiOS18-Core/chibios/os/hal/include/hal_uart.h"
 775              		.file 47 "./RM18A-ChibiOS18-Core/chibios/os/hal/ports/STM32/LLD/USARTv1/hal_uart_lld.h"
 776              		.file 48 "./RM18A-ChibiOS18-Core/chibios/os/hal/include/hal_usb.h"
 777              		.file 49 "./RM18A-ChibiOS18-Core/chibios/os/hal/ports/STM32/LLD/OTGv1/hal_usb_lld.h"
 778              		.file 50 "./RM18A-ChibiOS18-Core/chibios/os/hal/ports/STM32/LLD/OTGv1/stm32_otg.h"
 779              		.file 51 "./RM18A-ChibiOS18-Core/src/peripherals/flash.h"
 780              		.file 52 "./RM18A-ChibiOS18-Core/src/shell/shell.h"
 781              		.file 53 "./RM18A-ChibiOS18-Core/src/Persistence.hpp"
 782              		.file 54 "/usr/arm-none-eabi/include/c++/7.3.1/type_traits"
 783              		.file 55 "/usr/arm-none-eabi/include/c++/7.3.1/arm-none-eabi/thumb/v7e-m/fpv4-sp/hard/bits/c++conf
 784              		.file 56 "/usr/arm-none-eabi/include/c++/7.3.1/bits/stl_pair.h"
 785              		.file 57 "/usr/arm-none-eabi/include/c++/7.3.1/new"
 786              		.file 58 "/usr/arm-none-eabi/include/c++/7.3.1/bits/exception_ptr.h"
 787              		.file 59 "/usr/arm-none-eabi/include/c++/7.3.1/debug/debug.h"
 788              		.file 60 "/usr/arm-none-eabi/include/c++/7.3.1/cwchar"
 789              		.file 61 "/usr/arm-none-eabi/include/c++/7.3.1/cstdint"
 790              		.file 62 "/usr/arm-none-eabi/include/c++/7.3.1/clocale"
 791              		.file 63 "/usr/arm-none-eabi/include/c++/7.3.1/cstdlib"
 792              		.file 64 "/usr/arm-none-eabi/include/c++/7.3.1/cstdio"
 793              		.file 65 "/usr/arm-none-eabi/include/c++/7.3.1/bits/predefined_ops.h"
 794              		.file 66 "/usr/arm-none-eabi/include/c++/7.3.1/ext/new_allocator.h"
 795              		.file 67 "/usr/arm-none-eabi/include/c++/7.3.1/ext/numeric_traits.h"
 796              		.file 68 "/usr/arm-none-eabi/include/sys/lock.h"
 797              		.file 69 "/usr/arm-none-eabi/include/sys/_types.h"
ARM GAS  /tmp/cchLT3YH.s 			page 15


 798              		.file 70 "/usr/arm-none-eabi/include/sys/reent.h"
 799              		.file 71 "/usr/lib/gcc/arm-none-eabi/7.3.1/include/stdarg.h"
 800              		.file 72 "<built-in>"
 801              		.file 73 "/usr/arm-none-eabi/include/wchar.h"
 802              		.file 74 "/usr/arm-none-eabi/include/locale.h"
 803              		.file 75 "/usr/arm-none-eabi/include/ctype.h"
 804              		.file 76 "/usr/arm-none-eabi/include/stdlib.h"
 805              		.file 77 "/usr/arm-none-eabi/include/stdio.h"
 806              		.file 78 "/usr/arm-none-eabi/include/sys/errno.h"
 807              		.file 79 "./RM18A-ChibiOS18-Core/src/controller/PID_aw.hpp"
 808              		.file 80 "./RM18A-ChibiOS18-Core/chibios/os/rt/include/chvt.h"
 809              		.file 81 "./RM18A-ChibiOS18-Core/chibios/os/common/ports/ARMCMx/chcore_timer.h"