ARM GAS  /tmp/cc5XCDZZ.s 			page 1


   1              		.cpu cortex-m4
   2              		.eabi_attribute 27, 1
   3              		.eabi_attribute 28, 1
   4              		.eabi_attribute 20, 1
   5              		.eabi_attribute 21, 1
   6              		.eabi_attribute 23, 3
   7              		.eabi_attribute 24, 1
   8              		.eabi_attribute 25, 1
   9              		.eabi_attribute 26, 1
  10              		.eabi_attribute 30, 2
  11              		.eabi_attribute 34, 1
  12              		.eabi_attribute 18, 4
  13              		.file	"PowerController.c"
  14              		.text
  15              	.Ltext0:
  16              		.cfi_sections	.debug_frame
  17              		.section	.text.Power_ControllerInit,"ax",%progbits
  18              		.align	1
  19              		.p2align 2,,3
  20              		.global	Power_ControllerInit
  21              		.syntax unified
  22              		.thumb
  23              		.thumb_func
  24              		.fpu fpv4-sp-d16
  25              		.type	Power_ControllerInit, %function
  26              	Power_ControllerInit:
  27              	.LFB327:
  28              		.file 1 "./RM18A-ChibiOS18-Core/src/controller/PowerController.c"
  29              		.loc 1 35 0
  30              		.cfi_startproc
  31              		@ args = 0, pretend = 0, frame = 0
  32              		@ frame_needed = 0, uses_anonymous_args = 0
  33              	.LVL0:
  34 0000 38B5     		push	{r3, r4, r5, lr}
  35              		.cfi_def_cfa_offset 16
  36              		.cfi_offset 3, -16
  37              		.cfi_offset 4, -12
  38              		.cfi_offset 5, -8
  39              		.cfi_offset 14, -4
  40              		.loc 1 37 0
  41 0002 174A     		ldr	r2, .L4
  42              		.loc 1 36 0
  43 0004 174D     		ldr	r5, .L4+4
  44              		.loc 1 38 0
  45 0006 184B     		ldr	r3, .L4+8
  46              		.loc 1 42 0
  47 0008 184C     		ldr	r4, .L4+12
  48              		.loc 1 35 0
  49 000a 2DED048B 		vpush.64	{d8, d9}
  50              		.cfi_def_cfa_offset 32
  51              		.cfi_offset 80, -32
  52              		.cfi_offset 81, -28
  53              		.cfi_offset 82, -24
  54              		.cfi_offset 83, -20
  55              		.loc 1 42 0
  56 000e 9FED188A 		vldr.32	s16, .L4+16
  57              		.loc 1 36 0
ARM GAS  /tmp/cc5XCDZZ.s 			page 2


  58 0012 85ED000A 		vstr.32	s0, [r5]
  59              		.loc 1 37 0
  60 0016 C2ED000A 		vstr.32	s1, [r2]
  61              		.loc 1 38 0
  62 001a 1860     		str	r0, [r3]
  63              		.loc 1 40 0
  64 001c 154A     		ldr	r2, .L4+20
  65              		.loc 1 41 0
  66 001e 164B     		ldr	r3, .L4+24
  67              		.loc 1 39 0
  68 0020 164D     		ldr	r5, .L4+28
  69              		.loc 1 42 0
  70 0022 DFED170A 		vldr.32	s1, .L4+32
  71              	.LVL1:
  72              		.loc 1 40 0
  73 0026 82ED001A 		vstr.32	s2, [r2]
  74              		.loc 1 35 0
  75 002a F0EE428A 		vmov.f32	s17, s4
  76 002e B0EE629A 		vmov.f32	s18, s5
  77              		.loc 1 42 0
  78 0032 B0EE480A 		vmov.f32	s0, s16
  79              	.LVL2:
  80 0036 2046     		mov	r0, r4
  81              	.LVL3:
  82              		.loc 1 41 0
  83 0038 C3ED001A 		vstr.32	s3, [r3]
  84              		.loc 1 39 0
  85 003c 2960     		str	r1, [r5]
  86              		.loc 1 42 0
  87 003e FFF7FEFF 		bl	pid_init
  88              	.LVL4:
  89              		.loc 1 43 0
  90 0042 B0EE491A 		vmov.f32	s2, s18
  91 0046 F0EE480A 		vmov.f32	s1, s16
  92 004a B0EE680A 		vmov.f32	s0, s17
  93 004e 2046     		mov	r0, r4
  94 0050 FFF7FEFF 		bl	pid_load_param
  95              	.LVL5:
  96              		.loc 1 44 0
  97 0054 0B4B     		ldr	r3, .L4+36
  98 0056 83ED008A 		vstr.32	s16, [r3]
  99              		.loc 1 46 0
 100 005a BDEC048B 		vldm	sp!, {d8-d9}
 101              		.cfi_restore 82
 102              		.cfi_restore 83
 103              		.cfi_restore 80
 104              		.cfi_restore 81
 105              		.cfi_def_cfa_offset 16
 106              	.LVL6:
 107 005e 38BD     		pop	{r3, r4, r5, pc}
 108              	.L5:
 109              		.align	2
 110              	.L4:
 111 0060 00000000 		.word	.LANCHOR1
 112 0064 00000000 		.word	.LANCHOR0
 113 0068 00000000 		.word	.LANCHOR2
 114 006c 00000000 		.word	.LANCHOR6
ARM GAS  /tmp/cc5XCDZZ.s 			page 3


 115 0070 00000000 		.word	0
 116 0074 00000000 		.word	.LANCHOR4
 117 0078 00000000 		.word	.LANCHOR5
 118 007c 00000000 		.word	.LANCHOR3
 119 0080 0000C842 		.word	1120403456
 120 0084 00000000 		.word	.LANCHOR7
 121              		.cfi_endproc
 122              	.LFE327:
 123              		.size	Power_ControllerInit, .-Power_ControllerInit
 124              		.section	.text.Power_GetPowerExpectation,"ax",%progbits
 125              		.align	1
 126              		.p2align 2,,3
 127              		.global	Power_GetPowerExpectation
 128              		.syntax unified
 129              		.thumb
 130              		.thumb_func
 131              		.fpu fpv4-sp-d16
 132              		.type	Power_GetPowerExpectation, %function
 133              	Power_GetPowerExpectation:
 134              	.LFB328:
 135              		.loc 1 49 0
 136              		.cfi_startproc
 137              		@ args = 0, pretend = 0, frame = 0
 138              		@ frame_needed = 0, uses_anonymous_args = 0
 139              		@ link register save eliminated.
 140              		.loc 1 50 0
 141 0000 014B     		ldr	r3, .L7
 142              		.loc 1 51 0
 143 0002 93ED000A 		vldr.32	s0, [r3]
 144 0006 7047     		bx	lr
 145              	.L8:
 146              		.align	2
 147              	.L7:
 148 0008 00000000 		.word	.LANCHOR7
 149              		.cfi_endproc
 150              	.LFE328:
 151              		.size	Power_GetPowerExpectation, .-Power_GetPowerExpectation
 152              		.section	.text.Power_Calculate_Expectation,"ax",%progbits
 153              		.align	1
 154              		.p2align 2,,3
 155              		.global	Power_Calculate_Expectation
 156              		.syntax unified
 157              		.thumb
 158              		.thumb_func
 159              		.fpu fpv4-sp-d16
 160              		.type	Power_Calculate_Expectation, %function
 161              	Power_Calculate_Expectation:
 162              	.LFB329:
 163              		.loc 1 59 0
 164              		.cfi_startproc
 165              		@ args = 0, pretend = 0, frame = 0
 166              		@ frame_needed = 0, uses_anonymous_args = 0
 167              		@ link register save eliminated.
 168              	.LVL7:
 169              		.loc 1 60 0
 170 0000 60EE207A 		vmul.f32	s15, s0, s1
 171 0004 F5EEC07A 		vcmpe.f32	s15, #0
ARM GAS  /tmp/cc5XCDZZ.s 			page 4


 172 0008 F1EE10FA 		vmrs	APSR_nzcv, FPSCR
 173 000c 10DD     		ble	.L14
 174              	.LVL8:
 175              	.LBB16:
 176              	.LBB17:
 177              		.loc 1 61 0
 178 000e 0A4A     		ldr	r2, .L15
 179 0010 0A4B     		ldr	r3, .L15+4
 180 0012 D2ED007A 		vldr.32	s15, [r2]
 181 0016 93ED007A 		vldr.32	s14, [r3]
 182 001a 60EE277A 		vmul.f32	s15, s0, s15
 183 001e 20EE000A 		vmul.f32	s0, s0, s0
 184              	.LVL9:
 185 0022 67EEA00A 		vmul.f32	s1, s15, s1
 186              	.LVL10:
 187 0026 20EE070A 		vmul.f32	s0, s0, s14
 188 002a 30EE200A 		vadd.f32	s0, s0, s1
 189              	.LVL11:
 190 002e 7047     		bx	lr
 191              	.LVL12:
 192              	.L14:
 193              	.LBE17:
 194              	.LBE16:
 195              		.loc 1 63 0
 196 0030 9FED030A 		vldr.32	s0, .L15+8
 197              	.LVL13:
 198              		.loc 1 64 0
 199 0034 7047     		bx	lr
 200              	.L16:
 201 0036 00BF     		.align	2
 202              	.L15:
 203 0038 00000000 		.word	.LANCHOR1
 204 003c 00000000 		.word	.LANCHOR0
 205 0040 00000000 		.word	0
 206              		.cfi_endproc
 207              	.LFE329:
 208              		.size	Power_Calculate_Expectation, .-Power_Calculate_Expectation
 209              		.section	.text.Power_Calculate,"ax",%progbits
 210              		.align	1
 211              		.p2align 2,,3
 212              		.global	Power_Calculate
 213              		.syntax unified
 214              		.thumb
 215              		.thumb_func
 216              		.fpu fpv4-sp-d16
 217              		.type	Power_Calculate, %function
 218              	Power_Calculate:
 219              	.LFB330:
 220              		.loc 1 68 0
 221              		.cfi_startproc
 222              		@ args = 0, pretend = 0, frame = 0
 223              		@ frame_needed = 0, uses_anonymous_args = 0
 224              	.LVL14:
 225 0000 F8B5     		push	{r3, r4, r5, r6, r7, lr}
 226              		.cfi_def_cfa_offset 24
 227              		.cfi_offset 3, -24
 228              		.cfi_offset 4, -20
ARM GAS  /tmp/cc5XCDZZ.s 			page 5


 229              		.cfi_offset 5, -16
 230              		.cfi_offset 6, -12
 231              		.cfi_offset 7, -8
 232              		.cfi_offset 14, -4
 233              		.loc 1 69 0
 234 0002 BC4C     		ldr	r4, .L57
 235              		.loc 1 68 0
 236 0004 2DED028B 		vpush.64	{d8}
 237              		.cfi_def_cfa_offset 32
 238              		.cfi_offset 80, -32
 239              		.cfi_offset 81, -28
 240              		.loc 1 68 0
 241 0008 0646     		mov	r6, r0
 242 000a B0EE608A 		vmov.f32	s16, s1
 243              		.loc 1 69 0
 244 000e BA48     		ldr	r0, .L57+4
 245              	.LVL15:
 246 0010 D4ED000A 		vldr.32	s1, [r4]
 247              	.LVL16:
 248              		.loc 1 68 0
 249 0014 0D46     		mov	r5, r1
 250              		.loc 1 69 0
 251 0016 FFF7FEFF 		bl	pid_update
 252              	.LVL17:
 253              	.LBB38:
 254              		.loc 1 73 0
 255 001a B84B     		ldr	r3, .L57+8
 256              	.LBE38:
 257              		.loc 1 70 0
 258 001c 9FEDB86A 		vldr.32	s12, .L57+12
 259              	.LBB59:
 260              		.loc 1 73 0
 261 0020 1F68     		ldr	r7, [r3]
 262              	.LBE59:
 263              		.loc 1 70 0
 264 0022 84ED006A 		vstr.32	s12, [r4]
 265              	.LVL18:
 266              	.LBB60:
 267              		.loc 1 73 0
 268 0026 002F     		cmp	r7, #0
 269 0028 39DD     		ble	.L18
 270              	.LBB39:
 271              	.LBB40:
 272              	.LBB41:
 273              	.LBB42:
 274              		.loc 1 61 0
 275 002a B649     		ldr	r1, .L57+16
 276 002c B64A     		ldr	r2, .L57+20
 277              	.LBE42:
 278              	.LBE41:
 279              	.LBE40:
 280              	.LBE39:
 281              		.loc 1 75 0
 282 002e B74B     		ldr	r3, .L57+24
 283              	.LBB55:
 284              	.LBB51:
 285              	.LBB47:
ARM GAS  /tmp/cc5XCDZZ.s 			page 6


 286              	.LBB43:
 287              		.loc 1 61 0
 288 0030 91ED004A 		vldr.32	s8, [r1]
 289              	.LBE43:
 290              	.LBE47:
 291              	.LBE51:
 292              	.LBE55:
 293              		.loc 1 75 0
 294 0034 9FEDB65A 		vldr.32	s10, .L57+28
 295              	.LBB56:
 296              	.LBB52:
 297              	.LBB48:
 298              	.LBB44:
 299              		.loc 1 61 0
 300 0038 D2ED004A 		vldr.32	s9, [r2]
 301 003c 1A68     		ldr	r2, [r3]
 302 003e 06EB4701 		add	r1, r6, r7, lsl #1
 303              	.LBE44:
 304              	.LBE48:
 305              		.loc 1 60 0
 306 0042 F0EE463A 		vmov.f32	s7, s12
 307 0046 0239     		subs	r1, r1, #2
 308 0048 B31E     		subs	r3, r6, #2
 309              	.LBE52:
 310              	.LBE56:
 311              		.loc 1 75 0
 312 004a F3EE045A 		vmov.f32	s11, #2.0e+1
 313              	.LVL19:
 314              	.L19:
 315              		.loc 1 75 0 is_stmt 0 discriminator 3
 316 004e 33F9020F 		ldrsh	r0, [r3, #2]!
 317 0052 07EE900A 		vmov	s15, r0	@ int
 318 0056 B2F90200 		ldrsh	r0, [r2, #2]
 319 005a F8EEE77A 		vcvt.f32.s32	s15, s15
 320 005e 07EE100A 		vmov	s14, r0	@ int
 321 0062 67EE857A 		vmul.f32	s15, s15, s10
 322 0066 B8EEC77A 		vcvt.f32.s32	s14, s14
 323 006a 67EEA57A 		vmul.f32	s15, s15, s11
 324              	.LVL20:
 325              	.LBB57:
 326              	.LBB53:
 327              		.loc 1 60 0 is_stmt 1 discriminator 3
 328 006e 67EE876A 		vmul.f32	s13, s15, s14
 329 0072 F5EEC06A 		vcmpe.f32	s13, #0
 330 0076 F1EE10FA 		vmrs	APSR_nzcv, FPSCR
 331 007a 40F31481 		ble	.L52
 332              	.LBB49:
 333              	.LBB45:
 334              		.loc 1 61 0
 335 007e 67EEA76A 		vmul.f32	s13, s15, s15
 336 0082 67EEA47A 		vmul.f32	s15, s15, s9
 337              	.LVL21:
 338 0086 66EE846A 		vmul.f32	s13, s13, s8
 339 008a 67EE877A 		vmul.f32	s15, s15, s14
 340              	.LBE45:
 341              	.LBE49:
 342              	.LBE53:
ARM GAS  /tmp/cc5XCDZZ.s 			page 7


 343              	.LBE57:
 344              		.loc 1 73 0
 345 008e 9942     		cmp	r1, r3
 346              	.LBB58:
 347              	.LBB54:
 348              	.LBB50:
 349              	.LBB46:
 350              		.loc 1 61 0
 351 0090 76EEA77A 		vadd.f32	s15, s13, s15
 352 0094 02F12402 		add	r2, r2, #36
 353              	.LBE46:
 354              	.LBE50:
 355              	.LBE54:
 356              	.LBE58:
 357              		.loc 1 75 0
 358 0098 36EE276A 		vadd.f32	s12, s12, s15
 359              		.loc 1 73 0
 360 009c D7D1     		bne	.L19
 361              	.LVL22:
 362              	.L18:
 363              	.LBE60:
 364              		.loc 1 77 0
 365 009e 30EE066A 		vadd.f32	s12, s0, s12
 366 00a2 84ED006A 		vstr.32	s12, [r4]
 367              		.loc 1 79 0
 368 00a6 002D     		cmp	r5, #0
 369 00a8 00F0F980 		beq	.L49
 370              		.loc 1 79 0 is_stmt 0 discriminator 1
 371 00ac 994A     		ldr	r2, .L57+32
 372 00ae 9A4B     		ldr	r3, .L57+36
 373 00b0 D2ED005A 		vldr.32	s11, [r2]
 374 00b4 D3ED007A 		vldr.32	s15, [r3]
 375 00b8 78EE655A 		vsub.f32	s11, s16, s11
 376 00bc B2EE048A 		vmov.f32	s16, #1.0e+1
 377              	.LVL23:
 378 00c0 65EE885A 		vmul.f32	s11, s11, s16
 379 00c4 75EEA75A 		vadd.f32	s11, s11, s15
 380 00c8 B4EEE56A 		vcmpe.f32	s12, s11
 381 00cc F1EE10FA 		vmrs	APSR_nzcv, FPSCR
 382 00d0 00F1F180 		bmi	.L43
 383              		.loc 1 85 0 is_stmt 1
 384 00d4 75EEC05A 		vsub.f32	s11, s11, s0
 385 00d8 9FED907A 		vldr.32	s14, .L57+40
 386              		.loc 1 86 0
 387 00dc DFED887A 		vldr.32	s15, .L57+12
 388              		.loc 1 85 0
 389 00e0 85EE864A 		vdiv.f32	s8, s11, s12
 390              	.LBB61:
 391              		.loc 1 87 0
 392 00e4 002F     		cmp	r7, #0
 393              	.LBE61:
 394              		.loc 1 86 0
 395 00e6 C4ED007A 		vstr.32	s15, [r4]
 396              	.LVL24:
 397              		.loc 1 85 0
 398 00ea 24EE074A 		vmul.f32	s8, s8, s14
 399              	.LBB80:
ARM GAS  /tmp/cc5XCDZZ.s 			page 8


 400              		.loc 1 87 0
 401 00ee 40F3FE80 		ble	.L25
 402              		.loc 1 90 0
 403 00f2 8649     		ldr	r1, .L57+24
 404              	.LBB62:
 405              	.LBB63:
 406              	.LBB64:
 407              	.LBB65:
 408              		.loc 1 61 0
 409 00f4 834A     		ldr	r2, .L57+16
 410 00f6 844B     		ldr	r3, .L57+20
 411 00f8 0968     		ldr	r1, [r1]
 412 00fa 92ED007A 		vldr.32	s14, [r2]
 413 00fe D3ED006A 		vldr.32	s13, [r3]
 414              	.LBE65:
 415              	.LBE64:
 416              	.LBE63:
 417              	.LBE62:
 418              		.loc 1 90 0
 419 0102 9FED833A 		vldr.32	s6, .L57+28
 420 0106 7F00     		lsls	r7, r7, #1
 421 0108 023F     		subs	r7, r7, #2
 422 010a B21E     		subs	r2, r6, #2
 423              	.LBB77:
 424              	.LBB74:
 425              	.LBB70:
 426              	.LBB66:
 427              		.loc 1 61 0
 428 010c B0EE676A 		vmov.f32	s12, s15
 429              	.LBE66:
 430              	.LBE70:
 431              		.loc 1 60 0
 432 0110 F0EE672A 		vmov.f32	s5, s15
 433 0114 06EB070E 		add	lr, r6, r7
 434              	.LBB71:
 435              	.LBB67:
 436              		.loc 1 61 0
 437 0118 8C46     		mov	ip, r1
 438 011a 1046     		mov	r0, r2
 439              	.LBE67:
 440              	.LBE71:
 441              	.LBE74:
 442              	.LBE77:
 443              		.loc 1 90 0
 444 011c F3EE043A 		vmov.f32	s7, #2.0e+1
 445              	.LVL25:
 446              	.L26:
 447              		.loc 1 89 0 discriminator 3
 448 0120 30F9023F 		ldrsh	r3, [r0, #2]!
 449 0124 07EE903A 		vmov	s15, r3	@ int
 450 0128 F8EEE77A 		vcvt.f32.s32	s15, s15
 451 012c 67EE847A 		vmul.f32	s15, s15, s8
 452 0130 FDEEE77A 		vcvt.s32.f32	s15, s15
 453 0134 17EE903A 		vmov	r3, s15	@ int
 454 0138 1BB2     		sxth	r3, r3
 455              		.loc 1 90 0 discriminator 3
 456 013a 07EE903A 		vmov	s15, r3	@ int
ARM GAS  /tmp/cc5XCDZZ.s 			page 9


 457              		.loc 1 89 0 discriminator 3
 458 013e 0380     		strh	r3, [r0]	@ movhi
 459              		.loc 1 90 0 discriminator 3
 460 0140 F8EEE77A 		vcvt.f32.s32	s15, s15
 461 0144 BCF90230 		ldrsh	r3, [ip, #2]
 462 0148 67EE837A 		vmul.f32	s15, s15, s6
 463 014c 05EE103A 		vmov	s10, r3	@ int
 464 0150 67EEA37A 		vmul.f32	s15, s15, s7
 465              	.LVL26:
 466 0154 B8EEC55A 		vcvt.f32.s32	s10, s10
 467              	.LVL27:
 468              	.LBB78:
 469              	.LBB75:
 470              		.loc 1 60 0 discriminator 3
 471 0158 67EE854A 		vmul.f32	s9, s15, s10
 472 015c F5EEC04A 		vcmpe.f32	s9, #0
 473 0160 F1EE10FA 		vmrs	APSR_nzcv, FPSCR
 474 0164 40F3B480 		ble	.L53
 475              	.LBB72:
 476              	.LBB68:
 477              		.loc 1 61 0
 478 0168 67EEA74A 		vmul.f32	s9, s15, s15
 479 016c 67EEA67A 		vmul.f32	s15, s15, s13
 480              	.LVL28:
 481 0170 64EE874A 		vmul.f32	s9, s9, s14
 482 0174 67EE857A 		vmul.f32	s15, s15, s10
 483              	.LBE68:
 484              	.LBE72:
 485              	.LBE75:
 486              	.LBE78:
 487              		.loc 1 87 0
 488 0178 8645     		cmp	lr, r0
 489              	.LBB79:
 490              	.LBB76:
 491              	.LBB73:
 492              	.LBB69:
 493              		.loc 1 61 0
 494 017a 74EEA77A 		vadd.f32	s15, s9, s15
 495 017e 0CF1240C 		add	ip, ip, #36
 496              	.LBE69:
 497              	.LBE73:
 498              	.LBE76:
 499              	.LBE79:
 500              		.loc 1 90 0
 501 0182 36EE276A 		vadd.f32	s12, s12, s15
 502              		.loc 1 87 0
 503 0186 CBD1     		bne	.L26
 504              	.LVL29:
 505              	.L30:
 506              	.LBE80:
 507              		.loc 1 92 0
 508 0188 30EE066A 		vadd.f32	s12, s0, s12
 509              		.loc 1 95 0
 510 018c DFED5C4A 		vldr.32	s9, .L57+12
 511              	.LBB81:
 512              		.loc 1 99 0
 513 0190 9FED5F3A 		vldr.32	s6, .L57+28
ARM GAS  /tmp/cc5XCDZZ.s 			page 10


 514              	.LBE81:
 515              		.loc 1 95 0
 516 0194 C4ED004A 		vstr.32	s9, [r4]
 517              	.LVL30:
 518              		.loc 1 94 0
 519 0198 C5EE863A 		vdiv.f32	s7, s11, s12
 520 019c 06EB070E 		add	lr, r6, r7
 521              		.loc 1 95 0
 522 01a0 8C46     		mov	ip, r1
 523 01a2 1046     		mov	r0, r2
 524              	.LBB92:
 525              	.LBB82:
 526              	.LBB83:
 527              		.loc 1 60 0
 528 01a4 F0EE642A 		vmov.f32	s5, s9
 529              	.LBE83:
 530              	.LBE82:
 531              		.loc 1 99 0
 532 01a8 B3EE044A 		vmov.f32	s8, #2.0e+1
 533              	.LVL31:
 534              	.L40:
 535              		.loc 1 98 0 discriminator 3
 536 01ac 30F9023F 		ldrsh	r3, [r0, #2]!
 537 01b0 07EE903A 		vmov	s15, r3	@ int
 538 01b4 F8EEE77A 		vcvt.f32.s32	s15, s15
 539 01b8 67EEA37A 		vmul.f32	s15, s15, s7
 540 01bc FDEEE77A 		vcvt.s32.f32	s15, s15
 541 01c0 17EE903A 		vmov	r3, s15	@ int
 542 01c4 1BB2     		sxth	r3, r3
 543              		.loc 1 99 0 discriminator 3
 544 01c6 07EE903A 		vmov	s15, r3	@ int
 545              		.loc 1 98 0 discriminator 3
 546 01ca 0380     		strh	r3, [r0]	@ movhi
 547              		.loc 1 99 0 discriminator 3
 548 01cc F8EEE77A 		vcvt.f32.s32	s15, s15
 549 01d0 BCF90230 		ldrsh	r3, [ip, #2]
 550 01d4 67EE837A 		vmul.f32	s15, s15, s6
 551 01d8 06EE103A 		vmov	s12, r3	@ int
 552 01dc 67EE847A 		vmul.f32	s15, s15, s8
 553              	.LVL32:
 554 01e0 B8EEC66A 		vcvt.f32.s32	s12, s12
 555              	.LVL33:
 556              	.LBB90:
 557              	.LBB88:
 558              		.loc 1 60 0 discriminator 3
 559 01e4 27EE865A 		vmul.f32	s10, s15, s12
 560 01e8 B5EEC05A 		vcmpe.f32	s10, #0
 561 01ec F1EE10FA 		vmrs	APSR_nzcv, FPSCR
 562 01f0 66DD     		ble	.L54
 563              	.LBB84:
 564              	.LBB85:
 565              		.loc 1 61 0
 566 01f2 27EEA75A 		vmul.f32	s10, s15, s15
 567 01f6 67EEA67A 		vmul.f32	s15, s15, s13
 568              	.LVL34:
 569 01fa 25EE075A 		vmul.f32	s10, s10, s14
 570 01fe 67EE867A 		vmul.f32	s15, s15, s12
ARM GAS  /tmp/cc5XCDZZ.s 			page 11


 571              	.LBE85:
 572              	.LBE84:
 573              	.LBE88:
 574              	.LBE90:
 575              		.loc 1 96 0
 576 0202 8645     		cmp	lr, r0
 577              	.LBB91:
 578              	.LBB89:
 579              	.LBB87:
 580              	.LBB86:
 581              		.loc 1 61 0
 582 0204 75EE277A 		vadd.f32	s15, s10, s15
 583 0208 0CF1240C 		add	ip, ip, #36
 584              	.LBE86:
 585              	.LBE87:
 586              	.LBE89:
 587              	.LBE91:
 588              		.loc 1 99 0
 589 020c 74EEA74A 		vadd.f32	s9, s9, s15
 590              		.loc 1 96 0
 591 0210 CCD1     		bne	.L40
 592              	.LVL35:
 593              	.L34:
 594              	.LBE92:
 595              		.loc 1 104 0
 596 0212 9FED3B6A 		vldr.32	s12, .L57+12
 597              	.LBB93:
 598              		.loc 1 108 0
 599 0216 DFED3E3A 		vldr.32	s7, .L57+28
 600              	.LBE93:
 601              		.loc 1 104 0
 602 021a 84ED006A 		vstr.32	s12, [r4]
 603              	.LVL36:
 604              		.loc 1 101 0
 605 021e 70EE244A 		vadd.f32	s9, s0, s9
 606 0222 3E44     		add	r6, r6, r7
 607              	.LVL37:
 608              		.loc 1 103 0
 609 0224 85EEA44A 		vdiv.f32	s8, s11, s9
 610              	.LBB104:
 611              	.LBB94:
 612              	.LBB95:
 613              		.loc 1 60 0
 614 0228 B0EE463A 		vmov.f32	s6, s12
 615              	.LBE95:
 616              	.LBE94:
 617              		.loc 1 108 0
 618 022c F3EE044A 		vmov.f32	s9, #2.0e+1
 619              	.LVL38:
 620              	.L41:
 621              		.loc 1 107 0 discriminator 3
 622 0230 32F9023F 		ldrsh	r3, [r2, #2]!
 623 0234 07EE903A 		vmov	s15, r3	@ int
 624 0238 F8EEE77A 		vcvt.f32.s32	s15, s15
 625 023c 67EE847A 		vmul.f32	s15, s15, s8
 626 0240 FDEEE77A 		vcvt.s32.f32	s15, s15
 627 0244 17EE903A 		vmov	r3, s15	@ int
ARM GAS  /tmp/cc5XCDZZ.s 			page 12


 628 0248 1BB2     		sxth	r3, r3
 629              		.loc 1 108 0 discriminator 3
 630 024a 07EE903A 		vmov	s15, r3	@ int
 631              		.loc 1 107 0 discriminator 3
 632 024e 1380     		strh	r3, [r2]	@ movhi
 633              		.loc 1 108 0 discriminator 3
 634 0250 F8EEE77A 		vcvt.f32.s32	s15, s15
 635 0254 B1F90230 		ldrsh	r3, [r1, #2]
 636 0258 67EEA37A 		vmul.f32	s15, s15, s7
 637 025c 05EE903A 		vmov	s11, r3	@ int
 638 0260 67EEA47A 		vmul.f32	s15, s15, s9
 639              	.LVL39:
 640 0264 F8EEE55A 		vcvt.f32.s32	s11, s11
 641              	.LVL40:
 642              	.LBB102:
 643              	.LBB100:
 644              		.loc 1 60 0 discriminator 3
 645 0268 27EEA55A 		vmul.f32	s10, s15, s11
 646 026c B5EEC05A 		vcmpe.f32	s10, #0
 647 0270 F1EE10FA 		vmrs	APSR_nzcv, FPSCR
 648 0274 34DD     		ble	.L55
 649              	.LBB96:
 650              	.LBB97:
 651              		.loc 1 61 0
 652 0276 27EEA75A 		vmul.f32	s10, s15, s15
 653 027a 67EEA67A 		vmul.f32	s15, s15, s13
 654              	.LVL41:
 655 027e 25EE075A 		vmul.f32	s10, s10, s14
 656 0282 67EEA57A 		vmul.f32	s15, s15, s11
 657              	.LBE97:
 658              	.LBE96:
 659              	.LBE100:
 660              	.LBE102:
 661              		.loc 1 105 0
 662 0286 B242     		cmp	r2, r6
 663              	.LBB103:
 664              	.LBB101:
 665              	.LBB99:
 666              	.LBB98:
 667              		.loc 1 61 0
 668 0288 75EE277A 		vadd.f32	s15, s10, s15
 669 028c 01F12401 		add	r1, r1, #36
 670              	.LBE98:
 671              	.LBE99:
 672              	.LBE101:
 673              	.LBE103:
 674              		.loc 1 108 0
 675 0290 36EE276A 		vadd.f32	s12, s12, s15
 676              		.loc 1 105 0
 677 0294 CCD1     		bne	.L41
 678              	.LVL42:
 679              	.L38:
 680 0296 30EE060A 		vadd.f32	s0, s0, s12
 681              	.L39:
 682              	.LBE104:
 683              		.loc 1 110 0
 684 029a 84ED000A 		vstr.32	s0, [r4]
ARM GAS  /tmp/cc5XCDZZ.s 			page 13


 685              	.L49:
 686              		.loc 1 114 0
 687 029e BDEC028B 		vldm	sp!, {d8}
 688              		.cfi_remember_state
 689              		.cfi_restore 80
 690              		.cfi_restore 81
 691              		.cfi_def_cfa_offset 24
 692 02a2 2846     		mov	r0, r5
 693 02a4 F8BD     		pop	{r3, r4, r5, r6, r7, pc}
 694              	.LVL43:
 695              	.L52:
 696              		.cfi_restore_state
 697              	.LBB105:
 698              		.loc 1 73 0
 699 02a6 9942     		cmp	r1, r3
 700              		.loc 1 75 0
 701 02a8 36EE236A 		vadd.f32	s12, s12, s7
 702 02ac 02F12402 		add	r2, r2, #36
 703              		.loc 1 73 0
 704 02b0 7FF4CDAE 		bne	.L19
 705 02b4 F3E6     		b	.L18
 706              	.LVL44:
 707              	.L43:
 708              	.LBE105:
 709              		.loc 1 114 0
 710 02b6 BDEC028B 		vldm	sp!, {d8}
 711              		.cfi_remember_state
 712              		.cfi_restore 80
 713              		.cfi_restore 81
 714              		.cfi_def_cfa_offset 24
 715              		.loc 1 80 0
 716 02ba 0025     		movs	r5, #0
 717              		.loc 1 114 0
 718 02bc 2846     		mov	r0, r5
 719 02be F8BD     		pop	{r3, r4, r5, r6, r7, pc}
 720              	.LVL45:
 721              	.L54:
 722              		.cfi_restore_state
 723              	.LBB106:
 724              		.loc 1 96 0
 725 02c0 8645     		cmp	lr, r0
 726              		.loc 1 99 0
 727 02c2 74EEA24A 		vadd.f32	s9, s9, s5
 728 02c6 0CF1240C 		add	ip, ip, #36
 729              		.loc 1 96 0
 730 02ca 7FF46FAF 		bne	.L40
 731 02ce A0E7     		b	.L34
 732              	.LVL46:
 733              	.L53:
 734              	.LBE106:
 735              	.LBB107:
 736              		.loc 1 87 0
 737 02d0 8645     		cmp	lr, r0
 738              		.loc 1 90 0
 739 02d2 36EE226A 		vadd.f32	s12, s12, s5
 740 02d6 0CF1240C 		add	ip, ip, #36
 741              		.loc 1 87 0
ARM GAS  /tmp/cc5XCDZZ.s 			page 14


 742 02da 7FF421AF 		bne	.L26
 743 02de 53E7     		b	.L30
 744              	.LVL47:
 745              	.L55:
 746              	.LBE107:
 747              	.LBB108:
 748              		.loc 1 105 0
 749 02e0 B242     		cmp	r2, r6
 750              		.loc 1 108 0
 751 02e2 36EE036A 		vadd.f32	s12, s12, s6
 752 02e6 01F12401 		add	r1, r1, #36
 753              		.loc 1 105 0
 754 02ea A1D1     		bne	.L41
 755 02ec D3E7     		b	.L38
 756              	.LVL48:
 757              	.L25:
 758              	.LBE108:
 759              		.loc 1 101 0
 760 02ee 30EE270A 		vadd.f32	s0, s0, s15
 761              	.LVL49:
 762 02f2 D2E7     		b	.L39
 763              	.L58:
 764              		.align	2
 765              	.L57:
 766 02f4 00000000 		.word	.LANCHOR7
 767 02f8 00000000 		.word	.LANCHOR6
 768 02fc 00000000 		.word	.LANCHOR2
 769 0300 00000000 		.word	0
 770 0304 00000000 		.word	.LANCHOR0
 771 0308 00000000 		.word	.LANCHOR1
 772 030c 00000000 		.word	.LANCHOR3
 773 0310 00008038 		.word	947912704
 774 0314 00000000 		.word	.LANCHOR4
 775 0318 00000000 		.word	.LANCHOR5
 776 031c 3333333F 		.word	1060320051
 777              		.cfi_endproc
 778              	.LFE330:
 779              		.size	Power_Calculate, .-Power_Calculate
 780              		.section	.bss.expectation,"aw",%nobits
 781              		.align	2
 782              		.set	.LANCHOR7,. + 0
 783              		.type	expectation, %object
 784              		.size	expectation, 4
 785              	expectation:
 786 0000 00000000 		.space	4
 787              		.section	.bss.feedbackPID,"aw",%nobits
 788              		.align	2
 789              		.set	.LANCHOR6,. + 0
 790              		.type	feedbackPID, %object
 791              		.size	feedbackPID, 36
 792              	feedbackPID:
 793 0000 00000000 		.space	36
 793      00000000 
 793      00000000 
 793      00000000 
 793      00000000 
 794              		.section	.bss.kBEMF,"aw",%nobits
ARM GAS  /tmp/cc5XCDZZ.s 			page 15


 795              		.align	2
 796              		.set	.LANCHOR1,. + 0
 797              		.type	kBEMF, %object
 798              		.size	kBEMF, 4
 799              	kBEMF:
 800 0000 00000000 		.space	4
 801              		.section	.bss.motorAddress,"aw",%nobits
 802              		.align	2
 803              		.set	.LANCHOR3,. + 0
 804              		.type	motorAddress, %object
 805              		.size	motorAddress, 4
 806              	motorAddress:
 807 0000 00000000 		.space	4
 808              		.section	.bss.motorNumber,"aw",%nobits
 809              		.align	2
 810              		.set	.LANCHOR2,. + 0
 811              		.type	motorNumber, %object
 812              		.size	motorNumber, 4
 813              	motorNumber:
 814 0000 00000000 		.space	4
 815              		.section	.bss.powerLimitation,"aw",%nobits
 816              		.align	2
 817              		.set	.LANCHOR5,. + 0
 818              		.type	powerLimitation, %object
 819              		.size	powerLimitation, 4
 820              	powerLimitation:
 821 0000 00000000 		.space	4
 822              		.section	.bss.reservedBuffer,"aw",%nobits
 823              		.align	2
 824              		.set	.LANCHOR4,. + 0
 825              		.type	reservedBuffer, %object
 826              		.size	reservedBuffer, 4
 827              	reservedBuffer:
 828 0000 00000000 		.space	4
 829              		.section	.bss.resistance,"aw",%nobits
 830              		.align	2
 831              		.set	.LANCHOR0,. + 0
 832              		.type	resistance, %object
 833              		.size	resistance, 4
 834              	resistance:
 835 0000 00000000 		.space	4
 836              		.text
 837              	.Letext0:
 838              		.file 2 "/usr/lib/gcc/arm-none-eabi/7.3.1/include/stddef.h"
 839              		.file 3 "/usr/arm-none-eabi/include/machine/_default_types.h"
 840              		.file 4 "/usr/arm-none-eabi/include/sys/_stdint.h"
 841              		.file 5 "./RM18A-ChibiOS18-Core/chibios/os/common/ports/ARMCMx/compilers/GCC/chtypes.h"
 842              		.file 6 "./RM18A-ChibiOS18-Core/chibios/os/rt/include/chsystypes.h"
 843              		.file 7 "./RM18A-ChibiOS18-Core/chibios/os/rt/include/chschd.h"
 844              		.file 8 "./RM18A-ChibiOS18-Core/chibios/os/rt/include/chtime.h"
 845              		.file 9 "./RM18A-ChibiOS18-Core/chibios/os/common/ext/ARM/CMSIS/Core/Include/core_cm4.h"
 846              		.file 10 "./RM18A-ChibiOS18-Core/chibios/os/common/ext/ST/STM32F4xx/system_stm32f4xx.h"
 847              		.file 11 "./RM18A-ChibiOS18-Core/chibios/os/common/ext/ST/STM32F4xx/stm32f427xx.h"
 848              		.file 12 "./RM18A-ChibiOS18-Core/chibios/os/common/ports/ARMCMx/chcore.h"
 849              		.file 13 "./RM18A-ChibiOS18-Core/chibios/os/common/ports/ARMCMx/chcore_v7m.h"
 850              		.file 14 "./RM18A-ChibiOS18-Core/chibios/os/hal/ports/STM32/LLD/TIMv1/stm32_tim.h"
 851              		.file 15 "./RM18A-ChibiOS18-Core/chibios/os/rt/include/chtm.h"
ARM GAS  /tmp/cc5XCDZZ.s 			page 16


 852              		.file 16 "./RM18A-ChibiOS18-Core/chibios/os/rt/include/chsem.h"
 853              		.file 17 "./RM18A-ChibiOS18-Core/chibios/os/rt/include/chmtx.h"
 854              		.file 18 "./RM18A-ChibiOS18-Core/chibios/os/rt/include/chsys.h"
 855              		.file 19 "./RM18A-ChibiOS18-Core/chibios/os/rt/include/chregistry.h"
 856              		.file 20 "./RM18A-ChibiOS18-Core/chibios/os/rt/include/chevents.h"
 857              		.file 21 "./RM18A-ChibiOS18-Core/chibios/os/oslib/include/chmemcore.h"
 858              		.file 22 "./RM18A-ChibiOS18-Core/chibios/os/oslib/include/chmempools.h"
 859              		.file 23 "./RM18A-ChibiOS18-Core/chibios/os/oslib/include/chfactory.h"
 860              		.file 24 "./RM18A-ChibiOS18-Core/chibios/os/hal/ports/STM32/LLD/DMAv2/stm32_dma.h"
 861              		.file 25 "./RM18A-ChibiOS18-Core/chibios/os/hal/include/hal_queues.h"
 862              		.file 26 "./RM18A-ChibiOS18-Core/chibios/os/hal/include/hal_pal.h"
 863              		.file 27 "./RM18A-ChibiOS18-Core/chibios/os/hal/ports/STM32/LLD/GPIOv2/hal_pal_lld.h"
 864              		.file 28 "./RM18A-ChibiOS18-Core/chibios/os/hal/include/hal_adc.h"
 865              		.file 29 "./RM18A-ChibiOS18-Core/chibios/os/hal/ports/STM32/LLD/ADCv2/hal_adc_lld.h"
 866              		.file 30 "./RM18A-ChibiOS18-Core/chibios/os/hal/include/hal_can.h"
 867              		.file 31 "./RM18A-ChibiOS18-Core/chibios/os/hal/ports/STM32/LLD/CANv1/hal_can_lld.h"
 868              		.file 32 "./RM18A-ChibiOS18-Core/chibios/os/hal/include/hal_i2c.h"
 869              		.file 33 "./RM18A-ChibiOS18-Core/chibios/os/hal/ports/STM32/LLD/I2Cv1/hal_i2c_lld.h"
 870              		.file 34 "./RM18A-ChibiOS18-Core/chibios/os/hal/include/hal_pwm.h"
 871              		.file 35 "./RM18A-ChibiOS18-Core/chibios/os/hal/ports/STM32/LLD/TIMv1/hal_pwm_lld.h"
 872              		.file 36 "./RM18A-ChibiOS18-Core/chibios/os/hal/include/hal_serial.h"
 873              		.file 37 "./RM18A-ChibiOS18-Core/chibios/os/hal/ports/STM32/LLD/USARTv1/hal_serial_lld.h"
 874              		.file 38 "./RM18A-ChibiOS18-Core/chibios/os/hal/include/hal_spi.h"
 875              		.file 39 "./RM18A-ChibiOS18-Core/chibios/os/hal/ports/STM32/LLD/SPIv1/hal_spi_lld.h"
 876              		.file 40 "./RM18A-ChibiOS18-Core/chibios/os/hal/include/hal_uart.h"
 877              		.file 41 "./RM18A-ChibiOS18-Core/chibios/os/hal/ports/STM32/LLD/USARTv1/hal_uart_lld.h"
 878              		.file 42 "./RM18A-ChibiOS18-Core/chibios/os/hal/include/hal_usb.h"
 879              		.file 43 "./RM18A-ChibiOS18-Core/chibios/os/hal/ports/STM32/LLD/OTGv1/hal_usb_lld.h"
 880              		.file 44 "./RM18A-ChibiOS18-Core/chibios/os/hal/ports/STM32/LLD/OTGv1/stm32_otg.h"
 881              		.file 45 "./RM18A-ChibiOS18-Core/src/utility/pid.h"
 882              		.file 46 "./RM18A-ChibiOS18-Core/src/peripherals/CAN_Manager.h"
 883              		.file 47 "./RM18A-ChibiOS18-Core/src/ext_hw/motor.h"