ARM GAS  /tmp/ccOQG5lK.s 			page 1


   1              		.cpu cortex-m4
   2              		.eabi_attribute 27, 1
   3              		.eabi_attribute 28, 1
   4              		.eabi_attribute 20, 1
   5              		.eabi_attribute 21, 1
   6              		.eabi_attribute 23, 3
   7              		.eabi_attribute 24, 1
   8              		.eabi_attribute 25, 1
   9              		.eabi_attribute 26, 1
  10              		.eabi_attribute 30, 2
  11              		.eabi_attribute 34, 1
  12              		.eabi_attribute 18, 4
  13              		.file	"print_object.c"
  14              		.text
  15              	.Ltext0:
  16              		.cfi_sections	.debug_frame
  17              		.section	.text.progressBar_init,"ax",%progbits
  18              		.align	1
  19              		.p2align 2,,3
  20              		.global	progressBar_init
  21              		.syntax unified
  22              		.thumb
  23              		.thumb_func
  24              		.fpu fpv4-sp-d16
  25              		.type	progressBar_init, %function
  26              	progressBar_init:
  27              	.LFB327:
  28              		.file 1 "./RM18A-ChibiOS18-Core/src/utility/print_object.c"
  29              		.loc 1 6 0
  30              		.cfi_startproc
  31              		@ args = 0, pretend = 0, frame = 0
  32              		@ frame_needed = 0, uses_anonymous_args = 0
  33              		@ link register save eliminated.
  34              	.LVL0:
  35 0000 70B4     		push	{r4, r5, r6}
  36              		.cfi_def_cfa_offset 12
  37              		.cfi_offset 4, -12
  38              		.cfi_offset 5, -8
  39              		.cfi_offset 6, -4
  40              		.loc 1 11 0
  41 0002 094C     		ldr	r4, .L4
  42              		.loc 1 7 0
  43 0004 0160     		str	r1, [r0]
  44              		.loc 1 11 0
  45 0006 A4FB0234 		umull	r3, r4, r4, r2
  46              		.loc 1 6 0
  47 000a 0346     		mov	r3, r0
  48              		.loc 1 10 0
  49 000c 0025     		movs	r5, #0
  50              		.loc 1 11 0
  51 000e 2409     		lsrs	r4, r4, #4
  52              		.loc 1 8 0
  53 0010 C260     		str	r2, [r0, #12]
  54              		.loc 1 13 0
  55 0012 A6B2     		uxth	r6, r4
  56              		.loc 1 12 0
  57 0014 9D74     		strb	r5, [r3, #18]
ARM GAS  /tmp/ccOQG5lK.s 			page 2


  58              		.loc 1 16 0
  59 0016 0846     		mov	r0, r1
  60              	.LVL1:
  61              		.loc 1 11 0
  62 0018 1C82     		strh	r4, [r3, #16]	@ movhi
  63              		.loc 1 13 0
  64 001a 5E61     		str	r6, [r3, #20]
  65              		.loc 1 10 0
  66 001c 9D60     		str	r5, [r3, #8]
  67              		.loc 1 14 0
  68 001e 1D71     		strb	r5, [r3, #4]
  69              		.loc 1 16 0
  70 0020 0249     		ldr	r1, .L4+4
  71              	.LVL2:
  72              		.loc 1 17 0
  73 0022 70BC     		pop	{r4, r5, r6}
  74              		.cfi_restore 6
  75              		.cfi_restore 5
  76              		.cfi_restore 4
  77              		.cfi_def_cfa_offset 0
  78              		.loc 1 16 0
  79 0024 FFF7FEBF 		b	chprintf
  80              	.LVL3:
  81              	.L5:
  82              		.align	2
  83              	.L4:
  84 0028 CDCCCCCC 		.word	-858993459
  85 002c 00000000 		.word	.LC0
  86              		.cfi_endproc
  87              	.LFE327:
  88              		.size	progressBar_init, .-progressBar_init
  89              		.section	.text.progressBar_finished,"ax",%progbits
  90              		.align	1
  91              		.p2align 2,,3
  92              		.global	progressBar_finished
  93              		.syntax unified
  94              		.thumb
  95              		.thumb_func
  96              		.fpu fpv4-sp-d16
  97              		.type	progressBar_finished, %function
  98              	progressBar_finished:
  99              	.LFB328:
 100              		.loc 1 20 0
 101              		.cfi_startproc
 102              		@ args = 0, pretend = 0, frame = 0
 103              		@ frame_needed = 0, uses_anonymous_args = 0
 104              		@ link register save eliminated.
 105              	.LVL4:
 106              		.loc 1 22 0
 107 0000 0079     		ldrb	r0, [r0, #4]	@ zero_extendqisi2
 108              	.LVL5:
 109 0002 7047     		bx	lr
 110              		.cfi_endproc
 111              	.LFE328:
 112              		.size	progressBar_finished, .-progressBar_finished
 113              		.section	.text.progressBar_update,"ax",%progbits
 114              		.align	1
ARM GAS  /tmp/ccOQG5lK.s 			page 3


 115              		.p2align 2,,3
 116              		.global	progressBar_update
 117              		.syntax unified
 118              		.thumb
 119              		.thumb_func
 120              		.fpu fpv4-sp-d16
 121              		.type	progressBar_update, %function
 122              	progressBar_update:
 123              	.LFB329:
 124              		.loc 1 29 0
 125              		.cfi_startproc
 126              		@ args = 0, pretend = 0, frame = 0
 127              		@ frame_needed = 0, uses_anonymous_args = 0
 128              	.LVL6:
 129 0000 38B5     		push	{r3, r4, r5, lr}
 130              		.cfi_def_cfa_offset 16
 131              		.cfi_offset 3, -16
 132              		.cfi_offset 4, -12
 133              		.cfi_offset 5, -8
 134              		.cfi_offset 14, -4
 135              		.loc 1 30 0
 136 0002 8368     		ldr	r3, [r0, #8]
 137              		.loc 1 31 0
 138 0004 4169     		ldr	r1, [r0, #20]
 139              		.loc 1 30 0
 140 0006 0133     		adds	r3, r3, #1
 141              		.loc 1 31 0
 142 0008 8B42     		cmp	r3, r1
 143              		.loc 1 29 0
 144 000a 0446     		mov	r4, r0
 145              		.loc 1 30 0
 146 000c 8360     		str	r3, [r0, #8]
 147              		.loc 1 31 0
 148 000e 1FD3     		bcc	.L8
 149              		.loc 1 33 0
 150 0010 827C     		ldrb	r2, [r0, #18]	@ zero_extendqisi2
 151              		.loc 1 36 0
 152 0012 0068     		ldr	r0, [r0]
 153              	.LVL7:
 154              		.loc 1 34 0
 155 0014 238A     		ldrh	r3, [r4, #16]
 156              		.loc 1 33 0
 157 0016 0132     		adds	r2, r2, #1
 158 0018 A274     		strb	r2, [r4, #18]
 159              		.loc 1 36 0
 160 001a 0268     		ldr	r2, [r0]
 161              		.loc 1 34 0
 162 001c 0B44     		add	r3, r3, r1
 163              		.loc 1 36 0
 164 001e D268     		ldr	r2, [r2, #12]
 165              		.loc 1 34 0
 166 0020 6361     		str	r3, [r4, #20]
 167              		.loc 1 36 0
 168 0022 5B21     		movs	r1, #91
 169 0024 9047     		blx	r2
 170              	.LVL8:
 171              	.LBB2:
ARM GAS  /tmp/ccOQG5lK.s 			page 4


 172              		.loc 1 37 0
 173 0026 A37C     		ldrb	r3, [r4, #18]	@ zero_extendqisi2
 174 0028 63B1     		cbz	r3, .L9
 175 002a 0125     		movs	r5, #1
 176 002c 00E0     		b	.L10
 177              	.LVL9:
 178              	.L12:
 179 002e 1D46     		mov	r5, r3
 180              	.LVL10:
 181              	.L10:
 182              		.loc 1 38 0
 183 0030 2068     		ldr	r0, [r4]
 184 0032 0368     		ldr	r3, [r0]
 185 0034 3D21     		movs	r1, #61
 186 0036 DB68     		ldr	r3, [r3, #12]
 187 0038 9847     		blx	r3
 188              	.LVL11:
 189              		.loc 1 37 0
 190 003a A27C     		ldrb	r2, [r4, #18]	@ zero_extendqisi2
 191 003c 6B1C     		adds	r3, r5, #1
 192 003e AA42     		cmp	r2, r5
 193 0040 DBB2     		uxtb	r3, r3
 194              	.LVL12:
 195 0042 F4D8     		bhi	.L12
 196              	.LVL13:
 197              	.L9:
 198              	.LBE2:
 199              		.loc 1 39 0
 200 0044 2068     		ldr	r0, [r4]
 201 0046 0368     		ldr	r3, [r0]
 202 0048 0D21     		movs	r1, #13
 203 004a DB68     		ldr	r3, [r3, #12]
 204 004c 9847     		blx	r3
 205              	.LVL14:
 206 004e A368     		ldr	r3, [r4, #8]
 207              	.L8:
 208              		.loc 1 42 0
 209 0050 E268     		ldr	r2, [r4, #12]
 210 0052 9A42     		cmp	r2, r3
 211 0054 06D8     		bhi	.L7
 212              		.loc 1 44 0
 213 0056 2068     		ldr	r0, [r4]
 214 0058 0368     		ldr	r3, [r0]
 215 005a 0A21     		movs	r1, #10
 216 005c DB68     		ldr	r3, [r3, #12]
 217 005e 9847     		blx	r3
 218              	.LVL15:
 219              		.loc 1 45 0
 220 0060 0123     		movs	r3, #1
 221 0062 2371     		strb	r3, [r4, #4]
 222              	.L7:
 223              		.loc 1 47 0
 224 0064 38BD     		pop	{r3, r4, r5, pc}
 225              		.cfi_endproc
 226              	.LFE329:
 227              		.size	progressBar_update, .-progressBar_update
 228 0066 00BF     		.section	.rodata.progressBar_init.str1.4,"aMS",%progbits,1
ARM GAS  /tmp/ccOQG5lK.s 			page 5


 229              		.align	2
 230              	.LC0:
 231 0000 5B202020 		.ascii	"[                    ]\015\000"
 231      20202020 
 231      20202020 
 231      20202020 
 231      20202020 
 232              		.text
 233              	.Letext0:
 234              		.file 2 "/usr/lib/gcc/arm-none-eabi/7.3.1/include/stddef.h"
 235              		.file 3 "/usr/arm-none-eabi/include/machine/_default_types.h"
 236              		.file 4 "/usr/arm-none-eabi/include/sys/_stdint.h"
 237              		.file 5 "./RM18A-ChibiOS18-Core/chibios/os/common/ports/ARMCMx/compilers/GCC/chtypes.h"
 238              		.file 6 "./RM18A-ChibiOS18-Core/chibios/os/rt/include/chsystypes.h"
 239              		.file 7 "./RM18A-ChibiOS18-Core/chibios/os/rt/include/chschd.h"
 240              		.file 8 "./RM18A-ChibiOS18-Core/chibios/os/rt/include/chtime.h"
 241              		.file 9 "./RM18A-ChibiOS18-Core/chibios/os/common/ext/ARM/CMSIS/Core/Include/core_cm4.h"
 242              		.file 10 "./RM18A-ChibiOS18-Core/chibios/os/common/ext/ST/STM32F4xx/system_stm32f4xx.h"
 243              		.file 11 "./RM18A-ChibiOS18-Core/chibios/os/common/ext/ST/STM32F4xx/stm32f427xx.h"
 244              		.file 12 "./RM18A-ChibiOS18-Core/chibios/os/common/ports/ARMCMx/chcore.h"
 245              		.file 13 "./RM18A-ChibiOS18-Core/chibios/os/common/ports/ARMCMx/chcore_v7m.h"
 246              		.file 14 "./RM18A-ChibiOS18-Core/chibios/os/hal/ports/STM32/LLD/TIMv1/stm32_tim.h"
 247              		.file 15 "./RM18A-ChibiOS18-Core/chibios/os/rt/include/chtm.h"
 248              		.file 16 "./RM18A-ChibiOS18-Core/chibios/os/rt/include/chsem.h"
 249              		.file 17 "./RM18A-ChibiOS18-Core/chibios/os/rt/include/chmtx.h"
 250              		.file 18 "./RM18A-ChibiOS18-Core/chibios/os/rt/include/chsys.h"
 251              		.file 19 "./RM18A-ChibiOS18-Core/chibios/os/rt/include/chregistry.h"
 252              		.file 20 "./RM18A-ChibiOS18-Core/chibios/os/rt/include/chevents.h"
 253              		.file 21 "./RM18A-ChibiOS18-Core/chibios/os/oslib/include/chmemcore.h"
 254              		.file 22 "./RM18A-ChibiOS18-Core/chibios/os/oslib/include/chmempools.h"
 255              		.file 23 "./RM18A-ChibiOS18-Core/chibios/os/oslib/include/chfactory.h"
 256              		.file 24 "./RM18A-ChibiOS18-Core/chibios/os/hal/ports/STM32/LLD/DMAv2/stm32_dma.h"
 257              		.file 25 "./RM18A-ChibiOS18-Core/chibios/os/hal/include/hal_streams.h"
 258              		.file 26 "./RM18A-ChibiOS18-Core/chibios/os/hal/include/hal_queues.h"
 259              		.file 27 "./RM18A-ChibiOS18-Core/chibios/os/hal/include/hal_pal.h"
 260              		.file 28 "./RM18A-ChibiOS18-Core/chibios/os/hal/ports/STM32/LLD/GPIOv2/hal_pal_lld.h"
 261              		.file 29 "./RM18A-ChibiOS18-Core/chibios/os/hal/include/hal_adc.h"
 262              		.file 30 "./RM18A-ChibiOS18-Core/chibios/os/hal/ports/STM32/LLD/ADCv2/hal_adc_lld.h"
 263              		.file 31 "./RM18A-ChibiOS18-Core/chibios/os/hal/include/hal_can.h"
 264              		.file 32 "./RM18A-ChibiOS18-Core/chibios/os/hal/ports/STM32/LLD/CANv1/hal_can_lld.h"
 265              		.file 33 "./RM18A-ChibiOS18-Core/chibios/os/hal/include/hal_i2c.h"
 266              		.file 34 "./RM18A-ChibiOS18-Core/chibios/os/hal/ports/STM32/LLD/I2Cv1/hal_i2c_lld.h"
 267              		.file 35 "./RM18A-ChibiOS18-Core/chibios/os/hal/include/hal_pwm.h"
 268              		.file 36 "./RM18A-ChibiOS18-Core/chibios/os/hal/ports/STM32/LLD/TIMv1/hal_pwm_lld.h"
 269              		.file 37 "./RM18A-ChibiOS18-Core/chibios/os/hal/include/hal_serial.h"
 270              		.file 38 "./RM18A-ChibiOS18-Core/chibios/os/hal/ports/STM32/LLD/USARTv1/hal_serial_lld.h"
 271              		.file 39 "./RM18A-ChibiOS18-Core/chibios/os/hal/include/hal_spi.h"
 272              		.file 40 "./RM18A-ChibiOS18-Core/chibios/os/hal/ports/STM32/LLD/SPIv1/hal_spi_lld.h"
 273              		.file 41 "./RM18A-ChibiOS18-Core/chibios/os/hal/include/hal_uart.h"
 274              		.file 42 "./RM18A-ChibiOS18-Core/chibios/os/hal/ports/STM32/LLD/USARTv1/hal_uart_lld.h"
 275              		.file 43 "./RM18A-ChibiOS18-Core/chibios/os/hal/include/hal_usb.h"
 276              		.file 44 "./RM18A-ChibiOS18-Core/chibios/os/hal/ports/STM32/LLD/OTGv1/hal_usb_lld.h"
 277              		.file 45 "./RM18A-ChibiOS18-Core/chibios/os/hal/ports/STM32/LLD/OTGv1/stm32_otg.h"
 278              		.file 46 "./RM18A-ChibiOS18-Core/src/utility/print_object.h"
 279              		.file 47 "./RM18A-ChibiOS18-Core/chibios/os/hal/lib/streams/chprintf.h"