ARM GAS  /tmp/ccf8u9N6.s 			page 1


   1              		.cpu cortex-m4
   2              		.eabi_attribute 27, 1
   3              		.eabi_attribute 28, 1
   4              		.eabi_attribute 20, 1
   5              		.eabi_attribute 21, 1
   6              		.eabi_attribute 23, 3
   7              		.eabi_attribute 24, 1
   8              		.eabi_attribute 25, 1
   9              		.eabi_attribute 26, 1
  10              		.eabi_attribute 30, 2
  11              		.eabi_attribute 34, 1
  12              		.eabi_attribute 18, 4
  13              		.file	"Quaternion.cpp"
  14              		.text
  15              	.Ltext0:
  16              		.cfi_sections	.debug_frame
  17              		.section	.text._ZN10QuaternionC2EPKf,"ax",%progbits
  18              		.align	1
  19              		.p2align 2,,3
  20              		.global	_ZN10QuaternionC2EPKf
  21              		.syntax unified
  22              		.thumb
  23              		.thumb_func
  24              		.fpu fpv4-sp-d16
  25              		.type	_ZN10QuaternionC2EPKf, %function
  26              	_ZN10QuaternionC2EPKf:
  27              	.LFB561:
  28              		.file 1 "./RM18A-ChibiOS18-Core/src/utility/Quaternion.cpp"
  29              		.loc 1 4 0
  30              		.cfi_startproc
  31              		@ args = 0, pretend = 0, frame = 0
  32              		@ frame_needed = 0, uses_anonymous_args = 0
  33              	.LVL0:
  34 0000 38B5     		push	{r3, r4, r5, lr}
  35              		.cfi_def_cfa_offset 16
  36              		.cfi_offset 3, -16
  37              		.cfi_offset 4, -12
  38              		.cfi_offset 5, -8
  39              		.cfi_offset 14, -4
  40              	.LBB20:
  41 0002 4FF07E52 		mov	r2, #1065353216
  42 0006 0023     		movs	r3, #0
  43              	.LBE20:
  44 0008 2DED068B 		vpush.64	{d8, d9, d10}
  45              		.cfi_def_cfa_offset 40
  46              		.cfi_offset 80, -40
  47              		.cfi_offset 81, -36
  48              		.cfi_offset 82, -32
  49              		.cfi_offset 83, -28
  50              		.cfi_offset 84, -24
  51              		.cfi_offset 85, -20
  52              	.LBB26:
  53              		.loc 1 4 0
  54 000c 0260     		str	r2, [r0]	@ float
  55 000e 4360     		str	r3, [r0, #4]	@ float
  56 0010 8360     		str	r3, [r0, #8]	@ float
  57 0012 C360     		str	r3, [r0, #12]	@ float
ARM GAS  /tmp/ccf8u9N6.s 			page 2


  58              	.LBB21:
  59              		.loc 1 6 0
  60 0014 91ED008A 		vldr.32	s16, [r1]
  61 0018 F6EE009A 		vmov.f32	s19, #5.0e-1
  62 001c 28EE298A 		vmul.f32	s16, s16, s19
  63              	.LBE21:
  64              	.LBE26:
  65              		.loc 1 4 0
  66 0020 0446     		mov	r4, r0
  67              	.LBB27:
  68              	.LBB22:
  69              		.loc 1 6 0
  70 0022 B0EE480A 		vmov.f32	s0, s16
  71              	.LBE22:
  72              	.LBE27:
  73              		.loc 1 4 0
  74 0026 0D46     		mov	r5, r1
  75              	.LBB28:
  76              	.LBB23:
  77              		.loc 1 6 0
  78 0028 FFF7FEFF 		bl	cosf
  79              	.LVL1:
  80 002c B0EE409A 		vmov.f32	s18, s0
  81              	.LVL2:
  82              		.loc 1 7 0
  83 0030 B0EE480A 		vmov.f32	s0, s16
  84              	.LVL3:
  85 0034 FFF7FEFF 		bl	sinf
  86              	.LVL4:
  87              		.loc 1 8 0
  88 0038 95ED018A 		vldr.32	s16, [r5, #4]
  89 003c 28EE298A 		vmul.f32	s16, s16, s19
  90              		.loc 1 7 0
  91 0040 F0EE408A 		vmov.f32	s17, s0
  92              	.LVL5:
  93              		.loc 1 8 0
  94 0044 B0EE480A 		vmov.f32	s0, s16
  95              	.LVL6:
  96 0048 FFF7FEFF 		bl	cosf
  97              	.LVL7:
  98 004c F0EE40AA 		vmov.f32	s21, s0
  99              	.LVL8:
 100              		.loc 1 9 0
 101 0050 B0EE480A 		vmov.f32	s0, s16
 102              	.LVL9:
 103 0054 FFF7FEFF 		bl	sinf
 104              	.LVL10:
 105              		.loc 1 10 0
 106 0058 95ED02AA 		vldr.32	s20, [r5, #8]
 107 005c 2AEE29AA 		vmul.f32	s20, s20, s19
 108              		.loc 1 9 0
 109 0060 B0EE408A 		vmov.f32	s16, s0
 110              	.LVL11:
 111              		.loc 1 10 0
 112 0064 B0EE4A0A 		vmov.f32	s0, s20
 113              	.LVL12:
 114 0068 FFF7FEFF 		bl	cosf
ARM GAS  /tmp/ccf8u9N6.s 			page 3


 115              	.LVL13:
 116 006c F0EE409A 		vmov.f32	s19, s0
 117              	.LVL14:
 118              		.loc 1 11 0
 119 0070 B0EE4A0A 		vmov.f32	s0, s20
 120              	.LVL15:
 121 0074 FFF7FEFF 		bl	sinf
 122              	.LVL16:
 123              		.loc 1 14 0
 124 0078 68EE887A 		vmul.f32	s15, s17, s16
 125              		.loc 1 16 0
 126 007c 29EE088A 		vmul.f32	s16, s18, s16
 127              	.LVL17:
 128 0080 68EEAA8A 		vmul.f32	s17, s17, s21
 129              	.LVL18:
 130              		.loc 1 14 0
 131 0084 29EE2A9A 		vmul.f32	s18, s18, s21
 132              	.LVL19:
 133 0088 27EE806A 		vmul.f32	s12, s15, s0
 134              		.loc 1 16 0
 135 008c 60EE486A 		vnmul.f32	s13, s0, s16
 136              		.loc 1 20 0
 137 0090 69EEE77A 		vnmul.f32	s15, s19, s15
 138              		.loc 1 18 0
 139 0094 28EE807A 		vmul.f32	s14, s17, s0
 140              		.loc 1 14 0
 141 0098 A9EE296A 		vfma.f32	s12, s18, s19
 142              	.LBE23:
 143              	.LBE28:
 144              		.loc 1 21 0
 145 009c 2046     		mov	r0, r4
 146              	.LBB29:
 147              	.LBB24:
 148              		.loc 1 20 0
 149 009e E9EE007A 		vfma.f32	s15, s18, s0
 150              		.loc 1 16 0
 151 00a2 E8EEA96A 		vfma.f32	s13, s17, s19
 152              		.loc 1 18 0
 153 00a6 A8EE297A 		vfma.f32	s14, s16, s19
 154              	.LBE24:
 155              	.LBE29:
 156              		.loc 1 21 0
 157 00aa BDEC068B 		vldm	sp!, {d8-d10}
 158              		.cfi_restore 84
 159              		.cfi_restore 85
 160              		.cfi_restore 82
 161              		.cfi_restore 83
 162              		.cfi_restore 80
 163              		.cfi_restore 81
 164              		.cfi_def_cfa_offset 16
 165              	.LBB30:
 166              	.LBB25:
 167              		.loc 1 13 0
 168 00ae 84ED006A 		vstr.32	s12, [r4]
 169              		.loc 1 19 0
 170 00b2 C4ED037A 		vstr.32	s15, [r4, #12]
 171              		.loc 1 15 0
ARM GAS  /tmp/ccf8u9N6.s 			page 4


 172 00b6 C4ED016A 		vstr.32	s13, [r4, #4]
 173              		.loc 1 17 0
 174 00ba 84ED027A 		vstr.32	s14, [r4, #8]
 175              	.LBE25:
 176              	.LBE30:
 177              		.loc 1 21 0
 178 00be 38BD     		pop	{r3, r4, r5, pc}
 179              		.cfi_endproc
 180              	.LFE561:
 181              		.size	_ZN10QuaternionC2EPKf, .-_ZN10QuaternionC2EPKf
 182              		.global	_ZN10QuaternionC1EPKf
 183              		.thumb_set _ZN10QuaternionC1EPKf,_ZN10QuaternionC2EPKf
 184              		.section	.text._ZN10QuaternionC2EPA3_Kf,"ax",%progbits
 185              		.align	1
 186              		.p2align 2,,3
 187              		.global	_ZN10QuaternionC2EPA3_Kf
 188              		.syntax unified
 189              		.thumb
 190              		.thumb_func
 191              		.fpu fpv4-sp-d16
 192              		.type	_ZN10QuaternionC2EPA3_Kf, %function
 193              	_ZN10QuaternionC2EPA3_Kf:
 194              	.LFB564:
 195              		.loc 1 23 0
 196              		.cfi_startproc
 197              		@ args = 0, pretend = 0, frame = 32
 198              		@ frame_needed = 0, uses_anonymous_args = 0
 199              	.LVL20:
 200 0000 2DE9F047 		push	{r4, r5, r6, r7, r8, r9, r10, lr}
 201              		.cfi_def_cfa_offset 32
 202              		.cfi_offset 4, -32
 203              		.cfi_offset 5, -28
 204              		.cfi_offset 6, -24
 205              		.cfi_offset 7, -20
 206              		.cfi_offset 8, -16
 207              		.cfi_offset 9, -12
 208              		.cfi_offset 10, -8
 209              		.cfi_offset 14, -4
 210              	.LBB40:
 211 0004 0023     		movs	r3, #0
 212 0006 B7EE006A 		vmov.f32	s12, #1.0e+0
 213              	.LBE40:
 214 000a 2DED028B 		vpush.64	{d8}
 215              		.cfi_def_cfa_offset 40
 216              		.cfi_offset 80, -40
 217              		.cfi_offset 81, -36
 218              	.LBB72:
 219 000e 80ED006A 		vstr.32	s12, [r0]
 220 0012 4360     		str	r3, [r0, #4]	@ float
 221 0014 8360     		str	r3, [r0, #8]	@ float
 222 0016 C360     		str	r3, [r0, #12]	@ float
 223              	.LBB41:
 224              		.loc 1 26 0
 225 0018 D1ED007A 		vldr.32	s15, [r1]
 226 001c D1ED046A 		vldr.32	s13, [r1, #16]
 227 0020 91ED087A 		vldr.32	s14, [r1, #32]
 228 0024 37EEA60A 		vadd.f32	s0, s15, s13
ARM GAS  /tmp/ccf8u9N6.s 			page 5


 229              	.LBE41:
 230              	.LBE72:
 231              		.loc 1 23 0
 232 0028 88B0     		sub	sp, sp, #32
 233              		.cfi_def_cfa_offset 72
 234              	.LBB73:
 235              	.LBB70:
 236              		.loc 1 25 0
 237 002a 30EE070A 		vadd.f32	s0, s0, s14
 238              	.LVL21:
 239              	.LBB42:
 240              		.loc 1 29 0
 241 002e B5EEC00A 		vcmpe.f32	s0, #0
 242 0032 F1EE10FA 		vmrs	APSR_nzcv, FPSCR
 243 0036 00F3C180 		bgt	.L5
 244              	.LVL22:
 245              	.LBB43:
 246              		.loc 1 47 0
 247 003a F4EEE67A 		vcmpe.f32	s15, s13
 248 003e F1EE10FA 		vmrs	APSR_nzcv, FPSCR
 249              	.LVL23:
 250 0042 4BBF     		itete	mi
 251 0044 0324     		movmi	r4, #3
 252 0046 0024     		movpl	r4, #0
 253 0048 0126     		movmi	r6, #1
 254 004a 0026     		movpl	r6, #0
 255 004c A400     		lsls	r4, r4, #2
 256 004e 0B19     		adds	r3, r1, r4
 257 0050 B700     		lsls	r7, r6, #2
 258 0052 3B44     		add	r3, r3, r7
 259 0054 D3ED006A 		vldr.32	s13, [r3]
 260 0058 B4EEE67A 		vcmpe.f32	s14, s13
 261 005c F1EE10FA 		vmrs	APSR_nzcv, FPSCR
 262              	.LVL24:
 263 0060 00F3A180 		bgt	.L13
 264 0064 731C     		adds	r3, r6, #1
 265 0066 03EB430A 		add	r10, r3, r3, lsl #1
 266 006a 06EB4605 		add	r5, r6, r6, lsl #1
 267 006e 01EB8A0A 		add	r10, r1, r10, lsl #2
 268 0072 0236     		adds	r6, r6, #2
 269 0074 4FEA8308 		lsl	r8, r3, #2
 270 0078 751B     		subs	r5, r6, r5
 271 007a 0AEB080C 		add	ip, r10, r8
 272 007e 05EB4502 		add	r2, r5, r5, lsl #1
 273 0082 DCED007A 		vldr.32	s15, [ip]
 274              	.LVL25:
 275 0086 9200     		lsls	r2, r2, #2
 276 0088 05F10109 		add	r9, r5, #1
 277              	.LVL26:
 278              	.L6:
 279              		.loc 1 55 0
 280 008c 0C44     		add	r4, r4, r1
 281 008e 04EB070C 		add	ip, r4, r7
 282              		.loc 1 57 0
 283 0092 1144     		add	r1, r1, r2
 284              	.LVL27:
 285 0094 AD00     		lsls	r5, r5, #2
ARM GAS  /tmp/ccf8u9N6.s 			page 6


 286              		.loc 1 55 0
 287 0096 9CED000A 		vldr.32	s0, [ip]
 288              	.LVL28:
 289              		.loc 1 57 0
 290 009a 4A19     		adds	r2, r1, r5
 291              		.loc 1 55 0
 292 009c 30EE670A 		vsub.f32	s0, s0, s15
 293              		.loc 1 56 0
 294 00a0 D2ED007A 		vldr.32	s15, [r2]
 295 00a4 30EE670A 		vsub.f32	s0, s0, s15
 296              		.loc 1 55 0
 297 00a8 F7EE007A 		vmov.f32	s15, #1.0e+0
 298 00ac 30EE270A 		vadd.f32	s0, s0, s15
 299 00b0 B5EE400A 		vcmp.f32	s0, #0
 300 00b4 F1EE10FA 		vmrs	APSR_nzcv, FPSCR
 301              		.loc 1 58 0
 302 00b8 B1EEC08A 		vsqrt.f32	s16, s0
 303 00bc 00F1AB80 		bmi	.L16
 304              	.LVL29:
 305              	.L7:
 306              		.loc 1 62 0
 307 00c0 9B00     		lsls	r3, r3, #2
 308 00c2 E218     		adds	r2, r4, r3
 309              		.loc 1 64 0
 310 00c4 2C44     		add	r4, r4, r5
 311              		.loc 1 66 0
 312 00c6 0B44     		add	r3, r3, r1
 313              		.loc 1 64 0
 314 00c8 3944     		add	r1, r1, r7
 315              		.loc 1 62 0
 316 00ca 5744     		add	r7, r7, r10
 317              		.loc 1 66 0
 318 00cc 5544     		add	r5, r5, r10
 319              		.loc 1 59 0
 320 00ce 0DF1200C 		add	ip, sp, #32
 321 00d2 E044     		add	r8, r8, ip
 322              		.loc 1 61 0
 323 00d4 0CEB8606 		add	r6, ip, r6, lsl #2
 324              		.loc 1 59 0
 325 00d8 F6EE005A 		vmov.f32	s11, #5.0e-1
 326              		.loc 1 60 0
 327 00dc 85EE886A 		vdiv.f32	s12, s11, s16
 328              	.LVL30:
 329              		.loc 1 63 0
 330 00e0 0CEB8909 		add	r9, ip, r9, lsl #2
 331              		.loc 1 62 0
 332 00e4 D2ED006A 		vldr.32	s13, [r2]
 333 00e8 97ED004A 		vldr.32	s8, [r7]
 334              		.loc 1 64 0
 335 00ec 91ED007A 		vldr.32	s14, [r1]
 336 00f0 D4ED004A 		vldr.32	s9, [r4]
 337              		.loc 1 66 0
 338 00f4 D3ED007A 		vldr.32	s15, [r3]
 339 00f8 95ED005A 		vldr.32	s10, [r5]
 340              		.loc 1 62 0
 341 00fc 76EE846A 		vadd.f32	s13, s13, s8
 342              		.loc 1 64 0
ARM GAS  /tmp/ccf8u9N6.s 			page 7


 343 0100 37EE247A 		vadd.f32	s14, s14, s9
 344              		.loc 1 62 0
 345 0104 66EE866A 		vmul.f32	s13, s13, s12
 346              		.loc 1 64 0
 347 0108 27EE067A 		vmul.f32	s14, s14, s12
 348              		.loc 1 59 0
 349 010c 28EE258A 		vmul.f32	s16, s16, s11
 350              		.loc 1 66 0
 351 0110 77EEC57A 		vsub.f32	s15, s15, s10
 352              		.loc 1 59 0
 353 0114 08ED048A 		vstr.32	s16, [r8, #-16]
 354              		.loc 1 61 0
 355 0118 46ED046A 		vstr.32	s13, [r6, #-16]
 356              		.loc 1 63 0
 357 011c 09ED047A 		vstr.32	s14, [r9, #-16]
 358              		.loc 1 66 0
 359 0120 67EE867A 		vmul.f32	s15, s15, s12
 360 0124 DDED066A 		vldr.32	s13, [sp, #24]
 361 0128 9DED056A 		vldr.32	s12, [sp, #20]
 362              	.LVL31:
 363 012c 9DED077A 		vldr.32	s14, [sp, #28]
 364              	.LVL32:
 365              	.L8:
 366              	.LBE43:
 367              	.LBE42:
 368              		.loc 1 69 0
 369 0130 C0ED007A 		vstr.32	s15, [r0]
 370              	.LBB48:
 371              	.LBB49:
 372              	.LBB50:
 373              	.LBB51:
 374              		.loc 1 99 0
 375 0134 26EE060A 		vmul.f32	s0, s12, s12
 376              	.LBE51:
 377              	.LBE50:
 378              	.LBE49:
 379              	.LBE48:
 380              		.loc 1 70 0
 381 0138 80ED016A 		vstr.32	s12, [r0, #4]
 382              	.LBB64:
 383              	.LBB60:
 384              	.LBB56:
 385              	.LBB52:
 386              		.loc 1 99 0
 387 013c A7EEA70A 		vfma.f32	s0, s15, s15
 388              	.LBE52:
 389              	.LBE56:
 390              	.LBE60:
 391              	.LBE64:
 392              		.loc 1 71 0
 393 0140 C0ED026A 		vstr.32	s13, [r0, #8]
 394              	.LBB65:
 395              	.LBB61:
 396              	.LBB57:
 397              	.LBB53:
 398              		.loc 1 99 0
 399 0144 A6EEA60A 		vfma.f32	s0, s13, s13
ARM GAS  /tmp/ccf8u9N6.s 			page 8


 400              	.LBE53:
 401              	.LBE57:
 402              	.LBE61:
 403              	.LBE65:
 404              		.loc 1 72 0
 405 0148 80ED037A 		vstr.32	s14, [r0, #12]
 406              	.LVL33:
 407              	.LBB66:
 408              	.LBB62:
 409              	.LBB58:
 410              	.LBB54:
 411              		.loc 1 99 0
 412 014c A7EE070A 		vfma.f32	s0, s14, s14
 413 0150 B5EE400A 		vcmp.f32	s0, #0
 414 0154 F1EE10FA 		vmrs	APSR_nzcv, FPSCR
 415              		.loc 1 100 0
 416 0158 B1EEC08A 		vsqrt.f32	s16, s0
 417 015c 56D4     		bmi	.L17
 418              	.LVL34:
 419              	.L10:
 420              	.LBE54:
 421              	.LBE58:
 422              		.loc 1 106 0
 423 015e DFED387A 		vldr.32	s15, .L19
 424 0162 B4EEE78A 		vcmpe.f32	s16, s15
 425 0166 F1EE10FA 		vmrs	APSR_nzcv, FPSCR
 426 016a 17DD     		ble	.L11
 427              		.loc 1 108 0
 428 016c D0ED006A 		vldr.32	s13, [r0]
 429              		.loc 1 109 0
 430 0170 90ED017A 		vldr.32	s14, [r0, #4]
 431              		.loc 1 110 0
 432 0174 D0ED027A 		vldr.32	s15, [r0, #8]
 433              		.loc 1 111 0
 434 0178 D0ED035A 		vldr.32	s11, [r0, #12]
 435              		.loc 1 108 0
 436 017c 86EE886A 		vdiv.f32	s12, s13, s16
 437              		.loc 1 109 0
 438 0180 C7EE086A 		vdiv.f32	s13, s14, s16
 439              		.loc 1 110 0
 440 0184 87EE887A 		vdiv.f32	s14, s15, s16
 441              		.loc 1 111 0
 442 0188 C5EE887A 		vdiv.f32	s15, s11, s16
 443              		.loc 1 108 0
 444 018c 80ED006A 		vstr.32	s12, [r0]
 445              		.loc 1 109 0
 446 0190 C0ED016A 		vstr.32	s13, [r0, #4]
 447              		.loc 1 110 0
 448 0194 80ED027A 		vstr.32	s14, [r0, #8]
 449              		.loc 1 111 0
 450 0198 C0ED037A 		vstr.32	s15, [r0, #12]
 451              	.L11:
 452              	.LBE62:
 453              	.LBE66:
 454              	.LBE70:
 455              	.LBE73:
 456              		.loc 1 74 0
ARM GAS  /tmp/ccf8u9N6.s 			page 9


 457 019c 08B0     		add	sp, sp, #32
 458              		.cfi_remember_state
 459              		.cfi_def_cfa_offset 40
 460              		@ sp needed
 461 019e BDEC028B 		vldm	sp!, {d8}
 462              		.cfi_restore 80
 463              		.cfi_restore 81
 464              		.cfi_def_cfa_offset 32
 465 01a2 BDE8F087 		pop	{r4, r5, r6, r7, r8, r9, r10, pc}
 466              	.LVL35:
 467              	.L13:
 468              		.cfi_restore_state
 469              	.LBB74:
 470              	.LBB71:
 471              	.LBB67:
 472              	.LBB44:
 473              		.loc 1 47 0
 474 01a6 0125     		movs	r5, #1
 475 01a8 0C22     		movs	r2, #12
 476 01aa 2E46     		mov	r6, r5
 477 01ac 9046     		mov	r8, r2
 478 01ae 8A46     		mov	r10, r1
 479 01b0 0023     		movs	r3, #0
 480 01b2 4FF00209 		mov	r9, #2
 481 01b6 1824     		movs	r4, #24
 482              	.LVL36:
 483 01b8 0827     		movs	r7, #8
 484 01ba 67E7     		b	.L6
 485              	.LVL37:
 486              	.L5:
 487              	.LBE44:
 488              	.LBB45:
 489              		.loc 1 31 0
 490 01bc 30EE060A 		vadd.f32	s0, s0, s12
 491              	.LVL38:
 492 01c0 B5EE400A 		vcmp.f32	s0, #0
 493 01c4 F1EE10FA 		vmrs	APSR_nzcv, FPSCR
 494 01c8 F1EEC07A 		vsqrt.f32	s15, s0
 495              	.LVL39:
 496 01cc 2CD4     		bmi	.L18
 497              	.LVL40:
 498              	.L9:
 499              		.loc 1 32 0
 500 01ce B6EE005A 		vmov.f32	s10, #5.0e-1
 501              		.loc 1 33 0
 502 01d2 C5EE275A 		vdiv.f32	s11, s10, s15
 503              	.LVL41:
 504              		.loc 1 34 0
 505 01d6 91ED076A 		vldr.32	s12, [r1, #28]
 506 01da D1ED053A 		vldr.32	s7, [r1, #20]
 507              		.loc 1 35 0
 508 01de D1ED026A 		vldr.32	s13, [r1, #8]
 509 01e2 91ED064A 		vldr.32	s8, [r1, #24]
 510              		.loc 1 36 0
 511 01e6 91ED037A 		vldr.32	s14, [r1, #12]
 512 01ea D1ED014A 		vldr.32	s9, [r1, #4]
 513              		.loc 1 34 0
ARM GAS  /tmp/ccf8u9N6.s 			page 10


 514 01ee 36EE636A 		vsub.f32	s12, s12, s7
 515              		.loc 1 35 0
 516 01f2 76EEC46A 		vsub.f32	s13, s13, s8
 517              		.loc 1 36 0
 518 01f6 37EE647A 		vsub.f32	s14, s14, s9
 519              		.loc 1 32 0
 520 01fa 67EE857A 		vmul.f32	s15, s15, s10
 521              		.loc 1 34 0
 522 01fe 26EE256A 		vmul.f32	s12, s12, s11
 523              		.loc 1 35 0
 524 0202 66EEA56A 		vmul.f32	s13, s13, s11
 525              		.loc 1 36 0
 526 0206 27EE257A 		vmul.f32	s14, s14, s11
 527              	.LBE45:
 528 020a 91E7     		b	.L8
 529              	.LVL42:
 530              	.L17:
 531 020c 0190     		str	r0, [sp, #4]
 532              	.LBE67:
 533              	.LBB68:
 534              	.LBB63:
 535              	.LBB59:
 536              	.LBB55:
 537              		.loc 1 100 0
 538 020e FFF7FEFF 		bl	sqrtf
 539              	.LVL43:
 540 0212 0198     		ldr	r0, [sp, #4]
 541 0214 A3E7     		b	.L10
 542              	.LVL44:
 543              	.L16:
 544 0216 CDE90230 		strd	r3, r0, [sp, #8]
 545 021a 0191     		str	r1, [sp, #4]
 546              	.LBE55:
 547              	.LBE59:
 548              	.LBE63:
 549              	.LBE68:
 550              	.LBB69:
 551              	.LBB46:
 552              		.loc 1 58 0
 553 021c FFF7FEFF 		bl	sqrtf
 554              	.LVL45:
 555 0220 DDE90230 		ldrd	r3, r0, [sp, #8]
 556 0224 0199     		ldr	r1, [sp, #4]
 557 0226 4BE7     		b	.L7
 558              	.LVL46:
 559              	.L18:
 560 0228 CDE90201 		strd	r0, r1, [sp, #8]
 561 022c CDED017A 		vstr.32	s15, [sp, #4]	@ int
 562              	.LBE46:
 563              	.LBB47:
 564              		.loc 1 31 0
 565 0230 FFF7FEFF 		bl	sqrtf
 566              	.LVL47:
 567 0234 DDE90201 		ldrd	r0, r1, [sp, #8]
 568 0238 DDED017A 		vldr.32	s15, [sp, #4]	@ int
 569 023c C7E7     		b	.L9
 570              	.L20:
ARM GAS  /tmp/ccf8u9N6.s 			page 11


 571 023e 00BF     		.align	2
 572              	.L19:
 573 0240 BD378635 		.word	897988541
 574              	.LBE47:
 575              	.LBE69:
 576              	.LBE71:
 577              	.LBE74:
 578              		.cfi_endproc
 579              	.LFE564:
 580              		.size	_ZN10QuaternionC2EPA3_Kf, .-_ZN10QuaternionC2EPA3_Kf
 581              		.global	_ZN10QuaternionC1EPA3_Kf
 582              		.thumb_set _ZN10QuaternionC1EPA3_Kf,_ZN10QuaternionC2EPA3_Kf
 583              		.section	.text._ZN10QuaternionC2EPKff,"ax",%progbits
 584              		.align	1
 585              		.p2align 2,,3
 586              		.global	_ZN10QuaternionC2EPKff
 587              		.syntax unified
 588              		.thumb
 589              		.thumb_func
 590              		.fpu fpv4-sp-d16
 591              		.type	_ZN10QuaternionC2EPKff, %function
 592              	_ZN10QuaternionC2EPKff:
 593              	.LFB567:
 594              		.loc 1 76 0
 595              		.cfi_startproc
 596              		@ args = 0, pretend = 0, frame = 0
 597              		@ frame_needed = 0, uses_anonymous_args = 0
 598              	.LVL48:
 599 0000 38B5     		push	{r3, r4, r5, lr}
 600              		.cfi_def_cfa_offset 16
 601              		.cfi_offset 3, -16
 602              		.cfi_offset 4, -12
 603              		.cfi_offset 5, -8
 604              		.cfi_offset 14, -4
 605              	.LBB75:
 606 0002 4FF07E52 		mov	r2, #1065353216
 607 0006 0023     		movs	r3, #0
 608              	.LBE75:
 609 0008 2DED068B 		vpush.64	{d8, d9, d10}
 610              		.cfi_def_cfa_offset 40
 611              		.cfi_offset 80, -40
 612              		.cfi_offset 81, -36
 613              		.cfi_offset 82, -32
 614              		.cfi_offset 83, -28
 615              		.cfi_offset 84, -24
 616              		.cfi_offset 85, -20
 617              	.LBB84:
 618              		.loc 1 76 0
 619 000c 0260     		str	r2, [r0]	@ float
 620 000e 4360     		str	r3, [r0, #4]	@ float
 621 0010 8360     		str	r3, [r0, #8]	@ float
 622 0012 C360     		str	r3, [r0, #12]	@ float
 623              	.LBB76:
 624              		.loc 1 78 0
 625 0014 D1ED017A 		vldr.32	s15, [r1, #4]
 626 0018 D1ED006A 		vldr.32	s13, [r1]
 627 001c 91ED027A 		vldr.32	s14, [r1, #8]
ARM GAS  /tmp/ccf8u9N6.s 			page 12


 628 0020 67EEA77A 		vmul.f32	s15, s15, s15
 629              	.LBE76:
 630              	.LBE84:
 631              		.loc 1 76 0
 632 0024 0446     		mov	r4, r0
 633              	.LBB85:
 634              	.LBB77:
 635              		.loc 1 78 0
 636 0026 E6EEA67A 		vfma.f32	s15, s13, s13
 637              	.LBE77:
 638              	.LBE85:
 639              		.loc 1 76 0
 640 002a 0D46     		mov	r5, r1
 641 002c B0EE408A 		vmov.f32	s16, s0
 642              	.LBB86:
 643              	.LBB78:
 644              		.loc 1 78 0
 645 0030 E7EE077A 		vfma.f32	s15, s14, s14
 646 0034 F5EE407A 		vcmp.f32	s15, #0
 647 0038 F1EE10FA 		vmrs	APSR_nzcv, FPSCR
 648 003c F1EEE78A 		vsqrt.f32	s17, s15
 649 0040 4AD4     		bmi	.L29
 650              	.LVL49:
 651              	.L22:
 652              		.loc 1 79 0
 653 0042 28EE889A 		vmul.f32	s18, s17, s16
 654              	.LVL50:
 655 0046 F6EE009A 		vmov.f32	s19, #5.0e-1
 656 004a 29EE29AA 		vmul.f32	s20, s18, s19
 657 004e B0EE4A0A 		vmov.f32	s0, s20
 658 0052 FFF7FEFF 		bl	cosf
 659              	.LVL51:
 660              		.loc 1 81 0
 661 0056 DFED237A 		vldr.32	s15, .L31
 662              		.loc 1 83 0
 663 005a 84ED000A 		vstr.32	s0, [r4]
 664              		.loc 1 81 0
 665 005e B4EEE79A 		vcmpe.f32	s18, s15
 666 0062 F1EE10FA 		vmrs	APSR_nzcv, FPSCR
 667 0066 17DC     		bgt	.L30
 668              		.loc 1 91 0
 669 0068 28EE298A 		vmul.f32	s16, s16, s19
 670              	.LVL52:
 671 006c D5ED007A 		vldr.32	s15, [r5]
 672 0070 67EE887A 		vmul.f32	s15, s15, s16
 673              	.LBE78:
 674              	.LBE86:
 675              		.loc 1 95 0
 676 0074 2046     		mov	r0, r4
 677              	.LBB87:
 678              	.LBB79:
 679              		.loc 1 91 0
 680 0076 C4ED017A 		vstr.32	s15, [r4, #4]
 681              		.loc 1 92 0
 682 007a D5ED017A 		vldr.32	s15, [r5, #4]
 683 007e 67EE887A 		vmul.f32	s15, s15, s16
 684 0082 C4ED027A 		vstr.32	s15, [r4, #8]
ARM GAS  /tmp/ccf8u9N6.s 			page 13


 685              		.loc 1 93 0
 686 0086 D5ED027A 		vldr.32	s15, [r5, #8]
 687 008a 27EE888A 		vmul.f32	s16, s15, s16
 688 008e 84ED038A 		vstr.32	s16, [r4, #12]
 689              	.LBE79:
 690              	.LBE87:
 691              		.loc 1 95 0
 692 0092 BDEC068B 		vldm	sp!, {d8-d10}
 693              		.cfi_remember_state
 694              		.cfi_restore 84
 695              		.cfi_restore 85
 696              		.cfi_restore 82
 697              		.cfi_restore 83
 698              		.cfi_restore 80
 699              		.cfi_restore 81
 700              		.cfi_def_cfa_offset 16
 701              	.LVL53:
 702 0096 38BD     		pop	{r3, r4, r5, pc}
 703              	.LVL54:
 704              	.L30:
 705              		.cfi_restore_state
 706              	.LBB88:
 707              	.LBB80:
 708              		.loc 1 84 0
 709 0098 B0EE4A0A 		vmov.f32	s0, s20
 710 009c FFF7FEFF 		bl	sinf
 711              	.LVL55:
 712 00a0 95ED007A 		vldr.32	s14, [r5]
 713 00a4 C7EE287A 		vdiv.f32	s15, s14, s17
 714              	.LBE80:
 715              	.LBE88:
 716              		.loc 1 95 0
 717 00a8 2046     		mov	r0, r4
 718              	.LBB89:
 719              	.LBB81:
 720              		.loc 1 84 0
 721 00aa 67EE807A 		vmul.f32	s15, s15, s0
 722 00ae C4ED017A 		vstr.32	s15, [r4, #4]
 723              		.loc 1 85 0
 724 00b2 95ED017A 		vldr.32	s14, [r5, #4]
 725 00b6 C7EE287A 		vdiv.f32	s15, s14, s17
 726 00ba 67EE807A 		vmul.f32	s15, s15, s0
 727 00be C4ED027A 		vstr.32	s15, [r4, #8]
 728              		.loc 1 86 0
 729 00c2 95ED027A 		vldr.32	s14, [r5, #8]
 730 00c6 C7EE287A 		vdiv.f32	s15, s14, s17
 731              	.LBE81:
 732              	.LBE89:
 733              		.loc 1 95 0
 734 00ca BDEC068B 		vldm	sp!, {d8-d10}
 735              		.cfi_remember_state
 736              		.cfi_restore 84
 737              		.cfi_restore 85
 738              		.cfi_restore 82
 739              		.cfi_restore 83
 740              		.cfi_restore 80
 741              		.cfi_restore 81
ARM GAS  /tmp/ccf8u9N6.s 			page 14


 742              		.cfi_def_cfa_offset 16
 743              	.LVL56:
 744              	.LBB90:
 745              	.LBB82:
 746              		.loc 1 86 0
 747 00ce 27EE800A 		vmul.f32	s0, s15, s0
 748 00d2 84ED030A 		vstr.32	s0, [r4, #12]
 749              	.LBE82:
 750              	.LBE90:
 751              		.loc 1 95 0
 752 00d6 38BD     		pop	{r3, r4, r5, pc}
 753              	.LVL57:
 754              	.L29:
 755              		.cfi_restore_state
 756              	.LBB91:
 757              	.LBB83:
 758              		.loc 1 78 0
 759 00d8 B0EE670A 		vmov.f32	s0, s15
 760              	.LVL58:
 761 00dc FFF7FEFF 		bl	sqrtf
 762              	.LVL59:
 763 00e0 AFE7     		b	.L22
 764              	.L32:
 765 00e2 00BF     		.align	2
 766              	.L31:
 767 00e4 8FC2F53C 		.word	1022739087
 768              	.LBE83:
 769              	.LBE91:
 770              		.cfi_endproc
 771              	.LFE567:
 772              		.size	_ZN10QuaternionC2EPKff, .-_ZN10QuaternionC2EPKff
 773              		.global	_ZN10QuaternionC1EPKff
 774              		.thumb_set _ZN10QuaternionC1EPKff,_ZN10QuaternionC2EPKff
 775              		.section	.text._ZN10Quaternion4normEv,"ax",%progbits
 776              		.align	1
 777              		.p2align 2,,3
 778              		.global	_ZN10Quaternion4normEv
 779              		.syntax unified
 780              		.thumb
 781              		.thumb_func
 782              		.fpu fpv4-sp-d16
 783              		.type	_ZN10Quaternion4normEv, %function
 784              	_ZN10Quaternion4normEv:
 785              	.LFB569:
 786              		.loc 1 98 0
 787              		.cfi_startproc
 788              		@ args = 0, pretend = 0, frame = 0
 789              		@ frame_needed = 0, uses_anonymous_args = 0
 790              	.LVL60:
 791              		.loc 1 99 0
 792 0000 90ED010A 		vldr.32	s0, [r0, #4]
 793 0004 D0ED006A 		vldr.32	s13, [r0]
 794 0008 90ED027A 		vldr.32	s14, [r0, #8]
 795              		.loc 1 100 0
 796 000c D0ED037A 		vldr.32	s15, [r0, #12]
 797              		.loc 1 99 0
 798 0010 20EE000A 		vmul.f32	s0, s0, s0
ARM GAS  /tmp/ccf8u9N6.s 			page 15


 799              		.loc 1 98 0
 800 0014 08B5     		push	{r3, lr}
 801              		.cfi_def_cfa_offset 8
 802              		.cfi_offset 3, -8
 803              		.cfi_offset 14, -4
 804              		.loc 1 99 0
 805 0016 A6EEA60A 		vfma.f32	s0, s13, s13
 806              		.loc 1 98 0
 807 001a 2DED028B 		vpush.64	{d8}
 808              		.cfi_def_cfa_offset 16
 809              		.cfi_offset 80, -16
 810              		.cfi_offset 81, -12
 811              		.loc 1 99 0
 812 001e A7EE070A 		vfma.f32	s0, s14, s14
 813 0022 A7EEA70A 		vfma.f32	s0, s15, s15
 814 0026 B5EE400A 		vcmp.f32	s0, #0
 815 002a F1EE10FA 		vmrs	APSR_nzcv, FPSCR
 816              		.loc 1 100 0
 817 002e B1EEC08A 		vsqrt.f32	s16, s0
 818 0032 04D4     		bmi	.L36
 819              	.LVL61:
 820              	.L33:
 821              		.loc 1 101 0
 822 0034 B0EE480A 		vmov.f32	s0, s16
 823 0038 BDEC028B 		vldm	sp!, {d8}
 824              		.cfi_remember_state
 825              		.cfi_restore 80
 826              		.cfi_restore 81
 827              		.cfi_def_cfa_offset 8
 828 003c 08BD     		pop	{r3, pc}
 829              	.LVL62:
 830              	.L36:
 831              		.cfi_restore_state
 832              		.loc 1 100 0
 833 003e FFF7FEFF 		bl	sqrtf
 834              	.LVL63:
 835 0042 F7E7     		b	.L33
 836              		.cfi_endproc
 837              	.LFE569:
 838              		.size	_ZN10Quaternion4normEv, .-_ZN10Quaternion4normEv
 839              		.section	.text._ZN10Quaternion9normalizeEv,"ax",%progbits
 840              		.align	1
 841              		.p2align 2,,3
 842              		.global	_ZN10Quaternion9normalizeEv
 843              		.syntax unified
 844              		.thumb
 845              		.thumb_func
 846              		.fpu fpv4-sp-d16
 847              		.type	_ZN10Quaternion9normalizeEv, %function
 848              	_ZN10Quaternion9normalizeEv:
 849              	.LFB570:
 850              		.loc 1 104 0
 851              		.cfi_startproc
 852              		@ args = 0, pretend = 0, frame = 8
 853              		@ frame_needed = 0, uses_anonymous_args = 0
 854              	.LVL64:
 855              	.LBB94:
ARM GAS  /tmp/ccf8u9N6.s 			page 16


 856              	.LBB95:
 857              		.loc 1 99 0
 858 0000 90ED010A 		vldr.32	s0, [r0, #4]
 859 0004 D0ED006A 		vldr.32	s13, [r0]
 860 0008 90ED027A 		vldr.32	s14, [r0, #8]
 861              		.loc 1 100 0
 862 000c D0ED037A 		vldr.32	s15, [r0, #12]
 863              		.loc 1 99 0
 864 0010 20EE000A 		vmul.f32	s0, s0, s0
 865              	.LBE95:
 866              	.LBE94:
 867              		.loc 1 104 0
 868 0014 00B5     		push	{lr}
 869              		.cfi_def_cfa_offset 4
 870              		.cfi_offset 14, -4
 871              	.LBB100:
 872              	.LBB96:
 873              		.loc 1 99 0
 874 0016 A6EEA60A 		vfma.f32	s0, s13, s13
 875              	.LBE96:
 876              	.LBE100:
 877              		.loc 1 104 0
 878 001a 2DED028B 		vpush.64	{d8}
 879              		.cfi_def_cfa_offset 12
 880              		.cfi_offset 80, -12
 881              		.cfi_offset 81, -8
 882              	.LBB101:
 883              	.LBB97:
 884              		.loc 1 99 0
 885 001e A7EE070A 		vfma.f32	s0, s14, s14
 886              	.LBE97:
 887              	.LBE101:
 888              		.loc 1 104 0
 889 0022 83B0     		sub	sp, sp, #12
 890              		.cfi_def_cfa_offset 24
 891              	.LBB102:
 892              	.LBB98:
 893              		.loc 1 99 0
 894 0024 A7EEA70A 		vfma.f32	s0, s15, s15
 895 0028 B5EE400A 		vcmp.f32	s0, #0
 896 002c F1EE10FA 		vmrs	APSR_nzcv, FPSCR
 897              		.loc 1 100 0
 898 0030 B1EEC08A 		vsqrt.f32	s16, s0
 899 0034 23D4     		bmi	.L43
 900              	.LVL65:
 901              	.L38:
 902              	.LBE98:
 903              	.LBE102:
 904              		.loc 1 106 0
 905 0036 DFED147A 		vldr.32	s15, .L44
 906 003a B4EEE78A 		vcmpe.f32	s16, s15
 907 003e F1EE10FA 		vmrs	APSR_nzcv, FPSCR
 908 0042 17DD     		ble	.L37
 909              		.loc 1 108 0
 910 0044 D0ED006A 		vldr.32	s13, [r0]
 911              		.loc 1 109 0
 912 0048 90ED017A 		vldr.32	s14, [r0, #4]
ARM GAS  /tmp/ccf8u9N6.s 			page 17


 913              		.loc 1 110 0
 914 004c D0ED027A 		vldr.32	s15, [r0, #8]
 915              		.loc 1 111 0
 916 0050 D0ED035A 		vldr.32	s11, [r0, #12]
 917              		.loc 1 108 0
 918 0054 86EE886A 		vdiv.f32	s12, s13, s16
 919              		.loc 1 109 0
 920 0058 C7EE086A 		vdiv.f32	s13, s14, s16
 921              		.loc 1 110 0
 922 005c 87EE887A 		vdiv.f32	s14, s15, s16
 923              		.loc 1 111 0
 924 0060 C5EE887A 		vdiv.f32	s15, s11, s16
 925              		.loc 1 108 0
 926 0064 80ED006A 		vstr.32	s12, [r0]
 927              		.loc 1 109 0
 928 0068 C0ED016A 		vstr.32	s13, [r0, #4]
 929              		.loc 1 110 0
 930 006c 80ED027A 		vstr.32	s14, [r0, #8]
 931              		.loc 1 111 0
 932 0070 C0ED037A 		vstr.32	s15, [r0, #12]
 933              	.L37:
 934              		.loc 1 115 0
 935 0074 03B0     		add	sp, sp, #12
 936              		.cfi_remember_state
 937              		.cfi_def_cfa_offset 12
 938              		@ sp needed
 939 0076 BDEC028B 		vldm	sp!, {d8}
 940              		.cfi_restore 80
 941              		.cfi_restore 81
 942              		.cfi_def_cfa_offset 4
 943 007a 5DF804FB 		ldr	pc, [sp], #4
 944              	.LVL66:
 945              	.L43:
 946              		.cfi_restore_state
 947 007e 0190     		str	r0, [sp, #4]
 948              	.LBB103:
 949              	.LBB99:
 950              		.loc 1 100 0
 951 0080 FFF7FEFF 		bl	sqrtf
 952              	.LVL67:
 953 0084 0198     		ldr	r0, [sp, #4]
 954 0086 D6E7     		b	.L38
 955              	.L45:
 956              		.align	2
 957              	.L44:
 958 0088 BD378635 		.word	897988541
 959              	.LBE99:
 960              	.LBE103:
 961              		.cfi_endproc
 962              	.LFE570:
 963              		.size	_ZN10Quaternion9normalizeEv, .-_ZN10Quaternion9normalizeEv
 964              		.section	.text._ZN10Quaternion7invNormEv,"ax",%progbits
 965              		.align	1
 966              		.p2align 2,,3
 967              		.global	_ZN10Quaternion7invNormEv
 968              		.syntax unified
 969              		.thumb
ARM GAS  /tmp/ccf8u9N6.s 			page 18


 970              		.thumb_func
 971              		.fpu fpv4-sp-d16
 972              		.type	_ZN10Quaternion7invNormEv, %function
 973              	_ZN10Quaternion7invNormEv:
 974              	.LFB571:
 975              		.loc 1 117 0
 976              		.cfi_startproc
 977              		@ args = 0, pretend = 0, frame = 0
 978              		@ frame_needed = 0, uses_anonymous_args = 0
 979              		@ link register save eliminated.
 980              	.LVL68:
 981              		.loc 1 118 0
 982 0000 D0ED017A 		vldr.32	s15, [r0, #4]
 983 0004 D0ED005A 		vldr.32	s11, [r0]
 984 0008 90ED026A 		vldr.32	s12, [r0, #8]
 985              		.loc 1 119 0
 986 000c D0ED036A 		vldr.32	s13, [r0, #12]
 987              		.loc 1 124 0
 988 0010 0D4B     		ldr	r3, .L47
 989              		.loc 1 118 0
 990 0012 67EEA77A 		vmul.f32	s15, s15, s15
 991              		.loc 1 121 0
 992 0016 B6EE007A 		vmov.f32	s14, #5.0e-1
 993              		.loc 1 118 0
 994 001a E5EEA57A 		vfma.f32	s15, s11, s11
 995              		.loc 1 126 0
 996 001e B7EE080A 		vmov.f32	s0, #1.5e+0
 997              		.loc 1 118 0
 998 0022 E6EE067A 		vfma.f32	s15, s12, s12
 999 0026 E6EEA67A 		vfma.f32	s15, s13, s13
 1000              	.LVL69:
 1001              		.loc 1 125 0
 1002 002a 17EE902A 		vmov	r2, s15	@ int
 1003 002e A3EB6203 		sub	r3, r3, r2, asr #1
 1004              	.LVL70:
 1005              		.loc 1 121 0
 1006 0032 27EE877A 		vmul.f32	s14, s15, s14
 1007              	.LVL71:
 1008              		.loc 1 125 0
 1009 0036 07EE903A 		vmov	s15, r3	@ int
 1010              	.LVL72:
 1011              		.loc 1 126 0
 1012 003a 27EE277A 		vmul.f32	s14, s14, s15
 1013              	.LVL73:
 1014 003e A7EEC70A 		vfms.f32	s0, s15, s14
 1015              		.loc 1 128 0
 1016 0042 20EE270A 		vmul.f32	s0, s0, s15
 1017 0046 7047     		bx	lr
 1018              	.L48:
 1019              		.align	2
 1020              	.L47:
 1021 0048 DF59375F 		.word	1597463007
 1022              		.cfi_endproc
 1023              	.LFE571:
 1024              		.size	_ZN10Quaternion7invNormEv, .-_ZN10Quaternion7invNormEv
 1025              		.section	.text._ZN10Quaternion3setEffff,"ax",%progbits
 1026              		.align	1
ARM GAS  /tmp/ccf8u9N6.s 			page 19


 1027              		.p2align 2,,3
 1028              		.global	_ZN10Quaternion3setEffff
 1029              		.syntax unified
 1030              		.thumb
 1031              		.thumb_func
 1032              		.fpu fpv4-sp-d16
 1033              		.type	_ZN10Quaternion3setEffff, %function
 1034              	_ZN10Quaternion3setEffff:
 1035              	.LFB572:
 1036              		.loc 1 131 0
 1037              		.cfi_startproc
 1038              		@ args = 0, pretend = 0, frame = 0
 1039              		@ frame_needed = 0, uses_anonymous_args = 0
 1040              		@ link register save eliminated.
 1041              	.LVL74:
 1042              		.loc 1 132 0
 1043 0000 80ED000A 		vstr.32	s0, [r0]
 1044              		.loc 1 133 0
 1045 0004 C0ED010A 		vstr.32	s1, [r0, #4]
 1046              		.loc 1 134 0
 1047 0008 80ED021A 		vstr.32	s2, [r0, #8]
 1048              		.loc 1 135 0
 1049 000c C0ED031A 		vstr.32	s3, [r0, #12]
 1050              		.loc 1 136 0
 1051 0010 7047     		bx	lr
 1052              		.cfi_endproc
 1053              	.LFE572:
 1054              		.size	_ZN10Quaternion3setEffff, .-_ZN10Quaternion3setEffff
 1055              		.global	__aeabi_f2d
 1056              		.global	__aeabi_d2f
 1057 0012 00BF     		.section	.text._ZNK10Quaternion12toEulerAngleEPVfS1_S1_,"ax",%progbits
 1058              		.align	1
 1059              		.p2align 2,,3
 1060              		.global	_ZNK10Quaternion12toEulerAngleEPVfS1_S1_
 1061              		.syntax unified
 1062              		.thumb
 1063              		.thumb_func
 1064              		.fpu fpv4-sp-d16
 1065              		.type	_ZNK10Quaternion12toEulerAngleEPVfS1_S1_, %function
 1066              	_ZNK10Quaternion12toEulerAngleEPVfS1_S1_:
 1067              	.LFB573:
 1068              		.loc 1 140 0
 1069              		.cfi_startproc
 1070              		@ args = 0, pretend = 0, frame = 0
 1071              		@ frame_needed = 0, uses_anonymous_args = 0
 1072              	.LVL75:
 1073              		.loc 1 142 0
 1074 0000 90ED020A 		vldr.32	s0, [r0, #8]
 1075 0004 90ED036A 		vldr.32	s12, [r0, #12]
 1076 0008 90ED017A 		vldr.32	s14, [r0, #4]
 1077              	.LVL76:
 1078 000c D0ED006A 		vldr.32	s13, [r0]
 1079              		.loc 1 140 0
 1080 0010 F8B5     		push	{r3, r4, r5, r6, r7, lr}
 1081              		.cfi_def_cfa_offset 24
 1082              		.cfi_offset 3, -24
 1083              		.cfi_offset 4, -20
ARM GAS  /tmp/ccf8u9N6.s 			page 20


 1084              		.cfi_offset 5, -16
 1085              		.cfi_offset 6, -12
 1086              		.cfi_offset 7, -8
 1087              		.cfi_offset 14, -4
 1088              		.loc 1 143 0
 1089 0012 60EE007A 		vmul.f32	s15, s0, s0
 1090              		.loc 1 142 0
 1091 0016 20EE060A 		vmul.f32	s0, s0, s12
 1092              	.LVL77:
 1093              		.loc 1 143 0
 1094 001a E7EE077A 		vfma.f32	s15, s14, s14
 1095              		.loc 1 140 0
 1096 001e 0446     		mov	r4, r0
 1097 0020 0E46     		mov	r6, r1
 1098              		.loc 1 142 0
 1099 0022 A6EE870A 		vfma.f32	s0, s13, s14
 1100              		.loc 1 140 0
 1101 0026 1746     		mov	r7, r2
 1102 0028 1D46     		mov	r5, r3
 1103 002a 2DED028B 		vpush.64	{d8}
 1104              		.cfi_def_cfa_offset 32
 1105              		.cfi_offset 80, -32
 1106              		.cfi_offset 81, -28
 1107              		.loc 1 143 0
 1108 002e B7EE008A 		vmov.f32	s16, #1.0e+0
 1109 0032 B0EE007A 		vmov.f32	s14, #2.0e+0
 1110              	.LVL78:
 1111              	.LBB104:
 1112              	.LBB105:
 1113              		.file 2 "/usr/arm-none-eabi/include/c++/7.3.1/cmath"
 1114              		.loc 2 145 0
 1115 0036 F0EE480A 		vmov.f32	s1, s16
 1116 003a E7EEC70A 		vfms.f32	s1, s15, s14
 1117 003e 30EE000A 		vadd.f32	s0, s0, s0
 1118 0042 FFF7FEFF 		bl	atan2f
 1119              	.LVL79:
 1120              	.LBE105:
 1121              	.LBE104:
 1122              		.loc 1 144 0
 1123 0046 86ED000A 		vstr.32	s0, [r6]
 1124              		.loc 1 147 0
 1125 004a D4ED036A 		vldr.32	s13, [r4, #12]
 1126 004e 94ED010A 		vldr.32	s0, [r4, #4]
 1127 0052 D4ED027A 		vldr.32	s15, [r4, #8]
 1128 0056 94ED007A 		vldr.32	s14, [r4]
 1129 005a 20EE660A 		vnmul.f32	s0, s0, s13
 1130 005e A7EE270A 		vfma.f32	s0, s14, s15
 1131 0062 30EE000A 		vadd.f32	s0, s0, s0
 1132              	.LVL80:
 1133              	.LBB106:
 1134              	.LBB107:
 1135              		.loc 2 242 0
 1136 0066 F0EEC07A 		vabs.f32	s15, s0
 1137              	.LBE107:
 1138              	.LBE106:
 1139              		.loc 1 148 0
 1140 006a F4EEC87A 		vcmpe.f32	s15, s16
ARM GAS  /tmp/ccf8u9N6.s 			page 21


 1141 006e F1EE10FA 		vmrs	APSR_nzcv, FPSCR
 1142 0072 30DB     		blt	.L59
 1143              	.LVL81:
 1144              	.LBB108:
 1145              	.LBB109:
 1146              		.loc 2 1315 0
 1147 0074 10EE100A 		vmov	r0, s0
 1148 0078 FFF7FEFF 		bl	__aeabi_f2d
 1149              	.LVL82:
 1150 007c 0029     		cmp	r1, #0
 1151 007e 18A3     		adr	r3, .L62
 1152 0080 D3E90023 		ldrd	r2, [r3]
 1153 0084 23DB     		blt	.L61
 1154              	.L53:
 1155              	.LVL83:
 1156              	.LBE109:
 1157              	.LBE108:
 1158              		.loc 1 149 0
 1159 0086 1046     		mov	r0, r2
 1160 0088 1946     		mov	r1, r3
 1161 008a FFF7FEFF 		bl	__aeabi_d2f
 1162              	.LVL84:
 1163 008e 3860     		str	r0, [r7]	@ float
 1164              	.L54:
 1165              		.loc 1 154 0
 1166 0090 94ED027A 		vldr.32	s14, [r4, #8]
 1167 0094 D4ED036A 		vldr.32	s13, [r4, #12]
 1168              	.LVL85:
 1169 0098 94ED010A 		vldr.32	s0, [r4, #4]
 1170 009c 94ED006A 		vldr.32	s12, [r4]
 1171 00a0 27EE000A 		vmul.f32	s0, s14, s0
 1172              		.loc 1 155 0
 1173 00a4 66EEA67A 		vmul.f32	s15, s13, s13
 1174              		.loc 1 154 0
 1175 00a8 A6EE260A 		vfma.f32	s0, s12, s13
 1176              		.loc 1 155 0
 1177 00ac E7EE077A 		vfma.f32	s15, s14, s14
 1178 00b0 F7EE000A 		vmov.f32	s1, #1.0e+0
 1179 00b4 B0EE007A 		vmov.f32	s14, #2.0e+0
 1180              	.LVL86:
 1181              	.LBB111:
 1182              	.LBB112:
 1183              		.loc 2 145 0
 1184 00b8 30EE000A 		vadd.f32	s0, s0, s0
 1185 00bc E7EEC70A 		vfms.f32	s1, s15, s14
 1186 00c0 FFF7FEFF 		bl	atan2f
 1187              	.LVL87:
 1188              	.LBE112:
 1189              	.LBE111:
 1190              		.loc 1 157 0
 1191 00c4 BDEC028B 		vldm	sp!, {d8}
 1192              		.cfi_remember_state
 1193              		.cfi_restore 80
 1194              		.cfi_restore 81
 1195              		.cfi_def_cfa_offset 24
 1196              		.loc 1 156 0
 1197 00c8 85ED000A 		vstr.32	s0, [r5]
ARM GAS  /tmp/ccf8u9N6.s 			page 22


 1198              		.loc 1 157 0
 1199 00cc F8BD     		pop	{r3, r4, r5, r6, r7, pc}
 1200              	.LVL88:
 1201              	.L61:
 1202              		.cfi_restore_state
 1203              	.LBB113:
 1204              	.LBB110:
 1205              		.loc 2 1315 0
 1206 00ce 06A3     		adr	r3, .L62+8
 1207 00d0 D3E90023 		ldrd	r2, [r3]
 1208 00d4 D7E7     		b	.L53
 1209              	.LVL89:
 1210              	.L59:
 1211              	.LBE110:
 1212              	.LBE113:
 1213              	.LBB114:
 1214              	.LBB115:
 1215              		.loc 2 107 0
 1216 00d6 FFF7FEFF 		bl	asinf
 1217              	.LVL90:
 1218              	.LBE115:
 1219              	.LBE114:
 1220              		.loc 1 151 0
 1221 00da 87ED000A 		vstr.32	s0, [r7]
 1222 00de D7E7     		b	.L54
 1223              	.L63:
 1224              		.align	3
 1225              	.L62:
 1226 00e0 182D4454 		.word	1413754136
 1227 00e4 FB21F93F 		.word	1073291771
 1228 00e8 182D4454 		.word	1413754136
 1229 00ec FB21F9BF 		.word	-1074191877
 1230              		.cfi_endproc
 1231              	.LFE573:
 1232              		.size	_ZNK10Quaternion12toEulerAngleEPVfS1_S1_, .-_ZNK10Quaternion12toEulerAngleEPVfS1_S1_
 1233              		.section	.text._ZplRK10QuaternionS1_,"ax",%progbits
 1234              		.align	1
 1235              		.p2align 2,,3
 1236              		.global	_ZplRK10QuaternionS1_
 1237              		.syntax unified
 1238              		.thumb
 1239              		.thumb_func
 1240              		.fpu fpv4-sp-d16
 1241              		.type	_ZplRK10QuaternionS1_, %function
 1242              	_ZplRK10QuaternionS1_:
 1243              	.LFB574:
 1244              		.loc 1 160 0
 1245              		.cfi_startproc
 1246              		@ args = 0, pretend = 0, frame = 32
 1247              		@ frame_needed = 0, uses_anonymous_args = 0
 1248              		@ link register save eliminated.
 1249              	.LVL91:
 1250              	.LBB116:
 1251              	.LBB117:
 1252              		.file 3 "./RM18A-ChibiOS18-Core/src/utility/Quaternion.hpp"
 1253              		.loc 3 38 0
 1254 0000 D0ED010A 		vldr.32	s1, [r0, #4]
ARM GAS  /tmp/ccf8u9N6.s 			page 23


 1255 0004 91ED016A 		vldr.32	s12, [r1, #4]
 1256              	.LVL92:
 1257              		.loc 3 39 0
 1258 0008 91ED021A 		vldr.32	s2, [r1, #8]
 1259 000c D0ED026A 		vldr.32	s13, [r0, #8]
 1260              	.LVL93:
 1261              		.loc 3 40 0
 1262 0010 D1ED031A 		vldr.32	s3, [r1, #12]
 1263 0014 90ED037A 		vldr.32	s14, [r0, #12]
 1264              	.LVL94:
 1265              		.loc 3 37 0
 1266 0018 91ED000A 		vldr.32	s0, [r1]
 1267 001c D0ED007A 		vldr.32	s15, [r0]
 1268              	.LBE117:
 1269              	.LBE116:
 1270              		.loc 1 164 0
 1271 0020 70EE860A 		vadd.f32	s1, s1, s12
 1272 0024 31EE261A 		vadd.f32	s2, s2, s13
 1273 0028 71EE871A 		vadd.f32	s3, s3, s14
 1274 002c 30EE270A 		vadd.f32	s0, s0, s15
 1275              		.loc 1 160 0
 1276 0030 88B0     		sub	sp, sp, #32
 1277              		.cfi_def_cfa_offset 32
 1278              		.loc 1 164 0
 1279 0032 08B0     		add	sp, sp, #32
 1280              		.cfi_def_cfa_offset 0
 1281              		@ sp needed
 1282 0034 7047     		bx	lr
 1283              		.cfi_endproc
 1284              	.LFE574:
 1285              		.size	_ZplRK10QuaternionS1_, .-_ZplRK10QuaternionS1_
 1286 0036 00BF     		.section	.text._ZmlRK10QuaternionS1_,"ax",%progbits
 1287              		.align	1
 1288              		.p2align 2,,3
 1289              		.global	_ZmlRK10QuaternionS1_
 1290              		.syntax unified
 1291              		.thumb
 1292              		.thumb_func
 1293              		.fpu fpv4-sp-d16
 1294              		.type	_ZmlRK10QuaternionS1_, %function
 1295              	_ZmlRK10QuaternionS1_:
 1296              	.LFB575:
 1297              		.loc 1 167 0
 1298              		.cfi_startproc
 1299              		@ args = 0, pretend = 0, frame = 32
 1300              		@ frame_needed = 0, uses_anonymous_args = 0
 1301              		@ link register save eliminated.
 1302              	.LVL95:
 1303              		.loc 1 168 0
 1304 0000 D0ED021A 		vldr.32	s3, [r0, #8]
 1305              	.LBB120:
 1306              	.LBB121:
 1307              		.loc 3 54 0
 1308 0004 91ED026A 		vldr.32	s12, [r1, #8]
 1309              		.loc 3 55 0
 1310 0008 D1ED016A 		vldr.32	s13, [r1, #4]
 1311              		.loc 3 54 0
ARM GAS  /tmp/ccf8u9N6.s 			page 24


 1312 000c D1ED005A 		vldr.32	s11, [r1]
 1313 0010 91ED037A 		vldr.32	s14, [r1, #12]
 1314              	.LBE121:
 1315              	.LBE120:
 1316              		.loc 1 168 0
 1317 0014 D0ED014A 		vldr.32	s9, [r0, #4]
 1318 0018 90ED035A 		vldr.32	s10, [r0, #12]
 1319 001c D0ED007A 		vldr.32	s15, [r0]
 1320              	.LVL96:
 1321              	.LBB124:
 1322              	.LBB122:
 1323              		.loc 3 60 0
 1324 0020 21EEC60A 		vnmul.f32	s0, s3, s12
 1325              		.loc 3 56 0
 1326 0024 25EEA11A 		vmul.f32	s2, s11, s3
 1327              		.loc 3 54 0
 1328 0028 67EE210A 		vmul.f32	s1, s14, s3
 1329              		.loc 3 58 0
 1330 002c 61EEE61A 		vnmul.f32	s3, s3, s13
 1331              	.LVL97:
 1332              		.loc 3 56 0
 1333 0030 B1EE644A 		vneg.f32	s8, s9
 1334              	.LVL98:
 1335              		.loc 3 60 0
 1336 0034 A6EE840A 		vfma.f32	s0, s13, s8
 1337              	.LBE122:
 1338              	.LBE124:
 1339              		.loc 1 167 0
 1340 0038 88B0     		sub	sp, sp, #32
 1341              		.cfi_def_cfa_offset 32
 1342              	.LBB125:
 1343              	.LBB123:
 1344              		.loc 3 56 0
 1345 003a A7EE041A 		vfma.f32	s2, s14, s8
 1346              		.loc 3 54 0
 1347 003e E4EEA50A 		vfma.f32	s1, s9, s11
 1348              		.loc 3 58 0
 1349 0042 E4EE861A 		vfma.f32	s3, s9, s12
 1350              		.loc 3 60 0
 1351 0046 A7EE450A 		vfms.f32	s0, s14, s10
 1352              		.loc 3 56 0
 1353 004a A6EE851A 		vfma.f32	s2, s13, s10
 1354              		.loc 3 54 0
 1355 004e E6EE450A 		vfms.f32	s1, s12, s10
 1356              		.loc 3 58 0
 1357 0052 E5EE851A 		vfma.f32	s3, s11, s10
 1358              	.LBE123:
 1359              	.LBE125:
 1360              		.loc 1 171 0
 1361 0056 A5EEA70A 		vfma.f32	s0, s11, s15
 1362 005a A6EE271A 		vfma.f32	s2, s12, s15
 1363 005e E6EEA70A 		vfma.f32	s1, s13, s15
 1364 0062 E7EE271A 		vfma.f32	s3, s14, s15
 1365 0066 08B0     		add	sp, sp, #32
 1366              		.cfi_def_cfa_offset 0
 1367              		@ sp needed
 1368 0068 7047     		bx	lr
ARM GAS  /tmp/ccf8u9N6.s 			page 25


 1369              		.cfi_endproc
 1370              	.LFE575:
 1371              		.size	_ZmlRK10QuaternionS1_, .-_ZmlRK10QuaternionS1_
 1372 006a 00BF     		.section	.text._ZmlRK10Quaternionf,"ax",%progbits
 1373              		.align	1
 1374              		.p2align 2,,3
 1375              		.global	_ZmlRK10Quaternionf
 1376              		.syntax unified
 1377              		.thumb
 1378              		.thumb_func
 1379              		.fpu fpv4-sp-d16
 1380              		.type	_ZmlRK10Quaternionf, %function
 1381              	_ZmlRK10Quaternionf:
 1382              	.LFB576:
 1383              		.loc 1 174 0
 1384              		.cfi_startproc
 1385              		@ args = 0, pretend = 0, frame = 32
 1386              		@ frame_needed = 0, uses_anonymous_args = 0
 1387              		@ link register save eliminated.
 1388              	.LVL99:
 1389              	.LBB126:
 1390              	.LBB127:
 1391              		.loc 3 74 0
 1392 0000 D0ED010A 		vldr.32	s1, [r0, #4]
 1393              	.LVL100:
 1394              		.loc 3 75 0
 1395 0004 90ED021A 		vldr.32	s2, [r0, #8]
 1396              	.LVL101:
 1397              		.loc 3 76 0
 1398 0008 D0ED031A 		vldr.32	s3, [r0, #12]
 1399              	.LVL102:
 1400              		.loc 3 73 0
 1401 000c D0ED007A 		vldr.32	s15, [r0]
 1402              	.LBE127:
 1403              	.LBE126:
 1404              		.loc 1 178 0
 1405 0010 60EE200A 		vmul.f32	s1, s0, s1
 1406 0014 20EE011A 		vmul.f32	s2, s0, s2
 1407 0018 60EE211A 		vmul.f32	s3, s0, s3
 1408 001c 27EE800A 		vmul.f32	s0, s15, s0
 1409              	.LVL103:
 1410              		.loc 1 174 0
 1411 0020 88B0     		sub	sp, sp, #32
 1412              		.cfi_def_cfa_offset 32
 1413              		.loc 1 178 0
 1414 0022 08B0     		add	sp, sp, #32
 1415              		.cfi_def_cfa_offset 0
 1416              		@ sp needed
 1417 0024 7047     		bx	lr
 1418              		.cfi_endproc
 1419              	.LFE576:
 1420              		.size	_ZmlRK10Quaternionf, .-_ZmlRK10Quaternionf
 1421 0026 00BF     		.section	.text._ZdvRK10Quaternionf,"ax",%progbits
 1422              		.align	1
 1423              		.p2align 2,,3
 1424              		.global	_ZdvRK10Quaternionf
 1425              		.syntax unified
ARM GAS  /tmp/ccf8u9N6.s 			page 26


 1426              		.thumb
 1427              		.thumb_func
 1428              		.fpu fpv4-sp-d16
 1429              		.type	_ZdvRK10Quaternionf, %function
 1430              	_ZdvRK10Quaternionf:
 1431              	.LFB577:
 1432              		.loc 1 181 0
 1433              		.cfi_startproc
 1434              		@ args = 0, pretend = 0, frame = 32
 1435              		@ frame_needed = 0, uses_anonymous_args = 0
 1436              		@ link register save eliminated.
 1437              	.LVL104:
 1438              	.LBB128:
 1439              	.LBB129:
 1440              		.loc 3 83 0
 1441 0000 D0ED010A 		vldr.32	s1, [r0, #4]
 1442              	.LVL105:
 1443              		.loc 3 84 0
 1444 0004 90ED021A 		vldr.32	s2, [r0, #8]
 1445              	.LVL106:
 1446              		.loc 3 85 0
 1447 0008 D0ED031A 		vldr.32	s3, [r0, #12]
 1448              	.LVL107:
 1449              		.loc 3 82 0
 1450 000c D0ED007A 		vldr.32	s15, [r0]
 1451              	.LBE129:
 1452              	.LBE128:
 1453              		.loc 1 185 0
 1454 0010 C0EE800A 		vdiv.f32	s1, s1, s0
 1455              		.loc 1 181 0
 1456 0014 88B0     		sub	sp, sp, #32
 1457              		.cfi_def_cfa_offset 32
 1458              		.loc 1 185 0
 1459 0016 81EE001A 		vdiv.f32	s2, s2, s0
 1460 001a C1EE801A 		vdiv.f32	s3, s3, s0
 1461 001e 87EE800A 		vdiv.f32	s0, s15, s0
 1462              	.LVL108:
 1463 0022 08B0     		add	sp, sp, #32
 1464              		.cfi_def_cfa_offset 0
 1465              		@ sp needed
 1466 0024 7047     		bx	lr
 1467              		.cfi_endproc
 1468              	.LFE577:
 1469              		.size	_ZdvRK10Quaternionf, .-_ZdvRK10Quaternionf
 1470 0026 00BF     		.section	.text._ZmlfRK10Quaternion,"ax",%progbits
 1471              		.align	1
 1472              		.p2align 2,,3
 1473              		.global	_ZmlfRK10Quaternion
 1474              		.syntax unified
 1475              		.thumb
 1476              		.thumb_func
 1477              		.fpu fpv4-sp-d16
 1478              		.type	_ZmlfRK10Quaternion, %function
 1479              	_ZmlfRK10Quaternion:
 1480              	.LFB578:
 1481              		.loc 1 188 0
 1482              		.cfi_startproc
ARM GAS  /tmp/ccf8u9N6.s 			page 27


 1483              		@ args = 0, pretend = 0, frame = 32
 1484              		@ frame_needed = 0, uses_anonymous_args = 0
 1485              		@ link register save eliminated.
 1486              	.LVL109:
 1487              	.LBB130:
 1488              	.LBB131:
 1489              		.loc 3 74 0
 1490 0000 D0ED010A 		vldr.32	s1, [r0, #4]
 1491              	.LVL110:
 1492              		.loc 3 75 0
 1493 0004 90ED021A 		vldr.32	s2, [r0, #8]
 1494              	.LVL111:
 1495              		.loc 3 76 0
 1496 0008 D0ED031A 		vldr.32	s3, [r0, #12]
 1497              	.LVL112:
 1498              		.loc 3 73 0
 1499 000c D0ED007A 		vldr.32	s15, [r0]
 1500              	.LBE131:
 1501              	.LBE130:
 1502              		.loc 1 191 0
 1503 0010 60EE200A 		vmul.f32	s1, s0, s1
 1504 0014 20EE011A 		vmul.f32	s2, s0, s2
 1505 0018 60EE211A 		vmul.f32	s3, s0, s3
 1506 001c 27EE800A 		vmul.f32	s0, s15, s0
 1507              	.LVL113:
 1508              		.loc 1 188 0
 1509 0020 88B0     		sub	sp, sp, #32
 1510              		.cfi_def_cfa_offset 32
 1511              		.loc 1 191 0
 1512 0022 08B0     		add	sp, sp, #32
 1513              		.cfi_def_cfa_offset 0
 1514              		@ sp needed
 1515 0024 7047     		bx	lr
 1516              		.cfi_endproc
 1517              	.LFE578:
 1518              		.size	_ZmlfRK10Quaternion, .-_ZmlfRK10Quaternion
 1519 0026 00BF     		.text
 1520              	.Letext0:
 1521              		.file 4 "/usr/arm-none-eabi/include/c++/7.3.1/arm-none-eabi/thumb/v7e-m/fpv4-sp/hard/bits/c++confi
 1522              		.file 5 "/usr/arm-none-eabi/include/c++/7.3.1/ext/type_traits.h"
 1523              		.file 6 "/usr/lib/gcc/arm-none-eabi/7.3.1/include/stddef.h"
 1524              		.file 7 "/usr/arm-none-eabi/include/machine/_default_types.h"
 1525              		.file 8 "/usr/arm-none-eabi/include/sys/lock.h"
 1526              		.file 9 "/usr/arm-none-eabi/include/sys/_types.h"
 1527              		.file 10 "/usr/arm-none-eabi/include/sys/reent.h"
 1528              		.file 11 "/usr/arm-none-eabi/include/math.h"
 1529              		.file 12 "/usr/arm-none-eabi/include/stdlib.h"
 1530              		.file 13 "/usr/arm-none-eabi/include/c++/7.3.1/math.h"
 1531              		.file 14 "/usr/arm-none-eabi/include/sys/_stdint.h"
 1532              		.file 15 "./RM18A-ChibiOS18-Core/chibios/os/common/ports/ARMCMx/compilers/GCC/chtypes.h"
 1533              		.file 16 "./RM18A-ChibiOS18-Core/chibios/os/rt/include/chsystypes.h"
 1534              		.file 17 "./RM18A-ChibiOS18-Core/chibios/os/rt/include/chschd.h"
 1535              		.file 18 "./RM18A-ChibiOS18-Core/chibios/os/rt/include/chtime.h"
 1536              		.file 19 "./RM18A-ChibiOS18-Core/chibios/os/common/ext/ARM/CMSIS/Core/Include/core_cm4.h"
 1537              		.file 20 "./RM18A-ChibiOS18-Core/chibios/os/common/ext/ST/STM32F4xx/system_stm32f4xx.h"
 1538              		.file 21 "./RM18A-ChibiOS18-Core/chibios/os/common/ext/ST/STM32F4xx/stm32f427xx.h"
 1539              		.file 22 "./RM18A-ChibiOS18-Core/chibios/os/common/ports/ARMCMx/chcore.h"
ARM GAS  /tmp/ccf8u9N6.s 			page 28


 1540              		.file 23 "./RM18A-ChibiOS18-Core/chibios/os/common/ports/ARMCMx/chcore_v7m.h"
 1541              		.file 24 "./RM18A-ChibiOS18-Core/chibios/os/hal/ports/STM32/LLD/TIMv1/stm32_tim.h"
 1542              		.file 25 "./RM18A-ChibiOS18-Core/chibios/os/rt/include/chtm.h"
 1543              		.file 26 "./RM18A-ChibiOS18-Core/chibios/os/rt/include/chsem.h"
 1544              		.file 27 "./RM18A-ChibiOS18-Core/chibios/os/rt/include/chmtx.h"
 1545              		.file 28 "./RM18A-ChibiOS18-Core/chibios/os/rt/include/chsys.h"
 1546              		.file 29 "./RM18A-ChibiOS18-Core/chibios/os/rt/include/chregistry.h"
 1547              		.file 30 "./RM18A-ChibiOS18-Core/chibios/os/rt/include/chevents.h"
 1548              		.file 31 "./RM18A-ChibiOS18-Core/chibios/os/oslib/include/chmemcore.h"
 1549              		.file 32 "./RM18A-ChibiOS18-Core/chibios/os/oslib/include/chmempools.h"
 1550              		.file 33 "./RM18A-ChibiOS18-Core/chibios/os/oslib/include/chfactory.h"
 1551              		.file 34 "./RM18A-ChibiOS18-Core/chibios/os/hal/ports/STM32/LLD/DMAv2/stm32_dma.h"
 1552              		.file 35 "./RM18A-ChibiOS18-Core/chibios/os/hal/include/hal_queues.h"
 1553              		.file 36 "./RM18A-ChibiOS18-Core/chibios/os/hal/include/hal_pal.h"
 1554              		.file 37 "./RM18A-ChibiOS18-Core/chibios/os/hal/ports/STM32/LLD/GPIOv2/hal_pal_lld.h"
 1555              		.file 38 "./RM18A-ChibiOS18-Core/chibios/os/hal/include/hal_adc.h"
 1556              		.file 39 "./RM18A-ChibiOS18-Core/chibios/os/hal/ports/STM32/LLD/ADCv2/hal_adc_lld.h"
 1557              		.file 40 "./RM18A-ChibiOS18-Core/chibios/os/hal/include/hal_can.h"
 1558              		.file 41 "./RM18A-ChibiOS18-Core/chibios/os/hal/ports/STM32/LLD/CANv1/hal_can_lld.h"
 1559              		.file 42 "./RM18A-ChibiOS18-Core/chibios/os/hal/include/hal_i2c.h"
 1560              		.file 43 "./RM18A-ChibiOS18-Core/chibios/os/hal/lib/fallback/I2C/hal_i2c_lld.h"
 1561              		.file 44 "./RM18A-ChibiOS18-Core/chibios/os/hal/include/hal_icu.h"
 1562              		.file 45 "./RM18A-ChibiOS18-Core/chibios/os/hal/ports/STM32/LLD/TIMv1/hal_icu_lld.h"
 1563              		.file 46 "./RM18A-ChibiOS18-Core/chibios/os/hal/include/hal_pwm.h"
 1564              		.file 47 "./RM18A-ChibiOS18-Core/chibios/os/hal/ports/STM32/LLD/TIMv1/hal_pwm_lld.h"
 1565              		.file 48 "./RM18A-ChibiOS18-Core/chibios/os/hal/include/hal_serial.h"
 1566              		.file 49 "./RM18A-ChibiOS18-Core/chibios/os/hal/ports/STM32/LLD/USARTv1/hal_serial_lld.h"
 1567              		.file 50 "./RM18A-ChibiOS18-Core/chibios/os/hal/include/hal_spi.h"
 1568              		.file 51 "./RM18A-ChibiOS18-Core/chibios/os/hal/ports/STM32/LLD/SPIv1/hal_spi_lld.h"
 1569              		.file 52 "./RM18A-ChibiOS18-Core/chibios/os/hal/include/hal_uart.h"
 1570              		.file 53 "./RM18A-ChibiOS18-Core/chibios/os/hal/ports/STM32/LLD/USARTv1/hal_uart_lld.h"
 1571              		.file 54 "./RM18A-ChibiOS18-Core/chibios/os/hal/include/hal_usb.h"
 1572              		.file 55 "./RM18A-ChibiOS18-Core/chibios/os/hal/ports/STM32/LLD/OTGv1/hal_usb_lld.h"
 1573              		.file 56 "./RM18A-ChibiOS18-Core/chibios/os/hal/ports/STM32/LLD/OTGv1/stm32_otg.h"
 1574              		.file 57 "<built-in>"