ARM GAS  /tmp/cc7rb0Xf.s 			page 1


   1              		.cpu cortex-m4
   2              		.eabi_attribute 27, 1
   3              		.eabi_attribute 28, 1
   4              		.eabi_attribute 20, 1
   5              		.eabi_attribute 21, 1
   6              		.eabi_attribute 23, 3
   7              		.eabi_attribute 24, 1
   8              		.eabi_attribute 25, 1
   9              		.eabi_attribute 26, 1
  10              		.eabi_attribute 30, 2
  11              		.eabi_attribute 34, 1
  12              		.eabi_attribute 18, 4
  13              		.file	"rgbled.c"
  14              		.text
  15              	.Ltext0:
  16              		.cfi_sections	.debug_frame
  17              		.section	.text.signal_clk_cb,"ax",%progbits
  18              		.align	1
  19              		.p2align 2,,3
  20              		.syntax unified
  21              		.thumb
  22              		.thumb_func
  23              		.fpu fpv4-sp-d16
  24              		.type	signal_clk_cb, %function
  25              	signal_clk_cb:
  26              	.LFB327:
  27              		.file 1 "./RM18A-ChibiOS18-Core/src/ext_hw/rgbled.c"
  28              		.loc 1 10 0
  29              		.cfi_startproc
  30              		@ args = 0, pretend = 0, frame = 0
  31              		@ frame_needed = 0, uses_anonymous_args = 0
  32              	.LVL0:
  33 0000 2DE9F843 		push	{r3, r4, r5, r6, r7, r8, r9, lr}
  34              		.cfi_def_cfa_offset 32
  35              		.cfi_offset 3, -32
  36              		.cfi_offset 4, -28
  37              		.cfi_offset 5, -24
  38              		.cfi_offset 6, -20
  39              		.cfi_offset 7, -16
  40              		.cfi_offset 8, -12
  41              		.cfi_offset 9, -8
  42              		.cfi_offset 14, -4
  43              	.LBB130:
  44              	.LBB131:
  45              	.LBB132:
  46              	.LBB133:
  47              	.LBB134:
  48              		.file 2 "./RM18A-ChibiOS18-Core/chibios/os/common/ext/ARM/CMSIS/Core/Include/cmsis_gcc.h"
  49              		.loc 2 493 0
  50 0004 2023     		movs	r3, #32
  51              		.syntax unified
  52              	@ 493 "./RM18A-ChibiOS18-Core/chibios/os/common/ext/ARM/CMSIS/Core/Include/cmsis_gcc.h" 1
  53 0006 83F31188 		MSR basepri, r3
  54              	@ 0 "" 2
  55              	.LVL1:
  56              		.thumb
  57              		.syntax unified
ARM GAS  /tmp/cc7rb0Xf.s 			page 2


  58              	.LBE134:
  59              	.LBE133:
  60              	.LBE132:
  61              	.LBE131:
  62              	.LBE130:
  63              	.LBB135:
  64              	.LBB136:
  65              	.LBB137:
  66              	.LBB138:
  67              		.file 3 "./RM18A-ChibiOS18-Core/chibios/os/rt/include/chvt.h"
  68              		.loc 3 280 0
  69 000a 3E4C     		ldr	r4, .L29
  70 000c E368     		ldr	r3, [r4, #12]
  71 000e 13B1     		cbz	r3, .L2
  72              		.loc 3 281 0
  73 0010 2046     		mov	r0, r4
  74              	.LVL2:
  75 0012 FFF7FEFF 		bl	chVTDoResetI
  76              	.LVL3:
  77              	.L2:
  78              	.LBE138:
  79              	.LBE137:
  80              		.loc 3 328 0
  81 0016 0023     		movs	r3, #0
  82 0018 3B4A     		ldr	r2, .L29+4
  83 001a 3A48     		ldr	r0, .L29
  84 001c 0121     		movs	r1, #1
  85 001e FFF7FEFF 		bl	chVTDoSetI
  86              	.LVL4:
  87              	.LBE136:
  88              	.LBE135:
  89              	.LBB139:
  90              	.LBB140:
  91              	.LBB141:
  92              	.LBB142:
  93              	.LBB143:
  94              		.loc 2 493 0
  95 0022 0023     		movs	r3, #0
  96              		.syntax unified
  97              	@ 493 "./RM18A-ChibiOS18-Core/chibios/os/common/ext/ARM/CMSIS/Core/Include/cmsis_gcc.h" 1
  98 0024 83F31188 		MSR basepri, r3
  99              	@ 0 "" 2
 100              	.LVL5:
 101              		.thumb
 102              		.syntax unified
 103              	.LBE143:
 104              	.LBE142:
 105              	.LBE141:
 106              	.LBE140:
 107              	.LBE139:
 108              		.loc 1 17 0
 109 0028 384D     		ldr	r5, .L29+8
 110 002a 2A78     		ldrb	r2, [r5]	@ zero_extendqisi2
 111 002c 012A     		cmp	r2, #1
 112 002e 11D0     		beq	.L25
 113              		.loc 1 51 0
 114 0030 022A     		cmp	r2, #2
ARM GAS  /tmp/cc7rb0Xf.s 			page 3


 115 0032 07D0     		beq	.L26
 116              		.loc 1 57 0
 117 0034 032A     		cmp	r2, #3
 118 0036 48D0     		beq	.L13
 119 0038 3549     		ldr	r1, .L29+12
 120 003a 0B88     		ldrh	r3, [r1]
 121              	.L7:
 122              		.loc 1 66 0
 123 003c 0133     		adds	r3, r3, #1
 124 003e 0B80     		strh	r3, [r1]	@ movhi
 125              		.loc 1 67 0
 126 0040 BDE8F883 		pop	{r3, r4, r5, r6, r7, r8, r9, pc}
 127              	.L26:
 128              		.loc 1 54 0
 129 0044 334B     		ldr	r3, .L29+16
 130 0046 3249     		ldr	r1, .L29+12
 131 0048 0122     		movs	r2, #1
 132 004a 5A83     		strh	r2, [r3, #26]	@ movhi
 133              		.loc 1 55 0
 134 004c 0322     		movs	r2, #3
 135 004e 0B88     		ldrh	r3, [r1]
 136 0050 2A70     		strb	r2, [r5]
 137 0052 F3E7     		b	.L7
 138              	.L25:
 139              		.loc 1 20 0
 140 0054 2E49     		ldr	r1, .L29+12
 141 0056 0B88     		ldrh	r3, [r1]
 142 0058 D807     		lsls	r0, r3, #31
 143 005a 33D4     		bmi	.L4
 144              		.loc 1 21 0
 145 005c DFF8B490 		ldr	r9, .L29+16
 146              		.loc 1 28 0
 147 0060 2D4E     		ldr	r6, .L29+20
 148              		.loc 1 21 0
 149 0062 A9F81A20 		strh	r2, [r9, #26]	@ movhi
 150              		.loc 1 28 0
 151 0066 3488     		ldrh	r4, [r6]
 152 0068 DFF8B480 		ldr	r8, .L29+28
 153 006c 2B4F     		ldr	r7, .L29+24
 154 006e DFF8B4E0 		ldr	lr, .L29+32
 155 0072 3888     		ldrh	r0, [r7]
 156 0074 BEF80020 		ldrh	r2, [lr]
 157 0078 04EB440C 		add	ip, r4, r4, lsl #1
 158 007c E044     		add	r8, r8, ip
 159 007e 4FF0800C 		mov	ip, #128
 160 0082 18F80080 		ldrb	r8, [r8, r0]	@ zero_extendqisi2
 161 0086 4CFA02FC 		asr	ip, ip, r2
 162 008a 18EA0C0F 		tst	r8, ip
 163 008e 32D0     		beq	.L27
 164              		.loc 1 29 0
 165 0090 4FF0020C 		mov	ip, #2
 166 0094 A9F818C0 		strh	ip, [r9, #24]	@ movhi
 167              	.L8:
 168              		.loc 1 33 0
 169 0098 0132     		adds	r2, r2, #1
 170 009a 92B2     		uxth	r2, r2
 171              		.loc 1 34 0
ARM GAS  /tmp/cc7rb0Xf.s 			page 4


 172 009c 072A     		cmp	r2, #7
 173 009e 27D9     		bls	.L9
 174              		.loc 1 37 0
 175 00a0 0130     		adds	r0, r0, #1
 176 00a2 80B2     		uxth	r0, r0
 177              		.loc 1 36 0
 178 00a4 0022     		movs	r2, #0
 179              		.loc 1 38 0
 180 00a6 0228     		cmp	r0, #2
 181              		.loc 1 36 0
 182 00a8 AEF80020 		strh	r2, [lr]	@ movhi
 183              		.loc 1 38 0
 184 00ac 28D9     		bls	.L28
 185              		.loc 1 41 0
 186 00ae 0134     		adds	r4, r4, #1
 187 00b0 A4B2     		uxth	r4, r4
 188              		.loc 1 42 0
 189 00b2 072C     		cmp	r4, #7
 190              		.loc 1 45 0
 191 00b4 88BF     		it	hi
 192 00b6 0220     		movhi	r0, #2
 193              		.loc 1 40 0
 194 00b8 3A80     		strh	r2, [r7]	@ movhi
 195              		.loc 1 41 0
 196 00ba 92BF     		itee	ls
 197 00bc 3480     		strhls	r4, [r6]	@ movhi
 198              		.loc 1 44 0
 199 00be 3280     		strhhi	r2, [r6]	@ movhi
 200              		.loc 1 45 0
 201 00c0 2870     		strbhi	r0, [r5]
 202 00c2 BBE7     		b	.L7
 203              	.L4:
 204              		.loc 1 23 0
 205 00c4 1348     		ldr	r0, .L29+16
 206 00c6 0283     		strh	r2, [r0, #24]	@ movhi
 207 00c8 B8E7     		b	.L7
 208              	.L13:
 209              	.LVL6:
 210              	.LBB144:
 211              	.LBB145:
 212              	.LBB146:
 213              	.LBB147:
 214              	.LBB148:
 215              		.loc 2 493 0
 216 00ca 2023     		movs	r3, #32
 217              		.syntax unified
 218              	@ 493 "./RM18A-ChibiOS18-Core/chibios/os/common/ext/ARM/CMSIS/Core/Include/cmsis_gcc.h" 1
 219 00cc 83F31188 		MSR basepri, r3
 220              	@ 0 "" 2
 221              	.LVL7:
 222              		.thumb
 223              		.syntax unified
 224              	.LBE148:
 225              	.LBE147:
 226              	.LBE146:
 227              	.LBE145:
 228              	.LBB149:
ARM GAS  /tmp/cc7rb0Xf.s 			page 5


 229              	.LBB150:
 230              		.loc 3 280 0
 231 00d0 E368     		ldr	r3, [r4, #12]
 232 00d2 13B1     		cbz	r3, .L14
 233              		.loc 3 281 0
 234 00d4 0B48     		ldr	r0, .L29
 235 00d6 FFF7FEFF 		bl	chVTDoResetI
 236              	.LVL8:
 237              	.L14:
 238              	.LBE150:
 239              	.LBE149:
 240              	.LBB151:
 241              	.LBB152:
 242              	.LBB153:
 243              	.LBB154:
 244              	.LBB155:
 245              		.loc 2 493 0
 246 00da 0023     		movs	r3, #0
 247              		.syntax unified
 248              	@ 493 "./RM18A-ChibiOS18-Core/chibios/os/common/ext/ARM/CMSIS/Core/Include/cmsis_gcc.h" 1
 249 00dc 83F31188 		MSR basepri, r3
 250              	@ 0 "" 2
 251              	.LVL9:
 252              		.thumb
 253              		.syntax unified
 254              	.LBE155:
 255              	.LBE154:
 256              	.LBE153:
 257              	.LBE152:
 258              	.LBE151:
 259              	.LBE144:
 260              		.loc 1 61 0
 261 00e0 0C49     		ldr	r1, .L29+16
 262              		.loc 1 62 0
 263 00e2 0B4A     		ldr	r2, .L29+12
 264              		.loc 1 61 0
 265 00e4 0120     		movs	r0, #1
 266 00e6 0883     		strh	r0, [r1, #24]	@ movhi
 267              		.loc 1 63 0
 268 00e8 2B70     		strb	r3, [r5]
 269              		.loc 1 62 0
 270 00ea 1380     		strh	r3, [r2]	@ movhi
 271              		.loc 1 67 0
 272 00ec BDE8F883 		pop	{r3, r4, r5, r6, r7, r8, r9, pc}
 273              	.L9:
 274              		.loc 1 33 0
 275 00f0 AEF80020 		strh	r2, [lr]	@ movhi
 276 00f4 A2E7     		b	.L7
 277              	.L27:
 278              		.loc 1 31 0
 279 00f6 4FF0020C 		mov	ip, #2
 280 00fa A9F81AC0 		strh	ip, [r9, #26]	@ movhi
 281 00fe CBE7     		b	.L8
 282              	.L28:
 283              		.loc 1 37 0
 284 0100 3880     		strh	r0, [r7]	@ movhi
 285 0102 9BE7     		b	.L7
ARM GAS  /tmp/cc7rb0Xf.s 			page 6


 286              	.L30:
 287              		.align	2
 288              	.L29:
 289 0104 00000000 		.word	.LANCHOR0
 290 0108 00000000 		.word	signal_clk_cb
 291 010c 00000000 		.word	.LANCHOR1
 292 0110 00000000 		.word	.LANCHOR2
 293 0114 00080240 		.word	1073874944
 294 0118 00000000 		.word	.LANCHOR3
 295 011c 00000000 		.word	.LANCHOR4
 296 0120 00000000 		.word	.LANCHOR6
 297 0124 00000000 		.word	.LANCHOR5
 298              		.cfi_endproc
 299              	.LFE327:
 300              		.size	signal_clk_cb, .-signal_clk_cb
 301              		.section	.text.set_one_led,"ax",%progbits
 302              		.align	1
 303              		.p2align 2,,3
 304              		.global	set_one_led
 305              		.syntax unified
 306              		.thumb
 307              		.thumb_func
 308              		.fpu fpv4-sp-d16
 309              		.type	set_one_led, %function
 310              	set_one_led:
 311              	.LFB330:
 312              		.loc 1 87 0
 313              		.cfi_startproc
 314              		@ args = 0, pretend = 0, frame = 0
 315              		@ frame_needed = 0, uses_anonymous_args = 0
 316              		@ link register save eliminated.
 317              	.LVL10:
 318 0000 30B4     		push	{r4, r5}
 319              		.cfi_def_cfa_offset 8
 320              		.cfi_offset 4, -8
 321              		.cfi_offset 5, -4
 322              		.loc 1 88 0
 323 0002 044D     		ldr	r5, .L33
 324 0004 00EB4000 		add	r0, r0, r0, lsl #1
 325              	.LVL11:
 326 0008 2C18     		adds	r4, r5, r0
 327 000a 2954     		strb	r1, [r5, r0]
 328              		.loc 1 89 0
 329 000c 6270     		strb	r2, [r4, #1]
 330              		.loc 1 90 0
 331 000e A370     		strb	r3, [r4, #2]
 332              		.loc 1 91 0
 333 0010 30BC     		pop	{r4, r5}
 334              		.cfi_restore 5
 335              		.cfi_restore 4
 336              		.cfi_def_cfa_offset 0
 337 0012 7047     		bx	lr
 338              	.L34:
 339              		.align	2
 340              	.L33:
 341 0014 00000000 		.word	.LANCHOR6
 342              		.cfi_endproc
ARM GAS  /tmp/cc7rb0Xf.s 			page 7


 343              	.LFE330:
 344              		.size	set_one_led, .-set_one_led
 345              		.section	.text.set_all_led,"ax",%progbits
 346              		.align	1
 347              		.p2align 2,,3
 348              		.global	set_all_led
 349              		.syntax unified
 350              		.thumb
 351              		.thumb_func
 352              		.fpu fpv4-sp-d16
 353              		.type	set_all_led, %function
 354              	set_all_led:
 355              	.LFB331:
 356              		.loc 1 94 0
 357              		.cfi_startproc
 358              		@ args = 0, pretend = 0, frame = 0
 359              		@ frame_needed = 0, uses_anonymous_args = 0
 360              		@ link register save eliminated.
 361              	.LVL12:
 362 0000 244B     		ldr	r3, .L43
 363 0002 00F10C02 		add	r2, r0, #12
 364 0006 9342     		cmp	r3, r2
 365 0008 03D2     		bcs	.L39
 366 000a 03F10C02 		add	r2, r3, #12
 367 000e 9042     		cmp	r0, r2
 368 0010 0ED3     		bcc	.L36
 369              	.L39:
 370              	.LVL13:
 371 0012 70B4     		push	{r4, r5, r6}
 372              		.cfi_def_cfa_offset 12
 373              		.cfi_offset 4, -12
 374              		.cfi_offset 5, -8
 375              		.cfi_offset 6, -4
 376              	.LBB156:
 377              		.loc 1 97 0
 378 0014 0169     		ldr	r1, [r0, #16]	@ unaligned
 379 0016 4668     		ldr	r6, [r0, #4]	@ unaligned
 380 0018 8568     		ldr	r5, [r0, #8]	@ unaligned
 381 001a C468     		ldr	r4, [r0, #12]	@ unaligned
 382 001c 0268     		ldr	r2, [r0]	@ unaligned
 383 001e 1A60     		str	r2, [r3]
 384 0020 C3E90165 		strd	r6, r5, [r3, #4]
 385 0024 C3E90341 		strd	r4, r1, [r3, #12]
 386 0028 4269     		ldr	r2, [r0, #20]	@ unaligned
 387 002a 5A61     		str	r2, [r3, #20]
 388              	.LBE156:
 389              		.loc 1 101 0
 390 002c 70BC     		pop	{r4, r5, r6}
 391              		.cfi_restore 6
 392              		.cfi_restore 5
 393              		.cfi_restore 4
 394              		.cfi_def_cfa_offset 0
 395 002e 7047     		bx	lr
 396              	.LVL14:
 397              	.L36:
 398              	.LBB157:
 399              		.loc 1 97 0
ARM GAS  /tmp/cc7rb0Xf.s 			page 8


 400 0030 0278     		ldrb	r2, [r0]	@ zero_extendqisi2
 401 0032 1A70     		strb	r2, [r3]
 402              		.loc 1 98 0
 403 0034 4278     		ldrb	r2, [r0, #1]	@ zero_extendqisi2
 404 0036 5A70     		strb	r2, [r3, #1]
 405              		.loc 1 99 0
 406 0038 8278     		ldrb	r2, [r0, #2]	@ zero_extendqisi2
 407 003a 9A70     		strb	r2, [r3, #2]
 408              	.LVL15:
 409              		.loc 1 97 0
 410 003c C278     		ldrb	r2, [r0, #3]	@ zero_extendqisi2
 411 003e DA70     		strb	r2, [r3, #3]
 412              		.loc 1 98 0
 413 0040 0279     		ldrb	r2, [r0, #4]	@ zero_extendqisi2
 414 0042 1A71     		strb	r2, [r3, #4]
 415              		.loc 1 99 0
 416 0044 4279     		ldrb	r2, [r0, #5]	@ zero_extendqisi2
 417 0046 5A71     		strb	r2, [r3, #5]
 418              	.LVL16:
 419              		.loc 1 97 0
 420 0048 8279     		ldrb	r2, [r0, #6]	@ zero_extendqisi2
 421 004a 9A71     		strb	r2, [r3, #6]
 422              		.loc 1 98 0
 423 004c C279     		ldrb	r2, [r0, #7]	@ zero_extendqisi2
 424 004e DA71     		strb	r2, [r3, #7]
 425              		.loc 1 99 0
 426 0050 027A     		ldrb	r2, [r0, #8]	@ zero_extendqisi2
 427 0052 1A72     		strb	r2, [r3, #8]
 428              	.LVL17:
 429              		.loc 1 97 0
 430 0054 427A     		ldrb	r2, [r0, #9]	@ zero_extendqisi2
 431 0056 5A72     		strb	r2, [r3, #9]
 432              		.loc 1 98 0
 433 0058 827A     		ldrb	r2, [r0, #10]	@ zero_extendqisi2
 434 005a 9A72     		strb	r2, [r3, #10]
 435              		.loc 1 99 0
 436 005c C27A     		ldrb	r2, [r0, #11]	@ zero_extendqisi2
 437 005e DA72     		strb	r2, [r3, #11]
 438              	.LVL18:
 439              		.loc 1 97 0
 440 0060 027B     		ldrb	r2, [r0, #12]	@ zero_extendqisi2
 441 0062 1A73     		strb	r2, [r3, #12]
 442              		.loc 1 98 0
 443 0064 427B     		ldrb	r2, [r0, #13]	@ zero_extendqisi2
 444 0066 5A73     		strb	r2, [r3, #13]
 445              		.loc 1 99 0
 446 0068 827B     		ldrb	r2, [r0, #14]	@ zero_extendqisi2
 447 006a 9A73     		strb	r2, [r3, #14]
 448              	.LVL19:
 449              		.loc 1 97 0
 450 006c C27B     		ldrb	r2, [r0, #15]	@ zero_extendqisi2
 451 006e DA73     		strb	r2, [r3, #15]
 452              		.loc 1 98 0
 453 0070 027C     		ldrb	r2, [r0, #16]	@ zero_extendqisi2
 454 0072 1A74     		strb	r2, [r3, #16]
 455              		.loc 1 99 0
 456 0074 427C     		ldrb	r2, [r0, #17]	@ zero_extendqisi2
ARM GAS  /tmp/cc7rb0Xf.s 			page 9


 457 0076 5A74     		strb	r2, [r3, #17]
 458              	.LVL20:
 459              		.loc 1 97 0
 460 0078 827C     		ldrb	r2, [r0, #18]	@ zero_extendqisi2
 461 007a 9A74     		strb	r2, [r3, #18]
 462              		.loc 1 98 0
 463 007c C27C     		ldrb	r2, [r0, #19]	@ zero_extendqisi2
 464 007e DA74     		strb	r2, [r3, #19]
 465              		.loc 1 99 0
 466 0080 027D     		ldrb	r2, [r0, #20]	@ zero_extendqisi2
 467 0082 1A75     		strb	r2, [r3, #20]
 468              	.LVL21:
 469              		.loc 1 97 0
 470 0084 427D     		ldrb	r2, [r0, #21]	@ zero_extendqisi2
 471 0086 5A75     		strb	r2, [r3, #21]
 472              		.loc 1 98 0
 473 0088 827D     		ldrb	r2, [r0, #22]	@ zero_extendqisi2
 474 008a 9A75     		strb	r2, [r3, #22]
 475              		.loc 1 99 0
 476 008c C27D     		ldrb	r2, [r0, #23]	@ zero_extendqisi2
 477 008e DA75     		strb	r2, [r3, #23]
 478              	.LVL22:
 479 0090 7047     		bx	lr
 480              	.L44:
 481 0092 00BF     		.align	2
 482              	.L43:
 483 0094 00000000 		.word	.LANCHOR6
 484              	.LBE157:
 485              		.cfi_endproc
 486              	.LFE331:
 487              		.size	set_all_led, .-set_all_led
 488              		.section	.text.rgbled_init,"ax",%progbits
 489              		.align	1
 490              		.p2align 2,,3
 491              		.global	rgbled_init
 492              		.syntax unified
 493              		.thumb
 494              		.thumb_func
 495              		.fpu fpv4-sp-d16
 496              		.type	rgbled_init, %function
 497              	rgbled_init:
 498              	.LFB332:
 499              		.loc 1 104 0
 500              		.cfi_startproc
 501              		@ args = 0, pretend = 0, frame = 0
 502              		@ frame_needed = 0, uses_anonymous_args = 0
 503              		@ link register save eliminated.
 504              	.LVL23:
 505              	.LBB158:
 506              	.LBB159:
 507              		.loc 1 97 0
 508 0000 054A     		ldr	r2, .L46
 509              	.LBE159:
 510              	.LBE158:
 511              	.LBB161:
 512              	.LBB162:
 513              		.loc 3 99 0
ARM GAS  /tmp/cc7rb0Xf.s 			page 10


 514 0002 0649     		ldr	r1, .L46+4
 515 0004 0023     		movs	r3, #0
 516 0006 CB60     		str	r3, [r1, #12]
 517              	.LVL24:
 518              	.LBE162:
 519              	.LBE161:
 520              	.LBB163:
 521              	.LBB160:
 522              		.loc 1 97 0
 523 0008 C2E90033 		strd	r3, r3, [r2]
 524 000c C2E90233 		strd	r3, r3, [r2, #8]
 525 0010 C2E90433 		strd	r3, r3, [r2, #16]
 526              	.LBE160:
 527              	.LBE163:
 528              		.loc 1 115 0
 529 0014 7047     		bx	lr
 530              	.L47:
 531 0016 00BF     		.align	2
 532              	.L46:
 533 0018 00000000 		.word	.LANCHOR6
 534 001c 00000000 		.word	.LANCHOR0
 535              		.cfi_endproc
 536              	.LFE332:
 537              		.size	rgbled_init, .-rgbled_init
 538              		.section	.text.rgbled_control,"ax",%progbits
 539              		.align	1
 540              		.p2align 2,,3
 541              		.syntax unified
 542              		.thumb
 543              		.thumb_func
 544              		.fpu fpv4-sp-d16
 545              		.type	rgbled_control, %function
 546              	rgbled_control:
 547              	.LFB333:
 548              		.loc 1 119 0
 549              		.cfi_startproc
 550              		@ Volatile: function does not return.
 551              		@ args = 0, pretend = 0, frame = 0
 552              		@ frame_needed = 0, uses_anonymous_args = 0
 553              	.LVL25:
 554              	.LBB185:
 555              	.LBB186:
 556              		.file 4 "./RM18A-ChibiOS18-Core/chibios/os/rt/include/chregistry.h"
 557              		.loc 4 136 0
 558 0000 1B4B     		ldr	r3, .L56
 559              	.LBE186:
 560              	.LBE185:
 561              	.LBB189:
 562              	.LBB190:
 563              		.loc 1 71 0
 564 0002 1C4C     		ldr	r4, .L56+4
 565              	.LBE190:
 566              	.LBE189:
 567              	.LBB192:
 568              	.LBB187:
 569              		.loc 4 136 0
 570 0004 9B69     		ldr	r3, [r3, #24]
ARM GAS  /tmp/cc7rb0Xf.s 			page 11


 571 0006 1C4A     		ldr	r2, .L56+8
 572 0008 1C4E     		ldr	r6, .L56+12
 573              	.LBE187:
 574              	.LBE192:
 575              	.LBB193:
 576              	.LBB194:
 577              	.LBB195:
 578              	.LBB196:
 579              	.LBB197:
 580              		.loc 3 328 0
 581 000a DFF87880 		ldr	r8, .L56+20
 582              	.LBE197:
 583              	.LBE196:
 584              	.LBE195:
 585              	.LBE194:
 586              	.LBE193:
 587              		.loc 1 119 0
 588 000e 80B5     		push	{r7, lr}
 589              		.cfi_def_cfa_offset 8
 590              		.cfi_offset 7, -8
 591              		.cfi_offset 14, -4
 592              	.LBB221:
 593              	.LBB188:
 594              		.loc 4 136 0
 595 0010 9A61     		str	r2, [r3, #24]
 596              	.LVL26:
 597              	.LBE188:
 598              	.LBE221:
 599              	.LBB222:
 600              	.LBB191:
 601              		.loc 1 71 0
 602 0012 0122     		movs	r2, #1
 603 0014 2046     		mov	r0, r4
 604              	.LVL27:
 605 0016 1146     		mov	r1, r2
 606 0018 FFF7FEFF 		bl	_pal_lld_setgroupmode
 607              	.LVL28:
 608              		.loc 1 72 0
 609 001c 2046     		mov	r0, r4
 610 001e 0122     		movs	r2, #1
 611 0020 0221     		movs	r1, #2
 612 0022 FFF7FEFF 		bl	_pal_lld_setgroupmode
 613              	.LVL29:
 614              		.loc 1 73 0
 615 0026 0122     		movs	r2, #1
 616              		.loc 1 74 0
 617 0028 0223     		movs	r3, #2
 618              		.loc 1 73 0
 619 002a 6283     		strh	r2, [r4, #26]	@ movhi
 620              		.loc 1 74 0
 621 002c 6383     		strh	r3, [r4, #26]	@ movhi
 622              	.LBE191:
 623              	.LBE222:
 624              		.loc 1 124 0
 625 002e FFF7FEFF 		bl	rgbled_init
 626              	.LVL30:
 627 0032 134C     		ldr	r4, .L56+16
ARM GAS  /tmp/cc7rb0Xf.s 			page 12


 628              	.LBB223:
 629              	.LBB219:
 630              	.LBB217:
 631              	.LBB202:
 632              	.LBB200:
 633              		.loc 3 328 0
 634 0034 3546     		mov	r5, r6
 635              	.LBE200:
 636              	.LBE202:
 637              	.LBB203:
 638              	.LBB204:
 639              	.LBB205:
 640              	.LBB206:
 641              		.loc 2 493 0
 642 0036 2027     		movs	r7, #32
 643 0038 03E0     		b	.L51
 644              	.L49:
 645              	.LBE206:
 646              	.LBE205:
 647              	.LBE204:
 648              	.LBE203:
 649              	.LBE217:
 650              	.LBE219:
 651              	.LBE223:
 652              		.loc 1 129 0 discriminator 1
 653 003a 4FF4FA70 		mov	r0, #500
 654 003e FFF7FEFF 		bl	chThdSleep
 655              	.LVL31:
 656              	.L51:
 657              	.LBB224:
 658              	.LBB220:
 659              		.loc 1 79 0 discriminator 1
 660 0042 2378     		ldrb	r3, [r4]	@ zero_extendqisi2
 661 0044 002B     		cmp	r3, #0
 662 0046 F8D1     		bne	.L49
 663              	.LVL32:
 664              	.LBB218:
 665              	.LBB210:
 666              	.LBB209:
 667              	.LBB208:
 668              	.LBB207:
 669              		.loc 2 493 0
 670              		.syntax unified
 671              	@ 493 "./RM18A-ChibiOS18-Core/chibios/os/common/ext/ARM/CMSIS/Core/Include/cmsis_gcc.h" 1
 672 0048 87F31188 		MSR basepri, r7
 673              	@ 0 "" 2
 674              	.LVL33:
 675              		.thumb
 676              		.syntax unified
 677              	.LBE207:
 678              	.LBE208:
 679              	.LBE209:
 680              	.LBE210:
 681              	.LBB211:
 682              	.LBB201:
 683              	.LBB198:
 684              	.LBB199:
ARM GAS  /tmp/cc7rb0Xf.s 			page 13


 685              		.loc 3 280 0
 686 004c F368     		ldr	r3, [r6, #12]
 687              		.loc 3 281 0
 688 004e 2846     		mov	r0, r5
 689              		.loc 3 280 0
 690 0050 0BB1     		cbz	r3, .L50
 691              		.loc 3 281 0
 692 0052 FFF7FEFF 		bl	chVTDoResetI
 693              	.LVL34:
 694              	.L50:
 695              	.LBE199:
 696              	.LBE198:
 697              		.loc 3 328 0
 698 0056 0023     		movs	r3, #0
 699 0058 4246     		mov	r2, r8
 700 005a 0121     		movs	r1, #1
 701 005c 2846     		mov	r0, r5
 702 005e FFF7FEFF 		bl	chVTDoSetI
 703              	.LVL35:
 704              	.LBE201:
 705              	.LBE211:
 706              	.LBB212:
 707              	.LBB213:
 708              	.LBB214:
 709              	.LBB215:
 710              	.LBB216:
 711              		.loc 2 493 0
 712 0062 0023     		movs	r3, #0
 713              		.syntax unified
 714              	@ 493 "./RM18A-ChibiOS18-Core/chibios/os/common/ext/ARM/CMSIS/Core/Include/cmsis_gcc.h" 1
 715 0064 83F31188 		MSR basepri, r3
 716              	@ 0 "" 2
 717              	.LVL36:
 718              		.thumb
 719              		.syntax unified
 720              	.LBE216:
 721              	.LBE215:
 722              	.LBE214:
 723              	.LBE213:
 724              	.LBE212:
 725              	.LBE218:
 726              		.loc 1 82 0
 727 0068 0123     		movs	r3, #1
 728 006a 2370     		strb	r3, [r4]
 729 006c E5E7     		b	.L49
 730              	.L57:
 731 006e 00BF     		.align	2
 732              	.L56:
 733 0070 00000000 		.word	ch
 734 0074 00080240 		.word	1073874944
 735 0078 00000000 		.word	.LC0
 736 007c 00000000 		.word	.LANCHOR0
 737 0080 00000000 		.word	.LANCHOR1
 738 0084 00000000 		.word	signal_clk_cb
 739              	.LBE220:
 740              	.LBE224:
 741              		.cfi_endproc
ARM GAS  /tmp/cc7rb0Xf.s 			page 14


 742              	.LFE333:
 743              		.size	rgbled_control, .-rgbled_control
 744              		.section	.text.rgbled_start,"ax",%progbits
 745              		.align	1
 746              		.p2align 2,,3
 747              		.global	rgbled_start
 748              		.syntax unified
 749              		.thumb
 750              		.thumb_func
 751              		.fpu fpv4-sp-d16
 752              		.type	rgbled_start, %function
 753              	rgbled_start:
 754              	.LFB334:
 755              		.loc 1 134 0
 756              		.cfi_startproc
 757              		@ args = 0, pretend = 0, frame = 0
 758              		@ frame_needed = 0, uses_anonymous_args = 0
 759 0000 00B5     		push	{lr}
 760              		.cfi_def_cfa_offset 4
 761              		.cfi_offset 14, -4
 762 0002 83B0     		sub	sp, sp, #12
 763              		.cfi_def_cfa_offset 16
 764              		.loc 1 135 0
 765 0004 0023     		movs	r3, #0
 766 0006 0093     		str	r3, [sp]
 767 0008 8122     		movs	r2, #129
 768 000a 044B     		ldr	r3, .L60
 769 000c 0448     		ldr	r0, .L60+4
 770 000e 4FF4AA61 		mov	r1, #1360
 771 0012 FFF7FEFF 		bl	chThdCreateStatic
 772              	.LVL37:
 773              		.loc 1 136 0
 774 0016 03B0     		add	sp, sp, #12
 775              		.cfi_def_cfa_offset 4
 776              		@ sp needed
 777 0018 5DF804FB 		ldr	pc, [sp], #4
 778              	.L61:
 779              		.align	2
 780              	.L60:
 781 001c 00000000 		.word	rgbled_control
 782 0020 00000000 		.word	.LANCHOR7
 783              		.cfi_endproc
 784              	.LFE334:
 785              		.size	rgbled_start, .-rgbled_start
 786              		.global	led_data_buf
 787              		.global	line_state
 788              		.section	.bss.bit_cnt.9982,"aw",%nobits
 789              		.align	1
 790              		.set	.LANCHOR5,. + 0
 791              		.type	bit_cnt.9982, %object
 792              		.size	bit_cnt.9982, 2
 793              	bit_cnt.9982:
 794 0000 0000     		.space	2
 795              		.section	.bss.color_cnt.9981,"aw",%nobits
 796              		.align	1
 797              		.set	.LANCHOR4,. + 0
 798              		.type	color_cnt.9981, %object
ARM GAS  /tmp/cc7rb0Xf.s 			page 15


 799              		.size	color_cnt.9981, 2
 800              	color_cnt.9981:
 801 0000 0000     		.space	2
 802              		.section	.bss.led_cnt.9980,"aw",%nobits
 803              		.align	1
 804              		.set	.LANCHOR3,. + 0
 805              		.type	led_cnt.9980, %object
 806              		.size	led_cnt.9980, 2
 807              	led_cnt.9980:
 808 0000 0000     		.space	2
 809              		.section	.bss.led_data_buf,"aw",%nobits
 810              		.align	2
 811              		.set	.LANCHOR6,. + 0
 812              		.type	led_data_buf, %object
 813              		.size	led_data_buf, 24
 814              	led_data_buf:
 815 0000 00000000 		.space	24
 815      00000000 
 815      00000000 
 815      00000000 
 815      00000000 
 816              		.section	.bss.line_state,"aw",%nobits
 817              		.set	.LANCHOR1,. + 0
 818              		.type	line_state, %object
 819              		.size	line_state, 1
 820              	line_state:
 821 0000 00       		.space	1
 822              		.section	.bss.pulse_cnt.9979,"aw",%nobits
 823              		.align	1
 824              		.set	.LANCHOR2,. + 0
 825              		.type	pulse_cnt.9979, %object
 826              		.size	pulse_cnt.9979, 2
 827              	pulse_cnt.9979:
 828 0000 0000     		.space	2
 829              		.section	.bss.rgbled_control_wa,"aw",%nobits
 830              		.align	3
 831              		.set	.LANCHOR7,. + 0
 832              		.type	rgbled_control_wa, %object
 833              		.size	rgbled_control_wa, 1360
 834              	rgbled_control_wa:
 835 0000 00000000 		.space	1360
 835      00000000 
 835      00000000 
 835      00000000 
 835      00000000 
 836              		.section	.bss.signal_vt,"aw",%nobits
 837              		.align	2
 838              		.set	.LANCHOR0,. + 0
 839              		.type	signal_vt, %object
 840              		.size	signal_vt, 20
 841              	signal_vt:
 842 0000 00000000 		.space	20
 842      00000000 
 842      00000000 
 842      00000000 
 842      00000000 
 843              		.section	.rodata.rgbled_control.str1.4,"aMS",%progbits,1
ARM GAS  /tmp/cc7rb0Xf.s 			page 16


 844              		.align	2
 845              	.LC0:
 846 0000 7267626C 		.ascii	"rgbled_control\000"
 846      65645F63 
 846      6F6E7472 
 846      6F6C00
 847              		.text
 848              	.Letext0:
 849              		.file 5 "/usr/lib/gcc/arm-none-eabi/7.3.1/include/stddef.h"
 850              		.file 6 "/usr/arm-none-eabi/include/machine/_default_types.h"
 851              		.file 7 "/usr/arm-none-eabi/include/sys/_stdint.h"
 852              		.file 8 "./RM18A-ChibiOS18-Core/chibios/os/common/ports/ARMCMx/compilers/GCC/chtypes.h"
 853              		.file 9 "./RM18A-ChibiOS18-Core/chibios/os/rt/include/chsystypes.h"
 854              		.file 10 "./RM18A-ChibiOS18-Core/chibios/os/rt/include/chschd.h"
 855              		.file 11 "./RM18A-ChibiOS18-Core/chibios/os/rt/include/chtime.h"
 856              		.file 12 "./RM18A-ChibiOS18-Core/chibios/os/common/ext/ARM/CMSIS/Core/Include/core_cm4.h"
 857              		.file 13 "./RM18A-ChibiOS18-Core/chibios/os/common/ext/ST/STM32F4xx/system_stm32f4xx.h"
 858              		.file 14 "./RM18A-ChibiOS18-Core/chibios/os/common/ext/ST/STM32F4xx/stm32f427xx.h"
 859              		.file 15 "./RM18A-ChibiOS18-Core/chibios/os/common/ports/ARMCMx/chcore.h"
 860              		.file 16 "./RM18A-ChibiOS18-Core/chibios/os/common/ports/ARMCMx/chcore_v7m.h"
 861              		.file 17 "./RM18A-ChibiOS18-Core/chibios/os/hal/ports/STM32/LLD/TIMv1/stm32_tim.h"
 862              		.file 18 "./RM18A-ChibiOS18-Core/chibios/os/rt/include/chtm.h"
 863              		.file 19 "./RM18A-ChibiOS18-Core/chibios/os/rt/include/chsem.h"
 864              		.file 20 "./RM18A-ChibiOS18-Core/chibios/os/rt/include/chmtx.h"
 865              		.file 21 "./RM18A-ChibiOS18-Core/chibios/os/rt/include/chsys.h"
 866              		.file 22 "./RM18A-ChibiOS18-Core/chibios/os/rt/include/chevents.h"
 867              		.file 23 "./RM18A-ChibiOS18-Core/chibios/os/oslib/include/chmemcore.h"
 868              		.file 24 "./RM18A-ChibiOS18-Core/chibios/os/oslib/include/chmempools.h"
 869              		.file 25 "./RM18A-ChibiOS18-Core/chibios/os/oslib/include/chfactory.h"
 870              		.file 26 "./RM18A-ChibiOS18-Core/chibios/os/hal/ports/STM32/LLD/DMAv2/stm32_dma.h"
 871              		.file 27 "./RM18A-ChibiOS18-Core/chibios/os/hal/include/hal_queues.h"
 872              		.file 28 "./RM18A-ChibiOS18-Core/chibios/os/hal/include/hal_pal.h"
 873              		.file 29 "./RM18A-ChibiOS18-Core/chibios/os/hal/ports/STM32/LLD/GPIOv2/stm32_gpio.h"
 874              		.file 30 "./RM18A-ChibiOS18-Core/chibios/os/hal/ports/STM32/LLD/GPIOv2/hal_pal_lld.h"
 875              		.file 31 "./RM18A-ChibiOS18-Core/chibios/os/hal/include/hal_adc.h"
 876              		.file 32 "./RM18A-ChibiOS18-Core/chibios/os/hal/ports/STM32/LLD/ADCv2/hal_adc_lld.h"
 877              		.file 33 "./RM18A-ChibiOS18-Core/chibios/os/hal/include/hal_can.h"
 878              		.file 34 "./RM18A-ChibiOS18-Core/chibios/os/hal/ports/STM32/LLD/CANv1/hal_can_lld.h"
 879              		.file 35 "./RM18A-ChibiOS18-Core/chibios/os/hal/include/hal_i2c.h"
 880              		.file 36 "./RM18A-ChibiOS18-Core/chibios/os/hal/ports/STM32/LLD/I2Cv1/hal_i2c_lld.h"
 881              		.file 37 "./RM18A-ChibiOS18-Core/chibios/os/hal/include/hal_pwm.h"
 882              		.file 38 "./RM18A-ChibiOS18-Core/chibios/os/hal/ports/STM32/LLD/TIMv1/hal_pwm_lld.h"
 883              		.file 39 "./RM18A-ChibiOS18-Core/chibios/os/hal/include/hal_serial.h"
 884              		.file 40 "./RM18A-ChibiOS18-Core/chibios/os/hal/ports/STM32/LLD/USARTv1/hal_serial_lld.h"
 885              		.file 41 "./RM18A-ChibiOS18-Core/chibios/os/hal/include/hal_spi.h"
 886              		.file 42 "./RM18A-ChibiOS18-Core/chibios/os/hal/ports/STM32/LLD/SPIv1/hal_spi_lld.h"
 887              		.file 43 "./RM18A-ChibiOS18-Core/chibios/os/hal/include/hal_uart.h"
 888              		.file 44 "./RM18A-ChibiOS18-Core/chibios/os/hal/ports/STM32/LLD/USARTv1/hal_uart_lld.h"
 889              		.file 45 "./RM18A-ChibiOS18-Core/chibios/os/hal/include/hal_usb.h"
 890              		.file 46 "./RM18A-ChibiOS18-Core/chibios/os/hal/ports/STM32/LLD/OTGv1/hal_usb_lld.h"
 891              		.file 47 "./RM18A-ChibiOS18-Core/chibios/os/hal/ports/STM32/LLD/OTGv1/stm32_otg.h"
 892              		.file 48 "./RM18A-ChibiOS18-Core/src/ext_hw/rgbled.h"
 893              		.file 49 "./RM18A-ChibiOS18-Core/chibios/os/rt/include/chthreads.h"