ARM GAS  /tmp/ccv1PJEO.s 			page 1


   1              		.cpu cortex-m4
   2              		.eabi_attribute 27, 1
   3              		.eabi_attribute 28, 1
   4              		.eabi_attribute 20, 1
   5              		.eabi_attribute 21, 1
   6              		.eabi_attribute 23, 3
   7              		.eabi_attribute 24, 1
   8              		.eabi_attribute 25, 1
   9              		.eabi_attribute 26, 1
  10              		.eabi_attribute 30, 2
  11              		.eabi_attribute 34, 1
  12              		.eabi_attribute 18, 4
  13              		.file	"ros_comm.c"
  14              		.text
  15              	.Ltext0:
  16              		.cfi_sections	.debug_frame
  17              		.section	.text.idle_err_cb,"ax",%progbits
  18              		.align	1
  19              		.p2align 2,,3
  20              		.syntax unified
  21              		.thumb
  22              		.thumb_func
  23              		.fpu fpv4-sp-d16
  24              		.type	idle_err_cb, %function
  25              	idle_err_cb:
  26              	.LFB327:
  27              		.file 1 "./RM18A-ChibiOS18-Core/src/comm/ros_comm.c"
  28              		.loc 1 28 0
  29              		.cfi_startproc
  30              		@ args = 0, pretend = 0, frame = 0
  31              		@ frame_needed = 0, uses_anonymous_args = 0
  32              	.LVL0:
  33 0000 08B5     		push	{r3, lr}
  34              		.cfi_def_cfa_offset 8
  35              		.cfi_offset 3, -8
  36              		.cfi_offset 14, -4
  37              	.LBB169:
  38              	.LBB170:
  39              	.LBB171:
  40              	.LBB172:
  41              	.LBB173:
  42              		.file 2 "./RM18A-ChibiOS18-Core/chibios/os/common/ext/ARM/CMSIS/Core/Include/cmsis_gcc.h"
  43              		.loc 2 493 0
  44 0002 2023     		movs	r3, #32
  45              		.syntax unified
  46              	@ 493 "./RM18A-ChibiOS18-Core/chibios/os/common/ext/ARM/CMSIS/Core/Include/cmsis_gcc.h" 1
  47 0004 83F31188 		MSR basepri, r3
  48              	@ 0 "" 2
  49              	.LVL1:
  50              		.thumb
  51              		.syntax unified
  52              	.LBE173:
  53              	.LBE172:
  54              	.LBE171:
  55              	.LBE170:
  56              	.LBE169:
  57              		.loc 1 30 0
ARM GAS  /tmp/ccv1PJEO.s 			page 2


  58 0008 0029     		cmp	r1, #0
  59 000a 14BF     		ite	ne
  60 000c 6FF00101 		mvnne	r1, #1
  61              	.LVL2:
  62 0010 0021     		moveq	r1, #0
  63 0012 0348     		ldr	r0, .L6
  64              	.LVL3:
  65 0014 FFF7FEFF 		bl	chThdResumeI
  66              	.LVL4:
  67              	.LBB174:
  68              	.LBB175:
  69              	.LBB176:
  70              	.LBB177:
  71              	.LBB178:
  72              		.loc 2 493 0
  73 0018 0023     		movs	r3, #0
  74              		.syntax unified
  75              	@ 493 "./RM18A-ChibiOS18-Core/chibios/os/common/ext/ARM/CMSIS/Core/Include/cmsis_gcc.h" 1
  76 001a 83F31188 		MSR basepri, r3
  77              	@ 0 "" 2
  78              	.LVL5:
  79              		.thumb
  80              		.syntax unified
  81              	.LBE178:
  82              	.LBE177:
  83              	.LBE176:
  84              	.LBE175:
  85              	.LBE174:
  86              		.loc 1 32 0
  87 001e 08BD     		pop	{r3, pc}
  88              	.L7:
  89              		.align	2
  90              	.L6:
  91 0020 00000000 		.word	.LANCHOR0
  92              		.cfi_endproc
  93              	.LFE327:
  94              		.size	idle_err_cb, .-idle_err_cb
  95              		.section	.text.uart_host_rx,"ax",%progbits
  96              		.align	1
  97              		.p2align 2,,3
  98              		.syntax unified
  99              		.thumb
 100              		.thumb_func
 101              		.fpu fpv4-sp-d16
 102              		.type	uart_host_rx, %function
 103              	uart_host_rx:
 104              	.LFB342:
 105              		.loc 1 303 0
 106              		.cfi_startproc
 107              		@ args = 0, pretend = 0, frame = 16
 108              		@ frame_needed = 1, uses_anonymous_args = 0
 109              	.LVL6:
 110 0000 2DE9F04F 		push	{r4, r5, r6, r7, r8, r9, r10, fp, lr}
 111              		.cfi_def_cfa_offset 36
 112              		.cfi_offset 4, -36
 113              		.cfi_offset 5, -32
 114              		.cfi_offset 6, -28
ARM GAS  /tmp/ccv1PJEO.s 			page 3


 115              		.cfi_offset 7, -24
 116              		.cfi_offset 8, -20
 117              		.cfi_offset 9, -16
 118              		.cfi_offset 10, -12
 119              		.cfi_offset 11, -8
 120              		.cfi_offset 14, -4
 121 0004 2DED028B 		vpush.64	{d8}
 122              		.cfi_def_cfa_offset 44
 123              		.cfi_offset 80, -44
 124              		.cfi_offset 81, -40
 125              	.LBB263:
 126              	.LBB264:
 127              		.file 3 "./RM18A-ChibiOS18-Core/chibios/os/rt/include/chregistry.h"
 128              		.loc 3 136 0
 129 0008 C24E     		ldr	r6, .L110
 130 000a C34A     		ldr	r2, .L110+4
 131              	.LBE264:
 132              	.LBE263:
 133              	.LBB266:
 134              	.LBB267:
 135              	.LBB268:
 136              	.LBB269:
 137              		.loc 1 198 0
 138 000c 9FEDC38A 		vldr.32	s16, .L110+8
 139              	.LBE269:
 140              	.LBE268:
 141              	.LBE267:
 142              	.LBE266:
 143              		.loc 1 303 0
 144 0010 85B0     		sub	sp, sp, #20
 145              		.cfi_def_cfa_offset 64
 146              	.LBB339:
 147              	.LBB265:
 148              		.loc 3 136 0
 149 0012 B369     		ldr	r3, [r6, #24]
 150 0014 9A61     		str	r2, [r3, #24]
 151              	.LVL7:
 152              	.LBE265:
 153              	.LBE339:
 154              		.loc 1 315 0
 155 0016 93F82130 		ldrb	r3, [r3, #33]	@ zero_extendqisi2
 156 001a 13F00405 		ands	r5, r3, #4
 157              		.loc 1 303 0
 158 001e 00AF     		add	r7, sp, #0
 159              		.cfi_def_cfa_register 7
 160              		.loc 1 314 0
 161 0020 4FF00004 		mov	r4, #0
 162              	.LVL8:
 163              		.loc 1 315 0
 164 0024 40F0B480 		bne	.L103
 165              	.LVL9:
 166              	.L47:
 167              		.loc 1 317 0
 168 0028 BD4A     		ldr	r2, .L110+12
 169 002a BE48     		ldr	r0, .L110+16
 170 002c 4021     		movs	r1, #64
 171 002e FFF7FEFF 		bl	uartStartReceive
ARM GAS  /tmp/ccv1PJEO.s 			page 4


 172              	.LVL10:
 173              	.LBB340:
 174              	.LBB341:
 175              	.LBB342:
 176              	.LBB343:
 177              		.loc 2 493 0
 178 0032 2023     		movs	r3, #32
 179              		.syntax unified
 180              	@ 493 "./RM18A-ChibiOS18-Core/chibios/os/common/ext/ARM/CMSIS/Core/Include/cmsis_gcc.h" 1
 181 0034 83F31188 		MSR basepri, r3
 182              	@ 0 "" 2
 183              	.LVL11:
 184              		.thumb
 185              		.syntax unified
 186              	.LBE343:
 187              	.LBE342:
 188              	.LBE341:
 189              	.LBE340:
 190              		.loc 1 319 0
 191 0038 4FF4FA61 		mov	r1, #2000
 192 003c BA48     		ldr	r0, .L110+20
 193 003e FFF7FEFF 		bl	chThdSuspendTimeoutS
 194              	.LVL12:
 195 0042 8046     		mov	r8, r0
 196              	.LVL13:
 197              	.LBB344:
 198              	.LBB345:
 199              	.LBB346:
 200              	.LBB347:
 201              	.LBB348:
 202              		.loc 2 493 0
 203              		.syntax unified
 204              	@ 493 "./RM18A-ChibiOS18-Core/chibios/os/common/ext/ARM/CMSIS/Core/Include/cmsis_gcc.h" 1
 205 0044 85F31188 		MSR basepri, r5
 206              	@ 0 "" 2
 207              	.LVL14:
 208              		.thumb
 209              		.syntax unified
 210              	.LBE348:
 211              	.LBE347:
 212              	.LBE346:
 213              	.LBE345:
 214              	.LBE344:
 215              		.loc 1 322 0
 216 0048 B648     		ldr	r0, .L110+16
 217              	.LVL15:
 218              		.loc 1 323 0
 219 004a B84D     		ldr	r5, .L110+24
 220              		.loc 1 322 0
 221 004c FFF7FEFF 		bl	uartStopReceive
 222              	.LVL16:
 223              		.loc 1 323 0
 224 0050 2B78     		ldrb	r3, [r5]	@ zero_extendqisi2
 225              		.loc 1 322 0
 226 0052 C0F14000 		rsb	r0, r0, #64
 227              	.LVL17:
 228              		.loc 1 323 0
ARM GAS  /tmp/ccv1PJEO.s 			page 5


 229 0056 002B     		cmp	r3, #0
 230 0058 00F0B580 		beq	.L10
 231              		.loc 1 325 0
 232 005c B8F1000F 		cmp	r8, #0
 233 0060 40F09C80 		bne	.L11
 234              	.LVL18:
 235              	.LBB349:
 236              	.LBB330:
 237              	.LBB331:
 238              		.loc 1 139 0
 239 0064 C0B2     		uxtb	r0, r0
 240              	.LVL19:
 241 0066 0228     		cmp	r0, #2
 242 0068 38D9     		bls	.L101
 243              	.LVL20:
 244              	.LBB332:
 245              	.LBB333:
 246              		.loc 1 141 0
 247 006a AD4A     		ldr	r2, .L110+12
 248 006c 92F800C0 		ldrb	ip, [r2]	@ zero_extendqisi2
 249              		.loc 1 140 0
 250 0070 BCF1AA0F 		cmp	ip, #170
 251 0074 32D1     		bne	.L101
 252              		.loc 1 145 0
 253 0076 AA4A     		ldr	r2, .L110+12
 254 0078 5178     		ldrb	r1, [r2, #1]	@ zero_extendqisi2
 255              	.LVL21:
 256              	.LBE333:
 257              	.LBE332:
 258              	.LBE331:
 259              	.LBE330:
 260              		.loc 1 328 0
 261 007a FF29     		cmp	r1, #255
 262 007c 2ED0     		beq	.L101
 263              	.LVL22:
 264              	.LBB334:
 265              	.LBB335:
 266              		.loc 1 129 0
 267 007e 0138     		subs	r0, r0, #1
 268 0080 0028     		cmp	r0, #0
 269 0082 13DD     		ble	.L13
 270              		.loc 1 128 0
 271 0084 4246     		mov	r2, r8
 272 0086 9E46     		mov	lr, r3
 273              	.LVL23:
 274              	.L14:
 275              		.loc 1 129 0
 276 0088 0132     		adds	r2, r2, #1
 277              	.LVL24:
 278 008a D2B2     		uxtb	r2, r2
 279              	.LVL25:
 280 008c A44B     		ldr	r3, .L110+12
 281 008e E044     		add	r8, r8, ip
 282              	.LVL26:
 283 0090 8242     		cmp	r2, r0
 284 0092 5FFA88F8 		uxtb	r8, r8
 285              	.LVL27:
ARM GAS  /tmp/ccv1PJEO.s 			page 6


 286 0096 13F802C0 		ldrb	ip, [r3, r2]	@ zero_extendqisi2
 287 009a F5DB     		blt	.L14
 288              		.loc 1 131 0
 289 009c A8F15B08 		sub	r8, r8, #91
 290              	.LVL28:
 291              	.LBE335:
 292              	.LBE334:
 293              		.loc 1 330 0
 294 00a0 5FFA88F8 		uxtb	r8, r8
 295              	.LVL29:
 296 00a4 E045     		cmp	r8, ip
 297 00a6 7346     		mov	r3, lr
 298              	.LVL30:
 299 00a8 00F09D81 		beq	.L104
 300              	.L13:
 301              		.loc 1 362 0
 302 00ac DFF89CE2 		ldr	lr, .L110+56
 303              	.LBE349:
 304              		.loc 1 394 0
 305 00b0 9F4B     		ldr	r3, .L110+28
 306              	.LBB350:
 307              		.loc 1 362 0
 308 00b2 9EF80090 		ldrb	r9, [lr]	@ zero_extendqisi2
 309              	.LBE350:
 310              		.loc 1 394 0
 311 00b6 1A78     		ldrb	r2, [r3]	@ zero_extendqisi2
 312 00b8 9E48     		ldr	r0, .L110+32
 313 00ba DFF894C2 		ldr	ip, .L110+60
 314              	.LBB351:
 315              		.loc 1 362 0
 316 00be 09F10109 		add	r9, r9, #1
 317 00c2 5FFA89F9 		uxtb	r9, r9
 318 00c6 8EF80090 		strb	r9, [lr]
 319              	.LBE351:
 320              		.loc 1 394 0
 321 00ca 002A     		cmp	r2, #0
 322 00cc 00F09B81 		beq	.L27
 323 00d0 0278     		ldrb	r2, [r0]	@ zero_extendqisi2
 324 00d2 9CF80010 		ldrb	r1, [ip]	@ zero_extendqisi2
 325 00d6 DFF87C82 		ldr	r8, .L110+64
 326 00da 14E0     		b	.L28
 327              	.L101:
 328 00dc DFF87482 		ldr	r8, .L110+64
 329              	.L12:
 330 00e0 DFF84CA2 		ldr	r10, .L110+28
 331 00e4 9348     		ldr	r0, .L110+32
 332 00e6 DFF868C2 		ldr	ip, .L110+60
 333 00ea 9AF800E0 		ldrb	lr, [r10]	@ zero_extendqisi2
 334 00ee 0278     		ldrb	r2, [r0]	@ zero_extendqisi2
 335 00f0 9CF80010 		ldrb	r1, [ip]	@ zero_extendqisi2
 336 00f4 BEF1000F 		cmp	lr, #0
 337 00f8 00F09E81 		beq	.L98
 338 00fc DFF84CE2 		ldr	lr, .L110+56
 339 0100 9EF80090 		ldrb	r9, [lr]	@ zero_extendqisi2
 340              	.LVL31:
 341              	.L38:
 342              		.loc 1 401 0
ARM GAS  /tmp/ccv1PJEO.s 			page 7


 343 0104 43B1     		cbz	r3, .L41
 344              	.L28:
 345              		.loc 1 401 0 is_stmt 0 discriminator 1
 346 0106 8C4B     		ldr	r3, .L110+36
 347 0108 1B88     		ldrh	r3, [r3]
 348 010a 2BB1     		cbz	r3, .L41
 349              		.loc 1 404 0 is_stmt 1
 350 010c DFF848A2 		ldr	r10, .L110+68
 351              		.loc 1 403 0
 352 0110 0023     		movs	r3, #0
 353              		.loc 1 404 0
 354 0112 8AF80030 		strb	r3, [r10]
 355              		.loc 1 403 0
 356 0116 2B70     		strb	r3, [r5]
 357              	.L41:
 358              		.loc 1 408 0
 359 0118 B9F1050F 		cmp	r9, #5
 360 011c 00F23681 		bhi	.L105
 361              	.L42:
 362              		.loc 1 413 0
 363 0120 98F80030 		ldrb	r3, [r8]	@ zero_extendqisi2
 364 0124 052B     		cmp	r3, #5
 365 0126 00F21B81 		bhi	.L106
 366              	.L43:
 367              		.loc 1 418 0
 368 012a 282A     		cmp	r2, #40
 369 012c 04D8     		bhi	.L44
 370              		.loc 1 418 0 is_stmt 0 discriminator 1
 371 012e 804B     		ldr	r3, .L110+28
 372 0130 1B78     		ldrb	r3, [r3]	@ zero_extendqisi2
 373 0132 9BB1     		cbz	r3, .L45
 374              		.loc 1 418 0 discriminator 2
 375 0134 052A     		cmp	r2, #5
 376 0136 11D9     		bls	.L45
 377              	.L44:
 378              		.loc 1 421 0 is_stmt 1
 379 0138 DFF8FC91 		ldr	r9, .L110+36
 380              	.LBB352:
 381              	.LBB353:
 382              		.loc 1 51 0
 383 013c 7F4A     		ldr	r2, .L110+40
 384              	.LBE353:
 385              	.LBE352:
 386              		.loc 1 421 0
 387 013e B9F80030 		ldrh	r3, [r9]
 388              	.LBB356:
 389              	.LBB354:
 390              		.loc 1 52 0
 391 0142 7F4D     		ldr	r5, .L110+44
 392              	.LBE354:
 393              	.LBE356:
 394              		.loc 1 421 0
 395 0144 43F48073 		orr	r3, r3, #256
 396 0148 A9F80030 		strh	r3, [r9]	@ movhi
 397              	.LBB357:
 398              	.LBB355:
 399              		.loc 1 51 0
ARM GAS  /tmp/ccv1PJEO.s 			page 8


 400 014c 0023     		movs	r3, #0
 401 014e C2E90133 		strd	r3, r3, [r2, #4]
 402 0152 C2E90333 		strd	r3, r3, [r2, #12]
 403              		.loc 1 52 0
 404 0156 2B76     		strb	r3, [r5, #24]
 405              		.loc 1 51 0
 406 0158 1360     		str	r3, [r2]
 407              		.loc 1 53 0
 408 015a 6B76     		strb	r3, [r5, #25]
 409              	.L45:
 410              	.LBE355:
 411              	.LBE357:
 412              		.loc 1 423 0
 413 015c 0529     		cmp	r1, #5
 414 015e 00F2C980 		bhi	.L107
 415              	.L46:
 416              		.loc 1 428 0
 417 0162 784B     		ldr	r3, .L110+48
 418 0164 A3FB0423 		umull	r2, r3, r3, r4
 419 0168 1B09     		lsrs	r3, r3, #4
 420 016a 3222     		movs	r2, #50
 421 016c 02FB1343 		mls	r3, r2, r3, r4
 422 0170 0134     		adds	r4, r4, #1
 423              	.LVL32:
 424 0172 33B9     		cbnz	r3, .L33
 425              		.loc 1 430 0
 426 0174 0370     		strb	r3, [r0]
 427              		.loc 1 431 0
 428 0176 8CF80030 		strb	r3, [ip]
 429              		.loc 1 432 0
 430 017a 8EF80030 		strb	r3, [lr]
 431              		.loc 1 433 0
 432 017e 88F80030 		strb	r3, [r8]
 433              	.L33:
 434 0182 B369     		ldr	r3, [r6, #24]
 435              		.loc 1 315 0
 436 0184 93F82130 		ldrb	r3, [r3, #33]	@ zero_extendqisi2
 437 0188 13F00405 		ands	r5, r3, #4
 438 018c 3FF44CAF 		beq	.L47
 439              	.L103:
 440              		.loc 1 438 0
 441 0190 1437     		adds	r7, r7, #20
 442              		.cfi_remember_state
 443              		.cfi_def_cfa_offset 44
 444 0192 BD46     		mov	sp, r7
 445              		.cfi_def_cfa_register 13
 446              		@ sp needed
 447 0194 BDEC028B 		vldm	sp!, {d8}
 448              		.cfi_restore 80
 449              		.cfi_restore 81
 450              		.cfi_def_cfa_offset 36
 451 0198 BDE8F08F 		pop	{r4, r5, r6, r7, r8, r9, r10, fp, pc}
 452              	.LVL33:
 453              	.L11:
 454              		.cfi_restore_state
 455 019c 6548     		ldr	r0, .L110+32
 456              	.LVL34:
ARM GAS  /tmp/ccv1PJEO.s 			page 9


 457 019e DFF8B0C1 		ldr	ip, .L110+60
 458 01a2 0278     		ldrb	r2, [r0]	@ zero_extendqisi2
 459 01a4 9CF80010 		ldrb	r1, [ip]	@ zero_extendqisi2
 460              		.loc 1 396 0
 461 01a8 B8F1FF3F 		cmp	r8, #-1
 462 01ac 40F00481 		bne	.L39
 463              		.loc 1 397 0
 464 01b0 0132     		adds	r2, r2, #1
 465 01b2 DFF898E1 		ldr	lr, .L110+56
 466 01b6 2B78     		ldrb	r3, [r5]	@ zero_extendqisi2
 467 01b8 9EF80090 		ldrb	r9, [lr]	@ zero_extendqisi2
 468 01bc DFF89481 		ldr	r8, .L110+64
 469              	.LVL35:
 470 01c0 D2B2     		uxtb	r2, r2
 471 01c2 0270     		strb	r2, [r0]
 472 01c4 9EE7     		b	.L38
 473              	.LVL36:
 474              	.L10:
 475              		.loc 1 368 0
 476 01c6 B8F1000F 		cmp	r8, #0
 477 01ca E7D1     		bne	.L11
 478              	.LVL37:
 479              	.LBB358:
 480              	.LBB359:
 481              		.loc 1 139 0
 482 01cc C0B2     		uxtb	r0, r0
 483              	.LVL38:
 484 01ce 0228     		cmp	r0, #2
 485 01d0 78D9     		bls	.L102
 486              	.LVL39:
 487              	.LBB360:
 488              	.LBB361:
 489              		.loc 1 141 0
 490 01d2 534B     		ldr	r3, .L110+12
 491 01d4 1A78     		ldrb	r2, [r3]	@ zero_extendqisi2
 492              		.loc 1 140 0
 493 01d6 AA2A     		cmp	r2, #170
 494 01d8 74D1     		bne	.L102
 495              	.LVL40:
 496              	.LBE361:
 497              	.LBE360:
 498              	.LBE359:
 499              	.LBE358:
 500              		.loc 1 369 0
 501 01da 514B     		ldr	r3, .L110+12
 502 01dc 5B78     		ldrb	r3, [r3, #1]	@ zero_extendqisi2
 503 01de 012B     		cmp	r3, #1
 504 01e0 70D1     		bne	.L102
 505              	.LVL41:
 506              	.LBB362:
 507              	.LBB363:
 508              		.loc 1 129 0
 509 01e2 0138     		subs	r0, r0, #1
 510 01e4 0028     		cmp	r0, #0
 511 01e6 0FDD     		ble	.L29
 512              		.loc 1 128 0
 513 01e8 4346     		mov	r3, r8
ARM GAS  /tmp/ccv1PJEO.s 			page 10


 514              	.LVL42:
 515              	.L30:
 516              		.loc 1 129 0
 517 01ea 0133     		adds	r3, r3, #1
 518              	.LVL43:
 519 01ec DBB2     		uxtb	r3, r3
 520              	.LVL44:
 521 01ee 9044     		add	r8, r8, r2
 522              	.LVL45:
 523 01f0 4B4A     		ldr	r2, .L110+12
 524 01f2 9842     		cmp	r0, r3
 525 01f4 5FFA88F8 		uxtb	r8, r8
 526              	.LVL46:
 527 01f8 D25C     		ldrb	r2, [r2, r3]	@ zero_extendqisi2
 528 01fa F6DC     		bgt	.L30
 529              	.LVL47:
 530              		.loc 1 131 0
 531 01fc A8F15B03 		sub	r3, r8, #91
 532              	.LBE363:
 533              	.LBE362:
 534              		.loc 1 373 0
 535 0200 DBB2     		uxtb	r3, r3
 536 0202 9342     		cmp	r3, r2
 537 0204 00F0AB82 		beq	.L108
 538              	.L29:
 539              		.loc 1 380 0
 540 0208 DFF840E1 		ldr	lr, .L110+56
 541              		.loc 1 394 0
 542 020c DFF820A1 		ldr	r10, .L110+28
 543              		.loc 1 380 0
 544 0210 9EF80080 		ldrb	r8, [lr]	@ zero_extendqisi2
 545 0214 4748     		ldr	r0, .L110+32
 546 0216 DFF838C1 		ldr	ip, .L110+60
 547              		.loc 1 394 0
 548 021a 9AF80030 		ldrb	r3, [r10]	@ zero_extendqisi2
 549 021e 0278     		ldrb	r2, [r0]	@ zero_extendqisi2
 550 0220 9CF80010 		ldrb	r1, [ip]	@ zero_extendqisi2
 551              		.loc 1 380 0
 552 0224 08F10108 		add	r8, r8, #1
 553 0228 8EF80080 		strb	r8, [lr]
 554 022c DFF82481 		ldr	r8, .L110+64
 555              		.loc 1 394 0
 556 0230 002B     		cmp	r3, #0
 557 0232 40F0D480 		bne	.L50
 558              	.LVL48:
 559              	.L37:
 560 0236 9EF80090 		ldrb	r9, [lr]	@ zero_extendqisi2
 561 023a 56E0     		b	.L49
 562              	.LVL49:
 563              	.L31:
 564              	.LBB364:
 565              	.LBB365:
 566              	.LBB366:
 567              		.loc 1 85 0
 568 023c 082B     		cmp	r3, #8
 569 023e 40F0A382 		bne	.L109
 570              		.loc 1 91 0
ARM GAS  /tmp/ccv1PJEO.s 			page 11


 571 0242 374B     		ldr	r3, .L110+12
 572 0244 B3F90630 		ldrsh	r3, [r3, #6]
 573              	.LVL50:
 574              		.loc 1 92 0
 575 0248 002B     		cmp	r3, #0
 576 024a 00F0B382 		beq	.L34
 577              		.loc 1 93 0
 578 024e 3D4A     		ldr	r2, .L110+48
 579 0250 3D49     		ldr	r1, .L110+52
 580 0252 82FB0320 		smull	r2, r0, r2, r3
 581 0256 0A68     		ldr	r2, [r1]
 582 0258 DB17     		asrs	r3, r3, #31
 583              	.LVL51:
 584 025a C3EBA013 		rsb	r3, r3, r0, asr #6
 585 025e 02FA83F3 		sxtah	r3, r2, r3
 586              	.L35:
 587              		.loc 1 100 0
 588 0262 40F2AA22 		movw	r2, #682
 589              	.LBB367:
 590              	.LBB368:
 591              	.LBB369:
 592              	.LBB370:
 593              		.file 4 "./RM18A-ChibiOS18-Core/chibios/os/hal/ports/STM32/LLD/TIMv1/hal_st_lld.h"
 594              		.loc 4 147 0
 595 0266 4FF08040 		mov	r0, #1073741824
 596 026a 0B60     		str	r3, [r1]
 597              	.LVL52:
 598              	.LBE370:
 599              	.LBE369:
 600              	.LBE368:
 601              	.LBE367:
 602              		.loc 1 100 0
 603 026c BA80     		strh	r2, [r7, #4]	@ movhi
 604              	.LVL53:
 605              	.LBB374:
 606              	.LBB373:
 607              	.LBB372:
 608              	.LBB371:
 609              		.loc 4 147 0
 610 026e 406A     		ldr	r0, [r0, #36]
 611              	.LBE371:
 612              	.LBE372:
 613              	.LBE373:
 614              	.LBE374:
 615              	.LBB375:
 616              	.LBB376:
 617              		.loc 1 120 0
 618 0270 97F80BE0 		ldrb	lr, [r7, #11]	@ zero_extendqisi2
 619 0274 BA7A     		ldrb	r2, [r7, #10]	@ zero_extendqisi2
 620              	.LBE376:
 621              	.LBE375:
 622              		.loc 1 105 0
 623 0276 DFF8E4C0 		ldr	ip, .L110+72
 624              		.loc 1 106 0
 625 027a 397B     		ldrb	r1, [r7, #12]	@ zero_extendqisi2
 626              	.LBB381:
 627              	.LBB377:
ARM GAS  /tmp/ccv1PJEO.s 			page 12


 628              		.loc 1 120 0
 629 027c 7244     		add	r2, r2, lr
 630              	.LBE377:
 631              	.LBE381:
 632              		.loc 1 105 0
 633 027e ACFB00C0 		umull	ip, r0, ip, r0
 634              		.loc 1 106 0
 635 0282 4FF0040C 		mov	ip, #4
 636 0286 6CF34701 		bfi	r1, ip, #1, #7
 637              	.LBB382:
 638              	.LBB378:
 639              		.loc 1 120 0
 640 028a 5132     		adds	r2, r2, #81
 641              	.LBE378:
 642              	.LBE382:
 643              		.loc 1 105 0
 644 028c 03EBD003 		add	r3, r3, r0, lsr #3
 645              	.LBB383:
 646              	.LBB379:
 647              		.loc 1 120 0
 648 0290 52FA81F2 		uxtab	r2, r2, r1
 649 0294 C3F30720 		ubfx	r0, r3, #8, #8
 650 0298 1A44     		add	r2, r2, r3
 651 029a 0244     		add	r2, r2, r0
 652 029c C3F30740 		ubfx	r0, r3, #16, #8
 653 02a0 0244     		add	r2, r2, r0
 654 02a2 02EB1362 		add	r2, r2, r3, lsr #24
 655              	.LBE379:
 656              	.LBE383:
 657              		.loc 1 110 0
 658 02a6 1F48     		ldr	r0, .L110+16
 659              		.loc 1 105 0
 660 02a8 C7F80630 		str	r3, [r7, #6]	@ unaligned
 661              		.loc 1 106 0
 662 02ac 3973     		strb	r1, [r7, #12]
 663              	.LVL54:
 664              	.LBB384:
 665              	.LBB380:
 666              		.loc 1 122 0
 667 02ae 7A73     		strb	r2, [r7, #13]
 668              	.LVL55:
 669              	.LBE380:
 670              	.LBE384:
 671              		.loc 1 110 0
 672 02b0 FFF7FEFF 		bl	uartStopSend
 673              	.LVL56:
 674              		.loc 1 111 0
 675 02b4 3A1D     		adds	r2, r7, #4
 676              	.LVL57:
 677 02b6 0A21     		movs	r1, #10
 678 02b8 1A48     		ldr	r0, .L110+16
 679 02ba FFF7FEFF 		bl	uartStartSend
 680              	.LVL58:
 681              	.LBE366:
 682              	.LBE365:
 683              		.loc 1 377 0
 684 02be 0023     		movs	r3, #0
ARM GAS  /tmp/ccv1PJEO.s 			page 13


 685              	.LBB399:
 686              	.LBB393:
 687 02c0 C546     		mov	sp, r8
 688              	.LVL59:
 689              	.LBE393:
 690              	.LBE399:
 691 02c2 2B70     		strb	r3, [r5]
 692              	.LVL60:
 693              	.L102:
 694 02c4 DFF88C80 		ldr	r8, .L110+64
 695              	.L24:
 696              	.LBE364:
 697              		.loc 1 394 0
 698 02c8 DFF864A0 		ldr	r10, .L110+28
 699 02cc 1948     		ldr	r0, .L110+32
 700 02ce DFF880C0 		ldr	ip, .L110+60
 701 02d2 9AF80030 		ldrb	r3, [r10]	@ zero_extendqisi2
 702 02d6 0278     		ldrb	r2, [r0]	@ zero_extendqisi2
 703 02d8 9CF80010 		ldrb	r1, [ip]	@ zero_extendqisi2
 704 02dc 002B     		cmp	r3, #0
 705 02de 7CD1     		bne	.L99
 706              	.L51:
 707 02e0 DFF868E0 		ldr	lr, .L110+56
 708 02e4 2B78     		ldrb	r3, [r5]	@ zero_extendqisi2
 709 02e6 9EF80090 		ldrb	r9, [lr]	@ zero_extendqisi2
 710              	.L49:
 711              		.loc 1 395 0
 712 02ea 4FF0010B 		mov	fp, #1
 713 02ee 8AF800B0 		strb	fp, [r10]
 714 02f2 07E7     		b	.L38
 715              	.L107:
 716              		.loc 1 426 0
 717 02f4 104D     		ldr	r5, .L110+36
 718              	.LBB405:
 719              	.LBB406:
 720              		.loc 1 51 0
 721 02f6 114A     		ldr	r2, .L110+40
 722              	.LBE406:
 723              	.LBE405:
 724              		.loc 1 426 0
 725 02f8 2B88     		ldrh	r3, [r5]
 726              	.LBB409:
 727              	.LBB407:
 728              		.loc 1 52 0
 729 02fa 1149     		ldr	r1, .L110+44
 730              	.LBE407:
 731              	.LBE409:
 732              		.loc 1 426 0
 733 02fc 43F48063 		orr	r3, r3, #1024
 734 0300 2B80     		strh	r3, [r5]	@ movhi
 735              	.LBB410:
 736              	.LBB408:
 737              		.loc 1 51 0
 738 0302 0023     		movs	r3, #0
 739              		.loc 1 52 0
 740 0304 0B76     		strb	r3, [r1, #24]
 741              		.loc 1 51 0
ARM GAS  /tmp/ccv1PJEO.s 			page 14


 742 0306 1360     		str	r3, [r2]
 743              		.loc 1 53 0
 744 0308 4B76     		strb	r3, [r1, #25]
 745              		.loc 1 51 0
 746 030a C2E90133 		strd	r3, r3, [r2, #4]
 747 030e C2E90333 		strd	r3, r3, [r2, #12]
 748 0312 26E7     		b	.L46
 749              	.L111:
 750              		.align	2
 751              	.L110:
 752 0314 00000000 		.word	ch
 753 0318 00000000 		.word	.LC0
 754 031c 0000C842 		.word	1120403456
 755 0320 00000000 		.word	.LANCHOR1
 756 0324 00000000 		.word	UARTD6
 757 0328 00000000 		.word	.LANCHOR0
 758 032c 00000000 		.word	.LANCHOR2
 759 0330 00000000 		.word	.LANCHOR10
 760 0334 00000000 		.word	.LANCHOR11
 761 0338 00000000 		.word	.LANCHOR13
 762 033c 00000000 		.word	.LANCHOR4
 763 0340 00000000 		.word	.LANCHOR3
 764 0344 1F85EB51 		.word	1374389535
 765 0348 00000000 		.word	.LANCHOR14
 766 034c 00000000 		.word	.LANCHOR9
 767 0350 00000000 		.word	.LANCHOR12
 768 0354 00000000 		.word	.LANCHOR8
 769 0358 00000000 		.word	.LANCHOR7
 770 035c CDCCCCCC 		.word	-858993459
 771              	.L106:
 772              	.LBE408:
 773              	.LBE410:
 774              		.loc 1 416 0
 775 0360 DFF8F0A2 		ldr	r10, .L112+28
 776              	.LBB411:
 777              	.LBB412:
 778              		.loc 1 51 0
 779 0364 B44D     		ldr	r5, .L112
 780              	.LBE412:
 781              	.LBE411:
 782              		.loc 1 416 0
 783 0366 BAF80030 		ldrh	r3, [r10]
 784              	.LBB415:
 785              	.LBB413:
 786              		.loc 1 52 0
 787 036a DFF8E492 		ldr	r9, .L112+24
 788              	.LBE413:
 789              	.LBE415:
 790              		.loc 1 416 0
 791 036e 43F40073 		orr	r3, r3, #512
 792 0372 AAF80030 		strh	r3, [r10]	@ movhi
 793              	.LBB416:
 794              	.LBB414:
 795              		.loc 1 51 0
 796 0376 0023     		movs	r3, #0
 797              		.loc 1 52 0
 798 0378 89F81830 		strb	r3, [r9, #24]
ARM GAS  /tmp/ccv1PJEO.s 			page 15


 799              		.loc 1 51 0
 800 037c 2B60     		str	r3, [r5]
 801              		.loc 1 53 0
 802 037e 89F81930 		strb	r3, [r9, #25]
 803              		.loc 1 51 0
 804 0382 C5E90133 		strd	r3, r3, [r5, #4]
 805 0386 C5E90333 		strd	r3, r3, [r5, #12]
 806 038a CEE6     		b	.L43
 807              	.L105:
 808              	.LBE414:
 809              	.LBE416:
 810              		.loc 1 411 0
 811 038c DFF8C4A2 		ldr	r10, .L112+28
 812              	.LBB417:
 813              	.LBB418:
 814              		.loc 1 51 0
 815 0390 A94D     		ldr	r5, .L112
 816              	.LBE418:
 817              	.LBE417:
 818              		.loc 1 411 0
 819 0392 BAF80030 		ldrh	r3, [r10]
 820              	.LBB421:
 821              	.LBB419:
 822              		.loc 1 52 0
 823 0396 DFF8B892 		ldr	r9, .L112+24
 824              	.LBE419:
 825              	.LBE421:
 826              		.loc 1 411 0
 827 039a 43F48063 		orr	r3, r3, #1024
 828 039e AAF80030 		strh	r3, [r10]	@ movhi
 829              	.LBB422:
 830              	.LBB420:
 831              		.loc 1 51 0
 832 03a2 0023     		movs	r3, #0
 833              		.loc 1 52 0
 834 03a4 89F81830 		strb	r3, [r9, #24]
 835              		.loc 1 51 0
 836 03a8 2B60     		str	r3, [r5]
 837              		.loc 1 53 0
 838 03aa 89F81930 		strb	r3, [r9, #25]
 839              		.loc 1 51 0
 840 03ae C5E90133 		strd	r3, r3, [r5, #4]
 841 03b2 C5E90333 		strd	r3, r3, [r5, #12]
 842 03b6 B3E6     		b	.L42
 843              	.LVL61:
 844              	.L39:
 845              	.LBE420:
 846              	.LBE422:
 847              		.loc 1 398 0
 848 03b8 18F1020F 		cmn	r8, #2
 849 03bc 0BD1     		bne	.L100
 850 03be DFF898E2 		ldr	lr, .L112+32
 851 03c2 2B78     		ldrb	r3, [r5]	@ zero_extendqisi2
 852 03c4 9EF80090 		ldrb	r9, [lr]	@ zero_extendqisi2
 853 03c8 DFF89082 		ldr	r8, .L112+36
 854              	.LVL62:
 855              		.loc 1 399 0
ARM GAS  /tmp/ccv1PJEO.s 			page 16


 856 03cc 0131     		adds	r1, r1, #1
 857 03ce C9B2     		uxtb	r1, r1
 858 03d0 8CF80010 		strb	r1, [ip]
 859 03d4 96E6     		b	.L38
 860              	.L100:
 861 03d6 DFF88482 		ldr	r8, .L112+36
 862              	.L99:
 863 03da DFF87CE2 		ldr	lr, .L112+32
 864              	.L50:
 865 03de 2B78     		ldrb	r3, [r5]	@ zero_extendqisi2
 866 03e0 9EF80090 		ldrb	r9, [lr]	@ zero_extendqisi2
 867 03e4 8EE6     		b	.L38
 868              	.LVL63:
 869              	.L104:
 870              	.LBB423:
 871              	.LBB336:
 872              		.loc 1 333 0
 873 03e6 0139     		subs	r1, r1, #1
 874 03e8 0929     		cmp	r1, #9
 875 03ea 00F2B081 		bhi	.L15
 876 03ee DFE811F0 		tbh	[pc, r1, lsl #1]
 877              	.L17:
 878 03f2 9701     		.2byte	(.L16-.L17)/2
 879 03f4 AE01     		.2byte	(.L15-.L17)/2
 880 03f6 1400     		.2byte	(.L18-.L17)/2
 881 03f8 AE01     		.2byte	(.L15-.L17)/2
 882 03fa AE01     		.2byte	(.L15-.L17)/2
 883 03fc 3F01     		.2byte	(.L19-.L17)/2
 884 03fe C200     		.2byte	(.L20-.L17)/2
 885 0400 AE01     		.2byte	(.L15-.L17)/2
 886 0402 AE01     		.2byte	(.L15-.L17)/2
 887 0404 2600     		.2byte	(.L21-.L17)/2
 888              		.p2align 1
 889              	.L27:
 890              	.LBE336:
 891              	.LBE423:
 892              		.loc 1 395 0
 893 0406 4FF0010A 		mov	r10, #1
 894 040a 0278     		ldrb	r2, [r0]	@ zero_extendqisi2
 895 040c 9CF80010 		ldrb	r1, [ip]	@ zero_extendqisi2
 896 0410 DFF84882 		ldr	r8, .L112+36
 897 0414 83F800A0 		strb	r10, [r3]
 898 0418 75E6     		b	.L28
 899              	.L18:
 900              		.loc 1 394 0
 901 041a DFF844A2 		ldr	r10, .L112+40
 902 041e 8748     		ldr	r0, .L112+4
 903 0420 DFF840C2 		ldr	ip, .L112+44
 904 0424 9AF800E0 		ldrb	lr, [r10]	@ zero_extendqisi2
 905 0428 0278     		ldrb	r2, [r0]	@ zero_extendqisi2
 906 042a 9CF80010 		ldrb	r1, [ip]	@ zero_extendqisi2
 907 042e DFF82C82 		ldr	r8, .L112+36
 908 0432 BEF1000F 		cmp	lr, #0
 909 0436 D0D1     		bne	.L99
 910              	.L98:
 911 0438 DFF81CE2 		ldr	lr, .L112+32
 912 043c FBE6     		b	.L37
ARM GAS  /tmp/ccv1PJEO.s 			page 17


 913              	.L21:
 914              	.LVL64:
 915              	.LBB424:
 916              	.LBB337:
 917              	.LBB283:
 918              	.LBB284:
 919              		.loc 1 244 0
 920 043e 8049     		ldr	r1, .L112+8
 921 0440 7D4B     		ldr	r3, .L112
 922              	.LBB285:
 923              	.LBB286:
 924              		.loc 1 216 0
 925 0442 DFF82492 		ldr	r9, .L112+48
 926              	.LBE286:
 927              	.LBE285:
 928              		.loc 1 244 0
 929 0446 D1F80220 		ldr	r2, [r1, #2]	@ unaligned
 930 044a 1A60     		str	r2, [r3]	@ float
 931              	.LBB310:
 932              	.LBB305:
 933              	.LBB287:
 934              	.LBB288:
 935              	.LBB289:
 936              	.LBB290:
 937              		.loc 4 147 0
 938 044c 4FF0804E 		mov	lr, #1073741824
 939              	.LBE290:
 940              	.LBE289:
 941              	.LBE288:
 942              	.LBE287:
 943              		.loc 1 216 0
 944 0450 D9F80020 		ldr	r2, [r9]
 945              	.LBE305:
 946              	.LBE310:
 947              		.loc 1 245 0
 948 0454 D1F806C0 		ldr	ip, [r1, #6]	@ unaligned
 949              	.LBB311:
 950              	.LBB306:
 951              		.loc 1 216 0
 952 0458 1046     		mov	r0, r2
 953              	.LBB294:
 954              	.LBB293:
 955              	.LBB292:
 956              	.LBB291:
 957              		.loc 4 147 0
 958 045a DEF82420 		ldr	r2, [lr, #36]
 959              	.LBE291:
 960              	.LBE292:
 961              	.LBE293:
 962              	.LBE294:
 963              	.LBE306:
 964              	.LBE311:
 965              		.loc 1 245 0
 966 045e C3F804C0 		str	ip, [r3, #4]	@ float
 967              		.loc 1 246 0
 968 0462 D1F80AC0 		ldr	ip, [r1, #10]	@ unaligned
 969 0466 C3F808C0 		str	ip, [r3, #8]	@ float
ARM GAS  /tmp/ccv1PJEO.s 			page 18


 970              	.LBB312:
 971              	.LBB307:
 972              		.loc 1 216 0
 973 046a 121A     		subs	r2, r2, r0
 974              	.LBE307:
 975              	.LBE312:
 976              		.loc 1 247 0
 977 046c D1F80EC0 		ldr	ip, [r1, #14]	@ unaligned
 978              		.loc 1 248 0
 979 0470 D1F81210 		ldr	r1, [r1, #18]	@ unaligned
 980 0474 1961     		str	r1, [r3, #16]	@ float
 981              	.LBB313:
 982              	.LBB308:
 983              		.loc 1 216 0
 984 0476 082A     		cmp	r2, #8
 985              	.LBE308:
 986              	.LBE313:
 987              		.loc 1 247 0
 988 0478 C3F80CC0 		str	ip, [r3, #12]	@ float
 989              	.LBB314:
 990              	.LBB309:
 991              		.loc 1 216 0
 992 047c 7FF622AF 		bls	.L102
 993              		.loc 1 227 0
 994 0480 DFF8E881 		ldr	r8, .L112+52
 995              	.LBB295:
 996              	.LBB296:
 997              	.LBB297:
 998              	.LBB298:
 999              		.loc 4 147 0
 1000 0484 DEF82420 		ldr	r2, [lr, #36]
 1001              	.LBE298:
 1002              	.LBE297:
 1003              	.LBE296:
 1004              	.LBE295:
 1005              		.loc 1 219 0
 1006 0488 C9F80020 		str	r2, [r9]
 1007              	.LVL65:
 1008              		.loc 1 227 0
 1009 048c 40F6AA32 		movw	r2, #2986
 1010              	.LBB299:
 1011              	.LBB300:
 1012              		.loc 1 119 0
 1013 0490 D8E9013A 		ldrd	r3, r10, [r8, #4]
 1014              	.LBE300:
 1015              	.LBE299:
 1016              		.loc 1 227 0
 1017 0494 A8F80020 		strh	r2, [r8]	@ movhi
 1018              	.LVL66:
 1019              	.LBB303:
 1020              	.LBB301:
 1021              		.loc 1 119 0
 1022 0498 D8F80020 		ldr	r2, [r8]
 1023 049c 02F07F39 		and	r9, r2, #2139062143
 1024 04a0 5A40     		eors	r2, r2, r3
 1025 04a2 03F07F33 		and	r3, r3, #2139062143
 1026 04a6 02F08032 		and	r2, r2, #-2139062144
ARM GAS  /tmp/ccv1PJEO.s 			page 19


 1027 04aa 4B44     		add	r3, r3, r9
 1028 04ac 5340     		eors	r3, r3, r2
 1029 04ae D8E903EC 		ldrd	lr, ip, [r8, #12]
 1030 04b2 03F07F32 		and	r2, r3, #2139062143
 1031 04b6 83EA0A03 		eor	r3, r3, r10
 1032 04ba 0AF07F3A 		and	r10, r10, #2139062143
 1033 04be 03F08033 		and	r3, r3, #-2139062144
 1034 04c2 5244     		add	r2, r2, r10
 1035 04c4 5A40     		eors	r2, r2, r3
 1036 04c6 02F07F33 		and	r3, r2, #2139062143
 1037 04ca 82EA0E02 		eor	r2, r2, lr
 1038 04ce 0EF07F3E 		and	lr, lr, #2139062143
 1039 04d2 7344     		add	r3, r3, lr
 1040 04d4 02F08032 		and	r2, r2, #-2139062144
 1041 04d8 5340     		eors	r3, r3, r2
 1042 04da D8E90501 		ldrd	r0, r1, [r8, #20]
 1043 04de 03F07F32 		and	r2, r3, #2139062143
 1044 04e2 83EA0C03 		eor	r3, r3, ip
 1045 04e6 0CF07F3C 		and	ip, ip, #2139062143
 1046 04ea 6244     		add	r2, r2, ip
 1047 04ec 03F08033 		and	r3, r3, #-2139062144
 1048 04f0 5A40     		eors	r2, r2, r3
 1049 04f2 02F07F33 		and	r3, r2, #2139062143
 1050 04f6 4240     		eors	r2, r2, r0
 1051 04f8 00F07F30 		and	r0, r0, #2139062143
 1052 04fc 0344     		add	r3, r3, r0
 1053 04fe 02F08032 		and	r2, r2, #-2139062144
 1054 0502 5340     		eors	r3, r3, r2
 1055 0504 03F07F30 		and	r0, r3, #2139062143
 1056 0508 83EA0102 		eor	r2, r3, r1
 1057              		.loc 1 120 0
 1058 050c 98F81C30 		ldrb	r3, [r8, #28]	@ zero_extendqisi2
 1059              		.loc 1 119 0
 1060 0510 01F07F31 		and	r1, r1, #2139062143
 1061 0514 0144     		add	r1, r1, r0
 1062 0516 02F08032 		and	r2, r2, #-2139062144
 1063 051a 4A40     		eors	r2, r2, r1
 1064              		.loc 1 120 0
 1065 051c EF33     		adds	r3, r3, #239
 1066 051e C2F30721 		ubfx	r1, r2, #8, #8
 1067 0522 1344     		add	r3, r3, r2
 1068 0524 0B44     		add	r3, r3, r1
 1069 0526 C2F30741 		ubfx	r1, r2, #16, #8
 1070 052a 0B44     		add	r3, r3, r1
 1071 052c 03EB1263 		add	r3, r3, r2, lsr #24
 1072              	.LBE301:
 1073              	.LBE303:
 1074              		.loc 1 232 0
 1075 0530 6FF05A02 		mvn	r2, #90
 1076              	.LBB304:
 1077              	.LBB302:
 1078              		.loc 1 122 0
 1079 0534 88F81F30 		strb	r3, [r8, #31]
 1080              	.LBE302:
 1081              	.LBE304:
 1082              		.loc 1 232 0
 1083 0538 88F81D20 		strb	r2, [r8, #29]
ARM GAS  /tmp/ccv1PJEO.s 			page 20


 1084 053c 88F81E20 		strb	r2, [r8, #30]
 1085              		.loc 1 236 0
 1086 0540 4048     		ldr	r0, .L112+12
 1087 0542 FFF7FEFF 		bl	uartStopSend
 1088              	.LVL67:
 1089              		.loc 1 237 0
 1090 0546 4246     		mov	r2, r8
 1091 0548 2021     		movs	r1, #32
 1092 054a 3E48     		ldr	r0, .L112+12
 1093 054c FFF7FEFF 		bl	uartStartSend
 1094              	.LVL68:
 1095              	.LBE309:
 1096              	.LBE314:
 1097              		.loc 1 252 0
 1098 0550 3D4B     		ldr	r3, .L112+16
 1099 0552 0122     		movs	r2, #1
 1100 0554 1A70     		strb	r2, [r3]
 1101              	.LVL69:
 1102              	.L23:
 1103              	.LBE284:
 1104              	.LBE283:
 1105              	.LBE337:
 1106              	.LBE424:
 1107              		.loc 1 394 0
 1108 0556 DFF808A1 		ldr	r10, .L112+40
 1109 055a 3848     		ldr	r0, .L112+4
 1110 055c DFF804C1 		ldr	ip, .L112+44
 1111 0560 9AF80030 		ldrb	r3, [r10]	@ zero_extendqisi2
 1112 0564 0278     		ldrb	r2, [r0]	@ zero_extendqisi2
 1113 0566 9CF80010 		ldrb	r1, [ip]	@ zero_extendqisi2
 1114 056a 002B     		cmp	r3, #0
 1115 056c 7FF433AF 		bne	.L100
 1116 0570 DFF8E880 		ldr	r8, .L112+36
 1117 0574 B4E6     		b	.L51
 1118              	.L20:
 1119              	.LVL70:
 1120              	.LBB425:
 1121              	.LBB338:
 1122              	.LBB315:
 1123              	.LBB282:
 1124              	.LBB270:
 1125              	.LBB271:
 1126              	.LBB272:
 1127              	.LBB273:
 1128              		.loc 4 147 0
 1129 0576 4FF08049 		mov	r9, #1073741824
 1130              	.LBE273:
 1131              	.LBE272:
 1132              	.LBE271:
 1133              	.LBE270:
 1134              		.loc 1 180 0
 1135 057a DFF8D480 		ldr	r8, .L112+24
 1136              	.LBB277:
 1137              	.LBB276:
 1138              	.LBB275:
 1139              	.LBB274:
 1140              		.loc 4 147 0
ARM GAS  /tmp/ccv1PJEO.s 			page 21


 1141 057e D9F82430 		ldr	r3, [r9, #36]
 1142              	.LBE274:
 1143              	.LBE275:
 1144              	.LBE276:
 1145              	.LBE277:
 1146              		.loc 1 180 0
 1147 0582 D8F81C20 		ldr	r2, [r8, #28]
 1148 0586 9B1A     		subs	r3, r3, r2
 1149 0588 B3F57A7F 		cmp	r3, #1000
 1150 058c FFF49AAE 		bcc	.L102
 1151              		.loc 1 183 0
 1152 0590 4046     		mov	r0, r8
 1153 0592 FFF7FEFF 		bl	chMtxLock
 1154              	.LVL71:
 1155              		.loc 1 185 0
 1156 0596 98F81A30 		ldrb	r3, [r8, #26]	@ zero_extendqisi2
 1157 059a 33B1     		cbz	r3, .L25
 1158              	.LBB278:
 1159              	.LBB279:
 1160              	.LBB280:
 1161              	.LBB281:
 1162              		.loc 4 147 0
 1163 059c D9F82430 		ldr	r3, [r9, #36]
 1164              	.LBE281:
 1165              	.LBE280:
 1166              	.LBE279:
 1167              	.LBE278:
 1168              		.loc 1 187 0
 1169 05a0 C8F81C30 		str	r3, [r8, #28]
 1170              		.loc 1 188 0
 1171 05a4 0023     		movs	r3, #0
 1172 05a6 88F81A30 		strb	r3, [r8, #26]
 1173              	.L25:
 1174              		.loc 1 198 0
 1175 05aa 2548     		ldr	r0, .L112+8
 1176 05ac 838B     		ldrh	r3, [r0, #28]
 1177              		.loc 1 196 0
 1178 05ae C27E     		ldrb	r2, [r0, #27]	@ zero_extendqisi2
 1179              		.loc 1 198 0
 1180 05b0 07EE903A 		vmov	s15, r3	@ int
 1181 05b4 F8EEE77A 		vcvt.f32.s32	s15, s15
 1182              		.loc 1 191 0
 1183 05b8 837E     		ldrb	r3, [r0, #26]	@ zero_extendqisi2
 1184              		.loc 1 198 0
 1185 05ba 87EE887A 		vdiv.f32	s14, s15, s16
 1186              		.loc 1 191 0
 1187 05be C3F38011 		ubfx	r1, r3, #6, #1
 1188 05c2 88F81810 		strb	r1, [r8, #24]
 1189              		.loc 1 192 0
 1190 05c6 C3F3C011 		ubfx	r1, r3, #7, #1
 1191 05ca 88F81910 		strb	r1, [r8, #25]
 1192              		.loc 1 193 0
 1193 05ce C3F30201 		ubfx	r1, r3, #0, #3
 1194              		.loc 1 194 0
 1195 05d2 C3F3C203 		ubfx	r3, r3, #3, #3
 1196              		.loc 1 193 0
 1197 05d6 88F84410 		strb	r1, [r8, #68]
ARM GAS  /tmp/ccv1PJEO.s 			page 22


 1198              		.loc 1 194 0
 1199 05da 88F84530 		strb	r3, [r8, #69]
 1200              		.loc 1 196 0
 1201 05de C2F30003 		ubfx	r3, r2, #0, #1
 1202 05e2 88F83830 		strb	r3, [r8, #56]
 1203              		.loc 1 197 0
 1204 05e6 C2F34602 		ubfx	r2, r2, #1, #7
 1205              		.loc 1 201 0
 1206 05ea 0346     		mov	r3, r0
 1207              		.loc 1 200 0
 1208 05ec D0F80210 		ldr	r1, [r0, #2]	@ unaligned
 1209              		.loc 1 201 0
 1210 05f0 D0F80600 		ldr	r0, [r0, #6]	@ unaligned
 1211              		.loc 1 197 0
 1212 05f4 88F82020 		strb	r2, [r8, #32]
 1213              		.loc 1 202 0
 1214 05f8 1A46     		mov	r2, r3
 1215 05fa D3F80A30 		ldr	r3, [r3, #10]	@ unaligned
 1216              		.loc 1 200 0
 1217 05fe C8F84810 		str	r1, [r8, #72]	@ float
 1218              		.loc 1 203 0
 1219 0602 D2F80E10 		ldr	r1, [r2, #14]	@ unaligned
 1220              		.loc 1 201 0
 1221 0606 C8F84C00 		str	r0, [r8, #76]	@ float
 1222              		.loc 1 204 0
 1223 060a 1046     		mov	r0, r2
 1224 060c D2F81220 		ldr	r2, [r2, #18]	@ unaligned
 1225              		.loc 1 202 0
 1226 0610 C8F85030 		str	r3, [r8, #80]	@ float
 1227              		.loc 1 205 0
 1228 0614 D0F81630 		ldr	r3, [r0, #22]	@ unaligned
 1229              		.loc 1 207 0
 1230 0618 0C48     		ldr	r0, .L112+20
 1231              		.loc 1 203 0
 1232 061a C8F85410 		str	r1, [r8, #84]	@ float
 1233              		.loc 1 198 0
 1234 061e 88ED097A 		vstr.32	s14, [r8, #36]
 1235              		.loc 1 204 0
 1236 0622 C8F85820 		str	r2, [r8, #88]	@ float
 1237              		.loc 1 205 0
 1238 0626 C8F85C30 		str	r3, [r8, #92]	@ float
 1239              		.loc 1 207 0
 1240 062a FFF7FEFF 		bl	chCondBroadcast
 1241              	.LVL72:
 1242              		.loc 1 208 0
 1243 062e 0848     		ldr	r0, .L112+24
 1244 0630 FFF7FEFF 		bl	chMtxUnlock
 1245              	.LVL73:
 1246 0634 8FE7     		b	.L23
 1247              	.L113:
 1248 0636 00BF     		.align	2
 1249              	.L112:
 1250 0638 00000000 		.word	.LANCHOR4
 1251 063c 00000000 		.word	.LANCHOR11
 1252 0640 00000000 		.word	.LANCHOR1
 1253 0644 00000000 		.word	UARTD6
 1254 0648 00000000 		.word	.LANCHOR7
ARM GAS  /tmp/ccv1PJEO.s 			page 23


 1255 064c 10000000 		.word	.LANCHOR3+16
 1256 0650 00000000 		.word	.LANCHOR3
 1257 0654 00000000 		.word	.LANCHOR13
 1258 0658 00000000 		.word	.LANCHOR9
 1259 065c 00000000 		.word	.LANCHOR8
 1260 0660 00000000 		.word	.LANCHOR10
 1261 0664 00000000 		.word	.LANCHOR12
 1262 0668 00000000 		.word	.LANCHOR5
 1263 066c 00000000 		.word	.LANCHOR6
 1264              	.LVL74:
 1265              	.L19:
 1266              	.LBE282:
 1267              	.LBE315:
 1268              	.LBB316:
 1269              	.LBB317:
 1270              	.LBB318:
 1271              	.LBB319:
 1272              	.LBB320:
 1273              	.LBB321:
 1274              		.loc 4 147 0
 1275 0670 4FF08049 		mov	r9, #1073741824
 1276              	.LBE321:
 1277              	.LBE320:
 1278              	.LBE319:
 1279              	.LBE318:
 1280              		.loc 1 150 0
 1281 0674 DFF86081 		ldr	r8, .L114+8
 1282              	.LBB325:
 1283              	.LBB324:
 1284              	.LBB323:
 1285              	.LBB322:
 1286              		.loc 4 147 0
 1287 0678 D9F82420 		ldr	r2, [r9, #36]
 1288              	.LBE322:
 1289              	.LBE323:
 1290              	.LBE324:
 1291              	.LBE325:
 1292              		.loc 1 150 0
 1293 067c D8F81C10 		ldr	r1, [r8, #28]
 1294 0680 521A     		subs	r2, r2, r1
 1295 0682 B2F57A7F 		cmp	r2, #1000
 1296 0686 FFF429AD 		bcc	.L101
 1297              		.loc 1 153 0
 1298 068a 4046     		mov	r0, r8
 1299 068c FFF7FEFF 		bl	chMtxLock
 1300              	.LVL75:
 1301              		.loc 1 154 0
 1302 0690 98F81A30 		ldrb	r3, [r8, #26]	@ zero_extendqisi2
 1303 0694 33B9     		cbnz	r3, .L22
 1304              	.LBB326:
 1305              	.LBB327:
 1306              	.LBB328:
 1307              	.LBB329:
 1308              		.loc 4 147 0
 1309 0696 D9F82430 		ldr	r3, [r9, #36]
 1310              	.LBE329:
 1311              	.LBE328:
ARM GAS  /tmp/ccv1PJEO.s 			page 24


 1312              	.LBE327:
 1313              	.LBE326:
 1314              		.loc 1 156 0
 1315 069a C8F81C30 		str	r3, [r8, #28]
 1316              		.loc 1 157 0
 1317 069e 0123     		movs	r3, #1
 1318 06a0 88F81A30 		strb	r3, [r8, #26]
 1319              	.L22:
 1320              		.loc 1 167 0
 1321 06a4 4A4A     		ldr	r2, .L114
 1322 06a6 938A     		ldrh	r3, [r2, #20]
 1323 06a8 07EE903A 		vmov	s15, r3	@ int
 1324 06ac F8EEE77A 		vcvt.f32.s32	s15, s15
 1325              		.loc 1 160 0
 1326 06b0 937C     		ldrb	r3, [r2, #18]	@ zero_extendqisi2
 1327              		.loc 1 167 0
 1328 06b2 87EE887A 		vdiv.f32	s14, s15, s16
 1329              		.loc 1 160 0
 1330 06b6 C3F38011 		ubfx	r1, r3, #6, #1
 1331 06ba 88F81810 		strb	r1, [r8, #24]
 1332              		.loc 1 161 0
 1333 06be 4FF0000C 		mov	ip, #0
 1334              		.loc 1 162 0
 1335 06c2 C3F30201 		ubfx	r1, r3, #0, #3
 1336              		.loc 1 161 0
 1337 06c6 88F819C0 		strb	ip, [r8, #25]
 1338              		.loc 1 165 0
 1339 06ca 1046     		mov	r0, r2
 1340              		.loc 1 162 0
 1341 06cc 88F84410 		strb	r1, [r8, #68]
 1342              		.loc 1 165 0
 1343 06d0 D27C     		ldrb	r2, [r2, #19]	@ zero_extendqisi2
 1344              		.loc 1 170 0
 1345 06d2 3F49     		ldr	r1, .L114
 1346              		.loc 1 169 0
 1347 06d4 D0F80200 		ldr	r0, [r0, #2]	@ unaligned
 1348              		.loc 1 170 0
 1349 06d8 D1F806C0 		ldr	ip, [r1, #6]	@ unaligned
 1350              		.loc 1 163 0
 1351 06dc C3F3C203 		ubfx	r3, r3, #3, #3
 1352 06e0 88F84530 		strb	r3, [r8, #69]
 1353              		.loc 1 165 0
 1354 06e4 C2F30003 		ubfx	r3, r2, #0, #1
 1355 06e8 88F83830 		strb	r3, [r8, #56]
 1356              		.loc 1 166 0
 1357 06ec C2F34602 		ubfx	r2, r2, #1, #7
 1358              		.loc 1 171 0
 1359 06f0 0B46     		mov	r3, r1
 1360 06f2 D1F80A10 		ldr	r1, [r1, #10]	@ unaligned
 1361              		.loc 1 167 0
 1362 06f6 88ED097A 		vstr.32	s14, [r8, #36]
 1363              		.loc 1 166 0
 1364 06fa 88F82020 		strb	r2, [r8, #32]
 1365              		.loc 1 172 0
 1366 06fe D3F80E30 		ldr	r3, [r3, #14]	@ unaligned
 1367              		.loc 1 169 0
 1368 0702 C8F82800 		str	r0, [r8, #40]	@ float
ARM GAS  /tmp/ccv1PJEO.s 			page 25


 1369              		.loc 1 174 0
 1370 0706 3348     		ldr	r0, .L114+4
 1371              		.loc 1 170 0
 1372 0708 C8F82CC0 		str	ip, [r8, #44]	@ float
 1373              		.loc 1 171 0
 1374 070c C8F83010 		str	r1, [r8, #48]	@ float
 1375              		.loc 1 172 0
 1376 0710 C8F83430 		str	r3, [r8, #52]	@ float
 1377              		.loc 1 174 0
 1378 0714 FFF7FEFF 		bl	chCondBroadcast
 1379              	.LVL76:
 1380              		.loc 1 175 0
 1381 0718 2F48     		ldr	r0, .L114+8
 1382 071a FFF7FEFF 		bl	chMtxUnlock
 1383              	.LVL77:
 1384 071e 1AE7     		b	.L23
 1385              	.LVL78:
 1386              	.L16:
 1387              	.LBE317:
 1388              	.LBE316:
 1389              		.loc 1 348 0
 1390 0720 2B4A     		ldr	r2, .L114
 1391              		.loc 1 349 0
 1392 0722 DFF8D080 		ldr	r8, .L114+36
 1393              		.loc 1 348 0
 1394 0726 127A     		ldrb	r2, [r2, #8]	@ zero_extendqisi2
 1395 0728 02F0FE01 		and	r1, r2, #254
 1396 072c 0829     		cmp	r1, #8
 1397              		.loc 1 349 0
 1398 072e 1EBF     		ittt	ne
 1399 0730 98F80010 		ldrbne	r1, [r8]	@ zero_extendqisi2
 1400 0734 0A31     		addne	r1, r1, #10
 1401 0736 88F80010 		strbne	r1, [r8]
 1402              		.loc 1 351 0
 1403 073a 2849     		ldr	r1, .L114+12
 1404 073c 0020     		movs	r0, #0
 1405              		.loc 1 352 0
 1406 073e 12F00102 		ands	r2, r2, #1
 1407              		.loc 1 351 0
 1408 0742 0870     		strb	r0, [r1]
 1409              		.loc 1 352 0
 1410 0744 7FF4CCAC 		bne	.L12
 1411              		.loc 1 353 0
 1412 0748 2A70     		strb	r2, [r5]
 1413 074a 1346     		mov	r3, r2
 1414 074c C8E4     		b	.L12
 1415              	.LVL79:
 1416              	.L15:
 1417              		.loc 1 357 0
 1418 074e DFF8A480 		ldr	r8, .L114+36
 1419 0752 98F80020 		ldrb	r2, [r8]	@ zero_extendqisi2
 1420 0756 0132     		adds	r2, r2, #1
 1421 0758 88F80020 		strb	r2, [r8]
 1422              		.loc 1 358 0
 1423 075c C0E4     		b	.L12
 1424              	.LVL80:
 1425              	.L108:
ARM GAS  /tmp/ccv1PJEO.s 			page 26


 1426              	.LBE338:
 1427              	.LBE425:
 1428              	.LBB426:
 1429              		.loc 1 376 0
 1430 075e 0A20     		movs	r0, #10
 1431 0760 FFF7FEFF 		bl	chThdSleep
 1432              	.LVL81:
 1433              	.LBB400:
 1434              	.LBB394:
 1435              		.loc 1 79 0
 1436 0764 1A4B     		ldr	r3, .L114
 1437 0766 1B7A     		ldrb	r3, [r3, #8]	@ zero_extendqisi2
 1438 0768 03F0FE02 		and	r2, r3, #254
 1439 076c 082A     		cmp	r2, #8
 1440              		.loc 1 75 0
 1441 076e E846     		mov	r8, sp
 1442              	.LVL82:
 1443              		.loc 1 79 0
 1444 0770 3FF464AD 		beq	.L31
 1445              	.LVL83:
 1446              		.loc 1 81 0
 1447 0774 DFF87C80 		ldr	r8, .L114+36
 1448              	.LVL84:
 1449 0778 98F80030 		ldrb	r3, [r8]	@ zero_extendqisi2
 1450              	.LBE394:
 1451              	.LBE400:
 1452              		.loc 1 377 0
 1453 077c 0022     		movs	r2, #0
 1454              	.LBB401:
 1455              	.LBB395:
 1456              		.loc 1 81 0
 1457 077e 0133     		adds	r3, r3, #1
 1458 0780 88F80030 		strb	r3, [r8]
 1459              	.LVL85:
 1460              	.LBE395:
 1461              	.LBE401:
 1462              		.loc 1 377 0
 1463 0784 2A70     		strb	r2, [r5]
 1464 0786 9FE5     		b	.L24
 1465              	.LVL86:
 1466              	.L109:
 1467              	.LBE426:
 1468              		.loc 1 386 0
 1469 0788 154A     		ldr	r2, .L114+16
 1470              	.LBB427:
 1471              	.LBB402:
 1472              	.LBB396:
 1473              		.loc 1 87 0
 1474 078a DFF850C0 		ldr	ip, .L114+12
 1475              	.LBE396:
 1476              	.LBE402:
 1477              	.LBE427:
 1478              		.loc 1 384 0
 1479 078e 1548     		ldr	r0, .L114+20
 1480              		.loc 1 385 0
 1481 0790 1549     		ldr	r1, .L114+24
 1482              		.loc 1 387 0
ARM GAS  /tmp/ccv1PJEO.s 			page 27


 1483 0792 DFF864E0 		ldr	lr, .L114+40
 1484              		.loc 1 388 0
 1485 0796 DFF85C80 		ldr	r8, .L114+36
 1486              	.LVL87:
 1487              	.LBB428:
 1488              	.LBB403:
 1489              	.LBB397:
 1490              		.loc 1 87 0
 1491 079a 0023     		movs	r3, #0
 1492 079c 8CF80030 		strb	r3, [ip]
 1493              	.LVL88:
 1494              	.LBE397:
 1495              	.LBE403:
 1496              	.LBE428:
 1497              		.loc 1 386 0
 1498 07a0 1370     		strb	r3, [r2]
 1499              	.LBB429:
 1500              		.loc 1 377 0
 1501 07a2 0122     		movs	r2, #1
 1502              	.LBE429:
 1503              		.loc 1 384 0
 1504 07a4 0380     		strh	r3, [r0]	@ movhi
 1505              		.loc 1 385 0
 1506 07a6 0B70     		strb	r3, [r1]
 1507              		.loc 1 387 0
 1508 07a8 8EF80030 		strb	r3, [lr]
 1509              		.loc 1 388 0
 1510 07ac 88F80030 		strb	r3, [r8]
 1511              	.LBB430:
 1512              		.loc 1 377 0
 1513 07b0 2A70     		strb	r2, [r5]
 1514              	.LBE430:
 1515              		.loc 1 389 0
 1516 07b2 E6E4     		b	.L33
 1517              	.LVL89:
 1518              	.L34:
 1519              	.LBB431:
 1520              	.LBB404:
 1521              	.LBB398:
 1522              	.LBB385:
 1523              	.LBB386:
 1524              	.LBB387:
 1525              	.LBB388:
 1526              		.loc 4 147 0
 1527 07b4 4FF08043 		mov	r3, #1073741824
 1528              	.LVL90:
 1529              	.LBE388:
 1530              	.LBE387:
 1531              	.LBE386:
 1532              	.LBE385:
 1533              		.loc 1 95 0
 1534 07b8 054A     		ldr	r2, .L114
 1535              	.LVL91:
 1536 07ba 0C49     		ldr	r1, .L114+28
 1537              	.LBB392:
 1538              	.LBB391:
 1539              	.LBB390:
ARM GAS  /tmp/ccv1PJEO.s 			page 28


 1540              	.LBB389:
 1541              		.loc 4 147 0
 1542 07bc 5B6A     		ldr	r3, [r3, #36]
 1543              	.LBE389:
 1544              	.LBE390:
 1545              	.LBE391:
 1546              	.LBE392:
 1547              		.loc 1 95 0
 1548 07be D2F80220 		ldr	r2, [r2, #2]	@ unaligned
 1549              	.LVL92:
 1550 07c2 A1FB0313 		umull	r1, r3, r1, r3
 1551 07c6 A2EBD303 		sub	r3, r2, r3, lsr #3
 1552 07ca 0949     		ldr	r1, .L114+32
 1553 07cc 49E5     		b	.L35
 1554              	.L115:
 1555 07ce 00BF     		.align	2
 1556              	.L114:
 1557 07d0 00000000 		.word	.LANCHOR1
 1558 07d4 10000000 		.word	.LANCHOR3+16
 1559 07d8 00000000 		.word	.LANCHOR3
 1560 07dc 00000000 		.word	.LANCHOR7
 1561 07e0 00000000 		.word	.LANCHOR12
 1562 07e4 00000000 		.word	.LANCHOR13
 1563 07e8 00000000 		.word	.LANCHOR11
 1564 07ec CDCCCCCC 		.word	-858993459
 1565 07f0 00000000 		.word	.LANCHOR14
 1566 07f4 00000000 		.word	.LANCHOR8
 1567 07f8 00000000 		.word	.LANCHOR9
 1568              	.LBE398:
 1569              	.LBE404:
 1570              	.LBE431:
 1571              		.cfi_endproc
 1572              	.LFE342:
 1573              		.size	uart_host_rx, .-uart_host_rx
 1574              		.section	.text.ROS_Param_Get,"ax",%progbits
 1575              		.align	1
 1576              		.p2align 2,,3
 1577              		.global	ROS_Param_Get
 1578              		.syntax unified
 1579              		.thumb
 1580              		.thumb_func
 1581              		.fpu fpv4-sp-d16
 1582              		.type	ROS_Param_Get, %function
 1583              	ROS_Param_Get:
 1584              	.LFB328:
 1585              		.loc 1 35 0
 1586              		.cfi_startproc
 1587              		@ args = 0, pretend = 0, frame = 0
 1588              		@ frame_needed = 0, uses_anonymous_args = 0
 1589              		@ link register save eliminated.
 1590              		.loc 1 37 0
 1591 0000 0048     		ldr	r0, .L117
 1592 0002 7047     		bx	lr
 1593              	.L118:
 1594              		.align	2
 1595              	.L117:
 1596 0004 00000000 		.word	.LANCHOR4
ARM GAS  /tmp/ccv1PJEO.s 			page 29


 1597              		.cfi_endproc
 1598              	.LFE328:
 1599              		.size	ROS_Param_Get, .-ROS_Param_Get
 1600              		.section	.text.ROS_VisualServo_Get,"ax",%progbits
 1601              		.align	1
 1602              		.p2align 2,,3
 1603              		.global	ROS_VisualServo_Get
 1604              		.syntax unified
 1605              		.thumb
 1606              		.thumb_func
 1607              		.fpu fpv4-sp-d16
 1608              		.type	ROS_VisualServo_Get, %function
 1609              	ROS_VisualServo_Get:
 1610              	.LFB329:
 1611              		.loc 1 40 0
 1612              		.cfi_startproc
 1613              		@ args = 0, pretend = 0, frame = 0
 1614              		@ frame_needed = 0, uses_anonymous_args = 0
 1615              		@ link register save eliminated.
 1616              		.loc 1 42 0
 1617 0000 0048     		ldr	r0, .L120
 1618 0002 7047     		bx	lr
 1619              	.L121:
 1620              		.align	2
 1621              	.L120:
 1622 0004 00000000 		.word	.LANCHOR3
 1623              		.cfi_endproc
 1624              	.LFE329:
 1625              		.size	ROS_VisualServo_Get, .-ROS_VisualServo_Get
 1626              		.section	.text.ROS_getError,"ax",%progbits
 1627              		.align	1
 1628              		.p2align 2,,3
 1629              		.global	ROS_getError
 1630              		.syntax unified
 1631              		.thumb
 1632              		.thumb_func
 1633              		.fpu fpv4-sp-d16
 1634              		.type	ROS_getError, %function
 1635              	ROS_getError:
 1636              	.LFB330:
 1637              		.loc 1 45 0
 1638              		.cfi_startproc
 1639              		@ args = 0, pretend = 0, frame = 0
 1640              		@ frame_needed = 0, uses_anonymous_args = 0
 1641              		@ link register save eliminated.
 1642              		.loc 1 46 0
 1643 0000 014B     		ldr	r3, .L123
 1644              		.loc 1 47 0
 1645 0002 1888     		ldrh	r0, [r3]
 1646 0004 7047     		bx	lr
 1647              	.L124:
 1648 0006 00BF     		.align	2
 1649              	.L123:
 1650 0008 00000000 		.word	.LANCHOR13
 1651              		.cfi_endproc
 1652              	.LFE330:
 1653              		.size	ROS_getError, .-ROS_getError
ARM GAS  /tmp/ccv1PJEO.s 			page 30


 1654              		.section	.text.ROS_reset,"ax",%progbits
 1655              		.align	1
 1656              		.p2align 2,,3
 1657              		.global	ROS_reset
 1658              		.syntax unified
 1659              		.thumb
 1660              		.thumb_func
 1661              		.fpu fpv4-sp-d16
 1662              		.type	ROS_reset, %function
 1663              	ROS_reset:
 1664              	.LFB331:
 1665              		.loc 1 50 0
 1666              		.cfi_startproc
 1667              		@ args = 0, pretend = 0, frame = 0
 1668              		@ frame_needed = 0, uses_anonymous_args = 0
 1669              		@ link register save eliminated.
 1670              		.loc 1 51 0
 1671 0000 054A     		ldr	r2, .L126
 1672              		.loc 1 52 0
 1673 0002 0649     		ldr	r1, .L126+4
 1674              		.loc 1 51 0
 1675 0004 0023     		movs	r3, #0
 1676              		.loc 1 52 0
 1677 0006 0B76     		strb	r3, [r1, #24]
 1678              		.loc 1 51 0
 1679 0008 1360     		str	r3, [r2]
 1680              		.loc 1 53 0
 1681 000a 4B76     		strb	r3, [r1, #25]
 1682              		.loc 1 51 0
 1683 000c C2E90133 		strd	r3, r3, [r2, #4]
 1684 0010 C2E90333 		strd	r3, r3, [r2, #12]
 1685              		.loc 1 54 0
 1686 0014 7047     		bx	lr
 1687              	.L127:
 1688 0016 00BF     		.align	2
 1689              	.L126:
 1690 0018 00000000 		.word	.LANCHOR4
 1691 001c 00000000 		.word	.LANCHOR3
 1692              		.cfi_endproc
 1693              	.LFE331:
 1694              		.size	ROS_reset, .-ROS_reset
 1695              		.section	.text.append_crc,"ax",%progbits
 1696              		.align	1
 1697              		.p2align 2,,3
 1698              		.global	append_crc
 1699              		.syntax unified
 1700              		.thumb
 1701              		.thumb_func
 1702              		.fpu fpv4-sp-d16
 1703              		.type	append_crc, %function
 1704              	append_crc:
 1705              	.LFB334:
 1706              		.loc 1 116 0
 1707              		.cfi_startproc
 1708              		@ args = 0, pretend = 0, frame = 0
 1709              		@ frame_needed = 0, uses_anonymous_args = 0
 1710              	.LVL93:
ARM GAS  /tmp/ccv1PJEO.s 			page 31


 1711 0000 2DE9F041 		push	{r4, r5, r6, r7, r8, lr}
 1712              		.cfi_def_cfa_offset 24
 1713              		.cfi_offset 4, -24
 1714              		.cfi_offset 5, -20
 1715              		.cfi_offset 6, -16
 1716              		.cfi_offset 7, -12
 1717              		.cfi_offset 8, -8
 1718              		.cfi_offset 14, -4
 1719              		.loc 1 119 0
 1720 0004 4C1E     		subs	r4, r1, #1
 1721 0006 002C     		cmp	r4, #0
 1722 0008 5CDD     		ble	.L135
 1723 000a 0239     		subs	r1, r1, #2
 1724              	.LVL94:
 1725 000c FE29     		cmp	r1, #254
 1726 000e 4ED8     		bhi	.L136
 1727 0010 0C2C     		cmp	r4, #12
 1728 0012 4CD9     		bls	.L136
 1729 0014 0229     		cmp	r1, #2
 1730 0016 59D9     		bls	.L137
 1731 0018 0026     		movs	r6, #0
 1732 001a 2E49     		ldr	r1, .L148
 1733 001c 3246     		mov	r2, r6
 1734 001e 4FEA940C 		lsr	ip, r4, #2
 1735 0022 0746     		mov	r7, r0
 1736              	.LVL95:
 1737              	.L132:
 1738              		.loc 1 119 0 is_stmt 0 discriminator 2
 1739 0024 57F8043B 		ldr	r3, [r7], #4	@ unaligned
 1740 0028 02F07F35 		and	r5, r2, #2139062143
 1741 002c 03F07F3E 		and	lr, r3, #2139062143
 1742 0030 5A40     		eors	r2, r2, r3
 1743 0032 01F08038 		and	r8, r1, #-2139062144
 1744 0036 01F07F33 		and	r3, r1, #2139062143
 1745 003a 0136     		adds	r6, r6, #1
 1746 003c 7544     		add	r5, r5, lr
 1747 003e 02F08032 		and	r2, r2, #-2139062144
 1748 0042 03F1013E 		add	lr, r3, #16843009
 1749 0046 4146     		mov	r1, r8
 1750 0048 03F10433 		add	r3, r3, #67372036
 1751 004c B445     		cmp	ip, r6
 1752 004e 82EA0502 		eor	r2, r2, r5
 1753 0052 88EA0E0E 		eor	lr, r8, lr
 1754 0056 81EA0301 		eor	r1, r1, r3
 1755 005a E3D8     		bhi	.L132
 1756 005c C2F30725 		ubfx	r5, r2, #8, #8
 1757 0060 C2F30743 		ubfx	r3, r2, #16, #8
 1758 0064 1544     		add	r5, r5, r2
 1759 0066 1D44     		add	r5, r5, r3
 1760 0068 05EB1262 		add	r2, r5, r2, lsr #24
 1761 006c 24F00305 		bic	r5, r4, #3
 1762 0070 AC42     		cmp	r4, r5
 1763 0072 4FEA1E63 		lsr	r3, lr, #24
 1764 0076 D2B2     		uxtb	r2, r2
 1765 0078 E9B2     		uxtb	r1, r5
 1766 007a 12D0     		beq	.L134
 1767              	.L131:
ARM GAS  /tmp/ccv1PJEO.s 			page 32


 1768              	.LVL96:
 1769              		.loc 1 119 0
 1770 007c 455C     		ldrb	r5, [r0, r1]	@ zero_extendqisi2
 1771 007e 4B1C     		adds	r3, r1, #1
 1772 0080 DBB2     		uxtb	r3, r3
 1773              	.LVL97:
 1774 0082 2A44     		add	r2, r2, r5
 1775              	.LVL98:
 1776 0084 A342     		cmp	r3, r4
 1777 0086 D2B2     		uxtb	r2, r2
 1778              	.LVL99:
 1779 0088 0BDA     		bge	.L134
 1780 008a C55C     		ldrb	r5, [r0, r3]	@ zero_extendqisi2
 1781 008c 8B1C     		adds	r3, r1, #2
 1782              	.LVL100:
 1783 008e DBB2     		uxtb	r3, r3
 1784              	.LVL101:
 1785 0090 2A44     		add	r2, r2, r5
 1786              	.LVL102:
 1787 0092 9C42     		cmp	r4, r3
 1788 0094 D2B2     		uxtb	r2, r2
 1789              	.LVL103:
 1790 0096 04DD     		ble	.L134
 1791 0098 C45C     		ldrb	r4, [r0, r3]	@ zero_extendqisi2
 1792 009a CB1C     		adds	r3, r1, #3
 1793              	.LVL104:
 1794 009c 2244     		add	r2, r2, r4
 1795              	.LVL105:
 1796 009e D2B2     		uxtb	r2, r2
 1797 00a0 DBB2     		uxtb	r3, r3
 1798              	.LVL106:
 1799              	.L134:
 1800 00a2 5B3A     		subs	r2, r2, #91
 1801 00a4 1844     		add	r0, r0, r3
 1802              	.LVL107:
 1803 00a6 D2B2     		uxtb	r2, r2
 1804              		.loc 1 122 0 is_stmt 1
 1805 00a8 0270     		strb	r2, [r0]
 1806              		.loc 1 123 0
 1807 00aa BDE8F081 		pop	{r4, r5, r6, r7, r8, pc}
 1808              	.LVL108:
 1809              	.L136:
 1810              		.loc 1 118 0
 1811 00ae 0021     		movs	r1, #0
 1812              		.loc 1 117 0
 1813 00b0 0A46     		mov	r2, r1
 1814              	.LVL109:
 1815              	.L130:
 1816              		.loc 1 119 0
 1817 00b2 4B1C     		adds	r3, r1, #1
 1818 00b4 415C     		ldrb	r1, [r0, r1]	@ zero_extendqisi2
 1819              	.LVL110:
 1820 00b6 DBB2     		uxtb	r3, r3
 1821              	.LVL111:
 1822 00b8 0A44     		add	r2, r2, r1
 1823              	.LVL112:
 1824 00ba 9C42     		cmp	r4, r3
ARM GAS  /tmp/ccv1PJEO.s 			page 33


 1825 00bc 1946     		mov	r1, r3
 1826 00be D2B2     		uxtb	r2, r2
 1827              	.LVL113:
 1828 00c0 F7DC     		bgt	.L130
 1829 00c2 EEE7     		b	.L134
 1830              	.LVL114:
 1831              	.L135:
 1832 00c4 A522     		movs	r2, #165
 1833              	.LVL115:
 1834              		.loc 1 122 0
 1835 00c6 0270     		strb	r2, [r0]
 1836              		.loc 1 123 0
 1837 00c8 BDE8F081 		pop	{r4, r5, r6, r7, r8, pc}
 1838              	.LVL116:
 1839              	.L137:
 1840              		.loc 1 118 0
 1841 00cc 0021     		movs	r1, #0
 1842              		.loc 1 117 0
 1843 00ce 0A46     		mov	r2, r1
 1844 00d0 D4E7     		b	.L131
 1845              	.L149:
 1846 00d2 00BF     		.align	2
 1847              	.L148:
 1848 00d4 00010203 		.word	50462976
 1849              		.cfi_endproc
 1850              	.LFE334:
 1851              		.size	append_crc, .-append_crc
 1852              		.section	.text.ROS_txGimbalInfo,"ax",%progbits
 1853              		.align	1
 1854              		.p2align 2,,3
 1855              		.global	ROS_txGimbalInfo
 1856              		.syntax unified
 1857              		.thumb
 1858              		.thumb_func
 1859              		.fpu fpv4-sp-d16
 1860              		.type	ROS_txGimbalInfo, %function
 1861              	ROS_txGimbalInfo:
 1862              	.LFB341:
 1863              		.loc 1 256 0
 1864              		.cfi_startproc
 1865              		@ args = 0, pretend = 0, frame = 0
 1866              		@ frame_needed = 0, uses_anonymous_args = 0
 1867              	.LVL117:
 1868 0000 F8B5     		push	{r3, r4, r5, r6, r7, lr}
 1869              		.cfi_def_cfa_offset 24
 1870              		.cfi_offset 3, -24
 1871              		.cfi_offset 4, -20
 1872              		.cfi_offset 5, -16
 1873              		.cfi_offset 6, -12
 1874              		.cfi_offset 7, -8
 1875              		.cfi_offset 14, -4
 1876              		.loc 1 257 0
 1877 0002 594B     		ldr	r3, .L156
 1878 0004 1B78     		ldrb	r3, [r3]	@ zero_extendqisi2
 1879 0006 002B     		cmp	r3, #0
 1880 0008 00F0A980 		beq	.L153
 1881              		.loc 1 257 0 is_stmt 0 discriminator 1
ARM GAS  /tmp/ccv1PJEO.s 			page 34


 1882 000c 574B     		ldr	r3, .L156+4
 1883 000e 1B78     		ldrb	r3, [r3]	@ zero_extendqisi2
 1884 0010 002B     		cmp	r3, #0
 1885 0012 00F0A480 		beq	.L153
 1886              	.LBB432:
 1887              	.LBB433:
 1888              	.LBB434:
 1889              	.LBB435:
 1890              		.loc 4 147 0 is_stmt 1
 1891 0016 4FF08041 		mov	r1, #1073741824
 1892              	.LBE435:
 1893              	.LBE434:
 1894              	.LBE433:
 1895              	.LBE432:
 1896              		.loc 1 260 0
 1897 001a 554A     		ldr	r2, .L156+8
 1898              	.LBB439:
 1899              	.LBB438:
 1900              	.LBB437:
 1901              	.LBB436:
 1902              		.loc 4 147 0
 1903 001c 4B6A     		ldr	r3, [r1, #36]
 1904              	.LBE436:
 1905              	.LBE437:
 1906              	.LBE438:
 1907              	.LBE439:
 1908              		.loc 1 260 0
 1909 001e 1468     		ldr	r4, [r2]
 1910 0020 1B1B     		subs	r3, r3, r4
 1911 0022 082B     		cmp	r3, #8
 1912 0024 40F29D80 		bls	.L154
 1913              		.loc 1 271 0
 1914 0028 524C     		ldr	r4, .L156+12
 1915              	.LBB440:
 1916              	.LBB441:
 1917              	.LBB442:
 1918              	.LBB443:
 1919              		.loc 4 147 0
 1920 002a 496A     		ldr	r1, [r1, #36]
 1921              	.LBE443:
 1922              	.LBE442:
 1923              	.LBE441:
 1924              	.LBE440:
 1925              		.loc 1 278 0
 1926 002c C579     		ldrb	r5, [r0, #7]	@ zero_extendqisi2
 1927 002e 637C     		ldrb	r3, [r4, #17]	@ zero_extendqisi2
 1928              		.loc 1 263 0
 1929 0030 1160     		str	r1, [r2]
 1930              	.LVL118:
 1931              		.loc 1 279 0
 1932 0032 017A     		ldrb	r1, [r0, #8]	@ zero_extendqisi2
 1933              		.loc 1 276 0
 1934 0034 A278     		ldrb	r2, [r4, #2]	@ zero_extendqisi2
 1935              		.loc 1 291 0
 1936 0036 D0ED0A7A 		vldr.32	s15, [r0, #40]
 1937              		.loc 1 290 0
 1938 003a 90ED097A 		vldr.32	s14, [r0, #36]
ARM GAS  /tmp/ccv1PJEO.s 			page 35


 1939              		.loc 1 286 0
 1940 003e 8769     		ldr	r7, [r0, #24]	@ float
 1941              		.loc 1 278 0
 1942 0040 65F30003 		bfi	r3, r5, #0, #1
 1943              		.loc 1 279 0
 1944 0044 61F34103 		bfi	r3, r1, #1, #1
 1945 0048 6374     		strb	r3, [r4, #17]
 1946              		.loc 1 280 0
 1947 004a 417A     		ldrb	r1, [r0, #9]	@ zero_extendqisi2
 1948              		.loc 1 276 0
 1949 004c 90F82C50 		ldrb	r5, [r0, #44]	@ zero_extendqisi2
 1950              		.loc 1 280 0
 1951 0050 61F38303 		bfi	r3, r1, #2, #2
 1952              		.loc 1 276 0
 1953 0054 0A3D     		subs	r5, r5, #10
 1954              		.loc 1 277 0
 1955 0056 90F82D10 		ldrb	r1, [r0, #45]	@ zero_extendqisi2
 1956              		.loc 1 280 0
 1957 005a 6374     		strb	r3, [r4, #17]
 1958              		.loc 1 276 0
 1959 005c 65F30402 		bfi	r2, r5, #0, #5
 1960              		.loc 1 277 0
 1961 0060 1346     		mov	r3, r2
 1962              		.loc 1 282 0
 1963 0062 C568     		ldr	r5, [r0, #12]	@ float
 1964 0064 C4F80350 		str	r5, [r4, #3]	@ unaligned
 1965              		.loc 1 277 0
 1966 0068 A1F10A02 		sub	r2, r1, #10
 1967 006c 62F34713 		bfi	r3, r2, #5, #3
 1968              		.loc 1 283 0
 1969 0070 0169     		ldr	r1, [r0, #16]	@ float
 1970              		.loc 1 277 0
 1971 0072 A370     		strb	r3, [r4, #2]
 1972              		.loc 1 271 0
 1973 0074 40F2AA55 		movw	r5, #1450
 1974 0078 2580     		strh	r5, [r4]	@ movhi
 1975              	.LVL119:
 1976              		.loc 1 283 0
 1977 007a C4F80710 		str	r1, [r4, #7]	@ unaligned
 1978              	.LBB444:
 1979              	.LBB445:
 1980              		.loc 1 119 0
 1981 007e D4E90012 		ldrd	r1, r2, [r4]
 1982              	.LBE445:
 1983              	.LBE444:
 1984              		.loc 1 284 0
 1985 0082 4369     		ldr	r3, [r0, #20]	@ float
 1986 0084 C4F80B30 		str	r3, [r4, #11]	@ unaligned
 1987              		.loc 1 290 0
 1988 0088 F0EE476A 		vmov.f32	s13, s14
 1989              		.loc 1 291 0
 1990 008c B0EE677A 		vmov.f32	s14, s15
 1991              		.loc 1 290 0
 1992 0090 FEEEEC6A 		vcvt.s32.f32	s13, s13, #7
 1993              		.loc 1 291 0
 1994 0094 BEEEEC7A 		vcvt.s32.f32	s14, s14, #7
 1995              	.LBB451:
ARM GAS  /tmp/ccv1PJEO.s 			page 36


 1996              	.LBB446:
 1997              		.loc 1 119 0
 1998 0098 01F07F36 		and	r6, r1, #2139062143
 1999 009c 02F07F33 		and	r3, r2, #2139062143
 2000 00a0 5140     		eors	r1, r1, r2
 2001 00a2 3344     		add	r3, r3, r6
 2002 00a4 01F08031 		and	r1, r1, #-2139062144
 2003              	.LBE446:
 2004              	.LBE451:
 2005              		.loc 1 290 0
 2006 00a8 16EE905A 		vmov	r5, s13	@ int
 2007              	.LBB452:
 2008              	.LBB447:
 2009              		.loc 1 119 0
 2010 00ac 4B40     		eors	r3, r3, r1
 2011              	.LBE447:
 2012              	.LBE452:
 2013              		.loc 1 291 0
 2014 00ae 17EE101A 		vmov	r1, s14	@ int
 2015              	.LBB453:
 2016              	.LBB448:
 2017              		.loc 1 119 0
 2018 00b2 A268     		ldr	r2, [r4, #8]
 2019              	.LBE448:
 2020              	.LBE453:
 2021              		.loc 1 287 0
 2022 00b4 C669     		ldr	r6, [r0, #28]	@ float
 2023              		.loc 1 290 0
 2024 00b6 E573     		strb	r5, [r4, #15]
 2025              		.loc 1 286 0
 2026 00b8 C4F81270 		str	r7, [r4, #18]	@ unaligned
 2027              		.loc 1 288 0
 2028 00bc 056A     		ldr	r5, [r0, #32]	@ float
 2029              		.loc 1 291 0
 2030 00be 2174     		strb	r1, [r4, #16]
 2031              	.LVL120:
 2032              		.loc 1 287 0
 2033 00c0 C4F81660 		str	r6, [r4, #22]	@ unaligned
 2034              	.LBB454:
 2035              	.LBB449:
 2036              		.loc 1 119 0
 2037 00c4 03F07F30 		and	r0, r3, #2139062143
 2038              	.LVL121:
 2039              	.LBE449:
 2040              	.LBE454:
 2041              		.loc 1 288 0
 2042 00c8 C4F81A50 		str	r5, [r4, #26]	@ unaligned
 2043              	.LBB455:
 2044              	.LBB450:
 2045              		.loc 1 119 0
 2046 00cc 5340     		eors	r3, r3, r2
 2047 00ce D4E90315 		ldrd	r1, r5, [r4, #12]
 2048 00d2 02F07F32 		and	r2, r2, #2139062143
 2049 00d6 1044     		add	r0, r0, r2
 2050 00d8 03F08032 		and	r2, r3, #-2139062144
 2051 00dc 5040     		eors	r0, r0, r2
 2052 00de 00F07F32 		and	r2, r0, #2139062143
ARM GAS  /tmp/ccv1PJEO.s 			page 37


 2053 00e2 4840     		eors	r0, r0, r1
 2054 00e4 01F07F31 		and	r1, r1, #2139062143
 2055 00e8 0A44     		add	r2, r2, r1
 2056 00ea 00F08030 		and	r0, r0, #-2139062144
 2057 00ee 4240     		eors	r2, r2, r0
 2058 00f0 02F07F31 		and	r1, r2, #2139062143
 2059 00f4 6A40     		eors	r2, r2, r5
 2060 00f6 05F07F35 		and	r5, r5, #2139062143
 2061 00fa 6369     		ldr	r3, [r4, #20]
 2062 00fc 2944     		add	r1, r1, r5
 2063 00fe 02F08032 		and	r2, r2, #-2139062144
 2064 0102 5140     		eors	r1, r1, r2
 2065 0104 01F07F30 		and	r0, r1, #2139062143
 2066 0108 03F07F32 		and	r2, r3, #2139062143
 2067 010c 5940     		eors	r1, r1, r3
 2068 010e 0244     		add	r2, r2, r0
 2069 0110 01F08031 		and	r1, r1, #-2139062144
 2070 0114 A069     		ldr	r0, [r4, #24]
 2071              		.loc 1 120 0
 2072 0116 237F     		ldrb	r3, [r4, #28]	@ zero_extendqisi2
 2073 0118 657F     		ldrb	r5, [r4, #29]	@ zero_extendqisi2
 2074              		.loc 1 119 0
 2075 011a 4A40     		eors	r2, r2, r1
 2076 011c 02F07F31 		and	r1, r2, #2139062143
 2077 0120 4240     		eors	r2, r2, r0
 2078 0122 00F07F30 		and	r0, r0, #2139062143
 2079 0126 0144     		add	r1, r1, r0
 2080              		.loc 1 120 0
 2081 0128 5B3B     		subs	r3, r3, #91
 2082 012a A07F     		ldrb	r0, [r4, #30]	@ zero_extendqisi2
 2083 012c 2B44     		add	r3, r3, r5
 2084              		.loc 1 119 0
 2085 012e 02F08032 		and	r2, r2, #-2139062144
 2086 0132 4A40     		eors	r2, r2, r1
 2087              	.LVL122:
 2088              		.loc 1 120 0
 2089 0134 0344     		add	r3, r3, r0
 2090 0136 C2F30721 		ubfx	r1, r2, #8, #8
 2091 013a 1344     		add	r3, r3, r2
 2092 013c 0B44     		add	r3, r3, r1
 2093 013e C2F30741 		ubfx	r1, r2, #16, #8
 2094 0142 0B44     		add	r3, r3, r1
 2095 0144 03EB1263 		add	r3, r3, r2, lsr #24
 2096              		.loc 1 122 0
 2097 0148 E377     		strb	r3, [r4, #31]
 2098              	.LVL123:
 2099              	.LBE450:
 2100              	.LBE455:
 2101              		.loc 1 295 0
 2102 014a 0B48     		ldr	r0, .L156+16
 2103 014c FFF7FEFF 		bl	uartStopSend
 2104              	.LVL124:
 2105              		.loc 1 296 0
 2106 0150 2246     		mov	r2, r4
 2107 0152 2021     		movs	r1, #32
 2108 0154 0848     		ldr	r0, .L156+16
 2109 0156 FFF7FEFF 		bl	uartStartSend
ARM GAS  /tmp/ccv1PJEO.s 			page 38


 2110              	.LVL125:
 2111              		.loc 1 298 0
 2112 015a 0020     		movs	r0, #0
 2113              		.loc 1 299 0
 2114 015c F8BD     		pop	{r3, r4, r5, r6, r7, pc}
 2115              	.LVL126:
 2116              	.L153:
 2117              		.loc 1 258 0
 2118 015e 0120     		movs	r0, #1
 2119              	.LVL127:
 2120              		.loc 1 299 0
 2121 0160 F8BD     		pop	{r3, r4, r5, r6, r7, pc}
 2122              	.LVL128:
 2123              	.L154:
 2124              		.loc 1 261 0
 2125 0162 0220     		movs	r0, #2
 2126              	.LVL129:
 2127              		.loc 1 299 0
 2128 0164 F8BD     		pop	{r3, r4, r5, r6, r7, pc}
 2129              	.L157:
 2130 0166 00BF     		.align	2
 2131              	.L156:
 2132 0168 00000000 		.word	.LANCHOR2
 2133 016c 00000000 		.word	.LANCHOR7
 2134 0170 00000000 		.word	.LANCHOR5
 2135 0174 00000000 		.word	.LANCHOR6
 2136 0178 00000000 		.word	UARTD6
 2137              		.cfi_endproc
 2138              	.LFE341:
 2139              		.size	ROS_txGimbalInfo, .-ROS_txGimbalInfo
 2140              		.section	.text.ROS_Comm_Init,"ax",%progbits
 2141              		.align	1
 2142              		.p2align 2,,3
 2143              		.global	ROS_Comm_Init
 2144              		.syntax unified
 2145              		.thumb
 2146              		.thumb_func
 2147              		.fpu fpv4-sp-d16
 2148              		.type	ROS_Comm_Init, %function
 2149              	ROS_Comm_Init:
 2150              	.LFB343:
 2151              		.loc 1 441 0
 2152              		.cfi_startproc
 2153              		@ args = 0, pretend = 0, frame = 0
 2154              		@ frame_needed = 0, uses_anonymous_args = 0
 2155 0000 30B5     		push	{r4, r5, lr}
 2156              		.cfi_def_cfa_offset 12
 2157              		.cfi_offset 4, -12
 2158              		.cfi_offset 5, -8
 2159              		.cfi_offset 14, -4
 2160              		.loc 1 454 0
 2161 0002 114D     		ldr	r5, .L160
 2162              		.loc 1 441 0
 2163 0004 83B0     		sub	sp, sp, #12
 2164              		.cfi_def_cfa_offset 24
 2165              		.loc 1 454 0
 2166 0006 6022     		movs	r2, #96
ARM GAS  /tmp/ccv1PJEO.s 			page 39


 2167 0008 0021     		movs	r1, #0
 2168 000a 2846     		mov	r0, r5
 2169 000c FFF7FEFF 		bl	memset
 2170              	.LVL130:
 2171              		.loc 1 455 0
 2172 0010 0E4B     		ldr	r3, .L160+4
 2173 0012 0024     		movs	r4, #0
 2174 0014 C3E90044 		strd	r4, r4, [r3]
 2175 0018 C3E90244 		strd	r4, r4, [r3, #8]
 2176 001c 1C61     		str	r4, [r3, #16]
 2177              		.loc 1 457 0
 2178 001e 2846     		mov	r0, r5
 2179 0020 FFF7FEFF 		bl	chMtxObjectInit
 2180              	.LVL131:
 2181              		.loc 1 458 0
 2182 0024 05F11000 		add	r0, r5, #16
 2183 0028 FFF7FEFF 		bl	chCondObjectInit
 2184              	.LVL132:
 2185              		.loc 1 459 0
 2186 002c 0849     		ldr	r1, .L160+8
 2187 002e 0948     		ldr	r0, .L160+12
 2188 0030 FFF7FEFF 		bl	uartStart
 2189              	.LVL133:
 2190              		.loc 1 461 0
 2191 0034 0094     		str	r4, [sp]
 2192 0036 084B     		ldr	r3, .L160+16
 2193 0038 0848     		ldr	r0, .L160+20
 2194 003a 8422     		movs	r2, #132
 2195 003c 4FF41471 		mov	r1, #592
 2196 0040 FFF7FEFF 		bl	chThdCreateStatic
 2197              	.LVL134:
 2198              		.loc 1 463 0
 2199 0044 03B0     		add	sp, sp, #12
 2200              		.cfi_def_cfa_offset 12
 2201              		@ sp needed
 2202 0046 30BD     		pop	{r4, r5, pc}
 2203              	.L161:
 2204              		.align	2
 2205              	.L160:
 2206 0048 00000000 		.word	.LANCHOR3
 2207 004c 00000000 		.word	.LANCHOR4
 2208 0050 00000000 		.word	.LANCHOR15
 2209 0054 00000000 		.word	UARTD6
 2210 0058 00000000 		.word	uart_host_rx
 2211 005c 00000000 		.word	.LANCHOR16
 2212              		.cfi_endproc
 2213              	.LFE343:
 2214              		.size	ROS_Comm_Init, .-ROS_Comm_Init
 2215              		.section	.bss.chn_err_cnt.10270,"aw",%nobits
 2216              		.set	.LANCHOR12,. + 0
 2217              		.type	chn_err_cnt.10270, %object
 2218              		.size	chn_err_cnt.10270, 1
 2219              	chn_err_cnt.10270:
 2220 0000 00       		.space	1
 2221              		.section	.bss.crc_err_cnt.10272,"aw",%nobits
 2222              		.set	.LANCHOR9,. + 0
 2223              		.type	crc_err_cnt.10272, %object
ARM GAS  /tmp/ccv1PJEO.s 			page 40


 2224              		.size	crc_err_cnt.10272, 1
 2225              	crc_err_cnt.10272:
 2226 0000 00       		.space	1
 2227              		.section	.bss.errorCode,"aw",%nobits
 2228              		.align	1
 2229              		.set	.LANCHOR13,. + 0
 2230              		.type	errorCode, %object
 2231              		.size	errorCode, 2
 2232              	errorCode:
 2233 0000 0000     		.space	2
 2234              		.section	.bss.last_tx,"aw",%nobits
 2235              		.align	2
 2236              		.set	.LANCHOR5,. + 0
 2237              		.type	last_tx, %object
 2238              		.size	last_tx, 4
 2239              	last_tx:
 2240 0000 00000000 		.space	4
 2241              		.section	.bss.param,"aw",%nobits
 2242              		.align	2
 2243              		.set	.LANCHOR4,. + 0
 2244              		.type	param, %object
 2245              		.size	param, 20
 2246              	param:
 2247 0000 00000000 		.space	20
 2247      00000000 
 2247      00000000 
 2247      00000000 
 2247      00000000 
 2248              		.section	.bss.param_valid,"aw",%nobits
 2249              		.set	.LANCHOR7,. + 0
 2250              		.type	param_valid, %object
 2251              		.size	param_valid, 1
 2252              	param_valid:
 2253 0000 00       		.space	1
 2254              		.section	.bss.protocol_err_cnt,"aw",%nobits
 2255              		.set	.LANCHOR8,. + 0
 2256              		.type	protocol_err_cnt, %object
 2257              		.size	protocol_err_cnt, 1
 2258              	protocol_err_cnt:
 2259 0000 00       		.space	1
 2260              		.section	.bss.ros_connected,"aw",%nobits
 2261              		.set	.LANCHOR10,. + 0
 2262              		.type	ros_connected, %object
 2263              		.size	ros_connected, 1
 2264              	ros_connected:
 2265 0000 00       		.space	1
 2266              		.section	.bss.ros_rxbuf,"aw",%nobits
 2267              		.align	2
 2268              		.set	.LANCHOR1,. + 0
 2269              		.type	ros_rxbuf, %object
 2270              		.size	ros_rxbuf, 64
 2271              	ros_rxbuf:
 2272 0000 00000000 		.space	64
 2272      00000000 
 2272      00000000 
 2272      00000000 
 2272      00000000 
ARM GAS  /tmp/ccv1PJEO.s 			page 41


 2273              		.section	.bss.ros_sync_ok,"aw",%nobits
 2274              		.set	.LANCHOR2,. + 0
 2275              		.type	ros_sync_ok, %object
 2276              		.size	ros_sync_ok, 1
 2277              	ros_sync_ok:
 2278 0000 00       		.space	1
 2279              		.section	.bss.ros_txbuf,"aw",%nobits
 2280              		.align	2
 2281              		.set	.LANCHOR6,. + 0
 2282              		.type	ros_txbuf, %object
 2283              		.size	ros_txbuf, 64
 2284              	ros_txbuf:
 2285 0000 00000000 		.space	64
 2285      00000000 
 2285      00000000 
 2285      00000000 
 2285      00000000 
 2286              		.section	.bss.timeStamp_sync,"aw",%nobits
 2287              		.align	2
 2288              		.set	.LANCHOR14,. + 0
 2289              		.type	timeStamp_sync, %object
 2290              		.size	timeStamp_sync, 4
 2291              	timeStamp_sync:
 2292 0000 00000000 		.space	4
 2293              		.section	.bss.timeout_cnt.10271,"aw",%nobits
 2294              		.set	.LANCHOR11,. + 0
 2295              		.type	timeout_cnt.10271, %object
 2296              		.size	timeout_cnt.10271, 1
 2297              	timeout_cnt.10271:
 2298 0000 00       		.space	1
 2299              		.section	.bss.uart_host_rx_wa,"aw",%nobits
 2300              		.align	3
 2301              		.set	.LANCHOR16,. + 0
 2302              		.type	uart_host_rx_wa, %object
 2303              		.size	uart_host_rx_wa, 592
 2304              	uart_host_rx_wa:
 2305 0000 00000000 		.space	592
 2305      00000000 
 2305      00000000 
 2305      00000000 
 2305      00000000 
 2306              		.section	.bss.uart_rx_thd,"aw",%nobits
 2307              		.align	2
 2308              		.set	.LANCHOR0,. + 0
 2309              		.type	uart_rx_thd, %object
 2310              		.size	uart_rx_thd, 4
 2311              	uart_rx_thd:
 2312 0000 00000000 		.space	4
 2313              		.section	.bss.visualServo,"aw",%nobits
 2314              		.align	2
 2315              		.set	.LANCHOR3,. + 0
 2316              		.type	visualServo, %object
 2317              		.size	visualServo, 96
 2318              	visualServo:
 2319 0000 00000000 		.space	96
 2319      00000000 
 2319      00000000 
ARM GAS  /tmp/ccv1PJEO.s 			page 42


 2319      00000000 
 2319      00000000 
 2320              		.section	.rodata.UART_ROS_CONFIG.10291,"a",%progbits
 2321              		.align	2
 2322              		.set	.LANCHOR15,. + 0
 2323              		.type	UART_ROS_CONFIG.10291, %object
 2324              		.size	UART_ROS_CONFIG.10291, 32
 2325              	UART_ROS_CONFIG.10291:
 2326 0000 00000000 		.word	0
 2327 0004 00000000 		.word	0
 2328 0008 00000000 		.word	0
 2329 000c 00000000 		.word	0
 2330 0010 00000000 		.word	idle_err_cb
 2331 0014 00080700 		.word	460800
 2332 0018 1000     		.short	16
 2333 001a 0000     		.short	0
 2334 001c 0000     		.short	0
 2335 001e 0000     		.space	2
 2336              		.section	.rodata.uart_host_rx.str1.4,"aMS",%progbits,1
 2337              		.align	2
 2338              	.LC0:
 2339 0000 686F7374 		.ascii	"host communication RX\000"
 2339      20636F6D 
 2339      6D756E69 
 2339      63617469 
 2339      6F6E2052 
 2340              		.text
 2341              	.Letext0:
 2342              		.file 5 "/usr/lib/gcc/arm-none-eabi/7.3.1/include/stddef.h"
 2343              		.file 6 "/usr/arm-none-eabi/include/machine/_default_types.h"
 2344              		.file 7 "/usr/arm-none-eabi/include/sys/_stdint.h"
 2345              		.file 8 "./RM18A-ChibiOS18-Core/chibios/os/common/ports/ARMCMx/compilers/GCC/chtypes.h"
 2346              		.file 9 "./RM18A-ChibiOS18-Core/chibios/os/rt/include/chsystypes.h"
 2347              		.file 10 "./RM18A-ChibiOS18-Core/chibios/os/rt/include/chschd.h"
 2348              		.file 11 "./RM18A-ChibiOS18-Core/chibios/os/rt/include/chtime.h"
 2349              		.file 12 "./RM18A-ChibiOS18-Core/chibios/os/common/ext/ARM/CMSIS/Core/Include/core_cm4.h"
 2350              		.file 13 "./RM18A-ChibiOS18-Core/chibios/os/common/ext/ST/STM32F4xx/system_stm32f4xx.h"
 2351              		.file 14 "./RM18A-ChibiOS18-Core/chibios/os/common/ext/ST/STM32F4xx/stm32f427xx.h"
 2352              		.file 15 "./RM18A-ChibiOS18-Core/chibios/os/common/ports/ARMCMx/chcore.h"
 2353              		.file 16 "./RM18A-ChibiOS18-Core/chibios/os/common/ports/ARMCMx/chcore_v7m.h"
 2354              		.file 17 "./RM18A-ChibiOS18-Core/chibios/os/hal/ports/STM32/LLD/TIMv1/stm32_tim.h"
 2355              		.file 18 "./RM18A-ChibiOS18-Core/chibios/os/rt/include/chtm.h"
 2356              		.file 19 "./RM18A-ChibiOS18-Core/chibios/os/rt/include/chsem.h"
 2357              		.file 20 "./RM18A-ChibiOS18-Core/chibios/os/rt/include/chmtx.h"
 2358              		.file 21 "./RM18A-ChibiOS18-Core/chibios/os/rt/include/chsys.h"
 2359              		.file 22 "./RM18A-ChibiOS18-Core/chibios/os/rt/include/chcond.h"
 2360              		.file 23 "./RM18A-ChibiOS18-Core/chibios/os/rt/include/chevents.h"
 2361              		.file 24 "./RM18A-ChibiOS18-Core/chibios/os/oslib/include/chmemcore.h"
 2362              		.file 25 "./RM18A-ChibiOS18-Core/chibios/os/oslib/include/chmempools.h"
 2363              		.file 26 "./RM18A-ChibiOS18-Core/chibios/os/oslib/include/chfactory.h"
 2364              		.file 27 "./RM18A-ChibiOS18-Core/chibios/os/hal/ports/STM32/LLD/DMAv2/stm32_dma.h"
 2365              		.file 28 "./RM18A-ChibiOS18-Core/chibios/os/hal/include/hal_queues.h"
 2366              		.file 29 "./RM18A-ChibiOS18-Core/chibios/os/hal/include/hal_pal.h"
 2367              		.file 30 "./RM18A-ChibiOS18-Core/chibios/os/hal/ports/STM32/LLD/GPIOv2/hal_pal_lld.h"
 2368              		.file 31 "./RM18A-ChibiOS18-Core/chibios/os/hal/include/hal_adc.h"
 2369              		.file 32 "./RM18A-ChibiOS18-Core/chibios/os/hal/ports/STM32/LLD/ADCv2/hal_adc_lld.h"
 2370              		.file 33 "./RM18A-ChibiOS18-Core/chibios/os/hal/include/hal_can.h"
ARM GAS  /tmp/ccv1PJEO.s 			page 43


 2371              		.file 34 "./RM18A-ChibiOS18-Core/chibios/os/hal/ports/STM32/LLD/CANv1/hal_can_lld.h"
 2372              		.file 35 "./RM18A-ChibiOS18-Core/chibios/os/hal/include/hal_i2c.h"
 2373              		.file 36 "./RM18A-ChibiOS18-Core/chibios/os/hal/lib/fallback/I2C/hal_i2c_lld.h"
 2374              		.file 37 "./RM18A-ChibiOS18-Core/chibios/os/hal/include/hal_icu.h"
 2375              		.file 38 "./RM18A-ChibiOS18-Core/chibios/os/hal/ports/STM32/LLD/TIMv1/hal_icu_lld.h"
 2376              		.file 39 "./RM18A-ChibiOS18-Core/chibios/os/hal/include/hal_pwm.h"
 2377              		.file 40 "./RM18A-ChibiOS18-Core/chibios/os/hal/ports/STM32/LLD/TIMv1/hal_pwm_lld.h"
 2378              		.file 41 "./RM18A-ChibiOS18-Core/chibios/os/hal/include/hal_serial.h"
 2379              		.file 42 "./RM18A-ChibiOS18-Core/chibios/os/hal/ports/STM32/LLD/USARTv1/hal_serial_lld.h"
 2380              		.file 43 "./RM18A-ChibiOS18-Core/chibios/os/hal/include/hal_spi.h"
 2381              		.file 44 "./RM18A-ChibiOS18-Core/chibios/os/hal/ports/STM32/LLD/SPIv1/hal_spi_lld.h"
 2382              		.file 45 "./RM18A-ChibiOS18-Core/chibios/os/hal/include/hal_uart.h"
 2383              		.file 46 "./RM18A-ChibiOS18-Core/chibios/os/hal/ports/STM32/LLD/USARTv1/hal_uart_lld.h"
 2384              		.file 47 "./RM18A-ChibiOS18-Core/chibios/os/hal/include/hal_usb.h"
 2385              		.file 48 "./RM18A-ChibiOS18-Core/chibios/os/hal/ports/STM32/LLD/OTGv1/hal_usb_lld.h"
 2386              		.file 49 "./RM18A-ChibiOS18-Core/chibios/os/hal/ports/STM32/LLD/OTGv1/stm32_otg.h"
 2387              		.file 50 "./RM18A-ChibiOS18-Core/src/comm/rosUartProtocol.h"
 2388              		.file 51 "./RM18A-ChibiOS18-Core/src/comm/ros_comm.h"
 2389              		.file 52 "./RM18A-ChibiOS18-Core/chibios/os/rt/include/chvt.h"
 2390              		.file 53 "./RM18A-ChibiOS18-Core/chibios/os/common/ports/ARMCMx/chcore_timer.h"
 2391              		.file 54 "<built-in>"
 2392              		.file 55 "./RM18A-ChibiOS18-Core/chibios/os/rt/include/chthreads.h"