ARM GAS  /tmp/ccs3e2Sq.s 			page 1


   1              		.cpu cortex-m4
   2              		.eabi_attribute 27, 1
   3              		.eabi_attribute 28, 1
   4              		.eabi_attribute 20, 1
   5              		.eabi_attribute 21, 1
   6              		.eabi_attribute 23, 3
   7              		.eabi_attribute 24, 1
   8              		.eabi_attribute 25, 1
   9              		.eabi_attribute 26, 1
  10              		.eabi_attribute 30, 2
  11              		.eabi_attribute 34, 1
  12              		.eabi_attribute 18, 4
  13              		.file	"SH1106.c"
  14              		.text
  15              	.Ltext0:
  16              		.cfi_sections	.debug_frame
  17              		.section	.text.OLED_BufferInit,"ax",%progbits
  18              		.align	1
  19              		.p2align 2,,3
  20              		.global	OLED_BufferInit
  21              		.syntax unified
  22              		.thumb
  23              		.thumb_func
  24              		.fpu fpv4-sp-d16
  25              		.type	OLED_BufferInit, %function
  26              	OLED_BufferInit:
  27              	.LFB329:
  28              		.file 1 "./RM18A-ChibiOS18-Core/src/ext_hw/SH1106.c"
  29              		.loc 1 52 0
  30              		.cfi_startproc
  31              		@ args = 4, pretend = 0, frame = 0
  32              		@ frame_needed = 0, uses_anonymous_args = 0
  33              		@ link register save eliminated.
  34              	.LVL0:
  35 0000 F0B4     		push	{r4, r5, r6, r7}
  36              		.cfi_def_cfa_offset 16
  37              		.cfi_offset 4, -16
  38              		.cfi_offset 5, -12
  39              		.cfi_offset 6, -8
  40              		.cfi_offset 7, -4
  41              		.loc 1 54 0
  42 0002 11F00F06 		ands	r6, r1, #15
  43 0006 18BF     		it	ne
  44 0008 0126     		movne	r6, #1
  45 000a 12F00705 		ands	r5, r2, #7
  46 000e 06EB1116 		add	r6, r6, r1, lsr #4
  47              		.loc 1 55 0
  48 0012 01F1FF37 		add	r7, r1, #-1
  49              		.loc 1 54 0
  50 0016 18BF     		it	ne
  51 0018 0125     		movne	r5, #1
  52              		.loc 1 56 0
  53 001a 0170     		strb	r1, [r0]
  54              		.loc 1 52 0
  55 001c 0499     		ldr	r1, [sp, #16]
  56              	.LVL1:
  57              		.loc 1 56 0
ARM GAS  /tmp/ccs3e2Sq.s 			page 2


  58 001e 8670     		strb	r6, [r0, #2]
  59              		.loc 1 54 0
  60 0020 05EBD205 		add	r5, r5, r2, lsr #3
  61              		.loc 1 55 0
  62 0024 561E     		subs	r6, r2, #1
  63              		.loc 1 56 0
  64 0026 4270     		strb	r2, [r0, #1]
  65 0028 0022     		movs	r2, #0
  66              	.LVL2:
  67 002a 0782     		strh	r7, [r0, #16]	@ movhi
  68 002c C570     		strb	r5, [r0, #3]
  69 002e 4682     		strh	r6, [r0, #18]	@ movhi
  70 0030 4360     		str	r3, [r0, #4]
  71 0032 C0E90212 		strd	r1, r2, [r0, #8]
  72 0036 4261     		str	r2, [r0, #20]
  73 0038 0276     		strb	r2, [r0, #24]
  74              	.LVL3:
  75              		.loc 1 57 0
  76 003a F0BC     		pop	{r4, r5, r6, r7}
  77              		.cfi_restore 7
  78              		.cfi_restore 6
  79              		.cfi_restore 5
  80              		.cfi_restore 4
  81              		.cfi_def_cfa_offset 0
  82              	.LVL4:
  83 003c 7047     		bx	lr
  84              		.cfi_endproc
  85              	.LFE329:
  86              		.size	OLED_BufferInit, .-OLED_BufferInit
  87 003e 00BF     		.section	.text.OLED_setPos,"ax",%progbits
  88              		.align	1
  89              		.p2align 2,,3
  90              		.global	OLED_setPos
  91              		.syntax unified
  92              		.thumb
  93              		.thumb_func
  94              		.fpu fpv4-sp-d16
  95              		.type	OLED_setPos, %function
  96              	OLED_setPos:
  97              	.LFB331:
  98              		.loc 1 76 0
  99              		.cfi_startproc
 100              		@ args = 0, pretend = 0, frame = 0
 101              		@ frame_needed = 0, uses_anonymous_args = 0
 102              		@ link register save eliminated.
 103              	.LVL5:
 104              		.loc 1 77 0
 105 0000 8182     		strh	r1, [r0, #20]	@ movhi
 106              		.loc 1 78 0
 107 0002 C282     		strh	r2, [r0, #22]	@ movhi
 108              		.loc 1 79 0
 109 0004 7047     		bx	lr
 110              		.cfi_endproc
 111              	.LFE331:
 112              		.size	OLED_setPos, .-OLED_setPos
 113 0006 00BF     		.section	.text.OLED_writeData,"ax",%progbits
 114              		.align	1
ARM GAS  /tmp/ccs3e2Sq.s 			page 3


 115              		.p2align 2,,3
 116              		.global	OLED_writeData
 117              		.syntax unified
 118              		.thumb
 119              		.thumb_func
 120              		.fpu fpv4-sp-d16
 121              		.type	OLED_writeData, %function
 122              	OLED_writeData:
 123              	.LFB332:
 124              		.loc 1 82 0
 125              		.cfi_startproc
 126              		@ args = 0, pretend = 0, frame = 0
 127              		@ frame_needed = 0, uses_anonymous_args = 0
 128              	.LVL6:
 129              		.loc 1 83 0
 130 0000 B0F91430 		ldrsh	r3, [r0, #20]
 131 0004 B0F90C20 		ldrsh	r2, [r0, #12]
 132 0008 9A42     		cmp	r2, r3
 133 000a 71DC     		bgt	.L28
 134              		.loc 1 83 0 is_stmt 0 discriminator 1
 135 000c B0F91020 		ldrsh	r2, [r0, #16]
 136 0010 9A42     		cmp	r2, r3
 137 0012 6DDB     		blt	.L28
 138              		.loc 1 83 0 discriminator 2
 139 0014 B0F91620 		ldrsh	r2, [r0, #22]
 140              		.loc 1 82 0 is_stmt 1 discriminator 2
 141 0018 2DE9F041 		push	{r4, r5, r6, r7, r8, lr}
 142              		.cfi_def_cfa_offset 24
 143              		.cfi_offset 4, -24
 144              		.cfi_offset 5, -20
 145              		.cfi_offset 6, -16
 146              		.cfi_offset 7, -12
 147              		.cfi_offset 8, -8
 148              		.cfi_offset 14, -4
 149              		.loc 1 83 0 discriminator 2
 150 001c B0F90E40 		ldrsh	r4, [r0, #14]
 151 0020 D51D     		adds	r5, r2, #7
 152 0022 A542     		cmp	r5, r4
 153 0024 60DB     		blt	.L16
 154              		.loc 1 84 0 discriminator 3
 155 0026 E61F     		subs	r6, r4, #7
 156              		.loc 1 83 0 discriminator 3
 157 0028 B242     		cmp	r2, r6
 158 002a 5DDB     		blt	.L16
 159              		.loc 1 84 0
 160 002c 002B     		cmp	r3, #0
 161 002e 5BDB     		blt	.L16
 162              		.loc 1 84 0 is_stmt 0 discriminator 1
 163 0030 0678     		ldrb	r6, [r0]	@ zero_extendqisi2
 164 0032 B342     		cmp	r3, r6
 165 0034 58DA     		bge	.L16
 166              		.loc 1 84 0 discriminator 2
 167 0036 4778     		ldrb	r7, [r0, #1]	@ zero_extendqisi2
 168 0038 BA42     		cmp	r2, r7
 169 003a 55DA     		bge	.L16
 170              	.LVL7:
 171              		.loc 1 90 0 is_stmt 1
ARM GAS  /tmp/ccs3e2Sq.s 			page 4


 172 003c A242     		cmp	r2, r4
 173 003e 04DA     		bge	.L9
 174              		.loc 1 91 0
 175 0040 A41A     		subs	r4, r4, r2
 176 0042 FF27     		movs	r7, #255
 177 0044 07FA04F4 		lsl	r4, r7, r4
 178              	.LVL8:
 179 0048 2140     		ands	r1, r1, r4
 180              	.LVL9:
 181              	.L9:
 182              		.loc 1 92 0
 183 004a B0F91240 		ldrsh	r4, [r0, #18]
 184 004e 971D     		adds	r7, r2, #6
 185 0050 A742     		cmp	r7, r4
 186 0052 04DB     		blt	.L10
 187              		.loc 1 93 0
 188 0054 2C1B     		subs	r4, r5, r4
 189 0056 FF27     		movs	r7, #255
 190 0058 47FA04F4 		asr	r4, r7, r4
 191              	.LVL10:
 192 005c 2140     		ands	r1, r1, r4
 193              	.LVL11:
 194              	.L10:
 195              		.loc 1 95 0
 196 005e 15EA2205 		ands	r5, r5, r2, asr #32
 197 0062 38BF     		it	cc
 198 0064 1546     		movcc	r5, r2
 199 0066 D413     		asrs	r4, r2, #15
 200 0068 04EBE505 		add	r5, r4, r5, asr #3
 201 006c 1FFA85F8 		uxth	r8, r5
 202              		.loc 1 98 0
 203 0070 5442     		rsbs	r4, r2, #0
 204 0072 04F00704 		and	r4, r4, #7
 205 0076 02F00702 		and	r2, r2, #7
 206              		.loc 1 95 0
 207 007a 0FFA88F7 		sxth	r7, r8
 208              	.LVL12:
 209              		.loc 1 98 0
 210 007e 1546     		mov	r5, r2
 211 0080 58BF     		it	pl
 212 0082 6542     		rsbpl	r5, r4, #0
 213              	.LBB132:
 214              	.LBB133:
 215              		.loc 1 62 0
 216 0084 002F     		cmp	r7, #0
 217              	.LBE133:
 218              	.LBE132:
 219              		.loc 1 98 0
 220 0086 05F00704 		and	r4, r5, #7
 221              	.LVL13:
 222              	.LBB144:
 223              	.LBB140:
 224              		.loc 1 62 0
 225 008a 34DA     		bge	.L32
 226              	.L12:
 227              	.LVL14:
 228              	.LBE140:
ARM GAS  /tmp/ccs3e2Sq.s 			page 5


 229              	.LBE144:
 230              		.loc 1 100 0
 231 008c 62B3     		cbz	r2, .L16
 232              		.loc 1 102 0
 233 008e 08F10102 		add	r2, r8, #1
 234 0092 C4F10804 		rsb	r4, r4, #8
 235 0096 12B2     		sxth	r2, r2
 236 0098 2141     		asrs	r1, r1, r4
 237              	.LBB145:
 238              	.LBB146:
 239              		.loc 1 62 0
 240 009a 002A     		cmp	r2, #0
 241              	.LBE146:
 242              	.LBE145:
 243              		.loc 1 102 0
 244 009c CCB2     		uxtb	r4, r1
 245              	.LVL15:
 246              	.LBB163:
 247              	.LBB157:
 248              		.loc 1 62 0
 249 009e 23DB     		blt	.L16
 250              	.LVL16:
 251              	.L22:
 252              	.LBB147:
 253              	.LBB148:
 254 00a0 C578     		ldrb	r5, [r0, #3]	@ zero_extendqisi2
 255 00a2 AA42     		cmp	r2, r5
 256 00a4 20DA     		bge	.L16
 257              		.loc 1 64 0
 258 00a6 06FB0236 		mla	r6, r6, r2, r3
 259 00aa 8768     		ldr	r7, [r0, #8]
 260              		.loc 1 65 0
 261 00ac 90F818C0 		ldrb	ip, [r0, #24]	@ zero_extendqisi2
 262              		.loc 1 64 0
 263 00b0 BD5D     		ldrb	r5, [r7, r6]	@ zero_extendqisi2
 264              	.LVL17:
 265              		.loc 1 65 0
 266 00b2 BCF1000F 		cmp	ip, #0
 267 00b6 62D0     		beq	.L17
 268              		.loc 1 66 0
 269 00b8 25EA0101 		bic	r1, r5, r1
 270              	.L18:
 271 00bc B955     		strb	r1, [r7, r6]
 272              		.loc 1 69 0
 273 00be 0178     		ldrb	r1, [r0]	@ zero_extendqisi2
 274 00c0 8468     		ldr	r4, [r0, #8]
 275              	.LVL18:
 276 00c2 12FB0131 		smlabb	r1, r2, r1, r3
 277 00c6 615C     		ldrb	r1, [r4, r1]	@ zero_extendqisi2
 278 00c8 A942     		cmp	r1, r5
 279 00ca 0BD0     		beq	.L31
 280              		.loc 1 72 0
 281 00cc 8178     		ldrb	r1, [r0, #2]	@ zero_extendqisi2
 282 00ce 4468     		ldr	r4, [r0, #4]
 283 00d0 1D11     		asrs	r5, r3, #4
 284              	.LVL19:
 285 00d2 12FB0152 		smlabb	r2, r2, r1, r5
ARM GAS  /tmp/ccs3e2Sq.s 			page 6


 286              	.LVL20:
 287 00d6 C3F34205 		ubfx	r5, r3, #1, #3
 288 00da A15C     		ldrb	r1, [r4, r2]	@ zero_extendqisi2
 289 00dc 0123     		movs	r3, #1
 290              	.LVL21:
 291 00de AB40     		lsls	r3, r3, r5
 292 00e0 0B43     		orrs	r3, r3, r1
 293 00e2 A354     		strb	r3, [r4, r2]
 294              	.L31:
 295 00e4 B0F91430 		ldrsh	r3, [r0, #20]
 296              	.LVL22:
 297              	.L16:
 298              	.LBE148:
 299              	.LBE147:
 300              	.LBE157:
 301              	.LBE163:
 302              		.loc 1 104 0
 303 00e8 0133     		adds	r3, r3, #1
 304 00ea 8382     		strh	r3, [r0, #20]	@ movhi
 305              		.loc 1 105 0
 306 00ec BDE8F081 		pop	{r4, r5, r6, r7, r8, pc}
 307              	.LVL23:
 308              	.L28:
 309              		.cfi_def_cfa_offset 0
 310              		.cfi_restore 4
 311              		.cfi_restore 5
 312              		.cfi_restore 6
 313              		.cfi_restore 7
 314              		.cfi_restore 8
 315              		.cfi_restore 14
 316              		.loc 1 86 0
 317 00f0 0133     		adds	r3, r3, #1
 318 00f2 8382     		strh	r3, [r0, #20]	@ movhi
 319 00f4 7047     		bx	lr
 320              	.LVL24:
 321              	.L32:
 322              		.cfi_def_cfa_offset 24
 323              		.cfi_offset 4, -24
 324              		.cfi_offset 5, -20
 325              		.cfi_offset 6, -16
 326              		.cfi_offset 7, -12
 327              		.cfi_offset 8, -8
 328              		.cfi_offset 14, -4
 329              	.LBB164:
 330              	.LBB141:
 331              	.LBB134:
 332              	.LBB135:
 333              		.loc 1 62 0
 334 00f6 90F803C0 		ldrb	ip, [r0, #3]	@ zero_extendqisi2
 335 00fa 6745     		cmp	r7, ip
 336 00fc C6DA     		bge	.L12
 337              		.loc 1 64 0
 338 00fe 17FB0636 		smlabb	r6, r7, r6, r3
 339 0102 D0F808E0 		ldr	lr, [r0, #8]
 340              		.loc 1 65 0
 341 0106 027E     		ldrb	r2, [r0, #24]	@ zero_extendqisi2
 342              		.loc 1 64 0
ARM GAS  /tmp/ccs3e2Sq.s 			page 7


 343 0108 1EF806C0 		ldrb	ip, [lr, r6]	@ zero_extendqisi2
 344              	.LVL25:
 345              	.LBE135:
 346              	.LBE134:
 347              	.LBE141:
 348              	.LBE164:
 349              		.loc 1 98 0
 350 010c 01FA04F4 		lsl	r4, r1, r4
 351              	.LBB165:
 352              	.LBB142:
 353              	.LBB138:
 354              	.LBB136:
 355              		.loc 1 65 0
 356 0110 8AB3     		cbz	r2, .L13
 357              		.loc 1 66 0
 358 0112 2CEA0402 		bic	r2, ip, r4
 359              	.L14:
 360 0116 0EF80620 		strb	r2, [lr, r6]
 361              		.loc 1 69 0
 362 011a 0278     		ldrb	r2, [r0]	@ zero_extendqisi2
 363 011c 8468     		ldr	r4, [r0, #8]
 364 011e 17FB0232 		smlabb	r2, r7, r2, r3
 365 0122 A25C     		ldrb	r2, [r4, r2]	@ zero_extendqisi2
 366 0124 6245     		cmp	r2, ip
 367 0126 0BD0     		beq	.L15
 368              		.loc 1 72 0
 369 0128 8678     		ldrb	r6, [r0, #2]	@ zero_extendqisi2
 370 012a 4468     		ldr	r4, [r0, #4]
 371 012c 1A11     		asrs	r2, r3, #4
 372 012e 17FB0622 		smlabb	r2, r7, r6, r2
 373 0132 C3F34207 		ubfx	r7, r3, #1, #3
 374              	.LVL26:
 375 0136 A65C     		ldrb	r6, [r4, r2]	@ zero_extendqisi2
 376 0138 0123     		movs	r3, #1
 377              	.LVL27:
 378 013a BB40     		lsls	r3, r3, r7
 379 013c 3343     		orrs	r3, r3, r6
 380 013e A354     		strb	r3, [r4, r2]
 381              	.L15:
 382              	.LVL28:
 383              	.LBE136:
 384              	.LBE138:
 385              	.LBE142:
 386              	.LBE165:
 387              		.loc 1 100 0
 388 0140 B0F91620 		ldrsh	r2, [r0, #22]
 389 0144 B0F91430 		ldrsh	r3, [r0, #20]
 390 0148 12F00704 		ands	r4, r2, #7
 391 014c CCD0     		beq	.L16
 392              	.LVL29:
 393              	.LBB166:
 394              	.LBB158:
 395              		.loc 1 62 0
 396 014e 002B     		cmp	r3, #0
 397 0150 CADB     		blt	.L16
 398              	.LBE158:
 399              	.LBE166:
ARM GAS  /tmp/ccs3e2Sq.s 			page 8


 400              		.loc 1 102 0
 401 0152 5242     		rsbs	r2, r2, #0
 402              	.LVL30:
 403 0154 02F00702 		and	r2, r2, #7
 404 0158 58BF     		it	pl
 405 015a 5442     		rsbpl	r4, r2, #0
 406 015c 04F00702 		and	r2, r4, #7
 407              	.LBB167:
 408              	.LBB159:
 409              	.LBB153:
 410              	.LBB149:
 411              		.loc 1 62 0
 412 0160 0678     		ldrb	r6, [r0]	@ zero_extendqisi2
 413              	.LBE149:
 414              	.LBE153:
 415              	.LBE159:
 416              	.LBE167:
 417              		.loc 1 102 0
 418 0162 C2F10802 		rsb	r2, r2, #8
 419 0166 1141     		asrs	r1, r1, r2
 420              	.LVL31:
 421              	.LBB168:
 422              	.LBB160:
 423              	.LBB154:
 424              	.LBB150:
 425              		.loc 1 62 0
 426 0168 B342     		cmp	r3, r6
 427              	.LBE150:
 428              	.LBE154:
 429              	.LBE160:
 430              	.LBE168:
 431              		.loc 1 102 0
 432 016a 08F10102 		add	r2, r8, #1
 433 016e 12B2     		sxth	r2, r2
 434 0170 CCB2     		uxtb	r4, r1
 435              	.LVL32:
 436              	.LBB169:
 437              	.LBB161:
 438              	.LBB155:
 439              	.LBB151:
 440              		.loc 1 62 0
 441 0172 B9DA     		bge	.L16
 442 0174 94E7     		b	.L22
 443              	.LVL33:
 444              	.L13:
 445              	.LBE151:
 446              	.LBE155:
 447              	.LBE161:
 448              	.LBE169:
 449              	.LBB170:
 450              	.LBB143:
 451              	.LBB139:
 452              	.LBB137:
 453              		.loc 1 68 0
 454 0176 4CEA0402 		orr	r2, ip, r4
 455 017a D2B2     		uxtb	r2, r2
 456 017c CBE7     		b	.L14
ARM GAS  /tmp/ccs3e2Sq.s 			page 9


 457              	.LVL34:
 458              	.L17:
 459              	.LBE137:
 460              	.LBE139:
 461              	.LBE143:
 462              	.LBE170:
 463              	.LBB171:
 464              	.LBB162:
 465              	.LBB156:
 466              	.LBB152:
 467 017e 45EA0401 		orr	r1, r5, r4
 468 0182 9BE7     		b	.L18
 469              	.LBE152:
 470              	.LBE156:
 471              	.LBE162:
 472              	.LBE171:
 473              		.cfi_endproc
 474              	.LFE332:
 475              		.size	OLED_writeData, .-OLED_writeData
 476              		.section	.text.OLED_drawChar,"ax",%progbits
 477              		.align	1
 478              		.p2align 2,,3
 479              		.global	OLED_drawChar
 480              		.syntax unified
 481              		.thumb
 482              		.thumb_func
 483              		.fpu fpv4-sp-d16
 484              		.type	OLED_drawChar, %function
 485              	OLED_drawChar:
 486              	.LFB333:
 487              		.loc 1 109 0
 488              		.cfi_startproc
 489              		@ args = 8, pretend = 0, frame = 24
 490              		@ frame_needed = 0, uses_anonymous_args = 0
 491              	.LVL35:
 492 0000 2DE9F04F 		push	{r4, r5, r6, r7, r8, r9, r10, fp, lr}
 493              		.cfi_def_cfa_offset 36
 494              		.cfi_offset 4, -36
 495              		.cfi_offset 5, -32
 496              		.cfi_offset 6, -28
 497              		.cfi_offset 7, -24
 498              		.cfi_offset 8, -20
 499              		.cfi_offset 9, -16
 500              		.cfi_offset 10, -12
 501              		.cfi_offset 11, -8
 502              		.cfi_offset 14, -4
 503 0004 87B0     		sub	sp, sp, #28
 504              		.cfi_def_cfa_offset 64
 505              		.loc 1 111 0
 506 0006 203B     		subs	r3, r3, #32
 507              	.LVL36:
 508              		.loc 1 109 0
 509 0008 9DF84450 		ldrb	r5, [sp, #68]	@ zero_extendqisi2
 510 000c 9DF84040 		ldrb	r4, [sp, #64]	@ zero_extendqisi2
 511              		.loc 1 113 0
 512 0010 072D     		cmp	r5, #7
 513              		.loc 1 111 0
ARM GAS  /tmp/ccs3e2Sq.s 			page 10


 514 0012 DBB2     		uxtb	r3, r3
 515              	.LVL37:
 516              		.loc 1 113 0
 517 0014 00F25681 		bhi	.L95
 518              		.loc 1 114 0
 519 0018 C5F10807 		rsb	r7, r5, #8
 520 001c FF26     		movs	r6, #255
 521 001e 3E41     		asrs	r6, r6, r7
 522              		.loc 1 115 0
 523 0020 082C     		cmp	r4, #8
 524              		.loc 1 114 0
 525 0022 5FFA86FB 		uxtb	fp, r6
 526              	.LVL38:
 527              		.loc 1 115 0
 528 0026 00F05281 		beq	.L36
 529              	.L117:
 530 002a 102C     		cmp	r4, #16
 531 002c 40F04581 		bne	.L33
 532              	.LVL39:
 533              		.loc 1 120 0
 534 0030 A34C     		ldr	r4, .L119
 535              	.LBB214:
 536              	.LBB215:
 537              		.loc 1 77 0
 538 0032 8182     		strh	r1, [r0, #20]	@ movhi
 539              	.LBE215:
 540              	.LBE214:
 541              		.loc 1 120 0
 542 0034 4FEA031A 		lsl	r10, r3, #4
 543 0038 04EB0A09 		add	r9, r4, r10
 544              	.LBB217:
 545              	.LBB216:
 546              		.loc 1 78 0
 547 003c C282     		strh	r2, [r0, #22]	@ movhi
 548              	.LVL40:
 549              	.LBE216:
 550              	.LBE217:
 551              		.loc 1 120 0
 552 003e 0B46     		mov	r3, r1
 553              	.LVL41:
 554 0040 0024     		movs	r4, #0
 555              	.LBB218:
 556              	.LBB219:
 557              		.loc 1 93 0
 558 0042 4FF0FF08 		mov	r8, #255
 559 0046 0192     		str	r2, [sp, #4]
 560              	.LVL42:
 561              	.L52:
 562              		.loc 1 83 0 discriminator 3
 563 0048 B0F90C60 		ldrsh	r6, [r0, #12]
 564 004c 9E42     		cmp	r6, r3
 565 004e 00F39280 		bgt	.L48
 566              		.loc 1 83 0 is_stmt 0
 567 0052 B0F91060 		ldrsh	r6, [r0, #16]
 568 0056 9E42     		cmp	r6, r3
 569 0058 C0F28D80 		blt	.L48
 570 005c B0F91660 		ldrsh	r6, [r0, #22]
ARM GAS  /tmp/ccs3e2Sq.s 			page 11


 571 0060 B0F90E70 		ldrsh	r7, [r0, #14]
 572 0064 06F1070C 		add	ip, r6, #7
 573 0068 BC45     		cmp	ip, r7
 574 006a C0F28480 		blt	.L48
 575              		.loc 1 84 0 is_stmt 1
 576 006e A7F1070E 		sub	lr, r7, #7
 577              		.loc 1 83 0
 578 0072 7645     		cmp	r6, lr
 579 0074 7FDB     		blt	.L48
 580              		.loc 1 84 0
 581 0076 002B     		cmp	r3, #0
 582 0078 7DDB     		blt	.L48
 583 007a 0278     		ldrb	r2, [r0]	@ zero_extendqisi2
 584 007c 0292     		str	r2, [sp, #8]
 585 007e 9342     		cmp	r3, r2
 586 0080 79DA     		bge	.L48
 587 0082 90F801E0 		ldrb	lr, [r0, #1]	@ zero_extendqisi2
 588 0086 7645     		cmp	r6, lr
 589 0088 75DA     		bge	.L48
 590              	.LBE219:
 591              	.LBE218:
 592              		.loc 1 120 0
 593 008a 19F804E0 		ldrb	lr, [r9, r4]	@ zero_extendqisi2
 594              	.LBB266:
 595              	.LBB260:
 596              		.loc 1 90 0
 597 008e BE42     		cmp	r6, r7
 598              	.LBE260:
 599              	.LBE266:
 600              		.loc 1 120 0
 601 0090 0BEA0E02 		and	r2, fp, lr
 602 0094 0392     		str	r2, [sp, #12]
 603              	.LVL43:
 604              	.LBB267:
 605              	.LBB261:
 606              		.loc 1 90 0
 607 0096 04DA     		bge	.L41
 608              		.loc 1 91 0
 609 0098 BF1B     		subs	r7, r7, r6
 610 009a 08FA07F7 		lsl	r7, r8, r7
 611 009e 3A40     		ands	r2, r2, r7
 612 00a0 0392     		str	r2, [sp, #12]
 613              	.LVL44:
 614              	.L41:
 615              		.loc 1 92 0
 616 00a2 B0F91270 		ldrsh	r7, [r0, #18]
 617 00a6 06F1060E 		add	lr, r6, #6
 618 00aa BE45     		cmp	lr, r7
 619 00ac 06DB     		blt	.L42
 620              		.loc 1 93 0
 621 00ae 039A     		ldr	r2, [sp, #12]
 622 00b0 ACEB0707 		sub	r7, ip, r7
 623 00b4 48FA07F7 		asr	r7, r8, r7
 624              	.LVL45:
 625 00b8 3A40     		ands	r2, r2, r7
 626              	.LVL46:
 627 00ba 0392     		str	r2, [sp, #12]
ARM GAS  /tmp/ccs3e2Sq.s 			page 12


 628              	.LVL47:
 629              	.L42:
 630              		.loc 1 95 0
 631 00bc 1CEA260C 		ands	ip, ip, r6, asr #32
 632 00c0 38BF     		it	cc
 633 00c2 B446     		movcc	ip, r6
 634 00c4 F713     		asrs	r7, r6, #15
 635 00c6 07EBEC0C 		add	ip, r7, ip, asr #3
 636 00ca 1FFA8CF2 		uxth	r2, ip
 637              		.loc 1 98 0
 638 00ce 7742     		rsbs	r7, r6, #0
 639 00d0 07F00707 		and	r7, r7, #7
 640 00d4 06F00706 		and	r6, r6, #7
 641              		.loc 1 95 0
 642 00d8 0FFA82FC 		sxth	ip, r2
 643              	.LVL48:
 644              		.loc 1 98 0
 645 00dc B646     		mov	lr, r6
 646 00de 58BF     		it	pl
 647 00e0 C7F1000E 		rsbpl	lr, r7, #0
 648              	.LBB220:
 649              	.LBB221:
 650              		.loc 1 62 0
 651 00e4 BCF1000F 		cmp	ip, #0
 652              	.LBE221:
 653              	.LBE220:
 654              		.loc 1 95 0
 655 00e8 0492     		str	r2, [sp, #16]
 656              		.loc 1 98 0
 657 00ea 0EF0070E 		and	lr, lr, #7
 658              	.LVL49:
 659              	.LBB232:
 660              	.LBB228:
 661              		.loc 1 62 0
 662 00ee 80F28981 		bge	.L115
 663              	.L44:
 664              	.LVL50:
 665              	.LBE228:
 666              	.LBE232:
 667              		.loc 1 100 0
 668 00f2 002E     		cmp	r6, #0
 669 00f4 3FD0     		beq	.L48
 670              		.loc 1 102 0
 671 00f6 049A     		ldr	r2, [sp, #16]
 672 00f8 02F1010C 		add	ip, r2, #1
 673              	.LVL51:
 674 00fc 039A     		ldr	r2, [sp, #12]
 675 00fe CEF1080E 		rsb	lr, lr, #8
 676 0102 42FA0EFE 		asr	lr, r2, lr
 677 0106 0FFA8CFC 		sxth	ip, ip
 678 010a 5FFA8EF2 		uxtb	r2, lr
 679              	.LBB233:
 680              	.LBB234:
 681              		.loc 1 62 0
 682 010e BCF1000F 		cmp	ip, #0
 683              	.LBE234:
 684              	.LBE233:
ARM GAS  /tmp/ccs3e2Sq.s 			page 13


 685              		.loc 1 102 0
 686 0112 0392     		str	r2, [sp, #12]
 687              	.LVL52:
 688              	.LBB251:
 689              	.LBB245:
 690              		.loc 1 62 0
 691 0114 2FDB     		blt	.L48
 692              	.LVL53:
 693              	.LBB235:
 694              	.LBB236:
 695 0116 029E     		ldr	r6, [sp, #8]
 696              	.L92:
 697              	.LVL54:
 698 0118 C778     		ldrb	r7, [r0, #3]	@ zero_extendqisi2
 699 011a BC45     		cmp	ip, r7
 700 011c 2BDA     		bge	.L48
 701              		.loc 1 64 0
 702 011e 8268     		ldr	r2, [r0, #8]
 703              		.loc 1 65 0
 704 0120 077E     		ldrb	r7, [r0, #24]	@ zero_extendqisi2
 705 0122 0497     		str	r7, [sp, #16]
 706              	.LVL55:
 707              		.loc 1 64 0
 708 0124 06FB0C36 		mla	r6, r6, ip, r3
 709 0128 0292     		str	r2, [sp, #8]
 710 012a 975D     		ldrb	r7, [r2, r6]	@ zero_extendqisi2
 711              	.LVL56:
 712              		.loc 1 65 0
 713 012c 049A     		ldr	r2, [sp, #16]
 714 012e 002A     		cmp	r2, #0
 715 0130 00F06A82 		beq	.L49
 716              		.loc 1 66 0
 717 0134 27EA0E0E 		bic	lr, r7, lr
 718              	.L50:
 719 0138 029A     		ldr	r2, [sp, #8]
 720 013a 02F806E0 		strb	lr, [r2, r6]
 721              		.loc 1 69 0
 722 013e 90F800E0 		ldrb	lr, [r0]	@ zero_extendqisi2
 723 0142 8668     		ldr	r6, [r0, #8]
 724 0144 1CFB0E3E 		smlabb	lr, ip, lr, r3
 725 0148 16F80E60 		ldrb	r6, [r6, lr]	@ zero_extendqisi2
 726 014c BE42     		cmp	r6, r7
 727 014e 10D0     		beq	.L112
 728              		.loc 1 72 0
 729 0150 90F802E0 		ldrb	lr, [r0, #2]	@ zero_extendqisi2
 730 0154 4668     		ldr	r6, [r0, #4]
 731 0156 43F30F17 		sbfx	r7, r3, #4, #16
 732              	.LVL57:
 733 015a 1CFB0E7C 		smlabb	ip, ip, lr, r7
 734              	.LVL58:
 735 015e C3F34203 		ubfx	r3, r3, #1, #3
 736              	.LVL59:
 737 0162 16F80C70 		ldrb	r7, [r6, ip]	@ zero_extendqisi2
 738 0166 0122     		movs	r2, #1
 739 0168 02FA03F3 		lsl	r3, r2, r3
 740 016c 3B43     		orrs	r3, r3, r7
 741 016e 06F80C30 		strb	r3, [r6, ip]
ARM GAS  /tmp/ccs3e2Sq.s 			page 14


 742              	.L112:
 743 0172 B0F91430 		ldrsh	r3, [r0, #20]
 744              	.LVL60:
 745              	.L48:
 746              	.LBE236:
 747              	.LBE235:
 748              	.LBE245:
 749              	.LBE251:
 750              		.loc 1 104 0
 751 0176 0133     		adds	r3, r3, #1
 752 0178 0134     		adds	r4, r4, #1
 753              	.LVL61:
 754 017a 1BB2     		sxth	r3, r3
 755              	.LBE261:
 756              	.LBE267:
 757              		.loc 1 119 0
 758 017c 082C     		cmp	r4, #8
 759              	.LBB268:
 760              	.LBB262:
 761              		.loc 1 104 0
 762 017e 8382     		strh	r3, [r0, #20]	@ movhi
 763              	.LVL62:
 764              	.LBE262:
 765              	.LBE268:
 766              		.loc 1 119 0
 767 0180 7FF462AF 		bne	.L52
 768              		.loc 1 121 0
 769 0184 082D     		cmp	r5, #8
 770 0186 019A     		ldr	r2, [sp, #4]
 771 0188 40F29780 		bls	.L33
 772              		.loc 1 123 0
 773 018c 0F2D     		cmp	r5, #15
 774 018e 06D8     		bhi	.L54
 775              		.loc 1 124 0
 776 0190 C5F11005 		rsb	r5, r5, #16
 777 0194 FF23     		movs	r3, #255
 778 0196 43FA05F5 		asr	r5, r3, r5
 779 019a 5FFA85FB 		uxtb	fp, r5
 780              	.LVL63:
 781              	.L54:
 782              		.loc 1 125 0
 783 019e 0832     		adds	r2, r2, #8
 784              	.LVL64:
 785              		.loc 1 127 0
 786 01a0 474E     		ldr	r6, .L119
 787              	.LBB269:
 788              	.LBB270:
 789              		.loc 1 78 0
 790 01a2 C282     		strh	r2, [r0, #22]	@ movhi
 791              	.LVL65:
 792              		.loc 1 77 0
 793 01a4 8182     		strh	r1, [r0, #20]	@ movhi
 794              		.loc 1 78 0
 795 01a6 0023     		movs	r3, #0
 796              	.LBE270:
 797              	.LBE269:
 798              	.LBB271:
ARM GAS  /tmp/ccs3e2Sq.s 			page 15


 799              	.LBB272:
 800              	.LBB273:
 801              	.LBB274:
 802              	.LBB275:
 803              	.LBB276:
 804              		.loc 1 72 0
 805 01a8 4FF0010C 		mov	ip, #1
 806              	.LVL66:
 807              	.L69:
 808              	.LBE276:
 809              	.LBE275:
 810              	.LBE274:
 811              	.LBE273:
 812              		.loc 1 83 0 discriminator 3
 813 01ac B0F90C20 		ldrsh	r2, [r0, #12]
 814 01b0 8A42     		cmp	r2, r1
 815 01b2 7BDC     		bgt	.L65
 816              		.loc 1 83 0 is_stmt 0
 817 01b4 B0F91020 		ldrsh	r2, [r0, #16]
 818 01b8 8A42     		cmp	r2, r1
 819 01ba 77DB     		blt	.L65
 820 01bc B0F91640 		ldrsh	r4, [r0, #22]
 821 01c0 B0F90E70 		ldrsh	r7, [r0, #14]
 822 01c4 04F10708 		add	r8, r4, #7
 823 01c8 B845     		cmp	r8, r7
 824 01ca 6FDB     		blt	.L65
 825              		.loc 1 84 0 is_stmt 1
 826 01cc FA1F     		subs	r2, r7, #7
 827              		.loc 1 83 0
 828 01ce 9442     		cmp	r4, r2
 829 01d0 6CDB     		blt	.L65
 830              		.loc 1 84 0
 831 01d2 0029     		cmp	r1, #0
 832 01d4 6ADB     		blt	.L65
 833 01d6 90F800E0 		ldrb	lr, [r0]	@ zero_extendqisi2
 834 01da 7145     		cmp	r1, lr
 835 01dc 66DA     		bge	.L65
 836 01de 4278     		ldrb	r2, [r0, #1]	@ zero_extendqisi2
 837 01e0 9442     		cmp	r4, r2
 838 01e2 63DA     		bge	.L65
 839              	.LBE272:
 840              	.LBE271:
 841              		.loc 1 127 0
 842 01e4 0AEB0302 		add	r2, r10, r3
 843 01e8 3244     		add	r2, r2, r6
 844              	.LBB323:
 845              	.LBB317:
 846              		.loc 1 90 0
 847 01ea BC42     		cmp	r4, r7
 848              	.LBE317:
 849              	.LBE323:
 850              		.loc 1 127 0
 851 01ec 127A     		ldrb	r2, [r2, #8]	@ zero_extendqisi2
 852 01ee 0BEA0202 		and	r2, fp, r2
 853              	.LVL67:
 854              	.LBB324:
 855              	.LBB318:
ARM GAS  /tmp/ccs3e2Sq.s 			page 16


 856              		.loc 1 90 0
 857 01f2 04DA     		bge	.L58
 858              		.loc 1 91 0
 859 01f4 3F1B     		subs	r7, r7, r4
 860 01f6 FF25     		movs	r5, #255
 861 01f8 05FA07F7 		lsl	r7, r5, r7
 862 01fc 3A40     		ands	r2, r2, r7
 863              	.LVL68:
 864              	.L58:
 865              		.loc 1 92 0
 866 01fe B0F91270 		ldrsh	r7, [r0, #18]
 867 0202 04F10609 		add	r9, r4, #6
 868 0206 B945     		cmp	r9, r7
 869 0208 05DB     		blt	.L59
 870              		.loc 1 93 0
 871 020a A8EB0707 		sub	r7, r8, r7
 872 020e FF25     		movs	r5, #255
 873 0210 45FA07F7 		asr	r7, r5, r7
 874              	.LVL69:
 875 0214 3A40     		ands	r2, r2, r7
 876              	.LVL70:
 877              	.L59:
 878              		.loc 1 95 0
 879 0216 18EA2408 		ands	r8, r8, r4, asr #32
 880 021a 38BF     		it	cc
 881 021c A046     		movcc	r8, r4
 882 021e E713     		asrs	r7, r4, #15
 883 0220 07EBE808 		add	r8, r7, r8, asr #3
 884 0224 1FFA88F9 		uxth	r9, r8
 885              		.loc 1 98 0
 886 0228 6742     		rsbs	r7, r4, #0
 887 022a 07F00707 		and	r7, r7, #7
 888 022e 04F00704 		and	r4, r4, #7
 889              		.loc 1 95 0
 890 0232 0FFA89F8 		sxth	r8, r9
 891              	.LVL71:
 892              		.loc 1 98 0
 893 0236 2546     		mov	r5, r4
 894 0238 58BF     		it	pl
 895 023a 7D42     		rsbpl	r5, r7, #0
 896              	.LBB294:
 897              	.LBB295:
 898              		.loc 1 62 0
 899 023c B8F1000F 		cmp	r8, #0
 900              	.LBE295:
 901              	.LBE294:
 902              		.loc 1 98 0
 903 0240 05F00707 		and	r7, r5, #7
 904              	.LVL72:
 905              	.LBB306:
 906              	.LBB302:
 907              		.loc 1 62 0
 908 0244 80F28181 		bge	.L116
 909              	.L61:
 910              	.LVL73:
 911              	.LBE302:
 912              	.LBE306:
ARM GAS  /tmp/ccs3e2Sq.s 			page 17


 913              		.loc 1 100 0
 914 0248 84B3     		cbz	r4, .L65
 915              		.loc 1 102 0
 916 024a 09F10104 		add	r4, r9, #1
 917 024e C7F10807 		rsb	r7, r7, #8
 918 0252 24B2     		sxth	r4, r4
 919 0254 3A41     		asrs	r2, r2, r7
 920              	.LBB307:
 921              	.LBB287:
 922              		.loc 1 62 0
 923 0256 002C     		cmp	r4, #0
 924              	.LBE287:
 925              	.LBE307:
 926              		.loc 1 102 0
 927 0258 D7B2     		uxtb	r7, r2
 928              	.LVL74:
 929              	.LBB308:
 930              	.LBB288:
 931              		.loc 1 62 0
 932 025a 27DB     		blt	.L65
 933              	.LVL75:
 934              	.L93:
 935              	.LBB282:
 936              	.LBB277:
 937 025c 90F80380 		ldrb	r8, [r0, #3]	@ zero_extendqisi2
 938 0260 4445     		cmp	r4, r8
 939 0262 23DA     		bge	.L65
 940              		.loc 1 64 0
 941 0264 0EFB0419 		mla	r9, lr, r4, r1
 942              	.LVL76:
 943 0268 D0F80880 		ldr	r8, [r0, #8]
 944              		.loc 1 65 0
 945 026c 057E     		ldrb	r5, [r0, #24]	@ zero_extendqisi2
 946              		.loc 1 64 0
 947 026e 18F809E0 		ldrb	lr, [r8, r9]	@ zero_extendqisi2
 948              	.LVL77:
 949              		.loc 1 65 0
 950 0272 002D     		cmp	r5, #0
 951 0274 00F0CC81 		beq	.L66
 952              		.loc 1 66 0
 953 0278 2EEA0202 		bic	r2, lr, r2
 954              	.L67:
 955 027c 08F80920 		strb	r2, [r8, r9]
 956              		.loc 1 69 0
 957 0280 0778     		ldrb	r7, [r0]	@ zero_extendqisi2
 958              	.LVL78:
 959 0282 8268     		ldr	r2, [r0, #8]
 960 0284 14FB0717 		smlabb	r7, r4, r7, r1
 961 0288 D25D     		ldrb	r2, [r2, r7]	@ zero_extendqisi2
 962 028a 7245     		cmp	r2, lr
 963 028c 0CD0     		beq	.L113
 964              		.loc 1 72 0
 965 028e 8278     		ldrb	r2, [r0, #2]	@ zero_extendqisi2
 966 0290 4768     		ldr	r7, [r0, #4]
 967 0292 4FEA211E 		asr	lr, r1, #4
 968              	.LVL79:
 969 0296 14FB02E4 		smlabb	r4, r4, r2, lr
ARM GAS  /tmp/ccs3e2Sq.s 			page 18


 970              	.LVL80:
 971 029a C1F34202 		ubfx	r2, r1, #1, #3
 972 029e 395D     		ldrb	r1, [r7, r4]	@ zero_extendqisi2
 973              	.LVL81:
 974 02a0 0CFA02F2 		lsl	r2, ip, r2
 975 02a4 0A43     		orrs	r2, r2, r1
 976 02a6 3A55     		strb	r2, [r7, r4]
 977              	.L113:
 978 02a8 B0F91410 		ldrsh	r1, [r0, #20]
 979              	.LVL82:
 980              	.L65:
 981              	.LBE277:
 982              	.LBE282:
 983              	.LBE288:
 984              	.LBE308:
 985              		.loc 1 104 0
 986 02ac 0131     		adds	r1, r1, #1
 987 02ae 0133     		adds	r3, r3, #1
 988              	.LVL83:
 989 02b0 09B2     		sxth	r1, r1
 990              	.LBE318:
 991              	.LBE324:
 992              		.loc 1 126 0
 993 02b2 082B     		cmp	r3, #8
 994              	.LBB325:
 995              	.LBB319:
 996              		.loc 1 104 0
 997 02b4 8182     		strh	r1, [r0, #20]	@ movhi
 998              	.LVL84:
 999              	.LBE319:
 1000              	.LBE325:
 1001              		.loc 1 126 0
 1002 02b6 7FF479AF 		bne	.L69
 1003              	.L33:
 1004              		.loc 1 135 0
 1005 02ba 07B0     		add	sp, sp, #28
 1006              		.cfi_remember_state
 1007              		.cfi_def_cfa_offset 36
 1008              		@ sp needed
 1009 02bc BDE8F08F 		pop	{r4, r5, r6, r7, r8, r9, r10, fp, pc}
 1010              	.LVL85:
 1011              	.L120:
 1012              		.align	2
 1013              	.L119:
 1014 02c0 00000000 		.word	.LANCHOR0
 1015              	.LVL86:
 1016              	.L95:
 1017              		.cfi_restore_state
 1018              		.loc 1 115 0
 1019 02c4 082C     		cmp	r4, #8
 1020              		.loc 1 112 0
 1021 02c6 4FF0FF0B 		mov	fp, #255
 1022              	.LVL87:
 1023              		.loc 1 115 0
 1024 02ca 7FF4AEAE 		bne	.L117
 1025              	.L36:
 1026              	.LVL88:
ARM GAS  /tmp/ccs3e2Sq.s 			page 19


 1027 02ce CD4C     		ldr	r4, .L121
 1028              	.LBB326:
 1029              	.LBB327:
 1030              		.loc 1 77 0
 1031 02d0 8182     		strh	r1, [r0, #20]	@ movhi
 1032 02d2 03EB4303 		add	r3, r3, r3, lsl #1
 1033              	.LVL89:
 1034 02d6 04EB4304 		add	r4, r4, r3, lsl #1
 1035              		.loc 1 78 0
 1036 02da C282     		strh	r2, [r0, #22]	@ movhi
 1037              	.LVL90:
 1038 02dc 0023     		movs	r3, #0
 1039              	.LBE327:
 1040              	.LBE326:
 1041              	.LBB328:
 1042              	.LBB329:
 1043              	.LBB330:
 1044              	.LBB331:
 1045              	.LBB332:
 1046              	.LBB333:
 1047              		.loc 1 72 0
 1048 02de 4FF0010C 		mov	ip, #1
 1049              	.LBE333:
 1050              	.LBE332:
 1051              	.LBE331:
 1052              	.LBE330:
 1053              		.loc 1 93 0
 1054 02e2 FF26     		movs	r6, #255
 1055              	.LVL91:
 1056              	.L85:
 1057              		.loc 1 83 0 discriminator 3
 1058 02e4 B0F90C20 		ldrsh	r2, [r0, #12]
 1059 02e8 8A42     		cmp	r2, r1
 1060 02ea 00F38180 		bgt	.L81
 1061              		.loc 1 83 0 is_stmt 0
 1062 02ee B0F91020 		ldrsh	r2, [r0, #16]
 1063 02f2 8A42     		cmp	r2, r1
 1064 02f4 7CDB     		blt	.L81
 1065 02f6 B0F91670 		ldrsh	r7, [r0, #22]
 1066 02fa B0F90E20 		ldrsh	r2, [r0, #14]
 1067 02fe 07F10708 		add	r8, r7, #7
 1068 0302 9045     		cmp	r8, r2
 1069 0304 74DB     		blt	.L81
 1070              		.loc 1 84 0 is_stmt 1
 1071 0306 D51F     		subs	r5, r2, #7
 1072              		.loc 1 83 0
 1073 0308 AF42     		cmp	r7, r5
 1074 030a 71DB     		blt	.L81
 1075              		.loc 1 84 0
 1076 030c 0029     		cmp	r1, #0
 1077 030e 6FDB     		blt	.L81
 1078 0310 0578     		ldrb	r5, [r0]	@ zero_extendqisi2
 1079 0312 A942     		cmp	r1, r5
 1080 0314 6CDA     		bge	.L81
 1081 0316 90F801E0 		ldrb	lr, [r0, #1]	@ zero_extendqisi2
 1082 031a 7745     		cmp	r7, lr
 1083 031c 68DA     		bge	.L81
ARM GAS  /tmp/ccs3e2Sq.s 			page 20


 1084              	.LBE329:
 1085              	.LBE328:
 1086              		.loc 1 132 0
 1087 031e 14F803E0 		ldrb	lr, [r4, r3]	@ zero_extendqisi2
 1088              	.LBB380:
 1089              	.LBB374:
 1090              		.loc 1 90 0
 1091 0322 9742     		cmp	r7, r2
 1092              	.LBE374:
 1093              	.LBE380:
 1094              		.loc 1 132 0
 1095 0324 0BEA0E0E 		and	lr, fp, lr
 1096              	.LVL92:
 1097              	.LBB381:
 1098              	.LBB375:
 1099              		.loc 1 90 0
 1100 0328 04DA     		bge	.L74
 1101              		.loc 1 91 0
 1102 032a D21B     		subs	r2, r2, r7
 1103 032c 06FA02F2 		lsl	r2, r6, r2
 1104 0330 02EA0E0E 		and	lr, r2, lr
 1105              	.LVL93:
 1106              	.L74:
 1107              		.loc 1 92 0
 1108 0334 B0F91220 		ldrsh	r2, [r0, #18]
 1109 0338 07F10609 		add	r9, r7, #6
 1110 033c 9145     		cmp	r9, r2
 1111 033e 05DB     		blt	.L75
 1112              		.loc 1 93 0
 1113 0340 A8EB0202 		sub	r2, r8, r2
 1114 0344 46FA02F2 		asr	r2, r6, r2
 1115              	.LVL94:
 1116 0348 02EA0E0E 		and	lr, r2, lr
 1117              	.LVL95:
 1118              	.L75:
 1119              		.loc 1 95 0
 1120 034c 18EA2708 		ands	r8, r8, r7, asr #32
 1121 0350 38BF     		it	cc
 1122 0352 B846     		movcc	r8, r7
 1123 0354 FA13     		asrs	r2, r7, #15
 1124 0356 02EBE808 		add	r8, r2, r8, asr #3
 1125              		.loc 1 98 0
 1126 035a D7F10009 		rsbs	r9, r7, #0
 1127              		.loc 1 95 0
 1128 035e 1FFA88F2 		uxth	r2, r8
 1129              		.loc 1 98 0
 1130 0362 09F00709 		and	r9, r9, #7
 1131 0366 07F0070A 		and	r10, r7, #7
 1132              		.loc 1 95 0
 1133 036a 0FFA82F8 		sxth	r8, r2
 1134              	.LVL96:
 1135              		.loc 1 98 0
 1136 036e 5746     		mov	r7, r10
 1137 0370 58BF     		it	pl
 1138 0372 C9F10007 		rsbpl	r7, r9, #0
 1139              	.LBB351:
 1140              	.LBB352:
ARM GAS  /tmp/ccs3e2Sq.s 			page 21


 1141              		.loc 1 62 0
 1142 0376 B8F1000F 		cmp	r8, #0
 1143              	.LBE352:
 1144              	.LBE351:
 1145              		.loc 1 98 0
 1146 037a 07F00707 		and	r7, r7, #7
 1147              	.LVL97:
 1148              	.LBB363:
 1149              	.LBB359:
 1150              		.loc 1 62 0
 1151 037e 80F29580 		bge	.L118
 1152              	.L77:
 1153              	.LVL98:
 1154              	.LBE359:
 1155              	.LBE363:
 1156              		.loc 1 100 0
 1157 0382 BAF1000F 		cmp	r10, #0
 1158 0386 33D0     		beq	.L81
 1159              		.loc 1 102 0
 1160 0388 0132     		adds	r2, r2, #1
 1161 038a C7F10807 		rsb	r7, r7, #8
 1162 038e 12B2     		sxth	r2, r2
 1163 0390 4EFA07FE 		asr	lr, lr, r7
 1164              	.LBB364:
 1165              	.LBB344:
 1166              		.loc 1 62 0
 1167 0394 002A     		cmp	r2, #0
 1168              	.LBE344:
 1169              	.LBE364:
 1170              		.loc 1 102 0
 1171 0396 5FFA8EF7 		uxtb	r7, lr
 1172              	.LVL99:
 1173              	.LBB365:
 1174              	.LBB345:
 1175              		.loc 1 62 0
 1176 039a 29DB     		blt	.L81
 1177              	.LVL100:
 1178              	.L94:
 1179              	.LBB339:
 1180              	.LBB334:
 1181 039c 90F80380 		ldrb	r8, [r0, #3]	@ zero_extendqisi2
 1182 03a0 4245     		cmp	r2, r8
 1183 03a2 25DA     		bge	.L81
 1184              		.loc 1 64 0
 1185 03a4 05FB0215 		mla	r5, r5, r2, r1
 1186 03a8 D0F80890 		ldr	r9, [r0, #8]
 1187              		.loc 1 65 0
 1188 03ac 90F818A0 		ldrb	r10, [r0, #24]	@ zero_extendqisi2
 1189              		.loc 1 64 0
 1190 03b0 19F80580 		ldrb	r8, [r9, r5]	@ zero_extendqisi2
 1191              	.LVL101:
 1192              		.loc 1 65 0
 1193 03b4 BAF1000F 		cmp	r10, #0
 1194 03b8 00F02D81 		beq	.L82
 1195              		.loc 1 66 0
 1196 03bc 28EA0E0E 		bic	lr, r8, lr
 1197              	.L83:
ARM GAS  /tmp/ccs3e2Sq.s 			page 22


 1198 03c0 09F805E0 		strb	lr, [r9, r5]
 1199              		.loc 1 69 0
 1200 03c4 0778     		ldrb	r7, [r0]	@ zero_extendqisi2
 1201              	.LVL102:
 1202 03c6 8568     		ldr	r5, [r0, #8]
 1203 03c8 12FB0717 		smlabb	r7, r2, r7, r1
 1204 03cc ED5D     		ldrb	r5, [r5, r7]	@ zero_extendqisi2
 1205 03ce 4545     		cmp	r5, r8
 1206 03d0 0CD0     		beq	.L114
 1207              		.loc 1 72 0
 1208 03d2 8578     		ldrb	r5, [r0, #2]	@ zero_extendqisi2
 1209 03d4 4768     		ldr	r7, [r0, #4]
 1210 03d6 4FEA211E 		asr	lr, r1, #4
 1211 03da 12FB05E5 		smlabb	r5, r2, r5, lr
 1212 03de C1F34202 		ubfx	r2, r1, #1, #3
 1213              	.LVL103:
 1214 03e2 795D     		ldrb	r1, [r7, r5]	@ zero_extendqisi2
 1215              	.LVL104:
 1216 03e4 0CFA02F2 		lsl	r2, ip, r2
 1217 03e8 0A43     		orrs	r2, r2, r1
 1218 03ea 7A55     		strb	r2, [r7, r5]
 1219              	.L114:
 1220 03ec B0F91410 		ldrsh	r1, [r0, #20]
 1221              	.LVL105:
 1222              	.L81:
 1223              	.LBE334:
 1224              	.LBE339:
 1225              	.LBE345:
 1226              	.LBE365:
 1227              		.loc 1 104 0
 1228 03f0 0131     		adds	r1, r1, #1
 1229 03f2 0133     		adds	r3, r3, #1
 1230              	.LVL106:
 1231 03f4 09B2     		sxth	r1, r1
 1232              	.LBE375:
 1233              	.LBE381:
 1234              		.loc 1 131 0
 1235 03f6 062B     		cmp	r3, #6
 1236              	.LBB382:
 1237              	.LBB376:
 1238              		.loc 1 104 0
 1239 03f8 8182     		strh	r1, [r0, #20]	@ movhi
 1240              	.LVL107:
 1241              	.LBE376:
 1242              	.LBE382:
 1243              		.loc 1 131 0
 1244 03fa 7FF473AF 		bne	.L85
 1245              		.loc 1 135 0
 1246 03fe 07B0     		add	sp, sp, #28
 1247              		.cfi_remember_state
 1248              		.cfi_def_cfa_offset 36
 1249              		@ sp needed
 1250 0400 BDE8F08F 		pop	{r4, r5, r6, r7, r8, r9, r10, fp, pc}
 1251              	.LVL108:
 1252              	.L115:
 1253              		.cfi_restore_state
 1254              	.LBB383:
ARM GAS  /tmp/ccs3e2Sq.s 			page 23


 1255              	.LBB263:
 1256              	.LBB252:
 1257              	.LBB229:
 1258              	.LBB222:
 1259              	.LBB223:
 1260              		.loc 1 62 0
 1261 0404 C778     		ldrb	r7, [r0, #3]	@ zero_extendqisi2
 1262 0406 BC45     		cmp	ip, r7
 1263 0408 BFF673AE 		bge	.L44
 1264              	.LVL109:
 1265              		.loc 1 64 0
 1266 040c 029A     		ldr	r2, [sp, #8]
 1267 040e 8768     		ldr	r7, [r0, #8]
 1268 0410 1CFB0236 		smlabb	r6, ip, r2, r3
 1269              		.loc 1 65 0
 1270 0414 027E     		ldrb	r2, [r0, #24]	@ zero_extendqisi2
 1271 0416 0592     		str	r2, [sp, #20]
 1272              		.loc 1 64 0
 1273 0418 BA5D     		ldrb	r2, [r7, r6]	@ zero_extendqisi2
 1274 041a 0292     		str	r2, [sp, #8]
 1275              	.LVL110:
 1276              	.LBE223:
 1277              	.LBE222:
 1278              	.LBE229:
 1279              	.LBE252:
 1280              		.loc 1 98 0
 1281 041c 039A     		ldr	r2, [sp, #12]
 1282 041e 02FA0EFE 		lsl	lr, r2, lr
 1283              	.LBB253:
 1284              	.LBB230:
 1285              	.LBB226:
 1286              	.LBB224:
 1287              		.loc 1 65 0
 1288 0422 059A     		ldr	r2, [sp, #20]
 1289 0424 002A     		cmp	r2, #0
 1290 0426 00F0DD80 		beq	.L45
 1291              		.loc 1 66 0
 1292 042a 029A     		ldr	r2, [sp, #8]
 1293 042c 22EA0E0E 		bic	lr, r2, lr
 1294              	.L46:
 1295 0430 07F806E0 		strb	lr, [r7, r6]
 1296              	.LVL111:
 1297              		.loc 1 69 0
 1298 0434 0778     		ldrb	r7, [r0]	@ zero_extendqisi2
 1299 0436 8668     		ldr	r6, [r0, #8]
 1300 0438 1CFB0737 		smlabb	r7, ip, r7, r3
 1301 043c F65D     		ldrb	r6, [r6, r7]	@ zero_extendqisi2
 1302 043e 9642     		cmp	r6, r2
 1303 0440 10D0     		beq	.L47
 1304              		.loc 1 72 0
 1305 0442 8778     		ldrb	r7, [r0, #2]	@ zero_extendqisi2
 1306 0444 D0F804E0 		ldr	lr, [r0, #4]
 1307 0448 43F30F16 		sbfx	r6, r3, #4, #16
 1308 044c 1CFB0766 		smlabb	r6, ip, r7, r6
 1309 0450 C3F34203 		ubfx	r3, r3, #1, #3
 1310 0454 1EF80670 		ldrb	r7, [lr, r6]	@ zero_extendqisi2
 1311 0458 0122     		movs	r2, #1
ARM GAS  /tmp/ccs3e2Sq.s 			page 24


 1312 045a 02FA03F3 		lsl	r3, r2, r3
 1313 045e 3B43     		orrs	r3, r3, r7
 1314 0460 0EF80630 		strb	r3, [lr, r6]
 1315              	.L47:
 1316              	.LVL112:
 1317              	.LBE224:
 1318              	.LBE226:
 1319              	.LBE230:
 1320              	.LBE253:
 1321              		.loc 1 100 0
 1322 0464 B0F91660 		ldrsh	r6, [r0, #22]
 1323 0468 B0F91430 		ldrsh	r3, [r0, #20]
 1324 046c 16F00707 		ands	r7, r6, #7
 1325 0470 3FF481AE 		beq	.L48
 1326              	.LVL113:
 1327              	.LBB254:
 1328              	.LBB246:
 1329              		.loc 1 62 0
 1330 0474 002B     		cmp	r3, #0
 1331 0476 FFF67EAE 		blt	.L48
 1332              	.LBE246:
 1333              	.LBE254:
 1334              		.loc 1 102 0
 1335 047a 7642     		rsbs	r6, r6, #0
 1336              	.LVL114:
 1337 047c 06F00706 		and	r6, r6, #7
 1338 0480 58BF     		it	pl
 1339 0482 7742     		rsbpl	r7, r6, #0
 1340 0484 039A     		ldr	r2, [sp, #12]
 1341              	.LBB255:
 1342              	.LBB247:
 1343              	.LBB241:
 1344              	.LBB237:
 1345              		.loc 1 62 0
 1346 0486 0678     		ldrb	r6, [r0]	@ zero_extendqisi2
 1347              	.LBE237:
 1348              	.LBE241:
 1349              	.LBE247:
 1350              	.LBE255:
 1351              		.loc 1 102 0
 1352 0488 07F0070E 		and	lr, r7, #7
 1353 048c CEF1080E 		rsb	lr, lr, #8
 1354 0490 42FA0EFE 		asr	lr, r2, lr
 1355 0494 049A     		ldr	r2, [sp, #16]
 1356              	.LBB256:
 1357              	.LBB248:
 1358              	.LBB242:
 1359              	.LBB238:
 1360              		.loc 1 62 0
 1361 0496 B342     		cmp	r3, r6
 1362              	.LBE238:
 1363              	.LBE242:
 1364              	.LBE248:
 1365              	.LBE256:
 1366              		.loc 1 102 0
 1367 0498 02F1010C 		add	ip, r2, #1
 1368              	.LVL115:
ARM GAS  /tmp/ccs3e2Sq.s 			page 25


 1369 049c 5FFA8EF2 		uxtb	r2, lr
 1370 04a0 0FFA8CFC 		sxth	ip, ip
 1371 04a4 0392     		str	r2, [sp, #12]
 1372              	.LVL116:
 1373              	.LBB257:
 1374              	.LBB249:
 1375              	.LBB243:
 1376              	.LBB239:
 1377              		.loc 1 62 0
 1378 04a6 BFF666AE 		bge	.L48
 1379 04aa 35E6     		b	.L92
 1380              	.LVL117:
 1381              	.L118:
 1382              	.LBE239:
 1383              	.LBE243:
 1384              	.LBE249:
 1385              	.LBE257:
 1386              	.LBE263:
 1387              	.LBE383:
 1388              	.LBB384:
 1389              	.LBB377:
 1390              	.LBB366:
 1391              	.LBB360:
 1392              	.LBB353:
 1393              	.LBB354:
 1394 04ac 90F80390 		ldrb	r9, [r0, #3]	@ zero_extendqisi2
 1395 04b0 C845     		cmp	r8, r9
 1396 04b2 BFF666AF 		bge	.L77
 1397              		.loc 1 64 0
 1398 04b6 18FB0515 		smlabb	r5, r8, r5, r1
 1399 04ba 0195     		str	r5, [sp, #4]
 1400              		.loc 1 65 0
 1401 04bc 057E     		ldrb	r5, [r0, #24]	@ zero_extendqisi2
 1402 04be 0295     		str	r5, [sp, #8]
 1403              		.loc 1 64 0
 1404 04c0 D0F808A0 		ldr	r10, [r0, #8]
 1405 04c4 019D     		ldr	r5, [sp, #4]
 1406 04c6 1AF80590 		ldrb	r9, [r10, r5]	@ zero_extendqisi2
 1407              	.LVL118:
 1408              		.loc 1 65 0
 1409 04ca 029D     		ldr	r5, [sp, #8]
 1410              	.LBE354:
 1411              	.LBE353:
 1412              	.LBE360:
 1413              	.LBE366:
 1414              		.loc 1 98 0
 1415 04cc 0EFA07F7 		lsl	r7, lr, r7
 1416              	.LBB367:
 1417              	.LBB361:
 1418              	.LBB357:
 1419              	.LBB355:
 1420              		.loc 1 65 0
 1421 04d0 002D     		cmp	r5, #0
 1422 04d2 00F08D80 		beq	.L78
 1423              		.loc 1 66 0
 1424 04d6 29EA0707 		bic	r7, r9, r7
 1425              	.L79:
ARM GAS  /tmp/ccs3e2Sq.s 			page 26


 1426 04da 019D     		ldr	r5, [sp, #4]
 1427 04dc 0AF80570 		strb	r7, [r10, r5]
 1428              	.LVL119:
 1429              		.loc 1 69 0
 1430 04e0 0778     		ldrb	r7, [r0]	@ zero_extendqisi2
 1431 04e2 8568     		ldr	r5, [r0, #8]
 1432 04e4 18FB0717 		smlabb	r7, r8, r7, r1
 1433 04e8 ED5D     		ldrb	r5, [r5, r7]	@ zero_extendqisi2
 1434 04ea 4D45     		cmp	r5, r9
 1435 04ec 0ED0     		beq	.L80
 1436              		.loc 1 72 0
 1437 04ee 90F80290 		ldrb	r9, [r0, #2]	@ zero_extendqisi2
 1438              	.LVL120:
 1439 04f2 4568     		ldr	r5, [r0, #4]
 1440 04f4 0F11     		asrs	r7, r1, #4
 1441 04f6 18FB0978 		smlabb	r8, r8, r9, r7
 1442              	.LVL121:
 1443 04fa C1F34201 		ubfx	r1, r1, #1, #3
 1444 04fe 15F80870 		ldrb	r7, [r5, r8]	@ zero_extendqisi2
 1445 0502 0CFA01F1 		lsl	r1, ip, r1
 1446 0506 3943     		orrs	r1, r1, r7
 1447 0508 05F80810 		strb	r1, [r5, r8]
 1448              	.L80:
 1449              	.LVL122:
 1450              	.LBE355:
 1451              	.LBE357:
 1452              	.LBE361:
 1453              	.LBE367:
 1454              		.loc 1 100 0
 1455 050c B0F91650 		ldrsh	r5, [r0, #22]
 1456 0510 B0F91410 		ldrsh	r1, [r0, #20]
 1457 0514 15F00707 		ands	r7, r5, #7
 1458 0518 3FF46AAF 		beq	.L81
 1459              	.LVL123:
 1460              	.LBB368:
 1461              	.LBB346:
 1462              		.loc 1 62 0
 1463 051c 0029     		cmp	r1, #0
 1464 051e FFF667AF 		blt	.L81
 1465              	.LBE346:
 1466              	.LBE368:
 1467              		.loc 1 102 0
 1468 0522 6D42     		rsbs	r5, r5, #0
 1469              	.LVL124:
 1470 0524 05F00705 		and	r5, r5, #7
 1471 0528 58BF     		it	pl
 1472 052a 6F42     		rsbpl	r7, r5, #0
 1473 052c 07F00707 		and	r7, r7, #7
 1474              	.LBB369:
 1475              	.LBB347:
 1476              	.LBB340:
 1477              	.LBB335:
 1478              		.loc 1 62 0
 1479 0530 0578     		ldrb	r5, [r0]	@ zero_extendqisi2
 1480              	.LBE335:
 1481              	.LBE340:
 1482              	.LBE347:
ARM GAS  /tmp/ccs3e2Sq.s 			page 27


 1483              	.LBE369:
 1484              		.loc 1 102 0
 1485 0532 C7F10807 		rsb	r7, r7, #8
 1486 0536 4EFA07FE 		asr	lr, lr, r7
 1487              	.LVL125:
 1488 053a 0132     		adds	r2, r2, #1
 1489              	.LVL126:
 1490              	.LBB370:
 1491              	.LBB348:
 1492              	.LBB341:
 1493              	.LBB336:
 1494              		.loc 1 62 0
 1495 053c A942     		cmp	r1, r5
 1496              	.LBE336:
 1497              	.LBE341:
 1498              	.LBE348:
 1499              	.LBE370:
 1500              		.loc 1 102 0
 1501 053e 12B2     		sxth	r2, r2
 1502              	.LVL127:
 1503 0540 5FFA8EF7 		uxtb	r7, lr
 1504              	.LVL128:
 1505              	.LBB371:
 1506              	.LBB349:
 1507              	.LBB342:
 1508              	.LBB337:
 1509              		.loc 1 62 0
 1510 0544 BFF654AF 		bge	.L81
 1511 0548 28E7     		b	.L94
 1512              	.LVL129:
 1513              	.L116:
 1514              	.LBE337:
 1515              	.LBE342:
 1516              	.LBE349:
 1517              	.LBE371:
 1518              	.LBE377:
 1519              	.LBE384:
 1520              	.LBB385:
 1521              	.LBB320:
 1522              	.LBB309:
 1523              	.LBB303:
 1524              	.LBB296:
 1525              	.LBB297:
 1526 054a C578     		ldrb	r5, [r0, #3]	@ zero_extendqisi2
 1527 054c A845     		cmp	r8, r5
 1528 054e BFF67BAE 		bge	.L61
 1529              		.loc 1 64 0
 1530 0552 18FB0E14 		smlabb	r4, r8, lr, r1
 1531 0556 0194     		str	r4, [sp, #4]
 1532              		.loc 1 65 0
 1533 0558 047E     		ldrb	r4, [r0, #24]	@ zero_extendqisi2
 1534              		.loc 1 64 0
 1535 055a 8568     		ldr	r5, [r0, #8]
 1536              		.loc 1 65 0
 1537 055c 0394     		str	r4, [sp, #12]
 1538              		.loc 1 64 0
 1539 055e 019C     		ldr	r4, [sp, #4]
ARM GAS  /tmp/ccs3e2Sq.s 			page 28


 1540 0560 0295     		str	r5, [sp, #8]
 1541 0562 15F804E0 		ldrb	lr, [r5, r4]	@ zero_extendqisi2
 1542              	.LVL130:
 1543              		.loc 1 65 0
 1544 0566 039C     		ldr	r4, [sp, #12]
 1545              	.LBE297:
 1546              	.LBE296:
 1547              	.LBE303:
 1548              	.LBE309:
 1549              		.loc 1 98 0
 1550 0568 02FA07F7 		lsl	r7, r2, r7
 1551              	.LBB310:
 1552              	.LBB304:
 1553              	.LBB300:
 1554              	.LBB298:
 1555              		.loc 1 65 0
 1556 056c 002C     		cmp	r4, #0
 1557 056e 43D0     		beq	.L62
 1558              		.loc 1 66 0
 1559 0570 2EEA0707 		bic	r7, lr, r7
 1560 0574 2C46     		mov	r4, r5
 1561              	.L63:
 1562 0576 019D     		ldr	r5, [sp, #4]
 1563 0578 6755     		strb	r7, [r4, r5]
 1564              	.LVL131:
 1565              		.loc 1 69 0
 1566 057a 0778     		ldrb	r7, [r0]	@ zero_extendqisi2
 1567 057c 8468     		ldr	r4, [r0, #8]
 1568 057e 18FB0717 		smlabb	r7, r8, r7, r1
 1569 0582 E45D     		ldrb	r4, [r4, r7]	@ zero_extendqisi2
 1570 0584 7445     		cmp	r4, lr
 1571 0586 0ED0     		beq	.L64
 1572              		.loc 1 72 0
 1573 0588 90F802E0 		ldrb	lr, [r0, #2]	@ zero_extendqisi2
 1574              	.LVL132:
 1575 058c 4468     		ldr	r4, [r0, #4]
 1576 058e 0F11     		asrs	r7, r1, #4
 1577 0590 18FB0E78 		smlabb	r8, r8, lr, r7
 1578              	.LVL133:
 1579 0594 C1F34201 		ubfx	r1, r1, #1, #3
 1580 0598 14F80870 		ldrb	r7, [r4, r8]	@ zero_extendqisi2
 1581 059c 0CFA01F1 		lsl	r1, ip, r1
 1582 05a0 3943     		orrs	r1, r1, r7
 1583 05a2 04F80810 		strb	r1, [r4, r8]
 1584              	.L64:
 1585              	.LVL134:
 1586              	.LBE298:
 1587              	.LBE300:
 1588              	.LBE304:
 1589              	.LBE310:
 1590              		.loc 1 100 0
 1591 05a6 B0F91640 		ldrsh	r4, [r0, #22]
 1592 05aa B0F91410 		ldrsh	r1, [r0, #20]
 1593 05ae 14F00707 		ands	r7, r4, #7
 1594 05b2 3FF47BAE 		beq	.L65
 1595              	.LVL135:
 1596              	.LBB311:
ARM GAS  /tmp/ccs3e2Sq.s 			page 29


 1597              	.LBB289:
 1598              		.loc 1 62 0
 1599 05b6 0029     		cmp	r1, #0
 1600 05b8 FFF678AE 		blt	.L65
 1601              	.LBE289:
 1602              	.LBE311:
 1603              		.loc 1 102 0
 1604 05bc 6442     		rsbs	r4, r4, #0
 1605              	.LVL136:
 1606 05be 04F00704 		and	r4, r4, #7
 1607 05c2 58BF     		it	pl
 1608 05c4 6742     		rsbpl	r7, r4, #0
 1609 05c6 07F00704 		and	r4, r7, #7
 1610              	.LBB312:
 1611              	.LBB290:
 1612              	.LBB283:
 1613              	.LBB278:
 1614              		.loc 1 62 0
 1615 05ca 90F800E0 		ldrb	lr, [r0]	@ zero_extendqisi2
 1616              	.LBE278:
 1617              	.LBE283:
 1618              	.LBE290:
 1619              	.LBE312:
 1620              		.loc 1 102 0
 1621 05ce C4F10804 		rsb	r4, r4, #8
 1622 05d2 2241     		asrs	r2, r2, r4
 1623              	.LVL137:
 1624              	.LBB313:
 1625              	.LBB291:
 1626              	.LBB284:
 1627              	.LBB279:
 1628              		.loc 1 62 0
 1629 05d4 7145     		cmp	r1, lr
 1630              	.LBE279:
 1631              	.LBE284:
 1632              	.LBE291:
 1633              	.LBE313:
 1634              		.loc 1 102 0
 1635 05d6 09F10104 		add	r4, r9, #1
 1636 05da 24B2     		sxth	r4, r4
 1637 05dc D7B2     		uxtb	r7, r2
 1638              	.LVL138:
 1639              	.LBB314:
 1640              	.LBB292:
 1641              	.LBB285:
 1642              	.LBB280:
 1643              		.loc 1 62 0
 1644 05de BFF665AE 		bge	.L65
 1645 05e2 3BE6     		b	.L93
 1646              	.LVL139:
 1647              	.L45:
 1648              	.LBE280:
 1649              	.LBE285:
 1650              	.LBE292:
 1651              	.LBE314:
 1652              	.LBE320:
 1653              	.LBE385:
ARM GAS  /tmp/ccs3e2Sq.s 			page 30


 1654              	.LBB386:
 1655              	.LBB264:
 1656              	.LBB258:
 1657              	.LBB231:
 1658              	.LBB227:
 1659              	.LBB225:
 1660              		.loc 1 68 0
 1661 05e4 029A     		ldr	r2, [sp, #8]
 1662 05e6 42EA0E0E 		orr	lr, r2, lr
 1663 05ea 5FFA8EFE 		uxtb	lr, lr
 1664 05ee 1FE7     		b	.L46
 1665              	.LVL140:
 1666              	.L78:
 1667              	.LBE225:
 1668              	.LBE227:
 1669              	.LBE231:
 1670              	.LBE258:
 1671              	.LBE264:
 1672              	.LBE386:
 1673              	.LBB387:
 1674              	.LBB378:
 1675              	.LBB372:
 1676              	.LBB362:
 1677              	.LBB358:
 1678              	.LBB356:
 1679 05f0 49EA0707 		orr	r7, r9, r7
 1680 05f4 FFB2     		uxtb	r7, r7
 1681 05f6 70E7     		b	.L79
 1682              	.LVL141:
 1683              	.L62:
 1684              	.LBE356:
 1685              	.LBE358:
 1686              	.LBE362:
 1687              	.LBE372:
 1688              	.LBE378:
 1689              	.LBE387:
 1690              	.LBB388:
 1691              	.LBB321:
 1692              	.LBB315:
 1693              	.LBB305:
 1694              	.LBB301:
 1695              	.LBB299:
 1696 05f8 4EEA0707 		orr	r7, lr, r7
 1697 05fc FFB2     		uxtb	r7, r7
 1698 05fe 2C46     		mov	r4, r5
 1699 0600 B9E7     		b	.L63
 1700              	.L122:
 1701 0602 00BF     		.align	2
 1702              	.L121:
 1703 0604 00000000 		.word	.LANCHOR1
 1704              	.LVL142:
 1705              	.L49:
 1706              	.LBE299:
 1707              	.LBE301:
 1708              	.LBE305:
 1709              	.LBE315:
 1710              	.LBE321:
ARM GAS  /tmp/ccs3e2Sq.s 			page 31


 1711              	.LBE388:
 1712              	.LBB389:
 1713              	.LBB265:
 1714              	.LBB259:
 1715              	.LBB250:
 1716              	.LBB244:
 1717              	.LBB240:
 1718 0608 039A     		ldr	r2, [sp, #12]
 1719 060a 47EA020E 		orr	lr, r7, r2
 1720 060e 93E5     		b	.L50
 1721              	.LVL143:
 1722              	.L66:
 1723              	.LBE240:
 1724              	.LBE244:
 1725              	.LBE250:
 1726              	.LBE259:
 1727              	.LBE265:
 1728              	.LBE389:
 1729              	.LBB390:
 1730              	.LBB322:
 1731              	.LBB316:
 1732              	.LBB293:
 1733              	.LBB286:
 1734              	.LBB281:
 1735 0610 4EEA0702 		orr	r2, lr, r7
 1736 0614 32E6     		b	.L67
 1737              	.LVL144:
 1738              	.L82:
 1739              	.LBE281:
 1740              	.LBE286:
 1741              	.LBE293:
 1742              	.LBE316:
 1743              	.LBE322:
 1744              	.LBE390:
 1745              	.LBB391:
 1746              	.LBB379:
 1747              	.LBB373:
 1748              	.LBB350:
 1749              	.LBB343:
 1750              	.LBB338:
 1751 0616 48EA070E 		orr	lr, r8, r7
 1752 061a D1E6     		b	.L83
 1753              	.LBE338:
 1754              	.LBE343:
 1755              	.LBE350:
 1756              	.LBE373:
 1757              	.LBE379:
 1758              	.LBE391:
 1759              		.cfi_endproc
 1760              	.LFE333:
 1761              		.size	OLED_drawChar, .-OLED_drawChar
 1762              		.section	.text.OLED_drawString,"ax",%progbits
 1763              		.align	1
 1764              		.p2align 2,,3
 1765              		.global	OLED_drawString
 1766              		.syntax unified
 1767              		.thumb
ARM GAS  /tmp/ccs3e2Sq.s 			page 32


 1768              		.thumb_func
 1769              		.fpu fpv4-sp-d16
 1770              		.type	OLED_drawString, %function
 1771              	OLED_drawString:
 1772              	.LFB335:
 1773              		.loc 1 144 0
 1774              		.cfi_startproc
 1775              		@ args = 16, pretend = 0, frame = 88
 1776              		@ frame_needed = 0, uses_anonymous_args = 0
 1777              	.LVL145:
 1778 0000 2DE9F04F 		push	{r4, r5, r6, r7, r8, r9, r10, fp, lr}
 1779              		.cfi_def_cfa_offset 36
 1780              		.cfi_offset 4, -36
 1781              		.cfi_offset 5, -32
 1782              		.cfi_offset 6, -28
 1783              		.cfi_offset 7, -24
 1784              		.cfi_offset 8, -20
 1785              		.cfi_offset 9, -16
 1786              		.cfi_offset 10, -12
 1787              		.cfi_offset 11, -8
 1788              		.cfi_offset 14, -4
 1789 0004 99B0     		sub	sp, sp, #100
 1790              		.cfi_def_cfa_offset 136
 1791              		.loc 1 144 0
 1792 0006 1E46     		mov	r6, r3
 1793 0008 9DF89040 		ldrb	r4, [sp, #144]	@ zero_extendqisi2
 1794 000c DDF88C80 		ldr	r8, [sp, #140]
 1795 0010 9DF88850 		ldrb	r5, [sp, #136]	@ zero_extendqisi2
 1796 0014 0995     		str	r5, [sp, #36]
 1797              		.loc 1 146 0
 1798 0016 102C     		cmp	r4, #16
 1799 0018 0CBF     		ite	eq
 1800 001a 0823     		moveq	r3, #8
 1801              	.LVL146:
 1802 001c 0623     		movne	r3, #6
 1803 001e 1093     		str	r3, [sp, #64]
 1804 0020 0393     		str	r3, [sp, #12]
 1805              	.LVL147:
 1806              		.loc 1 145 0
 1807 0022 0023     		movs	r3, #0
 1808 0024 9C46     		mov	ip, r3
 1809              		.loc 1 144 0
 1810 0026 9DF89450 		ldrb	r5, [sp, #148]	@ zero_extendqisi2
 1811              		.loc 1 145 0
 1812 002a 0693     		str	r3, [sp, #24]
 1813 002c 98F80030 		ldrb	r3, [r8]	@ zero_extendqisi2
 1814              		.loc 1 144 0
 1815 0030 0794     		str	r4, [sp, #28]
 1816 0032 0F95     		str	r5, [sp, #60]
 1817 0034 0746     		mov	r7, r0
 1818 0036 0891     		str	r1, [sp, #32]
 1819 0038 0B92     		str	r2, [sp, #44]
 1820 003a E346     		mov	fp, ip
 1821 003c B246     		mov	r10, r6
 1822              	.LVL148:
 1823              	.L125:
 1824              		.loc 1 151 0
ARM GAS  /tmp/ccs3e2Sq.s 			page 33


 1825 003e 002B     		cmp	r3, #0
 1826 0040 00F08B81 		beq	.L123
 1827              	.LBB435:
 1828              		.loc 1 153 0
 1829 0044 069A     		ldr	r2, [sp, #24]
 1830 0046 0999     		ldr	r1, [sp, #36]
 1831 0048 8A42     		cmp	r2, r1
 1832 004a 00F28681 		bhi	.L123
 1833              	.LVL149:
 1834              		.loc 1 157 0
 1835 004e 109A     		ldr	r2, [sp, #64]
 1836 0050 AAEB0B01 		sub	r1, r10, fp
 1837 0054 91FBF2F1 		sdiv	r1, r1, r2
 1838 0058 0F9A     		ldr	r2, [sp, #60]
 1839 005a CEB2     		uxtb	r6, r1
 1840              	.LVL150:
 1841 005c 02B3     		cbz	r2, .L129
 1842              		.loc 1 156 0
 1843 005e 0022     		movs	r2, #0
 1844              	.LVL151:
 1845              	.L127:
 1846              	.LBB436:
 1847              	.LBB437:
 1848              		.loc 1 139 0
 1849 0060 23F02003 		bic	r3, r3, #32
 1850              	.LVL152:
 1851 0064 413B     		subs	r3, r3, #65
 1852 0066 192B     		cmp	r3, #25
 1853 0068 40F27A81 		bls	.L259
 1854              	.LBE437:
 1855              	.LBE436:
 1856              		.loc 1 163 0
 1857 006c B242     		cmp	r2, r6
 1858 006e 1AD9     		bls	.L128
 1859              		.loc 1 165 0
 1860 0070 032E     		cmp	r6, #3
 1861 0072 0FD8     		bhi	.L132
 1862              	.LVL153:
 1863              		.loc 1 169 0
 1864 0074 DDE90631 		ldrd	r3, r1, [sp, #24]
 1865 0078 0B44     		add	r3, r3, r1
 1866              		.loc 1 170 0
 1867 007a 0999     		ldr	r1, [sp, #36]
 1868              		.loc 1 169 0
 1869 007c DBB2     		uxtb	r3, r3
 1870              		.loc 1 170 0
 1871 007e 9942     		cmp	r1, r3
 1872              		.loc 1 169 0
 1873 0080 0693     		str	r3, [sp, #24]
 1874              	.LVL154:
 1875              		.loc 1 170 0
 1876 0082 C0F06A81 		bcc	.L123
 1877              		.loc 1 172 0
 1878 0086 039B     		ldr	r3, [sp, #12]
 1879              	.LVL155:
 1880 0088 BAFBF3F6 		udiv	r6, r10, r3
 1881              	.LVL156:
ARM GAS  /tmp/ccs3e2Sq.s 			page 34


 1882              		.loc 1 177 0
 1883 008c B242     		cmp	r2, r6
 1884              		.loc 1 168 0
 1885 008e 4FF0000B 		mov	fp, #0
 1886              		.loc 1 177 0
 1887 0092 08D9     		bls	.L128
 1888              	.LVL157:
 1889              	.L132:
 1890              		.loc 1 179 0
 1891 0094 721E     		subs	r2, r6, #1
 1892              	.LVL158:
 1893 0096 D2B2     		uxtb	r2, r2
 1894              	.LVL159:
 1895 0098 05E0     		b	.L128
 1896              	.L260:
 1897              		.loc 1 161 0
 1898 009a CAB2     		uxtb	r2, r1
 1899              	.LVL160:
 1900 009c 18F80230 		ldrb	r3, [r8, r2]	@ zero_extendqisi2
 1901              	.LVL161:
 1902              	.L129:
 1903 00a0 511C     		adds	r1, r2, #1
 1904              		.loc 1 159 0
 1905 00a2 002B     		cmp	r3, #0
 1906 00a4 F9D1     		bne	.L260
 1907              	.LVL162:
 1908              	.L128:
 1909              		.loc 1 191 0
 1910 00a6 0698     		ldr	r0, [sp, #24]
 1911 00a8 099B     		ldr	r3, [sp, #36]
 1912 00aa 1B1A     		subs	r3, r3, r0
 1913 00ac DDB2     		uxtb	r5, r3
 1914              	.LBB438:
 1915              	.LBB439:
 1916              		.loc 1 124 0
 1917 00ae C5F11001 		rsb	r1, r5, #16
 1918              		.loc 1 114 0
 1919 00b2 FF23     		movs	r3, #255
 1920 00b4 C5F10804 		rsb	r4, r5, #8
 1921              		.loc 1 124 0
 1922 00b8 43FA01FC 		asr	ip, r3, r1
 1923              		.loc 1 114 0
 1924 00bc 43FA04F4 		asr	r4, r3, r4
 1925              	.LBE439:
 1926              	.LBE438:
 1927              		.loc 1 191 0
 1928 00c0 0B9B     		ldr	r3, [sp, #44]
 1929 00c2 0C95     		str	r5, [sp, #48]
 1930 00c4 072D     		cmp	r5, #7
 1931              	.LBB639:
 1932              	.LBB630:
 1933              		.loc 1 114 0
 1934 00c6 E4B2     		uxtb	r4, r4
 1935              	.LBE630:
 1936              	.LBE639:
 1937              		.loc 1 191 0
 1938 00c8 1844     		add	r0, r0, r3
ARM GAS  /tmp/ccs3e2Sq.s 			page 35


 1939 00ca 88BF     		it	hi
 1940 00cc FF24     		movhi	r4, #255
 1941              	.LBB640:
 1942              	.LBB631:
 1943              		.loc 1 124 0
 1944 00ce 5FFA8CF3 		uxtb	r3, ip
 1945 00d2 0F2D     		cmp	r5, #15
 1946 00d4 88BF     		it	hi
 1947 00d6 2346     		movhi	r3, r4
 1948 00d8 08F1FF31 		add	r1, r8, #-1
 1949 00dc 1144     		add	r1, r1, r2
 1950 00de 1293     		str	r3, [sp, #72]
 1951 00e0 08EB0203 		add	r3, r8, r2
 1952              	.LBE631:
 1953              	.LBE640:
 1954              		.loc 1 191 0
 1955 00e4 80B2     		uxth	r0, r0
 1956 00e6 0493     		str	r3, [sp, #16]
 1957 00e8 CBB2     		uxtb	r3, r1
 1958 00ea 0593     		str	r3, [sp, #20]
 1959 00ec 03B2     		sxth	r3, r0
 1960              	.LBB641:
 1961              	.LBB632:
 1962              		.loc 1 124 0
 1963 00ee C146     		mov	r9, r8
 1964 00f0 1194     		str	r4, [sp, #68]
 1965              	.LBE632:
 1966              	.LBE641:
 1967              		.loc 1 191 0
 1968 00f2 0E90     		str	r0, [sp, #56]
 1969 00f4 0A93     		str	r3, [sp, #40]
 1970              	.LVL163:
 1971              	.L185:
 1972              		.loc 1 182 0
 1973 00f6 049B     		ldr	r3, [sp, #16]
 1974 00f8 4B45     		cmp	r3, r9
 1975 00fa C846     		mov	r8, r9
 1976              	.LVL164:
 1977 00fc 5FFA89FE 		uxtb	lr, r9
 1978 0100 00F0F380 		beq	.L186
 1979              		.loc 1 185 0
 1980 0104 19F8013B 		ldrb	r3, [r9], #1	@ zero_extendqisi2
 1981 0108 0A2B     		cmp	r3, #10
 1982 010a 00F0E180 		beq	.L135
 1983 010e 202B     		cmp	r3, #32
 1984 0110 00F0DE80 		beq	.L135
 1985              	.LBB642:
 1986              	.LBB633:
 1987              		.loc 1 111 0
 1988 0114 A3F12002 		sub	r2, r3, #32
 1989              		.loc 1 115 0
 1990 0118 0799     		ldr	r1, [sp, #28]
 1991              	.LBE633:
 1992              	.LBE642:
 1993              		.loc 1 191 0
 1994 011a 089B     		ldr	r3, [sp, #32]
 1995              	.LBB643:
ARM GAS  /tmp/ccs3e2Sq.s 			page 36


 1996              	.LBB634:
 1997              		.loc 1 115 0
 1998 011c 0829     		cmp	r1, #8
 1999              	.LBE634:
 2000              	.LBE643:
 2001              		.loc 1 191 0
 2002 011e 5B44     		add	r3, fp, r3
 2003              	.LBB644:
 2004              	.LBB635:
 2005              		.loc 1 111 0
 2006 0120 D2B2     		uxtb	r2, r2
 2007              	.LBE635:
 2008              	.LBE644:
 2009              		.loc 1 191 0
 2010 0122 1BB2     		sxth	r3, r3
 2011              	.LVL165:
 2012              	.LBB645:
 2013              	.LBB636:
 2014              		.loc 1 115 0
 2015 0124 00F02481 		beq	.L136
 2016 0128 1029     		cmp	r1, #16
 2017 012a 40F0D180 		bne	.L135
 2018              	.LVL166:
 2019              		.loc 1 120 0
 2020 012e 4FEA0218 		lsl	r8, r2, #4
 2021              	.LVL167:
 2022              	.LBB440:
 2023              	.LBB441:
 2024              		.loc 1 78 0
 2025 0132 0A9A     		ldr	r2, [sp, #40]
 2026              	.LVL168:
 2027 0134 FA82     		strh	r2, [r7, #22]	@ movhi
 2028              	.LVL169:
 2029              	.LBE441:
 2030              	.LBE440:
 2031              		.loc 1 120 0
 2032 0136 8D4A     		ldr	r2, .L269
 2033              	.LBB443:
 2034              	.LBB442:
 2035              		.loc 1 77 0
 2036 0138 BB82     		strh	r3, [r7, #20]	@ movhi
 2037              	.LBE442:
 2038              	.LBE443:
 2039              		.loc 1 120 0
 2040 013a 4244     		add	r2, r2, r8
 2041 013c 1392     		str	r2, [sp, #76]
 2042 013e 0021     		movs	r1, #0
 2043 0140 1A46     		mov	r2, r3
 2044              	.LBB444:
 2045              	.LBB445:
 2046              		.loc 1 93 0
 2047 0142 0D93     		str	r3, [sp, #52]
 2048              	.LVL170:
 2049              	.L152:
 2050              		.loc 1 83 0
 2051 0144 B7F90C00 		ldrsh	r0, [r7, #12]
 2052 0148 9042     		cmp	r0, r2
ARM GAS  /tmp/ccs3e2Sq.s 			page 37


 2053 014a 50DC     		bgt	.L148
 2054 014c B7F91000 		ldrsh	r0, [r7, #16]
 2055 0150 9042     		cmp	r0, r2
 2056 0152 4CDB     		blt	.L148
 2057 0154 B7F91600 		ldrsh	r0, [r7, #22]
 2058 0158 B7F90E40 		ldrsh	r4, [r7, #14]
 2059 015c C51D     		adds	r5, r0, #7
 2060 015e A542     		cmp	r5, r4
 2061 0160 45DB     		blt	.L148
 2062              		.loc 1 84 0
 2063 0162 A4F1070C 		sub	ip, r4, #7
 2064              		.loc 1 83 0
 2065 0166 6045     		cmp	r0, ip
 2066 0168 41DB     		blt	.L148
 2067              		.loc 1 84 0
 2068 016a 002A     		cmp	r2, #0
 2069 016c 3FDB     		blt	.L148
 2070 016e 3B78     		ldrb	r3, [r7]	@ zero_extendqisi2
 2071 0170 1493     		str	r3, [sp, #80]
 2072 0172 9A42     		cmp	r2, r3
 2073 0174 3BDA     		bge	.L148
 2074 0176 97F801C0 		ldrb	ip, [r7, #1]	@ zero_extendqisi2
 2075 017a 6045     		cmp	r0, ip
 2076 017c 37DA     		bge	.L148
 2077              	.LBE445:
 2078              	.LBE444:
 2079              		.loc 1 120 0
 2080 017e 139B     		ldr	r3, [sp, #76]
 2081 0180 13F801C0 		ldrb	ip, [r3, r1]	@ zero_extendqisi2
 2082 0184 119B     		ldr	r3, [sp, #68]
 2083              	.LBB493:
 2084              	.LBB486:
 2085              		.loc 1 90 0
 2086 0186 A042     		cmp	r0, r4
 2087              	.LBE486:
 2088              	.LBE493:
 2089              		.loc 1 120 0
 2090 0188 03EA0C03 		and	r3, r3, ip
 2091 018c 1593     		str	r3, [sp, #84]
 2092              	.LVL171:
 2093              	.LBB494:
 2094              	.LBB487:
 2095              		.loc 1 90 0
 2096 018e 06DA     		bge	.L141
 2097              		.loc 1 91 0
 2098 0190 241A     		subs	r4, r4, r0
 2099 0192 4FF0FF0C 		mov	ip, #255
 2100 0196 0CFA04F4 		lsl	r4, ip, r4
 2101 019a 2340     		ands	r3, r3, r4
 2102 019c 1593     		str	r3, [sp, #84]
 2103              	.LVL172:
 2104              	.L141:
 2105              		.loc 1 92 0
 2106 019e B7F91240 		ldrsh	r4, [r7, #18]
 2107 01a2 00F1060C 		add	ip, r0, #6
 2108 01a6 A445     		cmp	ip, r4
 2109 01a8 06DB     		blt	.L142
ARM GAS  /tmp/ccs3e2Sq.s 			page 38


 2110              		.loc 1 93 0
 2111 01aa FF23     		movs	r3, #255
 2112 01ac 2C1B     		subs	r4, r5, r4
 2113 01ae 43FA04F4 		asr	r4, r3, r4
 2114              	.LVL173:
 2115 01b2 159B     		ldr	r3, [sp, #84]
 2116 01b4 2340     		ands	r3, r3, r4
 2117              	.LVL174:
 2118 01b6 1593     		str	r3, [sp, #84]
 2119              	.LVL175:
 2120              	.L142:
 2121              		.loc 1 95 0
 2122 01b8 15EA2005 		ands	r5, r5, r0, asr #32
 2123 01bc 38BF     		it	cc
 2124 01be 0546     		movcc	r5, r0
 2125 01c0 C413     		asrs	r4, r0, #15
 2126 01c2 04EBE505 		add	r5, r4, r5, asr #3
 2127 01c6 ABB2     		uxth	r3, r5
 2128              		.loc 1 98 0
 2129 01c8 4442     		rsbs	r4, r0, #0
 2130 01ca 04F00704 		and	r4, r4, #7
 2131 01ce 00F00700 		and	r0, r0, #7
 2132              		.loc 1 95 0
 2133 01d2 1DB2     		sxth	r5, r3
 2134              	.LVL176:
 2135              		.loc 1 98 0
 2136 01d4 8446     		mov	ip, r0
 2137 01d6 58BF     		it	pl
 2138 01d8 C4F1000C 		rsbpl	ip, r4, #0
 2139              	.LBB446:
 2140              	.LBB447:
 2141              		.loc 1 62 0
 2142 01dc 002D     		cmp	r5, #0
 2143              	.LBE447:
 2144              	.LBE446:
 2145              		.loc 1 95 0
 2146 01de 1693     		str	r3, [sp, #88]
 2147              		.loc 1 98 0
 2148 01e0 0CF0070C 		and	ip, ip, #7
 2149              	.LVL177:
 2150              	.LBB458:
 2151              	.LBB454:
 2152              		.loc 1 62 0
 2153 01e4 80F26581 		bge	.L261
 2154              	.L144:
 2155              	.LVL178:
 2156              	.LBE454:
 2157              	.LBE458:
 2158              		.loc 1 100 0
 2159 01e8 0028     		cmp	r0, #0
 2160 01ea 40F05F82 		bne	.L262
 2161              	.LVL179:
 2162              	.L148:
 2163              		.loc 1 104 0
 2164 01ee 0132     		adds	r2, r2, #1
 2165 01f0 0131     		adds	r1, r1, #1
 2166              	.LVL180:
ARM GAS  /tmp/ccs3e2Sq.s 			page 39


 2167 01f2 12B2     		sxth	r2, r2
 2168              	.LBE487:
 2169              	.LBE494:
 2170              		.loc 1 119 0
 2171 01f4 0829     		cmp	r1, #8
 2172              	.LBB495:
 2173              	.LBB488:
 2174              		.loc 1 104 0
 2175 01f6 BA82     		strh	r2, [r7, #20]	@ movhi
 2176              	.LVL181:
 2177              	.LBE488:
 2178              	.LBE495:
 2179              		.loc 1 119 0
 2180 01f8 A4D1     		bne	.L152
 2181              		.loc 1 121 0
 2182 01fa DDE90C23 		ldrd	r2, r3, [sp, #48]
 2183 01fe 082A     		cmp	r2, #8
 2184 0200 66D9     		bls	.L135
 2185              	.LVL182:
 2186              		.loc 1 125 0
 2187 0202 0E9A     		ldr	r2, [sp, #56]
 2188              	.LBB496:
 2189              	.LBB497:
 2190              		.loc 1 77 0
 2191 0204 BB82     		strh	r3, [r7, #20]	@ movhi
 2192              	.LBE497:
 2193              	.LBE496:
 2194              		.loc 1 125 0
 2195 0206 0832     		adds	r2, r2, #8
 2196              	.LBB499:
 2197              	.LBB498:
 2198              		.loc 1 78 0
 2199 0208 FA82     		strh	r2, [r7, #22]	@ movhi
 2200              	.LVL183:
 2201 020a 0022     		movs	r2, #0
 2202              	.LVL184:
 2203              	.L168:
 2204              	.LBE498:
 2205              	.LBE499:
 2206              	.LBB500:
 2207              	.LBB501:
 2208              		.loc 1 83 0
 2209 020c B7F90C10 		ldrsh	r1, [r7, #12]
 2210 0210 9942     		cmp	r1, r3
 2211 0212 57DC     		bgt	.L164
 2212 0214 B7F91010 		ldrsh	r1, [r7, #16]
 2213 0218 9942     		cmp	r1, r3
 2214 021a 53DB     		blt	.L164
 2215 021c B7F91610 		ldrsh	r1, [r7, #22]
 2216 0220 B7F90E50 		ldrsh	r5, [r7, #14]
 2217 0224 C81D     		adds	r0, r1, #7
 2218 0226 A842     		cmp	r0, r5
 2219 0228 4CDB     		blt	.L164
 2220              		.loc 1 84 0
 2221 022a EC1F     		subs	r4, r5, #7
 2222              		.loc 1 83 0
 2223 022c A142     		cmp	r1, r4
ARM GAS  /tmp/ccs3e2Sq.s 			page 40


 2224 022e 49DB     		blt	.L164
 2225              		.loc 1 84 0
 2226 0230 002B     		cmp	r3, #0
 2227 0232 47DB     		blt	.L164
 2228 0234 3C78     		ldrb	r4, [r7]	@ zero_extendqisi2
 2229 0236 0D94     		str	r4, [sp, #52]
 2230 0238 A342     		cmp	r3, r4
 2231 023a 43DA     		bge	.L164
 2232 023c 97F801C0 		ldrb	ip, [r7, #1]	@ zero_extendqisi2
 2233 0240 6145     		cmp	r1, ip
 2234 0242 3FDA     		bge	.L164
 2235              	.LBE501:
 2236              	.LBE500:
 2237              		.loc 1 127 0
 2238 0244 494C     		ldr	r4, .L269
 2239 0246 08EB020C 		add	ip, r8, r2
 2240 024a A444     		add	ip, ip, r4
 2241 024c 129C     		ldr	r4, [sp, #72]
 2242 024e 9CF808C0 		ldrb	ip, [ip, #8]	@ zero_extendqisi2
 2243              	.LBB551:
 2244              	.LBB544:
 2245              		.loc 1 90 0
 2246 0252 A942     		cmp	r1, r5
 2247              	.LBE544:
 2248              	.LBE551:
 2249              		.loc 1 127 0
 2250 0254 04EA0C0C 		and	ip, r4, ip
 2251              	.LVL185:
 2252              	.LBB552:
 2253              	.LBB545:
 2254              		.loc 1 90 0
 2255 0258 05DA     		bge	.L157
 2256              		.loc 1 91 0
 2257 025a 6D1A     		subs	r5, r5, r1
 2258 025c FF24     		movs	r4, #255
 2259 025e 04FA05F5 		lsl	r5, r4, r5
 2260 0262 05EA0C0C 		and	ip, r5, ip
 2261              	.LVL186:
 2262              	.L157:
 2263              		.loc 1 92 0
 2264 0266 B7F91250 		ldrsh	r5, [r7, #18]
 2265 026a 8C1D     		adds	r4, r1, #6
 2266 026c AC42     		cmp	r4, r5
 2267 026e 05DB     		blt	.L158
 2268              		.loc 1 93 0
 2269 0270 451B     		subs	r5, r0, r5
 2270 0272 FF24     		movs	r4, #255
 2271 0274 44FA05F5 		asr	r5, r4, r5
 2272              	.LVL187:
 2273 0278 05EA0C0C 		and	ip, r5, ip
 2274              	.LVL188:
 2275              	.L158:
 2276              		.loc 1 95 0
 2277 027c 10EA2100 		ands	r0, r0, r1, asr #32
 2278 0280 38BF     		it	cc
 2279 0282 0846     		movcc	r0, r1
 2280 0284 CD13     		asrs	r5, r1, #15
ARM GAS  /tmp/ccs3e2Sq.s 			page 41


 2281 0286 05EBE005 		add	r5, r5, r0, asr #3
 2282 028a ADB2     		uxth	r5, r5
 2283              		.loc 1 98 0
 2284 028c 4842     		rsbs	r0, r1, #0
 2285 028e 00F00700 		and	r0, r0, #7
 2286              		.loc 1 95 0
 2287 0292 1395     		str	r5, [sp, #76]
 2288              		.loc 1 98 0
 2289 0294 01F00701 		and	r1, r1, #7
 2290              		.loc 1 95 0
 2291 0298 2DB2     		sxth	r5, r5
 2292              	.LVL189:
 2293              		.loc 1 98 0
 2294 029a 0C46     		mov	r4, r1
 2295 029c 58BF     		it	pl
 2296 029e 4442     		rsbpl	r4, r0, #0
 2297              	.LBB502:
 2298              	.LBB503:
 2299              		.loc 1 62 0
 2300 02a0 002D     		cmp	r5, #0
 2301              	.LBE503:
 2302              	.LBE502:
 2303              		.loc 1 98 0
 2304 02a2 04F00700 		and	r0, r4, #7
 2305              	.LVL190:
 2306              	.LBB514:
 2307              	.LBB510:
 2308              		.loc 1 62 0
 2309 02a6 80F21082 		bge	.L263
 2310              	.L160:
 2311              	.LVL191:
 2312              	.LBE510:
 2313              	.LBE514:
 2314              		.loc 1 100 0
 2315 02aa 59B1     		cbz	r1, .L164
 2316              		.loc 1 102 0
 2317 02ac C0F10801 		rsb	r1, r0, #8
 2318 02b0 1398     		ldr	r0, [sp, #76]
 2319 02b2 0130     		adds	r0, r0, #1
 2320 02b4 4CFA01F1 		asr	r1, ip, r1
 2321 02b8 00B2     		sxth	r0, r0
 2322 02ba CCB2     		uxtb	r4, r1
 2323              	.LBB515:
 2324              	.LBB516:
 2325              		.loc 1 62 0
 2326 02bc 0028     		cmp	r0, #0
 2327              	.LBE516:
 2328              	.LBE515:
 2329              		.loc 1 102 0
 2330 02be 1394     		str	r4, [sp, #76]
 2331              	.LVL192:
 2332              	.LBB534:
 2333              	.LBB527:
 2334              		.loc 1 62 0
 2335 02c0 80F27D82 		bge	.L264
 2336              	.LVL193:
 2337              	.L164:
ARM GAS  /tmp/ccs3e2Sq.s 			page 42


 2338              	.LBE527:
 2339              	.LBE534:
 2340              		.loc 1 104 0
 2341 02c4 0133     		adds	r3, r3, #1
 2342 02c6 0132     		adds	r2, r2, #1
 2343              	.LVL194:
 2344 02c8 1BB2     		sxth	r3, r3
 2345              	.LBE545:
 2346              	.LBE552:
 2347              		.loc 1 126 0
 2348 02ca 082A     		cmp	r2, #8
 2349              	.LBB553:
 2350              	.LBB546:
 2351              		.loc 1 104 0
 2352 02cc BB82     		strh	r3, [r7, #20]	@ movhi
 2353              	.LVL195:
 2354              	.LBE546:
 2355              	.LBE553:
 2356              		.loc 1 126 0
 2357 02ce 9DD1     		bne	.L168
 2358              	.LVL196:
 2359              	.L135:
 2360              	.LBE636:
 2361              	.LBE645:
 2362              		.loc 1 196 0
 2363 02d0 039B     		ldr	r3, [sp, #12]
 2364 02d2 9B44     		add	fp, fp, r3
 2365              	.LVL197:
 2366 02d4 5FFA8BFB 		uxtb	fp, fp
 2367              		.loc 1 195 0
 2368 02d8 013E     		subs	r6, r6, #1
 2369              		.loc 1 197 0
 2370 02da DA45     		cmp	r10, fp
 2371              		.loc 1 195 0
 2372 02dc F6B2     		uxtb	r6, r6
 2373              		.loc 1 194 0
 2374 02de C846     		mov	r8, r9
 2375              	.LVL198:
 2376              		.loc 1 197 0
 2377 02e0 3FF609AF 		bhi	.L185
 2378              		.loc 1 197 0 is_stmt 0 discriminator 1
 2379 02e4 059B     		ldr	r3, [sp, #20]
 2380 02e6 7345     		cmp	r3, lr
 2381 02e8 37D1     		bne	.L123
 2382              	.L186:
 2383              		.loc 1 200 0 is_stmt 1
 2384 02ea 002E     		cmp	r6, #0
 2385 02ec 40F0C480 		bne	.L188
 2386              	.LVL199:
 2387              		.loc 1 204 0
 2388 02f0 DDE90632 		ldrd	r3, r2, [sp, #24]
 2389 02f4 1344     		add	r3, r3, r2
 2390              		.loc 1 205 0
 2391 02f6 099A     		ldr	r2, [sp, #36]
 2392              		.loc 1 204 0
 2393 02f8 DBB2     		uxtb	r3, r3
 2394              		.loc 1 205 0
ARM GAS  /tmp/ccs3e2Sq.s 			page 43


 2395 02fa 9A42     		cmp	r2, r3
 2396              		.loc 1 204 0
 2397 02fc 0693     		str	r3, [sp, #24]
 2398              	.LVL200:
 2399              		.loc 1 205 0
 2400 02fe 2CD3     		bcc	.L123
 2401              		.loc 1 208 0
 2402 0300 99F80030 		ldrb	r3, [r9]	@ zero_extendqisi2
 2403              	.LVL201:
 2404 0304 202B     		cmp	r3, #32
 2405 0306 17D0     		beq	.L189
 2406              		.loc 1 208 0 is_stmt 0 discriminator 1
 2407 0308 0A2B     		cmp	r3, #10
 2408 030a 1FD0     		beq	.L190
 2409              	.LVL202:
 2410              	.L191:
 2411              		.loc 1 220 0 is_stmt 1
 2412 030c 2BB3     		cbz	r3, .L123
 2413              	.LVL203:
 2414              	.LBB646:
 2415              	.LBB647:
 2416              		.loc 1 139 0
 2417 030e 23F02002 		bic	r2, r3, #32
 2418 0312 413A     		subs	r2, r2, #65
 2419 0314 192A     		cmp	r2, #25
 2420 0316 40F29680 		bls	.L265
 2421              	.LVL204:
 2422              	.LBE647:
 2423              	.LBE646:
 2424              		.loc 1 224 0
 2425 031a 0A2B     		cmp	r3, #10
 2426 031c 00F0C180 		beq	.L195
 2427 0320 202B     		cmp	r3, #32
 2428 0322 40F0AD80 		bne	.L266
 2429              	.L258:
 2430              		.loc 1 235 0
 2431 0326 039B     		ldr	r3, [sp, #12]
 2432 0328 F318     		adds	r3, r6, r3
 2433 032a 5FFA83FB 		uxtb	fp, r3
 2434              	.LVL205:
 2435              	.L196:
 2436 032e 99F80130 		ldrb	r3, [r9, #1]	@ zero_extendqisi2
 2437              		.loc 1 238 0
 2438 0332 09F10108 		add	r8, r9, #1
 2439              	.LVL206:
 2440 0336 82E6     		b	.L125
 2441              	.LVL207:
 2442              	.L189:
 2443              		.loc 1 210 0
 2444 0338 18F8013F 		ldrb	r3, [r8, #1]!	@ zero_extendqisi2
 2445              	.LVL208:
 2446 033c 202B     		cmp	r3, #32
 2447 033e FBD0     		beq	.L189
 2448              		.loc 1 212 0
 2449 0340 0A2B     		cmp	r3, #10
 2450              		.loc 1 203 0
 2451 0342 18BF     		it	ne
ARM GAS  /tmp/ccs3e2Sq.s 			page 44


 2452 0344 4FF0000B 		movne	fp, #0
 2453              		.loc 1 212 0
 2454 0348 7FF479AE 		bne	.L125
 2455              	.LVL209:
 2456              	.L190:
 2457 034c 98F80130 		ldrb	r3, [r8, #1]	@ zero_extendqisi2
 2458              		.loc 1 203 0
 2459 0350 4FF0000B 		mov	fp, #0
 2460              		.loc 1 213 0
 2461 0354 08F10108 		add	r8, r8, #1
 2462              	.LVL210:
 2463 0358 71E6     		b	.L125
 2464              	.LVL211:
 2465              	.L123:
 2466              	.LBE435:
 2467              		.loc 1 249 0
 2468 035a 19B0     		add	sp, sp, #100
 2469              		.cfi_remember_state
 2470              		.cfi_def_cfa_offset 36
 2471              		@ sp needed
 2472 035c BDE8F08F 		pop	{r4, r5, r6, r7, r8, r9, r10, fp, pc}
 2473              	.LVL212:
 2474              	.L259:
 2475              		.cfi_restore_state
 2476              	.LBB650:
 2477              		.loc 1 161 0
 2478 0360 0132     		adds	r2, r2, #1
 2479              	.LVL213:
 2480 0362 D2B2     		uxtb	r2, r2
 2481              	.LVL214:
 2482 0364 18F80230 		ldrb	r3, [r8, r2]	@ zero_extendqisi2
 2483 0368 7AE6     		b	.L127
 2484              	.L270:
 2485 036a 00BF     		.align	2
 2486              	.L269:
 2487 036c 00000000 		.word	.LANCHOR0
 2488              	.LVL215:
 2489              	.L136:
 2490 0370 9049     		ldr	r1, .L271
 2491              	.LBB648:
 2492              	.LBB637:
 2493              	.LBB554:
 2494              	.LBB555:
 2495              		.loc 1 77 0
 2496 0372 BB82     		strh	r3, [r7, #20]	@ movhi
 2497              	.LVL216:
 2498 0374 02EB4202 		add	r2, r2, r2, lsl #1
 2499              	.LVL217:
 2500 0378 01EB420C 		add	ip, r1, r2, lsl #1
 2501              		.loc 1 78 0
 2502 037c 0A9A     		ldr	r2, [sp, #40]
 2503 037e FA82     		strh	r2, [r7, #22]	@ movhi
 2504              	.LVL218:
 2505              	.LBE555:
 2506              	.LBE554:
 2507              	.LBB557:
 2508              	.LBB558:
ARM GAS  /tmp/ccs3e2Sq.s 			page 45


 2509              		.loc 1 93 0
 2510 0380 4FF0FF08 		mov	r8, #255
 2511              	.LVL219:
 2512              	.LBE558:
 2513              	.LBE557:
 2514              	.LBB613:
 2515              	.LBB556:
 2516              		.loc 1 78 0
 2517 0384 0022     		movs	r2, #0
 2518              	.LBE556:
 2519              	.LBE613:
 2520              	.LBB614:
 2521              	.LBB605:
 2522              		.loc 1 93 0
 2523 0386 0D96     		str	r6, [sp, #52]
 2524              	.LVL220:
 2525              	.L184:
 2526              		.loc 1 83 0
 2527 0388 B7F90C10 		ldrsh	r1, [r7, #12]
 2528 038c 9942     		cmp	r1, r3
 2529 038e 52DC     		bgt	.L180
 2530 0390 B7F91010 		ldrsh	r1, [r7, #16]
 2531 0394 9942     		cmp	r1, r3
 2532 0396 4EDB     		blt	.L180
 2533 0398 B7F91610 		ldrsh	r1, [r7, #22]
 2534 039c B7F90E00 		ldrsh	r0, [r7, #14]
 2535 03a0 CC1D     		adds	r4, r1, #7
 2536 03a2 8442     		cmp	r4, r0
 2537 03a4 47DB     		blt	.L180
 2538              		.loc 1 84 0
 2539 03a6 C51F     		subs	r5, r0, #7
 2540              		.loc 1 83 0
 2541 03a8 A942     		cmp	r1, r5
 2542 03aa 44DB     		blt	.L180
 2543              		.loc 1 84 0
 2544 03ac 002B     		cmp	r3, #0
 2545 03ae 42DB     		blt	.L180
 2546 03b0 3D78     		ldrb	r5, [r7]	@ zero_extendqisi2
 2547 03b2 1395     		str	r5, [sp, #76]
 2548 03b4 AB42     		cmp	r3, r5
 2549 03b6 3EDA     		bge	.L180
 2550 03b8 7D78     		ldrb	r5, [r7, #1]	@ zero_extendqisi2
 2551 03ba A942     		cmp	r1, r5
 2552 03bc 3BDA     		bge	.L180
 2553              	.LBE605:
 2554              	.LBE614:
 2555              		.loc 1 132 0
 2556 03be 1CF80260 		ldrb	r6, [ip, r2]	@ zero_extendqisi2
 2557 03c2 119D     		ldr	r5, [sp, #68]
 2558              	.LBB615:
 2559              	.LBB606:
 2560              		.loc 1 90 0
 2561 03c4 8142     		cmp	r1, r0
 2562              	.LBE606:
 2563              	.LBE615:
 2564              		.loc 1 132 0
 2565 03c6 05EA0605 		and	r5, r5, r6
ARM GAS  /tmp/ccs3e2Sq.s 			page 46


 2566 03ca 1495     		str	r5, [sp, #80]
 2567              	.LVL221:
 2568              	.LBB616:
 2569              	.LBB607:
 2570              		.loc 1 90 0
 2571 03cc 04DA     		bge	.L173
 2572              		.loc 1 91 0
 2573 03ce 401A     		subs	r0, r0, r1
 2574 03d0 08FA00F0 		lsl	r0, r8, r0
 2575 03d4 0540     		ands	r5, r5, r0
 2576 03d6 1495     		str	r5, [sp, #80]
 2577              	.LVL222:
 2578              	.L173:
 2579              		.loc 1 92 0
 2580 03d8 B7F91200 		ldrsh	r0, [r7, #18]
 2581 03dc 8D1D     		adds	r5, r1, #6
 2582 03de 8542     		cmp	r5, r0
 2583 03e0 05DB     		blt	.L174
 2584              		.loc 1 93 0
 2585 03e2 149D     		ldr	r5, [sp, #80]
 2586 03e4 201A     		subs	r0, r4, r0
 2587 03e6 48FA00F0 		asr	r0, r8, r0
 2588              	.LVL223:
 2589 03ea 0540     		ands	r5, r5, r0
 2590              	.LVL224:
 2591 03ec 1495     		str	r5, [sp, #80]
 2592              	.LVL225:
 2593              	.L174:
 2594              		.loc 1 95 0
 2595 03ee 14EA2104 		ands	r4, r4, r1, asr #32
 2596 03f2 38BF     		it	cc
 2597 03f4 0C46     		movcc	r4, r1
 2598 03f6 C813     		asrs	r0, r1, #15
 2599 03f8 00EBE404 		add	r4, r0, r4, asr #3
 2600 03fc A4B2     		uxth	r4, r4
 2601              		.loc 1 98 0
 2602 03fe 4842     		rsbs	r0, r1, #0
 2603 0400 00F00700 		and	r0, r0, #7
 2604              		.loc 1 95 0
 2605 0404 25B2     		sxth	r5, r4
 2606              	.LVL226:
 2607              		.loc 1 98 0
 2608 0406 01F00701 		and	r1, r1, #7
 2609              		.loc 1 95 0
 2610 040a 1594     		str	r4, [sp, #84]
 2611              		.loc 1 98 0
 2612 040c 0C46     		mov	r4, r1
 2613 040e 58BF     		it	pl
 2614 0410 4442     		rsbpl	r4, r0, #0
 2615              	.LBB559:
 2616              	.LBB560:
 2617              		.loc 1 62 0
 2618 0412 002D     		cmp	r5, #0
 2619              	.LBE560:
 2620              	.LBE559:
 2621              		.loc 1 98 0
 2622 0414 04F00700 		and	r0, r4, #7
ARM GAS  /tmp/ccs3e2Sq.s 			page 47


 2623              	.LVL227:
 2624              	.LBB574:
 2625              	.LBB569:
 2626              		.loc 1 62 0
 2627 0418 80F2CE80 		bge	.L267
 2628              	.L176:
 2629              	.LVL228:
 2630              	.LBE569:
 2631              	.LBE574:
 2632              		.loc 1 100 0
 2633 041c 59B1     		cbz	r1, .L180
 2634              		.loc 1 102 0
 2635 041e 159C     		ldr	r4, [sp, #84]
 2636 0420 149D     		ldr	r5, [sp, #80]
 2637              	.LVL229:
 2638 0422 C0F10800 		rsb	r0, r0, #8
 2639 0426 0134     		adds	r4, r4, #1
 2640 0428 0541     		asrs	r5, r5, r0
 2641 042a 24B2     		sxth	r4, r4
 2642 042c E9B2     		uxtb	r1, r5
 2643              	.LBB575:
 2644              	.LBB576:
 2645              		.loc 1 62 0
 2646 042e 002C     		cmp	r4, #0
 2647              	.LBE576:
 2648              	.LBE575:
 2649              		.loc 1 102 0
 2650 0430 1491     		str	r1, [sp, #80]
 2651              	.LVL230:
 2652              	.LBB594:
 2653              	.LBB587:
 2654              		.loc 1 62 0
 2655 0432 80F2C281 		bge	.L268
 2656              	.LVL231:
 2657              	.L180:
 2658              	.LBE587:
 2659              	.LBE594:
 2660              		.loc 1 104 0
 2661 0436 0133     		adds	r3, r3, #1
 2662 0438 0132     		adds	r2, r2, #1
 2663              	.LVL232:
 2664 043a 1BB2     		sxth	r3, r3
 2665              	.LBE607:
 2666              	.LBE616:
 2667              		.loc 1 131 0
 2668 043c 062A     		cmp	r2, #6
 2669              	.LBB617:
 2670              	.LBB608:
 2671              		.loc 1 104 0
 2672 043e BB82     		strh	r3, [r7, #20]	@ movhi
 2673              	.LVL233:
 2674              	.LBE608:
 2675              	.LBE617:
 2676              		.loc 1 131 0
 2677 0440 A2D1     		bne	.L184
 2678 0442 0D9E     		ldr	r6, [sp, #52]
 2679 0444 44E7     		b	.L135
ARM GAS  /tmp/ccs3e2Sq.s 			page 48


 2680              	.LVL234:
 2681              	.L265:
 2682              	.LBE637:
 2683              	.LBE648:
 2684              		.loc 1 243 0
 2685 0446 069C     		ldr	r4, [sp, #24]
 2686 0448 099B     		ldr	r3, [sp, #36]
 2687 044a 0899     		ldr	r1, [sp, #32]
 2688 044c 0B9A     		ldr	r2, [sp, #44]
 2689 044e 079D     		ldr	r5, [sp, #28]
 2690 0450 1B1B     		subs	r3, r3, r4
 2691 0452 DBB2     		uxtb	r3, r3
 2692 0454 7118     		adds	r1, r6, r1
 2693 0456 A218     		adds	r2, r4, r2
 2694 0458 CDE90053 		strd	r5, r3, [sp]
 2695 045c 09B2     		sxth	r1, r1
 2696 045e 2D23     		movs	r3, #45
 2697 0460 12B2     		sxth	r2, r2
 2698 0462 3846     		mov	r0, r7
 2699 0464 FFF7FEFF 		bl	OLED_drawChar
 2700              	.LVL235:
 2701              		.loc 1 246 0
 2702 0468 6319     		adds	r3, r4, r5
 2703 046a DBB2     		uxtb	r3, r3
 2704 046c 0693     		str	r3, [sp, #24]
 2705              	.LVL236:
 2706              		.loc 1 245 0
 2707 046e 4FF0000B 		mov	fp, #0
 2708 0472 99F80030 		ldrb	r3, [r9]	@ zero_extendqisi2
 2709 0476 E2E5     		b	.L125
 2710              	.LVL237:
 2711              	.L188:
 2712 0478 99F80030 		ldrb	r3, [r9]	@ zero_extendqisi2
 2713              		.loc 1 200 0
 2714 047c 5E46     		mov	r6, fp
 2715              	.LVL238:
 2716 047e 45E7     		b	.L191
 2717              	.LVL239:
 2718              	.L266:
 2719              		.loc 1 234 0
 2720 0480 0999     		ldr	r1, [sp, #36]
 2721 0482 069A     		ldr	r2, [sp, #24]
 2722 0484 079C     		ldr	r4, [sp, #28]
 2723 0486 881A     		subs	r0, r1, r2
 2724 0488 0B99     		ldr	r1, [sp, #44]
 2725 048a 0A44     		add	r2, r2, r1
 2726 048c 0899     		ldr	r1, [sp, #32]
 2727 048e C0B2     		uxtb	r0, r0
 2728 0490 7118     		adds	r1, r6, r1
 2729 0492 CDE90040 		strd	r4, r0, [sp]
 2730 0496 12B2     		sxth	r2, r2
 2731 0498 09B2     		sxth	r1, r1
 2732 049a 3846     		mov	r0, r7
 2733 049c FFF7FEFF 		bl	OLED_drawChar
 2734              	.LVL240:
 2735 04a0 41E7     		b	.L258
 2736              	.L195:
ARM GAS  /tmp/ccs3e2Sq.s 			page 49


 2737              	.LVL241:
 2738              		.loc 1 228 0
 2739 04a2 DDE90632 		ldrd	r3, r2, [sp, #24]
 2740 04a6 1344     		add	r3, r3, r2
 2741 04a8 DBB2     		uxtb	r3, r3
 2742 04aa 0693     		str	r3, [sp, #24]
 2743              	.LVL242:
 2744              		.loc 1 227 0
 2745 04ac 4FF0000B 		mov	fp, #0
 2746              		.loc 1 229 0
 2747 04b0 3DE7     		b	.L196
 2748              	.LVL243:
 2749              	.L261:
 2750              	.LBB649:
 2751              	.LBB638:
 2752              	.LBB618:
 2753              	.LBB489:
 2754              	.LBB459:
 2755              	.LBB455:
 2756              	.LBB448:
 2757              	.LBB449:
 2758              		.loc 1 62 0
 2759 04b2 FC78     		ldrb	r4, [r7, #3]	@ zero_extendqisi2
 2760 04b4 A542     		cmp	r5, r4
 2761 04b6 BFF697AE 		bge	.L144
 2762              	.LVL244:
 2763              		.loc 1 64 0
 2764 04ba 149B     		ldr	r3, [sp, #80]
 2765 04bc BC68     		ldr	r4, [r7, #8]
 2766 04be 15FB0320 		smlabb	r0, r5, r3, r2
 2767              		.loc 1 65 0
 2768 04c2 3B7E     		ldrb	r3, [r7, #24]	@ zero_extendqisi2
 2769 04c4 1793     		str	r3, [sp, #92]
 2770              		.loc 1 64 0
 2771 04c6 235C     		ldrb	r3, [r4, r0]	@ zero_extendqisi2
 2772 04c8 1493     		str	r3, [sp, #80]
 2773              	.LVL245:
 2774              	.LBE449:
 2775              	.LBE448:
 2776              	.LBE455:
 2777              	.LBE459:
 2778              		.loc 1 98 0
 2779 04ca 159B     		ldr	r3, [sp, #84]
 2780 04cc 03FA0CFC 		lsl	ip, r3, ip
 2781              	.LBB460:
 2782              	.LBB456:
 2783              	.LBB452:
 2784              	.LBB450:
 2785              		.loc 1 65 0
 2786 04d0 179B     		ldr	r3, [sp, #92]
 2787 04d2 002B     		cmp	r3, #0
 2788 04d4 00F07581 		beq	.L145
 2789              		.loc 1 66 0
 2790 04d8 149B     		ldr	r3, [sp, #80]
 2791 04da 23EA0C0C 		bic	ip, r3, ip
 2792              	.L146:
 2793 04de 04F800C0 		strb	ip, [r4, r0]
ARM GAS  /tmp/ccs3e2Sq.s 			page 50


 2794              	.LVL246:
 2795              		.loc 1 69 0
 2796 04e2 3C78     		ldrb	r4, [r7]	@ zero_extendqisi2
 2797 04e4 B868     		ldr	r0, [r7, #8]
 2798 04e6 15FB0424 		smlabb	r4, r5, r4, r2
 2799 04ea 005D     		ldrb	r0, [r0, r4]	@ zero_extendqisi2
 2800 04ec 9842     		cmp	r0, r3
 2801 04ee 0FD0     		beq	.L147
 2802              		.loc 1 72 0
 2803 04f0 BC78     		ldrb	r4, [r7, #2]	@ zero_extendqisi2
 2804 04f2 D7F804C0 		ldr	ip, [r7, #4]
 2805 04f6 1011     		asrs	r0, r2, #4
 2806 04f8 15FB0400 		smlabb	r0, r5, r4, r0
 2807 04fc C2F34202 		ubfx	r2, r2, #1, #3
 2808 0500 1CF80040 		ldrb	r4, [ip, r0]	@ zero_extendqisi2
 2809 0504 0123     		movs	r3, #1
 2810 0506 03FA02F2 		lsl	r2, r3, r2
 2811 050a 2243     		orrs	r2, r2, r4
 2812 050c 0CF80020 		strb	r2, [ip, r0]
 2813              	.L147:
 2814              	.LVL247:
 2815              	.LBE450:
 2816              	.LBE452:
 2817              	.LBE456:
 2818              	.LBE460:
 2819              		.loc 1 100 0
 2820 0510 B7F91600 		ldrsh	r0, [r7, #22]
 2821 0514 B7F91420 		ldrsh	r2, [r7, #20]
 2822 0518 10F00704 		ands	r4, r0, #7
 2823 051c 3FF467AE 		beq	.L148
 2824              	.LVL248:
 2825              	.LBB461:
 2826              	.LBB462:
 2827              		.loc 1 62 0
 2828 0520 002A     		cmp	r2, #0
 2829 0522 FFF664AE 		blt	.L148
 2830              	.LBE462:
 2831              	.LBE461:
 2832              		.loc 1 102 0
 2833 0526 4042     		rsbs	r0, r0, #0
 2834              	.LVL249:
 2835 0528 00F00700 		and	r0, r0, #7
 2836 052c 58BF     		it	pl
 2837 052e 4442     		rsbpl	r4, r0, #0
 2838 0530 04F0070C 		and	ip, r4, #7
 2839 0534 159B     		ldr	r3, [sp, #84]
 2840              	.LBB479:
 2841              	.LBB473:
 2842              	.LBB463:
 2843              	.LBB464:
 2844              		.loc 1 62 0
 2845 0536 3C78     		ldrb	r4, [r7]	@ zero_extendqisi2
 2846              	.LBE464:
 2847              	.LBE463:
 2848              	.LBE473:
 2849              	.LBE479:
 2850              		.loc 1 102 0
ARM GAS  /tmp/ccs3e2Sq.s 			page 51


 2851 0538 169D     		ldr	r5, [sp, #88]
 2852              	.LVL250:
 2853 053a CCF1080C 		rsb	ip, ip, #8
 2854 053e 43FA0CFC 		asr	ip, r3, ip
 2855 0542 0135     		adds	r5, r5, #1
 2856              	.LBB480:
 2857              	.LBB474:
 2858              	.LBB469:
 2859              	.LBB465:
 2860              		.loc 1 62 0
 2861 0544 A242     		cmp	r2, r4
 2862              	.LBE465:
 2863              	.LBE469:
 2864              	.LBE474:
 2865              	.LBE480:
 2866              		.loc 1 102 0
 2867 0546 2DB2     		sxth	r5, r5
 2868 0548 5FFA8CF0 		uxtb	r0, ip
 2869              	.LVL251:
 2870              	.LBB481:
 2871              	.LBB475:
 2872              	.LBB470:
 2873              	.LBB466:
 2874              		.loc 1 62 0
 2875 054c BFF64FAE 		bge	.L148
 2876              	.LVL252:
 2877              	.L206:
 2878 0550 FB78     		ldrb	r3, [r7, #3]	@ zero_extendqisi2
 2879 0552 9D42     		cmp	r5, r3
 2880 0554 BFF64BAE 		bge	.L148
 2881              		.loc 1 64 0
 2882 0558 04FB0524 		mla	r4, r4, r5, r2
 2883 055c 1594     		str	r4, [sp, #84]
 2884              		.loc 1 65 0
 2885 055e 3C7E     		ldrb	r4, [r7, #24]	@ zero_extendqisi2
 2886              		.loc 1 64 0
 2887 0560 BB68     		ldr	r3, [r7, #8]
 2888              		.loc 1 65 0
 2889 0562 1794     		str	r4, [sp, #92]
 2890              		.loc 1 64 0
 2891 0564 159C     		ldr	r4, [sp, #84]
 2892 0566 1693     		str	r3, [sp, #88]
 2893              	.LVL253:
 2894 0568 1B5D     		ldrb	r3, [r3, r4]	@ zero_extendqisi2
 2895              		.loc 1 65 0
 2896 056a 179C     		ldr	r4, [sp, #92]
 2897              		.loc 1 64 0
 2898 056c 1493     		str	r3, [sp, #80]
 2899              	.LVL254:
 2900              		.loc 1 65 0
 2901 056e 002C     		cmp	r4, #0
 2902 0570 00F03581 		beq	.L149
 2903              		.loc 1 66 0
 2904 0574 23EA0C0C 		bic	ip, r3, ip
 2905              	.L150:
 2906 0578 DDE91503 		ldrd	r0, r3, [sp, #84]
 2907              	.LVL255:
ARM GAS  /tmp/ccs3e2Sq.s 			page 52


 2908 057c 03F800C0 		strb	ip, [r3, r0]
 2909              		.loc 1 69 0
 2910 0580 3C78     		ldrb	r4, [r7]	@ zero_extendqisi2
 2911 0582 B868     		ldr	r0, [r7, #8]
 2912 0584 149B     		ldr	r3, [sp, #80]
 2913 0586 15FB0424 		smlabb	r4, r5, r4, r2
 2914 058a 005D     		ldrb	r0, [r0, r4]	@ zero_extendqisi2
 2915 058c 9842     		cmp	r0, r3
 2916 058e 0DD0     		beq	.L255
 2917              		.loc 1 72 0
 2918 0590 97F802C0 		ldrb	ip, [r7, #2]	@ zero_extendqisi2
 2919 0594 7868     		ldr	r0, [r7, #4]
 2920 0596 1411     		asrs	r4, r2, #4
 2921 0598 15FB0C45 		smlabb	r5, r5, ip, r4
 2922              	.LVL256:
 2923 059c C2F34202 		ubfx	r2, r2, #1, #3
 2924              	.LVL257:
 2925 05a0 445D     		ldrb	r4, [r0, r5]	@ zero_extendqisi2
 2926 05a2 0123     		movs	r3, #1
 2927 05a4 03FA02F2 		lsl	r2, r3, r2
 2928 05a8 2243     		orrs	r2, r2, r4
 2929 05aa 4255     		strb	r2, [r0, r5]
 2930              	.L255:
 2931 05ac B7F91420 		ldrsh	r2, [r7, #20]
 2932 05b0 1DE6     		b	.L148
 2933              	.L272:
 2934 05b2 00BF     		.align	2
 2935              	.L271:
 2936 05b4 00000000 		.word	.LANCHOR1
 2937              	.LVL258:
 2938              	.L267:
 2939              	.LBE466:
 2940              	.LBE470:
 2941              	.LBE475:
 2942              	.LBE481:
 2943              	.LBE489:
 2944              	.LBE618:
 2945              	.LBB619:
 2946              	.LBB609:
 2947              	.LBB595:
 2948              	.LBB570:
 2949              	.LBB561:
 2950              	.LBB562:
 2951              		.loc 1 62 0
 2952 05b8 FC78     		ldrb	r4, [r7, #3]	@ zero_extendqisi2
 2953 05ba A542     		cmp	r5, r4
 2954 05bc BFF62EAF 		bge	.L176
 2955              		.loc 1 64 0
 2956 05c0 1399     		ldr	r1, [sp, #76]
 2957 05c2 BC68     		ldr	r4, [r7, #8]
 2958 05c4 1694     		str	r4, [sp, #88]
 2959 05c6 15FB0136 		smlabb	r6, r5, r1, r3
 2960              		.loc 1 65 0
 2961 05ca 397E     		ldrb	r1, [r7, #24]	@ zero_extendqisi2
 2962 05cc 1791     		str	r1, [sp, #92]
 2963              	.LBE562:
 2964              	.LBE561:
ARM GAS  /tmp/ccs3e2Sq.s 			page 53


 2965              	.LBE570:
 2966              	.LBE595:
 2967              		.loc 1 98 0
 2968 05ce 1499     		ldr	r1, [sp, #80]
 2969              	.LBB596:
 2970              	.LBB571:
 2971              	.LBB566:
 2972              	.LBB563:
 2973              		.loc 1 64 0
 2974 05d0 A45D     		ldrb	r4, [r4, r6]	@ zero_extendqisi2
 2975 05d2 1396     		str	r6, [sp, #76]
 2976              	.LBE563:
 2977              	.LBE566:
 2978              	.LBE571:
 2979              	.LBE596:
 2980              		.loc 1 98 0
 2981 05d4 01FA00F0 		lsl	r0, r1, r0
 2982              	.LBB597:
 2983              	.LBB572:
 2984              	.LBB567:
 2985              	.LBB564:
 2986              		.loc 1 65 0
 2987 05d8 1799     		ldr	r1, [sp, #92]
 2988              		.loc 1 64 0
 2989 05da 2646     		mov	r6, r4
 2990              	.LVL259:
 2991              		.loc 1 65 0
 2992 05dc 0029     		cmp	r1, #0
 2993 05de 00F0F680 		beq	.L177
 2994              		.loc 1 66 0
 2995 05e2 24EA0000 		bic	r0, r4, r0
 2996              	.L178:
 2997 05e6 1699     		ldr	r1, [sp, #88]
 2998 05e8 139C     		ldr	r4, [sp, #76]
 2999              	.LVL260:
 3000 05ea 0855     		strb	r0, [r1, r4]
 3001              	.LVL261:
 3002              		.loc 1 69 0
 3003 05ec 3878     		ldrb	r0, [r7]	@ zero_extendqisi2
 3004 05ee B968     		ldr	r1, [r7, #8]
 3005 05f0 15FB0030 		smlabb	r0, r5, r0, r3
 3006 05f4 095C     		ldrb	r1, [r1, r0]	@ zero_extendqisi2
 3007 05f6 B142     		cmp	r1, r6
 3008 05f8 0DD0     		beq	.L179
 3009              		.loc 1 72 0
 3010 05fa B878     		ldrb	r0, [r7, #2]	@ zero_extendqisi2
 3011 05fc 1911     		asrs	r1, r3, #4
 3012 05fe 15FB0011 		smlabb	r1, r5, r0, r1
 3013 0602 7868     		ldr	r0, [r7, #4]
 3014 0604 C3F34203 		ubfx	r3, r3, #1, #3
 3015 0608 405C     		ldrb	r0, [r0, r1]	@ zero_extendqisi2
 3016 060a 0124     		movs	r4, #1
 3017 060c 04FA03F3 		lsl	r3, r4, r3
 3018 0610 0343     		orrs	r3, r3, r0
 3019 0612 7868     		ldr	r0, [r7, #4]
 3020 0614 4354     		strb	r3, [r0, r1]
 3021              	.L179:
ARM GAS  /tmp/ccs3e2Sq.s 			page 54


 3022              	.LVL262:
 3023              	.LBE564:
 3024              	.LBE567:
 3025              	.LBE572:
 3026              	.LBE597:
 3027              		.loc 1 100 0
 3028 0616 B7F91610 		ldrsh	r1, [r7, #22]
 3029 061a B7F91430 		ldrsh	r3, [r7, #20]
 3030 061e 11F00700 		ands	r0, r1, #7
 3031 0622 3FF408AF 		beq	.L180
 3032              	.LVL263:
 3033              	.LBB598:
 3034              	.LBB588:
 3035              		.loc 1 62 0
 3036 0626 002B     		cmp	r3, #0
 3037 0628 FFF605AF 		blt	.L180
 3038              	.LBE588:
 3039              	.LBE598:
 3040              		.loc 1 102 0
 3041 062c 4942     		rsbs	r1, r1, #0
 3042              	.LVL264:
 3043 062e 01F00701 		and	r1, r1, #7
 3044 0632 58BF     		it	pl
 3045 0634 4842     		rsbpl	r0, r1, #0
 3046 0636 149D     		ldr	r5, [sp, #80]
 3047              	.LVL265:
 3048              	.LBB599:
 3049              	.LBB589:
 3050              	.LBB577:
 3051              	.LBB578:
 3052              		.loc 1 62 0
 3053 0638 3978     		ldrb	r1, [r7]	@ zero_extendqisi2
 3054              	.LBE578:
 3055              	.LBE577:
 3056              	.LBE589:
 3057              	.LBE599:
 3058              		.loc 1 102 0
 3059 063a 159C     		ldr	r4, [sp, #84]
 3060 063c 00F00700 		and	r0, r0, #7
 3061 0640 C0F10800 		rsb	r0, r0, #8
 3062 0644 0541     		asrs	r5, r5, r0
 3063 0646 0134     		adds	r4, r4, #1
 3064 0648 E8B2     		uxtb	r0, r5
 3065              	.LBB600:
 3066              	.LBB590:
 3067              	.LBB583:
 3068              	.LBB579:
 3069              		.loc 1 62 0
 3070 064a 8B42     		cmp	r3, r1
 3071              	.LBE579:
 3072              	.LBE583:
 3073              	.LBE590:
 3074              	.LBE600:
 3075              		.loc 1 102 0
 3076 064c 24B2     		sxth	r4, r4
 3077 064e 1490     		str	r0, [sp, #80]
 3078              	.LVL266:
ARM GAS  /tmp/ccs3e2Sq.s 			page 55


 3079              	.LBB601:
 3080              	.LBB591:
 3081              	.LBB584:
 3082              	.LBB580:
 3083              		.loc 1 62 0
 3084 0650 BFF6F1AE 		bge	.L180
 3085              	.LVL267:
 3086              	.L208:
 3087 0654 F878     		ldrb	r0, [r7, #3]	@ zero_extendqisi2
 3088 0656 8442     		cmp	r4, r0
 3089 0658 BFF6EDAE 		bge	.L180
 3090              		.loc 1 64 0
 3091 065c 01FB0436 		mla	r6, r1, r4, r3
 3092 0660 B968     		ldr	r1, [r7, #8]
 3093 0662 1391     		str	r1, [sp, #76]
 3094 0664 1399     		ldr	r1, [sp, #76]
 3095              		.loc 1 65 0
 3096 0666 387E     		ldrb	r0, [r7, #24]	@ zero_extendqisi2
 3097              		.loc 1 64 0
 3098 0668 895D     		ldrb	r1, [r1, r6]	@ zero_extendqisi2
 3099 066a 1596     		str	r6, [sp, #84]
 3100              	.LVL268:
 3101 066c 0E46     		mov	r6, r1
 3102              	.LVL269:
 3103              		.loc 1 65 0
 3104 066e 0028     		cmp	r0, #0
 3105 0670 00F0BB80 		beq	.L181
 3106              		.loc 1 66 0
 3107 0674 21EA0501 		bic	r1, r1, r5
 3108              	.LVL270:
 3109              	.L182:
 3110 0678 1398     		ldr	r0, [sp, #76]
 3111 067a 159D     		ldr	r5, [sp, #84]
 3112 067c 4155     		strb	r1, [r0, r5]
 3113              		.loc 1 69 0
 3114 067e 3878     		ldrb	r0, [r7]	@ zero_extendqisi2
 3115 0680 B968     		ldr	r1, [r7, #8]
 3116 0682 14FB0030 		smlabb	r0, r4, r0, r3
 3117 0686 095C     		ldrb	r1, [r1, r0]	@ zero_extendqisi2
 3118 0688 B142     		cmp	r1, r6
 3119 068a 0CD0     		beq	.L257
 3120              		.loc 1 72 0
 3121 068c BD78     		ldrb	r5, [r7, #2]	@ zero_extendqisi2
 3122 068e 7968     		ldr	r1, [r7, #4]
 3123 0690 1811     		asrs	r0, r3, #4
 3124 0692 14FB0504 		smlabb	r4, r4, r5, r0
 3125              	.LVL271:
 3126 0696 C3F34203 		ubfx	r3, r3, #1, #3
 3127              	.LVL272:
 3128 069a 085D     		ldrb	r0, [r1, r4]	@ zero_extendqisi2
 3129 069c 0125     		movs	r5, #1
 3130 069e 05FA03F3 		lsl	r3, r5, r3
 3131 06a2 0343     		orrs	r3, r3, r0
 3132 06a4 0B55     		strb	r3, [r1, r4]
 3133              	.L257:
 3134 06a6 B7F91430 		ldrsh	r3, [r7, #20]
 3135 06aa C4E6     		b	.L180
ARM GAS  /tmp/ccs3e2Sq.s 			page 56


 3136              	.LVL273:
 3137              	.L262:
 3138              	.LBE580:
 3139              	.LBE584:
 3140              	.LBE591:
 3141              	.LBE601:
 3142              	.LBE609:
 3143              	.LBE619:
 3144              	.LBB620:
 3145              	.LBB490:
 3146              		.loc 1 102 0
 3147 06ac 169D     		ldr	r5, [sp, #88]
 3148              	.LVL274:
 3149 06ae 159B     		ldr	r3, [sp, #84]
 3150              	.LVL275:
 3151 06b0 0135     		adds	r5, r5, #1
 3152 06b2 CCF1080C 		rsb	ip, ip, #8
 3153 06b6 2DB2     		sxth	r5, r5
 3154 06b8 43FA0CFC 		asr	ip, r3, ip
 3155              	.LBB482:
 3156              	.LBB476:
 3157              		.loc 1 62 0
 3158 06bc 002D     		cmp	r5, #0
 3159              	.LBE476:
 3160              	.LBE482:
 3161              		.loc 1 102 0
 3162 06be 5FFA8CF0 		uxtb	r0, ip
 3163              	.LVL276:
 3164              	.LBB483:
 3165              	.LBB477:
 3166              		.loc 1 62 0
 3167 06c2 FFF694AD 		blt	.L148
 3168              	.LVL277:
 3169              	.LBB471:
 3170              	.LBB467:
 3171 06c6 149C     		ldr	r4, [sp, #80]
 3172 06c8 42E7     		b	.L206
 3173              	.LVL278:
 3174              	.L263:
 3175              	.LBE467:
 3176              	.LBE471:
 3177              	.LBE477:
 3178              	.LBE483:
 3179              	.LBE490:
 3180              	.LBE620:
 3181              	.LBB621:
 3182              	.LBB547:
 3183              	.LBB535:
 3184              	.LBB511:
 3185              	.LBB504:
 3186              	.LBB505:
 3187 06ca FC78     		ldrb	r4, [r7, #3]	@ zero_extendqisi2
 3188 06cc A542     		cmp	r5, r4
 3189 06ce BFF6ECAD 		bge	.L160
 3190              		.loc 1 64 0
 3191 06d2 0D99     		ldr	r1, [sp, #52]
 3192 06d4 BC68     		ldr	r4, [r7, #8]
ARM GAS  /tmp/ccs3e2Sq.s 			page 57


 3193 06d6 1594     		str	r4, [sp, #84]
 3194 06d8 15FB0131 		smlabb	r1, r5, r1, r3
 3195 06dc 1491     		str	r1, [sp, #80]
 3196              		.loc 1 65 0
 3197 06de 397E     		ldrb	r1, [r7, #24]	@ zero_extendqisi2
 3198 06e0 1691     		str	r1, [sp, #88]
 3199              		.loc 1 64 0
 3200 06e2 1499     		ldr	r1, [sp, #80]
 3201 06e4 615C     		ldrb	r1, [r4, r1]	@ zero_extendqisi2
 3202 06e6 0D91     		str	r1, [sp, #52]
 3203              	.LVL279:
 3204              		.loc 1 65 0
 3205 06e8 1699     		ldr	r1, [sp, #88]
 3206              	.LBE505:
 3207              	.LBE504:
 3208              	.LBE511:
 3209              	.LBE535:
 3210              		.loc 1 98 0
 3211 06ea 0CFA00F0 		lsl	r0, ip, r0
 3212              	.LBB536:
 3213              	.LBB512:
 3214              	.LBB508:
 3215              	.LBB506:
 3216              		.loc 1 65 0
 3217 06ee 0029     		cmp	r1, #0
 3218 06f0 70D0     		beq	.L161
 3219              		.loc 1 66 0
 3220 06f2 0D99     		ldr	r1, [sp, #52]
 3221 06f4 21EA0001 		bic	r1, r1, r0
 3222 06f8 0C46     		mov	r4, r1
 3223              	.L162:
 3224 06fa DDE91401 		ldrd	r0, r1, [sp, #80]
 3225 06fe 0C54     		strb	r4, [r1, r0]
 3226              	.LVL280:
 3227              		.loc 1 69 0
 3228 0700 3878     		ldrb	r0, [r7]	@ zero_extendqisi2
 3229 0702 B968     		ldr	r1, [r7, #8]
 3230 0704 15FB0030 		smlabb	r0, r5, r0, r3
 3231 0708 095C     		ldrb	r1, [r1, r0]	@ zero_extendqisi2
 3232 070a 0D98     		ldr	r0, [sp, #52]
 3233 070c 8142     		cmp	r1, r0
 3234 070e 0CD0     		beq	.L163
 3235              		.loc 1 72 0
 3236 0710 B878     		ldrb	r0, [r7, #2]	@ zero_extendqisi2
 3237 0712 7C68     		ldr	r4, [r7, #4]
 3238 0714 1911     		asrs	r1, r3, #4
 3239 0716 15FB0011 		smlabb	r1, r5, r0, r1
 3240 071a C3F34203 		ubfx	r3, r3, #1, #3
 3241 071e 605C     		ldrb	r0, [r4, r1]	@ zero_extendqisi2
 3242 0720 0125     		movs	r5, #1
 3243              	.LVL281:
 3244 0722 05FA03F3 		lsl	r3, r5, r3
 3245 0726 0343     		orrs	r3, r3, r0
 3246 0728 6354     		strb	r3, [r4, r1]
 3247              	.L163:
 3248              	.LVL282:
 3249              	.LBE506:
ARM GAS  /tmp/ccs3e2Sq.s 			page 58


 3250              	.LBE508:
 3251              	.LBE512:
 3252              	.LBE536:
 3253              		.loc 1 100 0
 3254 072a B7F91610 		ldrsh	r1, [r7, #22]
 3255 072e B7F91430 		ldrsh	r3, [r7, #20]
 3256 0732 11F00700 		ands	r0, r1, #7
 3257 0736 3FF4C5AD 		beq	.L164
 3258              	.LVL283:
 3259              	.LBB537:
 3260              	.LBB528:
 3261              		.loc 1 62 0
 3262 073a 002B     		cmp	r3, #0
 3263 073c FFF6C2AD 		blt	.L164
 3264              	.LBE528:
 3265              	.LBE537:
 3266              		.loc 1 102 0
 3267 0740 4942     		rsbs	r1, r1, #0
 3268              	.LVL284:
 3269 0742 01F00701 		and	r1, r1, #7
 3270 0746 58BF     		it	pl
 3271 0748 4842     		rsbpl	r0, r1, #0
 3272 074a 00F00701 		and	r1, r0, #7
 3273 074e C1F10801 		rsb	r1, r1, #8
 3274 0752 1398     		ldr	r0, [sp, #76]
 3275              	.LBB538:
 3276              	.LBB529:
 3277              	.LBB517:
 3278              	.LBB518:
 3279              		.loc 1 62 0
 3280 0754 3C78     		ldrb	r4, [r7]	@ zero_extendqisi2
 3281              	.LBE518:
 3282              	.LBE517:
 3283              	.LBE529:
 3284              	.LBE538:
 3285              		.loc 1 102 0
 3286 0756 4CFA01F1 		asr	r1, ip, r1
 3287 075a 0130     		adds	r0, r0, #1
 3288 075c CDB2     		uxtb	r5, r1
 3289              	.LBB539:
 3290              	.LBB530:
 3291              	.LBB523:
 3292              	.LBB519:
 3293              		.loc 1 62 0
 3294 075e A342     		cmp	r3, r4
 3295              	.LBE519:
 3296              	.LBE523:
 3297              	.LBE530:
 3298              	.LBE539:
 3299              		.loc 1 102 0
 3300 0760 00B2     		sxth	r0, r0
 3301 0762 1395     		str	r5, [sp, #76]
 3302              	.LVL285:
 3303              	.LBB540:
 3304              	.LBB531:
 3305              	.LBB524:
 3306              	.LBB520:
ARM GAS  /tmp/ccs3e2Sq.s 			page 59


 3307              		.loc 1 62 0
 3308 0764 BFF6AEAD 		bge	.L164
 3309              	.LVL286:
 3310              	.L207:
 3311 0768 97F803C0 		ldrb	ip, [r7, #3]	@ zero_extendqisi2
 3312 076c 6045     		cmp	r0, ip
 3313 076e BFF6A9AD 		bge	.L164
 3314              		.loc 1 64 0
 3315 0772 04FB003C 		mla	ip, r4, r0, r3
 3316              		.loc 1 65 0
 3317 0776 3D7E     		ldrb	r5, [r7, #24]	@ zero_extendqisi2
 3318              		.loc 1 64 0
 3319 0778 BC68     		ldr	r4, [r7, #8]
 3320 077a 0D94     		str	r4, [sp, #52]
 3321 077c 14F80C40 		ldrb	r4, [r4, ip]	@ zero_extendqisi2
 3322              	.LVL287:
 3323              		.loc 1 65 0
 3324 0780 85B3     		cbz	r5, .L165
 3325              		.loc 1 66 0
 3326 0782 24EA0101 		bic	r1, r4, r1
 3327              	.L166:
 3328 0786 0D9D     		ldr	r5, [sp, #52]
 3329 0788 05F80C10 		strb	r1, [r5, ip]
 3330              		.loc 1 69 0
 3331 078c 3D78     		ldrb	r5, [r7]	@ zero_extendqisi2
 3332 078e B968     		ldr	r1, [r7, #8]
 3333 0790 10FB0535 		smlabb	r5, r0, r5, r3
 3334 0794 495D     		ldrb	r1, [r1, r5]	@ zero_extendqisi2
 3335 0796 A142     		cmp	r1, r4
 3336 0798 0CD0     		beq	.L256
 3337              		.loc 1 72 0
 3338 079a BD78     		ldrb	r5, [r7, #2]	@ zero_extendqisi2
 3339 079c 7968     		ldr	r1, [r7, #4]
 3340 079e 1C11     		asrs	r4, r3, #4
 3341              	.LVL288:
 3342 07a0 10FB0540 		smlabb	r0, r0, r5, r4
 3343              	.LVL289:
 3344 07a4 C3F34203 		ubfx	r3, r3, #1, #3
 3345              	.LVL290:
 3346 07a8 0C5C     		ldrb	r4, [r1, r0]	@ zero_extendqisi2
 3347 07aa 0125     		movs	r5, #1
 3348 07ac 05FA03F3 		lsl	r3, r5, r3
 3349 07b0 2343     		orrs	r3, r3, r4
 3350 07b2 0B54     		strb	r3, [r1, r0]
 3351              	.L256:
 3352 07b4 B7F91430 		ldrsh	r3, [r7, #20]
 3353 07b8 84E5     		b	.L164
 3354              	.LVL291:
 3355              	.L268:
 3356              	.LBE520:
 3357              	.LBE524:
 3358              	.LBE531:
 3359              	.LBE540:
 3360              	.LBE547:
 3361              	.LBE621:
 3362              	.LBB622:
 3363              	.LBB610:
ARM GAS  /tmp/ccs3e2Sq.s 			page 60


 3364              	.LBB602:
 3365              	.LBB592:
 3366              	.LBB585:
 3367              	.LBB581:
 3368              		.loc 1 62 0
 3369 07ba 1399     		ldr	r1, [sp, #76]
 3370 07bc 4AE7     		b	.L208
 3371              	.LVL292:
 3372              	.L264:
 3373              	.LBE581:
 3374              	.LBE585:
 3375              	.LBE592:
 3376              	.LBE602:
 3377              	.LBE610:
 3378              	.LBE622:
 3379              	.LBB623:
 3380              	.LBB548:
 3381              	.LBB541:
 3382              	.LBB532:
 3383              	.LBB525:
 3384              	.LBB521:
 3385 07be 0D9C     		ldr	r4, [sp, #52]
 3386 07c0 D2E7     		b	.L207
 3387              	.LVL293:
 3388              	.L145:
 3389              	.LBE521:
 3390              	.LBE525:
 3391              	.LBE532:
 3392              	.LBE541:
 3393              	.LBE548:
 3394              	.LBE623:
 3395              	.LBB624:
 3396              	.LBB491:
 3397              	.LBB484:
 3398              	.LBB457:
 3399              	.LBB453:
 3400              	.LBB451:
 3401              		.loc 1 68 0
 3402 07c2 149B     		ldr	r3, [sp, #80]
 3403 07c4 43EA0C0C 		orr	ip, r3, ip
 3404 07c8 5FFA8CFC 		uxtb	ip, ip
 3405 07cc 87E6     		b	.L146
 3406              	.LVL294:
 3407              	.L177:
 3408              	.LBE451:
 3409              	.LBE453:
 3410              	.LBE457:
 3411              	.LBE484:
 3412              	.LBE491:
 3413              	.LBE624:
 3414              	.LBB625:
 3415              	.LBB611:
 3416              	.LBB603:
 3417              	.LBB573:
 3418              	.LBB568:
 3419              	.LBB565:
 3420 07ce 2043     		orrs	r0, r0, r4
ARM GAS  /tmp/ccs3e2Sq.s 			page 61


 3421 07d0 C0B2     		uxtb	r0, r0
 3422 07d2 08E7     		b	.L178
 3423              	.LVL295:
 3424              	.L161:
 3425              	.LBE565:
 3426              	.LBE568:
 3427              	.LBE573:
 3428              	.LBE603:
 3429              	.LBE611:
 3430              	.LBE625:
 3431              	.LBB626:
 3432              	.LBB549:
 3433              	.LBB542:
 3434              	.LBB513:
 3435              	.LBB509:
 3436              	.LBB507:
 3437 07d4 0D99     		ldr	r1, [sp, #52]
 3438 07d6 0843     		orrs	r0, r0, r1
 3439 07d8 C1B2     		uxtb	r1, r0
 3440 07da 0C46     		mov	r4, r1
 3441 07dc 8DE7     		b	.L162
 3442              	.LVL296:
 3443              	.L149:
 3444              	.LBE507:
 3445              	.LBE509:
 3446              	.LBE513:
 3447              	.LBE542:
 3448              	.LBE549:
 3449              	.LBE626:
 3450              	.LBB627:
 3451              	.LBB492:
 3452              	.LBB485:
 3453              	.LBB478:
 3454              	.LBB472:
 3455              	.LBB468:
 3456 07de 43EA000C 		orr	ip, r3, r0
 3457 07e2 C9E6     		b	.L150
 3458              	.LVL297:
 3459              	.L165:
 3460              	.LBE468:
 3461              	.LBE472:
 3462              	.LBE478:
 3463              	.LBE485:
 3464              	.LBE492:
 3465              	.LBE627:
 3466              	.LBB628:
 3467              	.LBB550:
 3468              	.LBB543:
 3469              	.LBB533:
 3470              	.LBB526:
 3471              	.LBB522:
 3472 07e4 1399     		ldr	r1, [sp, #76]
 3473 07e6 2143     		orrs	r1, r1, r4
 3474 07e8 CDE7     		b	.L166
 3475              	.LVL298:
 3476              	.L181:
 3477              	.LBE522:
ARM GAS  /tmp/ccs3e2Sq.s 			page 62


 3478              	.LBE526:
 3479              	.LBE533:
 3480              	.LBE543:
 3481              	.LBE550:
 3482              	.LBE628:
 3483              	.LBB629:
 3484              	.LBB612:
 3485              	.LBB604:
 3486              	.LBB593:
 3487              	.LBB586:
 3488              	.LBB582:
 3489 07ea 1498     		ldr	r0, [sp, #80]
 3490 07ec 0843     		orrs	r0, r0, r1
 3491 07ee 0146     		mov	r1, r0
 3492              	.LVL299:
 3493 07f0 42E7     		b	.L182
 3494              	.LBE582:
 3495              	.LBE586:
 3496              	.LBE593:
 3497              	.LBE604:
 3498              	.LBE612:
 3499              	.LBE629:
 3500              	.LBE638:
 3501              	.LBE649:
 3502              	.LBE650:
 3503              		.cfi_endproc
 3504              	.LFE335:
 3505              		.size	OLED_drawString, .-OLED_drawString
 3506 07f2 00BF     		.section	.text.OLED_fill,"ax",%progbits
 3507              		.align	1
 3508              		.p2align 2,,3
 3509              		.global	OLED_fill
 3510              		.syntax unified
 3511              		.thumb
 3512              		.thumb_func
 3513              		.fpu fpv4-sp-d16
 3514              		.type	OLED_fill, %function
 3515              	OLED_fill:
 3516              	.LFB336:
 3517              		.loc 1 252 0
 3518              		.cfi_startproc
 3519              		@ args = 4, pretend = 0, frame = 24
 3520              		@ frame_needed = 0, uses_anonymous_args = 0
 3521              	.LVL300:
 3522 0000 2DE9F04F 		push	{r4, r5, r6, r7, r8, r9, r10, fp, lr}
 3523              		.cfi_def_cfa_offset 36
 3524              		.cfi_offset 4, -36
 3525              		.cfi_offset 5, -32
 3526              		.cfi_offset 6, -28
 3527              		.cfi_offset 7, -24
 3528              		.cfi_offset 8, -20
 3529              		.cfi_offset 9, -16
 3530              		.cfi_offset 10, -12
 3531              		.cfi_offset 11, -8
 3532              		.cfi_offset 14, -4
 3533 0004 B0F90EC0 		ldrsh	ip, [r0, #14]
 3534 0008 B0F90C70 		ldrsh	r7, [r0, #12]
ARM GAS  /tmp/ccs3e2Sq.s 			page 63


 3535 000c B0F91060 		ldrsh	r6, [r0, #16]
 3536 0010 B0F91250 		ldrsh	r5, [r0, #18]
 3537 0014 87B0     		sub	sp, sp, #28
 3538              		.cfi_def_cfa_offset 64
 3539 0016 9445     		cmp	ip, r2
 3540 0018 B8BF     		it	lt
 3541 001a 9446     		movlt	ip, r2
 3542              		.loc 1 252 0
 3543 001c BDF94040 		ldrsh	r4, [sp, #64]
 3544 0020 B942     		cmp	r1, r7
 3545 0022 B8BF     		it	lt
 3546 0024 3946     		movlt	r1, r7
 3547              	.LVL301:
 3548 0026 B342     		cmp	r3, r6
 3549 0028 A8BF     		it	ge
 3550 002a 3346     		movge	r3, r6
 3551              	.LVL302:
 3552 002c A542     		cmp	r5, r4
 3553 002e A8BF     		it	ge
 3554 0030 2546     		movge	r5, r4
 3555              	.LBB666:
 3556              		.loc 1 262 0
 3557 0032 DCF10002 		rsbs	r2, ip, #0
 3558 0036 02F00702 		and	r2, r2, #7
 3559 003a AA46     		mov	r10, r5
 3560              	.LVL303:
 3561 003c 0CF00705 		and	r5, ip, #7
 3562 0040 58BF     		it	pl
 3563 0042 5542     		rsbpl	r5, r2, #0
 3564 0044 05F00705 		and	r5, r5, #7
 3565 0048 ACEB0505 		sub	r5, ip, r5
 3566 004c 2DB2     		sxth	r5, r5
 3567              	.LVL304:
 3568 004e 5545     		cmp	r5, r10
 3569 0050 7ADC     		bgt	.L273
 3570              	.LBB667:
 3571              		.loc 1 264 0
 3572 0052 4FF0FF0B 		mov	fp, #255
 3573              	.LBB668:
 3574              	.LBB669:
 3575              	.LBB670:
 3576              	.LBB671:
 3577              	.LBB672:
 3578              	.LBB673:
 3579              	.LBB674:
 3580              		.loc 1 72 0
 3581 0056 CDF804C0 		str	ip, [sp, #4]
 3582              	.LVL305:
 3583              	.L293:
 3584              	.LBE674:
 3585              	.LBE673:
 3586              	.LBE672:
 3587              	.LBE671:
 3588              	.LBE670:
 3589              	.LBE669:
 3590              	.LBE668:
 3591              		.loc 1 266 0
ARM GAS  /tmp/ccs3e2Sq.s 			page 64


 3592 005a 019A     		ldr	r2, [sp, #4]
 3593              	.LBB723:
 3594              	.LBB724:
 3595              		.loc 1 77 0
 3596 005c 8182     		strh	r1, [r0, #20]	@ movhi
 3597              	.LBE724:
 3598              	.LBE723:
 3599              		.loc 1 266 0
 3600 005e AA42     		cmp	r2, r5
 3601              		.loc 1 267 0
 3602 0060 C2BF     		ittt	gt
 3603 0062 521B     		subgt	r2, r2, r5
 3604 0064 0BFA02F2 		lslgt	r2, fp, r2
 3605 0068 5FFA82F8 		uxtbgt	r8, r2
 3606              		.loc 1 268 0
 3607 006c 05F10602 		add	r2, r5, #6
 3608              		.loc 1 264 0
 3609 0070 D8BF     		it	le
 3610 0072 4FF0FF08 		movle	r8, #255
 3611              		.loc 1 268 0
 3612 0076 5245     		cmp	r2, r10
 3613              	.LBB726:
 3614              	.LBB725:
 3615              		.loc 1 78 0
 3616 0078 C582     		strh	r5, [r0, #22]	@ movhi
 3617              	.LVL306:
 3618              	.LBE725:
 3619              	.LBE726:
 3620              		.loc 1 268 0
 3621 007a 06DB     		blt	.L276
 3622              		.loc 1 269 0
 3623 007c EA1D     		adds	r2, r5, #7
 3624 007e A2EB0A02 		sub	r2, r2, r10
 3625 0082 4BFA02F2 		asr	r2, fp, r2
 3626 0086 02EA0808 		and	r8, r2, r8
 3627              	.LVL307:
 3628              	.L276:
 3629              	.LBB727:
 3630              		.loc 1 270 0
 3631 008a 8B42     		cmp	r3, r1
 3632 008c 58DB     		blt	.L277
 3633 008e 0A46     		mov	r2, r1
 3634 0090 0C46     		mov	r4, r1
 3635              	.LVL308:
 3636              	.L292:
 3637              	.LBB720:
 3638              	.LBB717:
 3639              		.loc 1 83 0
 3640 0092 B0F90C60 		ldrsh	r6, [r0, #12]
 3641 0096 9642     		cmp	r6, r2
 3642 0098 4BDC     		bgt	.L288
 3643 009a B0F91060 		ldrsh	r6, [r0, #16]
 3644 009e 9642     		cmp	r6, r2
 3645 00a0 47DB     		blt	.L288
 3646 00a2 B0F91660 		ldrsh	r6, [r0, #22]
 3647 00a6 B0F90EE0 		ldrsh	lr, [r0, #14]
 3648 00aa 06F1070C 		add	ip, r6, #7
ARM GAS  /tmp/ccs3e2Sq.s 			page 65


 3649 00ae F445     		cmp	ip, lr
 3650 00b0 3FDB     		blt	.L288
 3651              		.loc 1 84 0
 3652 00b2 AEF10707 		sub	r7, lr, #7
 3653              		.loc 1 83 0
 3654 00b6 BE42     		cmp	r6, r7
 3655 00b8 3BDB     		blt	.L288
 3656              		.loc 1 84 0
 3657 00ba 002A     		cmp	r2, #0
 3658 00bc 39DB     		blt	.L288
 3659 00be 0778     		ldrb	r7, [r0]	@ zero_extendqisi2
 3660 00c0 0297     		str	r7, [sp, #8]
 3661 00c2 BA42     		cmp	r2, r7
 3662 00c4 35DA     		bge	.L288
 3663 00c6 90F80190 		ldrb	r9, [r0, #1]	@ zero_extendqisi2
 3664 00ca 4E45     		cmp	r6, r9
 3665 00cc 31DA     		bge	.L288
 3666              		.loc 1 90 0
 3667 00ce 7645     		cmp	r6, lr
 3668 00d0 3DDB     		blt	.L307
 3669              		.loc 1 89 0
 3670 00d2 CDF80C80 		str	r8, [sp, #12]
 3671              	.L281:
 3672              	.LVL309:
 3673              		.loc 1 92 0
 3674 00d6 B0F912E0 		ldrsh	lr, [r0, #18]
 3675 00da 06F10609 		add	r9, r6, #6
 3676 00de F145     		cmp	r9, lr
 3677 00e0 09DB     		blt	.L282
 3678              		.loc 1 93 0
 3679 00e2 039F     		ldr	r7, [sp, #12]
 3680 00e4 ACEB0E0E 		sub	lr, ip, lr
 3681 00e8 4BFA0EFE 		asr	lr, fp, lr
 3682 00ec 0EEA070E 		and	lr, lr, r7
 3683              	.LVL310:
 3684 00f0 5FFA8EF7 		uxtb	r7, lr
 3685              	.LVL311:
 3686 00f4 0397     		str	r7, [sp, #12]
 3687              	.LVL312:
 3688              	.L282:
 3689              		.loc 1 95 0
 3690 00f6 1CEA260C 		ands	ip, ip, r6, asr #32
 3691 00fa 38BF     		it	cc
 3692 00fc B446     		movcc	ip, r6
 3693 00fe 4FEAE63E 		asr	lr, r6, #15
 3694 0102 0EEBEC0E 		add	lr, lr, ip, asr #3
 3695 0106 1FFA8EF9 		uxth	r9, lr
 3696              		.loc 1 98 0
 3697 010a D6F1000C 		rsbs	ip, r6, #0
 3698 010e 0CF0070C 		and	ip, ip, #7
 3699 0112 06F00706 		and	r6, r6, #7
 3700              		.loc 1 95 0
 3701 0116 0FFA89FE 		sxth	lr, r9
 3702              	.LVL313:
 3703              		.loc 1 98 0
 3704 011a 3746     		mov	r7, r6
 3705 011c 58BF     		it	pl
ARM GAS  /tmp/ccs3e2Sq.s 			page 66


 3706 011e CCF10007 		rsbpl	r7, ip, #0
 3707              	.LBB693:
 3708              	.LBB694:
 3709              		.loc 1 62 0
 3710 0122 BEF1000F 		cmp	lr, #0
 3711              	.LBE694:
 3712              	.LBE693:
 3713              		.loc 1 98 0
 3714 0126 07F0070C 		and	ip, r7, #7
 3715              	.LVL314:
 3716              	.LBB705:
 3717              	.LBB701:
 3718              		.loc 1 62 0
 3719 012a 18DA     		bge	.L308
 3720              	.L284:
 3721              	.LVL315:
 3722              	.LBE701:
 3723              	.LBE705:
 3724              		.loc 1 100 0
 3725 012c 002E     		cmp	r6, #0
 3726 012e 40F0A080 		bne	.L309
 3727              	.LVL316:
 3728              	.L288:
 3729 0132 0134     		adds	r4, r4, #1
 3730              	.LVL317:
 3731              		.loc 1 104 0
 3732 0134 0132     		adds	r2, r2, #1
 3733 0136 24B2     		sxth	r4, r4
 3734 0138 12B2     		sxth	r2, r2
 3735              	.LBE717:
 3736              	.LBE720:
 3737              		.loc 1 270 0
 3738 013a A342     		cmp	r3, r4
 3739              	.LBB721:
 3740              	.LBB718:
 3741              		.loc 1 104 0
 3742 013c 8282     		strh	r2, [r0, #20]	@ movhi
 3743              	.LVL318:
 3744              	.LBE718:
 3745              	.LBE721:
 3746              		.loc 1 270 0
 3747 013e A8DA     		bge	.L292
 3748              	.LVL319:
 3749              	.L277:
 3750 0140 0135     		adds	r5, r5, #1
 3751              	.LVL320:
 3752 0142 2DB2     		sxth	r5, r5
 3753              	.LVL321:
 3754              	.LBE727:
 3755              	.LBE667:
 3756              		.loc 1 262 0
 3757 0144 AA45     		cmp	r10, r5
 3758 0146 88DA     		bge	.L293
 3759              	.LVL322:
 3760              	.L273:
 3761              	.LBE666:
 3762              		.loc 1 273 0
ARM GAS  /tmp/ccs3e2Sq.s 			page 67


 3763 0148 07B0     		add	sp, sp, #28
 3764              		.cfi_remember_state
 3765              		.cfi_def_cfa_offset 36
 3766              		@ sp needed
 3767 014a BDE8F08F 		pop	{r4, r5, r6, r7, r8, r9, r10, fp, pc}
 3768              	.LVL323:
 3769              	.L307:
 3770              		.cfi_restore_state
 3771              	.LBB730:
 3772              	.LBB729:
 3773              	.LBB728:
 3774              	.LBB722:
 3775              	.LBB719:
 3776              		.loc 1 91 0
 3777 014e AEEB060E 		sub	lr, lr, r6
 3778 0152 0BFA0EFE 		lsl	lr, fp, lr
 3779 0156 0EEA0807 		and	r7, lr, r8
 3780 015a 0397     		str	r7, [sp, #12]
 3781              	.LVL324:
 3782 015c BBE7     		b	.L281
 3783              	.LVL325:
 3784              	.L308:
 3785              	.LBB706:
 3786              	.LBB702:
 3787              	.LBB695:
 3788              	.LBB696:
 3789              		.loc 1 62 0
 3790 015e C778     		ldrb	r7, [r0, #3]	@ zero_extendqisi2
 3791 0160 BE45     		cmp	lr, r7
 3792 0162 E3DA     		bge	.L284
 3793              	.LVL326:
 3794              		.loc 1 64 0
 3795 0164 029E     		ldr	r6, [sp, #8]
 3796 0166 8768     		ldr	r7, [r0, #8]
 3797 0168 1EFB0626 		smlabb	r6, lr, r6, r2
 3798 016c 0496     		str	r6, [sp, #16]
 3799              		.loc 1 65 0
 3800 016e 067E     		ldrb	r6, [r0, #24]	@ zero_extendqisi2
 3801 0170 0596     		str	r6, [sp, #20]
 3802              		.loc 1 64 0
 3803 0172 049E     		ldr	r6, [sp, #16]
 3804 0174 BE5D     		ldrb	r6, [r7, r6]	@ zero_extendqisi2
 3805 0176 0296     		str	r6, [sp, #8]
 3806              	.LVL327:
 3807              	.LBE696:
 3808              	.LBE695:
 3809              	.LBE702:
 3810              	.LBE706:
 3811              		.loc 1 98 0
 3812 0178 039E     		ldr	r6, [sp, #12]
 3813 017a 06FA0CFC 		lsl	ip, r6, ip
 3814              	.LBB707:
 3815              	.LBB703:
 3816              	.LBB699:
 3817              	.LBB697:
 3818              		.loc 1 65 0
 3819 017e 059E     		ldr	r6, [sp, #20]
ARM GAS  /tmp/ccs3e2Sq.s 			page 68


 3820 0180 002E     		cmp	r6, #0
 3821 0182 40F08680 		bne	.L310
 3822              		.loc 1 68 0
 3823 0186 029E     		ldr	r6, [sp, #8]
 3824 0188 46EA0C0C 		orr	ip, r6, ip
 3825 018c 5FFA8CFC 		uxtb	ip, ip
 3826              	.L286:
 3827 0190 049E     		ldr	r6, [sp, #16]
 3828 0192 07F806C0 		strb	ip, [r7, r6]
 3829              	.LVL328:
 3830              		.loc 1 69 0
 3831 0196 0778     		ldrb	r7, [r0]	@ zero_extendqisi2
 3832 0198 8668     		ldr	r6, [r0, #8]
 3833 019a 1EFB0727 		smlabb	r7, lr, r7, r2
 3834 019e F65D     		ldrb	r6, [r6, r7]	@ zero_extendqisi2
 3835 01a0 029F     		ldr	r7, [sp, #8]
 3836 01a2 BE42     		cmp	r6, r7
 3837 01a4 10D0     		beq	.L287
 3838              		.loc 1 72 0
 3839 01a6 8778     		ldrb	r7, [r0, #2]	@ zero_extendqisi2
 3840 01a8 D0F804C0 		ldr	ip, [r0, #4]
 3841 01ac 1611     		asrs	r6, r2, #4
 3842 01ae 1EFB0766 		smlabb	r6, lr, r7, r6
 3843 01b2 C2F34202 		ubfx	r2, r2, #1, #3
 3844 01b6 1CF80670 		ldrb	r7, [ip, r6]	@ zero_extendqisi2
 3845 01ba 4FF0010E 		mov	lr, #1
 3846              	.LVL329:
 3847 01be 0EFA02F2 		lsl	r2, lr, r2
 3848 01c2 3A43     		orrs	r2, r2, r7
 3849 01c4 0CF80620 		strb	r2, [ip, r6]
 3850              	.L287:
 3851              	.LVL330:
 3852              	.LBE697:
 3853              	.LBE699:
 3854              	.LBE703:
 3855              	.LBE707:
 3856              		.loc 1 100 0
 3857 01c8 B0F91660 		ldrsh	r6, [r0, #22]
 3858 01cc B0F91420 		ldrsh	r2, [r0, #20]
 3859 01d0 16F00707 		ands	r7, r6, #7
 3860 01d4 ADD0     		beq	.L288
 3861              	.LVL331:
 3862              	.LBB708:
 3863              	.LBB685:
 3864              		.loc 1 62 0
 3865 01d6 002A     		cmp	r2, #0
 3866 01d8 ABDB     		blt	.L288
 3867              	.LBE685:
 3868              	.LBE708:
 3869              		.loc 1 102 0
 3870 01da 7642     		rsbs	r6, r6, #0
 3871              	.LVL332:
 3872 01dc 06F00706 		and	r6, r6, #7
 3873 01e0 58BF     		it	pl
 3874 01e2 7742     		rsbpl	r7, r6, #0
 3875 01e4 07F00706 		and	r6, r7, #7
 3876              	.LBB709:
ARM GAS  /tmp/ccs3e2Sq.s 			page 69


 3877              	.LBB686:
 3878              	.LBB680:
 3879              	.LBB675:
 3880              		.loc 1 62 0
 3881 01e8 0778     		ldrb	r7, [r0]	@ zero_extendqisi2
 3882 01ea 0297     		str	r7, [sp, #8]
 3883              	.LBE675:
 3884              	.LBE680:
 3885              	.LBE686:
 3886              	.LBE709:
 3887              		.loc 1 102 0
 3888 01ec 039F     		ldr	r7, [sp, #12]
 3889 01ee C6F10806 		rsb	r6, r6, #8
 3890 01f2 3741     		asrs	r7, r7, r6
 3891 01f4 3E46     		mov	r6, r7
 3892 01f6 5FFA87FE 		uxtb	lr, r7
 3893              	.LVL333:
 3894              	.LBB710:
 3895              	.LBB687:
 3896              	.LBB681:
 3897              	.LBB676:
 3898              		.loc 1 62 0
 3899 01fa 029F     		ldr	r7, [sp, #8]
 3900              	.LBE676:
 3901              	.LBE681:
 3902              	.LBE687:
 3903              	.LBE710:
 3904              		.loc 1 102 0
 3905 01fc 09F1010C 		add	ip, r9, #1
 3906              	.LBB711:
 3907              	.LBB688:
 3908              	.LBB682:
 3909              	.LBB677:
 3910              		.loc 1 62 0
 3911 0200 BA42     		cmp	r2, r7
 3912              	.LBE677:
 3913              	.LBE682:
 3914              	.LBE688:
 3915              	.LBE711:
 3916              		.loc 1 102 0
 3917 0202 0FFA8CFC 		sxth	ip, ip
 3918              	.LVL334:
 3919              	.LBB712:
 3920              	.LBB689:
 3921              	.LBB683:
 3922              	.LBB678:
 3923              		.loc 1 62 0
 3924 0206 94DA     		bge	.L288
 3925              	.LVL335:
 3926              	.L296:
 3927 0208 90F80390 		ldrb	r9, [r0, #3]	@ zero_extendqisi2
 3928              	.LVL336:
 3929 020c CC45     		cmp	ip, r9
 3930 020e 90DA     		bge	.L288
 3931              	.LVL337:
 3932              		.loc 1 64 0
 3933 0210 029F     		ldr	r7, [sp, #8]
ARM GAS  /tmp/ccs3e2Sq.s 			page 70


 3934 0212 07FB0C29 		mla	r9, r7, ip, r2
 3935 0216 8768     		ldr	r7, [r0, #8]
 3936 0218 0397     		str	r7, [sp, #12]
 3937              		.loc 1 65 0
 3938 021a 077E     		ldrb	r7, [r0, #24]	@ zero_extendqisi2
 3939 021c 0497     		str	r7, [sp, #16]
 3940              		.loc 1 64 0
 3941 021e 039F     		ldr	r7, [sp, #12]
 3942 0220 17F80970 		ldrb	r7, [r7, r9]	@ zero_extendqisi2
 3943 0224 0297     		str	r7, [sp, #8]
 3944              	.LVL338:
 3945              		.loc 1 65 0
 3946 0226 049F     		ldr	r7, [sp, #16]
 3947 0228 BFB3     		cbz	r7, .L289
 3948              		.loc 1 66 0
 3949 022a 029F     		ldr	r7, [sp, #8]
 3950 022c 27EA0606 		bic	r6, r7, r6
 3951              	.L290:
 3952 0230 039F     		ldr	r7, [sp, #12]
 3953 0232 07F80960 		strb	r6, [r7, r9]
 3954              		.loc 1 69 0
 3955 0236 90F800E0 		ldrb	lr, [r0]	@ zero_extendqisi2
 3956              	.LVL339:
 3957 023a 8668     		ldr	r6, [r0, #8]
 3958 023c 029F     		ldr	r7, [sp, #8]
 3959 023e 1CFB0E2E 		smlabb	lr, ip, lr, r2
 3960 0242 16F80E60 		ldrb	r6, [r6, lr]	@ zero_extendqisi2
 3961 0246 BE42     		cmp	r6, r7
 3962 0248 10D0     		beq	.L306
 3963              		.loc 1 72 0
 3964 024a 90F802E0 		ldrb	lr, [r0, #2]	@ zero_extendqisi2
 3965 024e 4668     		ldr	r6, [r0, #4]
 3966 0250 1711     		asrs	r7, r2, #4
 3967 0252 1CFB0E7C 		smlabb	ip, ip, lr, r7
 3968              	.LVL340:
 3969 0256 C2F34202 		ubfx	r2, r2, #1, #3
 3970              	.LVL341:
 3971 025a 16F80C70 		ldrb	r7, [r6, ip]	@ zero_extendqisi2
 3972 025e 4FF0010E 		mov	lr, #1
 3973 0262 0EFA02F2 		lsl	r2, lr, r2
 3974 0266 3A43     		orrs	r2, r2, r7
 3975 0268 06F80C20 		strb	r2, [r6, ip]
 3976              	.L306:
 3977 026c B0F91420 		ldrsh	r2, [r0, #20]
 3978 0270 5FE7     		b	.L288
 3979              	.LVL342:
 3980              	.L309:
 3981              	.LBE678:
 3982              	.LBE683:
 3983              	.LBE689:
 3984              	.LBE712:
 3985              		.loc 1 102 0
 3986 0272 CCF10806 		rsb	r6, ip, #8
 3987 0276 039F     		ldr	r7, [sp, #12]
 3988 0278 09F1010C 		add	ip, r9, #1
 3989 027c 0FFA8CFC 		sxth	ip, ip
 3990 0280 3741     		asrs	r7, r7, r6
ARM GAS  /tmp/ccs3e2Sq.s 			page 71


 3991              	.LBB713:
 3992              	.LBB690:
 3993              		.loc 1 62 0
 3994 0282 BCF1000F 		cmp	ip, #0
 3995              	.LBE690:
 3996              	.LBE713:
 3997              		.loc 1 102 0
 3998 0286 3E46     		mov	r6, r7
 3999 0288 5FFA87FE 		uxtb	lr, r7
 4000              	.LVL343:
 4001              	.LBB714:
 4002              	.LBB691:
 4003              		.loc 1 62 0
 4004 028c FFF651AF 		blt	.L288
 4005 0290 BAE7     		b	.L296
 4006              	.LVL344:
 4007              	.L310:
 4008              	.LBE691:
 4009              	.LBE714:
 4010              	.LBB715:
 4011              	.LBB704:
 4012              	.LBB700:
 4013              	.LBB698:
 4014              		.loc 1 66 0
 4015 0292 029E     		ldr	r6, [sp, #8]
 4016 0294 26EA0C0C 		bic	ip, r6, ip
 4017 0298 7AE7     		b	.L286
 4018              	.LVL345:
 4019              	.L289:
 4020              	.LBE698:
 4021              	.LBE700:
 4022              	.LBE704:
 4023              	.LBE715:
 4024              	.LBB716:
 4025              	.LBB692:
 4026              	.LBB684:
 4027              	.LBB679:
 4028              		.loc 1 68 0
 4029 029a 029E     		ldr	r6, [sp, #8]
 4030 029c 46EA0E06 		orr	r6, r6, lr
 4031 02a0 C6E7     		b	.L290
 4032              	.LBE679:
 4033              	.LBE684:
 4034              	.LBE692:
 4035              	.LBE716:
 4036              	.LBE719:
 4037              	.LBE722:
 4038              	.LBE728:
 4039              	.LBE729:
 4040              	.LBE730:
 4041              		.cfi_endproc
 4042              	.LFE336:
 4043              		.size	OLED_fill, .-OLED_fill
 4044 02a2 00BF     		.section	.text.OLED_copyFromBuffer,"ax",%progbits
 4045              		.align	1
 4046              		.p2align 2,,3
 4047              		.global	OLED_copyFromBuffer
ARM GAS  /tmp/ccs3e2Sq.s 			page 72


 4048              		.syntax unified
 4049              		.thumb
 4050              		.thumb_func
 4051              		.fpu fpv4-sp-d16
 4052              		.type	OLED_copyFromBuffer, %function
 4053              	OLED_copyFromBuffer:
 4054              	.LFB337:
 4055              		.loc 1 277 0
 4056              		.cfi_startproc
 4057              		@ args = 16, pretend = 0, frame = 40
 4058              		@ frame_needed = 0, uses_anonymous_args = 0
 4059              	.LVL346:
 4060 0000 2DE9F04F 		push	{r4, r5, r6, r7, r8, r9, r10, fp, lr}
 4061              		.cfi_def_cfa_offset 36
 4062              		.cfi_offset 4, -36
 4063              		.cfi_offset 5, -32
 4064              		.cfi_offset 6, -28
 4065              		.cfi_offset 7, -24
 4066              		.cfi_offset 8, -20
 4067              		.cfi_offset 9, -16
 4068              		.cfi_offset 10, -12
 4069              		.cfi_offset 11, -8
 4070              		.cfi_offset 14, -4
 4071 0004 8BB0     		sub	sp, sp, #44
 4072              		.cfi_def_cfa_offset 80
 4073              		.loc 1 281 0
 4074 0006 B0F90CC0 		ldrsh	ip, [r0, #12]
 4075              		.loc 1 277 0
 4076 000a BDF950B0 		ldrsh	fp, [sp, #80]
 4077 000e BDF95440 		ldrsh	r4, [sp, #84]
 4078 0012 0194     		str	r4, [sp, #4]
 4079              		.loc 1 281 0
 4080 0014 9445     		cmp	ip, r2
 4081              		.loc 1 277 0
 4082 0016 9DF85840 		ldrb	r4, [sp, #88]	@ zero_extendqisi2
 4083 001a 9DF85C60 		ldrb	r6, [sp, #92]	@ zero_extendqisi2
 4084 001e 0591     		str	r1, [sp, #20]
 4085 0020 97B2     		uxth	r7, r2
 4086 0022 1FFA8BF5 		uxth	r5, fp
 4087              		.loc 1 281 0
 4088 0026 40F3DE80 		ble	.L347
 4089              		.loc 1 281 0 is_stmt 0 discriminator 1
 4090 002a 1FFA8CF1 		uxth	r1, ip
 4091              	.LVL347:
 4092 002e CA1B     		subs	r2, r1, r7
 4093              	.LVL348:
 4094 0030 92B2     		uxth	r2, r2
 4095 0032 1544     		add	r5, r5, r2
 4096 0034 ADB2     		uxth	r5, r5
 4097 0036 A41A     		subs	r4, r4, r2
 4098 0038 E4B2     		uxtb	r4, r4
 4099 003a 0F46     		mov	r7, r1
 4100              	.LVL349:
 4101 003c E246     		mov	r10, ip
 4102 003e 0FFA85FB 		sxth	fp, r5
 4103              	.L312:
 4104              		.loc 1 282 0 is_stmt 1 discriminator 4
ARM GAS  /tmp/ccs3e2Sq.s 			page 73


 4105 0042 B0F90EC0 		ldrsh	ip, [r0, #14]
 4106 0046 BDF80410 		ldrh	r1, [sp, #4]
 4107 004a 9C45     		cmp	ip, r3
 4108 004c 1FFA83F8 		uxth	r8, r3
 4109 0050 0CDD     		ble	.L313
 4110              		.loc 1 282 0 is_stmt 0 discriminator 1
 4111 0052 1FFA8CFE 		uxth	lr, ip
 4112 0056 AEEB0803 		sub	r3, lr, r8
 4113              	.LVL350:
 4114 005a 9BB2     		uxth	r3, r3
 4115 005c 1944     		add	r1, r1, r3
 4116 005e 89B2     		uxth	r1, r1
 4117 0060 F61A     		subs	r6, r6, r3
 4118 0062 0AB2     		sxth	r2, r1
 4119 0064 F6B2     		uxtb	r6, r6
 4120 0066 F046     		mov	r8, lr
 4121              	.LVL351:
 4122 0068 6346     		mov	r3, ip
 4123 006a 0192     		str	r2, [sp, #4]
 4124              	.L313:
 4125              	.LVL352:
 4126              		.loc 1 291 0 is_stmt 1 discriminator 4
 4127 006c 0AEB040C 		add	ip, r10, r4
 4128 0070 B0F910E0 		ldrsh	lr, [r0, #16]
 4129 0074 0CF1FF3C 		add	ip, ip, #-1
 4130 0078 F445     		cmp	ip, lr
 4131 007a 03DD     		ble	.L314
 4132 007c AEEB0704 		sub	r4, lr, r7
 4133 0080 0134     		adds	r4, r4, #1
 4134 0082 E4B2     		uxtb	r4, r4
 4135              	.L314:
 4136              		.loc 1 292 0 discriminator 4
 4137 0084 9F19     		adds	r7, r3, r6
 4138 0086 B0F912C0 		ldrsh	ip, [r0, #18]
 4139 008a 013F     		subs	r7, r7, #1
 4140 008c 6745     		cmp	r7, ip
 4141 008e 03DD     		ble	.L315
 4142 0090 ACEB0806 		sub	r6, ip, r8
 4143 0094 0136     		adds	r6, r6, #1
 4144 0096 F6B2     		uxtb	r6, r6
 4145              	.L315:
 4146              	.LBB746:
 4147              		.loc 1 298 0 discriminator 4
 4148 0098 019A     		ldr	r2, [sp, #4]
 4149 009a 5742     		rsbs	r7, r2, #0
 4150 009c 07F00707 		and	r7, r7, #7
 4151 00a0 02F00702 		and	r2, r2, #7
 4152 00a4 58BF     		it	pl
 4153 00a6 7A42     		rsbpl	r2, r7, #0
 4154 00a8 02F00702 		and	r2, r2, #7
 4155 00ac 8A1A     		subs	r2, r1, r2
 4156              	.LBE746:
 4157              		.loc 1 295 0 discriminator 4
 4158 00ae 0139     		subs	r1, r1, #1
 4159              		.loc 1 294 0 discriminator 4
 4160 00b0 013D     		subs	r5, r5, #1
 4161              	.LBB815:
ARM GAS  /tmp/ccs3e2Sq.s 			page 74


 4162              		.loc 1 298 0 discriminator 4
 4163 00b2 92B2     		uxth	r2, r2
 4164              	.LBE815:
 4165              		.loc 1 295 0 discriminator 4
 4166 00b4 3144     		add	r1, r1, r6
 4167              		.loc 1 294 0 discriminator 4
 4168 00b6 2544     		add	r5, r5, r4
 4169              		.loc 1 295 0 discriminator 4
 4170 00b8 0FFA81FE 		sxth	lr, r1
 4171              	.LBB816:
 4172              		.loc 1 298 0 discriminator 4
 4173 00bc 14B2     		sxth	r4, r2
 4174 00be A645     		cmp	lr, r4
 4175              	.LBE816:
 4176              		.loc 1 294 0 discriminator 4
 4177 00c0 2DB2     		sxth	r5, r5
 4178              	.LVL353:
 4179              	.LBB817:
 4180              		.loc 1 298 0 discriminator 4
 4181 00c2 C0F28B80 		blt	.L311
 4182 00c6 9B1A     		subs	r3, r3, r2
 4183              	.LBB747:
 4184              	.LBB748:
 4185              	.LBB749:
 4186              	.LBB750:
 4187              	.LBB751:
 4188              	.LBB752:
 4189              	.LBB753:
 4190              	.LBB754:
 4191              		.loc 1 72 0
 4192 00c8 DDF80490 		ldr	r9, [sp, #4]
 4193 00cc 0293     		str	r3, [sp, #8]
 4194              	.L336:
 4195              	.LBE754:
 4196              	.LBE753:
 4197              	.LBE752:
 4198              	.LBE751:
 4199              	.LBE750:
 4200              	.LBE749:
 4201              	.LBE748:
 4202              	.LBB807:
 4203              	.LBB808:
 4204              		.loc 1 78 0
 4205 00ce 029B     		ldr	r3, [sp, #8]
 4206              		.loc 1 77 0
 4207 00d0 A0F814A0 		strh	r10, [r0, #20]	@ movhi
 4208 00d4 A1B2     		uxth	r1, r4
 4209              	.LVL354:
 4210              		.loc 1 78 0
 4211 00d6 CB18     		adds	r3, r1, r3
 4212              	.LBE808:
 4213              	.LBE807:
 4214              		.loc 1 304 0
 4215 00d8 4C45     		cmp	r4, r9
 4216              	.LBB810:
 4217              	.LBB809:
 4218              		.loc 1 78 0
ARM GAS  /tmp/ccs3e2Sq.s 			page 75


 4219 00da C382     		strh	r3, [r0, #22]	@ movhi
 4220              	.LVL355:
 4221              	.LBE809:
 4222              	.LBE810:
 4223              		.loc 1 304 0
 4224 00dc 80F28180 		bge	.L340
 4225              		.loc 1 305 0
 4226 00e0 A9EB0403 		sub	r3, r9, r4
 4227 00e4 FF22     		movs	r2, #255
 4228 00e6 02FA03F3 		lsl	r3, r2, r3
 4229 00ea DFB2     		uxtb	r7, r3
 4230              	.LVL356:
 4231              	.L317:
 4232              		.loc 1 306 0
 4233 00ec A31D     		adds	r3, r4, #6
 4234 00ee 7345     		cmp	r3, lr
 4235 00f0 06DB     		blt	.L318
 4236              		.loc 1 307 0
 4237 00f2 E31D     		adds	r3, r4, #7
 4238 00f4 A3EB0E03 		sub	r3, r3, lr
 4239 00f8 FF22     		movs	r2, #255
 4240 00fa 42FA03F3 		asr	r3, r2, r3
 4241 00fe 1F40     		ands	r7, r7, r3
 4242              	.LVL357:
 4243              	.L318:
 4244              		.loc 1 308 0
 4245 0100 002C     		cmp	r4, #0
 4246              	.LVL358:
 4247 0102 B8BF     		it	lt
 4248 0104 0734     		addlt	r4, r4, #7
 4249 0106 44F3CF03 		sbfx	r3, r4, #3, #16
 4250              	.LBB811:
 4251              		.loc 1 309 0
 4252 010a 5D45     		cmp	r5, fp
 4253              	.LBE811:
 4254              		.loc 1 308 0
 4255 010c 0393     		str	r3, [sp, #12]
 4256              	.LVL359:
 4257              	.LBB812:
 4258              		.loc 1 309 0
 4259 010e 60DB     		blt	.L320
 4260 0110 5346     		mov	r3, r10
 4261 0112 5A46     		mov	r2, fp
 4262 0114 B846     		mov	r8, r7
 4263 0116 0191     		str	r1, [sp, #4]
 4264              	.LVL360:
 4265              	.L335:
 4266              	.LBB802:
 4267              	.LBB797:
 4268              		.loc 1 83 0 discriminator 3
 4269 0118 B0F90C40 		ldrsh	r4, [r0, #12]
 4270 011c 9C42     		cmp	r4, r3
 4271 011e 50DC     		bgt	.L331
 4272              		.loc 1 83 0 is_stmt 0
 4273 0120 B0F91040 		ldrsh	r4, [r0, #16]
 4274 0124 9C42     		cmp	r4, r3
 4275 0126 4CDB     		blt	.L331
ARM GAS  /tmp/ccs3e2Sq.s 			page 76


 4276 0128 B0F91640 		ldrsh	r4, [r0, #22]
 4277 012c B0F90E60 		ldrsh	r6, [r0, #14]
 4278 0130 04F1070C 		add	ip, r4, #7
 4279 0134 B445     		cmp	ip, r6
 4280 0136 44DB     		blt	.L331
 4281              		.loc 1 84 0 is_stmt 1
 4282 0138 F71F     		subs	r7, r6, #7
 4283              		.loc 1 83 0
 4284 013a BC42     		cmp	r4, r7
 4285 013c 41DB     		blt	.L331
 4286              		.loc 1 84 0
 4287 013e 002B     		cmp	r3, #0
 4288 0140 3FDB     		blt	.L331
 4289 0142 0778     		ldrb	r7, [r0]	@ zero_extendqisi2
 4290 0144 0497     		str	r7, [sp, #16]
 4291 0146 BB42     		cmp	r3, r7
 4292 0148 3BDA     		bge	.L331
 4293 014a 4778     		ldrb	r7, [r0, #1]	@ zero_extendqisi2
 4294 014c BC42     		cmp	r4, r7
 4295 014e 38DA     		bge	.L331
 4296              	.LBE797:
 4297              	.LBE802:
 4298              		.loc 1 310 0
 4299 0150 0599     		ldr	r1, [sp, #20]
 4300 0152 0F78     		ldrb	r7, [r1]	@ zero_extendqisi2
 4301 0154 4968     		ldr	r1, [r1, #4]
 4302 0156 0691     		str	r1, [sp, #24]
 4303 0158 0399     		ldr	r1, [sp, #12]
 4304 015a 11FB0727 		smlabb	r7, r1, r7, r2
 4305 015e 0699     		ldr	r1, [sp, #24]
 4306 0160 CF5D     		ldrb	r7, [r1, r7]	@ zero_extendqisi2
 4307              	.LBB803:
 4308              	.LBB798:
 4309              		.loc 1 90 0
 4310 0162 B442     		cmp	r4, r6
 4311              	.LBE798:
 4312              	.LBE803:
 4313              		.loc 1 310 0
 4314 0164 08EA0707 		and	r7, r8, r7
 4315              	.LVL361:
 4316              	.LBB804:
 4317              	.LBB799:
 4318              		.loc 1 90 0
 4319 0168 04DA     		bge	.L324
 4320              		.loc 1 91 0
 4321 016a 361B     		subs	r6, r6, r4
 4322 016c FF21     		movs	r1, #255
 4323 016e 01FA06F6 		lsl	r6, r1, r6
 4324 0172 3740     		ands	r7, r7, r6
 4325              	.LVL362:
 4326              	.L324:
 4327              		.loc 1 92 0
 4328 0174 B0F91260 		ldrsh	r6, [r0, #18]
 4329 0178 A11D     		adds	r1, r4, #6
 4330 017a B142     		cmp	r1, r6
 4331 017c 05DB     		blt	.L325
 4332              		.loc 1 93 0
ARM GAS  /tmp/ccs3e2Sq.s 			page 77


 4333 017e ACEB0606 		sub	r6, ip, r6
 4334 0182 FF21     		movs	r1, #255
 4335 0184 41FA06F6 		asr	r6, r1, r6
 4336              	.LVL363:
 4337 0188 3740     		ands	r7, r7, r6
 4338              	.LVL364:
 4339              	.L325:
 4340              		.loc 1 95 0
 4341 018a 1CEA240C 		ands	ip, ip, r4, asr #32
 4342 018e 38BF     		it	cc
 4343 0190 A446     		movcc	ip, r4
 4344 0192 E613     		asrs	r6, r4, #15
 4345 0194 06EBEC0C 		add	ip, r6, ip, asr #3
 4346 0198 1FFA8CF1 		uxth	r1, ip
 4347              		.loc 1 98 0
 4348 019c 6642     		rsbs	r6, r4, #0
 4349 019e 06F00706 		and	r6, r6, #7
 4350              		.loc 1 95 0
 4351 01a2 0FFA81FC 		sxth	ip, r1
 4352              	.LVL365:
 4353              		.loc 1 98 0
 4354 01a6 04F00704 		and	r4, r4, #7
 4355              		.loc 1 95 0
 4356 01aa 0691     		str	r1, [sp, #24]
 4357              		.loc 1 98 0
 4358 01ac 2146     		mov	r1, r4
 4359 01ae 58BF     		it	pl
 4360 01b0 7142     		rsbpl	r1, r6, #0
 4361              	.LBB773:
 4362              	.LBB774:
 4363              		.loc 1 62 0
 4364 01b2 BCF1000F 		cmp	ip, #0
 4365              	.LBE774:
 4366              	.LBE773:
 4367              		.loc 1 98 0
 4368 01b6 01F00706 		and	r6, r1, #7
 4369              	.LVL366:
 4370              	.LBB785:
 4371              	.LBB781:
 4372              		.loc 1 62 0
 4373 01ba 16DA     		bge	.L350
 4374              	.L327:
 4375              	.LVL367:
 4376              	.LBE781:
 4377              	.LBE785:
 4378              		.loc 1 100 0
 4379 01bc 002C     		cmp	r4, #0
 4380 01be 40F09080 		bne	.L351
 4381              	.LVL368:
 4382              	.L331:
 4383 01c2 0132     		adds	r2, r2, #1
 4384              	.LVL369:
 4385              		.loc 1 104 0
 4386 01c4 0133     		adds	r3, r3, #1
 4387 01c6 12B2     		sxth	r2, r2
 4388 01c8 1BB2     		sxth	r3, r3
 4389              	.LBE799:
ARM GAS  /tmp/ccs3e2Sq.s 			page 78


 4390              	.LBE804:
 4391              		.loc 1 309 0
 4392 01ca AA42     		cmp	r2, r5
 4393              	.LBB805:
 4394              	.LBB800:
 4395              		.loc 1 104 0
 4396 01cc 8382     		strh	r3, [r0, #20]	@ movhi
 4397              	.LVL370:
 4398              	.LBE800:
 4399              	.LBE805:
 4400              		.loc 1 309 0
 4401 01ce A3DD     		ble	.L335
 4402 01d0 0199     		ldr	r1, [sp, #4]
 4403              	.LVL371:
 4404              	.L320:
 4405 01d2 0831     		adds	r1, r1, #8
 4406 01d4 0CB2     		sxth	r4, r1
 4407              	.LVL372:
 4408              	.LBE812:
 4409              	.LBE747:
 4410              		.loc 1 298 0
 4411 01d6 A645     		cmp	lr, r4
 4412 01d8 BFF679AF 		bge	.L336
 4413              	.LVL373:
 4414              	.L311:
 4415              	.LBE817:
 4416              		.loc 1 312 0
 4417 01dc 0BB0     		add	sp, sp, #44
 4418              		.cfi_remember_state
 4419              		.cfi_def_cfa_offset 36
 4420              		@ sp needed
 4421 01de BDE8F08F 		pop	{r4, r5, r6, r7, r8, r9, r10, fp, pc}
 4422              	.LVL374:
 4423              	.L340:
 4424              		.cfi_restore_state
 4425              	.LBB818:
 4426              	.LBB814:
 4427              		.loc 1 303 0
 4428 01e2 FF27     		movs	r7, #255
 4429 01e4 82E7     		b	.L317
 4430              	.LVL375:
 4431              	.L347:
 4432 01e6 9246     		mov	r10, r2
 4433 01e8 2BE7     		b	.L312
 4434              	.LVL376:
 4435              	.L350:
 4436              	.LBB813:
 4437              	.LBB806:
 4438              	.LBB801:
 4439              	.LBB786:
 4440              	.LBB782:
 4441              	.LBB775:
 4442              	.LBB776:
 4443              		.loc 1 62 0
 4444 01ea C178     		ldrb	r1, [r0, #3]	@ zero_extendqisi2
 4445 01ec 8C45     		cmp	ip, r1
 4446 01ee E5DA     		bge	.L327
ARM GAS  /tmp/ccs3e2Sq.s 			page 79


 4447              		.loc 1 64 0
 4448 01f0 0499     		ldr	r1, [sp, #16]
 4449 01f2 1CFB0134 		smlabb	r4, ip, r1, r3
 4450 01f6 0794     		str	r4, [sp, #28]
 4451              		.loc 1 65 0
 4452 01f8 047E     		ldrb	r4, [r0, #24]	@ zero_extendqisi2
 4453              		.loc 1 64 0
 4454 01fa 8168     		ldr	r1, [r0, #8]
 4455              		.loc 1 65 0
 4456 01fc 0994     		str	r4, [sp, #36]
 4457              		.loc 1 64 0
 4458 01fe 079C     		ldr	r4, [sp, #28]
 4459 0200 0891     		str	r1, [sp, #32]
 4460 0202 095D     		ldrb	r1, [r1, r4]	@ zero_extendqisi2
 4461              		.loc 1 65 0
 4462 0204 099C     		ldr	r4, [sp, #36]
 4463              		.loc 1 64 0
 4464 0206 0491     		str	r1, [sp, #16]
 4465              	.LVL377:
 4466              	.LBE776:
 4467              	.LBE775:
 4468              	.LBE782:
 4469              	.LBE786:
 4470              		.loc 1 98 0
 4471 0208 07FA06F6 		lsl	r6, r7, r6
 4472              	.LBB787:
 4473              	.LBB783:
 4474              	.LBB779:
 4475              	.LBB777:
 4476              		.loc 1 65 0
 4477 020c 002C     		cmp	r4, #0
 4478 020e 76D1     		bne	.L352
 4479              		.loc 1 68 0
 4480 0210 0E43     		orrs	r6, r6, r1
 4481 0212 F6B2     		uxtb	r6, r6
 4482              	.L329:
 4483 0214 DDE90741 		ldrd	r4, r1, [sp, #28]
 4484              	.LVL378:
 4485 0218 0E55     		strb	r6, [r1, r4]
 4486              	.LVL379:
 4487              		.loc 1 69 0
 4488 021a 0678     		ldrb	r6, [r0]	@ zero_extendqisi2
 4489 021c 8468     		ldr	r4, [r0, #8]
 4490 021e 0499     		ldr	r1, [sp, #16]
 4491 0220 1CFB0636 		smlabb	r6, ip, r6, r3
 4492 0224 A45D     		ldrb	r4, [r4, r6]	@ zero_extendqisi2
 4493 0226 8C42     		cmp	r4, r1
 4494 0228 0ED0     		beq	.L330
 4495              		.loc 1 72 0
 4496 022a 8678     		ldrb	r6, [r0, #2]	@ zero_extendqisi2
 4497 022c 4168     		ldr	r1, [r0, #4]
 4498 022e 43F30F14 		sbfx	r4, r3, #4, #16
 4499 0232 1CFB0644 		smlabb	r4, ip, r6, r4
 4500 0236 C3F34203 		ubfx	r3, r3, #1, #3
 4501 023a 0E5D     		ldrb	r6, [r1, r4]	@ zero_extendqisi2
 4502 023c 0121     		movs	r1, #1
 4503 023e 01FA03F3 		lsl	r3, r1, r3
ARM GAS  /tmp/ccs3e2Sq.s 			page 80


 4504 0242 4168     		ldr	r1, [r0, #4]
 4505 0244 3343     		orrs	r3, r3, r6
 4506 0246 0B55     		strb	r3, [r1, r4]
 4507              	.L330:
 4508              	.LVL380:
 4509              	.LBE777:
 4510              	.LBE779:
 4511              	.LBE783:
 4512              	.LBE787:
 4513              		.loc 1 100 0
 4514 0248 B0F91640 		ldrsh	r4, [r0, #22]
 4515 024c B0F91430 		ldrsh	r3, [r0, #20]
 4516 0250 14F00706 		ands	r6, r4, #7
 4517 0254 B5D0     		beq	.L331
 4518              	.LVL381:
 4519              	.LBB788:
 4520              	.LBB765:
 4521              		.loc 1 62 0
 4522 0256 002B     		cmp	r3, #0
 4523 0258 B3DB     		blt	.L331
 4524              	.LBE765:
 4525              	.LBE788:
 4526              		.loc 1 102 0
 4527 025a 6442     		rsbs	r4, r4, #0
 4528              	.LVL382:
 4529 025c 04F00704 		and	r4, r4, #7
 4530 0260 58BF     		it	pl
 4531 0262 6642     		rsbpl	r6, r4, #0
 4532              	.LBB789:
 4533              	.LBB766:
 4534              	.LBB760:
 4535              	.LBB755:
 4536              		.loc 1 62 0
 4537 0264 0178     		ldrb	r1, [r0]	@ zero_extendqisi2
 4538              	.LBE755:
 4539              	.LBE760:
 4540              	.LBE766:
 4541              	.LBE789:
 4542              		.loc 1 102 0
 4543 0266 069C     		ldr	r4, [sp, #24]
 4544              	.LBB790:
 4545              	.LBB767:
 4546              	.LBB761:
 4547              	.LBB756:
 4548              		.loc 1 62 0
 4549 0268 0491     		str	r1, [sp, #16]
 4550              	.LVL383:
 4551              	.LBE756:
 4552              	.LBE761:
 4553              	.LBE767:
 4554              	.LBE790:
 4555              		.loc 1 102 0
 4556 026a 06F00706 		and	r6, r6, #7
 4557 026e C6F10806 		rsb	r6, r6, #8
 4558 0272 04F1010C 		add	ip, r4, #1
 4559              	.LVL384:
 4560 0276 3741     		asrs	r7, r7, r6
ARM GAS  /tmp/ccs3e2Sq.s 			page 81


 4561              	.LVL385:
 4562              	.LBB791:
 4563              	.LBB768:
 4564              	.LBB762:
 4565              	.LBB757:
 4566              		.loc 1 62 0
 4567 0278 8B42     		cmp	r3, r1
 4568              	.LBE757:
 4569              	.LBE762:
 4570              	.LBE768:
 4571              	.LBE791:
 4572              		.loc 1 102 0
 4573 027a 0FFA8CFC 		sxth	ip, ip
 4574 027e FCB2     		uxtb	r4, r7
 4575              	.LVL386:
 4576              	.LBB792:
 4577              	.LBB769:
 4578              	.LBB763:
 4579              	.LBB758:
 4580              		.loc 1 62 0
 4581 0280 9FDA     		bge	.L331
 4582              	.LVL387:
 4583              	.L339:
 4584 0282 C678     		ldrb	r6, [r0, #3]	@ zero_extendqisi2
 4585 0284 B445     		cmp	ip, r6
 4586 0286 9CDA     		bge	.L331
 4587              		.loc 1 64 0
 4588 0288 0499     		ldr	r1, [sp, #16]
 4589 028a 01FB0C36 		mla	r6, r1, ip, r3
 4590 028e 0696     		str	r6, [sp, #24]
 4591              	.LVL388:
 4592              		.loc 1 65 0
 4593 0290 067E     		ldrb	r6, [r0, #24]	@ zero_extendqisi2
 4594              		.loc 1 64 0
 4595 0292 8168     		ldr	r1, [r0, #8]
 4596              		.loc 1 65 0
 4597 0294 0896     		str	r6, [sp, #32]
 4598              		.loc 1 64 0
 4599 0296 069E     		ldr	r6, [sp, #24]
 4600 0298 0791     		str	r1, [sp, #28]
 4601 029a 895D     		ldrb	r1, [r1, r6]	@ zero_extendqisi2
 4602              		.loc 1 65 0
 4603 029c 089E     		ldr	r6, [sp, #32]
 4604              		.loc 1 64 0
 4605 029e 0491     		str	r1, [sp, #16]
 4606              	.LVL389:
 4607              		.loc 1 65 0
 4608 02a0 86B3     		cbz	r6, .L332
 4609              		.loc 1 66 0
 4610 02a2 21EA0704 		bic	r4, r1, r7
 4611              	.LVL390:
 4612              	.L333:
 4613 02a6 DDE90661 		ldrd	r6, r1, [sp, #24]
 4614              	.LVL391:
 4615 02aa 8C55     		strb	r4, [r1, r6]
 4616              		.loc 1 69 0
 4617 02ac 0678     		ldrb	r6, [r0]	@ zero_extendqisi2
ARM GAS  /tmp/ccs3e2Sq.s 			page 82


 4618 02ae 8468     		ldr	r4, [r0, #8]
 4619 02b0 0499     		ldr	r1, [sp, #16]
 4620 02b2 1CFB0636 		smlabb	r6, ip, r6, r3
 4621 02b6 A45D     		ldrb	r4, [r4, r6]	@ zero_extendqisi2
 4622 02b8 8C42     		cmp	r4, r1
 4623 02ba 0FD0     		beq	.L349
 4624              		.loc 1 72 0
 4625 02bc 8778     		ldrb	r7, [r0, #2]	@ zero_extendqisi2
 4626 02be 4468     		ldr	r4, [r0, #4]
 4627 02c0 43F30F16 		sbfx	r6, r3, #4, #16
 4628 02c4 1CFB076C 		smlabb	ip, ip, r7, r6
 4629              	.LVL392:
 4630 02c8 C3F34203 		ubfx	r3, r3, #1, #3
 4631              	.LVL393:
 4632 02cc 14F80C60 		ldrb	r6, [r4, ip]	@ zero_extendqisi2
 4633 02d0 0121     		movs	r1, #1
 4634 02d2 01FA03F3 		lsl	r3, r1, r3
 4635 02d6 3343     		orrs	r3, r3, r6
 4636 02d8 04F80C30 		strb	r3, [r4, ip]
 4637              	.L349:
 4638 02dc B0F91430 		ldrsh	r3, [r0, #20]
 4639 02e0 6FE7     		b	.L331
 4640              	.LVL394:
 4641              	.L351:
 4642              	.LBE758:
 4643              	.LBE763:
 4644              	.LBE769:
 4645              	.LBE792:
 4646              		.loc 1 102 0
 4647 02e2 0699     		ldr	r1, [sp, #24]
 4648 02e4 01F1010C 		add	ip, r1, #1
 4649              	.LVL395:
 4650 02e8 C6F10806 		rsb	r6, r6, #8
 4651 02ec 0FFA8CFC 		sxth	ip, ip
 4652 02f0 3741     		asrs	r7, r7, r6
 4653              	.LBB793:
 4654              	.LBB770:
 4655              		.loc 1 62 0
 4656 02f2 BCF1000F 		cmp	ip, #0
 4657              	.LBE770:
 4658              	.LBE793:
 4659              		.loc 1 102 0
 4660 02f6 FCB2     		uxtb	r4, r7
 4661              	.LVL396:
 4662              	.LBB794:
 4663              	.LBB771:
 4664              		.loc 1 62 0
 4665 02f8 FFF663AF 		blt	.L331
 4666 02fc C1E7     		b	.L339
 4667              	.LVL397:
 4668              	.L352:
 4669              	.LBE771:
 4670              	.LBE794:
 4671              	.LBB795:
 4672              	.LBB784:
 4673              	.LBB780:
 4674              	.LBB778:
ARM GAS  /tmp/ccs3e2Sq.s 			page 83


 4675              		.loc 1 66 0
 4676 02fe 21EA0606 		bic	r6, r1, r6
 4677 0302 87E7     		b	.L329
 4678              	.LVL398:
 4679              	.L332:
 4680              	.LBE778:
 4681              	.LBE780:
 4682              	.LBE784:
 4683              	.LBE795:
 4684              	.LBB796:
 4685              	.LBB772:
 4686              	.LBB764:
 4687              	.LBB759:
 4688              		.loc 1 68 0
 4689 0304 0C43     		orrs	r4, r4, r1
 4690              	.LVL399:
 4691 0306 CEE7     		b	.L333
 4692              	.LBE759:
 4693              	.LBE764:
 4694              	.LBE772:
 4695              	.LBE796:
 4696              	.LBE801:
 4697              	.LBE806:
 4698              	.LBE813:
 4699              	.LBE814:
 4700              	.LBE818:
 4701              		.cfi_endproc
 4702              	.LFE337:
 4703              		.size	OLED_copyFromBuffer, .-OLED_copyFromBuffer
 4704              		.section	.text.OLED_toggleMode,"ax",%progbits
 4705              		.align	1
 4706              		.p2align 2,,3
 4707              		.global	OLED_toggleMode
 4708              		.syntax unified
 4709              		.thumb
 4710              		.thumb_func
 4711              		.fpu fpv4-sp-d16
 4712              		.type	OLED_toggleMode, %function
 4713              	OLED_toggleMode:
 4714              	.LFB338:
 4715              		.loc 1 315 0
 4716              		.cfi_startproc
 4717              		@ args = 0, pretend = 0, frame = 0
 4718              		@ frame_needed = 0, uses_anonymous_args = 0
 4719              		@ link register save eliminated.
 4720              	.LVL400:
 4721              		.loc 1 316 0
 4722 0000 037E     		ldrb	r3, [r0, #24]	@ zero_extendqisi2
 4723 0002 83F00103 		eor	r3, r3, #1
 4724 0006 0376     		strb	r3, [r0, #24]
 4725              		.loc 1 317 0
 4726 0008 7047     		bx	lr
 4727              		.cfi_endproc
 4728              	.LFE338:
 4729              		.size	OLED_toggleMode, .-OLED_toggleMode
 4730 000a 00BF     		.section	.text.OLED_setMode,"ax",%progbits
 4731              		.align	1
ARM GAS  /tmp/ccs3e2Sq.s 			page 84


 4732              		.p2align 2,,3
 4733              		.global	OLED_setMode
 4734              		.syntax unified
 4735              		.thumb
 4736              		.thumb_func
 4737              		.fpu fpv4-sp-d16
 4738              		.type	OLED_setMode, %function
 4739              	OLED_setMode:
 4740              	.LFB339:
 4741              		.loc 1 320 0
 4742              		.cfi_startproc
 4743              		@ args = 0, pretend = 0, frame = 0
 4744              		@ frame_needed = 0, uses_anonymous_args = 0
 4745              		@ link register save eliminated.
 4746              	.LVL401:
 4747              		.loc 1 321 0
 4748 0000 0176     		strb	r1, [r0, #24]
 4749              		.loc 1 322 0
 4750 0002 7047     		bx	lr
 4751              		.cfi_endproc
 4752              	.LFE339:
 4753              		.size	OLED_setMode, .-OLED_setMode
 4754              		.section	.text.OLED_writeToScreen,"ax",%progbits
 4755              		.align	1
 4756              		.p2align 2,,3
 4757              		.global	OLED_writeToScreen
 4758              		.syntax unified
 4759              		.thumb
 4760              		.thumb_func
 4761              		.fpu fpv4-sp-d16
 4762              		.type	OLED_writeToScreen, %function
 4763              	OLED_writeToScreen:
 4764              	.LFB340:
 4765              		.loc 1 325 0
 4766              		.cfi_startproc
 4767              		@ args = 0, pretend = 0, frame = 40
 4768              		@ frame_needed = 0, uses_anonymous_args = 0
 4769              	.LVL402:
 4770 0000 2DE9F04F 		push	{r4, r5, r6, r7, r8, r9, r10, fp, lr}
 4771              		.cfi_def_cfa_offset 36
 4772              		.cfi_offset 4, -36
 4773              		.cfi_offset 5, -32
 4774              		.cfi_offset 6, -28
 4775              		.cfi_offset 7, -24
 4776              		.cfi_offset 8, -20
 4777              		.cfi_offset 9, -16
 4778              		.cfi_offset 10, -12
 4779              		.cfi_offset 11, -8
 4780              		.cfi_offset 14, -4
 4781              	.LBB836:
 4782              		.loc 1 326 0
 4783 0004 C478     		ldrb	r4, [r0, #3]	@ zero_extendqisi2
 4784              	.LBE836:
 4785              		.loc 1 325 0
 4786 0006 8BB0     		sub	sp, sp, #44
 4787              		.cfi_def_cfa_offset 80
 4788              	.LBB870:
ARM GAS  /tmp/ccs3e2Sq.s 			page 85


 4789              		.loc 1 326 0
 4790 0008 002C     		cmp	r4, #0
 4791 000a 00F0A580 		beq	.L355
 4792              		.loc 1 328 0
 4793 000e 072A     		cmp	r2, #7
 4794 0010 00F3A280 		bgt	.L355
 4795 0014 0593     		str	r3, [sp, #20]
 4796 0016 0792     		str	r2, [sp, #28]
 4797 0018 1346     		mov	r3, r2
 4798              	.LVL403:
 4799 001a 503A     		subs	r2, r2, #80
 4800              	.LVL404:
 4801 001c D2B2     		uxtb	r2, r2
 4802 001e 0191     		str	r1, [sp, #4]
 4803 0020 0392     		str	r2, [sp, #12]
 4804 0022 0021     		movs	r1, #0
 4805              	.LVL405:
 4806 0024 C3F15103 		rsb	r3, r3, #81
 4807 0028 8278     		ldrb	r2, [r0, #2]	@ zero_extendqisi2
 4808              	.LBB837:
 4809              	.LBB838:
 4810              	.LBB839:
 4811              	.LBB840:
 4812              	.LBB841:
 4813              	.LBB842:
 4814              	.LBB843:
 4815              	.LBB844:
 4816              		.loc 1 40 0
 4817 002a DFF83CB1 		ldr	fp, .L384+4
 4818              	.LBE844:
 4819              	.LBE843:
 4820              	.LBE842:
 4821              	.LBE841:
 4822              	.LBE840:
 4823              	.LBE839:
 4824              	.LBE838:
 4825              	.LBE837:
 4826              		.loc 1 328 0
 4827 002e 0291     		str	r1, [sp, #8]
 4828 0030 8246     		mov	r10, r0
 4829 0032 0693     		str	r3, [sp, #24]
 4830              	.LVL406:
 4831              	.L358:
 4832              	.LBB868:
 4833              		.loc 1 330 0
 4834 0034 002A     		cmp	r2, #0
 4835 0036 7ED0     		beq	.L359
 4836 0038 4FF00009 		mov	r9, #0
 4837              	.LVL407:
 4838              	.L364:
 4839              	.LBB866:
 4840              		.loc 1 332 0
 4841 003c 029B     		ldr	r3, [sp, #8]
 4842 003e DAF80410 		ldr	r1, [r10, #4]
 4843 0042 03FB0292 		mla	r2, r3, r2, r9
 4844              		.loc 1 334 0
 4845 0046 4FF00003 		mov	r3, #0
ARM GAS  /tmp/ccs3e2Sq.s 			page 86


 4846              		.loc 1 332 0
 4847 004a 8E5C     		ldrb	r6, [r1, r2]	@ zero_extendqisi2
 4848              	.LVL408:
 4849              		.loc 1 334 0
 4850 004c 8B54     		strb	r3, [r1, r2]
 4851              		.loc 1 336 0
 4852 004e 059B     		ldr	r3, [sp, #20]
 4853 0050 002B     		cmp	r3, #0
 4854 0052 40F08480 		bne	.L366
 4855              		.loc 1 338 0
 4856 0056 002E     		cmp	r6, #0
 4857 0058 63D0     		beq	.L361
 4858              	.LVL409:
 4859              	.L360:
 4860              	.LBB865:
 4861              	.LBB863:
 4862              		.loc 1 342 0
 4863 005a 4FEAC903 		lsl	r3, r9, #3
 4864              	.LBB854:
 4865              	.LBB851:
 4866              		.loc 1 45 0
 4867 005e CDF81090 		str	r9, [sp, #16]
 4868              	.LBE851:
 4869              	.LBE854:
 4870              		.loc 1 342 0
 4871 0062 0025     		movs	r5, #0
 4872              	.LBB855:
 4873              	.LBB852:
 4874              		.loc 1 45 0
 4875 0064 9946     		mov	r9, r3
 4876              	.LVL410:
 4877 0066 01E0     		b	.L363
 4878              	.LVL411:
 4879              	.L362:
 4880              	.LBE852:
 4881              	.LBE855:
 4882              	.LBE863:
 4883              		.loc 1 340 0 discriminator 2
 4884 0068 082D     		cmp	r5, #8
 4885 006a 58D0     		beq	.L382
 4886              	.LVL412:
 4887              	.L363:
 4888 006c 05EB0904 		add	r4, r5, r9
 4889 0070 6400     		lsls	r4, r4, #1
 4890              	.LBB864:
 4891              		.loc 1 343 0
 4892 0072 019B     		ldr	r3, [sp, #4]
 4893 0074 E4B2     		uxtb	r4, r4
 4894              	.LVL413:
 4895 0076 E718     		adds	r7, r4, r3
 4896 0078 812F     		cmp	r7, #129
 4897 007a 05F10105 		add	r5, r5, #1
 4898              	.LVL414:
 4899 007e 4EDC     		bgt	.L382
 4900              		.loc 1 345 0
 4901 0080 16F0010F 		tst	r6, #1
 4902              		.loc 1 354 0
ARM GAS  /tmp/ccs3e2Sq.s 			page 87


 4903 0084 4FEA5606 		lsr	r6, r6, #1
 4904              	.LVL415:
 4905              		.loc 1 345 0
 4906 0088 EED0     		beq	.L362
 4907              	.LBB856:
 4908              	.LBB853:
 4909              		.loc 1 45 0
 4910 008a 364B     		ldr	r3, .L384
 4911 008c 0AAA     		add	r2, sp, #40
 4912 008e 4FF40071 		mov	r1, #512	@ movhi
 4913 0092 5983     		strh	r1, [r3, #26]	@ movhi
 4914 0094 0399     		ldr	r1, [sp, #12]
 4915 0096 02F8031D 		strb	r1, [r2, #-3]!
 4916              	.LBB846:
 4917              	.LBB845:
 4918              		.loc 1 40 0
 4919 009a 5846     		mov	r0, fp
 4920 009c 0121     		movs	r1, #1
 4921 009e 5FFA87F8 		uxtb	r8, r7
 4922              	.LVL416:
 4923 00a2 FFF7FEFF 		bl	spiSend
 4924              	.LVL417:
 4925 00a6 0AAA     		add	r2, sp, #40
 4926              	.LBE845:
 4927              	.LBE846:
 4928              		.loc 1 47 0
 4929 00a8 4FEA1811 		lsr	r1, r8, #4
 4930 00ac 41F01001 		orr	r1, r1, #16
 4931 00b0 02F8021D 		strb	r1, [r2, #-2]!
 4932              	.LVL418:
 4933              	.LBB847:
 4934              	.LBB848:
 4935              		.loc 1 40 0
 4936 00b4 5846     		mov	r0, fp
 4937 00b6 0121     		movs	r1, #1
 4938 00b8 FFF7FEFF 		bl	spiSend
 4939              	.LVL419:
 4940 00bc 0AAA     		add	r2, sp, #40
 4941              	.LBE848:
 4942              	.LBE847:
 4943              		.loc 1 48 0
 4944 00be 08F00F08 		and	r8, r8, #15
 4945              	.LVL420:
 4946 00c2 02F8018D 		strb	r8, [r2, #-1]!
 4947              	.LVL421:
 4948              	.LBB849:
 4949              	.LBB850:
 4950              		.loc 1 40 0
 4951 00c6 0121     		movs	r1, #1
 4952 00c8 5846     		mov	r0, fp
 4953 00ca FFF7FEFF 		bl	spiSend
 4954              	.LVL422:
 4955              	.LBE850:
 4956              	.LBE849:
 4957              	.LBE853:
 4958              	.LBE856:
 4959              		.loc 1 348 0
ARM GAS  /tmp/ccs3e2Sq.s 			page 88


 4960 00ce 254B     		ldr	r3, .L384
 4961              		.loc 1 349 0
 4962 00d0 DAF80820 		ldr	r2, [r10, #8]
 4963              		.loc 1 348 0
 4964 00d4 4FF40071 		mov	r1, #512	@ movhi
 4965 00d8 1983     		strh	r1, [r3, #24]	@ movhi
 4966              		.loc 1 349 0
 4967 00da 9AF80010 		ldrb	r1, [r10]	@ zero_extendqisi2
 4968 00de 029B     		ldr	r3, [sp, #8]
 4969 00e0 03FB0121 		mla	r1, r3, r1, r2
 4970 00e4 0AAA     		add	r2, sp, #40
 4971 00e6 095D     		ldrb	r1, [r1, r4]	@ zero_extendqisi2
 4972 00e8 02F8051D 		strb	r1, [r2, #-5]!
 4973              	.LVL423:
 4974              	.LBB857:
 4975              	.LBB858:
 4976              		.loc 1 40 0
 4977 00ec 5846     		mov	r0, fp
 4978 00ee 0121     		movs	r1, #1
 4979 00f0 FFF7FEFF 		bl	spiSend
 4980              	.LVL424:
 4981              	.LBE858:
 4982              	.LBE857:
 4983              		.loc 1 350 0
 4984 00f4 812F     		cmp	r7, #129
 4985 00f6 0AAA     		add	r2, sp, #40
 4986              	.LBB859:
 4987              	.LBB860:
 4988              		.loc 1 40 0
 4989 00f8 4FF00101 		mov	r1, #1
 4990 00fc 5846     		mov	r0, fp
 4991              	.LBE860:
 4992              	.LBE859:
 4993              		.loc 1 350 0
 4994 00fe 0ED0     		beq	.L382
 4995              		.loc 1 352 0
 4996 0100 DAF80870 		ldr	r7, [r10, #8]
 4997 0104 9AF800C0 		ldrb	ip, [r10]	@ zero_extendqisi2
 4998 0108 029B     		ldr	r3, [sp, #8]
 4999 010a 3C44     		add	r4, r4, r7
 5000              	.LVL425:
 5001 010c 03FB0C44 		mla	r4, r3, ip, r4
 5002 0110 6478     		ldrb	r4, [r4, #1]	@ zero_extendqisi2
 5003 0112 02F8044D 		strb	r4, [r2, #-4]!
 5004              	.LVL426:
 5005              	.LBB862:
 5006              	.LBB861:
 5007              		.loc 1 40 0
 5008 0116 FFF7FEFF 		bl	spiSend
 5009              	.LVL427:
 5010              	.LBE861:
 5011              	.LBE862:
 5012              	.LBE864:
 5013              		.loc 1 340 0
 5014 011a 082D     		cmp	r5, #8
 5015 011c A6D1     		bne	.L363
 5016              	.LVL428:
ARM GAS  /tmp/ccs3e2Sq.s 			page 89


 5017              	.L382:
 5018 011e DDF81090 		ldr	r9, [sp, #16]
 5019              	.LVL429:
 5020              	.L361:
 5021              	.LBE865:
 5022              	.LBE866:
 5023              		.loc 1 330 0
 5024 0122 9AF80220 		ldrb	r2, [r10, #2]	@ zero_extendqisi2
 5025 0126 09F10109 		add	r9, r9, #1
 5026 012a 5FFA89F9 		uxtb	r9, r9
 5027              	.LVL430:
 5028 012e 4A45     		cmp	r2, r9
 5029 0130 84D8     		bhi	.L364
 5030 0132 9AF80340 		ldrb	r4, [r10, #3]	@ zero_extendqisi2
 5031              	.LVL431:
 5032              	.L359:
 5033 0136 039B     		ldr	r3, [sp, #12]
 5034 0138 0699     		ldr	r1, [sp, #24]
 5035 013a 5918     		adds	r1, r3, r1
 5036 013c C9B2     		uxtb	r1, r1
 5037              	.LVL432:
 5038              	.LBE868:
 5039              		.loc 1 326 0 discriminator 2
 5040 013e A142     		cmp	r1, r4
 5041 0140 0AD2     		bcs	.L355
 5042 0142 1846     		mov	r0, r3
 5043              		.loc 1 328 0
 5044 0144 0291     		str	r1, [sp, #8]
 5045 0146 0B46     		mov	r3, r1
 5046 0148 0799     		ldr	r1, [sp, #28]
 5047              	.LVL433:
 5048 014a 0130     		adds	r0, r0, #1
 5049 014c 5918     		adds	r1, r3, r1
 5050 014e 0729     		cmp	r1, #7
 5051 0150 C3B2     		uxtb	r3, r0
 5052              	.LVL434:
 5053 0152 0393     		str	r3, [sp, #12]
 5054 0154 7FF76EAF 		ble	.L358
 5055              	.LVL435:
 5056              	.L355:
 5057              	.LBE870:
 5058              		.loc 1 358 0
 5059 0158 0BB0     		add	sp, sp, #44
 5060              		.cfi_remember_state
 5061              		.cfi_def_cfa_offset 36
 5062              		@ sp needed
 5063 015a BDE8F08F 		pop	{r4, r5, r6, r7, r8, r9, r10, fp, pc}
 5064              	.LVL436:
 5065              	.L366:
 5066              		.cfi_restore_state
 5067              	.LBB871:
 5068              	.LBB869:
 5069              	.LBB867:
 5070              		.loc 1 337 0
 5071 015e FF26     		movs	r6, #255
 5072              	.LVL437:
 5073 0160 7BE7     		b	.L360
ARM GAS  /tmp/ccs3e2Sq.s 			page 90


 5074              	.L385:
 5075 0162 00BF     		.align	2
 5076              	.L384:
 5077 0164 00040240 		.word	1073873920
 5078 0168 00000000 		.word	SPID1
 5079              	.LBE867:
 5080              	.LBE869:
 5081              	.LBE871:
 5082              		.cfi_endproc
 5083              	.LFE340:
 5084              		.size	OLED_writeToScreen, .-OLED_writeToScreen
 5085              		.section	.text.OLED_Display_On,"ax",%progbits
 5086              		.align	1
 5087              		.p2align 2,,3
 5088              		.global	OLED_Display_On
 5089              		.syntax unified
 5090              		.thumb
 5091              		.thumb_func
 5092              		.fpu fpv4-sp-d16
 5093              		.type	OLED_Display_On, %function
 5094              	OLED_Display_On:
 5095              	.LFB341:
 5096              		.loc 1 362 0
 5097              		.cfi_startproc
 5098              		@ args = 0, pretend = 0, frame = 8
 5099              		@ frame_needed = 0, uses_anonymous_args = 0
 5100 0000 10B5     		push	{r4, lr}
 5101              		.cfi_def_cfa_offset 8
 5102              		.cfi_offset 4, -8
 5103              		.cfi_offset 14, -4
 5104 0002 82B0     		sub	sp, sp, #8
 5105              		.cfi_def_cfa_offset 16
 5106              	.LBB872:
 5107              	.LBB873:
 5108              		.loc 1 40 0
 5109 0004 0F4C     		ldr	r4, .L388
 5110              	.LBE873:
 5111              	.LBE872:
 5112              		.loc 1 363 0
 5113 0006 1049     		ldr	r1, .L388+4
 5114 0008 02AA     		add	r2, sp, #8
 5115 000a 8D23     		movs	r3, #141
 5116 000c 4FF40070 		mov	r0, #512
 5117 0010 4883     		strh	r0, [r1, #26]	@ movhi
 5118 0012 02F8013D 		strb	r3, [r2, #-1]!
 5119              	.LVL438:
 5120              	.LBB875:
 5121              	.LBB874:
 5122              		.loc 1 40 0
 5123 0016 2046     		mov	r0, r4
 5124 0018 0121     		movs	r1, #1
 5125 001a FFF7FEFF 		bl	spiSend
 5126              	.LVL439:
 5127 001e 02AA     		add	r2, sp, #8
 5128 0020 1423     		movs	r3, #20
 5129 0022 02F8023D 		strb	r3, [r2, #-2]!
 5130              	.LVL440:
ARM GAS  /tmp/ccs3e2Sq.s 			page 91


 5131              	.LBE874:
 5132              	.LBE875:
 5133              	.LBB876:
 5134              	.LBB877:
 5135 0026 2046     		mov	r0, r4
 5136 0028 0121     		movs	r1, #1
 5137 002a FFF7FEFF 		bl	spiSend
 5138              	.LVL441:
 5139 002e 02AA     		add	r2, sp, #8
 5140 0030 AF23     		movs	r3, #175
 5141 0032 02F8033D 		strb	r3, [r2, #-3]!
 5142              	.LVL442:
 5143              	.LBE877:
 5144              	.LBE876:
 5145              	.LBB878:
 5146              	.LBB879:
 5147 0036 2046     		mov	r0, r4
 5148 0038 0121     		movs	r1, #1
 5149 003a FFF7FEFF 		bl	spiSend
 5150              	.LVL443:
 5151              	.LBE879:
 5152              	.LBE878:
 5153              		.loc 1 367 0
 5154 003e 02B0     		add	sp, sp, #8
 5155              		.cfi_def_cfa_offset 8
 5156              		@ sp needed
 5157 0040 10BD     		pop	{r4, pc}
 5158              	.L389:
 5159 0042 00BF     		.align	2
 5160              	.L388:
 5161 0044 00000000 		.word	SPID1
 5162 0048 00040240 		.word	1073873920
 5163              		.cfi_endproc
 5164              	.LFE341:
 5165              		.size	OLED_Display_On, .-OLED_Display_On
 5166              		.section	.text.OLED_Display_Off,"ax",%progbits
 5167              		.align	1
 5168              		.p2align 2,,3
 5169              		.global	OLED_Display_Off
 5170              		.syntax unified
 5171              		.thumb
 5172              		.thumb_func
 5173              		.fpu fpv4-sp-d16
 5174              		.type	OLED_Display_Off, %function
 5175              	OLED_Display_Off:
 5176              	.LFB342:
 5177              		.loc 1 371 0
 5178              		.cfi_startproc
 5179              		@ args = 0, pretend = 0, frame = 8
 5180              		@ frame_needed = 0, uses_anonymous_args = 0
 5181 0000 10B5     		push	{r4, lr}
 5182              		.cfi_def_cfa_offset 8
 5183              		.cfi_offset 4, -8
 5184              		.cfi_offset 14, -4
 5185 0002 82B0     		sub	sp, sp, #8
 5186              		.cfi_def_cfa_offset 16
 5187              	.LBB880:
ARM GAS  /tmp/ccs3e2Sq.s 			page 92


 5188              	.LBB881:
 5189              		.loc 1 40 0
 5190 0004 0F4C     		ldr	r4, .L392
 5191              	.LBE881:
 5192              	.LBE880:
 5193              		.loc 1 372 0
 5194 0006 1049     		ldr	r1, .L392+4
 5195 0008 02AA     		add	r2, sp, #8
 5196 000a 8D23     		movs	r3, #141
 5197 000c 4FF40070 		mov	r0, #512
 5198 0010 4883     		strh	r0, [r1, #26]	@ movhi
 5199 0012 02F8013D 		strb	r3, [r2, #-1]!
 5200              	.LVL444:
 5201              	.LBB883:
 5202              	.LBB882:
 5203              		.loc 1 40 0
 5204 0016 2046     		mov	r0, r4
 5205 0018 0121     		movs	r1, #1
 5206 001a FFF7FEFF 		bl	spiSend
 5207              	.LVL445:
 5208 001e 02AA     		add	r2, sp, #8
 5209 0020 1023     		movs	r3, #16
 5210 0022 02F8023D 		strb	r3, [r2, #-2]!
 5211              	.LVL446:
 5212              	.LBE882:
 5213              	.LBE883:
 5214              	.LBB884:
 5215              	.LBB885:
 5216 0026 2046     		mov	r0, r4
 5217 0028 0121     		movs	r1, #1
 5218 002a FFF7FEFF 		bl	spiSend
 5219              	.LVL447:
 5220 002e 02AA     		add	r2, sp, #8
 5221 0030 AE23     		movs	r3, #174
 5222 0032 02F8033D 		strb	r3, [r2, #-3]!
 5223              	.LVL448:
 5224              	.LBE885:
 5225              	.LBE884:
 5226              	.LBB886:
 5227              	.LBB887:
 5228 0036 2046     		mov	r0, r4
 5229 0038 0121     		movs	r1, #1
 5230 003a FFF7FEFF 		bl	spiSend
 5231              	.LVL449:
 5232              	.LBE887:
 5233              	.LBE886:
 5234              		.loc 1 376 0
 5235 003e 02B0     		add	sp, sp, #8
 5236              		.cfi_def_cfa_offset 8
 5237              		@ sp needed
 5238 0040 10BD     		pop	{r4, pc}
 5239              	.L393:
 5240 0042 00BF     		.align	2
 5241              	.L392:
 5242 0044 00000000 		.word	SPID1
 5243 0048 00040240 		.word	1073873920
 5244              		.cfi_endproc
ARM GAS  /tmp/ccs3e2Sq.s 			page 93


 5245              	.LFE342:
 5246              		.size	OLED_Display_Off, .-OLED_Display_Off
 5247              		.section	.text.OLED_Clear,"ax",%progbits
 5248              		.align	1
 5249              		.p2align 2,,3
 5250              		.global	OLED_Clear
 5251              		.syntax unified
 5252              		.thumb
 5253              		.thumb_func
 5254              		.fpu fpv4-sp-d16
 5255              		.type	OLED_Clear, %function
 5256              	OLED_Clear:
 5257              	.LFB343:
 5258              		.loc 1 380 0
 5259              		.cfi_startproc
 5260              		@ args = 0, pretend = 0, frame = 8
 5261              		@ frame_needed = 0, uses_anonymous_args = 0
 5262              	.LVL450:
 5263 0000 2DE9F043 		push	{r4, r5, r6, r7, r8, r9, lr}
 5264              		.cfi_def_cfa_offset 28
 5265              		.cfi_offset 4, -28
 5266              		.cfi_offset 5, -24
 5267              		.cfi_offset 6, -20
 5268              		.cfi_offset 7, -16
 5269              		.cfi_offset 8, -12
 5270              		.cfi_offset 9, -8
 5271              		.cfi_offset 14, -4
 5272              		.loc 1 384 0
 5273 0004 DFF86C90 		ldr	r9, .L400+4
 5274              	.LBB896:
 5275              	.LBB897:
 5276              		.loc 1 40 0
 5277 0008 194E     		ldr	r6, .L400
 5278              	.LBE897:
 5279              	.LBE896:
 5280              		.loc 1 380 0
 5281 000a 83B0     		sub	sp, sp, #12
 5282              		.cfi_def_cfa_offset 40
 5283              		.loc 1 380 0
 5284 000c B027     		movs	r7, #176
 5285              	.LVL451:
 5286              	.L396:
 5287              		.loc 1 384 0
 5288 000e 4FF40078 		mov	r8, #512
 5289 0012 A9F81A80 		strh	r8, [r9, #26]	@ movhi
 5290              	.LBB899:
 5291              	.LBB898:
 5292              		.loc 1 40 0
 5293 0016 0DF10602 		add	r2, sp, #6
 5294 001a 0121     		movs	r1, #1
 5295 001c 3046     		mov	r0, r6
 5296 001e 8DF80670 		strb	r7, [sp, #6]
 5297              	.LVL452:
 5298 0022 0025     		movs	r5, #0
 5299 0024 FFF7FEFF 		bl	spiSend
 5300              	.LVL453:
 5301              	.LBE898:
ARM GAS  /tmp/ccs3e2Sq.s 			page 94


 5302              	.LBE899:
 5303              	.LBB900:
 5304              	.LBB901:
 5305 0028 0DF10502 		add	r2, sp, #5
 5306 002c 0121     		movs	r1, #1
 5307 002e 3046     		mov	r0, r6
 5308 0030 8DF80550 		strb	r5, [sp, #5]
 5309              	.LVL454:
 5310 0034 FFF7FEFF 		bl	spiSend
 5311              	.LVL455:
 5312 0038 1023     		movs	r3, #16
 5313              	.LBE901:
 5314              	.LBE900:
 5315              	.LBB902:
 5316              	.LBB903:
 5317 003a 01AA     		add	r2, sp, #4
 5318 003c 0121     		movs	r1, #1
 5319 003e 3046     		mov	r0, r6
 5320 0040 8DF80430 		strb	r3, [sp, #4]
 5321              	.LVL456:
 5322              	.LBE903:
 5323              	.LBE902:
 5324              		.loc 1 388 0
 5325 0044 8024     		movs	r4, #128
 5326              	.LBB905:
 5327              	.LBB904:
 5328              		.loc 1 40 0
 5329 0046 FFF7FEFF 		bl	spiSend
 5330              	.LVL457:
 5331              	.LBE904:
 5332              	.LBE905:
 5333              		.loc 1 388 0
 5334 004a A9F81880 		strh	r8, [r9, #24]	@ movhi
 5335              	.LVL458:
 5336              	.L395:
 5337              	.LBB906:
 5338              	.LBB907:
 5339              		.loc 1 40 0 discriminator 3
 5340 004e 0DF10702 		add	r2, sp, #7
 5341 0052 0121     		movs	r1, #1
 5342 0054 3046     		mov	r0, r6
 5343 0056 8DF80750 		strb	r5, [sp, #7]
 5344              	.LVL459:
 5345 005a FFF7FEFF 		bl	spiSend
 5346              	.LVL460:
 5347              	.LBE907:
 5348              	.LBE906:
 5349              		.loc 1 389 0 discriminator 3
 5350 005e 013C     		subs	r4, r4, #1
 5351 0060 F5D1     		bne	.L395
 5352              	.LVL461:
 5353 0062 0137     		adds	r7, r7, #1
 5354              	.LVL462:
 5355 0064 FFB2     		uxtb	r7, r7
 5356              		.loc 1 382 0 discriminator 2
 5357 0066 B82F     		cmp	r7, #184
 5358 0068 D1D1     		bne	.L396
ARM GAS  /tmp/ccs3e2Sq.s 			page 95


 5359              		.loc 1 392 0
 5360 006a 03B0     		add	sp, sp, #12
 5361              		.cfi_def_cfa_offset 28
 5362              		@ sp needed
 5363 006c BDE8F083 		pop	{r4, r5, r6, r7, r8, r9, pc}
 5364              	.L401:
 5365              		.align	2
 5366              	.L400:
 5367 0070 00000000 		.word	SPID1
 5368 0074 00040240 		.word	1073873920
 5369              		.cfi_endproc
 5370              	.LFE343:
 5371              		.size	OLED_Clear, .-OLED_Clear
 5372              		.section	.text.OLED_Init,"ax",%progbits
 5373              		.align	1
 5374              		.p2align 2,,3
 5375              		.global	OLED_Init
 5376              		.syntax unified
 5377              		.thumb
 5378              		.thumb_func
 5379              		.fpu fpv4-sp-d16
 5380              		.type	OLED_Init, %function
 5381              	OLED_Init:
 5382              	.LFB344:
 5383              		.loc 1 396 0
 5384              		.cfi_startproc
 5385              		@ args = 0, pretend = 0, frame = 40
 5386              		@ frame_needed = 0, uses_anonymous_args = 0
 5387 0000 2DE9F043 		push	{r4, r5, r6, r7, r8, r9, lr}
 5388              		.cfi_def_cfa_offset 28
 5389              		.cfi_offset 4, -28
 5390              		.cfi_offset 5, -24
 5391              		.cfi_offset 6, -20
 5392              		.cfi_offset 7, -16
 5393              		.cfi_offset 8, -12
 5394              		.cfi_offset 9, -8
 5395              		.cfi_offset 14, -4
 5396              		.loc 1 398 0
 5397 0004 A34C     		ldr	r4, .L408
 5398              	.LBB984:
 5399              	.LBB985:
 5400              	.LBB986:
 5401              	.LBB987:
 5402              		.loc 1 40 0
 5403 0006 A44E     		ldr	r6, .L408+4
 5404              	.LBE987:
 5405              	.LBE986:
 5406              	.LBE985:
 5407              	.LBE984:
 5408              		.loc 1 399 0
 5409 0008 4FF48065 		mov	r5, #1024
 5410              		.loc 1 398 0
 5411 000c 4FF40077 		mov	r7, #512
 5412              		.loc 1 396 0
 5413 0010 8BB0     		sub	sp, sp, #44
 5414              		.cfi_def_cfa_offset 72
 5415              		.loc 1 398 0
ARM GAS  /tmp/ccs3e2Sq.s 			page 96


 5416 0012 2783     		strh	r7, [r4, #24]	@ movhi
 5417              		.loc 1 400 0
 5418 0014 4FF47A70 		mov	r0, #1000
 5419              		.loc 1 399 0
 5420 0018 2583     		strh	r5, [r4, #24]	@ movhi
 5421              		.loc 1 400 0
 5422 001a FFF7FEFF 		bl	chThdSleep
 5423              	.LVL463:
 5424              		.loc 1 401 0
 5425 001e 6583     		strh	r5, [r4, #26]	@ movhi
 5426              		.loc 1 402 0
 5427 0020 4FF4FA60 		mov	r0, #2000
 5428 0024 FFF7FEFF 		bl	chThdSleep
 5429              	.LVL464:
 5430 0028 0AAA     		add	r2, sp, #40
 5431 002a AE23     		movs	r3, #174
 5432              		.loc 1 403 0
 5433 002c 2583     		strh	r5, [r4, #24]	@ movhi
 5434              	.LBB1000:
 5435              	.LBB1001:
 5436              		.loc 1 40 0
 5437 002e 0121     		movs	r1, #1
 5438              	.LBE1001:
 5439              	.LBE1000:
 5440              		.loc 1 405 0
 5441 0030 6783     		strh	r7, [r4, #26]	@ movhi
 5442              	.LBB1003:
 5443              	.LBB1002:
 5444              		.loc 1 40 0
 5445 0032 3046     		mov	r0, r6
 5446 0034 02F8083D 		strb	r3, [r2, #-8]!
 5447              	.LVL465:
 5448 0038 FFF7FEFF 		bl	spiSend
 5449              	.LVL466:
 5450 003c 0AAA     		add	r2, sp, #40
 5451 003e 4FF00008 		mov	r8, #0
 5452 0042 02F8098D 		strb	r8, [r2, #-9]!
 5453              	.LVL467:
 5454              	.LBE1002:
 5455              	.LBE1003:
 5456              	.LBB1004:
 5457              	.LBB1005:
 5458 0046 0121     		movs	r1, #1
 5459 0048 3046     		mov	r0, r6
 5460 004a FFF7FEFF 		bl	spiSend
 5461              	.LVL468:
 5462 004e 0AAA     		add	r2, sp, #40
 5463 0050 1023     		movs	r3, #16
 5464 0052 02F80A3D 		strb	r3, [r2, #-10]!
 5465              	.LVL469:
 5466              	.LBE1005:
 5467              	.LBE1004:
 5468              	.LBB1006:
 5469              	.LBB1007:
 5470 0056 0121     		movs	r1, #1
 5471 0058 3046     		mov	r0, r6
 5472 005a FFF7FEFF 		bl	spiSend
ARM GAS  /tmp/ccs3e2Sq.s 			page 97


 5473              	.LVL470:
 5474 005e 0AAA     		add	r2, sp, #40
 5475 0060 4027     		movs	r7, #64
 5476 0062 02F80B7D 		strb	r7, [r2, #-11]!
 5477              	.LVL471:
 5478              	.LBE1007:
 5479              	.LBE1006:
 5480              	.LBB1008:
 5481              	.LBB1009:
 5482 0066 0121     		movs	r1, #1
 5483 0068 3046     		mov	r0, r6
 5484 006a FFF7FEFF 		bl	spiSend
 5485              	.LVL472:
 5486 006e 0AAA     		add	r2, sp, #40
 5487 0070 8123     		movs	r3, #129
 5488 0072 02F80C3D 		strb	r3, [r2, #-12]!
 5489              	.LVL473:
 5490              	.LBE1009:
 5491              	.LBE1008:
 5492              	.LBB1010:
 5493              	.LBB1011:
 5494 0076 0121     		movs	r1, #1
 5495 0078 3046     		mov	r0, r6
 5496 007a FFF7FEFF 		bl	spiSend
 5497              	.LVL474:
 5498 007e 0AAA     		add	r2, sp, #40
 5499 0080 FF23     		movs	r3, #255
 5500 0082 02F80D3D 		strb	r3, [r2, #-13]!
 5501              	.LVL475:
 5502              	.LBE1011:
 5503              	.LBE1010:
 5504              	.LBB1012:
 5505              	.LBB1013:
 5506 0086 0121     		movs	r1, #1
 5507 0088 3046     		mov	r0, r6
 5508 008a FFF7FEFF 		bl	spiSend
 5509              	.LVL476:
 5510 008e 0AAA     		add	r2, sp, #40
 5511 0090 A123     		movs	r3, #161
 5512 0092 02F80E3D 		strb	r3, [r2, #-14]!
 5513              	.LVL477:
 5514              	.LBE1013:
 5515              	.LBE1012:
 5516              	.LBB1014:
 5517              	.LBB1015:
 5518 0096 0121     		movs	r1, #1
 5519 0098 3046     		mov	r0, r6
 5520 009a FFF7FEFF 		bl	spiSend
 5521              	.LVL478:
 5522 009e 0AAA     		add	r2, sp, #40
 5523 00a0 C823     		movs	r3, #200
 5524 00a2 02F80F3D 		strb	r3, [r2, #-15]!
 5525              	.LVL479:
 5526              	.LBE1015:
 5527              	.LBE1014:
 5528              	.LBB1016:
 5529              	.LBB1017:
ARM GAS  /tmp/ccs3e2Sq.s 			page 98


 5530 00a6 0121     		movs	r1, #1
 5531 00a8 3046     		mov	r0, r6
 5532 00aa FFF7FEFF 		bl	spiSend
 5533              	.LVL480:
 5534 00ae 0AAA     		add	r2, sp, #40
 5535 00b0 A625     		movs	r5, #166
 5536 00b2 02F8105D 		strb	r5, [r2, #-16]!
 5537              	.LVL481:
 5538              	.LBE1017:
 5539              	.LBE1016:
 5540              	.LBB1018:
 5541              	.LBB1019:
 5542 00b6 0121     		movs	r1, #1
 5543 00b8 3046     		mov	r0, r6
 5544 00ba FFF7FEFF 		bl	spiSend
 5545              	.LVL482:
 5546 00be 0AAA     		add	r2, sp, #40
 5547 00c0 A823     		movs	r3, #168
 5548 00c2 02F8113D 		strb	r3, [r2, #-17]!
 5549              	.LVL483:
 5550              	.LBE1019:
 5551              	.LBE1018:
 5552              	.LBB1020:
 5553              	.LBB1021:
 5554 00c6 0121     		movs	r1, #1
 5555 00c8 3046     		mov	r0, r6
 5556 00ca FFF7FEFF 		bl	spiSend
 5557              	.LVL484:
 5558 00ce 0AAA     		add	r2, sp, #40
 5559 00d0 3F23     		movs	r3, #63
 5560 00d2 02F8123D 		strb	r3, [r2, #-18]!
 5561              	.LVL485:
 5562              	.LBE1021:
 5563              	.LBE1020:
 5564              	.LBB1022:
 5565              	.LBB1023:
 5566 00d6 0121     		movs	r1, #1
 5567 00d8 3046     		mov	r0, r6
 5568 00da FFF7FEFF 		bl	spiSend
 5569              	.LVL486:
 5570 00de 0AAA     		add	r2, sp, #40
 5571 00e0 D323     		movs	r3, #211
 5572 00e2 02F8133D 		strb	r3, [r2, #-19]!
 5573              	.LVL487:
 5574              	.LBE1023:
 5575              	.LBE1022:
 5576              	.LBB1024:
 5577              	.LBB1025:
 5578 00e6 0121     		movs	r1, #1
 5579 00e8 3046     		mov	r0, r6
 5580 00ea FFF7FEFF 		bl	spiSend
 5581              	.LVL488:
 5582 00ee 0AAA     		add	r2, sp, #40
 5583              	.LBE1025:
 5584              	.LBE1024:
 5585              	.LBB1026:
 5586              	.LBB1027:
ARM GAS  /tmp/ccs3e2Sq.s 			page 99


 5587 00f0 0121     		movs	r1, #1
 5588 00f2 02F8148D 		strb	r8, [r2, #-20]!
 5589              	.LVL489:
 5590 00f6 3046     		mov	r0, r6
 5591 00f8 FFF7FEFF 		bl	spiSend
 5592              	.LVL490:
 5593 00fc 0AAA     		add	r2, sp, #40
 5594 00fe D523     		movs	r3, #213
 5595 0100 02F8153D 		strb	r3, [r2, #-21]!
 5596              	.LVL491:
 5597              	.LBE1027:
 5598              	.LBE1026:
 5599              	.LBB1028:
 5600              	.LBB1029:
 5601 0104 0121     		movs	r1, #1
 5602 0106 3046     		mov	r0, r6
 5603 0108 FFF7FEFF 		bl	spiSend
 5604              	.LVL492:
 5605 010c 0AAA     		add	r2, sp, #40
 5606 010e 8023     		movs	r3, #128
 5607 0110 02F8163D 		strb	r3, [r2, #-22]!
 5608              	.LVL493:
 5609              	.LBE1029:
 5610              	.LBE1028:
 5611              	.LBB1030:
 5612              	.LBB1031:
 5613 0114 0121     		movs	r1, #1
 5614 0116 3046     		mov	r0, r6
 5615 0118 FFF7FEFF 		bl	spiSend
 5616              	.LVL494:
 5617 011c 0AAA     		add	r2, sp, #40
 5618 011e D923     		movs	r3, #217
 5619 0120 02F8173D 		strb	r3, [r2, #-23]!
 5620              	.LVL495:
 5621              	.LBE1031:
 5622              	.LBE1030:
 5623              	.LBB1032:
 5624              	.LBB1033:
 5625 0124 0121     		movs	r1, #1
 5626 0126 3046     		mov	r0, r6
 5627 0128 FFF7FEFF 		bl	spiSend
 5628              	.LVL496:
 5629 012c 0AAA     		add	r2, sp, #40
 5630 012e F123     		movs	r3, #241
 5631 0130 02F8183D 		strb	r3, [r2, #-24]!
 5632              	.LVL497:
 5633              	.LBE1033:
 5634              	.LBE1032:
 5635              	.LBB1034:
 5636              	.LBB1035:
 5637 0134 0121     		movs	r1, #1
 5638 0136 3046     		mov	r0, r6
 5639 0138 FFF7FEFF 		bl	spiSend
 5640              	.LVL498:
 5641 013c 0AAA     		add	r2, sp, #40
 5642 013e DA23     		movs	r3, #218
 5643 0140 02F8193D 		strb	r3, [r2, #-25]!
ARM GAS  /tmp/ccs3e2Sq.s 			page 100


 5644              	.LVL499:
 5645              	.LBE1035:
 5646              	.LBE1034:
 5647              	.LBB1036:
 5648              	.LBB1037:
 5649 0144 0121     		movs	r1, #1
 5650 0146 3046     		mov	r0, r6
 5651 0148 FFF7FEFF 		bl	spiSend
 5652              	.LVL500:
 5653 014c 0AAA     		add	r2, sp, #40
 5654 014e 1223     		movs	r3, #18
 5655 0150 02F81A3D 		strb	r3, [r2, #-26]!
 5656              	.LVL501:
 5657              	.LBE1037:
 5658              	.LBE1036:
 5659              	.LBB1038:
 5660              	.LBB1039:
 5661 0154 0121     		movs	r1, #1
 5662 0156 3046     		mov	r0, r6
 5663 0158 FFF7FEFF 		bl	spiSend
 5664              	.LVL502:
 5665 015c 0AAA     		add	r2, sp, #40
 5666 015e DB23     		movs	r3, #219
 5667 0160 02F81B3D 		strb	r3, [r2, #-27]!
 5668              	.LVL503:
 5669              	.LBE1039:
 5670              	.LBE1038:
 5671              	.LBB1040:
 5672              	.LBB1041:
 5673 0164 0121     		movs	r1, #1
 5674 0166 3046     		mov	r0, r6
 5675 0168 FFF7FEFF 		bl	spiSend
 5676              	.LVL504:
 5677 016c 0AAA     		add	r2, sp, #40
 5678              	.LBE1041:
 5679              	.LBE1040:
 5680              	.LBB1042:
 5681              	.LBB1043:
 5682 016e 0121     		movs	r1, #1
 5683 0170 02F81C7D 		strb	r7, [r2, #-28]!
 5684              	.LVL505:
 5685 0174 3046     		mov	r0, r6
 5686 0176 FFF7FEFF 		bl	spiSend
 5687              	.LVL506:
 5688 017a 0AAA     		add	r2, sp, #40
 5689 017c 2023     		movs	r3, #32
 5690 017e 02F81D3D 		strb	r3, [r2, #-29]!
 5691              	.LVL507:
 5692              	.LBE1043:
 5693              	.LBE1042:
 5694              	.LBB1044:
 5695              	.LBB1045:
 5696 0182 0121     		movs	r1, #1
 5697 0184 3046     		mov	r0, r6
 5698 0186 FFF7FEFF 		bl	spiSend
 5699              	.LVL508:
 5700 018a 0AAA     		add	r2, sp, #40
ARM GAS  /tmp/ccs3e2Sq.s 			page 101


 5701 018c 0223     		movs	r3, #2
 5702 018e 02F81E3D 		strb	r3, [r2, #-30]!
 5703              	.LVL509:
 5704              	.LBE1045:
 5705              	.LBE1044:
 5706              	.LBB1046:
 5707              	.LBB1047:
 5708 0192 0121     		movs	r1, #1
 5709 0194 3046     		mov	r0, r6
 5710 0196 FFF7FEFF 		bl	spiSend
 5711              	.LVL510:
 5712 019a 0AAA     		add	r2, sp, #40
 5713 019c 8D23     		movs	r3, #141
 5714 019e 02F81F3D 		strb	r3, [r2, #-31]!
 5715              	.LVL511:
 5716              	.LBE1047:
 5717              	.LBE1046:
 5718              	.LBB1048:
 5719              	.LBB1049:
 5720 01a2 0121     		movs	r1, #1
 5721 01a4 3046     		mov	r0, r6
 5722 01a6 FFF7FEFF 		bl	spiSend
 5723              	.LVL512:
 5724 01aa 0AAA     		add	r2, sp, #40
 5725 01ac 1423     		movs	r3, #20
 5726 01ae 02F8203D 		strb	r3, [r2, #-32]!
 5727              	.LVL513:
 5728              	.LBE1049:
 5729              	.LBE1048:
 5730              	.LBB1050:
 5731              	.LBB1051:
 5732 01b2 0121     		movs	r1, #1
 5733 01b4 3046     		mov	r0, r6
 5734 01b6 FFF7FEFF 		bl	spiSend
 5735              	.LVL514:
 5736 01ba 0AAA     		add	r2, sp, #40
 5737 01bc A423     		movs	r3, #164
 5738 01be 02F8213D 		strb	r3, [r2, #-33]!
 5739              	.LVL515:
 5740              	.LBE1051:
 5741              	.LBE1050:
 5742              	.LBB1052:
 5743              	.LBB1053:
 5744 01c2 0121     		movs	r1, #1
 5745 01c4 3046     		mov	r0, r6
 5746 01c6 FFF7FEFF 		bl	spiSend
 5747              	.LVL516:
 5748 01ca 0AAA     		add	r2, sp, #40
 5749              	.LBE1053:
 5750              	.LBE1052:
 5751              	.LBB1054:
 5752              	.LBB1055:
 5753 01cc 0121     		movs	r1, #1
 5754 01ce 02F8225D 		strb	r5, [r2, #-34]!
 5755              	.LVL517:
 5756 01d2 3046     		mov	r0, r6
 5757 01d4 FFF7FEFF 		bl	spiSend
ARM GAS  /tmp/ccs3e2Sq.s 			page 102


 5758              	.LVL518:
 5759 01d8 0AAA     		add	r2, sp, #40
 5760              	.LBE1055:
 5761              	.LBE1054:
 5762              	.LBB1056:
 5763              	.LBB998:
 5764              		.loc 1 384 0
 5765 01da A146     		mov	r9, r4
 5766 01dc AF24     		movs	r4, #175
 5767 01de 02F8234D 		strb	r4, [r2, #-35]!
 5768              	.LVL519:
 5769              	.LBE998:
 5770              	.LBE1056:
 5771              	.LBB1057:
 5772              	.LBB1058:
 5773              		.loc 1 40 0
 5774 01e2 0121     		movs	r1, #1
 5775 01e4 3046     		mov	r0, r6
 5776 01e6 FFF7FEFF 		bl	spiSend
 5777              	.LVL520:
 5778 01ea 0AAA     		add	r2, sp, #40
 5779              	.LBE1058:
 5780              	.LBE1057:
 5781              	.LBB1059:
 5782              	.LBB1060:
 5783 01ec 0121     		movs	r1, #1
 5784 01ee 02F8244D 		strb	r4, [r2, #-36]!
 5785              	.LVL521:
 5786 01f2 3046     		mov	r0, r6
 5787 01f4 FFF7FEFF 		bl	spiSend
 5788              	.LVL522:
 5789 01f8 B027     		movs	r7, #176
 5790              	.LVL523:
 5791              	.L404:
 5792              	.LBE1060:
 5793              	.LBE1059:
 5794              	.LBB1061:
 5795              	.LBB999:
 5796              		.loc 1 384 0
 5797 01fa 4FF40078 		mov	r8, #512
 5798 01fe A9F81A80 		strh	r8, [r9, #26]	@ movhi
 5799              	.LBB989:
 5800              	.LBB988:
 5801              		.loc 1 40 0
 5802 0202 0DF12502 		add	r2, sp, #37
 5803 0206 0121     		movs	r1, #1
 5804 0208 3046     		mov	r0, r6
 5805 020a 8DF82570 		strb	r7, [sp, #37]
 5806              	.LVL524:
 5807 020e 0025     		movs	r5, #0
 5808 0210 FFF7FEFF 		bl	spiSend
 5809              	.LVL525:
 5810              	.LBE988:
 5811              	.LBE989:
 5812              	.LBB990:
 5813              	.LBB991:
 5814 0214 0DF12602 		add	r2, sp, #38
ARM GAS  /tmp/ccs3e2Sq.s 			page 103


 5815 0218 0121     		movs	r1, #1
 5816 021a 3046     		mov	r0, r6
 5817 021c 8DF82650 		strb	r5, [sp, #38]
 5818              	.LVL526:
 5819 0220 FFF7FEFF 		bl	spiSend
 5820              	.LVL527:
 5821 0224 1023     		movs	r3, #16
 5822              	.LBE991:
 5823              	.LBE990:
 5824              	.LBB992:
 5825              	.LBB993:
 5826 0226 0DF12702 		add	r2, sp, #39
 5827 022a 0121     		movs	r1, #1
 5828 022c 3046     		mov	r0, r6
 5829 022e 8DF82730 		strb	r3, [sp, #39]
 5830              	.LVL528:
 5831              	.LBE993:
 5832              	.LBE992:
 5833              		.loc 1 388 0
 5834 0232 8024     		movs	r4, #128
 5835              	.LBB995:
 5836              	.LBB994:
 5837              		.loc 1 40 0
 5838 0234 FFF7FEFF 		bl	spiSend
 5839              	.LVL529:
 5840              	.LBE994:
 5841              	.LBE995:
 5842              		.loc 1 388 0
 5843 0238 A9F81880 		strh	r8, [r9, #24]	@ movhi
 5844              	.LVL530:
 5845              	.L403:
 5846              	.LBB996:
 5847              	.LBB997:
 5848              		.loc 1 40 0
 5849 023c 09AA     		add	r2, sp, #36
 5850 023e 0121     		movs	r1, #1
 5851 0240 3046     		mov	r0, r6
 5852 0242 8DF82450 		strb	r5, [sp, #36]
 5853              	.LVL531:
 5854 0246 FFF7FEFF 		bl	spiSend
 5855              	.LVL532:
 5856              	.LBE997:
 5857              	.LBE996:
 5858              		.loc 1 389 0
 5859 024a 013C     		subs	r4, r4, #1
 5860 024c F6D1     		bne	.L403
 5861              	.LVL533:
 5862 024e 0137     		adds	r7, r7, #1
 5863              	.LVL534:
 5864 0250 FFB2     		uxtb	r7, r7
 5865              		.loc 1 382 0
 5866 0252 B82F     		cmp	r7, #184
 5867 0254 D1D1     		bne	.L404
 5868              	.LVL535:
 5869 0256 0AAA     		add	r2, sp, #40
 5870              	.LBE999:
 5871              	.LBE1061:
ARM GAS  /tmp/ccs3e2Sq.s 			page 104


 5872              	.LBB1062:
 5873              	.LBB1063:
 5874              		.loc 1 45 0
 5875 0258 0E49     		ldr	r1, .L408
 5876              	.LBB1064:
 5877              	.LBB1065:
 5878              		.loc 1 40 0
 5879 025a 0F48     		ldr	r0, .L408+4
 5880 025c B023     		movs	r3, #176
 5881              	.LBE1065:
 5882              	.LBE1064:
 5883              		.loc 1 45 0
 5884 025e 4FF40075 		mov	r5, #512
 5885 0262 4D83     		strh	r5, [r1, #26]	@ movhi
 5886 0264 02F8073D 		strb	r3, [r2, #-7]!
 5887              	.LVL536:
 5888              	.LBB1067:
 5889              	.LBB1066:
 5890              		.loc 1 40 0
 5891 0268 0121     		movs	r1, #1
 5892 026a FFF7FEFF 		bl	spiSend
 5893              	.LVL537:
 5894 026e 0AAA     		add	r2, sp, #40
 5895 0270 1023     		movs	r3, #16
 5896 0272 02F8063D 		strb	r3, [r2, #-6]!
 5897              	.LVL538:
 5898              	.LBE1066:
 5899              	.LBE1067:
 5900              	.LBB1068:
 5901              	.LBB1069:
 5902 0276 0121     		movs	r1, #1
 5903 0278 0748     		ldr	r0, .L408+4
 5904 027a FFF7FEFF 		bl	spiSend
 5905              	.LVL539:
 5906 027e 0AAA     		add	r2, sp, #40
 5907              	.LBE1069:
 5908              	.LBE1068:
 5909              	.LBB1070:
 5910              	.LBB1071:
 5911 0280 0121     		movs	r1, #1
 5912 0282 02F8054D 		strb	r4, [r2, #-5]!
 5913              	.LVL540:
 5914 0286 0448     		ldr	r0, .L408+4
 5915 0288 FFF7FEFF 		bl	spiSend
 5916              	.LVL541:
 5917              	.LBE1071:
 5918              	.LBE1070:
 5919              	.LBE1063:
 5920              	.LBE1062:
 5921              		.loc 1 438 0
 5922 028c 0BB0     		add	sp, sp, #44
 5923              		.cfi_def_cfa_offset 28
 5924              		@ sp needed
 5925 028e BDE8F083 		pop	{r4, r5, r6, r7, r8, r9, pc}
 5926              	.L409:
 5927 0292 00BF     		.align	2
 5928              	.L408:
ARM GAS  /tmp/ccs3e2Sq.s 			page 105


 5929 0294 00040240 		.word	1073873920
 5930 0298 00000000 		.word	SPID1
 5931              		.cfi_endproc
 5932              	.LFE344:
 5933              		.size	OLED_Init, .-OLED_Init
 5934              		.global	OLED_COLUMN_COUNT
 5935              		.global	OLED_PAGE_COUNT
 5936              		.global	Hzk
 5937              		.global	F8X16
 5938              		.global	F6x8
 5939              		.section	.data.Hzk,"aw",%progbits
 5940              		.align	2
 5941              		.type	Hzk, %object
 5942              		.size	Hzk, 448
 5943              	Hzk:
 5944 0000 00       		.byte	0
 5945 0001 00       		.byte	0
 5946 0002 F0       		.byte	-16
 5947 0003 10       		.byte	16
 5948 0004 10       		.byte	16
 5949 0005 10       		.byte	16
 5950 0006 10       		.byte	16
 5951 0007 FF       		.byte	-1
 5952 0008 10       		.byte	16
 5953 0009 10       		.byte	16
 5954 000a 10       		.byte	16
 5955 000b 10       		.byte	16
 5956 000c F0       		.byte	-16
 5957 000d 00       		.byte	0
 5958 000e 00       		.byte	0
 5959 000f 00       		.byte	0
 5960 0010 00000000 		.space	16
 5960      00000000 
 5960      00000000 
 5960      00000000 
 5961 0020 00       		.byte	0
 5962 0021 00       		.byte	0
 5963 0022 0F       		.byte	15
 5964 0023 04       		.byte	4
 5965 0024 04       		.byte	4
 5966 0025 04       		.byte	4
 5967 0026 04       		.byte	4
 5968 0027 FF       		.byte	-1
 5969 0028 04       		.byte	4
 5970 0029 04       		.byte	4
 5971 002a 04       		.byte	4
 5972 002b 04       		.byte	4
 5973 002c 0F       		.byte	15
 5974 002d 00       		.byte	0
 5975 002e 00       		.byte	0
 5976 002f 00       		.byte	0
 5977 0030 00000000 		.space	16
 5977      00000000 
 5977      00000000 
 5977      00000000 
 5978 0040 40       		.byte	64
 5979 0041 40       		.byte	64
ARM GAS  /tmp/ccs3e2Sq.s 			page 106


 5980 0042 40       		.byte	64
 5981 0043 5F       		.byte	95
 5982 0044 55       		.byte	85
 5983 0045 55       		.byte	85
 5984 0046 55       		.byte	85
 5985 0047 75       		.byte	117
 5986 0048 55       		.byte	85
 5987 0049 55       		.byte	85
 5988 004a 55       		.byte	85
 5989 004b 5F       		.byte	95
 5990 004c 40       		.byte	64
 5991 004d 40       		.byte	64
 5992 004e 40       		.byte	64
 5993 004f 00       		.byte	0
 5994 0050 00000000 		.space	16
 5994      00000000 
 5994      00000000 
 5994      00000000 
 5995 0060 00       		.byte	0
 5996 0061 40       		.byte	64
 5997 0062 20       		.byte	32
 5998 0063 0F       		.byte	15
 5999 0064 09       		.byte	9
 6000 0065 49       		.byte	73
 6001 0066 89       		.byte	-119
 6002 0067 79       		.byte	121
 6003 0068 09       		.byte	9
 6004 0069 09       		.byte	9
 6005 006a 09       		.byte	9
 6006 006b 0F       		.byte	15
 6007 006c 20       		.byte	32
 6008 006d 40       		.byte	64
 6009 006e 00       		.byte	0
 6010 006f 00       		.byte	0
 6011 0070 00000000 		.space	16
 6011      00000000 
 6011      00000000 
 6011      00000000 
 6012 0080 00       		.byte	0
 6013 0081 FE       		.byte	-2
 6014 0082 02       		.byte	2
 6015 0083 42       		.byte	66
 6016 0084 4A       		.byte	74
 6017 0085 CA       		.byte	-54
 6018 0086 4A       		.byte	74
 6019 0087 4A       		.byte	74
 6020 0088 CA       		.byte	-54
 6021 0089 4A       		.byte	74
 6022 008a 4A       		.byte	74
 6023 008b 42       		.byte	66
 6024 008c 02       		.byte	2
 6025 008d FE       		.byte	-2
 6026 008e 00       		.byte	0
 6027 008f 00       		.byte	0
 6028 0090 00000000 		.space	16
 6028      00000000 
 6028      00000000 
ARM GAS  /tmp/ccs3e2Sq.s 			page 107


 6028      00000000 
 6029 00a0 00       		.byte	0
 6030 00a1 FF       		.byte	-1
 6031 00a2 40       		.byte	64
 6032 00a3 50       		.byte	80
 6033 00a4 4C       		.byte	76
 6034 00a5 43       		.byte	67
 6035 00a6 40       		.byte	64
 6036 00a7 40       		.byte	64
 6037 00a8 4F       		.byte	79
 6038 00a9 50       		.byte	80
 6039 00aa 50       		.byte	80
 6040 00ab 5C       		.byte	92
 6041 00ac 40       		.byte	64
 6042 00ad FF       		.byte	-1
 6043 00ae 00       		.byte	0
 6044 00af 00       		.byte	0
 6045 00b0 00000000 		.space	16
 6045      00000000 
 6045      00000000 
 6045      00000000 
 6046 00c0 00       		.byte	0
 6047 00c1 00       		.byte	0
 6048 00c2 F8       		.byte	-8
 6049 00c3 88       		.byte	-120
 6050 00c4 88       		.byte	-120
 6051 00c5 88       		.byte	-120
 6052 00c6 88       		.byte	-120
 6053 00c7 FF       		.byte	-1
 6054 00c8 88       		.byte	-120
 6055 00c9 88       		.byte	-120
 6056 00ca 88       		.byte	-120
 6057 00cb 88       		.byte	-120
 6058 00cc F8       		.byte	-8
 6059 00cd 00       		.byte	0
 6060 00ce 00       		.byte	0
 6061 00cf 00       		.byte	0
 6062 00d0 00000000 		.space	16
 6062      00000000 
 6062      00000000 
 6062      00000000 
 6063 00e0 00       		.byte	0
 6064 00e1 00       		.byte	0
 6065 00e2 1F       		.byte	31
 6066 00e3 08       		.byte	8
 6067 00e4 08       		.byte	8
 6068 00e5 08       		.byte	8
 6069 00e6 08       		.byte	8
 6070 00e7 7F       		.byte	127
 6071 00e8 88       		.byte	-120
 6072 00e9 88       		.byte	-120
 6073 00ea 88       		.byte	-120
 6074 00eb 88       		.byte	-120
 6075 00ec 9F       		.byte	-97
 6076 00ed 80       		.byte	-128
 6077 00ee F0       		.byte	-16
 6078 00ef 00       		.byte	0
ARM GAS  /tmp/ccs3e2Sq.s 			page 108


 6079 00f0 00000000 		.space	16
 6079      00000000 
 6079      00000000 
 6079      00000000 
 6080 0100 80       		.byte	-128
 6081 0101 82       		.byte	-126
 6082 0102 82       		.byte	-126
 6083 0103 82       		.byte	-126
 6084 0104 82       		.byte	-126
 6085 0105 82       		.byte	-126
 6086 0106 82       		.byte	-126
 6087 0107 E2       		.byte	-30
 6088 0108 A2       		.byte	-94
 6089 0109 92       		.byte	-110
 6090 010a 8A       		.byte	-118
 6091 010b 86       		.byte	-122
 6092 010c 82       		.byte	-126
 6093 010d 80       		.byte	-128
 6094 010e 80       		.byte	-128
 6095 010f 00       		.byte	0
 6096 0110 00000000 		.space	16
 6096      00000000 
 6096      00000000 
 6096      00000000 
 6097 0120 00       		.byte	0
 6098 0121 00       		.byte	0
 6099 0122 00       		.byte	0
 6100 0123 00       		.byte	0
 6101 0124 00       		.byte	0
 6102 0125 40       		.byte	64
 6103 0126 80       		.byte	-128
 6104 0127 7F       		.byte	127
 6105 0128 00       		.byte	0
 6106 0129 00       		.byte	0
 6107 012a 00       		.byte	0
 6108 012b 00       		.byte	0
 6109 012c 00       		.byte	0
 6110 012d 00       		.byte	0
 6111 012e 00       		.byte	0
 6112 012f 00       		.byte	0
 6113 0130 00000000 		.space	16
 6113      00000000 
 6113      00000000 
 6113      00000000 
 6114 0140 24       		.byte	36
 6115 0141 24       		.byte	36
 6116 0142 A4       		.byte	-92
 6117 0143 FE       		.byte	-2
 6118 0144 A3       		.byte	-93
 6119 0145 22       		.byte	34
 6120 0146 00       		.byte	0
 6121 0147 22       		.byte	34
 6122 0148 CC       		.byte	-52
 6123 0149 00       		.byte	0
 6124 014a 00       		.byte	0
 6125 014b FF       		.byte	-1
 6126 014c 00       		.byte	0
ARM GAS  /tmp/ccs3e2Sq.s 			page 109


 6127 014d 00       		.byte	0
 6128 014e 00       		.byte	0
 6129 014f 00       		.byte	0
 6130 0150 00000000 		.space	16
 6130      00000000 
 6130      00000000 
 6130      00000000 
 6131 0160 08       		.byte	8
 6132 0161 06       		.byte	6
 6133 0162 01       		.byte	1
 6134 0163 FF       		.byte	-1
 6135 0164 00       		.byte	0
 6136 0165 01       		.byte	1
 6137 0166 04       		.byte	4
 6138 0167 04       		.byte	4
 6139 0168 04       		.byte	4
 6140 0169 04       		.byte	4
 6141 016a 04       		.byte	4
 6142 016b FF       		.byte	-1
 6143 016c 02       		.byte	2
 6144 016d 02       		.byte	2
 6145 016e 02       		.byte	2
 6146 016f 00       		.byte	0
 6147 0170 00000000 		.space	16
 6147      00000000 
 6147      00000000 
 6147      00000000 
 6148 0180 10       		.byte	16
 6149 0181 10       		.byte	16
 6150 0182 10       		.byte	16
 6151 0183 FF       		.byte	-1
 6152 0184 10       		.byte	16
 6153 0185 90       		.byte	-112
 6154 0186 08       		.byte	8
 6155 0187 88       		.byte	-120
 6156 0188 88       		.byte	-120
 6157 0189 88       		.byte	-120
 6158 018a FF       		.byte	-1
 6159 018b 88       		.byte	-120
 6160 018c 88       		.byte	-120
 6161 018d 88       		.byte	-120
 6162 018e 08       		.byte	8
 6163 018f 00       		.byte	0
 6164 0190 00000000 		.space	16
 6164      00000000 
 6164      00000000 
 6164      00000000 
 6165 01a0 04       		.byte	4
 6166 01a1 44       		.byte	68
 6167 01a2 82       		.byte	-126
 6168 01a3 7F       		.byte	127
 6169 01a4 01       		.byte	1
 6170 01a5 80       		.byte	-128
 6171 01a6 80       		.byte	-128
 6172 01a7 40       		.byte	64
 6173 01a8 43       		.byte	67
 6174 01a9 2C       		.byte	44
ARM GAS  /tmp/ccs3e2Sq.s 			page 110


 6175 01aa 10       		.byte	16
 6176 01ab 28       		.byte	40
 6177 01ac 46       		.byte	70
 6178 01ad 81       		.byte	-127
 6179 01ae 80       		.byte	-128
 6180 01af 00       		.byte	0
 6181 01b0 00000000 		.space	16
 6181      00000000 
 6181      00000000 
 6181      00000000 
 6182              		.section	.rodata.F6x8,"a",%progbits
 6183              		.align	2
 6184              		.set	.LANCHOR1,. + 0
 6185              		.type	F6x8, %object
 6186              		.size	F6x8, 552
 6187              	F6x8:
 6188 0000 00       		.byte	0
 6189 0001 00       		.byte	0
 6190 0002 00       		.byte	0
 6191 0003 00       		.byte	0
 6192 0004 00       		.byte	0
 6193 0005 00       		.byte	0
 6194 0006 00       		.byte	0
 6195 0007 00       		.byte	0
 6196 0008 00       		.byte	0
 6197 0009 2F       		.byte	47
 6198 000a 00       		.byte	0
 6199 000b 00       		.byte	0
 6200 000c 00       		.byte	0
 6201 000d 00       		.byte	0
 6202 000e 07       		.byte	7
 6203 000f 00       		.byte	0
 6204 0010 07       		.byte	7
 6205 0011 00       		.byte	0
 6206 0012 00       		.byte	0
 6207 0013 14       		.byte	20
 6208 0014 7F       		.byte	127
 6209 0015 14       		.byte	20
 6210 0016 7F       		.byte	127
 6211 0017 14       		.byte	20
 6212 0018 00       		.byte	0
 6213 0019 24       		.byte	36
 6214 001a 2A       		.byte	42
 6215 001b 7F       		.byte	127
 6216 001c 2A       		.byte	42
 6217 001d 12       		.byte	18
 6218 001e 00       		.byte	0
 6219 001f 62       		.byte	98
 6220 0020 64       		.byte	100
 6221 0021 08       		.byte	8
 6222 0022 13       		.byte	19
 6223 0023 23       		.byte	35
 6224 0024 00       		.byte	0
 6225 0025 36       		.byte	54
 6226 0026 49       		.byte	73
 6227 0027 55       		.byte	85
 6228 0028 22       		.byte	34
ARM GAS  /tmp/ccs3e2Sq.s 			page 111


 6229 0029 50       		.byte	80
 6230 002a 00       		.byte	0
 6231 002b 00       		.byte	0
 6232 002c 05       		.byte	5
 6233 002d 03       		.byte	3
 6234 002e 00       		.byte	0
 6235 002f 00       		.byte	0
 6236 0030 00       		.byte	0
 6237 0031 00       		.byte	0
 6238 0032 1C       		.byte	28
 6239 0033 22       		.byte	34
 6240 0034 41       		.byte	65
 6241 0035 00       		.byte	0
 6242 0036 00       		.byte	0
 6243 0037 00       		.byte	0
 6244 0038 41       		.byte	65
 6245 0039 22       		.byte	34
 6246 003a 1C       		.byte	28
 6247 003b 00       		.byte	0
 6248 003c 00       		.byte	0
 6249 003d 14       		.byte	20
 6250 003e 08       		.byte	8
 6251 003f 3E       		.byte	62
 6252 0040 08       		.byte	8
 6253 0041 14       		.byte	20
 6254 0042 00       		.byte	0
 6255 0043 08       		.byte	8
 6256 0044 08       		.byte	8
 6257 0045 3E       		.byte	62
 6258 0046 08       		.byte	8
 6259 0047 08       		.byte	8
 6260 0048 00       		.byte	0
 6261 0049 00       		.byte	0
 6262 004a 00       		.byte	0
 6263 004b A0       		.byte	-96
 6264 004c 60       		.byte	96
 6265 004d 00       		.byte	0
 6266 004e 00       		.byte	0
 6267 004f 08       		.byte	8
 6268 0050 08       		.byte	8
 6269 0051 08       		.byte	8
 6270 0052 08       		.byte	8
 6271 0053 08       		.byte	8
 6272 0054 00       		.byte	0
 6273 0055 00       		.byte	0
 6274 0056 60       		.byte	96
 6275 0057 60       		.byte	96
 6276 0058 00       		.byte	0
 6277 0059 00       		.byte	0
 6278 005a 00       		.byte	0
 6279 005b 20       		.byte	32
 6280 005c 10       		.byte	16
 6281 005d 08       		.byte	8
 6282 005e 04       		.byte	4
 6283 005f 02       		.byte	2
 6284 0060 00       		.byte	0
 6285 0061 3E       		.byte	62
ARM GAS  /tmp/ccs3e2Sq.s 			page 112


 6286 0062 51       		.byte	81
 6287 0063 49       		.byte	73
 6288 0064 45       		.byte	69
 6289 0065 3E       		.byte	62
 6290 0066 00       		.byte	0
 6291 0067 00       		.byte	0
 6292 0068 42       		.byte	66
 6293 0069 7F       		.byte	127
 6294 006a 40       		.byte	64
 6295 006b 00       		.byte	0
 6296 006c 00       		.byte	0
 6297 006d 42       		.byte	66
 6298 006e 61       		.byte	97
 6299 006f 51       		.byte	81
 6300 0070 49       		.byte	73
 6301 0071 46       		.byte	70
 6302 0072 00       		.byte	0
 6303 0073 21       		.byte	33
 6304 0074 41       		.byte	65
 6305 0075 45       		.byte	69
 6306 0076 4B       		.byte	75
 6307 0077 31       		.byte	49
 6308 0078 00       		.byte	0
 6309 0079 18       		.byte	24
 6310 007a 14       		.byte	20
 6311 007b 12       		.byte	18
 6312 007c 7F       		.byte	127
 6313 007d 10       		.byte	16
 6314 007e 00       		.byte	0
 6315 007f 27       		.byte	39
 6316 0080 45       		.byte	69
 6317 0081 45       		.byte	69
 6318 0082 45       		.byte	69
 6319 0083 39       		.byte	57
 6320 0084 00       		.byte	0
 6321 0085 3C       		.byte	60
 6322 0086 4A       		.byte	74
 6323 0087 49       		.byte	73
 6324 0088 49       		.byte	73
 6325 0089 30       		.byte	48
 6326 008a 00       		.byte	0
 6327 008b 01       		.byte	1
 6328 008c 71       		.byte	113
 6329 008d 09       		.byte	9
 6330 008e 05       		.byte	5
 6331 008f 03       		.byte	3
 6332 0090 00       		.byte	0
 6333 0091 36       		.byte	54
 6334 0092 49       		.byte	73
 6335 0093 49       		.byte	73
 6336 0094 49       		.byte	73
 6337 0095 36       		.byte	54
 6338 0096 00       		.byte	0
 6339 0097 06       		.byte	6
 6340 0098 49       		.byte	73
 6341 0099 49       		.byte	73
 6342 009a 29       		.byte	41
ARM GAS  /tmp/ccs3e2Sq.s 			page 113


 6343 009b 1E       		.byte	30
 6344 009c 00       		.byte	0
 6345 009d 00       		.byte	0
 6346 009e 36       		.byte	54
 6347 009f 36       		.byte	54
 6348 00a0 00       		.byte	0
 6349 00a1 00       		.byte	0
 6350 00a2 00       		.byte	0
 6351 00a3 00       		.byte	0
 6352 00a4 56       		.byte	86
 6353 00a5 36       		.byte	54
 6354 00a6 00       		.byte	0
 6355 00a7 00       		.byte	0
 6356 00a8 00       		.byte	0
 6357 00a9 08       		.byte	8
 6358 00aa 14       		.byte	20
 6359 00ab 22       		.byte	34
 6360 00ac 41       		.byte	65
 6361 00ad 00       		.byte	0
 6362 00ae 00       		.byte	0
 6363 00af 14       		.byte	20
 6364 00b0 14       		.byte	20
 6365 00b1 14       		.byte	20
 6366 00b2 14       		.byte	20
 6367 00b3 14       		.byte	20
 6368 00b4 00       		.byte	0
 6369 00b5 00       		.byte	0
 6370 00b6 41       		.byte	65
 6371 00b7 22       		.byte	34
 6372 00b8 14       		.byte	20
 6373 00b9 08       		.byte	8
 6374 00ba 00       		.byte	0
 6375 00bb 02       		.byte	2
 6376 00bc 01       		.byte	1
 6377 00bd 51       		.byte	81
 6378 00be 09       		.byte	9
 6379 00bf 06       		.byte	6
 6380 00c0 00       		.byte	0
 6381 00c1 32       		.byte	50
 6382 00c2 49       		.byte	73
 6383 00c3 59       		.byte	89
 6384 00c4 51       		.byte	81
 6385 00c5 3E       		.byte	62
 6386 00c6 00       		.byte	0
 6387 00c7 7C       		.byte	124
 6388 00c8 12       		.byte	18
 6389 00c9 11       		.byte	17
 6390 00ca 12       		.byte	18
 6391 00cb 7C       		.byte	124
 6392 00cc 00       		.byte	0
 6393 00cd 7F       		.byte	127
 6394 00ce 49       		.byte	73
 6395 00cf 49       		.byte	73
 6396 00d0 49       		.byte	73
 6397 00d1 36       		.byte	54
 6398 00d2 00       		.byte	0
 6399 00d3 3E       		.byte	62
ARM GAS  /tmp/ccs3e2Sq.s 			page 114


 6400 00d4 41       		.byte	65
 6401 00d5 41       		.byte	65
 6402 00d6 41       		.byte	65
 6403 00d7 22       		.byte	34
 6404 00d8 00       		.byte	0
 6405 00d9 7F       		.byte	127
 6406 00da 41       		.byte	65
 6407 00db 41       		.byte	65
 6408 00dc 22       		.byte	34
 6409 00dd 1C       		.byte	28
 6410 00de 00       		.byte	0
 6411 00df 7F       		.byte	127
 6412 00e0 49       		.byte	73
 6413 00e1 49       		.byte	73
 6414 00e2 49       		.byte	73
 6415 00e3 41       		.byte	65
 6416 00e4 00       		.byte	0
 6417 00e5 7F       		.byte	127
 6418 00e6 09       		.byte	9
 6419 00e7 09       		.byte	9
 6420 00e8 09       		.byte	9
 6421 00e9 01       		.byte	1
 6422 00ea 00       		.byte	0
 6423 00eb 3E       		.byte	62
 6424 00ec 41       		.byte	65
 6425 00ed 49       		.byte	73
 6426 00ee 49       		.byte	73
 6427 00ef 7A       		.byte	122
 6428 00f0 00       		.byte	0
 6429 00f1 7F       		.byte	127
 6430 00f2 08       		.byte	8
 6431 00f3 08       		.byte	8
 6432 00f4 08       		.byte	8
 6433 00f5 7F       		.byte	127
 6434 00f6 00       		.byte	0
 6435 00f7 00       		.byte	0
 6436 00f8 41       		.byte	65
 6437 00f9 7F       		.byte	127
 6438 00fa 41       		.byte	65
 6439 00fb 00       		.byte	0
 6440 00fc 00       		.byte	0
 6441 00fd 20       		.byte	32
 6442 00fe 40       		.byte	64
 6443 00ff 41       		.byte	65
 6444 0100 3F       		.byte	63
 6445 0101 01       		.byte	1
 6446 0102 00       		.byte	0
 6447 0103 7F       		.byte	127
 6448 0104 08       		.byte	8
 6449 0105 14       		.byte	20
 6450 0106 22       		.byte	34
 6451 0107 41       		.byte	65
 6452 0108 00       		.byte	0
 6453 0109 7F       		.byte	127
 6454 010a 40       		.byte	64
 6455 010b 40       		.byte	64
 6456 010c 40       		.byte	64
ARM GAS  /tmp/ccs3e2Sq.s 			page 115


 6457 010d 40       		.byte	64
 6458 010e 00       		.byte	0
 6459 010f 7F       		.byte	127
 6460 0110 02       		.byte	2
 6461 0111 0C       		.byte	12
 6462 0112 02       		.byte	2
 6463 0113 7F       		.byte	127
 6464 0114 00       		.byte	0
 6465 0115 7F       		.byte	127
 6466 0116 04       		.byte	4
 6467 0117 08       		.byte	8
 6468 0118 10       		.byte	16
 6469 0119 7F       		.byte	127
 6470 011a 00       		.byte	0
 6471 011b 3E       		.byte	62
 6472 011c 41       		.byte	65
 6473 011d 41       		.byte	65
 6474 011e 41       		.byte	65
 6475 011f 3E       		.byte	62
 6476 0120 00       		.byte	0
 6477 0121 7F       		.byte	127
 6478 0122 09       		.byte	9
 6479 0123 09       		.byte	9
 6480 0124 09       		.byte	9
 6481 0125 06       		.byte	6
 6482 0126 00       		.byte	0
 6483 0127 3E       		.byte	62
 6484 0128 41       		.byte	65
 6485 0129 51       		.byte	81
 6486 012a 21       		.byte	33
 6487 012b 5E       		.byte	94
 6488 012c 00       		.byte	0
 6489 012d 7F       		.byte	127
 6490 012e 09       		.byte	9
 6491 012f 19       		.byte	25
 6492 0130 29       		.byte	41
 6493 0131 46       		.byte	70
 6494 0132 00       		.byte	0
 6495 0133 46       		.byte	70
 6496 0134 49       		.byte	73
 6497 0135 49       		.byte	73
 6498 0136 49       		.byte	73
 6499 0137 31       		.byte	49
 6500 0138 00       		.byte	0
 6501 0139 01       		.byte	1
 6502 013a 01       		.byte	1
 6503 013b 7F       		.byte	127
 6504 013c 01       		.byte	1
 6505 013d 01       		.byte	1
 6506 013e 00       		.byte	0
 6507 013f 3F       		.byte	63
 6508 0140 40       		.byte	64
 6509 0141 40       		.byte	64
 6510 0142 40       		.byte	64
 6511 0143 3F       		.byte	63
 6512 0144 00       		.byte	0
 6513 0145 1F       		.byte	31
ARM GAS  /tmp/ccs3e2Sq.s 			page 116


 6514 0146 20       		.byte	32
 6515 0147 40       		.byte	64
 6516 0148 20       		.byte	32
 6517 0149 1F       		.byte	31
 6518 014a 00       		.byte	0
 6519 014b 3F       		.byte	63
 6520 014c 40       		.byte	64
 6521 014d 38       		.byte	56
 6522 014e 40       		.byte	64
 6523 014f 3F       		.byte	63
 6524 0150 00       		.byte	0
 6525 0151 63       		.byte	99
 6526 0152 14       		.byte	20
 6527 0153 08       		.byte	8
 6528 0154 14       		.byte	20
 6529 0155 63       		.byte	99
 6530 0156 00       		.byte	0
 6531 0157 07       		.byte	7
 6532 0158 08       		.byte	8
 6533 0159 70       		.byte	112
 6534 015a 08       		.byte	8
 6535 015b 07       		.byte	7
 6536 015c 00       		.byte	0
 6537 015d 61       		.byte	97
 6538 015e 51       		.byte	81
 6539 015f 49       		.byte	73
 6540 0160 45       		.byte	69
 6541 0161 43       		.byte	67
 6542 0162 00       		.byte	0
 6543 0163 00       		.byte	0
 6544 0164 7F       		.byte	127
 6545 0165 41       		.byte	65
 6546 0166 41       		.byte	65
 6547 0167 00       		.byte	0
 6548 0168 00       		.byte	0
 6549 0169 55       		.byte	85
 6550 016a 2A       		.byte	42
 6551 016b 55       		.byte	85
 6552 016c 2A       		.byte	42
 6553 016d 55       		.byte	85
 6554 016e 00       		.byte	0
 6555 016f 00       		.byte	0
 6556 0170 41       		.byte	65
 6557 0171 41       		.byte	65
 6558 0172 7F       		.byte	127
 6559 0173 00       		.byte	0
 6560 0174 00       		.byte	0
 6561 0175 04       		.byte	4
 6562 0176 02       		.byte	2
 6563 0177 01       		.byte	1
 6564 0178 02       		.byte	2
 6565 0179 04       		.byte	4
 6566 017a 00       		.byte	0
 6567 017b 40       		.byte	64
 6568 017c 40       		.byte	64
 6569 017d 40       		.byte	64
 6570 017e 40       		.byte	64
ARM GAS  /tmp/ccs3e2Sq.s 			page 117


 6571 017f 40       		.byte	64
 6572 0180 00       		.byte	0
 6573 0181 00       		.byte	0
 6574 0182 01       		.byte	1
 6575 0183 02       		.byte	2
 6576 0184 04       		.byte	4
 6577 0185 00       		.byte	0
 6578 0186 00       		.byte	0
 6579 0187 20       		.byte	32
 6580 0188 54       		.byte	84
 6581 0189 54       		.byte	84
 6582 018a 54       		.byte	84
 6583 018b 78       		.byte	120
 6584 018c 00       		.byte	0
 6585 018d 7F       		.byte	127
 6586 018e 48       		.byte	72
 6587 018f 44       		.byte	68
 6588 0190 44       		.byte	68
 6589 0191 38       		.byte	56
 6590 0192 00       		.byte	0
 6591 0193 38       		.byte	56
 6592 0194 44       		.byte	68
 6593 0195 44       		.byte	68
 6594 0196 44       		.byte	68
 6595 0197 20       		.byte	32
 6596 0198 00       		.byte	0
 6597 0199 38       		.byte	56
 6598 019a 44       		.byte	68
 6599 019b 44       		.byte	68
 6600 019c 48       		.byte	72
 6601 019d 7F       		.byte	127
 6602 019e 00       		.byte	0
 6603 019f 38       		.byte	56
 6604 01a0 54       		.byte	84
 6605 01a1 54       		.byte	84
 6606 01a2 54       		.byte	84
 6607 01a3 18       		.byte	24
 6608 01a4 00       		.byte	0
 6609 01a5 08       		.byte	8
 6610 01a6 7E       		.byte	126
 6611 01a7 09       		.byte	9
 6612 01a8 01       		.byte	1
 6613 01a9 02       		.byte	2
 6614 01aa 00       		.byte	0
 6615 01ab 18       		.byte	24
 6616 01ac A4       		.byte	-92
 6617 01ad A4       		.byte	-92
 6618 01ae A4       		.byte	-92
 6619 01af 7C       		.byte	124
 6620 01b0 00       		.byte	0
 6621 01b1 7F       		.byte	127
 6622 01b2 08       		.byte	8
 6623 01b3 04       		.byte	4
 6624 01b4 04       		.byte	4
 6625 01b5 78       		.byte	120
 6626 01b6 00       		.byte	0
 6627 01b7 00       		.byte	0
ARM GAS  /tmp/ccs3e2Sq.s 			page 118


 6628 01b8 44       		.byte	68
 6629 01b9 7D       		.byte	125
 6630 01ba 40       		.byte	64
 6631 01bb 00       		.byte	0
 6632 01bc 00       		.byte	0
 6633 01bd 40       		.byte	64
 6634 01be 80       		.byte	-128
 6635 01bf 84       		.byte	-124
 6636 01c0 7D       		.byte	125
 6637 01c1 00       		.byte	0
 6638 01c2 00       		.byte	0
 6639 01c3 7F       		.byte	127
 6640 01c4 10       		.byte	16
 6641 01c5 28       		.byte	40
 6642 01c6 44       		.byte	68
 6643 01c7 00       		.byte	0
 6644 01c8 00       		.byte	0
 6645 01c9 00       		.byte	0
 6646 01ca 41       		.byte	65
 6647 01cb 7F       		.byte	127
 6648 01cc 40       		.byte	64
 6649 01cd 00       		.byte	0
 6650 01ce 00       		.byte	0
 6651 01cf 7C       		.byte	124
 6652 01d0 04       		.byte	4
 6653 01d1 18       		.byte	24
 6654 01d2 04       		.byte	4
 6655 01d3 78       		.byte	120
 6656 01d4 00       		.byte	0
 6657 01d5 7C       		.byte	124
 6658 01d6 08       		.byte	8
 6659 01d7 04       		.byte	4
 6660 01d8 04       		.byte	4
 6661 01d9 78       		.byte	120
 6662 01da 00       		.byte	0
 6663 01db 38       		.byte	56
 6664 01dc 44       		.byte	68
 6665 01dd 44       		.byte	68
 6666 01de 44       		.byte	68
 6667 01df 38       		.byte	56
 6668 01e0 00       		.byte	0
 6669 01e1 FC       		.byte	-4
 6670 01e2 24       		.byte	36
 6671 01e3 24       		.byte	36
 6672 01e4 24       		.byte	36
 6673 01e5 18       		.byte	24
 6674 01e6 00       		.byte	0
 6675 01e7 18       		.byte	24
 6676 01e8 24       		.byte	36
 6677 01e9 24       		.byte	36
 6678 01ea 18       		.byte	24
 6679 01eb FC       		.byte	-4
 6680 01ec 00       		.byte	0
 6681 01ed 7C       		.byte	124
 6682 01ee 08       		.byte	8
 6683 01ef 04       		.byte	4
 6684 01f0 04       		.byte	4
ARM GAS  /tmp/ccs3e2Sq.s 			page 119


 6685 01f1 08       		.byte	8
 6686 01f2 00       		.byte	0
 6687 01f3 48       		.byte	72
 6688 01f4 54       		.byte	84
 6689 01f5 54       		.byte	84
 6690 01f6 54       		.byte	84
 6691 01f7 20       		.byte	32
 6692 01f8 00       		.byte	0
 6693 01f9 04       		.byte	4
 6694 01fa 3F       		.byte	63
 6695 01fb 44       		.byte	68
 6696 01fc 40       		.byte	64
 6697 01fd 20       		.byte	32
 6698 01fe 00       		.byte	0
 6699 01ff 3C       		.byte	60
 6700 0200 40       		.byte	64
 6701 0201 40       		.byte	64
 6702 0202 20       		.byte	32
 6703 0203 7C       		.byte	124
 6704 0204 00       		.byte	0
 6705 0205 1C       		.byte	28
 6706 0206 20       		.byte	32
 6707 0207 40       		.byte	64
 6708 0208 20       		.byte	32
 6709 0209 1C       		.byte	28
 6710 020a 00       		.byte	0
 6711 020b 3C       		.byte	60
 6712 020c 40       		.byte	64
 6713 020d 30       		.byte	48
 6714 020e 40       		.byte	64
 6715 020f 3C       		.byte	60
 6716 0210 00       		.byte	0
 6717 0211 44       		.byte	68
 6718 0212 28       		.byte	40
 6719 0213 10       		.byte	16
 6720 0214 28       		.byte	40
 6721 0215 44       		.byte	68
 6722 0216 00       		.byte	0
 6723 0217 1C       		.byte	28
 6724 0218 A0       		.byte	-96
 6725 0219 A0       		.byte	-96
 6726 021a A0       		.byte	-96
 6727 021b 7C       		.byte	124
 6728 021c 00       		.byte	0
 6729 021d 44       		.byte	68
 6730 021e 64       		.byte	100
 6731 021f 54       		.byte	84
 6732 0220 4C       		.byte	76
 6733 0221 44       		.byte	68
 6734 0222 14       		.byte	20
 6735 0223 14       		.byte	20
 6736 0224 14       		.byte	20
 6737 0225 14       		.byte	20
 6738 0226 14       		.byte	20
 6739 0227 14       		.byte	20
 6740              		.section	.rodata.F8X16,"a",%progbits
 6741              		.align	2
ARM GAS  /tmp/ccs3e2Sq.s 			page 120


 6742              		.set	.LANCHOR0,. + 0
 6743              		.type	F8X16, %object
 6744              		.size	F8X16, 1520
 6745              	F8X16:
 6746 0000 00       		.byte	0
 6747 0001 00       		.byte	0
 6748 0002 00       		.byte	0
 6749 0003 00       		.byte	0
 6750 0004 00       		.byte	0
 6751 0005 00       		.byte	0
 6752 0006 00       		.byte	0
 6753 0007 00       		.byte	0
 6754 0008 00       		.byte	0
 6755 0009 00       		.byte	0
 6756 000a 00       		.byte	0
 6757 000b 00       		.byte	0
 6758 000c 00       		.byte	0
 6759 000d 00       		.byte	0
 6760 000e 00       		.byte	0
 6761 000f 00       		.byte	0
 6762 0010 00       		.byte	0
 6763 0011 00       		.byte	0
 6764 0012 00       		.byte	0
 6765 0013 F8       		.byte	-8
 6766 0014 00       		.byte	0
 6767 0015 00       		.byte	0
 6768 0016 00       		.byte	0
 6769 0017 00       		.byte	0
 6770 0018 00       		.byte	0
 6771 0019 00       		.byte	0
 6772 001a 00       		.byte	0
 6773 001b 33       		.byte	51
 6774 001c 30       		.byte	48
 6775 001d 00       		.byte	0
 6776 001e 00       		.byte	0
 6777 001f 00       		.byte	0
 6778 0020 00       		.byte	0
 6779 0021 10       		.byte	16
 6780 0022 0C       		.byte	12
 6781 0023 06       		.byte	6
 6782 0024 10       		.byte	16
 6783 0025 0C       		.byte	12
 6784 0026 06       		.byte	6
 6785 0027 00       		.byte	0
 6786 0028 00       		.byte	0
 6787 0029 00       		.byte	0
 6788 002a 00       		.byte	0
 6789 002b 00       		.byte	0
 6790 002c 00       		.byte	0
 6791 002d 00       		.byte	0
 6792 002e 00       		.byte	0
 6793 002f 00       		.byte	0
 6794 0030 40       		.byte	64
 6795 0031 C0       		.byte	-64
 6796 0032 78       		.byte	120
 6797 0033 40       		.byte	64
 6798 0034 C0       		.byte	-64
ARM GAS  /tmp/ccs3e2Sq.s 			page 121


 6799 0035 78       		.byte	120
 6800 0036 40       		.byte	64
 6801 0037 00       		.byte	0
 6802 0038 04       		.byte	4
 6803 0039 3F       		.byte	63
 6804 003a 04       		.byte	4
 6805 003b 04       		.byte	4
 6806 003c 3F       		.byte	63
 6807 003d 04       		.byte	4
 6808 003e 04       		.byte	4
 6809 003f 00       		.byte	0
 6810 0040 00       		.byte	0
 6811 0041 70       		.byte	112
 6812 0042 88       		.byte	-120
 6813 0043 FC       		.byte	-4
 6814 0044 08       		.byte	8
 6815 0045 30       		.byte	48
 6816 0046 00       		.byte	0
 6817 0047 00       		.byte	0
 6818 0048 00       		.byte	0
 6819 0049 18       		.byte	24
 6820 004a 20       		.byte	32
 6821 004b FF       		.byte	-1
 6822 004c 21       		.byte	33
 6823 004d 1E       		.byte	30
 6824 004e 00       		.byte	0
 6825 004f 00       		.byte	0
 6826 0050 F0       		.byte	-16
 6827 0051 08       		.byte	8
 6828 0052 F0       		.byte	-16
 6829 0053 00       		.byte	0
 6830 0054 E0       		.byte	-32
 6831 0055 18       		.byte	24
 6832 0056 00       		.byte	0
 6833 0057 00       		.byte	0
 6834 0058 00       		.byte	0
 6835 0059 21       		.byte	33
 6836 005a 1C       		.byte	28
 6837 005b 03       		.byte	3
 6838 005c 1E       		.byte	30
 6839 005d 21       		.byte	33
 6840 005e 1E       		.byte	30
 6841 005f 00       		.byte	0
 6842 0060 00       		.byte	0
 6843 0061 F0       		.byte	-16
 6844 0062 08       		.byte	8
 6845 0063 88       		.byte	-120
 6846 0064 70       		.byte	112
 6847 0065 00       		.byte	0
 6848 0066 00       		.byte	0
 6849 0067 00       		.byte	0
 6850 0068 1E       		.byte	30
 6851 0069 21       		.byte	33
 6852 006a 23       		.byte	35
 6853 006b 24       		.byte	36
 6854 006c 19       		.byte	25
 6855 006d 27       		.byte	39
ARM GAS  /tmp/ccs3e2Sq.s 			page 122


 6856 006e 21       		.byte	33
 6857 006f 10       		.byte	16
 6858 0070 10       		.byte	16
 6859 0071 16       		.byte	22
 6860 0072 0E       		.byte	14
 6861 0073 00       		.byte	0
 6862 0074 00       		.byte	0
 6863 0075 00       		.byte	0
 6864 0076 00       		.byte	0
 6865 0077 00       		.byte	0
 6866 0078 00       		.byte	0
 6867 0079 00       		.byte	0
 6868 007a 00       		.byte	0
 6869 007b 00       		.byte	0
 6870 007c 00       		.byte	0
 6871 007d 00       		.byte	0
 6872 007e 00       		.byte	0
 6873 007f 00       		.byte	0
 6874 0080 00       		.byte	0
 6875 0081 00       		.byte	0
 6876 0082 00       		.byte	0
 6877 0083 E0       		.byte	-32
 6878 0084 18       		.byte	24
 6879 0085 04       		.byte	4
 6880 0086 02       		.byte	2
 6881 0087 00       		.byte	0
 6882 0088 00       		.byte	0
 6883 0089 00       		.byte	0
 6884 008a 00       		.byte	0
 6885 008b 07       		.byte	7
 6886 008c 18       		.byte	24
 6887 008d 20       		.byte	32
 6888 008e 40       		.byte	64
 6889 008f 00       		.byte	0
 6890 0090 00       		.byte	0
 6891 0091 02       		.byte	2
 6892 0092 04       		.byte	4
 6893 0093 18       		.byte	24
 6894 0094 E0       		.byte	-32
 6895 0095 00       		.byte	0
 6896 0096 00       		.byte	0
 6897 0097 00       		.byte	0
 6898 0098 00       		.byte	0
 6899 0099 40       		.byte	64
 6900 009a 20       		.byte	32
 6901 009b 18       		.byte	24
 6902 009c 07       		.byte	7
 6903 009d 00       		.byte	0
 6904 009e 00       		.byte	0
 6905 009f 00       		.byte	0
 6906 00a0 40       		.byte	64
 6907 00a1 40       		.byte	64
 6908 00a2 80       		.byte	-128
 6909 00a3 F0       		.byte	-16
 6910 00a4 80       		.byte	-128
 6911 00a5 40       		.byte	64
 6912 00a6 40       		.byte	64
ARM GAS  /tmp/ccs3e2Sq.s 			page 123


 6913 00a7 00       		.byte	0
 6914 00a8 02       		.byte	2
 6915 00a9 02       		.byte	2
 6916 00aa 01       		.byte	1
 6917 00ab 0F       		.byte	15
 6918 00ac 01       		.byte	1
 6919 00ad 02       		.byte	2
 6920 00ae 02       		.byte	2
 6921 00af 00       		.byte	0
 6922 00b0 00       		.byte	0
 6923 00b1 00       		.byte	0
 6924 00b2 00       		.byte	0
 6925 00b3 F0       		.byte	-16
 6926 00b4 00       		.byte	0
 6927 00b5 00       		.byte	0
 6928 00b6 00       		.byte	0
 6929 00b7 00       		.byte	0
 6930 00b8 01       		.byte	1
 6931 00b9 01       		.byte	1
 6932 00ba 01       		.byte	1
 6933 00bb 1F       		.byte	31
 6934 00bc 01       		.byte	1
 6935 00bd 01       		.byte	1
 6936 00be 01       		.byte	1
 6937 00bf 00       		.byte	0
 6938 00c0 00       		.byte	0
 6939 00c1 00       		.byte	0
 6940 00c2 00       		.byte	0
 6941 00c3 00       		.byte	0
 6942 00c4 00       		.byte	0
 6943 00c5 00       		.byte	0
 6944 00c6 00       		.byte	0
 6945 00c7 00       		.byte	0
 6946 00c8 80       		.byte	-128
 6947 00c9 B0       		.byte	-80
 6948 00ca 70       		.byte	112
 6949 00cb 00       		.byte	0
 6950 00cc 00       		.byte	0
 6951 00cd 00       		.byte	0
 6952 00ce 00       		.byte	0
 6953 00cf 00       		.byte	0
 6954 00d0 00       		.byte	0
 6955 00d1 00       		.byte	0
 6956 00d2 00       		.byte	0
 6957 00d3 00       		.byte	0
 6958 00d4 00       		.byte	0
 6959 00d5 00       		.byte	0
 6960 00d6 00       		.byte	0
 6961 00d7 00       		.byte	0
 6962 00d8 00       		.byte	0
 6963 00d9 01       		.byte	1
 6964 00da 01       		.byte	1
 6965 00db 01       		.byte	1
 6966 00dc 01       		.byte	1
 6967 00dd 01       		.byte	1
 6968 00de 01       		.byte	1
 6969 00df 01       		.byte	1
ARM GAS  /tmp/ccs3e2Sq.s 			page 124


 6970 00e0 00       		.byte	0
 6971 00e1 00       		.byte	0
 6972 00e2 00       		.byte	0
 6973 00e3 00       		.byte	0
 6974 00e4 00       		.byte	0
 6975 00e5 00       		.byte	0
 6976 00e6 00       		.byte	0
 6977 00e7 00       		.byte	0
 6978 00e8 00       		.byte	0
 6979 00e9 30       		.byte	48
 6980 00ea 30       		.byte	48
 6981 00eb 00       		.byte	0
 6982 00ec 00       		.byte	0
 6983 00ed 00       		.byte	0
 6984 00ee 00       		.byte	0
 6985 00ef 00       		.byte	0
 6986 00f0 00       		.byte	0
 6987 00f1 00       		.byte	0
 6988 00f2 00       		.byte	0
 6989 00f3 00       		.byte	0
 6990 00f4 80       		.byte	-128
 6991 00f5 60       		.byte	96
 6992 00f6 18       		.byte	24
 6993 00f7 04       		.byte	4
 6994 00f8 00       		.byte	0
 6995 00f9 60       		.byte	96
 6996 00fa 18       		.byte	24
 6997 00fb 06       		.byte	6
 6998 00fc 01       		.byte	1
 6999 00fd 00       		.byte	0
 7000 00fe 00       		.byte	0
 7001 00ff 00       		.byte	0
 7002 0100 00       		.byte	0
 7003 0101 E0       		.byte	-32
 7004 0102 10       		.byte	16
 7005 0103 08       		.byte	8
 7006 0104 08       		.byte	8
 7007 0105 10       		.byte	16
 7008 0106 E0       		.byte	-32
 7009 0107 00       		.byte	0
 7010 0108 00       		.byte	0
 7011 0109 0F       		.byte	15
 7012 010a 10       		.byte	16
 7013 010b 20       		.byte	32
 7014 010c 20       		.byte	32
 7015 010d 10       		.byte	16
 7016 010e 0F       		.byte	15
 7017 010f 00       		.byte	0
 7018 0110 00       		.byte	0
 7019 0111 10       		.byte	16
 7020 0112 10       		.byte	16
 7021 0113 F8       		.byte	-8
 7022 0114 00       		.byte	0
 7023 0115 00       		.byte	0
 7024 0116 00       		.byte	0
 7025 0117 00       		.byte	0
 7026 0118 00       		.byte	0
ARM GAS  /tmp/ccs3e2Sq.s 			page 125


 7027 0119 20       		.byte	32
 7028 011a 20       		.byte	32
 7029 011b 3F       		.byte	63
 7030 011c 20       		.byte	32
 7031 011d 20       		.byte	32
 7032 011e 00       		.byte	0
 7033 011f 00       		.byte	0
 7034 0120 00       		.byte	0
 7035 0121 70       		.byte	112
 7036 0122 08       		.byte	8
 7037 0123 08       		.byte	8
 7038 0124 08       		.byte	8
 7039 0125 88       		.byte	-120
 7040 0126 70       		.byte	112
 7041 0127 00       		.byte	0
 7042 0128 00       		.byte	0
 7043 0129 30       		.byte	48
 7044 012a 28       		.byte	40
 7045 012b 24       		.byte	36
 7046 012c 22       		.byte	34
 7047 012d 21       		.byte	33
 7048 012e 30       		.byte	48
 7049 012f 00       		.byte	0
 7050 0130 00       		.byte	0
 7051 0131 30       		.byte	48
 7052 0132 08       		.byte	8
 7053 0133 88       		.byte	-120
 7054 0134 88       		.byte	-120
 7055 0135 48       		.byte	72
 7056 0136 30       		.byte	48
 7057 0137 00       		.byte	0
 7058 0138 00       		.byte	0
 7059 0139 18       		.byte	24
 7060 013a 20       		.byte	32
 7061 013b 20       		.byte	32
 7062 013c 20       		.byte	32
 7063 013d 11       		.byte	17
 7064 013e 0E       		.byte	14
 7065 013f 00       		.byte	0
 7066 0140 00       		.byte	0
 7067 0141 00       		.byte	0
 7068 0142 C0       		.byte	-64
 7069 0143 20       		.byte	32
 7070 0144 10       		.byte	16
 7071 0145 F8       		.byte	-8
 7072 0146 00       		.byte	0
 7073 0147 00       		.byte	0
 7074 0148 00       		.byte	0
 7075 0149 07       		.byte	7
 7076 014a 04       		.byte	4
 7077 014b 24       		.byte	36
 7078 014c 24       		.byte	36
 7079 014d 3F       		.byte	63
 7080 014e 24       		.byte	36
 7081 014f 00       		.byte	0
 7082 0150 00       		.byte	0
 7083 0151 F8       		.byte	-8
ARM GAS  /tmp/ccs3e2Sq.s 			page 126


 7084 0152 08       		.byte	8
 7085 0153 88       		.byte	-120
 7086 0154 88       		.byte	-120
 7087 0155 08       		.byte	8
 7088 0156 08       		.byte	8
 7089 0157 00       		.byte	0
 7090 0158 00       		.byte	0
 7091 0159 19       		.byte	25
 7092 015a 21       		.byte	33
 7093 015b 20       		.byte	32
 7094 015c 20       		.byte	32
 7095 015d 11       		.byte	17
 7096 015e 0E       		.byte	14
 7097 015f 00       		.byte	0
 7098 0160 00       		.byte	0
 7099 0161 E0       		.byte	-32
 7100 0162 10       		.byte	16
 7101 0163 88       		.byte	-120
 7102 0164 88       		.byte	-120
 7103 0165 18       		.byte	24
 7104 0166 00       		.byte	0
 7105 0167 00       		.byte	0
 7106 0168 00       		.byte	0
 7107 0169 0F       		.byte	15
 7108 016a 11       		.byte	17
 7109 016b 20       		.byte	32
 7110 016c 20       		.byte	32
 7111 016d 11       		.byte	17
 7112 016e 0E       		.byte	14
 7113 016f 00       		.byte	0
 7114 0170 00       		.byte	0
 7115 0171 38       		.byte	56
 7116 0172 08       		.byte	8
 7117 0173 08       		.byte	8
 7118 0174 C8       		.byte	-56
 7119 0175 38       		.byte	56
 7120 0176 08       		.byte	8
 7121 0177 00       		.byte	0
 7122 0178 00       		.byte	0
 7123 0179 00       		.byte	0
 7124 017a 00       		.byte	0
 7125 017b 3F       		.byte	63
 7126 017c 00       		.byte	0
 7127 017d 00       		.byte	0
 7128 017e 00       		.byte	0
 7129 017f 00       		.byte	0
 7130 0180 00       		.byte	0
 7131 0181 70       		.byte	112
 7132 0182 88       		.byte	-120
 7133 0183 08       		.byte	8
 7134 0184 08       		.byte	8
 7135 0185 88       		.byte	-120
 7136 0186 70       		.byte	112
 7137 0187 00       		.byte	0
 7138 0188 00       		.byte	0
 7139 0189 1C       		.byte	28
 7140 018a 22       		.byte	34
ARM GAS  /tmp/ccs3e2Sq.s 			page 127


 7141 018b 21       		.byte	33
 7142 018c 21       		.byte	33
 7143 018d 22       		.byte	34
 7144 018e 1C       		.byte	28
 7145 018f 00       		.byte	0
 7146 0190 00       		.byte	0
 7147 0191 E0       		.byte	-32
 7148 0192 10       		.byte	16
 7149 0193 08       		.byte	8
 7150 0194 08       		.byte	8
 7151 0195 10       		.byte	16
 7152 0196 E0       		.byte	-32
 7153 0197 00       		.byte	0
 7154 0198 00       		.byte	0
 7155 0199 00       		.byte	0
 7156 019a 31       		.byte	49
 7157 019b 22       		.byte	34
 7158 019c 22       		.byte	34
 7159 019d 11       		.byte	17
 7160 019e 0F       		.byte	15
 7161 019f 00       		.byte	0
 7162 01a0 00       		.byte	0
 7163 01a1 00       		.byte	0
 7164 01a2 00       		.byte	0
 7165 01a3 C0       		.byte	-64
 7166 01a4 C0       		.byte	-64
 7167 01a5 00       		.byte	0
 7168 01a6 00       		.byte	0
 7169 01a7 00       		.byte	0
 7170 01a8 00       		.byte	0
 7171 01a9 00       		.byte	0
 7172 01aa 00       		.byte	0
 7173 01ab 30       		.byte	48
 7174 01ac 30       		.byte	48
 7175 01ad 00       		.byte	0
 7176 01ae 00       		.byte	0
 7177 01af 00       		.byte	0
 7178 01b0 00       		.byte	0
 7179 01b1 00       		.byte	0
 7180 01b2 00       		.byte	0
 7181 01b3 80       		.byte	-128
 7182 01b4 00       		.byte	0
 7183 01b5 00       		.byte	0
 7184 01b6 00       		.byte	0
 7185 01b7 00       		.byte	0
 7186 01b8 00       		.byte	0
 7187 01b9 00       		.byte	0
 7188 01ba 80       		.byte	-128
 7189 01bb 60       		.byte	96
 7190 01bc 00       		.byte	0
 7191 01bd 00       		.byte	0
 7192 01be 00       		.byte	0
 7193 01bf 00       		.byte	0
 7194 01c0 00       		.byte	0
 7195 01c1 00       		.byte	0
 7196 01c2 80       		.byte	-128
 7197 01c3 40       		.byte	64
ARM GAS  /tmp/ccs3e2Sq.s 			page 128


 7198 01c4 20       		.byte	32
 7199 01c5 10       		.byte	16
 7200 01c6 08       		.byte	8
 7201 01c7 00       		.byte	0
 7202 01c8 00       		.byte	0
 7203 01c9 01       		.byte	1
 7204 01ca 02       		.byte	2
 7205 01cb 04       		.byte	4
 7206 01cc 08       		.byte	8
 7207 01cd 10       		.byte	16
 7208 01ce 20       		.byte	32
 7209 01cf 00       		.byte	0
 7210 01d0 40       		.byte	64
 7211 01d1 40       		.byte	64
 7212 01d2 40       		.byte	64
 7213 01d3 40       		.byte	64
 7214 01d4 40       		.byte	64
 7215 01d5 40       		.byte	64
 7216 01d6 40       		.byte	64
 7217 01d7 00       		.byte	0
 7218 01d8 04       		.byte	4
 7219 01d9 04       		.byte	4
 7220 01da 04       		.byte	4
 7221 01db 04       		.byte	4
 7222 01dc 04       		.byte	4
 7223 01dd 04       		.byte	4
 7224 01de 04       		.byte	4
 7225 01df 00       		.byte	0
 7226 01e0 00       		.byte	0
 7227 01e1 08       		.byte	8
 7228 01e2 10       		.byte	16
 7229 01e3 20       		.byte	32
 7230 01e4 40       		.byte	64
 7231 01e5 80       		.byte	-128
 7232 01e6 00       		.byte	0
 7233 01e7 00       		.byte	0
 7234 01e8 00       		.byte	0
 7235 01e9 20       		.byte	32
 7236 01ea 10       		.byte	16
 7237 01eb 08       		.byte	8
 7238 01ec 04       		.byte	4
 7239 01ed 02       		.byte	2
 7240 01ee 01       		.byte	1
 7241 01ef 00       		.byte	0
 7242 01f0 00       		.byte	0
 7243 01f1 70       		.byte	112
 7244 01f2 48       		.byte	72
 7245 01f3 08       		.byte	8
 7246 01f4 08       		.byte	8
 7247 01f5 08       		.byte	8
 7248 01f6 F0       		.byte	-16
 7249 01f7 00       		.byte	0
 7250 01f8 00       		.byte	0
 7251 01f9 00       		.byte	0
 7252 01fa 00       		.byte	0
 7253 01fb 30       		.byte	48
 7254 01fc 36       		.byte	54
ARM GAS  /tmp/ccs3e2Sq.s 			page 129


 7255 01fd 01       		.byte	1
 7256 01fe 00       		.byte	0
 7257 01ff 00       		.byte	0
 7258 0200 C0       		.byte	-64
 7259 0201 30       		.byte	48
 7260 0202 C8       		.byte	-56
 7261 0203 28       		.byte	40
 7262 0204 E8       		.byte	-24
 7263 0205 10       		.byte	16
 7264 0206 E0       		.byte	-32
 7265 0207 00       		.byte	0
 7266 0208 07       		.byte	7
 7267 0209 18       		.byte	24
 7268 020a 27       		.byte	39
 7269 020b 24       		.byte	36
 7270 020c 23       		.byte	35
 7271 020d 14       		.byte	20
 7272 020e 0B       		.byte	11
 7273 020f 00       		.byte	0
 7274 0210 00       		.byte	0
 7275 0211 00       		.byte	0
 7276 0212 C0       		.byte	-64
 7277 0213 38       		.byte	56
 7278 0214 E0       		.byte	-32
 7279 0215 00       		.byte	0
 7280 0216 00       		.byte	0
 7281 0217 00       		.byte	0
 7282 0218 20       		.byte	32
 7283 0219 3C       		.byte	60
 7284 021a 23       		.byte	35
 7285 021b 02       		.byte	2
 7286 021c 02       		.byte	2
 7287 021d 27       		.byte	39
 7288 021e 38       		.byte	56
 7289 021f 20       		.byte	32
 7290 0220 08       		.byte	8
 7291 0221 F8       		.byte	-8
 7292 0222 88       		.byte	-120
 7293 0223 88       		.byte	-120
 7294 0224 88       		.byte	-120
 7295 0225 70       		.byte	112
 7296 0226 00       		.byte	0
 7297 0227 00       		.byte	0
 7298 0228 20       		.byte	32
 7299 0229 3F       		.byte	63
 7300 022a 20       		.byte	32
 7301 022b 20       		.byte	32
 7302 022c 20       		.byte	32
 7303 022d 11       		.byte	17
 7304 022e 0E       		.byte	14
 7305 022f 00       		.byte	0
 7306 0230 C0       		.byte	-64
 7307 0231 30       		.byte	48
 7308 0232 08       		.byte	8
 7309 0233 08       		.byte	8
 7310 0234 08       		.byte	8
 7311 0235 08       		.byte	8
ARM GAS  /tmp/ccs3e2Sq.s 			page 130


 7312 0236 38       		.byte	56
 7313 0237 00       		.byte	0
 7314 0238 07       		.byte	7
 7315 0239 18       		.byte	24
 7316 023a 20       		.byte	32
 7317 023b 20       		.byte	32
 7318 023c 20       		.byte	32
 7319 023d 10       		.byte	16
 7320 023e 08       		.byte	8
 7321 023f 00       		.byte	0
 7322 0240 08       		.byte	8
 7323 0241 F8       		.byte	-8
 7324 0242 08       		.byte	8
 7325 0243 08       		.byte	8
 7326 0244 08       		.byte	8
 7327 0245 10       		.byte	16
 7328 0246 E0       		.byte	-32
 7329 0247 00       		.byte	0
 7330 0248 20       		.byte	32
 7331 0249 3F       		.byte	63
 7332 024a 20       		.byte	32
 7333 024b 20       		.byte	32
 7334 024c 20       		.byte	32
 7335 024d 10       		.byte	16
 7336 024e 0F       		.byte	15
 7337 024f 00       		.byte	0
 7338 0250 08       		.byte	8
 7339 0251 F8       		.byte	-8
 7340 0252 88       		.byte	-120
 7341 0253 88       		.byte	-120
 7342 0254 E8       		.byte	-24
 7343 0255 08       		.byte	8
 7344 0256 10       		.byte	16
 7345 0257 00       		.byte	0
 7346 0258 20       		.byte	32
 7347 0259 3F       		.byte	63
 7348 025a 20       		.byte	32
 7349 025b 20       		.byte	32
 7350 025c 23       		.byte	35
 7351 025d 20       		.byte	32
 7352 025e 18       		.byte	24
 7353 025f 00       		.byte	0
 7354 0260 08       		.byte	8
 7355 0261 F8       		.byte	-8
 7356 0262 88       		.byte	-120
 7357 0263 88       		.byte	-120
 7358 0264 E8       		.byte	-24
 7359 0265 08       		.byte	8
 7360 0266 10       		.byte	16
 7361 0267 00       		.byte	0
 7362 0268 20       		.byte	32
 7363 0269 3F       		.byte	63
 7364 026a 20       		.byte	32
 7365 026b 00       		.byte	0
 7366 026c 03       		.byte	3
 7367 026d 00       		.byte	0
 7368 026e 00       		.byte	0
ARM GAS  /tmp/ccs3e2Sq.s 			page 131


 7369 026f 00       		.byte	0
 7370 0270 C0       		.byte	-64
 7371 0271 30       		.byte	48
 7372 0272 08       		.byte	8
 7373 0273 08       		.byte	8
 7374 0274 08       		.byte	8
 7375 0275 38       		.byte	56
 7376 0276 00       		.byte	0
 7377 0277 00       		.byte	0
 7378 0278 07       		.byte	7
 7379 0279 18       		.byte	24
 7380 027a 20       		.byte	32
 7381 027b 20       		.byte	32
 7382 027c 22       		.byte	34
 7383 027d 1E       		.byte	30
 7384 027e 02       		.byte	2
 7385 027f 00       		.byte	0
 7386 0280 08       		.byte	8
 7387 0281 F8       		.byte	-8
 7388 0282 08       		.byte	8
 7389 0283 00       		.byte	0
 7390 0284 00       		.byte	0
 7391 0285 08       		.byte	8
 7392 0286 F8       		.byte	-8
 7393 0287 08       		.byte	8
 7394 0288 20       		.byte	32
 7395 0289 3F       		.byte	63
 7396 028a 21       		.byte	33
 7397 028b 01       		.byte	1
 7398 028c 01       		.byte	1
 7399 028d 21       		.byte	33
 7400 028e 3F       		.byte	63
 7401 028f 20       		.byte	32
 7402 0290 00       		.byte	0
 7403 0291 08       		.byte	8
 7404 0292 08       		.byte	8
 7405 0293 F8       		.byte	-8
 7406 0294 08       		.byte	8
 7407 0295 08       		.byte	8
 7408 0296 00       		.byte	0
 7409 0297 00       		.byte	0
 7410 0298 00       		.byte	0
 7411 0299 20       		.byte	32
 7412 029a 20       		.byte	32
 7413 029b 3F       		.byte	63
 7414 029c 20       		.byte	32
 7415 029d 20       		.byte	32
 7416 029e 00       		.byte	0
 7417 029f 00       		.byte	0
 7418 02a0 00       		.byte	0
 7419 02a1 00       		.byte	0
 7420 02a2 08       		.byte	8
 7421 02a3 08       		.byte	8
 7422 02a4 F8       		.byte	-8
 7423 02a5 08       		.byte	8
 7424 02a6 08       		.byte	8
 7425 02a7 00       		.byte	0
ARM GAS  /tmp/ccs3e2Sq.s 			page 132


 7426 02a8 C0       		.byte	-64
 7427 02a9 80       		.byte	-128
 7428 02aa 80       		.byte	-128
 7429 02ab 80       		.byte	-128
 7430 02ac 7F       		.byte	127
 7431 02ad 00       		.byte	0
 7432 02ae 00       		.byte	0
 7433 02af 00       		.byte	0
 7434 02b0 08       		.byte	8
 7435 02b1 F8       		.byte	-8
 7436 02b2 88       		.byte	-120
 7437 02b3 C0       		.byte	-64
 7438 02b4 28       		.byte	40
 7439 02b5 18       		.byte	24
 7440 02b6 08       		.byte	8
 7441 02b7 00       		.byte	0
 7442 02b8 20       		.byte	32
 7443 02b9 3F       		.byte	63
 7444 02ba 20       		.byte	32
 7445 02bb 01       		.byte	1
 7446 02bc 26       		.byte	38
 7447 02bd 38       		.byte	56
 7448 02be 20       		.byte	32
 7449 02bf 00       		.byte	0
 7450 02c0 08       		.byte	8
 7451 02c1 F8       		.byte	-8
 7452 02c2 08       		.byte	8
 7453 02c3 00       		.byte	0
 7454 02c4 00       		.byte	0
 7455 02c5 00       		.byte	0
 7456 02c6 00       		.byte	0
 7457 02c7 00       		.byte	0
 7458 02c8 20       		.byte	32
 7459 02c9 3F       		.byte	63
 7460 02ca 20       		.byte	32
 7461 02cb 20       		.byte	32
 7462 02cc 20       		.byte	32
 7463 02cd 20       		.byte	32
 7464 02ce 30       		.byte	48
 7465 02cf 00       		.byte	0
 7466 02d0 08       		.byte	8
 7467 02d1 F8       		.byte	-8
 7468 02d2 F8       		.byte	-8
 7469 02d3 00       		.byte	0
 7470 02d4 F8       		.byte	-8
 7471 02d5 F8       		.byte	-8
 7472 02d6 08       		.byte	8
 7473 02d7 00       		.byte	0
 7474 02d8 20       		.byte	32
 7475 02d9 3F       		.byte	63
 7476 02da 00       		.byte	0
 7477 02db 3F       		.byte	63
 7478 02dc 00       		.byte	0
 7479 02dd 3F       		.byte	63
 7480 02de 20       		.byte	32
 7481 02df 00       		.byte	0
 7482 02e0 08       		.byte	8
ARM GAS  /tmp/ccs3e2Sq.s 			page 133


 7483 02e1 F8       		.byte	-8
 7484 02e2 30       		.byte	48
 7485 02e3 C0       		.byte	-64
 7486 02e4 00       		.byte	0
 7487 02e5 08       		.byte	8
 7488 02e6 F8       		.byte	-8
 7489 02e7 08       		.byte	8
 7490 02e8 20       		.byte	32
 7491 02e9 3F       		.byte	63
 7492 02ea 20       		.byte	32
 7493 02eb 00       		.byte	0
 7494 02ec 07       		.byte	7
 7495 02ed 18       		.byte	24
 7496 02ee 3F       		.byte	63
 7497 02ef 00       		.byte	0
 7498 02f0 E0       		.byte	-32
 7499 02f1 10       		.byte	16
 7500 02f2 08       		.byte	8
 7501 02f3 08       		.byte	8
 7502 02f4 08       		.byte	8
 7503 02f5 10       		.byte	16
 7504 02f6 E0       		.byte	-32
 7505 02f7 00       		.byte	0
 7506 02f8 0F       		.byte	15
 7507 02f9 10       		.byte	16
 7508 02fa 20       		.byte	32
 7509 02fb 20       		.byte	32
 7510 02fc 20       		.byte	32
 7511 02fd 10       		.byte	16
 7512 02fe 0F       		.byte	15
 7513 02ff 00       		.byte	0
 7514 0300 08       		.byte	8
 7515 0301 F8       		.byte	-8
 7516 0302 08       		.byte	8
 7517 0303 08       		.byte	8
 7518 0304 08       		.byte	8
 7519 0305 08       		.byte	8
 7520 0306 F0       		.byte	-16
 7521 0307 00       		.byte	0
 7522 0308 20       		.byte	32
 7523 0309 3F       		.byte	63
 7524 030a 21       		.byte	33
 7525 030b 01       		.byte	1
 7526 030c 01       		.byte	1
 7527 030d 01       		.byte	1
 7528 030e 00       		.byte	0
 7529 030f 00       		.byte	0
 7530 0310 E0       		.byte	-32
 7531 0311 10       		.byte	16
 7532 0312 08       		.byte	8
 7533 0313 08       		.byte	8
 7534 0314 08       		.byte	8
 7535 0315 10       		.byte	16
 7536 0316 E0       		.byte	-32
 7537 0317 00       		.byte	0
 7538 0318 0F       		.byte	15
 7539 0319 18       		.byte	24
ARM GAS  /tmp/ccs3e2Sq.s 			page 134


 7540 031a 24       		.byte	36
 7541 031b 24       		.byte	36
 7542 031c 38       		.byte	56
 7543 031d 50       		.byte	80
 7544 031e 4F       		.byte	79
 7545 031f 00       		.byte	0
 7546 0320 08       		.byte	8
 7547 0321 F8       		.byte	-8
 7548 0322 88       		.byte	-120
 7549 0323 88       		.byte	-120
 7550 0324 88       		.byte	-120
 7551 0325 88       		.byte	-120
 7552 0326 70       		.byte	112
 7553 0327 00       		.byte	0
 7554 0328 20       		.byte	32
 7555 0329 3F       		.byte	63
 7556 032a 20       		.byte	32
 7557 032b 00       		.byte	0
 7558 032c 03       		.byte	3
 7559 032d 0C       		.byte	12
 7560 032e 30       		.byte	48
 7561 032f 20       		.byte	32
 7562 0330 00       		.byte	0
 7563 0331 70       		.byte	112
 7564 0332 88       		.byte	-120
 7565 0333 08       		.byte	8
 7566 0334 08       		.byte	8
 7567 0335 08       		.byte	8
 7568 0336 38       		.byte	56
 7569 0337 00       		.byte	0
 7570 0338 00       		.byte	0
 7571 0339 38       		.byte	56
 7572 033a 20       		.byte	32
 7573 033b 21       		.byte	33
 7574 033c 21       		.byte	33
 7575 033d 22       		.byte	34
 7576 033e 1C       		.byte	28
 7577 033f 00       		.byte	0
 7578 0340 18       		.byte	24
 7579 0341 08       		.byte	8
 7580 0342 08       		.byte	8
 7581 0343 F8       		.byte	-8
 7582 0344 08       		.byte	8
 7583 0345 08       		.byte	8
 7584 0346 18       		.byte	24
 7585 0347 00       		.byte	0
 7586 0348 00       		.byte	0
 7587 0349 00       		.byte	0
 7588 034a 20       		.byte	32
 7589 034b 3F       		.byte	63
 7590 034c 20       		.byte	32
 7591 034d 00       		.byte	0
 7592 034e 00       		.byte	0
 7593 034f 00       		.byte	0
 7594 0350 08       		.byte	8
 7595 0351 F8       		.byte	-8
 7596 0352 08       		.byte	8
ARM GAS  /tmp/ccs3e2Sq.s 			page 135


 7597 0353 00       		.byte	0
 7598 0354 00       		.byte	0
 7599 0355 08       		.byte	8
 7600 0356 F8       		.byte	-8
 7601 0357 08       		.byte	8
 7602 0358 00       		.byte	0
 7603 0359 1F       		.byte	31
 7604 035a 20       		.byte	32
 7605 035b 20       		.byte	32
 7606 035c 20       		.byte	32
 7607 035d 20       		.byte	32
 7608 035e 1F       		.byte	31
 7609 035f 00       		.byte	0
 7610 0360 08       		.byte	8
 7611 0361 78       		.byte	120
 7612 0362 88       		.byte	-120
 7613 0363 00       		.byte	0
 7614 0364 00       		.byte	0
 7615 0365 C8       		.byte	-56
 7616 0366 38       		.byte	56
 7617 0367 08       		.byte	8
 7618 0368 00       		.byte	0
 7619 0369 00       		.byte	0
 7620 036a 07       		.byte	7
 7621 036b 38       		.byte	56
 7622 036c 0E       		.byte	14
 7623 036d 01       		.byte	1
 7624 036e 00       		.byte	0
 7625 036f 00       		.byte	0
 7626 0370 F8       		.byte	-8
 7627 0371 08       		.byte	8
 7628 0372 00       		.byte	0
 7629 0373 F8       		.byte	-8
 7630 0374 00       		.byte	0
 7631 0375 08       		.byte	8
 7632 0376 F8       		.byte	-8
 7633 0377 00       		.byte	0
 7634 0378 03       		.byte	3
 7635 0379 3C       		.byte	60
 7636 037a 07       		.byte	7
 7637 037b 00       		.byte	0
 7638 037c 07       		.byte	7
 7639 037d 3C       		.byte	60
 7640 037e 03       		.byte	3
 7641 037f 00       		.byte	0
 7642 0380 08       		.byte	8
 7643 0381 18       		.byte	24
 7644 0382 68       		.byte	104
 7645 0383 80       		.byte	-128
 7646 0384 80       		.byte	-128
 7647 0385 68       		.byte	104
 7648 0386 18       		.byte	24
 7649 0387 08       		.byte	8
 7650 0388 20       		.byte	32
 7651 0389 30       		.byte	48
 7652 038a 2C       		.byte	44
 7653 038b 03       		.byte	3
ARM GAS  /tmp/ccs3e2Sq.s 			page 136


 7654 038c 03       		.byte	3
 7655 038d 2C       		.byte	44
 7656 038e 30       		.byte	48
 7657 038f 20       		.byte	32
 7658 0390 08       		.byte	8
 7659 0391 38       		.byte	56
 7660 0392 C8       		.byte	-56
 7661 0393 00       		.byte	0
 7662 0394 C8       		.byte	-56
 7663 0395 38       		.byte	56
 7664 0396 08       		.byte	8
 7665 0397 00       		.byte	0
 7666 0398 00       		.byte	0
 7667 0399 00       		.byte	0
 7668 039a 20       		.byte	32
 7669 039b 3F       		.byte	63
 7670 039c 20       		.byte	32
 7671 039d 00       		.byte	0
 7672 039e 00       		.byte	0
 7673 039f 00       		.byte	0
 7674 03a0 10       		.byte	16
 7675 03a1 08       		.byte	8
 7676 03a2 08       		.byte	8
 7677 03a3 08       		.byte	8
 7678 03a4 C8       		.byte	-56
 7679 03a5 38       		.byte	56
 7680 03a6 08       		.byte	8
 7681 03a7 00       		.byte	0
 7682 03a8 20       		.byte	32
 7683 03a9 38       		.byte	56
 7684 03aa 26       		.byte	38
 7685 03ab 21       		.byte	33
 7686 03ac 20       		.byte	32
 7687 03ad 20       		.byte	32
 7688 03ae 18       		.byte	24
 7689 03af 00       		.byte	0
 7690 03b0 00       		.byte	0
 7691 03b1 00       		.byte	0
 7692 03b2 00       		.byte	0
 7693 03b3 FE       		.byte	-2
 7694 03b4 02       		.byte	2
 7695 03b5 02       		.byte	2
 7696 03b6 02       		.byte	2
 7697 03b7 00       		.byte	0
 7698 03b8 00       		.byte	0
 7699 03b9 00       		.byte	0
 7700 03ba 00       		.byte	0
 7701 03bb 7F       		.byte	127
 7702 03bc 40       		.byte	64
 7703 03bd 40       		.byte	64
 7704 03be 40       		.byte	64
 7705 03bf 00       		.byte	0
 7706 03c0 00       		.byte	0
 7707 03c1 0C       		.byte	12
 7708 03c2 30       		.byte	48
 7709 03c3 C0       		.byte	-64
 7710 03c4 00       		.byte	0
ARM GAS  /tmp/ccs3e2Sq.s 			page 137


 7711 03c5 00       		.byte	0
 7712 03c6 00       		.byte	0
 7713 03c7 00       		.byte	0
 7714 03c8 00       		.byte	0
 7715 03c9 00       		.byte	0
 7716 03ca 00       		.byte	0
 7717 03cb 01       		.byte	1
 7718 03cc 06       		.byte	6
 7719 03cd 38       		.byte	56
 7720 03ce C0       		.byte	-64
 7721 03cf 00       		.byte	0
 7722 03d0 00       		.byte	0
 7723 03d1 02       		.byte	2
 7724 03d2 02       		.byte	2
 7725 03d3 02       		.byte	2
 7726 03d4 FE       		.byte	-2
 7727 03d5 00       		.byte	0
 7728 03d6 00       		.byte	0
 7729 03d7 00       		.byte	0
 7730 03d8 00       		.byte	0
 7731 03d9 40       		.byte	64
 7732 03da 40       		.byte	64
 7733 03db 40       		.byte	64
 7734 03dc 7F       		.byte	127
 7735 03dd 00       		.byte	0
 7736 03de 00       		.byte	0
 7737 03df 00       		.byte	0
 7738 03e0 00       		.byte	0
 7739 03e1 00       		.byte	0
 7740 03e2 04       		.byte	4
 7741 03e3 02       		.byte	2
 7742 03e4 02       		.byte	2
 7743 03e5 02       		.byte	2
 7744 03e6 04       		.byte	4
 7745 03e7 00       		.byte	0
 7746 03e8 00       		.byte	0
 7747 03e9 00       		.byte	0
 7748 03ea 00       		.byte	0
 7749 03eb 00       		.byte	0
 7750 03ec 00       		.byte	0
 7751 03ed 00       		.byte	0
 7752 03ee 00       		.byte	0
 7753 03ef 00       		.byte	0
 7754 03f0 00       		.byte	0
 7755 03f1 00       		.byte	0
 7756 03f2 00       		.byte	0
 7757 03f3 00       		.byte	0
 7758 03f4 00       		.byte	0
 7759 03f5 00       		.byte	0
 7760 03f6 00       		.byte	0
 7761 03f7 00       		.byte	0
 7762 03f8 80       		.byte	-128
 7763 03f9 80       		.byte	-128
 7764 03fa 80       		.byte	-128
 7765 03fb 80       		.byte	-128
 7766 03fc 80       		.byte	-128
 7767 03fd 80       		.byte	-128
ARM GAS  /tmp/ccs3e2Sq.s 			page 138


 7768 03fe 80       		.byte	-128
 7769 03ff 80       		.byte	-128
 7770 0400 00       		.byte	0
 7771 0401 02       		.byte	2
 7772 0402 02       		.byte	2
 7773 0403 04       		.byte	4
 7774 0404 00       		.byte	0
 7775 0405 00       		.byte	0
 7776 0406 00       		.byte	0
 7777 0407 00       		.byte	0
 7778 0408 00       		.byte	0
 7779 0409 00       		.byte	0
 7780 040a 00       		.byte	0
 7781 040b 00       		.byte	0
 7782 040c 00       		.byte	0
 7783 040d 00       		.byte	0
 7784 040e 00       		.byte	0
 7785 040f 00       		.byte	0
 7786 0410 00       		.byte	0
 7787 0411 00       		.byte	0
 7788 0412 80       		.byte	-128
 7789 0413 80       		.byte	-128
 7790 0414 80       		.byte	-128
 7791 0415 80       		.byte	-128
 7792 0416 00       		.byte	0
 7793 0417 00       		.byte	0
 7794 0418 00       		.byte	0
 7795 0419 19       		.byte	25
 7796 041a 24       		.byte	36
 7797 041b 22       		.byte	34
 7798 041c 22       		.byte	34
 7799 041d 22       		.byte	34
 7800 041e 3F       		.byte	63
 7801 041f 20       		.byte	32
 7802 0420 08       		.byte	8
 7803 0421 F8       		.byte	-8
 7804 0422 00       		.byte	0
 7805 0423 80       		.byte	-128
 7806 0424 80       		.byte	-128
 7807 0425 00       		.byte	0
 7808 0426 00       		.byte	0
 7809 0427 00       		.byte	0
 7810 0428 00       		.byte	0
 7811 0429 3F       		.byte	63
 7812 042a 11       		.byte	17
 7813 042b 20       		.byte	32
 7814 042c 20       		.byte	32
 7815 042d 11       		.byte	17
 7816 042e 0E       		.byte	14
 7817 042f 00       		.byte	0
 7818 0430 00       		.byte	0
 7819 0431 00       		.byte	0
 7820 0432 00       		.byte	0
 7821 0433 80       		.byte	-128
 7822 0434 80       		.byte	-128
 7823 0435 80       		.byte	-128
 7824 0436 00       		.byte	0
ARM GAS  /tmp/ccs3e2Sq.s 			page 139


 7825 0437 00       		.byte	0
 7826 0438 00       		.byte	0
 7827 0439 0E       		.byte	14
 7828 043a 11       		.byte	17
 7829 043b 20       		.byte	32
 7830 043c 20       		.byte	32
 7831 043d 20       		.byte	32
 7832 043e 11       		.byte	17
 7833 043f 00       		.byte	0
 7834 0440 00       		.byte	0
 7835 0441 00       		.byte	0
 7836 0442 00       		.byte	0
 7837 0443 80       		.byte	-128
 7838 0444 80       		.byte	-128
 7839 0445 88       		.byte	-120
 7840 0446 F8       		.byte	-8
 7841 0447 00       		.byte	0
 7842 0448 00       		.byte	0
 7843 0449 0E       		.byte	14
 7844 044a 11       		.byte	17
 7845 044b 20       		.byte	32
 7846 044c 20       		.byte	32
 7847 044d 10       		.byte	16
 7848 044e 3F       		.byte	63
 7849 044f 20       		.byte	32
 7850 0450 00       		.byte	0
 7851 0451 00       		.byte	0
 7852 0452 80       		.byte	-128
 7853 0453 80       		.byte	-128
 7854 0454 80       		.byte	-128
 7855 0455 80       		.byte	-128
 7856 0456 00       		.byte	0
 7857 0457 00       		.byte	0
 7858 0458 00       		.byte	0
 7859 0459 1F       		.byte	31
 7860 045a 22       		.byte	34
 7861 045b 22       		.byte	34
 7862 045c 22       		.byte	34
 7863 045d 22       		.byte	34
 7864 045e 13       		.byte	19
 7865 045f 00       		.byte	0
 7866 0460 00       		.byte	0
 7867 0461 80       		.byte	-128
 7868 0462 80       		.byte	-128
 7869 0463 F0       		.byte	-16
 7870 0464 88       		.byte	-120
 7871 0465 88       		.byte	-120
 7872 0466 88       		.byte	-120
 7873 0467 18       		.byte	24
 7874 0468 00       		.byte	0
 7875 0469 20       		.byte	32
 7876 046a 20       		.byte	32
 7877 046b 3F       		.byte	63
 7878 046c 20       		.byte	32
 7879 046d 20       		.byte	32
 7880 046e 00       		.byte	0
 7881 046f 00       		.byte	0
ARM GAS  /tmp/ccs3e2Sq.s 			page 140


 7882 0470 00       		.byte	0
 7883 0471 00       		.byte	0
 7884 0472 80       		.byte	-128
 7885 0473 80       		.byte	-128
 7886 0474 80       		.byte	-128
 7887 0475 80       		.byte	-128
 7888 0476 80       		.byte	-128
 7889 0477 00       		.byte	0
 7890 0478 00       		.byte	0
 7891 0479 6B       		.byte	107
 7892 047a 94       		.byte	-108
 7893 047b 94       		.byte	-108
 7894 047c 94       		.byte	-108
 7895 047d 93       		.byte	-109
 7896 047e 60       		.byte	96
 7897 047f 00       		.byte	0
 7898 0480 08       		.byte	8
 7899 0481 F8       		.byte	-8
 7900 0482 00       		.byte	0
 7901 0483 80       		.byte	-128
 7902 0484 80       		.byte	-128
 7903 0485 80       		.byte	-128
 7904 0486 00       		.byte	0
 7905 0487 00       		.byte	0
 7906 0488 20       		.byte	32
 7907 0489 3F       		.byte	63
 7908 048a 21       		.byte	33
 7909 048b 00       		.byte	0
 7910 048c 00       		.byte	0
 7911 048d 20       		.byte	32
 7912 048e 3F       		.byte	63
 7913 048f 20       		.byte	32
 7914 0490 00       		.byte	0
 7915 0491 80       		.byte	-128
 7916 0492 98       		.byte	-104
 7917 0493 98       		.byte	-104
 7918 0494 00       		.byte	0
 7919 0495 00       		.byte	0
 7920 0496 00       		.byte	0
 7921 0497 00       		.byte	0
 7922 0498 00       		.byte	0
 7923 0499 20       		.byte	32
 7924 049a 20       		.byte	32
 7925 049b 3F       		.byte	63
 7926 049c 20       		.byte	32
 7927 049d 20       		.byte	32
 7928 049e 00       		.byte	0
 7929 049f 00       		.byte	0
 7930 04a0 00       		.byte	0
 7931 04a1 00       		.byte	0
 7932 04a2 00       		.byte	0
 7933 04a3 80       		.byte	-128
 7934 04a4 98       		.byte	-104
 7935 04a5 98       		.byte	-104
 7936 04a6 00       		.byte	0
 7937 04a7 00       		.byte	0
 7938 04a8 00       		.byte	0
ARM GAS  /tmp/ccs3e2Sq.s 			page 141


 7939 04a9 C0       		.byte	-64
 7940 04aa 80       		.byte	-128
 7941 04ab 80       		.byte	-128
 7942 04ac 80       		.byte	-128
 7943 04ad 7F       		.byte	127
 7944 04ae 00       		.byte	0
 7945 04af 00       		.byte	0
 7946 04b0 08       		.byte	8
 7947 04b1 F8       		.byte	-8
 7948 04b2 00       		.byte	0
 7949 04b3 00       		.byte	0
 7950 04b4 80       		.byte	-128
 7951 04b5 80       		.byte	-128
 7952 04b6 80       		.byte	-128
 7953 04b7 00       		.byte	0
 7954 04b8 20       		.byte	32
 7955 04b9 3F       		.byte	63
 7956 04ba 24       		.byte	36
 7957 04bb 02       		.byte	2
 7958 04bc 2D       		.byte	45
 7959 04bd 30       		.byte	48
 7960 04be 20       		.byte	32
 7961 04bf 00       		.byte	0
 7962 04c0 00       		.byte	0
 7963 04c1 08       		.byte	8
 7964 04c2 08       		.byte	8
 7965 04c3 F8       		.byte	-8
 7966 04c4 00       		.byte	0
 7967 04c5 00       		.byte	0
 7968 04c6 00       		.byte	0
 7969 04c7 00       		.byte	0
 7970 04c8 00       		.byte	0
 7971 04c9 20       		.byte	32
 7972 04ca 20       		.byte	32
 7973 04cb 3F       		.byte	63
 7974 04cc 20       		.byte	32
 7975 04cd 20       		.byte	32
 7976 04ce 00       		.byte	0
 7977 04cf 00       		.byte	0
 7978 04d0 80       		.byte	-128
 7979 04d1 80       		.byte	-128
 7980 04d2 80       		.byte	-128
 7981 04d3 80       		.byte	-128
 7982 04d4 80       		.byte	-128
 7983 04d5 80       		.byte	-128
 7984 04d6 80       		.byte	-128
 7985 04d7 00       		.byte	0
 7986 04d8 20       		.byte	32
 7987 04d9 3F       		.byte	63
 7988 04da 20       		.byte	32
 7989 04db 00       		.byte	0
 7990 04dc 3F       		.byte	63
 7991 04dd 20       		.byte	32
 7992 04de 00       		.byte	0
 7993 04df 3F       		.byte	63
 7994 04e0 80       		.byte	-128
 7995 04e1 80       		.byte	-128
ARM GAS  /tmp/ccs3e2Sq.s 			page 142


 7996 04e2 00       		.byte	0
 7997 04e3 80       		.byte	-128
 7998 04e4 80       		.byte	-128
 7999 04e5 80       		.byte	-128
 8000 04e6 00       		.byte	0
 8001 04e7 00       		.byte	0
 8002 04e8 20       		.byte	32
 8003 04e9 3F       		.byte	63
 8004 04ea 21       		.byte	33
 8005 04eb 00       		.byte	0
 8006 04ec 00       		.byte	0
 8007 04ed 20       		.byte	32
 8008 04ee 3F       		.byte	63
 8009 04ef 20       		.byte	32
 8010 04f0 00       		.byte	0
 8011 04f1 00       		.byte	0
 8012 04f2 80       		.byte	-128
 8013 04f3 80       		.byte	-128
 8014 04f4 80       		.byte	-128
 8015 04f5 80       		.byte	-128
 8016 04f6 00       		.byte	0
 8017 04f7 00       		.byte	0
 8018 04f8 00       		.byte	0
 8019 04f9 1F       		.byte	31
 8020 04fa 20       		.byte	32
 8021 04fb 20       		.byte	32
 8022 04fc 20       		.byte	32
 8023 04fd 20       		.byte	32
 8024 04fe 1F       		.byte	31
 8025 04ff 00       		.byte	0
 8026 0500 80       		.byte	-128
 8027 0501 80       		.byte	-128
 8028 0502 00       		.byte	0
 8029 0503 80       		.byte	-128
 8030 0504 80       		.byte	-128
 8031 0505 00       		.byte	0
 8032 0506 00       		.byte	0
 8033 0507 00       		.byte	0
 8034 0508 80       		.byte	-128
 8035 0509 FF       		.byte	-1
 8036 050a A1       		.byte	-95
 8037 050b 20       		.byte	32
 8038 050c 20       		.byte	32
 8039 050d 11       		.byte	17
 8040 050e 0E       		.byte	14
 8041 050f 00       		.byte	0
 8042 0510 00       		.byte	0
 8043 0511 00       		.byte	0
 8044 0512 00       		.byte	0
 8045 0513 80       		.byte	-128
 8046 0514 80       		.byte	-128
 8047 0515 80       		.byte	-128
 8048 0516 80       		.byte	-128
 8049 0517 00       		.byte	0
 8050 0518 00       		.byte	0
 8051 0519 0E       		.byte	14
 8052 051a 11       		.byte	17
ARM GAS  /tmp/ccs3e2Sq.s 			page 143


 8053 051b 20       		.byte	32
 8054 051c 20       		.byte	32
 8055 051d A0       		.byte	-96
 8056 051e FF       		.byte	-1
 8057 051f 80       		.byte	-128
 8058 0520 80       		.byte	-128
 8059 0521 80       		.byte	-128
 8060 0522 80       		.byte	-128
 8061 0523 00       		.byte	0
 8062 0524 80       		.byte	-128
 8063 0525 80       		.byte	-128
 8064 0526 80       		.byte	-128
 8065 0527 00       		.byte	0
 8066 0528 20       		.byte	32
 8067 0529 20       		.byte	32
 8068 052a 3F       		.byte	63
 8069 052b 21       		.byte	33
 8070 052c 20       		.byte	32
 8071 052d 00       		.byte	0
 8072 052e 01       		.byte	1
 8073 052f 00       		.byte	0
 8074 0530 00       		.byte	0
 8075 0531 00       		.byte	0
 8076 0532 80       		.byte	-128
 8077 0533 80       		.byte	-128
 8078 0534 80       		.byte	-128
 8079 0535 80       		.byte	-128
 8080 0536 80       		.byte	-128
 8081 0537 00       		.byte	0
 8082 0538 00       		.byte	0
 8083 0539 33       		.byte	51
 8084 053a 24       		.byte	36
 8085 053b 24       		.byte	36
 8086 053c 24       		.byte	36
 8087 053d 24       		.byte	36
 8088 053e 19       		.byte	25
 8089 053f 00       		.byte	0
 8090 0540 00       		.byte	0
 8091 0541 80       		.byte	-128
 8092 0542 80       		.byte	-128
 8093 0543 E0       		.byte	-32
 8094 0544 80       		.byte	-128
 8095 0545 80       		.byte	-128
 8096 0546 00       		.byte	0
 8097 0547 00       		.byte	0
 8098 0548 00       		.byte	0
 8099 0549 00       		.byte	0
 8100 054a 00       		.byte	0
 8101 054b 1F       		.byte	31
 8102 054c 20       		.byte	32
 8103 054d 20       		.byte	32
 8104 054e 00       		.byte	0
 8105 054f 00       		.byte	0
 8106 0550 80       		.byte	-128
 8107 0551 80       		.byte	-128
 8108 0552 00       		.byte	0
 8109 0553 00       		.byte	0
ARM GAS  /tmp/ccs3e2Sq.s 			page 144


 8110 0554 00       		.byte	0
 8111 0555 80       		.byte	-128
 8112 0556 80       		.byte	-128
 8113 0557 00       		.byte	0
 8114 0558 00       		.byte	0
 8115 0559 1F       		.byte	31
 8116 055a 20       		.byte	32
 8117 055b 20       		.byte	32
 8118 055c 20       		.byte	32
 8119 055d 10       		.byte	16
 8120 055e 3F       		.byte	63
 8121 055f 20       		.byte	32
 8122 0560 80       		.byte	-128
 8123 0561 80       		.byte	-128
 8124 0562 80       		.byte	-128
 8125 0563 00       		.byte	0
 8126 0564 00       		.byte	0
 8127 0565 80       		.byte	-128
 8128 0566 80       		.byte	-128
 8129 0567 80       		.byte	-128
 8130 0568 00       		.byte	0
 8131 0569 01       		.byte	1
 8132 056a 0E       		.byte	14
 8133 056b 30       		.byte	48
 8134 056c 08       		.byte	8
 8135 056d 06       		.byte	6
 8136 056e 01       		.byte	1
 8137 056f 00       		.byte	0
 8138 0570 80       		.byte	-128
 8139 0571 80       		.byte	-128
 8140 0572 00       		.byte	0
 8141 0573 80       		.byte	-128
 8142 0574 00       		.byte	0
 8143 0575 80       		.byte	-128
 8144 0576 80       		.byte	-128
 8145 0577 80       		.byte	-128
 8146 0578 0F       		.byte	15
 8147 0579 30       		.byte	48
 8148 057a 0C       		.byte	12
 8149 057b 03       		.byte	3
 8150 057c 0C       		.byte	12
 8151 057d 30       		.byte	48
 8152 057e 0F       		.byte	15
 8153 057f 00       		.byte	0
 8154 0580 00       		.byte	0
 8155 0581 80       		.byte	-128
 8156 0582 80       		.byte	-128
 8157 0583 00       		.byte	0
 8158 0584 80       		.byte	-128
 8159 0585 80       		.byte	-128
 8160 0586 80       		.byte	-128
 8161 0587 00       		.byte	0
 8162 0588 00       		.byte	0
 8163 0589 20       		.byte	32
 8164 058a 31       		.byte	49
 8165 058b 2E       		.byte	46
 8166 058c 0E       		.byte	14
ARM GAS  /tmp/ccs3e2Sq.s 			page 145


 8167 058d 31       		.byte	49
 8168 058e 20       		.byte	32
 8169 058f 00       		.byte	0
 8170 0590 80       		.byte	-128
 8171 0591 80       		.byte	-128
 8172 0592 80       		.byte	-128
 8173 0593 00       		.byte	0
 8174 0594 00       		.byte	0
 8175 0595 80       		.byte	-128
 8176 0596 80       		.byte	-128
 8177 0597 80       		.byte	-128
 8178 0598 80       		.byte	-128
 8179 0599 81       		.byte	-127
 8180 059a 8E       		.byte	-114
 8181 059b 70       		.byte	112
 8182 059c 18       		.byte	24
 8183 059d 06       		.byte	6
 8184 059e 01       		.byte	1
 8185 059f 00       		.byte	0
 8186 05a0 00       		.byte	0
 8187 05a1 80       		.byte	-128
 8188 05a2 80       		.byte	-128
 8189 05a3 80       		.byte	-128
 8190 05a4 80       		.byte	-128
 8191 05a5 80       		.byte	-128
 8192 05a6 80       		.byte	-128
 8193 05a7 00       		.byte	0
 8194 05a8 00       		.byte	0
 8195 05a9 21       		.byte	33
 8196 05aa 30       		.byte	48
 8197 05ab 2C       		.byte	44
 8198 05ac 22       		.byte	34
 8199 05ad 21       		.byte	33
 8200 05ae 30       		.byte	48
 8201 05af 00       		.byte	0
 8202 05b0 00       		.byte	0
 8203 05b1 00       		.byte	0
 8204 05b2 00       		.byte	0
 8205 05b3 00       		.byte	0
 8206 05b4 80       		.byte	-128
 8207 05b5 7C       		.byte	124
 8208 05b6 02       		.byte	2
 8209 05b7 02       		.byte	2
 8210 05b8 00       		.byte	0
 8211 05b9 00       		.byte	0
 8212 05ba 00       		.byte	0
 8213 05bb 00       		.byte	0
 8214 05bc 00       		.byte	0
 8215 05bd 3F       		.byte	63
 8216 05be 40       		.byte	64
 8217 05bf 40       		.byte	64
 8218 05c0 00       		.byte	0
 8219 05c1 00       		.byte	0
 8220 05c2 00       		.byte	0
 8221 05c3 00       		.byte	0
 8222 05c4 FF       		.byte	-1
 8223 05c5 00       		.byte	0
ARM GAS  /tmp/ccs3e2Sq.s 			page 146


 8224 05c6 00       		.byte	0
 8225 05c7 00       		.byte	0
 8226 05c8 00       		.byte	0
 8227 05c9 00       		.byte	0
 8228 05ca 00       		.byte	0
 8229 05cb 00       		.byte	0
 8230 05cc FF       		.byte	-1
 8231 05cd 00       		.byte	0
 8232 05ce 00       		.byte	0
 8233 05cf 00       		.byte	0
 8234 05d0 00       		.byte	0
 8235 05d1 02       		.byte	2
 8236 05d2 02       		.byte	2
 8237 05d3 7C       		.byte	124
 8238 05d4 80       		.byte	-128
 8239 05d5 00       		.byte	0
 8240 05d6 00       		.byte	0
 8241 05d7 00       		.byte	0
 8242 05d8 00       		.byte	0
 8243 05d9 40       		.byte	64
 8244 05da 40       		.byte	64
 8245 05db 3F       		.byte	63
 8246 05dc 00       		.byte	0
 8247 05dd 00       		.byte	0
 8248 05de 00       		.byte	0
 8249 05df 00       		.byte	0
 8250 05e0 00       		.byte	0
 8251 05e1 06       		.byte	6
 8252 05e2 01       		.byte	1
 8253 05e3 01       		.byte	1
 8254 05e4 02       		.byte	2
 8255 05e5 02       		.byte	2
 8256 05e6 04       		.byte	4
 8257 05e7 04       		.byte	4
 8258 05e8 00       		.byte	0
 8259 05e9 00       		.byte	0
 8260 05ea 00       		.byte	0
 8261 05eb 00       		.byte	0
 8262 05ec 00       		.byte	0
 8263 05ed 00       		.byte	0
 8264 05ee 00       		.byte	0
 8265 05ef 00       		.byte	0
 8266              		.section	.rodata.OLED_COLUMN_COUNT,"a",%progbits
 8267              		.align	1
 8268              		.type	OLED_COLUMN_COUNT, %object
 8269              		.size	OLED_COLUMN_COUNT, 2
 8270              	OLED_COLUMN_COUNT:
 8271 0000 8000     		.short	128
 8272              		.section	.rodata.OLED_PAGE_COUNT,"a",%progbits
 8273              		.align	1
 8274              		.type	OLED_PAGE_COUNT, %object
 8275              		.size	OLED_PAGE_COUNT, 2
 8276              	OLED_PAGE_COUNT:
 8277 0000 0800     		.short	8
 8278              		.text
 8279              	.Letext0:
 8280              		.file 2 "/usr/lib/gcc/arm-none-eabi/7.3.1/include/stddef.h"
ARM GAS  /tmp/ccs3e2Sq.s 			page 147


 8281              		.file 3 "/usr/arm-none-eabi/include/machine/_default_types.h"
 8282              		.file 4 "/usr/arm-none-eabi/include/sys/_stdint.h"
 8283              		.file 5 "./RM18A-ChibiOS18-Core/chibios/os/common/ports/ARMCMx/compilers/GCC/chtypes.h"
 8284              		.file 6 "./RM18A-ChibiOS18-Core/chibios/os/rt/include/chsystypes.h"
 8285              		.file 7 "./RM18A-ChibiOS18-Core/chibios/os/rt/include/chschd.h"
 8286              		.file 8 "./RM18A-ChibiOS18-Core/chibios/os/rt/include/chtime.h"
 8287              		.file 9 "./RM18A-ChibiOS18-Core/chibios/os/common/ext/ARM/CMSIS/Core/Include/core_cm4.h"
 8288              		.file 10 "./RM18A-ChibiOS18-Core/chibios/os/common/ext/ST/STM32F4xx/system_stm32f4xx.h"
 8289              		.file 11 "./RM18A-ChibiOS18-Core/chibios/os/common/ext/ST/STM32F4xx/stm32f427xx.h"
 8290              		.file 12 "./RM18A-ChibiOS18-Core/chibios/os/common/ports/ARMCMx/chcore.h"
 8291              		.file 13 "./RM18A-ChibiOS18-Core/chibios/os/common/ports/ARMCMx/chcore_v7m.h"
 8292              		.file 14 "./RM18A-ChibiOS18-Core/chibios/os/hal/ports/STM32/LLD/TIMv1/stm32_tim.h"
 8293              		.file 15 "./RM18A-ChibiOS18-Core/chibios/os/rt/include/chtm.h"
 8294              		.file 16 "./RM18A-ChibiOS18-Core/chibios/os/rt/include/chsem.h"
 8295              		.file 17 "./RM18A-ChibiOS18-Core/chibios/os/rt/include/chmtx.h"
 8296              		.file 18 "./RM18A-ChibiOS18-Core/chibios/os/rt/include/chsys.h"
 8297              		.file 19 "./RM18A-ChibiOS18-Core/chibios/os/rt/include/chregistry.h"
 8298              		.file 20 "./RM18A-ChibiOS18-Core/chibios/os/rt/include/chevents.h"
 8299              		.file 21 "./RM18A-ChibiOS18-Core/chibios/os/oslib/include/chmemcore.h"
 8300              		.file 22 "./RM18A-ChibiOS18-Core/chibios/os/oslib/include/chmempools.h"
 8301              		.file 23 "./RM18A-ChibiOS18-Core/chibios/os/oslib/include/chfactory.h"
 8302              		.file 24 "./RM18A-ChibiOS18-Core/chibios/os/hal/ports/STM32/LLD/DMAv2/stm32_dma.h"
 8303              		.file 25 "./RM18A-ChibiOS18-Core/chibios/os/hal/include/hal_queues.h"
 8304              		.file 26 "./RM18A-ChibiOS18-Core/chibios/os/hal/include/hal_pal.h"
 8305              		.file 27 "./RM18A-ChibiOS18-Core/chibios/os/hal/ports/STM32/LLD/GPIOv2/stm32_gpio.h"
 8306              		.file 28 "./RM18A-ChibiOS18-Core/chibios/os/hal/ports/STM32/LLD/GPIOv2/hal_pal_lld.h"
 8307              		.file 29 "./RM18A-ChibiOS18-Core/chibios/os/hal/include/hal_adc.h"
 8308              		.file 30 "./RM18A-ChibiOS18-Core/chibios/os/hal/ports/STM32/LLD/ADCv2/hal_adc_lld.h"
 8309              		.file 31 "./RM18A-ChibiOS18-Core/chibios/os/hal/include/hal_can.h"
 8310              		.file 32 "./RM18A-ChibiOS18-Core/chibios/os/hal/ports/STM32/LLD/CANv1/hal_can_lld.h"
 8311              		.file 33 "./RM18A-ChibiOS18-Core/chibios/os/hal/include/hal_i2c.h"
 8312              		.file 34 "./RM18A-ChibiOS18-Core/chibios/os/hal/ports/STM32/LLD/I2Cv1/hal_i2c_lld.h"
 8313              		.file 35 "./RM18A-ChibiOS18-Core/chibios/os/hal/include/hal_pwm.h"
 8314              		.file 36 "./RM18A-ChibiOS18-Core/chibios/os/hal/ports/STM32/LLD/TIMv1/hal_pwm_lld.h"
 8315              		.file 37 "./RM18A-ChibiOS18-Core/chibios/os/hal/include/hal_serial.h"
 8316              		.file 38 "./RM18A-ChibiOS18-Core/chibios/os/hal/ports/STM32/LLD/USARTv1/hal_serial_lld.h"
 8317              		.file 39 "./RM18A-ChibiOS18-Core/chibios/os/hal/include/hal_spi.h"
 8318              		.file 40 "./RM18A-ChibiOS18-Core/chibios/os/hal/ports/STM32/LLD/SPIv1/hal_spi_lld.h"
 8319              		.file 41 "./RM18A-ChibiOS18-Core/chibios/os/hal/include/hal_uart.h"
 8320              		.file 42 "./RM18A-ChibiOS18-Core/chibios/os/hal/ports/STM32/LLD/USARTv1/hal_uart_lld.h"
 8321              		.file 43 "./RM18A-ChibiOS18-Core/chibios/os/hal/include/hal_usb.h"
 8322              		.file 44 "./RM18A-ChibiOS18-Core/chibios/os/hal/ports/STM32/LLD/OTGv1/hal_usb_lld.h"
 8323              		.file 45 "./RM18A-ChibiOS18-Core/chibios/os/hal/ports/STM32/LLD/OTGv1/stm32_otg.h"
 8324              		.file 46 "./RM18A-ChibiOS18-Core/src/ext_hw/SH1106.h"
 8325              		.file 47 "./RM18A-ChibiOS18-Core/src/ext_hw/oledfont.h"
 8326              		.file 48 "./RM18A-ChibiOS18-Core/chibios/os/rt/include/chthreads.h"
 8327              		.section	.debug_info,"",%progbits
 8328              	.Ldebug_info0:
 8329 0000 6C4C0000 		.4byte	0x4c6c
 8330 0004 0400     		.2byte	0x4
 8331 0006 00000000 		.4byte	.Ldebug_abbrev0
 8332 000a 04       		.byte	0x4
 8333 000b 01       		.uleb128 0x1
 8334 000c 66170000 		.4byte	.LASF642
 8335 0010 0C       		.byte	0xc
 8336 0011 98190000 		.4byte	.LASF643
 8337 0015 FA040000 		.4byte	.LASF644
ARM GAS  /tmp/ccs3e2Sq.s 			page 148


 8338 0019 380B0000 		.4byte	.Ldebug_ranges0+0xb38
 8339 001d 00000000 		.4byte	0
 8340 0021 00000000 		.4byte	.Ldebug_line0
 8341 0025 02       		.uleb128 0x2
 8342 0026 04       		.byte	0x4
 8343 0027 05       		.byte	0x5
 8344 0028 696E7400 		.ascii	"int\000"
 8345 002c 03       		.uleb128 0x3
 8346 002d 2C090000 		.4byte	.LASF4
 8347 0031 02       		.byte	0x2
 8348 0032 D8       		.byte	0xd8
 8349 0033 3C000000 		.4byte	0x3c
 8350 0037 04       		.uleb128 0x4
 8351 0038 2C000000 		.4byte	0x2c
 8352 003c 05       		.uleb128 0x5
 8353 003d 04       		.byte	0x4
 8354 003e 07       		.byte	0x7
 8355 003f 32190000 		.4byte	.LASF0
 8356 0043 05       		.uleb128 0x5
 8357 0044 08       		.byte	0x8
 8358 0045 05       		.byte	0x5
 8359 0046 DF160000 		.4byte	.LASF1
 8360 004a 05       		.uleb128 0x5
 8361 004b 08       		.byte	0x8
 8362 004c 04       		.byte	0x4
 8363 004d C8100000 		.4byte	.LASF2
 8364 0051 05       		.uleb128 0x5
 8365 0052 01       		.byte	0x1
 8366 0053 06       		.byte	0x6
 8367 0054 3E0E0000 		.4byte	.LASF3
 8368 0058 03       		.uleb128 0x3
 8369 0059 9F000000 		.4byte	.LASF5
 8370 005d 03       		.byte	0x3
 8371 005e 2B       		.byte	0x2b
 8372 005f 63000000 		.4byte	0x63
 8373 0063 05       		.uleb128 0x5
 8374 0064 01       		.byte	0x1
 8375 0065 08       		.byte	0x8
 8376 0066 88060000 		.4byte	.LASF6
 8377 006a 06       		.uleb128 0x6
 8378 006b 63000000 		.4byte	0x63
 8379 006f 03       		.uleb128 0x3
 8380 0070 7D050000 		.4byte	.LASF7
 8381 0074 03       		.byte	0x3
 8382 0075 37       		.byte	0x37
 8383 0076 7A000000 		.4byte	0x7a
 8384 007a 05       		.uleb128 0x5
 8385 007b 02       		.byte	0x2
 8386 007c 05       		.byte	0x5
 8387 007d 72190000 		.4byte	.LASF8
 8388 0081 03       		.uleb128 0x3
 8389 0082 87050000 		.4byte	.LASF9
 8390 0086 03       		.byte	0x3
 8391 0087 39       		.byte	0x39
 8392 0088 8C000000 		.4byte	0x8c
 8393 008c 05       		.uleb128 0x5
 8394 008d 02       		.byte	0x2
ARM GAS  /tmp/ccs3e2Sq.s 			page 149


 8395 008e 07       		.byte	0x7
 8396 008f 2B0E0000 		.4byte	.LASF10
 8397 0093 03       		.uleb128 0x3
 8398 0094 11140000 		.4byte	.LASF11
 8399 0098 03       		.byte	0x3
 8400 0099 4D       		.byte	0x4d
 8401 009a 9E000000 		.4byte	0x9e
 8402 009e 05       		.uleb128 0x5
 8403 009f 04       		.byte	0x4
 8404 00a0 05       		.byte	0x5
 8405 00a1 D00F0000 		.4byte	.LASF12
 8406 00a5 03       		.uleb128 0x3
 8407 00a6 1B140000 		.4byte	.LASF13
 8408 00aa 03       		.byte	0x3
 8409 00ab 4F       		.byte	0x4f
 8410 00ac B0000000 		.4byte	0xb0
 8411 00b0 05       		.uleb128 0x5
 8412 00b1 04       		.byte	0x4
 8413 00b2 07       		.byte	0x7
 8414 00b3 0E110000 		.4byte	.LASF14
 8415 00b7 03       		.uleb128 0x3
 8416 00b8 670B0000 		.4byte	.LASF15
 8417 00bc 03       		.byte	0x3
 8418 00bd 69       		.byte	0x69
 8419 00be C2000000 		.4byte	0xc2
 8420 00c2 05       		.uleb128 0x5
 8421 00c3 08       		.byte	0x8
 8422 00c4 07       		.byte	0x7
 8423 00c5 4D150000 		.4byte	.LASF16
 8424 00c9 03       		.uleb128 0x3
 8425 00ca 3E090000 		.4byte	.LASF17
 8426 00ce 04       		.byte	0x4
 8427 00cf 18       		.byte	0x18
 8428 00d0 58000000 		.4byte	0x58
 8429 00d4 06       		.uleb128 0x6
 8430 00d5 C9000000 		.4byte	0xc9
 8431 00d9 03       		.uleb128 0x3
 8432 00da 170E0000 		.4byte	.LASF18
 8433 00de 04       		.byte	0x4
 8434 00df 20       		.byte	0x20
 8435 00e0 6F000000 		.4byte	0x6f
 8436 00e4 06       		.uleb128 0x6
 8437 00e5 D9000000 		.4byte	0xd9
 8438 00e9 03       		.uleb128 0x3
 8439 00ea 4F010000 		.4byte	.LASF19
 8440 00ee 04       		.byte	0x4
 8441 00ef 24       		.byte	0x24
 8442 00f0 81000000 		.4byte	0x81
 8443 00f4 04       		.uleb128 0x4
 8444 00f5 E9000000 		.4byte	0xe9
 8445 00f9 06       		.uleb128 0x6
 8446 00fa E9000000 		.4byte	0xe9
 8447 00fe 03       		.uleb128 0x3
 8448 00ff 90020000 		.4byte	.LASF20
 8449 0103 04       		.byte	0x4
 8450 0104 2C       		.byte	0x2c
 8451 0105 93000000 		.4byte	0x93
ARM GAS  /tmp/ccs3e2Sq.s 			page 150


 8452 0109 04       		.uleb128 0x4
 8453 010a FE000000 		.4byte	0xfe
 8454 010e 03       		.uleb128 0x3
 8455 010f 8D100000 		.4byte	.LASF21
 8456 0113 04       		.byte	0x4
 8457 0114 30       		.byte	0x30
 8458 0115 A5000000 		.4byte	0xa5
 8459 0119 04       		.uleb128 0x4
 8460 011a 0E010000 		.4byte	0x10e
 8461 011e 03       		.uleb128 0x3
 8462 011f B2070000 		.4byte	.LASF22
 8463 0123 04       		.byte	0x4
 8464 0124 3C       		.byte	0x3c
 8465 0125 B7000000 		.4byte	0xb7
 8466 0129 03       		.uleb128 0x3
 8467 012a D9080000 		.4byte	.LASF23
 8468 012e 05       		.byte	0x5
 8469 012f 27       		.byte	0x27
 8470 0130 0E010000 		.4byte	0x10e
 8471 0134 03       		.uleb128 0x3
 8472 0135 770C0000 		.4byte	.LASF24
 8473 0139 05       		.byte	0x5
 8474 013a 2A       		.byte	0x2a
 8475 013b C9000000 		.4byte	0xc9
 8476 013f 03       		.uleb128 0x3
 8477 0140 DD150000 		.4byte	.LASF25
 8478 0144 05       		.byte	0x5
 8479 0145 2B       		.byte	0x2b
 8480 0146 C9000000 		.4byte	0xc9
 8481 014a 03       		.uleb128 0x3
 8482 014b 450C0000 		.4byte	.LASF26
 8483 014f 05       		.byte	0x5
 8484 0150 2C       		.byte	0x2c
 8485 0151 C9000000 		.4byte	0xc9
 8486 0155 03       		.uleb128 0x3
 8487 0156 78040000 		.4byte	.LASF27
 8488 015a 05       		.byte	0x5
 8489 015b 2E       		.byte	0x2e
 8490 015c 0E010000 		.4byte	0x10e
 8491 0160 03       		.uleb128 0x3
 8492 0161 32000000 		.4byte	.LASF28
 8493 0165 05       		.byte	0x5
 8494 0166 2F       		.byte	0x2f
 8495 0167 FE000000 		.4byte	0xfe
 8496 016b 03       		.uleb128 0x3
 8497 016c E9100000 		.4byte	.LASF29
 8498 0170 05       		.byte	0x5
 8499 0171 31       		.byte	0x31
 8500 0172 0E010000 		.4byte	0x10e
 8501 0176 03       		.uleb128 0x3
 8502 0177 21170000 		.4byte	.LASF30
 8503 017b 05       		.byte	0x5
 8504 017c 32       		.byte	0x32
 8505 017d 0E010000 		.4byte	0x10e
 8506 0181 03       		.uleb128 0x3
 8507 0182 33120000 		.4byte	.LASF31
 8508 0186 05       		.byte	0x5
ARM GAS  /tmp/ccs3e2Sq.s 			page 151


 8509 0187 33       		.byte	0x33
 8510 0188 FE000000 		.4byte	0xfe
 8511 018c 03       		.uleb128 0x3
 8512 018d 4A0E0000 		.4byte	.LASF32
 8513 0191 05       		.byte	0x5
 8514 0192 34       		.byte	0x34
 8515 0193 0E010000 		.4byte	0x10e
 8516 0197 03       		.uleb128 0x3
 8517 0198 5E020000 		.4byte	.LASF33
 8518 019c 06       		.byte	0x6
 8519 019d 34       		.byte	0x34
 8520 019e A2010000 		.4byte	0x1a2
 8521 01a2 07       		.uleb128 0x7
 8522 01a3 CE060000 		.4byte	.LASF51
 8523 01a7 44       		.byte	0x44
 8524 01a8 07       		.byte	0x7
 8525 01a9 8E       		.byte	0x8e
 8526 01aa 80020000 		.4byte	0x280
 8527 01ae 08       		.uleb128 0x8
 8528 01af 33150000 		.4byte	.LASF34
 8529 01b3 07       		.byte	0x7
 8530 01b4 8F       		.byte	0x8f
 8531 01b5 B5020000 		.4byte	0x2b5
 8532 01b9 00       		.byte	0
 8533 01ba 08       		.uleb128 0x8
 8534 01bb 20010000 		.4byte	.LASF35
 8535 01bf 07       		.byte	0x7
 8536 01c0 90       		.byte	0x90
 8537 01c1 55010000 		.4byte	0x155
 8538 01c5 08       		.byte	0x8
 8539 01c6 09       		.uleb128 0x9
 8540 01c7 63747800 		.ascii	"ctx\000"
 8541 01cb 07       		.byte	0x7
 8542 01cc 91       		.byte	0x91
 8543 01cd AD0A0000 		.4byte	0xaad
 8544 01d1 0C       		.byte	0xc
 8545 01d2 08       		.uleb128 0x8
 8546 01d3 E6050000 		.4byte	.LASF36
 8547 01d7 07       		.byte	0x7
 8548 01d8 93       		.byte	0x93
 8549 01d9 8B020000 		.4byte	0x28b
 8550 01dd 10       		.byte	0x10
 8551 01de 08       		.uleb128 0x8
 8552 01df 87010000 		.4byte	.LASF37
 8553 01e3 07       		.byte	0x7
 8554 01e4 94       		.byte	0x94
 8555 01e5 8B020000 		.4byte	0x28b
 8556 01e9 14       		.byte	0x14
 8557 01ea 08       		.uleb128 0x8
 8558 01eb 640D0000 		.4byte	.LASF38
 8559 01ef 07       		.byte	0x7
 8560 01f0 9B       		.byte	0x9b
 8561 01f1 190E0000 		.4byte	0xe19
 8562 01f5 18       		.byte	0x18
 8563 01f6 08       		.uleb128 0x8
 8564 01f7 360F0000 		.4byte	.LASF39
 8565 01fb 07       		.byte	0x7
ARM GAS  /tmp/ccs3e2Sq.s 			page 152


 8566 01fc A4       		.byte	0xa4
 8567 01fd 300E0000 		.4byte	0xe30
 8568 0201 1C       		.byte	0x1c
 8569 0202 08       		.uleb128 0x8
 8570 0203 E60E0000 		.4byte	.LASF40
 8571 0207 07       		.byte	0x7
 8572 0208 A9       		.byte	0xa9
 8573 0209 3F010000 		.4byte	0x13f
 8574 020d 20       		.byte	0x20
 8575 020e 08       		.uleb128 0x8
 8576 020f 421A0000 		.4byte	.LASF41
 8577 0213 07       		.byte	0x7
 8578 0214 AD       		.byte	0xad
 8579 0215 34010000 		.4byte	0x134
 8580 0219 21       		.byte	0x21
 8581 021a 08       		.uleb128 0x8
 8582 021b 53030000 		.4byte	.LASF42
 8583 021f 07       		.byte	0x7
 8584 0220 B2       		.byte	0xb2
 8585 0221 4A010000 		.4byte	0x14a
 8586 0225 22       		.byte	0x22
 8587 0226 0A       		.uleb128 0xa
 8588 0227 7500     		.ascii	"u\000"
 8589 0229 07       		.byte	0x7
 8590 022a 0301     		.2byte	0x103
 8591 022c 4F0D0000 		.4byte	0xd4f
 8592 0230 24       		.byte	0x24
 8593 0231 0B       		.uleb128 0xb
 8594 0232 A80B0000 		.4byte	.LASF43
 8595 0236 07       		.byte	0x7
 8596 0237 0801     		.2byte	0x108
 8597 0239 91020000 		.4byte	0x291
 8598 023d 28       		.byte	0x28
 8599 023e 0B       		.uleb128 0xb
 8600 023f A80E0000 		.4byte	.LASF44
 8601 0243 07       		.byte	0x7
 8602 0244 0E01     		.2byte	0x10e
 8603 0246 B5020000 		.4byte	0x2b5
 8604 024a 2C       		.byte	0x2c
 8605 024b 0B       		.uleb128 0xb
 8606 024c BC000000 		.4byte	.LASF45
 8607 0250 07       		.byte	0x7
 8608 0251 1401     		.2byte	0x114
 8609 0253 6B010000 		.4byte	0x16b
 8610 0257 34       		.byte	0x34
 8611 0258 0B       		.uleb128 0xb
 8612 0259 6C030000 		.4byte	.LASF46
 8613 025d 07       		.byte	0x7
 8614 025e 1B01     		.2byte	0x11b
 8615 0260 130E0000 		.4byte	0xe13
 8616 0264 38       		.byte	0x38
 8617 0265 0B       		.uleb128 0xb
 8618 0266 161A0000 		.4byte	.LASF47
 8619 026a 07       		.byte	0x7
 8620 026b 1F01     		.2byte	0x11f
 8621 026d 55010000 		.4byte	0x155
 8622 0271 3C       		.byte	0x3c
ARM GAS  /tmp/ccs3e2Sq.s 			page 153


 8623 0272 0B       		.uleb128 0xb
 8624 0273 7D0F0000 		.4byte	.LASF48
 8625 0277 07       		.byte	0x7
 8626 0278 2601     		.2byte	0x126
 8627 027a 68030000 		.4byte	0x368
 8628 027e 40       		.byte	0x40
 8629 027f 00       		.byte	0
 8630 0280 03       		.uleb128 0x3
 8631 0281 99180000 		.4byte	.LASF49
 8632 0285 06       		.byte	0x6
 8633 0286 39       		.byte	0x39
 8634 0287 8B020000 		.4byte	0x28b
 8635 028b 0C       		.uleb128 0xc
 8636 028c 04       		.byte	0x4
 8637 028d 97010000 		.4byte	0x197
 8638 0291 03       		.uleb128 0x3
 8639 0292 D3030000 		.4byte	.LASF50
 8640 0296 06       		.byte	0x6
 8641 0297 3E       		.byte	0x3e
 8642 0298 9C020000 		.4byte	0x29c
 8643 029c 07       		.uleb128 0x7
 8644 029d 481A0000 		.4byte	.LASF52
 8645 02a1 04       		.byte	0x4
 8646 02a2 07       		.byte	0x7
 8647 02a3 7C       		.byte	0x7c
 8648 02a4 B5020000 		.4byte	0x2b5
 8649 02a8 08       		.uleb128 0x8
 8650 02a9 82010000 		.4byte	.LASF53
 8651 02ad 07       		.byte	0x7
 8652 02ae 7D       		.byte	0x7d
 8653 02af 8B020000 		.4byte	0x28b
 8654 02b3 00       		.byte	0
 8655 02b4 00       		.byte	0
 8656 02b5 03       		.uleb128 0x3
 8657 02b6 8F0F0000 		.4byte	.LASF54
 8658 02ba 06       		.byte	0x6
 8659 02bb 45       		.byte	0x45
 8660 02bc C0020000 		.4byte	0x2c0
 8661 02c0 07       		.uleb128 0x7
 8662 02c1 D6010000 		.4byte	.LASF55
 8663 02c5 08       		.byte	0x8
 8664 02c6 07       		.byte	0x7
 8665 02c7 83       		.byte	0x83
 8666 02c8 E5020000 		.4byte	0x2e5
 8667 02cc 08       		.uleb128 0x8
 8668 02cd 82010000 		.4byte	.LASF53
 8669 02d1 07       		.byte	0x7
 8670 02d2 84       		.byte	0x84
 8671 02d3 8B020000 		.4byte	0x28b
 8672 02d7 00       		.byte	0
 8673 02d8 08       		.uleb128 0x8
 8674 02d9 CB190000 		.4byte	.LASF56
 8675 02dd 07       		.byte	0x7
 8676 02de 85       		.byte	0x85
 8677 02df 8B020000 		.4byte	0x28b
 8678 02e3 04       		.byte	0x4
 8679 02e4 00       		.byte	0
ARM GAS  /tmp/ccs3e2Sq.s 			page 154


 8680 02e5 03       		.uleb128 0x3
 8681 02e6 C1060000 		.4byte	.LASF57
 8682 02ea 06       		.byte	0x6
 8683 02eb 4C       		.byte	0x4c
 8684 02ec F0020000 		.4byte	0x2f0
 8685 02f0 0D       		.uleb128 0xd
 8686 02f1 F3130000 		.4byte	.LASF58
 8687 02f5 1C       		.byte	0x1c
 8688 02f6 07       		.byte	0x7
 8689 02f7 5E01     		.2byte	0x15e
 8690 02f9 4C030000 		.4byte	0x34c
 8691 02fd 0B       		.uleb128 0xb
 8692 02fe 33150000 		.4byte	.LASF34
 8693 0302 07       		.byte	0x7
 8694 0303 5F01     		.2byte	0x15f
 8695 0305 B5020000 		.4byte	0x2b5
 8696 0309 00       		.byte	0
 8697 030a 0B       		.uleb128 0xb
 8698 030b 20010000 		.4byte	.LASF35
 8699 030f 07       		.byte	0x7
 8700 0310 6001     		.2byte	0x160
 8701 0312 55010000 		.4byte	0x155
 8702 0316 08       		.byte	0x8
 8703 0317 0A       		.uleb128 0xa
 8704 0318 63747800 		.ascii	"ctx\000"
 8705 031c 07       		.byte	0x7
 8706 031d 6201     		.2byte	0x162
 8707 031f AD0A0000 		.4byte	0xaad
 8708 0323 0C       		.byte	0xc
 8709 0324 0B       		.uleb128 0xb
 8710 0325 E6050000 		.4byte	.LASF36
 8711 0329 07       		.byte	0x7
 8712 032a 6501     		.2byte	0x165
 8713 032c 8B020000 		.4byte	0x28b
 8714 0330 10       		.byte	0x10
 8715 0331 0B       		.uleb128 0xb
 8716 0332 87010000 		.4byte	.LASF37
 8717 0336 07       		.byte	0x7
 8718 0337 6601     		.2byte	0x166
 8719 0339 8B020000 		.4byte	0x28b
 8720 033d 14       		.byte	0x14
 8721 033e 0B       		.uleb128 0xb
 8722 033f 5F0E0000 		.4byte	.LASF59
 8723 0343 07       		.byte	0x7
 8724 0344 6901     		.2byte	0x169
 8725 0346 8B020000 		.4byte	0x28b
 8726 034a 18       		.byte	0x18
 8727 034b 00       		.byte	0
 8728 034c 03       		.uleb128 0x3
 8729 034d FC120000 		.4byte	.LASF60
 8730 0351 06       		.byte	0x6
 8731 0352 51       		.byte	0x51
 8732 0353 57030000 		.4byte	0x357
 8733 0357 0C       		.uleb128 0xc
 8734 0358 04       		.byte	0x4
 8735 0359 5D030000 		.4byte	0x35d
 8736 035d 0E       		.uleb128 0xe
ARM GAS  /tmp/ccs3e2Sq.s 			page 155


 8737 035e 68030000 		.4byte	0x368
 8738 0362 0F       		.uleb128 0xf
 8739 0363 68030000 		.4byte	0x368
 8740 0367 00       		.byte	0
 8741 0368 10       		.uleb128 0x10
 8742 0369 04       		.byte	0x4
 8743 036a 03       		.uleb128 0x3
 8744 036b B4080000 		.4byte	.LASF61
 8745 036f 06       		.byte	0x6
 8746 0370 56       		.byte	0x56
 8747 0371 75030000 		.4byte	0x375
 8748 0375 0D       		.uleb128 0xd
 8749 0376 AD150000 		.4byte	.LASF62
 8750 037a 14       		.byte	0x14
 8751 037b 07       		.byte	0x7
 8752 037c 3901     		.2byte	0x139
 8753 037e C4030000 		.4byte	0x3c4
 8754 0382 0B       		.uleb128 0xb
 8755 0383 82010000 		.4byte	.LASF53
 8756 0387 07       		.byte	0x7
 8757 0388 3A01     		.2byte	0x13a
 8758 038a 360E0000 		.4byte	0xe36
 8759 038e 00       		.byte	0
 8760 038f 0B       		.uleb128 0xb
 8761 0390 CB190000 		.4byte	.LASF56
 8762 0394 07       		.byte	0x7
 8763 0395 3B01     		.2byte	0x13b
 8764 0397 360E0000 		.4byte	0xe36
 8765 039b 04       		.byte	0x4
 8766 039c 0B       		.uleb128 0xb
 8767 039d 30070000 		.4byte	.LASF63
 8768 03a1 07       		.byte	0x7
 8769 03a2 3C01     		.2byte	0x13c
 8770 03a4 9B040000 		.4byte	0x49b
 8771 03a8 08       		.byte	0x8
 8772 03a9 0B       		.uleb128 0xb
 8773 03aa 4A0F0000 		.4byte	.LASF64
 8774 03ae 07       		.byte	0x7
 8775 03af 3D01     		.2byte	0x13d
 8776 03b1 4C030000 		.4byte	0x34c
 8777 03b5 0C       		.byte	0xc
 8778 03b6 0A       		.uleb128 0xa
 8779 03b7 70617200 		.ascii	"par\000"
 8780 03bb 07       		.byte	0x7
 8781 03bc 3F01     		.2byte	0x13f
 8782 03be 68030000 		.4byte	0x368
 8783 03c2 10       		.byte	0x10
 8784 03c3 00       		.byte	0
 8785 03c4 03       		.uleb128 0x3
 8786 03c5 84160000 		.4byte	.LASF65
 8787 03c9 06       		.byte	0x6
 8788 03ca 5B       		.byte	0x5b
 8789 03cb CF030000 		.4byte	0x3cf
 8790 03cf 0D       		.uleb128 0xd
 8791 03d0 72020000 		.4byte	.LASF66
 8792 03d4 10       		.byte	0x10
 8793 03d5 07       		.byte	0x7
ARM GAS  /tmp/ccs3e2Sq.s 			page 156


 8794 03d6 4901     		.2byte	0x149
 8795 03d8 11040000 		.4byte	0x411
 8796 03dc 0B       		.uleb128 0xb
 8797 03dd 82010000 		.4byte	.LASF53
 8798 03e1 07       		.byte	0x7
 8799 03e2 4A01     		.2byte	0x14a
 8800 03e4 360E0000 		.4byte	0xe36
 8801 03e8 00       		.byte	0
 8802 03e9 0B       		.uleb128 0xb
 8803 03ea CB190000 		.4byte	.LASF56
 8804 03ee 07       		.byte	0x7
 8805 03ef 4C01     		.2byte	0x14c
 8806 03f1 360E0000 		.4byte	0xe36
 8807 03f5 04       		.byte	0x4
 8808 03f6 0B       		.uleb128 0xb
 8809 03f7 30070000 		.4byte	.LASF63
 8810 03fb 07       		.byte	0x7
 8811 03fc 4E01     		.2byte	0x14e
 8812 03fe 9B040000 		.4byte	0x49b
 8813 0402 08       		.byte	0x8
 8814 0403 0B       		.uleb128 0xb
 8815 0404 8F0E0000 		.4byte	.LASF67
 8816 0408 07       		.byte	0x7
 8817 0409 5601     		.2byte	0x156
 8818 040b 90040000 		.4byte	0x490
 8819 040f 0C       		.byte	0xc
 8820 0410 00       		.byte	0
 8821 0411 03       		.uleb128 0x3
 8822 0412 0B070000 		.4byte	.LASF68
 8823 0416 06       		.byte	0x6
 8824 0417 60       		.byte	0x60
 8825 0418 1C040000 		.4byte	0x41c
 8826 041c 0D       		.uleb128 0xd
 8827 041d 30140000 		.4byte	.LASF69
 8828 0421 04       		.byte	0x4
 8829 0422 07       		.byte	0x7
 8830 0423 7001     		.2byte	0x170
 8831 0425 37040000 		.4byte	0x437
 8832 0429 0B       		.uleb128 0xb
 8833 042a 7D0D0000 		.4byte	.LASF70
 8834 042e 07       		.byte	0x7
 8835 042f 7801     		.2byte	0x178
 8836 0431 1F0E0000 		.4byte	0xe1f
 8837 0435 00       		.byte	0
 8838 0436 00       		.byte	0
 8839 0437 03       		.uleb128 0x3
 8840 0438 93000000 		.4byte	.LASF71
 8841 043c 06       		.byte	0x6
 8842 043d 65       		.byte	0x65
 8843 043e 42040000 		.4byte	0x442
 8844 0442 0D       		.uleb128 0xd
 8845 0443 2C0F0000 		.4byte	.LASF72
 8846 0447 78       		.byte	0x78
 8847 0448 07       		.byte	0x7
 8848 0449 9001     		.2byte	0x190
 8849 044b 90040000 		.4byte	0x490
 8850 044f 0B       		.uleb128 0xb
ARM GAS  /tmp/ccs3e2Sq.s 			page 157


 8851 0450 CD030000 		.4byte	.LASF73
 8852 0454 07       		.byte	0x7
 8853 0455 9401     		.2byte	0x194
 8854 0457 E5020000 		.4byte	0x2e5
 8855 045b 00       		.byte	0
 8856 045c 0B       		.uleb128 0xb
 8857 045d A0030000 		.4byte	.LASF74
 8858 0461 07       		.byte	0x7
 8859 0462 9801     		.2byte	0x198
 8860 0464 C4030000 		.4byte	0x3c4
 8861 0468 1C       		.byte	0x1c
 8862 0469 0A       		.uleb128 0xa
 8863 046a 64626700 		.ascii	"dbg\000"
 8864 046e 07       		.byte	0x7
 8865 046f 9C01     		.2byte	0x19c
 8866 0471 11040000 		.4byte	0x411
 8867 0475 2C       		.byte	0x2c
 8868 0476 0B       		.uleb128 0xb
 8869 0477 D90F0000 		.4byte	.LASF75
 8870 047b 07       		.byte	0x7
 8871 047c A001     		.2byte	0x1a0
 8872 047e 97010000 		.4byte	0x197
 8873 0482 30       		.byte	0x30
 8874 0483 0A       		.uleb128 0xa
 8875 0484 746D00   		.ascii	"tm\000"
 8876 0487 07       		.byte	0x7
 8877 0488 A501     		.2byte	0x1a5
 8878 048a 440D0000 		.4byte	0xd44
 8879 048e 74       		.byte	0x74
 8880 048f 00       		.byte	0
 8881 0490 03       		.uleb128 0x3
 8882 0491 AC020000 		.4byte	.LASF76
 8883 0495 08       		.byte	0x8
 8884 0496 6D       		.byte	0x6d
 8885 0497 0E010000 		.4byte	0x10e
 8886 049b 03       		.uleb128 0x3
 8887 049c 8C130000 		.4byte	.LASF77
 8888 04a0 08       		.byte	0x8
 8889 04a1 79       		.byte	0x79
 8890 04a2 0E010000 		.4byte	0x10e
 8891 04a6 03       		.uleb128 0x3
 8892 04a7 530C0000 		.4byte	.LASF78
 8893 04ab 08       		.byte	0x8
 8894 04ac 96       		.byte	0x96
 8895 04ad 1E010000 		.4byte	0x11e
 8896 04b1 11       		.uleb128 0x11
 8897 04b2 0E010000 		.4byte	0x10e
 8898 04b6 C1040000 		.4byte	0x4c1
 8899 04ba 12       		.uleb128 0x12
 8900 04bb 3C000000 		.4byte	0x3c
 8901 04bf 07       		.byte	0x7
 8902 04c0 00       		.byte	0
 8903 04c1 13       		.uleb128 0x13
 8904 04c2 40150000 		.4byte	.LASF79
 8905 04c6 09       		.byte	0x9
 8906 04c7 0408     		.2byte	0x804
 8907 04c9 09010000 		.4byte	0x109
ARM GAS  /tmp/ccs3e2Sq.s 			page 158


 8908 04cd 14       		.uleb128 0x14
 8909 04ce C30E0000 		.4byte	.LASF80
 8910 04d2 0A       		.byte	0xa
 8911 04d3 4C       		.byte	0x4c
 8912 04d4 0E010000 		.4byte	0x10e
 8913 04d8 11       		.uleb128 0x11
 8914 04d9 D4000000 		.4byte	0xd4
 8915 04dd E8040000 		.4byte	0x4e8
 8916 04e1 12       		.uleb128 0x12
 8917 04e2 3C000000 		.4byte	0x3c
 8918 04e6 0F       		.byte	0xf
 8919 04e7 00       		.byte	0
 8920 04e8 06       		.uleb128 0x6
 8921 04e9 D8040000 		.4byte	0x4d8
 8922 04ed 14       		.uleb128 0x14
 8923 04ee 58170000 		.4byte	.LASF81
 8924 04f2 0A       		.byte	0xa
 8925 04f3 4E       		.byte	0x4e
 8926 04f4 E8040000 		.4byte	0x4e8
 8927 04f8 11       		.uleb128 0x11
 8928 04f9 D4000000 		.4byte	0xd4
 8929 04fd 08050000 		.4byte	0x508
 8930 0501 12       		.uleb128 0x12
 8931 0502 3C000000 		.4byte	0x3c
 8932 0506 07       		.byte	0x7
 8933 0507 00       		.byte	0
 8934 0508 06       		.uleb128 0x6
 8935 0509 F8040000 		.4byte	0x4f8
 8936 050d 14       		.uleb128 0x14
 8937 050e A4110000 		.4byte	.LASF82
 8938 0512 0A       		.byte	0xa
 8939 0513 4F       		.byte	0x4f
 8940 0514 08050000 		.4byte	0x508
 8941 0518 15       		.uleb128 0x15
 8942 0519 50       		.byte	0x50
 8943 051a 0B       		.byte	0xb
 8944 051b CA       		.byte	0xca
 8945 051c 0F060000 		.4byte	0x60f
 8946 0520 09       		.uleb128 0x9
 8947 0521 535200   		.ascii	"SR\000"
 8948 0524 0B       		.byte	0xb
 8949 0525 CC       		.byte	0xcc
 8950 0526 19010000 		.4byte	0x119
 8951 052a 00       		.byte	0
 8952 052b 09       		.uleb128 0x9
 8953 052c 43523100 		.ascii	"CR1\000"
 8954 0530 0B       		.byte	0xb
 8955 0531 CD       		.byte	0xcd
 8956 0532 19010000 		.4byte	0x119
 8957 0536 04       		.byte	0x4
 8958 0537 09       		.uleb128 0x9
 8959 0538 43523200 		.ascii	"CR2\000"
 8960 053c 0B       		.byte	0xb
 8961 053d CE       		.byte	0xce
 8962 053e 19010000 		.4byte	0x119
 8963 0542 08       		.byte	0x8
 8964 0543 08       		.uleb128 0x8
ARM GAS  /tmp/ccs3e2Sq.s 			page 159


 8965 0544 F9010000 		.4byte	.LASF83
 8966 0548 0B       		.byte	0xb
 8967 0549 CF       		.byte	0xcf
 8968 054a 19010000 		.4byte	0x119
 8969 054e 0C       		.byte	0xc
 8970 054f 08       		.uleb128 0x8
 8971 0550 FF010000 		.4byte	.LASF84
 8972 0554 0B       		.byte	0xb
 8973 0555 D0       		.byte	0xd0
 8974 0556 19010000 		.4byte	0x119
 8975 055a 10       		.byte	0x10
 8976 055b 08       		.uleb128 0x8
 8977 055c 36070000 		.4byte	.LASF85
 8978 0560 0B       		.byte	0xb
 8979 0561 D1       		.byte	0xd1
 8980 0562 19010000 		.4byte	0x119
 8981 0566 14       		.byte	0x14
 8982 0567 08       		.uleb128 0x8
 8983 0568 3C070000 		.4byte	.LASF86
 8984 056c 0B       		.byte	0xb
 8985 056d D2       		.byte	0xd2
 8986 056e 19010000 		.4byte	0x119
 8987 0572 18       		.byte	0x18
 8988 0573 08       		.uleb128 0x8
 8989 0574 42070000 		.4byte	.LASF87
 8990 0578 0B       		.byte	0xb
 8991 0579 D3       		.byte	0xd3
 8992 057a 19010000 		.4byte	0x119
 8993 057e 1C       		.byte	0x1c
 8994 057f 08       		.uleb128 0x8
 8995 0580 48070000 		.4byte	.LASF88
 8996 0584 0B       		.byte	0xb
 8997 0585 D4       		.byte	0xd4
 8998 0586 19010000 		.4byte	0x119
 8999 058a 20       		.byte	0x20
 9000 058b 09       		.uleb128 0x9
 9001 058c 48545200 		.ascii	"HTR\000"
 9002 0590 0B       		.byte	0xb
 9003 0591 D5       		.byte	0xd5
 9004 0592 19010000 		.4byte	0x119
 9005 0596 24       		.byte	0x24
 9006 0597 09       		.uleb128 0x9
 9007 0598 4C545200 		.ascii	"LTR\000"
 9008 059c 0B       		.byte	0xb
 9009 059d D6       		.byte	0xd6
 9010 059e 19010000 		.4byte	0x119
 9011 05a2 28       		.byte	0x28
 9012 05a3 08       		.uleb128 0x8
 9013 05a4 8A0C0000 		.4byte	.LASF89
 9014 05a8 0B       		.byte	0xb
 9015 05a9 D7       		.byte	0xd7
 9016 05aa 19010000 		.4byte	0x119
 9017 05ae 2C       		.byte	0x2c
 9018 05af 08       		.uleb128 0x8
 9019 05b0 8F0C0000 		.4byte	.LASF90
 9020 05b4 0B       		.byte	0xb
 9021 05b5 D8       		.byte	0xd8
ARM GAS  /tmp/ccs3e2Sq.s 			page 160


 9022 05b6 19010000 		.4byte	0x119
 9023 05ba 30       		.byte	0x30
 9024 05bb 08       		.uleb128 0x8
 9025 05bc 940C0000 		.4byte	.LASF91
 9026 05c0 0B       		.byte	0xb
 9027 05c1 D9       		.byte	0xd9
 9028 05c2 19010000 		.4byte	0x119
 9029 05c6 34       		.byte	0x34
 9030 05c7 08       		.uleb128 0x8
 9031 05c8 8F080000 		.4byte	.LASF92
 9032 05cc 0B       		.byte	0xb
 9033 05cd DA       		.byte	0xda
 9034 05ce 19010000 		.4byte	0x119
 9035 05d2 38       		.byte	0x38
 9036 05d3 08       		.uleb128 0x8
 9037 05d4 31160000 		.4byte	.LASF93
 9038 05d8 0B       		.byte	0xb
 9039 05d9 DB       		.byte	0xdb
 9040 05da 19010000 		.4byte	0x119
 9041 05de 3C       		.byte	0x3c
 9042 05df 08       		.uleb128 0x8
 9043 05e0 36160000 		.4byte	.LASF94
 9044 05e4 0B       		.byte	0xb
 9045 05e5 DC       		.byte	0xdc
 9046 05e6 19010000 		.4byte	0x119
 9047 05ea 40       		.byte	0x40
 9048 05eb 08       		.uleb128 0x8
 9049 05ec 3B160000 		.4byte	.LASF95
 9050 05f0 0B       		.byte	0xb
 9051 05f1 DD       		.byte	0xdd
 9052 05f2 19010000 		.4byte	0x119
 9053 05f6 44       		.byte	0x44
 9054 05f7 08       		.uleb128 0x8
 9055 05f8 40160000 		.4byte	.LASF96
 9056 05fc 0B       		.byte	0xb
 9057 05fd DE       		.byte	0xde
 9058 05fe 19010000 		.4byte	0x119
 9059 0602 48       		.byte	0x48
 9060 0603 09       		.uleb128 0x9
 9061 0604 445200   		.ascii	"DR\000"
 9062 0607 0B       		.byte	0xb
 9063 0608 DF       		.byte	0xdf
 9064 0609 19010000 		.4byte	0x119
 9065 060d 4C       		.byte	0x4c
 9066 060e 00       		.byte	0
 9067 060f 03       		.uleb128 0x3
 9068 0610 1F0E0000 		.4byte	.LASF97
 9069 0614 0B       		.byte	0xb
 9070 0615 E0       		.byte	0xe0
 9071 0616 18050000 		.4byte	0x518
 9072 061a 15       		.uleb128 0x15
 9073 061b 10       		.byte	0x10
 9074 061c 0B       		.byte	0xb
 9075 061d EF       		.byte	0xef
 9076 061e 53060000 		.4byte	0x653
 9077 0622 09       		.uleb128 0x9
 9078 0623 54495200 		.ascii	"TIR\000"
ARM GAS  /tmp/ccs3e2Sq.s 			page 161


 9079 0627 0B       		.byte	0xb
 9080 0628 F1       		.byte	0xf1
 9081 0629 19010000 		.4byte	0x119
 9082 062d 00       		.byte	0
 9083 062e 08       		.uleb128 0x8
 9084 062f 040B0000 		.4byte	.LASF98
 9085 0633 0B       		.byte	0xb
 9086 0634 F2       		.byte	0xf2
 9087 0635 19010000 		.4byte	0x119
 9088 0639 04       		.byte	0x4
 9089 063a 08       		.uleb128 0x8
 9090 063b CB0F0000 		.4byte	.LASF99
 9091 063f 0B       		.byte	0xb
 9092 0640 F3       		.byte	0xf3
 9093 0641 19010000 		.4byte	0x119
 9094 0645 08       		.byte	0x8
 9095 0646 08       		.uleb128 0x8
 9096 0647 510E0000 		.4byte	.LASF100
 9097 064b 0B       		.byte	0xb
 9098 064c F4       		.byte	0xf4
 9099 064d 19010000 		.4byte	0x119
 9100 0651 0C       		.byte	0xc
 9101 0652 00       		.byte	0
 9102 0653 03       		.uleb128 0x3
 9103 0654 B7030000 		.4byte	.LASF101
 9104 0658 0B       		.byte	0xb
 9105 0659 F5       		.byte	0xf5
 9106 065a 1A060000 		.4byte	0x61a
 9107 065e 15       		.uleb128 0x15
 9108 065f 10       		.byte	0x10
 9109 0660 0B       		.byte	0xb
 9110 0661 FB       		.byte	0xfb
 9111 0662 98060000 		.4byte	0x698
 9112 0666 09       		.uleb128 0x9
 9113 0667 52495200 		.ascii	"RIR\000"
 9114 066b 0B       		.byte	0xb
 9115 066c FD       		.byte	0xfd
 9116 066d 19010000 		.4byte	0x119
 9117 0671 00       		.byte	0
 9118 0672 08       		.uleb128 0x8
 9119 0673 87130000 		.4byte	.LASF102
 9120 0677 0B       		.byte	0xb
 9121 0678 FE       		.byte	0xfe
 9122 0679 19010000 		.4byte	0x119
 9123 067d 04       		.byte	0x4
 9124 067e 08       		.uleb128 0x8
 9125 067f B3100000 		.4byte	.LASF103
 9126 0683 0B       		.byte	0xb
 9127 0684 FF       		.byte	0xff
 9128 0685 19010000 		.4byte	0x119
 9129 0689 08       		.byte	0x8
 9130 068a 0B       		.uleb128 0xb
 9131 068b 0F0F0000 		.4byte	.LASF104
 9132 068f 0B       		.byte	0xb
 9133 0690 0001     		.2byte	0x100
 9134 0692 19010000 		.4byte	0x119
 9135 0696 0C       		.byte	0xc
ARM GAS  /tmp/ccs3e2Sq.s 			page 162


 9136 0697 00       		.byte	0
 9137 0698 16       		.uleb128 0x16
 9138 0699 05130000 		.4byte	.LASF105
 9139 069d 0B       		.byte	0xb
 9140 069e 0101     		.2byte	0x101
 9141 06a0 5E060000 		.4byte	0x65e
 9142 06a4 17       		.uleb128 0x17
 9143 06a5 08       		.byte	0x8
 9144 06a6 0B       		.byte	0xb
 9145 06a7 0701     		.2byte	0x107
 9146 06a9 C8060000 		.4byte	0x6c8
 9147 06ad 0A       		.uleb128 0xa
 9148 06ae 46523100 		.ascii	"FR1\000"
 9149 06b2 0B       		.byte	0xb
 9150 06b3 0901     		.2byte	0x109
 9151 06b5 19010000 		.4byte	0x119
 9152 06b9 00       		.byte	0
 9153 06ba 0A       		.uleb128 0xa
 9154 06bb 46523200 		.ascii	"FR2\000"
 9155 06bf 0B       		.byte	0xb
 9156 06c0 0A01     		.2byte	0x10a
 9157 06c2 19010000 		.4byte	0x119
 9158 06c6 04       		.byte	0x4
 9159 06c7 00       		.byte	0
 9160 06c8 16       		.uleb128 0x16
 9161 06c9 090B0000 		.4byte	.LASF106
 9162 06cd 0B       		.byte	0xb
 9163 06ce 0B01     		.2byte	0x10b
 9164 06d0 A4060000 		.4byte	0x6a4
 9165 06d4 18       		.uleb128 0x18
 9166 06d5 2003     		.2byte	0x320
 9167 06d7 0B       		.byte	0xb
 9168 06d8 1101     		.2byte	0x111
 9169 06da 0A080000 		.4byte	0x80a
 9170 06de 0A       		.uleb128 0xa
 9171 06df 4D435200 		.ascii	"MCR\000"
 9172 06e3 0B       		.byte	0xb
 9173 06e4 1301     		.2byte	0x113
 9174 06e6 19010000 		.4byte	0x119
 9175 06ea 00       		.byte	0
 9176 06eb 0A       		.uleb128 0xa
 9177 06ec 4D535200 		.ascii	"MSR\000"
 9178 06f0 0B       		.byte	0xb
 9179 06f1 1401     		.2byte	0x114
 9180 06f3 19010000 		.4byte	0x119
 9181 06f7 04       		.byte	0x4
 9182 06f8 0A       		.uleb128 0xa
 9183 06f9 54535200 		.ascii	"TSR\000"
 9184 06fd 0B       		.byte	0xb
 9185 06fe 1501     		.2byte	0x115
 9186 0700 19010000 		.4byte	0x119
 9187 0704 08       		.byte	0x8
 9188 0705 0B       		.uleb128 0xb
 9189 0706 E1090000 		.4byte	.LASF107
 9190 070a 0B       		.byte	0xb
 9191 070b 1601     		.2byte	0x116
 9192 070d 19010000 		.4byte	0x119
ARM GAS  /tmp/ccs3e2Sq.s 			page 163


 9193 0711 0C       		.byte	0xc
 9194 0712 0B       		.uleb128 0xb
 9195 0713 6A0A0000 		.4byte	.LASF108
 9196 0717 0B       		.byte	0xb
 9197 0718 1701     		.2byte	0x117
 9198 071a 19010000 		.4byte	0x119
 9199 071e 10       		.byte	0x10
 9200 071f 0A       		.uleb128 0xa
 9201 0720 49455200 		.ascii	"IER\000"
 9202 0724 0B       		.byte	0xb
 9203 0725 1801     		.2byte	0x118
 9204 0727 19010000 		.4byte	0x119
 9205 072b 14       		.byte	0x14
 9206 072c 0A       		.uleb128 0xa
 9207 072d 45535200 		.ascii	"ESR\000"
 9208 0731 0B       		.byte	0xb
 9209 0732 1901     		.2byte	0x119
 9210 0734 19010000 		.4byte	0x119
 9211 0738 18       		.byte	0x18
 9212 0739 0A       		.uleb128 0xa
 9213 073a 42545200 		.ascii	"BTR\000"
 9214 073e 0B       		.byte	0xb
 9215 073f 1A01     		.2byte	0x11a
 9216 0741 19010000 		.4byte	0x119
 9217 0745 1C       		.byte	0x1c
 9218 0746 0B       		.uleb128 0xb
 9219 0747 9B140000 		.4byte	.LASF109
 9220 074b 0B       		.byte	0xb
 9221 074c 1B01     		.2byte	0x11b
 9222 074e 0A080000 		.4byte	0x80a
 9223 0752 20       		.byte	0x20
 9224 0753 19       		.uleb128 0x19
 9225 0754 BE0B0000 		.4byte	.LASF110
 9226 0758 0B       		.byte	0xb
 9227 0759 1C01     		.2byte	0x11c
 9228 075b 1A080000 		.4byte	0x81a
 9229 075f 8001     		.2byte	0x180
 9230 0761 19       		.uleb128 0x19
 9231 0762 4B170000 		.4byte	.LASF111
 9232 0766 0B       		.byte	0xb
 9233 0767 1D01     		.2byte	0x11d
 9234 0769 2A080000 		.4byte	0x82a
 9235 076d B001     		.2byte	0x1b0
 9236 076f 19       		.uleb128 0x19
 9237 0770 A5140000 		.4byte	.LASF112
 9238 0774 0B       		.byte	0xb
 9239 0775 1E01     		.2byte	0x11e
 9240 0777 3A080000 		.4byte	0x83a
 9241 077b D001     		.2byte	0x1d0
 9242 077d 1A       		.uleb128 0x1a
 9243 077e 464D5200 		.ascii	"FMR\000"
 9244 0782 0B       		.byte	0xb
 9245 0783 1F01     		.2byte	0x11f
 9246 0785 19010000 		.4byte	0x119
 9247 0789 0002     		.2byte	0x200
 9248 078b 19       		.uleb128 0x19
 9249 078c C9070000 		.4byte	.LASF113
ARM GAS  /tmp/ccs3e2Sq.s 			page 164


 9250 0790 0B       		.byte	0xb
 9251 0791 2001     		.2byte	0x120
 9252 0793 19010000 		.4byte	0x119
 9253 0797 0402     		.2byte	0x204
 9254 0799 19       		.uleb128 0x19
 9255 079a AF140000 		.4byte	.LASF114
 9256 079e 0B       		.byte	0xb
 9257 079f 2101     		.2byte	0x121
 9258 07a1 0E010000 		.4byte	0x10e
 9259 07a5 0802     		.2byte	0x208
 9260 07a7 19       		.uleb128 0x19
 9261 07a8 D8150000 		.4byte	.LASF115
 9262 07ac 0B       		.byte	0xb
 9263 07ad 2201     		.2byte	0x122
 9264 07af 19010000 		.4byte	0x119
 9265 07b3 0C02     		.2byte	0x20c
 9266 07b5 19       		.uleb128 0x19
 9267 07b6 B9140000 		.4byte	.LASF116
 9268 07ba 0B       		.byte	0xb
 9269 07bb 2301     		.2byte	0x123
 9270 07bd 0E010000 		.4byte	0x10e
 9271 07c1 1002     		.2byte	0x210
 9272 07c3 19       		.uleb128 0x19
 9273 07c4 FB100000 		.4byte	.LASF117
 9274 07c8 0B       		.byte	0xb
 9275 07c9 2401     		.2byte	0x124
 9276 07cb 19010000 		.4byte	0x119
 9277 07cf 1402     		.2byte	0x214
 9278 07d1 19       		.uleb128 0x19
 9279 07d2 C3140000 		.4byte	.LASF118
 9280 07d6 0B       		.byte	0xb
 9281 07d7 2501     		.2byte	0x125
 9282 07d9 0E010000 		.4byte	0x10e
 9283 07dd 1802     		.2byte	0x218
 9284 07df 19       		.uleb128 0x19
 9285 07e0 F2020000 		.4byte	.LASF119
 9286 07e4 0B       		.byte	0xb
 9287 07e5 2601     		.2byte	0x126
 9288 07e7 19010000 		.4byte	0x119
 9289 07eb 1C02     		.2byte	0x21c
 9290 07ed 19       		.uleb128 0x19
 9291 07ee CD140000 		.4byte	.LASF120
 9292 07f2 0B       		.byte	0xb
 9293 07f3 2701     		.2byte	0x127
 9294 07f5 B1040000 		.4byte	0x4b1
 9295 07f9 2002     		.2byte	0x220
 9296 07fb 19       		.uleb128 0x19
 9297 07fc 2C040000 		.4byte	.LASF121
 9298 0800 0B       		.byte	0xb
 9299 0801 2801     		.2byte	0x128
 9300 0803 4A080000 		.4byte	0x84a
 9301 0807 4002     		.2byte	0x240
 9302 0809 00       		.byte	0
 9303 080a 11       		.uleb128 0x11
 9304 080b 0E010000 		.4byte	0x10e
 9305 080f 1A080000 		.4byte	0x81a
 9306 0813 12       		.uleb128 0x12
ARM GAS  /tmp/ccs3e2Sq.s 			page 165


 9307 0814 3C000000 		.4byte	0x3c
 9308 0818 57       		.byte	0x57
 9309 0819 00       		.byte	0
 9310 081a 11       		.uleb128 0x11
 9311 081b 53060000 		.4byte	0x653
 9312 081f 2A080000 		.4byte	0x82a
 9313 0823 12       		.uleb128 0x12
 9314 0824 3C000000 		.4byte	0x3c
 9315 0828 02       		.byte	0x2
 9316 0829 00       		.byte	0
 9317 082a 11       		.uleb128 0x11
 9318 082b 98060000 		.4byte	0x698
 9319 082f 3A080000 		.4byte	0x83a
 9320 0833 12       		.uleb128 0x12
 9321 0834 3C000000 		.4byte	0x3c
 9322 0838 01       		.byte	0x1
 9323 0839 00       		.byte	0
 9324 083a 11       		.uleb128 0x11
 9325 083b 0E010000 		.4byte	0x10e
 9326 083f 4A080000 		.4byte	0x84a
 9327 0843 12       		.uleb128 0x12
 9328 0844 3C000000 		.4byte	0x3c
 9329 0848 0B       		.byte	0xb
 9330 0849 00       		.byte	0
 9331 084a 11       		.uleb128 0x11
 9332 084b C8060000 		.4byte	0x6c8
 9333 084f 5A080000 		.4byte	0x85a
 9334 0853 12       		.uleb128 0x12
 9335 0854 3C000000 		.4byte	0x3c
 9336 0858 1B       		.byte	0x1b
 9337 0859 00       		.byte	0
 9338 085a 16       		.uleb128 0x16
 9339 085b 0A090000 		.4byte	.LASF122
 9340 085f 0B       		.byte	0xb
 9341 0860 2901     		.2byte	0x129
 9342 0862 D4060000 		.4byte	0x6d4
 9343 0866 17       		.uleb128 0x17
 9344 0867 18       		.byte	0x18
 9345 0868 0B       		.byte	0xb
 9346 0869 7101     		.2byte	0x171
 9347 086b BD080000 		.4byte	0x8bd
 9348 086f 0A       		.uleb128 0xa
 9349 0870 435200   		.ascii	"CR\000"
 9350 0873 0B       		.byte	0xb
 9351 0874 7301     		.2byte	0x173
 9352 0876 19010000 		.4byte	0x119
 9353 087a 00       		.byte	0
 9354 087b 0B       		.uleb128 0xb
 9355 087c 7C150000 		.4byte	.LASF123
 9356 0880 0B       		.byte	0xb
 9357 0881 7401     		.2byte	0x174
 9358 0883 19010000 		.4byte	0x119
 9359 0887 04       		.byte	0x4
 9360 0888 0A       		.uleb128 0xa
 9361 0889 50415200 		.ascii	"PAR\000"
 9362 088d 0B       		.byte	0xb
 9363 088e 7501     		.2byte	0x175
ARM GAS  /tmp/ccs3e2Sq.s 			page 166


 9364 0890 19010000 		.4byte	0x119
 9365 0894 08       		.byte	0x8
 9366 0895 0B       		.uleb128 0xb
 9367 0896 C5020000 		.4byte	.LASF124
 9368 089a 0B       		.byte	0xb
 9369 089b 7601     		.2byte	0x176
 9370 089d 19010000 		.4byte	0x119
 9371 08a1 0C       		.byte	0xc
 9372 08a2 0B       		.uleb128 0xb
 9373 08a3 B5050000 		.4byte	.LASF125
 9374 08a7 0B       		.byte	0xb
 9375 08a8 7701     		.2byte	0x177
 9376 08aa 19010000 		.4byte	0x119
 9377 08ae 10       		.byte	0x10
 9378 08af 0A       		.uleb128 0xa
 9379 08b0 46435200 		.ascii	"FCR\000"
 9380 08b4 0B       		.byte	0xb
 9381 08b5 7801     		.2byte	0x178
 9382 08b7 19010000 		.4byte	0x119
 9383 08bb 14       		.byte	0x14
 9384 08bc 00       		.byte	0
 9385 08bd 16       		.uleb128 0x16
 9386 08be BA050000 		.4byte	.LASF126
 9387 08c2 0B       		.byte	0xb
 9388 08c3 7901     		.2byte	0x179
 9389 08c5 66080000 		.4byte	0x866
 9390 08c9 11       		.uleb128 0x11
 9391 08ca 19010000 		.4byte	0x119
 9392 08ce D9080000 		.4byte	0x8d9
 9393 08d2 12       		.uleb128 0x12
 9394 08d3 3C000000 		.4byte	0x3c
 9395 08d7 01       		.byte	0x1
 9396 08d8 00       		.byte	0
 9397 08d9 04       		.uleb128 0x4
 9398 08da C9080000 		.4byte	0x8c9
 9399 08de 11       		.uleb128 0x11
 9400 08df 19010000 		.4byte	0x119
 9401 08e3 EE080000 		.4byte	0x8ee
 9402 08e7 12       		.uleb128 0x12
 9403 08e8 3C000000 		.4byte	0x3c
 9404 08ec 03       		.byte	0x3
 9405 08ed 00       		.byte	0
 9406 08ee 04       		.uleb128 0x4
 9407 08ef DE080000 		.4byte	0x8de
 9408 08f3 17       		.uleb128 0x17
 9409 08f4 28       		.byte	0x28
 9410 08f5 0B       		.byte	0xb
 9411 08f6 6D02     		.2byte	0x26d
 9412 08f8 7E090000 		.4byte	0x97e
 9413 08fc 0A       		.uleb128 0xa
 9414 08fd 43523100 		.ascii	"CR1\000"
 9415 0901 0B       		.byte	0xb
 9416 0902 6F02     		.2byte	0x26f
 9417 0904 19010000 		.4byte	0x119
 9418 0908 00       		.byte	0
 9419 0909 0A       		.uleb128 0xa
 9420 090a 43523200 		.ascii	"CR2\000"
ARM GAS  /tmp/ccs3e2Sq.s 			page 167


 9421 090e 0B       		.byte	0xb
 9422 090f 7002     		.2byte	0x270
 9423 0911 19010000 		.4byte	0x119
 9424 0915 04       		.byte	0x4
 9425 0916 0B       		.uleb128 0xb
 9426 0917 681A0000 		.4byte	.LASF127
 9427 091b 0B       		.byte	0xb
 9428 091c 7102     		.2byte	0x271
 9429 091e 19010000 		.4byte	0x119
 9430 0922 08       		.byte	0x8
 9431 0923 0B       		.uleb128 0xb
 9432 0924 6D1A0000 		.4byte	.LASF128
 9433 0928 0B       		.byte	0xb
 9434 0929 7202     		.2byte	0x272
 9435 092b 19010000 		.4byte	0x119
 9436 092f 0C       		.byte	0xc
 9437 0930 0A       		.uleb128 0xa
 9438 0931 445200   		.ascii	"DR\000"
 9439 0934 0B       		.byte	0xb
 9440 0935 7302     		.2byte	0x273
 9441 0937 19010000 		.4byte	0x119
 9442 093b 10       		.byte	0x10
 9443 093c 0A       		.uleb128 0xa
 9444 093d 53523100 		.ascii	"SR1\000"
 9445 0941 0B       		.byte	0xb
 9446 0942 7402     		.2byte	0x274
 9447 0944 19010000 		.4byte	0x119
 9448 0948 14       		.byte	0x14
 9449 0949 0A       		.uleb128 0xa
 9450 094a 53523200 		.ascii	"SR2\000"
 9451 094e 0B       		.byte	0xb
 9452 094f 7502     		.2byte	0x275
 9453 0951 19010000 		.4byte	0x119
 9454 0955 18       		.byte	0x18
 9455 0956 0A       		.uleb128 0xa
 9456 0957 43435200 		.ascii	"CCR\000"
 9457 095b 0B       		.byte	0xb
 9458 095c 7602     		.2byte	0x276
 9459 095e 19010000 		.4byte	0x119
 9460 0962 1C       		.byte	0x1c
 9461 0963 0B       		.uleb128 0xb
 9462 0964 A7030000 		.4byte	.LASF129
 9463 0968 0B       		.byte	0xb
 9464 0969 7702     		.2byte	0x277
 9465 096b 19010000 		.4byte	0x119
 9466 096f 20       		.byte	0x20
 9467 0970 0B       		.uleb128 0xb
 9468 0971 34130000 		.4byte	.LASF130
 9469 0975 0B       		.byte	0xb
 9470 0976 7802     		.2byte	0x278
 9471 0978 19010000 		.4byte	0x119
 9472 097c 24       		.byte	0x24
 9473 097d 00       		.byte	0
 9474 097e 16       		.uleb128 0x16
 9475 097f 030F0000 		.4byte	.LASF131
 9476 0983 0B       		.byte	0xb
 9477 0984 7902     		.2byte	0x279
ARM GAS  /tmp/ccs3e2Sq.s 			page 168


 9478 0986 F3080000 		.4byte	0x8f3
 9479 098a 17       		.uleb128 0x17
 9480 098b 24       		.byte	0x24
 9481 098c 0B       		.byte	0xb
 9482 098d 1F03     		.2byte	0x31f
 9483 098f 070A0000 		.4byte	0xa07
 9484 0993 0A       		.uleb128 0xa
 9485 0994 43523100 		.ascii	"CR1\000"
 9486 0998 0B       		.byte	0xb
 9487 0999 2103     		.2byte	0x321
 9488 099b 19010000 		.4byte	0x119
 9489 099f 00       		.byte	0
 9490 09a0 0A       		.uleb128 0xa
 9491 09a1 43523200 		.ascii	"CR2\000"
 9492 09a5 0B       		.byte	0xb
 9493 09a6 2203     		.2byte	0x322
 9494 09a8 19010000 		.4byte	0x119
 9495 09ac 04       		.byte	0x4
 9496 09ad 0A       		.uleb128 0xa
 9497 09ae 535200   		.ascii	"SR\000"
 9498 09b1 0B       		.byte	0xb
 9499 09b2 2303     		.2byte	0x323
 9500 09b4 19010000 		.4byte	0x119
 9501 09b8 08       		.byte	0x8
 9502 09b9 0A       		.uleb128 0xa
 9503 09ba 445200   		.ascii	"DR\000"
 9504 09bd 0B       		.byte	0xb
 9505 09be 2403     		.2byte	0x324
 9506 09c0 19010000 		.4byte	0x119
 9507 09c4 0C       		.byte	0xc
 9508 09c5 0B       		.uleb128 0xb
 9509 09c6 77050000 		.4byte	.LASF132
 9510 09ca 0B       		.byte	0xb
 9511 09cb 2503     		.2byte	0x325
 9512 09cd 19010000 		.4byte	0x119
 9513 09d1 10       		.byte	0x10
 9514 09d2 0B       		.uleb128 0xb
 9515 09d3 25080000 		.4byte	.LASF133
 9516 09d7 0B       		.byte	0xb
 9517 09d8 2603     		.2byte	0x326
 9518 09da 19010000 		.4byte	0x119
 9519 09de 14       		.byte	0x14
 9520 09df 0B       		.uleb128 0xb
 9521 09e0 7A070000 		.4byte	.LASF134
 9522 09e4 0B       		.byte	0xb
 9523 09e5 2703     		.2byte	0x327
 9524 09e7 19010000 		.4byte	0x119
 9525 09eb 18       		.byte	0x18
 9526 09ec 0B       		.uleb128 0xb
 9527 09ed D0160000 		.4byte	.LASF135
 9528 09f1 0B       		.byte	0xb
 9529 09f2 2803     		.2byte	0x328
 9530 09f4 19010000 		.4byte	0x119
 9531 09f8 1C       		.byte	0x1c
 9532 09f9 0B       		.uleb128 0xb
 9533 09fa 4F050000 		.4byte	.LASF136
 9534 09fe 0B       		.byte	0xb
ARM GAS  /tmp/ccs3e2Sq.s 			page 169


 9535 09ff 2903     		.2byte	0x329
 9536 0a01 19010000 		.4byte	0x119
 9537 0a05 20       		.byte	0x20
 9538 0a06 00       		.byte	0
 9539 0a07 16       		.uleb128 0x16
 9540 0a08 89150000 		.4byte	.LASF137
 9541 0a0c 0B       		.byte	0xb
 9542 0a0d 2A03     		.2byte	0x32a
 9543 0a0f 8A090000 		.4byte	0x98a
 9544 0a13 17       		.uleb128 0x17
 9545 0a14 1C       		.byte	0x1c
 9546 0a15 0B       		.byte	0xb
 9547 0a16 4E03     		.2byte	0x34e
 9548 0a18 760A0000 		.4byte	0xa76
 9549 0a1c 0A       		.uleb128 0xa
 9550 0a1d 535200   		.ascii	"SR\000"
 9551 0a20 0B       		.byte	0xb
 9552 0a21 5003     		.2byte	0x350
 9553 0a23 19010000 		.4byte	0x119
 9554 0a27 00       		.byte	0
 9555 0a28 0A       		.uleb128 0xa
 9556 0a29 445200   		.ascii	"DR\000"
 9557 0a2c 0B       		.byte	0xb
 9558 0a2d 5103     		.2byte	0x351
 9559 0a2f 19010000 		.4byte	0x119
 9560 0a33 04       		.byte	0x4
 9561 0a34 0A       		.uleb128 0xa
 9562 0a35 42525200 		.ascii	"BRR\000"
 9563 0a39 0B       		.byte	0xb
 9564 0a3a 5203     		.2byte	0x352
 9565 0a3c 19010000 		.4byte	0x119
 9566 0a40 08       		.byte	0x8
 9567 0a41 0A       		.uleb128 0xa
 9568 0a42 43523100 		.ascii	"CR1\000"
 9569 0a46 0B       		.byte	0xb
 9570 0a47 5303     		.2byte	0x353
 9571 0a49 19010000 		.4byte	0x119
 9572 0a4d 0C       		.byte	0xc
 9573 0a4e 0A       		.uleb128 0xa
 9574 0a4f 43523200 		.ascii	"CR2\000"
 9575 0a53 0B       		.byte	0xb
 9576 0a54 5403     		.2byte	0x354
 9577 0a56 19010000 		.4byte	0x119
 9578 0a5a 10       		.byte	0x10
 9579 0a5b 0A       		.uleb128 0xa
 9580 0a5c 43523300 		.ascii	"CR3\000"
 9581 0a60 0B       		.byte	0xb
 9582 0a61 5503     		.2byte	0x355
 9583 0a63 19010000 		.4byte	0x119
 9584 0a67 14       		.byte	0x14
 9585 0a68 0B       		.uleb128 0xb
 9586 0a69 E9180000 		.4byte	.LASF138
 9587 0a6d 0B       		.byte	0xb
 9588 0a6e 5603     		.2byte	0x356
 9589 0a70 19010000 		.4byte	0x119
 9590 0a74 18       		.byte	0x18
 9591 0a75 00       		.byte	0
ARM GAS  /tmp/ccs3e2Sq.s 			page 170


 9592 0a76 16       		.uleb128 0x16
 9593 0a77 A80F0000 		.4byte	.LASF139
 9594 0a7b 0B       		.byte	0xb
 9595 0a7c 5703     		.2byte	0x357
 9596 0a7e 130A0000 		.4byte	0xa13
 9597 0a82 11       		.uleb128 0x11
 9598 0a83 19010000 		.4byte	0x119
 9599 0a87 920A0000 		.4byte	0xa92
 9600 0a8b 12       		.uleb128 0x12
 9601 0a8c 3C000000 		.4byte	0x3c
 9602 0a90 0E       		.byte	0xe
 9603 0a91 00       		.byte	0
 9604 0a92 04       		.uleb128 0x4
 9605 0a93 820A0000 		.4byte	0xa82
 9606 0a97 03       		.uleb128 0x3
 9607 0a98 E0100000 		.4byte	.LASF140
 9608 0a9c 0C       		.byte	0xc
 9609 0a9d 65       		.byte	0x65
 9610 0a9e 68030000 		.4byte	0x368
 9611 0aa2 03       		.uleb128 0x3
 9612 0aa3 39060000 		.4byte	.LASF141
 9613 0aa7 0C       		.byte	0xc
 9614 0aa8 6D       		.byte	0x6d
 9615 0aa9 1E010000 		.4byte	0x11e
 9616 0aad 07       		.uleb128 0x7
 9617 0aae DE0B0000 		.4byte	.LASF142
 9618 0ab2 04       		.byte	0x4
 9619 0ab3 0C       		.byte	0xc
 9620 0ab4 89       		.byte	0x89
 9621 0ab5 C50A0000 		.4byte	0xac5
 9622 0ab9 09       		.uleb128 0x9
 9623 0aba 737000   		.ascii	"sp\000"
 9624 0abd 0C       		.byte	0xc
 9625 0abe 8A       		.byte	0x8a
 9626 0abf 110C0000 		.4byte	0xc11
 9627 0ac3 00       		.byte	0
 9628 0ac4 00       		.byte	0
 9629 0ac5 0D       		.uleb128 0xd
 9630 0ac6 13000000 		.4byte	.LASF143
 9631 0aca 64       		.byte	0x64
 9632 0acb 0D       		.byte	0xd
 9633 0acc 5901     		.2byte	0x159
 9634 0ace 110C0000 		.4byte	0xc11
 9635 0ad2 0A       		.uleb128 0xa
 9636 0ad3 73313600 		.ascii	"s16\000"
 9637 0ad7 0D       		.byte	0xd
 9638 0ad8 5B01     		.2byte	0x15b
 9639 0ada 970A0000 		.4byte	0xa97
 9640 0ade 00       		.byte	0
 9641 0adf 0A       		.uleb128 0xa
 9642 0ae0 73313700 		.ascii	"s17\000"
 9643 0ae4 0D       		.byte	0xd
 9644 0ae5 5C01     		.2byte	0x15c
 9645 0ae7 970A0000 		.4byte	0xa97
 9646 0aeb 04       		.byte	0x4
 9647 0aec 0A       		.uleb128 0xa
 9648 0aed 73313800 		.ascii	"s18\000"
ARM GAS  /tmp/ccs3e2Sq.s 			page 171


 9649 0af1 0D       		.byte	0xd
 9650 0af2 5D01     		.2byte	0x15d
 9651 0af4 970A0000 		.4byte	0xa97
 9652 0af8 08       		.byte	0x8
 9653 0af9 0A       		.uleb128 0xa
 9654 0afa 73313900 		.ascii	"s19\000"
 9655 0afe 0D       		.byte	0xd
 9656 0aff 5E01     		.2byte	0x15e
 9657 0b01 970A0000 		.4byte	0xa97
 9658 0b05 0C       		.byte	0xc
 9659 0b06 0A       		.uleb128 0xa
 9660 0b07 73323000 		.ascii	"s20\000"
 9661 0b0b 0D       		.byte	0xd
 9662 0b0c 5F01     		.2byte	0x15f
 9663 0b0e 970A0000 		.4byte	0xa97
 9664 0b12 10       		.byte	0x10
 9665 0b13 0A       		.uleb128 0xa
 9666 0b14 73323100 		.ascii	"s21\000"
 9667 0b18 0D       		.byte	0xd
 9668 0b19 6001     		.2byte	0x160
 9669 0b1b 970A0000 		.4byte	0xa97
 9670 0b1f 14       		.byte	0x14
 9671 0b20 0A       		.uleb128 0xa
 9672 0b21 73323200 		.ascii	"s22\000"
 9673 0b25 0D       		.byte	0xd
 9674 0b26 6101     		.2byte	0x161
 9675 0b28 970A0000 		.4byte	0xa97
 9676 0b2c 18       		.byte	0x18
 9677 0b2d 0A       		.uleb128 0xa
 9678 0b2e 73323300 		.ascii	"s23\000"
 9679 0b32 0D       		.byte	0xd
 9680 0b33 6201     		.2byte	0x162
 9681 0b35 970A0000 		.4byte	0xa97
 9682 0b39 1C       		.byte	0x1c
 9683 0b3a 0A       		.uleb128 0xa
 9684 0b3b 73323400 		.ascii	"s24\000"
 9685 0b3f 0D       		.byte	0xd
 9686 0b40 6301     		.2byte	0x163
 9687 0b42 970A0000 		.4byte	0xa97
 9688 0b46 20       		.byte	0x20
 9689 0b47 0A       		.uleb128 0xa
 9690 0b48 73323500 		.ascii	"s25\000"
 9691 0b4c 0D       		.byte	0xd
 9692 0b4d 6401     		.2byte	0x164
 9693 0b4f 970A0000 		.4byte	0xa97
 9694 0b53 24       		.byte	0x24
 9695 0b54 0A       		.uleb128 0xa
 9696 0b55 73323600 		.ascii	"s26\000"
 9697 0b59 0D       		.byte	0xd
 9698 0b5a 6501     		.2byte	0x165
 9699 0b5c 970A0000 		.4byte	0xa97
 9700 0b60 28       		.byte	0x28
 9701 0b61 0A       		.uleb128 0xa
 9702 0b62 73323700 		.ascii	"s27\000"
 9703 0b66 0D       		.byte	0xd
 9704 0b67 6601     		.2byte	0x166
 9705 0b69 970A0000 		.4byte	0xa97
ARM GAS  /tmp/ccs3e2Sq.s 			page 172


 9706 0b6d 2C       		.byte	0x2c
 9707 0b6e 0A       		.uleb128 0xa
 9708 0b6f 73323800 		.ascii	"s28\000"
 9709 0b73 0D       		.byte	0xd
 9710 0b74 6701     		.2byte	0x167
 9711 0b76 970A0000 		.4byte	0xa97
 9712 0b7a 30       		.byte	0x30
 9713 0b7b 0A       		.uleb128 0xa
 9714 0b7c 73323900 		.ascii	"s29\000"
 9715 0b80 0D       		.byte	0xd
 9716 0b81 6801     		.2byte	0x168
 9717 0b83 970A0000 		.4byte	0xa97
 9718 0b87 34       		.byte	0x34
 9719 0b88 0A       		.uleb128 0xa
 9720 0b89 73333000 		.ascii	"s30\000"
 9721 0b8d 0D       		.byte	0xd
 9722 0b8e 6901     		.2byte	0x169
 9723 0b90 970A0000 		.4byte	0xa97
 9724 0b94 38       		.byte	0x38
 9725 0b95 0A       		.uleb128 0xa
 9726 0b96 73333100 		.ascii	"s31\000"
 9727 0b9a 0D       		.byte	0xd
 9728 0b9b 6A01     		.2byte	0x16a
 9729 0b9d 970A0000 		.4byte	0xa97
 9730 0ba1 3C       		.byte	0x3c
 9731 0ba2 0A       		.uleb128 0xa
 9732 0ba3 723400   		.ascii	"r4\000"
 9733 0ba6 0D       		.byte	0xd
 9734 0ba7 6C01     		.2byte	0x16c
 9735 0ba9 970A0000 		.4byte	0xa97
 9736 0bad 40       		.byte	0x40
 9737 0bae 0A       		.uleb128 0xa
 9738 0baf 723500   		.ascii	"r5\000"
 9739 0bb2 0D       		.byte	0xd
 9740 0bb3 6D01     		.2byte	0x16d
 9741 0bb5 970A0000 		.4byte	0xa97
 9742 0bb9 44       		.byte	0x44
 9743 0bba 0A       		.uleb128 0xa
 9744 0bbb 723600   		.ascii	"r6\000"
 9745 0bbe 0D       		.byte	0xd
 9746 0bbf 6E01     		.2byte	0x16e
 9747 0bc1 970A0000 		.4byte	0xa97
 9748 0bc5 48       		.byte	0x48
 9749 0bc6 0A       		.uleb128 0xa
 9750 0bc7 723700   		.ascii	"r7\000"
 9751 0bca 0D       		.byte	0xd
 9752 0bcb 6F01     		.2byte	0x16f
 9753 0bcd 970A0000 		.4byte	0xa97
 9754 0bd1 4C       		.byte	0x4c
 9755 0bd2 0A       		.uleb128 0xa
 9756 0bd3 723800   		.ascii	"r8\000"
 9757 0bd6 0D       		.byte	0xd
 9758 0bd7 7001     		.2byte	0x170
 9759 0bd9 970A0000 		.4byte	0xa97
 9760 0bdd 50       		.byte	0x50
 9761 0bde 0A       		.uleb128 0xa
 9762 0bdf 723900   		.ascii	"r9\000"
ARM GAS  /tmp/ccs3e2Sq.s 			page 173


 9763 0be2 0D       		.byte	0xd
 9764 0be3 7101     		.2byte	0x171
 9765 0be5 970A0000 		.4byte	0xa97
 9766 0be9 54       		.byte	0x54
 9767 0bea 0A       		.uleb128 0xa
 9768 0beb 72313000 		.ascii	"r10\000"
 9769 0bef 0D       		.byte	0xd
 9770 0bf0 7201     		.2byte	0x172
 9771 0bf2 970A0000 		.4byte	0xa97
 9772 0bf6 58       		.byte	0x58
 9773 0bf7 0A       		.uleb128 0xa
 9774 0bf8 72313100 		.ascii	"r11\000"
 9775 0bfc 0D       		.byte	0xd
 9776 0bfd 7301     		.2byte	0x173
 9777 0bff 970A0000 		.4byte	0xa97
 9778 0c03 5C       		.byte	0x5c
 9779 0c04 0A       		.uleb128 0xa
 9780 0c05 6C7200   		.ascii	"lr\000"
 9781 0c08 0D       		.byte	0xd
 9782 0c09 7401     		.2byte	0x174
 9783 0c0b 970A0000 		.4byte	0xa97
 9784 0c0f 60       		.byte	0x60
 9785 0c10 00       		.byte	0
 9786 0c11 0C       		.uleb128 0xc
 9787 0c12 04       		.byte	0x4
 9788 0c13 C50A0000 		.4byte	0xac5
 9789 0c17 17       		.uleb128 0x17
 9790 0c18 60       		.byte	0x60
 9791 0c19 0E       		.byte	0xe
 9792 0c1a F501     		.2byte	0x1f5
 9793 0c1c 230D0000 		.4byte	0xd23
 9794 0c20 0A       		.uleb128 0xa
 9795 0c21 43523100 		.ascii	"CR1\000"
 9796 0c25 0E       		.byte	0xe
 9797 0c26 F601     		.2byte	0x1f6
 9798 0c28 19010000 		.4byte	0x119
 9799 0c2c 00       		.byte	0
 9800 0c2d 0A       		.uleb128 0xa
 9801 0c2e 43523200 		.ascii	"CR2\000"
 9802 0c32 0E       		.byte	0xe
 9803 0c33 F701     		.2byte	0x1f7
 9804 0c35 19010000 		.4byte	0x119
 9805 0c39 04       		.byte	0x4
 9806 0c3a 0B       		.uleb128 0xb
 9807 0c3b 95150000 		.4byte	.LASF144
 9808 0c3f 0E       		.byte	0xe
 9809 0c40 F801     		.2byte	0x1f8
 9810 0c42 19010000 		.4byte	0x119
 9811 0c46 08       		.byte	0x8
 9812 0c47 0B       		.uleb128 0xb
 9813 0c48 1A070000 		.4byte	.LASF145
 9814 0c4c 0E       		.byte	0xe
 9815 0c4d F901     		.2byte	0x1f9
 9816 0c4f 19010000 		.4byte	0x119
 9817 0c53 0C       		.byte	0xc
 9818 0c54 0A       		.uleb128 0xa
 9819 0c55 535200   		.ascii	"SR\000"
ARM GAS  /tmp/ccs3e2Sq.s 			page 174


 9820 0c58 0E       		.byte	0xe
 9821 0c59 FA01     		.2byte	0x1fa
 9822 0c5b 19010000 		.4byte	0x119
 9823 0c5f 10       		.byte	0x10
 9824 0c60 0A       		.uleb128 0xa
 9825 0c61 45475200 		.ascii	"EGR\000"
 9826 0c65 0E       		.byte	0xe
 9827 0c66 FB01     		.2byte	0x1fb
 9828 0c68 19010000 		.4byte	0x119
 9829 0c6c 14       		.byte	0x14
 9830 0c6d 0B       		.uleb128 0xb
 9831 0c6e 20190000 		.4byte	.LASF146
 9832 0c72 0E       		.byte	0xe
 9833 0c73 FC01     		.2byte	0x1fc
 9834 0c75 19010000 		.4byte	0x119
 9835 0c79 18       		.byte	0x18
 9836 0c7a 0B       		.uleb128 0xb
 9837 0c7b 26190000 		.4byte	.LASF147
 9838 0c7f 0E       		.byte	0xe
 9839 0c80 FD01     		.2byte	0x1fd
 9840 0c82 19010000 		.4byte	0x119
 9841 0c86 1C       		.byte	0x1c
 9842 0c87 0B       		.uleb128 0xb
 9843 0c88 4A050000 		.4byte	.LASF148
 9844 0c8c 0E       		.byte	0xe
 9845 0c8d FE01     		.2byte	0x1fe
 9846 0c8f 19010000 		.4byte	0x119
 9847 0c93 20       		.byte	0x20
 9848 0c94 0A       		.uleb128 0xa
 9849 0c95 434E5400 		.ascii	"CNT\000"
 9850 0c99 0E       		.byte	0xe
 9851 0c9a FF01     		.2byte	0x1ff
 9852 0c9c 19010000 		.4byte	0x119
 9853 0ca0 24       		.byte	0x24
 9854 0ca1 0A       		.uleb128 0xa
 9855 0ca2 50534300 		.ascii	"PSC\000"
 9856 0ca6 0E       		.byte	0xe
 9857 0ca7 0002     		.2byte	0x200
 9858 0ca9 19010000 		.4byte	0x119
 9859 0cad 28       		.byte	0x28
 9860 0cae 0A       		.uleb128 0xa
 9861 0caf 41525200 		.ascii	"ARR\000"
 9862 0cb3 0E       		.byte	0xe
 9863 0cb4 0102     		.2byte	0x201
 9864 0cb6 19010000 		.4byte	0x119
 9865 0cba 2C       		.byte	0x2c
 9866 0cbb 0A       		.uleb128 0xa
 9867 0cbc 52435200 		.ascii	"RCR\000"
 9868 0cc0 0E       		.byte	0xe
 9869 0cc1 0202     		.2byte	0x202
 9870 0cc3 19010000 		.4byte	0x119
 9871 0cc7 30       		.byte	0x30
 9872 0cc8 0A       		.uleb128 0xa
 9873 0cc9 43435200 		.ascii	"CCR\000"
 9874 0ccd 0E       		.byte	0xe
 9875 0cce 0302     		.2byte	0x203
 9876 0cd0 EE080000 		.4byte	0x8ee
ARM GAS  /tmp/ccs3e2Sq.s 			page 175


 9877 0cd4 34       		.byte	0x34
 9878 0cd5 0B       		.uleb128 0xb
 9879 0cd6 40010000 		.4byte	.LASF149
 9880 0cda 0E       		.byte	0xe
 9881 0cdb 0402     		.2byte	0x204
 9882 0cdd 19010000 		.4byte	0x119
 9883 0ce1 44       		.byte	0x44
 9884 0ce2 0A       		.uleb128 0xa
 9885 0ce3 44435200 		.ascii	"DCR\000"
 9886 0ce7 0E       		.byte	0xe
 9887 0ce8 0502     		.2byte	0x205
 9888 0cea 19010000 		.4byte	0x119
 9889 0cee 48       		.byte	0x48
 9890 0cef 0B       		.uleb128 0xb
 9891 0cf0 1E0F0000 		.4byte	.LASF150
 9892 0cf4 0E       		.byte	0xe
 9893 0cf5 0602     		.2byte	0x206
 9894 0cf7 19010000 		.4byte	0x119
 9895 0cfb 4C       		.byte	0x4c
 9896 0cfc 0A       		.uleb128 0xa
 9897 0cfd 4F5200   		.ascii	"OR\000"
 9898 0d00 0E       		.byte	0xe
 9899 0d01 0702     		.2byte	0x207
 9900 0d03 19010000 		.4byte	0x119
 9901 0d07 50       		.byte	0x50
 9902 0d08 0B       		.uleb128 0xb
 9903 0d09 2C190000 		.4byte	.LASF151
 9904 0d0d 0E       		.byte	0xe
 9905 0d0e 0802     		.2byte	0x208
 9906 0d10 19010000 		.4byte	0x119
 9907 0d14 54       		.byte	0x54
 9908 0d15 0B       		.uleb128 0xb
 9909 0d16 A60D0000 		.4byte	.LASF152
 9910 0d1a 0E       		.byte	0xe
 9911 0d1b 0902     		.2byte	0x209
 9912 0d1d D9080000 		.4byte	0x8d9
 9913 0d21 58       		.byte	0x58
 9914 0d22 00       		.byte	0
 9915 0d23 16       		.uleb128 0x16
 9916 0d24 1C150000 		.4byte	.LASF153
 9917 0d28 0E       		.byte	0xe
 9918 0d29 0A02     		.2byte	0x20a
 9919 0d2b 170C0000 		.4byte	0xc17
 9920 0d2f 15       		.uleb128 0x15
 9921 0d30 04       		.byte	0x4
 9922 0d31 0F       		.byte	0xf
 9923 0d32 38       		.byte	0x38
 9924 0d33 440D0000 		.4byte	0xd44
 9925 0d37 08       		.uleb128 0x8
 9926 0d38 64150000 		.4byte	.LASF154
 9927 0d3c 0F       		.byte	0xf
 9928 0d3d 3C       		.byte	0x3c
 9929 0d3e 29010000 		.4byte	0x129
 9930 0d42 00       		.byte	0
 9931 0d43 00       		.byte	0
 9932 0d44 03       		.uleb128 0x3
 9933 0d45 CF180000 		.4byte	.LASF155
ARM GAS  /tmp/ccs3e2Sq.s 			page 176


 9934 0d49 0F       		.byte	0xf
 9935 0d4a 3D       		.byte	0x3d
 9936 0d4b 2F0D0000 		.4byte	0xd2f
 9937 0d4f 1B       		.uleb128 0x1b
 9938 0d50 04       		.byte	0x4
 9939 0d51 07       		.byte	0x7
 9940 0d52 C6       		.byte	0xc6
 9941 0d53 B10D0000 		.4byte	0xdb1
 9942 0d57 1C       		.uleb128 0x1c
 9943 0d58 F30A0000 		.4byte	.LASF156
 9944 0d5c 07       		.byte	0x7
 9945 0d5d CD       		.byte	0xcd
 9946 0d5e 60010000 		.4byte	0x160
 9947 0d62 1C       		.uleb128 0x1c
 9948 0d63 AB090000 		.4byte	.LASF157
 9949 0d67 07       		.byte	0x7
 9950 0d68 D4       		.byte	0xd4
 9951 0d69 60010000 		.4byte	0x160
 9952 0d6d 1C       		.uleb128 0x1c
 9953 0d6e 1D130000 		.4byte	.LASF158
 9954 0d72 07       		.byte	0x7
 9955 0d73 DB       		.byte	0xdb
 9956 0d74 68030000 		.4byte	0x368
 9957 0d78 1C       		.uleb128 0x1c
 9958 0d79 3E100000 		.4byte	.LASF159
 9959 0d7d 07       		.byte	0x7
 9960 0d7e E2       		.byte	0xe2
 9961 0d7f B10D0000 		.4byte	0xdb1
 9962 0d83 1C       		.uleb128 0x1c
 9963 0d84 0B000000 		.4byte	.LASF160
 9964 0d88 07       		.byte	0x7
 9965 0d89 E7       		.byte	0xe7
 9966 0d8a 60010000 		.4byte	0x160
 9967 0d8e 1C       		.uleb128 0x1c
 9968 0d8f A9000000 		.4byte	.LASF161
 9969 0d93 07       		.byte	0x7
 9970 0d94 F0       		.byte	0xf0
 9971 0d95 DC0D0000 		.4byte	0xddc
 9972 0d99 1C       		.uleb128 0x1c
 9973 0d9a 56130000 		.4byte	.LASF162
 9974 0d9e 07       		.byte	0x7
 9975 0d9f F9       		.byte	0xf9
 9976 0da0 130E0000 		.4byte	0xe13
 9977 0da4 1D       		.uleb128 0x1d
 9978 0da5 BE150000 		.4byte	.LASF163
 9979 0da9 07       		.byte	0x7
 9980 0daa 0101     		.2byte	0x101
 9981 0dac 6B010000 		.4byte	0x16b
 9982 0db0 00       		.byte	0
 9983 0db1 0C       		.uleb128 0xc
 9984 0db2 04       		.byte	0x4
 9985 0db3 80020000 		.4byte	0x280
 9986 0db7 07       		.uleb128 0x7
 9987 0db8 4F0F0000 		.4byte	.LASF164
 9988 0dbc 0C       		.byte	0xc
 9989 0dbd 10       		.byte	0x10
 9990 0dbe 34       		.byte	0x34
ARM GAS  /tmp/ccs3e2Sq.s 			page 177


 9991 0dbf DC0D0000 		.4byte	0xddc
 9992 0dc3 08       		.uleb128 0x8
 9993 0dc4 33150000 		.4byte	.LASF34
 9994 0dc8 10       		.byte	0x10
 9995 0dc9 35       		.byte	0x35
 9996 0dca B5020000 		.4byte	0x2b5
 9997 0dce 00       		.byte	0
 9998 0dcf 09       		.uleb128 0x9
 9999 0dd0 636E7400 		.ascii	"cnt\000"
 10000 0dd4 10       		.byte	0x10
 10001 0dd5 37       		.byte	0x37
 10002 0dd6 81010000 		.4byte	0x181
 10003 0dda 08       		.byte	0x8
 10004 0ddb 00       		.byte	0
 10005 0ddc 0C       		.uleb128 0xc
 10006 0ddd 04       		.byte	0x4
 10007 0dde B70D0000 		.4byte	0xdb7
 10008 0de2 07       		.uleb128 0x7
 10009 0de3 3A080000 		.4byte	.LASF165
 10010 0de7 10       		.byte	0x10
 10011 0de8 11       		.byte	0x11
 10012 0de9 39       		.byte	0x39
 10013 0dea 130E0000 		.4byte	0xe13
 10014 0dee 08       		.uleb128 0x8
 10015 0def 33150000 		.4byte	.LASF34
 10016 0df3 11       		.byte	0x11
 10017 0df4 3A       		.byte	0x3a
 10018 0df5 B5020000 		.4byte	0x2b5
 10019 0df9 00       		.byte	0
 10020 0dfa 08       		.uleb128 0x8
 10021 0dfb 04090000 		.4byte	.LASF166
 10022 0dff 11       		.byte	0x11
 10023 0e00 3C       		.byte	0x3c
 10024 0e01 8B020000 		.4byte	0x28b
 10025 0e05 08       		.byte	0x8
 10026 0e06 08       		.uleb128 0x8
 10027 0e07 82010000 		.4byte	.LASF53
 10028 0e0b 11       		.byte	0x11
 10029 0e0c 3E       		.byte	0x3e
 10030 0e0d 750F0000 		.4byte	0xf75
 10031 0e11 0C       		.byte	0xc
 10032 0e12 00       		.byte	0
 10033 0e13 0C       		.uleb128 0xc
 10034 0e14 04       		.byte	0x4
 10035 0e15 E20D0000 		.4byte	0xde2
 10036 0e19 0C       		.uleb128 0xc
 10037 0e1a 04       		.byte	0x4
 10038 0e1b 2B0E0000 		.4byte	0xe2b
 10039 0e1f 04       		.uleb128 0x4
 10040 0e20 190E0000 		.4byte	0xe19
 10041 0e24 05       		.uleb128 0x5
 10042 0e25 01       		.byte	0x1
 10043 0e26 08       		.byte	0x8
 10044 0e27 7F110000 		.4byte	.LASF167
 10045 0e2b 06       		.uleb128 0x6
 10046 0e2c 240E0000 		.4byte	0xe24
 10047 0e30 0C       		.uleb128 0xc
ARM GAS  /tmp/ccs3e2Sq.s 			page 178


 10048 0e31 04       		.byte	0x4
 10049 0e32 A20A0000 		.4byte	0xaa2
 10050 0e36 0C       		.uleb128 0xc
 10051 0e37 04       		.byte	0x4
 10052 0e38 6A030000 		.4byte	0x36a
 10053 0e3c 1E       		.uleb128 0x1e
 10054 0e3d 636800   		.ascii	"ch\000"
 10055 0e40 07       		.byte	0x7
 10056 0e41 C701     		.2byte	0x1c7
 10057 0e43 37040000 		.4byte	0x437
 10058 0e47 11       		.uleb128 0x11
 10059 0e48 A20A0000 		.4byte	0xaa2
 10060 0e4c 520E0000 		.4byte	0xe52
 10061 0e50 1F       		.uleb128 0x1f
 10062 0e51 00       		.byte	0
 10063 0e52 13       		.uleb128 0x13
 10064 0e53 EC080000 		.4byte	.LASF168
 10065 0e57 12       		.byte	0x12
 10066 0e58 1701     		.2byte	0x117
 10067 0e5a 470E0000 		.4byte	0xe47
 10068 0e5e 15       		.uleb128 0x15
 10069 0e5f 16       		.byte	0x16
 10070 0e60 13       		.byte	0x13
 10071 0e61 34       		.byte	0x34
 10072 0e62 3F0F0000 		.4byte	0xf3f
 10073 0e66 08       		.uleb128 0x8
 10074 0e67 33090000 		.4byte	.LASF169
 10075 0e6b 13       		.byte	0x13
 10076 0e6c 35       		.byte	0x35
 10077 0e6d 3F0F0000 		.4byte	0xf3f
 10078 0e71 00       		.byte	0
 10079 0e72 08       		.uleb128 0x8
 10080 0e73 F5040000 		.4byte	.LASF170
 10081 0e77 13       		.byte	0x13
 10082 0e78 36       		.byte	0x36
 10083 0e79 C9000000 		.4byte	0xc9
 10084 0e7d 04       		.byte	0x4
 10085 0e7e 08       		.uleb128 0x8
 10086 0e7f E7080000 		.4byte	.LASF171
 10087 0e83 13       		.byte	0x13
 10088 0e84 37       		.byte	0x37
 10089 0e85 C9000000 		.4byte	0xc9
 10090 0e89 05       		.byte	0x5
 10091 0e8a 08       		.uleb128 0x8
 10092 0e8b 00190000 		.4byte	.LASF172
 10093 0e8f 13       		.byte	0x13
 10094 0e90 38       		.byte	0x38
 10095 0e91 E9000000 		.4byte	0xe9
 10096 0e95 06       		.byte	0x6
 10097 0e96 08       		.uleb128 0x8
 10098 0e97 450A0000 		.4byte	.LASF173
 10099 0e9b 13       		.byte	0x13
 10100 0e9c 39       		.byte	0x39
 10101 0e9d C9000000 		.4byte	0xc9
 10102 0ea1 08       		.byte	0x8
 10103 0ea2 08       		.uleb128 0x8
 10104 0ea3 E3020000 		.4byte	.LASF174
ARM GAS  /tmp/ccs3e2Sq.s 			page 179


 10105 0ea7 13       		.byte	0x13
 10106 0ea8 3A       		.byte	0x3a
 10107 0ea9 C9000000 		.4byte	0xc9
 10108 0ead 09       		.byte	0x9
 10109 0eae 08       		.uleb128 0x8
 10110 0eaf 9A150000 		.4byte	.LASF175
 10111 0eb3 13       		.byte	0x13
 10112 0eb4 3B       		.byte	0x3b
 10113 0eb5 C9000000 		.4byte	0xc9
 10114 0eb9 0A       		.byte	0xa
 10115 0eba 08       		.uleb128 0x8
 10116 0ebb 720B0000 		.4byte	.LASF176
 10117 0ebf 13       		.byte	0x13
 10118 0ec0 3C       		.byte	0x3c
 10119 0ec1 C9000000 		.4byte	0xc9
 10120 0ec5 0B       		.byte	0xb
 10121 0ec6 08       		.uleb128 0x8
 10122 0ec7 870E0000 		.4byte	.LASF177
 10123 0ecb 13       		.byte	0x13
 10124 0ecc 3D       		.byte	0x3d
 10125 0ecd C9000000 		.4byte	0xc9
 10126 0ed1 0C       		.byte	0xc
 10127 0ed2 08       		.uleb128 0x8
 10128 0ed3 08150000 		.4byte	.LASF178
 10129 0ed7 13       		.byte	0x13
 10130 0ed8 3E       		.byte	0x3e
 10131 0ed9 C9000000 		.4byte	0xc9
 10132 0edd 0D       		.byte	0xd
 10133 0ede 08       		.uleb128 0x8
 10134 0edf 6A110000 		.4byte	.LASF179
 10135 0ee3 13       		.byte	0x13
 10136 0ee4 3F       		.byte	0x3f
 10137 0ee5 C9000000 		.4byte	0xc9
 10138 0ee9 0E       		.byte	0xe
 10139 0eea 08       		.uleb128 0x8
 10140 0eeb 6D160000 		.4byte	.LASF180
 10141 0eef 13       		.byte	0x13
 10142 0ef0 40       		.byte	0x40
 10143 0ef1 C9000000 		.4byte	0xc9
 10144 0ef5 0F       		.byte	0xf
 10145 0ef6 08       		.uleb128 0x8
 10146 0ef7 96100000 		.4byte	.LASF181
 10147 0efb 13       		.byte	0x13
 10148 0efc 41       		.byte	0x41
 10149 0efd C9000000 		.4byte	0xc9
 10150 0f01 10       		.byte	0x10
 10151 0f02 08       		.uleb128 0x8
 10152 0f03 7B120000 		.4byte	.LASF182
 10153 0f07 13       		.byte	0x13
 10154 0f08 42       		.byte	0x42
 10155 0f09 C9000000 		.4byte	0xc9
 10156 0f0d 11       		.byte	0x11
 10157 0f0e 08       		.uleb128 0x8
 10158 0f0f 5C0F0000 		.4byte	.LASF183
 10159 0f13 13       		.byte	0x13
 10160 0f14 43       		.byte	0x43
 10161 0f15 C9000000 		.4byte	0xc9
ARM GAS  /tmp/ccs3e2Sq.s 			page 180


 10162 0f19 12       		.byte	0x12
 10163 0f1a 08       		.uleb128 0x8
 10164 0f1b BA0E0000 		.4byte	.LASF184
 10165 0f1f 13       		.byte	0x13
 10166 0f20 44       		.byte	0x44
 10167 0f21 C9000000 		.4byte	0xc9
 10168 0f25 13       		.byte	0x13
 10169 0f26 08       		.uleb128 0x8
 10170 0f27 D4100000 		.4byte	.LASF185
 10171 0f2b 13       		.byte	0x13
 10172 0f2c 45       		.byte	0x45
 10173 0f2d C9000000 		.4byte	0xc9
 10174 0f31 14       		.byte	0x14
 10175 0f32 08       		.uleb128 0x8
 10176 0f33 780E0000 		.4byte	.LASF186
 10177 0f37 13       		.byte	0x13
 10178 0f38 46       		.byte	0x46
 10179 0f39 C9000000 		.4byte	0xc9
 10180 0f3d 15       		.byte	0x15
 10181 0f3e 00       		.byte	0
 10182 0f3f 11       		.uleb128 0x11
 10183 0f40 240E0000 		.4byte	0xe24
 10184 0f44 4F0F0000 		.4byte	0xf4f
 10185 0f48 12       		.uleb128 0x12
 10186 0f49 3C000000 		.4byte	0x3c
 10187 0f4d 03       		.byte	0x3
 10188 0f4e 00       		.byte	0
 10189 0f4f 03       		.uleb128 0x3
 10190 0f50 26140000 		.4byte	.LASF187
 10191 0f54 13       		.byte	0x13
 10192 0f55 47       		.byte	0x47
 10193 0f56 5E0E0000 		.4byte	0xe5e
 10194 0f5a 06       		.uleb128 0x6
 10195 0f5b 4F0F0000 		.4byte	0xf4f
 10196 0f5f 14       		.uleb128 0x14
 10197 0f60 C0070000 		.4byte	.LASF188
 10198 0f64 13       		.byte	0x13
 10199 0f65 6C       		.byte	0x6c
 10200 0f66 5A0F0000 		.4byte	0xf5a
 10201 0f6a 03       		.uleb128 0x3
 10202 0f6b 77140000 		.4byte	.LASF189
 10203 0f6f 11       		.byte	0x11
 10204 0f70 34       		.byte	0x34
 10205 0f71 E20D0000 		.4byte	0xde2
 10206 0f75 0C       		.uleb128 0xc
 10207 0f76 04       		.byte	0x4
 10208 0f77 6A0F0000 		.4byte	0xf6a
 10209 0f7b 03       		.uleb128 0x3
 10210 0f7c EB070000 		.4byte	.LASF190
 10211 0f80 14       		.byte	0x14
 10212 0f81 34       		.byte	0x34
 10213 0f82 860F0000 		.4byte	0xf86
 10214 0f86 07       		.uleb128 0x7
 10215 0f87 A0060000 		.4byte	.LASF191
 10216 0f8b 14       		.byte	0x14
 10217 0f8c 14       		.byte	0x14
 10218 0f8d 39       		.byte	0x39
ARM GAS  /tmp/ccs3e2Sq.s 			page 181


 10219 0f8e CF0F0000 		.4byte	0xfcf
 10220 0f92 08       		.uleb128 0x8
 10221 0f93 82010000 		.4byte	.LASF53
 10222 0f97 14       		.byte	0x14
 10223 0f98 3A       		.byte	0x3a
 10224 0f99 CF0F0000 		.4byte	0xfcf
 10225 0f9d 00       		.byte	0
 10226 0f9e 08       		.uleb128 0x8
 10227 0f9f 140A0000 		.4byte	.LASF192
 10228 0fa3 14       		.byte	0x14
 10229 0fa4 3D       		.byte	0x3d
 10230 0fa5 8B020000 		.4byte	0x28b
 10231 0fa9 04       		.byte	0x4
 10232 0faa 08       		.uleb128 0x8
 10233 0fab 0E190000 		.4byte	.LASF193
 10234 0faf 14       		.byte	0x14
 10235 0fb0 3F       		.byte	0x3f
 10236 0fb1 6B010000 		.4byte	0x16b
 10237 0fb5 08       		.byte	0x8
 10238 0fb6 08       		.uleb128 0x8
 10239 0fb7 421A0000 		.4byte	.LASF41
 10240 0fbb 14       		.byte	0x14
 10241 0fbc 41       		.byte	0x41
 10242 0fbd 76010000 		.4byte	0x176
 10243 0fc1 0C       		.byte	0xc
 10244 0fc2 08       		.uleb128 0x8
 10245 0fc3 E6130000 		.4byte	.LASF194
 10246 0fc7 14       		.byte	0x14
 10247 0fc8 43       		.byte	0x43
 10248 0fc9 76010000 		.4byte	0x176
 10249 0fcd 10       		.byte	0x10
 10250 0fce 00       		.byte	0
 10251 0fcf 0C       		.uleb128 0xc
 10252 0fd0 04       		.byte	0x4
 10253 0fd1 7B0F0000 		.4byte	0xf7b
 10254 0fd5 07       		.uleb128 0x7
 10255 0fd6 C5150000 		.4byte	.LASF195
 10256 0fda 04       		.byte	0x4
 10257 0fdb 14       		.byte	0x14
 10258 0fdc 4A       		.byte	0x4a
 10259 0fdd EE0F0000 		.4byte	0xfee
 10260 0fe1 08       		.uleb128 0x8
 10261 0fe2 82010000 		.4byte	.LASF53
 10262 0fe6 14       		.byte	0x14
 10263 0fe7 4B       		.byte	0x4b
 10264 0fe8 CF0F0000 		.4byte	0xfcf
 10265 0fec 00       		.byte	0
 10266 0fed 00       		.byte	0
 10267 0fee 03       		.uleb128 0x3
 10268 0fef E00D0000 		.4byte	.LASF196
 10269 0ff3 14       		.byte	0x14
 10270 0ff4 4E       		.byte	0x4e
 10271 0ff5 D50F0000 		.4byte	0xfd5
 10272 0ff9 05       		.uleb128 0x5
 10273 0ffa 01       		.byte	0x1
 10274 0ffb 02       		.byte	0x2
 10275 0ffc B0000000 		.4byte	.LASF197
ARM GAS  /tmp/ccs3e2Sq.s 			page 182


 10276 1000 06       		.uleb128 0x6
 10277 1001 F90F0000 		.4byte	0xff9
 10278 1005 03       		.uleb128 0x3
 10279 1006 E5000000 		.4byte	.LASF198
 10280 100a 15       		.byte	0x15
 10281 100b 47       		.byte	0x47
 10282 100c 10100000 		.4byte	0x1010
 10283 1010 0C       		.uleb128 0xc
 10284 1011 04       		.byte	0x4
 10285 1012 16100000 		.4byte	0x1016
 10286 1016 20       		.uleb128 0x20
 10287 1017 68030000 		.4byte	0x368
 10288 101b 2A100000 		.4byte	0x102a
 10289 101f 0F       		.uleb128 0xf
 10290 1020 2C000000 		.4byte	0x2c
 10291 1024 0F       		.uleb128 0xf
 10292 1025 3C000000 		.4byte	0x3c
 10293 1029 00       		.byte	0
 10294 102a 15       		.uleb128 0x15
 10295 102b 08       		.byte	0x8
 10296 102c 15       		.byte	0x15
 10297 102d 51       		.byte	0x51
 10298 102e 4B100000 		.4byte	0x104b
 10299 1032 08       		.uleb128 0x8
 10300 1033 6B150000 		.4byte	.LASF199
 10301 1037 15       		.byte	0x15
 10302 1038 55       		.byte	0x55
 10303 1039 4B100000 		.4byte	0x104b
 10304 103d 00       		.byte	0
 10305 103e 08       		.uleb128 0x8
 10306 103f 37100000 		.4byte	.LASF200
 10307 1043 15       		.byte	0x15
 10308 1044 59       		.byte	0x59
 10309 1045 4B100000 		.4byte	0x104b
 10310 1049 04       		.byte	0x4
 10311 104a 00       		.byte	0
 10312 104b 0C       		.uleb128 0xc
 10313 104c 04       		.byte	0x4
 10314 104d C9000000 		.4byte	0xc9
 10315 1051 03       		.uleb128 0x3
 10316 1052 B50A0000 		.4byte	.LASF201
 10317 1056 15       		.byte	0x15
 10318 1057 5A       		.byte	0x5a
 10319 1058 2A100000 		.4byte	0x102a
 10320 105c 14       		.uleb128 0x14
 10321 105d 00000000 		.4byte	.LASF202
 10322 1061 15       		.byte	0x15
 10323 1062 65       		.byte	0x65
 10324 1063 51100000 		.4byte	0x1051
 10325 1067 07       		.uleb128 0x7
 10326 1068 FF060000 		.4byte	.LASF203
 10327 106c 04       		.byte	0x4
 10328 106d 16       		.byte	0x16
 10329 106e 38       		.byte	0x38
 10330 106f 80100000 		.4byte	0x1080
 10331 1073 08       		.uleb128 0x8
 10332 1074 82010000 		.4byte	.LASF53
ARM GAS  /tmp/ccs3e2Sq.s 			page 183


 10333 1078 16       		.byte	0x16
 10334 1079 39       		.byte	0x39
 10335 107a 80100000 		.4byte	0x1080
 10336 107e 00       		.byte	0
 10337 107f 00       		.byte	0
 10338 1080 0C       		.uleb128 0xc
 10339 1081 04       		.byte	0x4
 10340 1082 67100000 		.4byte	0x1067
 10341 1086 15       		.uleb128 0x15
 10342 1087 10       		.byte	0x10
 10343 1088 16       		.byte	0x16
 10344 1089 40       		.byte	0x40
 10345 108a BF100000 		.4byte	0x10bf
 10346 108e 08       		.uleb128 0x8
 10347 108f 82010000 		.4byte	.LASF53
 10348 1093 16       		.byte	0x16
 10349 1094 41       		.byte	0x41
 10350 1095 80100000 		.4byte	0x1080
 10351 1099 00       		.byte	0
 10352 109a 08       		.uleb128 0x8
 10353 109b 7D090000 		.4byte	.LASF204
 10354 109f 16       		.byte	0x16
 10355 10a0 42       		.byte	0x42
 10356 10a1 2C000000 		.4byte	0x2c
 10357 10a5 04       		.byte	0x4
 10358 10a6 08       		.uleb128 0x8
 10359 10a7 60050000 		.4byte	.LASF205
 10360 10ab 16       		.byte	0x16
 10361 10ac 44       		.byte	0x44
 10362 10ad 3C000000 		.4byte	0x3c
 10363 10b1 08       		.byte	0x8
 10364 10b2 08       		.uleb128 0x8
 10365 10b3 C5000000 		.4byte	.LASF206
 10366 10b7 16       		.byte	0x16
 10367 10b8 45       		.byte	0x45
 10368 10b9 05100000 		.4byte	0x1005
 10369 10bd 0C       		.byte	0xc
 10370 10be 00       		.byte	0
 10371 10bf 03       		.uleb128 0x3
 10372 10c0 8A190000 		.4byte	.LASF207
 10373 10c4 16       		.byte	0x16
 10374 10c5 47       		.byte	0x47
 10375 10c6 86100000 		.4byte	0x1086
 10376 10ca 07       		.uleb128 0x7
 10377 10cb 8D010000 		.4byte	.LASF208
 10378 10cf 10       		.byte	0x10
 10379 10d0 17       		.byte	0x17
 10380 10d1 A9       		.byte	0xa9
 10381 10d2 FB100000 		.4byte	0x10fb
 10382 10d6 08       		.uleb128 0x8
 10383 10d7 82010000 		.4byte	.LASF53
 10384 10db 17       		.byte	0x17
 10385 10dc AD       		.byte	0xad
 10386 10dd FB100000 		.4byte	0x10fb
 10387 10e1 00       		.byte	0
 10388 10e2 08       		.uleb128 0x8
 10389 10e3 53030000 		.4byte	.LASF42
ARM GAS  /tmp/ccs3e2Sq.s 			page 184


 10390 10e7 17       		.byte	0x17
 10391 10e8 B1       		.byte	0xb1
 10392 10e9 8C010000 		.4byte	0x18c
 10393 10ed 04       		.byte	0x4
 10394 10ee 08       		.uleb128 0x8
 10395 10ef 640D0000 		.4byte	.LASF38
 10396 10f3 17       		.byte	0x17
 10397 10f4 B3       		.byte	0xb3
 10398 10f5 01110000 		.4byte	0x1101
 10399 10f9 08       		.byte	0x8
 10400 10fa 00       		.byte	0
 10401 10fb 0C       		.uleb128 0xc
 10402 10fc 04       		.byte	0x4
 10403 10fd CA100000 		.4byte	0x10ca
 10404 1101 11       		.uleb128 0x11
 10405 1102 240E0000 		.4byte	0xe24
 10406 1106 11110000 		.4byte	0x1111
 10407 110a 12       		.uleb128 0x12
 10408 110b 3C000000 		.4byte	0x3c
 10409 110f 07       		.byte	0x7
 10410 1110 00       		.byte	0
 10411 1111 03       		.uleb128 0x3
 10412 1112 660F0000 		.4byte	.LASF209
 10413 1116 17       		.byte	0x17
 10414 1117 B7       		.byte	0xb7
 10415 1118 CA100000 		.4byte	0x10ca
 10416 111c 07       		.uleb128 0x7
 10417 111d 9F040000 		.4byte	.LASF210
 10418 1121 04       		.byte	0x4
 10419 1122 17       		.byte	0x17
 10420 1123 BC       		.byte	0xbc
 10421 1124 35110000 		.4byte	0x1135
 10422 1128 08       		.uleb128 0x8
 10423 1129 82010000 		.4byte	.LASF53
 10424 112d 17       		.byte	0x17
 10425 112e BD       		.byte	0xbd
 10426 112f 35110000 		.4byte	0x1135
 10427 1133 00       		.byte	0
 10428 1134 00       		.byte	0
 10429 1135 0C       		.uleb128 0xc
 10430 1136 04       		.byte	0x4
 10431 1137 11110000 		.4byte	0x1111
 10432 113b 03       		.uleb128 0x3
 10433 113c 7B0B0000 		.4byte	.LASF211
 10434 1140 17       		.byte	0x17
 10435 1141 BE       		.byte	0xbe
 10436 1142 1C110000 		.4byte	0x111c
 10437 1146 0D       		.uleb128 0xd
 10438 1147 65010000 		.4byte	.LASF212
 10439 114b 48       		.byte	0x48
 10440 114c 17       		.byte	0x17
 10441 114d 3E01     		.2byte	0x13e
 10442 114f C9110000 		.4byte	0x11c9
 10443 1153 0A       		.uleb128 0xa
 10444 1154 6D747800 		.ascii	"mtx\000"
 10445 1158 17       		.byte	0x17
 10446 1159 4301     		.2byte	0x143
ARM GAS  /tmp/ccs3e2Sq.s 			page 185


 10447 115b 6A0F0000 		.4byte	0xf6a
 10448 115f 00       		.byte	0
 10449 1160 0B       		.uleb128 0xb
 10450 1161 94080000 		.4byte	.LASF213
 10451 1165 17       		.byte	0x17
 10452 1166 4A01     		.2byte	0x14a
 10453 1168 3B110000 		.4byte	0x113b
 10454 116c 10       		.byte	0x10
 10455 116d 0B       		.uleb128 0xb
 10456 116e 39130000 		.4byte	.LASF214
 10457 1172 17       		.byte	0x17
 10458 1173 4E01     		.2byte	0x14e
 10459 1175 BF100000 		.4byte	0x10bf
 10460 1179 14       		.byte	0x14
 10461 117a 0B       		.uleb128 0xb
 10462 117b 84100000 		.4byte	.LASF215
 10463 117f 17       		.byte	0x17
 10464 1180 5301     		.2byte	0x153
 10465 1182 3B110000 		.4byte	0x113b
 10466 1186 24       		.byte	0x24
 10467 1187 0B       		.uleb128 0xb
 10468 1188 5A160000 		.4byte	.LASF216
 10469 118c 17       		.byte	0x17
 10470 118d 5901     		.2byte	0x159
 10471 118f 3B110000 		.4byte	0x113b
 10472 1193 28       		.byte	0x28
 10473 1194 0B       		.uleb128 0xb
 10474 1195 AB080000 		.4byte	.LASF217
 10475 1199 17       		.byte	0x17
 10476 119a 5D01     		.2byte	0x15d
 10477 119c BF100000 		.4byte	0x10bf
 10478 11a0 2C       		.byte	0x2c
 10479 11a1 0B       		.uleb128 0xb
 10480 11a2 FF140000 		.4byte	.LASF218
 10481 11a6 17       		.byte	0x17
 10482 11a7 6301     		.2byte	0x163
 10483 11a9 3B110000 		.4byte	0x113b
 10484 11ad 3C       		.byte	0x3c
 10485 11ae 0B       		.uleb128 0xb
 10486 11af C9090000 		.4byte	.LASF219
 10487 11b3 17       		.byte	0x17
 10488 11b4 6901     		.2byte	0x169
 10489 11b6 3B110000 		.4byte	0x113b
 10490 11ba 40       		.byte	0x40
 10491 11bb 0B       		.uleb128 0xb
 10492 11bc 3A0B0000 		.4byte	.LASF220
 10493 11c0 17       		.byte	0x17
 10494 11c1 6F01     		.2byte	0x16f
 10495 11c3 3B110000 		.4byte	0x113b
 10496 11c7 44       		.byte	0x44
 10497 11c8 00       		.byte	0
 10498 11c9 16       		.uleb128 0x16
 10499 11ca CE000000 		.4byte	.LASF221
 10500 11ce 17       		.byte	0x17
 10501 11cf 7101     		.2byte	0x171
 10502 11d1 46110000 		.4byte	0x1146
 10503 11d5 13       		.uleb128 0x13
ARM GAS  /tmp/ccs3e2Sq.s 			page 186


 10504 11d6 42130000 		.4byte	.LASF222
 10505 11da 17       		.byte	0x17
 10506 11db 7C01     		.2byte	0x17c
 10507 11dd C9110000 		.4byte	0x11c9
 10508 11e1 17       		.uleb128 0x17
 10509 11e2 0C       		.byte	0xc
 10510 11e3 18       		.byte	0x18
 10511 11e4 A201     		.2byte	0x1a2
 10512 11e6 39120000 		.4byte	0x1239
 10513 11ea 0B       		.uleb128 0xb
 10514 11eb 59190000 		.4byte	.LASF223
 10515 11ef 18       		.byte	0x18
 10516 11f0 A301     		.2byte	0x1a3
 10517 11f2 39120000 		.4byte	0x1239
 10518 11f6 00       		.byte	0
 10519 11f7 0B       		.uleb128 0xb
 10520 11f8 CA0A0000 		.4byte	.LASF224
 10521 11fc 18       		.byte	0x18
 10522 11fd A401     		.2byte	0x1a4
 10523 11ff 3F120000 		.4byte	0x123f
 10524 1203 04       		.byte	0x4
 10525 1204 0B       		.uleb128 0xb
 10526 1205 60190000 		.4byte	.LASF225
 10527 1209 18       		.byte	0x18
 10528 120a A801     		.2byte	0x1a8
 10529 120c C9000000 		.4byte	0xc9
 10530 1210 08       		.byte	0x8
 10531 1211 0B       		.uleb128 0xb
 10532 1212 D3080000 		.4byte	.LASF226
 10533 1216 18       		.byte	0x18
 10534 1217 AA01     		.2byte	0x1aa
 10535 1219 C9000000 		.4byte	0xc9
 10536 121d 09       		.byte	0x9
 10537 121e 0B       		.uleb128 0xb
 10538 121f 6D140000 		.4byte	.LASF227
 10539 1223 18       		.byte	0x18
 10540 1224 AC01     		.2byte	0x1ac
 10541 1226 C9000000 		.4byte	0xc9
 10542 122a 0A       		.byte	0xa
 10543 122b 0B       		.uleb128 0xb
 10544 122c 89020000 		.4byte	.LASF228
 10545 1230 18       		.byte	0x18
 10546 1231 AD01     		.2byte	0x1ad
 10547 1233 C9000000 		.4byte	0xc9
 10548 1237 0B       		.byte	0xb
 10549 1238 00       		.byte	0
 10550 1239 0C       		.uleb128 0xc
 10551 123a 04       		.byte	0x4
 10552 123b BD080000 		.4byte	0x8bd
 10553 123f 0C       		.uleb128 0xc
 10554 1240 04       		.byte	0x4
 10555 1241 19010000 		.4byte	0x119
 10556 1245 16       		.uleb128 0x16
 10557 1246 B40C0000 		.4byte	.LASF229
 10558 124a 18       		.byte	0x18
 10559 124b AE01     		.2byte	0x1ae
 10560 124d E1110000 		.4byte	0x11e1
ARM GAS  /tmp/ccs3e2Sq.s 			page 187


 10561 1251 06       		.uleb128 0x6
 10562 1252 45120000 		.4byte	0x1245
 10563 1256 11       		.uleb128 0x11
 10564 1257 51120000 		.4byte	0x1251
 10565 125b 66120000 		.4byte	0x1266
 10566 125f 12       		.uleb128 0x12
 10567 1260 3C000000 		.4byte	0x3c
 10568 1264 0F       		.byte	0xf
 10569 1265 00       		.byte	0
 10570 1266 06       		.uleb128 0x6
 10571 1267 56120000 		.4byte	0x1256
 10572 126b 13       		.uleb128 0x13
 10573 126c 03120000 		.4byte	.LASF230
 10574 1270 18       		.byte	0x18
 10575 1271 9002     		.2byte	0x290
 10576 1273 66120000 		.4byte	0x1266
 10577 1277 20       		.uleb128 0x20
 10578 1278 2C000000 		.4byte	0x2c
 10579 127c 90120000 		.4byte	0x1290
 10580 1280 0F       		.uleb128 0xf
 10581 1281 68030000 		.4byte	0x368
 10582 1285 0F       		.uleb128 0xf
 10583 1286 90120000 		.4byte	0x1290
 10584 128a 0F       		.uleb128 0xf
 10585 128b 2C000000 		.4byte	0x2c
 10586 128f 00       		.byte	0
 10587 1290 0C       		.uleb128 0xc
 10588 1291 04       		.byte	0x4
 10589 1292 D4000000 		.4byte	0xd4
 10590 1296 0C       		.uleb128 0xc
 10591 1297 04       		.byte	0x4
 10592 1298 77120000 		.4byte	0x1277
 10593 129c 20       		.uleb128 0x20
 10594 129d 2C000000 		.4byte	0x2c
 10595 12a1 B5120000 		.4byte	0x12b5
 10596 12a5 0F       		.uleb128 0xf
 10597 12a6 68030000 		.4byte	0x368
 10598 12aa 0F       		.uleb128 0xf
 10599 12ab 4B100000 		.4byte	0x104b
 10600 12af 0F       		.uleb128 0xf
 10601 12b0 2C000000 		.4byte	0x2c
 10602 12b4 00       		.byte	0
 10603 12b5 0C       		.uleb128 0xc
 10604 12b6 04       		.byte	0x4
 10605 12b7 9C120000 		.4byte	0x129c
 10606 12bb 20       		.uleb128 0x20
 10607 12bc 60010000 		.4byte	0x160
 10608 12c0 CF120000 		.4byte	0x12cf
 10609 12c4 0F       		.uleb128 0xf
 10610 12c5 68030000 		.4byte	0x368
 10611 12c9 0F       		.uleb128 0xf
 10612 12ca C9000000 		.4byte	0xc9
 10613 12ce 00       		.byte	0
 10614 12cf 0C       		.uleb128 0xc
 10615 12d0 04       		.byte	0x4
 10616 12d1 BB120000 		.4byte	0x12bb
 10617 12d5 20       		.uleb128 0x20
ARM GAS  /tmp/ccs3e2Sq.s 			page 188


 10618 12d6 60010000 		.4byte	0x160
 10619 12da E4120000 		.4byte	0x12e4
 10620 12de 0F       		.uleb128 0xf
 10621 12df 68030000 		.4byte	0x368
 10622 12e3 00       		.byte	0
 10623 12e4 0C       		.uleb128 0xc
 10624 12e5 04       		.byte	0x4
 10625 12e6 D5120000 		.4byte	0x12d5
 10626 12ea 20       		.uleb128 0x20
 10627 12eb 60010000 		.4byte	0x160
 10628 12ef 03130000 		.4byte	0x1303
 10629 12f3 0F       		.uleb128 0xf
 10630 12f4 68030000 		.4byte	0x368
 10631 12f8 0F       		.uleb128 0xf
 10632 12f9 C9000000 		.4byte	0xc9
 10633 12fd 0F       		.uleb128 0xf
 10634 12fe 9B040000 		.4byte	0x49b
 10635 1302 00       		.byte	0
 10636 1303 0C       		.uleb128 0xc
 10637 1304 04       		.byte	0x4
 10638 1305 EA120000 		.4byte	0x12ea
 10639 1309 20       		.uleb128 0x20
 10640 130a 60010000 		.4byte	0x160
 10641 130e 1D130000 		.4byte	0x131d
 10642 1312 0F       		.uleb128 0xf
 10643 1313 68030000 		.4byte	0x368
 10644 1317 0F       		.uleb128 0xf
 10645 1318 9B040000 		.4byte	0x49b
 10646 131c 00       		.byte	0
 10647 131d 0C       		.uleb128 0xc
 10648 131e 04       		.byte	0x4
 10649 131f 09130000 		.4byte	0x1309
 10650 1323 20       		.uleb128 0x20
 10651 1324 2C000000 		.4byte	0x2c
 10652 1328 41130000 		.4byte	0x1341
 10653 132c 0F       		.uleb128 0xf
 10654 132d 68030000 		.4byte	0x368
 10655 1331 0F       		.uleb128 0xf
 10656 1332 90120000 		.4byte	0x1290
 10657 1336 0F       		.uleb128 0xf
 10658 1337 2C000000 		.4byte	0x2c
 10659 133b 0F       		.uleb128 0xf
 10660 133c 9B040000 		.4byte	0x49b
 10661 1340 00       		.byte	0
 10662 1341 0C       		.uleb128 0xc
 10663 1342 04       		.byte	0x4
 10664 1343 23130000 		.4byte	0x1323
 10665 1347 20       		.uleb128 0x20
 10666 1348 2C000000 		.4byte	0x2c
 10667 134c 65130000 		.4byte	0x1365
 10668 1350 0F       		.uleb128 0xf
 10669 1351 68030000 		.4byte	0x368
 10670 1355 0F       		.uleb128 0xf
 10671 1356 4B100000 		.4byte	0x104b
 10672 135a 0F       		.uleb128 0xf
 10673 135b 2C000000 		.4byte	0x2c
 10674 135f 0F       		.uleb128 0xf
ARM GAS  /tmp/ccs3e2Sq.s 			page 189


 10675 1360 9B040000 		.4byte	0x49b
 10676 1364 00       		.byte	0
 10677 1365 0C       		.uleb128 0xc
 10678 1366 04       		.byte	0x4
 10679 1367 47130000 		.4byte	0x1347
 10680 136b 20       		.uleb128 0x20
 10681 136c 60010000 		.4byte	0x160
 10682 1370 84130000 		.4byte	0x1384
 10683 1374 0F       		.uleb128 0xf
 10684 1375 68030000 		.4byte	0x368
 10685 1379 0F       		.uleb128 0xf
 10686 137a 3C000000 		.4byte	0x3c
 10687 137e 0F       		.uleb128 0xf
 10688 137f 68030000 		.4byte	0x368
 10689 1383 00       		.byte	0
 10690 1384 0C       		.uleb128 0xc
 10691 1385 04       		.byte	0x4
 10692 1386 6B130000 		.4byte	0x136b
 10693 138a 03       		.uleb128 0x3
 10694 138b BE090000 		.4byte	.LASF231
 10695 138f 19       		.byte	0x19
 10696 1390 3A       		.byte	0x3a
 10697 1391 95130000 		.4byte	0x1395
 10698 1395 07       		.uleb128 0x7
 10699 1396 5E0B0000 		.4byte	.LASF232
 10700 139a 24       		.byte	0x24
 10701 139b 19       		.byte	0x19
 10702 139c 4B       		.byte	0x4b
 10703 139d 02140000 		.4byte	0x1402
 10704 13a1 08       		.uleb128 0x8
 10705 13a2 AD030000 		.4byte	.LASF233
 10706 13a6 19       		.byte	0x19
 10707 13a7 4C       		.byte	0x4c
 10708 13a8 B5020000 		.4byte	0x2b5
 10709 13ac 00       		.byte	0
 10710 13ad 08       		.uleb128 0x8
 10711 13ae 4E140000 		.4byte	.LASF234
 10712 13b2 19       		.byte	0x19
 10713 13b3 4D       		.byte	0x4d
 10714 13b4 37000000 		.4byte	0x37
 10715 13b8 08       		.byte	0x8
 10716 13b9 08       		.uleb128 0x8
 10717 13ba D50B0000 		.4byte	.LASF235
 10718 13be 19       		.byte	0x19
 10719 13bf 4E       		.byte	0x4e
 10720 13c0 4B100000 		.4byte	0x104b
 10721 13c4 0C       		.byte	0xc
 10722 13c5 08       		.uleb128 0x8
 10723 13c6 2B030000 		.4byte	.LASF236
 10724 13ca 19       		.byte	0x19
 10725 13cb 4F       		.byte	0x4f
 10726 13cc 4B100000 		.4byte	0x104b
 10727 13d0 10       		.byte	0x10
 10728 13d1 08       		.uleb128 0x8
 10729 13d2 2A110000 		.4byte	.LASF237
 10730 13d6 19       		.byte	0x19
 10731 13d7 51       		.byte	0x51
ARM GAS  /tmp/ccs3e2Sq.s 			page 190


 10732 13d8 4B100000 		.4byte	0x104b
 10733 13dc 14       		.byte	0x14
 10734 13dd 08       		.uleb128 0x8
 10735 13de 44100000 		.4byte	.LASF238
 10736 13e2 19       		.byte	0x19
 10737 13e3 52       		.byte	0x52
 10738 13e4 4B100000 		.4byte	0x104b
 10739 13e8 18       		.byte	0x18
 10740 13e9 08       		.uleb128 0x8
 10741 13ea 4D130000 		.4byte	.LASF239
 10742 13ee 19       		.byte	0x19
 10743 13ef 53       		.byte	0x53
 10744 13f0 02140000 		.4byte	0x1402
 10745 13f4 1C       		.byte	0x1c
 10746 13f5 08       		.uleb128 0x8
 10747 13f6 C0110000 		.4byte	.LASF240
 10748 13fa 19       		.byte	0x19
 10749 13fb 54       		.byte	0x54
 10750 13fc 68030000 		.4byte	0x368
 10751 1400 20       		.byte	0x20
 10752 1401 00       		.byte	0
 10753 1402 03       		.uleb128 0x3
 10754 1403 16030000 		.4byte	.LASF241
 10755 1407 19       		.byte	0x19
 10756 1408 41       		.byte	0x41
 10757 1409 0D140000 		.4byte	0x140d
 10758 140d 0C       		.uleb128 0xc
 10759 140e 04       		.byte	0x4
 10760 140f 13140000 		.4byte	0x1413
 10761 1413 0E       		.uleb128 0xe
 10762 1414 1E140000 		.4byte	0x141e
 10763 1418 0F       		.uleb128 0xf
 10764 1419 1E140000 		.4byte	0x141e
 10765 141d 00       		.byte	0
 10766 141e 0C       		.uleb128 0xc
 10767 141f 04       		.byte	0x4
 10768 1420 8A130000 		.4byte	0x138a
 10769 1424 03       		.uleb128 0x3
 10770 1425 E2030000 		.4byte	.LASF242
 10771 1429 19       		.byte	0x19
 10772 142a 61       		.byte	0x61
 10773 142b 8A130000 		.4byte	0x138a
 10774 142f 03       		.uleb128 0x3
 10775 1430 D8190000 		.4byte	.LASF243
 10776 1434 19       		.byte	0x19
 10777 1435 6D       		.byte	0x6d
 10778 1436 8A130000 		.4byte	0x138a
 10779 143a 15       		.uleb128 0x15
 10780 143b 08       		.byte	0x8
 10781 143c 1A       		.byte	0x1a
 10782 143d 9A       		.byte	0x9a
 10783 143e 4F140000 		.4byte	0x144f
 10784 1442 08       		.uleb128 0x8
 10785 1443 FE050000 		.4byte	.LASF244
 10786 1447 1A       		.byte	0x1a
 10787 1448 9F       		.byte	0x9f
 10788 1449 B5020000 		.4byte	0x2b5
ARM GAS  /tmp/ccs3e2Sq.s 			page 191


 10789 144d 00       		.byte	0
 10790 144e 00       		.byte	0
 10791 144f 03       		.uleb128 0x3
 10792 1450 2E060000 		.4byte	.LASF245
 10793 1454 1A       		.byte	0x1a
 10794 1455 AB       		.byte	0xab
 10795 1456 3A140000 		.4byte	0x143a
 10796 145a 15       		.uleb128 0x15
 10797 145b 04       		.byte	0x4
 10798 145c 1B       		.byte	0x1b
 10799 145d 5B       		.byte	0x5b
 10800 145e 7B140000 		.4byte	0x147b
 10801 1462 09       		.uleb128 0x9
 10802 1463 73657400 		.ascii	"set\000"
 10803 1467 1B       		.byte	0x1b
 10804 1468 5C       		.byte	0x5c
 10805 1469 E9000000 		.4byte	0xe9
 10806 146d 00       		.byte	0
 10807 146e 08       		.uleb128 0x8
 10808 146f 89140000 		.4byte	.LASF246
 10809 1473 1B       		.byte	0x1b
 10810 1474 5D       		.byte	0x5d
 10811 1475 E9000000 		.4byte	0xe9
 10812 1479 02       		.byte	0x2
 10813 147a 00       		.byte	0
 10814 147b 1B       		.uleb128 0x1b
 10815 147c 04       		.byte	0x4
 10816 147d 1B       		.byte	0x1b
 10817 147e 59       		.byte	0x59
 10818 147f 96140000 		.4byte	0x1496
 10819 1483 21       		.uleb128 0x21
 10820 1484 5700     		.ascii	"W\000"
 10821 1486 1B       		.byte	0x1b
 10822 1487 5A       		.byte	0x5a
 10823 1488 0E010000 		.4byte	0x10e
 10824 148c 21       		.uleb128 0x21
 10825 148d 4800     		.ascii	"H\000"
 10826 148f 1B       		.byte	0x1b
 10827 1490 5E       		.byte	0x5e
 10828 1491 5A140000 		.4byte	0x145a
 10829 1495 00       		.byte	0
 10830 1496 04       		.uleb128 0x4
 10831 1497 7B140000 		.4byte	0x147b
 10832 149b 15       		.uleb128 0x15
 10833 149c 28       		.byte	0x28
 10834 149d 1B       		.byte	0x1b
 10835 149e 51       		.byte	0x51
 10836 149f 1C150000 		.4byte	0x151c
 10837 14a3 08       		.uleb128 0x8
 10838 14a4 8F140000 		.4byte	.LASF247
 10839 14a8 1B       		.byte	0x1b
 10840 14a9 53       		.byte	0x53
 10841 14aa 19010000 		.4byte	0x119
 10842 14ae 00       		.byte	0
 10843 14af 08       		.uleb128 0x8
 10844 14b0 31020000 		.4byte	.LASF248
 10845 14b4 1B       		.byte	0x1b
ARM GAS  /tmp/ccs3e2Sq.s 			page 192


 10846 14b5 54       		.byte	0x54
 10847 14b6 19010000 		.4byte	0x119
 10848 14ba 04       		.byte	0x4
 10849 14bb 08       		.uleb128 0x8
 10850 14bc 1D0A0000 		.4byte	.LASF249
 10851 14c0 1B       		.byte	0x1b
 10852 14c1 55       		.byte	0x55
 10853 14c2 19010000 		.4byte	0x119
 10854 14c6 08       		.byte	0x8
 10855 14c7 08       		.uleb128 0x8
 10856 14c8 0B140000 		.4byte	.LASF250
 10857 14cc 1B       		.byte	0x1b
 10858 14cd 56       		.byte	0x56
 10859 14ce 19010000 		.4byte	0x119
 10860 14d2 0C       		.byte	0xc
 10861 14d3 09       		.uleb128 0x9
 10862 14d4 49445200 		.ascii	"IDR\000"
 10863 14d8 1B       		.byte	0x1b
 10864 14d9 57       		.byte	0x57
 10865 14da 19010000 		.4byte	0x119
 10866 14de 10       		.byte	0x10
 10867 14df 09       		.uleb128 0x9
 10868 14e0 4F445200 		.ascii	"ODR\000"
 10869 14e4 1B       		.byte	0x1b
 10870 14e5 58       		.byte	0x58
 10871 14e6 19010000 		.4byte	0x119
 10872 14ea 14       		.byte	0x14
 10873 14eb 08       		.uleb128 0x8
 10874 14ec A40C0000 		.4byte	.LASF251
 10875 14f0 1B       		.byte	0x1b
 10876 14f1 5F       		.byte	0x5f
 10877 14f2 96140000 		.4byte	0x1496
 10878 14f6 18       		.byte	0x18
 10879 14f7 08       		.uleb128 0x8
 10880 14f8 470D0000 		.4byte	.LASF252
 10881 14fc 1B       		.byte	0x1b
 10882 14fd 60       		.byte	0x60
 10883 14fe 19010000 		.4byte	0x119
 10884 1502 1C       		.byte	0x1c
 10885 1503 08       		.uleb128 0x8
 10886 1504 76120000 		.4byte	.LASF253
 10887 1508 1B       		.byte	0x1b
 10888 1509 61       		.byte	0x61
 10889 150a 19010000 		.4byte	0x119
 10890 150e 20       		.byte	0x20
 10891 150f 08       		.uleb128 0x8
 10892 1510 71120000 		.4byte	.LASF254
 10893 1514 1B       		.byte	0x1b
 10894 1515 62       		.byte	0x62
 10895 1516 19010000 		.4byte	0x119
 10896 151a 24       		.byte	0x24
 10897 151b 00       		.byte	0
 10898 151c 03       		.uleb128 0x3
 10899 151d E60A0000 		.4byte	.LASF255
 10900 1521 1B       		.byte	0x1b
 10901 1522 63       		.byte	0x63
 10902 1523 9B140000 		.4byte	0x149b
ARM GAS  /tmp/ccs3e2Sq.s 			page 193


 10903 1527 03       		.uleb128 0x3
 10904 1528 F80D0000 		.4byte	.LASF256
 10905 152c 1C       		.byte	0x1c
 10906 152d C2       		.byte	0xc2
 10907 152e 0E010000 		.4byte	0x10e
 10908 1532 03       		.uleb128 0x3
 10909 1533 B4120000 		.4byte	.LASF257
 10910 1537 1C       		.byte	0x1c
 10911 1538 CC       		.byte	0xcc
 10912 1539 0E010000 		.4byte	0x10e
 10913 153d 11       		.uleb128 0x11
 10914 153e 4F140000 		.4byte	0x144f
 10915 1542 4D150000 		.4byte	0x154d
 10916 1546 12       		.uleb128 0x12
 10917 1547 3C000000 		.4byte	0x3c
 10918 154b 0F       		.byte	0xf
 10919 154c 00       		.byte	0
 10920 154d 13       		.uleb128 0x13
 10921 154e CA130000 		.4byte	.LASF258
 10922 1552 1C       		.byte	0x1c
 10923 1553 EB01     		.2byte	0x1eb
 10924 1555 3D150000 		.4byte	0x153d
 10925 1559 22       		.uleb128 0x22
 10926 155a 07       		.byte	0x7
 10927 155b 01       		.byte	0x1
 10928 155c 63000000 		.4byte	0x63
 10929 1560 1D       		.byte	0x1d
 10930 1561 46       		.byte	0x46
 10931 1562 8B150000 		.4byte	0x158b
 10932 1566 23       		.uleb128 0x23
 10933 1567 0C060000 		.4byte	.LASF259
 10934 156b 00       		.byte	0
 10935 156c 23       		.uleb128 0x23
 10936 156d 560E0000 		.4byte	.LASF260
 10937 1571 01       		.byte	0x1
 10938 1572 23       		.uleb128 0x23
 10939 1573 63160000 		.4byte	.LASF261
 10940 1577 02       		.byte	0x2
 10941 1578 23       		.uleb128 0x23
 10942 1579 7F0C0000 		.4byte	.LASF262
 10943 157d 03       		.byte	0x3
 10944 157e 23       		.uleb128 0x23
 10945 157f 61040000 		.4byte	.LASF263
 10946 1583 04       		.byte	0x4
 10947 1584 23       		.uleb128 0x23
 10948 1585 6D0C0000 		.4byte	.LASF264
 10949 1589 05       		.byte	0x5
 10950 158a 00       		.byte	0
 10951 158b 03       		.uleb128 0x3
 10952 158c 20030000 		.4byte	.LASF265
 10953 1590 1D       		.byte	0x1d
 10954 1591 4D       		.byte	0x4d
 10955 1592 59150000 		.4byte	0x1559
 10956 1596 03       		.uleb128 0x3
 10957 1597 6F0A0000 		.4byte	.LASF266
 10958 159b 1D       		.byte	0x1d
 10959 159c 52       		.byte	0x52
ARM GAS  /tmp/ccs3e2Sq.s 			page 194


 10960 159d A1150000 		.4byte	0x15a1
 10961 15a1 07       		.uleb128 0x7
 10962 15a2 10100000 		.4byte	.LASF267
 10963 15a6 34       		.byte	0x34
 10964 15a7 1D       		.byte	0x1d
 10965 15a8 9F       		.byte	0x9f
 10966 15a9 26160000 		.4byte	0x1626
 10967 15ad 08       		.uleb128 0x8
 10968 15ae E60E0000 		.4byte	.LASF40
 10969 15b2 1D       		.byte	0x1d
 10970 15b3 A3       		.byte	0xa3
 10971 15b4 8B150000 		.4byte	0x158b
 10972 15b8 00       		.byte	0
 10973 15b9 08       		.uleb128 0x8
 10974 15ba AD120000 		.4byte	.LASF268
 10975 15be 1D       		.byte	0x1d
 10976 15bf A7       		.byte	0xa7
 10977 15c0 9C170000 		.4byte	0x179c
 10978 15c4 04       		.byte	0x4
 10979 15c5 08       		.uleb128 0x8
 10980 15c6 32010000 		.4byte	.LASF269
 10981 15ca 1D       		.byte	0x1d
 10982 15cb AB       		.byte	0xab
 10983 15cc A2170000 		.4byte	0x17a2
 10984 15d0 08       		.byte	0x8
 10985 15d1 08       		.uleb128 0x8
 10986 15d2 F5100000 		.4byte	.LASF270
 10987 15d6 1D       		.byte	0x1d
 10988 15d7 AF       		.byte	0xaf
 10989 15d8 2C000000 		.4byte	0x2c
 10990 15dc 0C       		.byte	0xc
 10991 15dd 08       		.uleb128 0x8
 10992 15de FA140000 		.4byte	.LASF271
 10993 15e2 1D       		.byte	0x1d
 10994 15e3 B3       		.byte	0xb3
 10995 15e4 A8170000 		.4byte	0x17a8
 10996 15e8 10       		.byte	0x10
 10997 15e9 08       		.uleb128 0x8
 10998 15ea D2040000 		.4byte	.LASF272
 10999 15ee 1D       		.byte	0x1d
 11000 15ef B8       		.byte	0xb8
 11001 15f0 80020000 		.4byte	0x280
 11002 15f4 14       		.byte	0x14
 11003 15f5 08       		.uleb128 0x8
 11004 15f6 E1080000 		.4byte	.LASF273
 11005 15fa 1D       		.byte	0x1d
 11006 15fb BE       		.byte	0xbe
 11007 15fc 6A0F0000 		.4byte	0xf6a
 11008 1600 18       		.byte	0x18
 11009 1601 09       		.uleb128 0x9
 11010 1602 61646300 		.ascii	"adc\000"
 11011 1606 1D       		.byte	0x1d
 11012 1607 C4       		.byte	0xc4
 11013 1608 AE170000 		.4byte	0x17ae
 11014 160c 28       		.byte	0x28
 11015 160d 08       		.uleb128 0x8
 11016 160e 96070000 		.4byte	.LASF274
ARM GAS  /tmp/ccs3e2Sq.s 			page 195


 11017 1612 1D       		.byte	0x1d
 11018 1613 C4       		.byte	0xc4
 11019 1614 B4170000 		.4byte	0x17b4
 11020 1618 2C       		.byte	0x2c
 11021 1619 08       		.uleb128 0x8
 11022 161a FD0F0000 		.4byte	.LASF275
 11023 161e 1D       		.byte	0x1d
 11024 161f C4       		.byte	0xc4
 11025 1620 0E010000 		.4byte	0x10e
 11026 1624 30       		.byte	0x30
 11027 1625 00       		.byte	0
 11028 1626 03       		.uleb128 0x3
 11029 1627 870A0000 		.4byte	.LASF276
 11030 162b 1D       		.byte	0x1d
 11031 162c 57       		.byte	0x57
 11032 162d 36160000 		.4byte	0x1636
 11033 1631 06       		.uleb128 0x6
 11034 1632 26160000 		.4byte	0x1626
 11035 1636 07       		.uleb128 0x7
 11036 1637 C3040000 		.4byte	.LASF277
 11037 163b 01       		.byte	0x1
 11038 163c 1D       		.byte	0x1d
 11039 163d 97       		.byte	0x97
 11040 163e 4F160000 		.4byte	0x164f
 11041 1642 08       		.uleb128 0x8
 11042 1643 1F070000 		.4byte	.LASF278
 11043 1647 1D       		.byte	0x1d
 11044 1648 99       		.byte	0x99
 11045 1649 F90F0000 		.4byte	0xff9
 11046 164d 00       		.byte	0
 11047 164e 00       		.byte	0
 11048 164f 03       		.uleb128 0x3
 11049 1650 F0030000 		.4byte	.LASF279
 11050 1654 1D       		.byte	0x1d
 11051 1655 61       		.byte	0x61
 11052 1656 5F160000 		.4byte	0x165f
 11053 165a 06       		.uleb128 0x6
 11054 165b 4F160000 		.4byte	0x164f
 11055 165f 07       		.uleb128 0x7
 11056 1660 0F0D0000 		.4byte	.LASF280
 11057 1664 2C       		.byte	0x2c
 11058 1665 1D       		.byte	0x1d
 11059 1666 7F       		.byte	0x7f
 11060 1667 08170000 		.4byte	0x1708
 11061 166b 08       		.uleb128 0x8
 11062 166c BE160000 		.4byte	.LASF281
 11063 1670 1D       		.byte	0x1d
 11064 1671 83       		.byte	0x83
 11065 1672 F90F0000 		.4byte	0xff9
 11066 1676 00       		.byte	0
 11067 1677 08       		.uleb128 0x8
 11068 1678 2D0B0000 		.4byte	.LASF282
 11069 167c 1D       		.byte	0x1d
 11070 167d 87       		.byte	0x87
 11071 167e 14170000 		.4byte	0x1714
 11072 1682 02       		.byte	0x2
 11073 1683 08       		.uleb128 0x8
ARM GAS  /tmp/ccs3e2Sq.s 			page 196


 11074 1684 78060000 		.4byte	.LASF283
 11075 1688 1D       		.byte	0x1d
 11076 1689 8B       		.byte	0x8b
 11077 168a 59170000 		.4byte	0x1759
 11078 168e 04       		.byte	0x4
 11079 168f 08       		.uleb128 0x8
 11080 1690 84180000 		.4byte	.LASF284
 11081 1694 1D       		.byte	0x1d
 11082 1695 8F       		.byte	0x8f
 11083 1696 7B170000 		.4byte	0x177b
 11084 169a 08       		.byte	0x8
 11085 169b 09       		.uleb128 0x9
 11086 169c 63723100 		.ascii	"cr1\000"
 11087 16a0 1D       		.byte	0x1d
 11088 16a1 91       		.byte	0x91
 11089 16a2 0E010000 		.4byte	0x10e
 11090 16a6 0C       		.byte	0xc
 11091 16a7 09       		.uleb128 0x9
 11092 16a8 63723200 		.ascii	"cr2\000"
 11093 16ac 1D       		.byte	0x1d
 11094 16ad 91       		.byte	0x91
 11095 16ae 0E010000 		.4byte	0x10e
 11096 16b2 10       		.byte	0x10
 11097 16b3 08       		.uleb128 0x8
 11098 16b4 830F0000 		.4byte	.LASF285
 11099 16b8 1D       		.byte	0x1d
 11100 16b9 91       		.byte	0x91
 11101 16ba 0E010000 		.4byte	0x10e
 11102 16be 14       		.byte	0x14
 11103 16bf 08       		.uleb128 0x8
 11104 16c0 890F0000 		.4byte	.LASF286
 11105 16c4 1D       		.byte	0x1d
 11106 16c5 91       		.byte	0x91
 11107 16c6 0E010000 		.4byte	0x10e
 11108 16ca 18       		.byte	0x18
 11109 16cb 09       		.uleb128 0x9
 11110 16cc 68747200 		.ascii	"htr\000"
 11111 16d0 1D       		.byte	0x1d
 11112 16d1 91       		.byte	0x91
 11113 16d2 E9000000 		.4byte	0xe9
 11114 16d6 1C       		.byte	0x1c
 11115 16d7 09       		.uleb128 0x9
 11116 16d8 6C747200 		.ascii	"ltr\000"
 11117 16dc 1D       		.byte	0x1d
 11118 16dd 91       		.byte	0x91
 11119 16de E9000000 		.4byte	0xe9
 11120 16e2 1E       		.byte	0x1e
 11121 16e3 08       		.uleb128 0x8
 11122 16e4 E0000000 		.4byte	.LASF287
 11123 16e8 1D       		.byte	0x1d
 11124 16e9 91       		.byte	0x91
 11125 16ea 0E010000 		.4byte	0x10e
 11126 16ee 20       		.byte	0x20
 11127 16ef 08       		.uleb128 0x8
 11128 16f0 3F190000 		.4byte	.LASF288
 11129 16f4 1D       		.byte	0x1d
 11130 16f5 91       		.byte	0x91
ARM GAS  /tmp/ccs3e2Sq.s 			page 197


 11131 16f6 0E010000 		.4byte	0x10e
 11132 16fa 24       		.byte	0x24
 11133 16fb 08       		.uleb128 0x8
 11134 16fc 44190000 		.4byte	.LASF289
 11135 1700 1D       		.byte	0x1d
 11136 1701 91       		.byte	0x91
 11137 1702 0E010000 		.4byte	0x10e
 11138 1706 28       		.byte	0x28
 11139 1707 00       		.byte	0
 11140 1708 16       		.uleb128 0x16
 11141 1709 C90B0000 		.4byte	.LASF290
 11142 170d 1E       		.byte	0x1e
 11143 170e 2E01     		.2byte	0x12e
 11144 1710 E9000000 		.4byte	0xe9
 11145 1714 16       		.uleb128 0x16
 11146 1715 E9120000 		.4byte	.LASF291
 11147 1719 1E       		.byte	0x1e
 11148 171a 3301     		.2byte	0x133
 11149 171c E9000000 		.4byte	0xe9
 11150 1720 24       		.uleb128 0x24
 11151 1721 07       		.byte	0x7
 11152 1722 01       		.byte	0x1
 11153 1723 63000000 		.4byte	0x63
 11154 1727 1E       		.byte	0x1e
 11155 1728 3A01     		.2byte	0x13a
 11156 172a 41170000 		.4byte	0x1741
 11157 172e 23       		.uleb128 0x23
 11158 172f E6090000 		.4byte	.LASF292
 11159 1733 00       		.byte	0
 11160 1734 23       		.uleb128 0x23
 11161 1735 C5010000 		.4byte	.LASF293
 11162 1739 01       		.byte	0x1
 11163 173a 23       		.uleb128 0x23
 11164 173b 56060000 		.4byte	.LASF294
 11165 173f 02       		.byte	0x2
 11166 1740 00       		.byte	0
 11167 1741 16       		.uleb128 0x16
 11168 1742 04170000 		.4byte	.LASF295
 11169 1746 1E       		.byte	0x1e
 11170 1747 3E01     		.2byte	0x13e
 11171 1749 20170000 		.4byte	0x1720
 11172 174d 13       		.uleb128 0x13
 11173 174e F20F0000 		.4byte	.LASF296
 11174 1752 1E       		.byte	0x1e
 11175 1753 C701     		.2byte	0x1c7
 11176 1755 96150000 		.4byte	0x1596
 11177 1759 03       		.uleb128 0x3
 11178 175a 25120000 		.4byte	.LASF297
 11179 175e 1D       		.byte	0x1d
 11180 175f 6C       		.byte	0x6c
 11181 1760 64170000 		.4byte	0x1764
 11182 1764 0C       		.uleb128 0xc
 11183 1765 04       		.byte	0x4
 11184 1766 6A170000 		.4byte	0x176a
 11185 176a 0E       		.uleb128 0xe
 11186 176b 75170000 		.4byte	0x1775
 11187 176f 0F       		.uleb128 0xf
ARM GAS  /tmp/ccs3e2Sq.s 			page 198


 11188 1770 75170000 		.4byte	0x1775
 11189 1774 00       		.byte	0
 11190 1775 0C       		.uleb128 0xc
 11191 1776 04       		.byte	0x4
 11192 1777 96150000 		.4byte	0x1596
 11193 177b 03       		.uleb128 0x3
 11194 177c D30E0000 		.4byte	.LASF298
 11195 1780 1D       		.byte	0x1d
 11196 1781 75       		.byte	0x75
 11197 1782 86170000 		.4byte	0x1786
 11198 1786 0C       		.uleb128 0xc
 11199 1787 04       		.byte	0x4
 11200 1788 8C170000 		.4byte	0x178c
 11201 178c 0E       		.uleb128 0xe
 11202 178d 9C170000 		.4byte	0x179c
 11203 1791 0F       		.uleb128 0xf
 11204 1792 75170000 		.4byte	0x1775
 11205 1796 0F       		.uleb128 0xf
 11206 1797 41170000 		.4byte	0x1741
 11207 179b 00       		.byte	0
 11208 179c 0C       		.uleb128 0xc
 11209 179d 04       		.byte	0x4
 11210 179e 31160000 		.4byte	0x1631
 11211 17a2 0C       		.uleb128 0xc
 11212 17a3 04       		.byte	0x4
 11213 17a4 08170000 		.4byte	0x1708
 11214 17a8 0C       		.uleb128 0xc
 11215 17a9 04       		.byte	0x4
 11216 17aa 5A160000 		.4byte	0x165a
 11217 17ae 0C       		.uleb128 0xc
 11218 17af 04       		.byte	0x4
 11219 17b0 0F060000 		.4byte	0x60f
 11220 17b4 0C       		.uleb128 0xc
 11221 17b5 04       		.byte	0x4
 11222 17b6 51120000 		.4byte	0x1251
 11223 17ba 22       		.uleb128 0x22
 11224 17bb 07       		.byte	0x7
 11225 17bc 01       		.byte	0x1
 11226 17bd 63000000 		.4byte	0x63
 11227 17c1 1F       		.byte	0x1f
 11228 17c2 66       		.byte	0x66
 11229 17c3 E6170000 		.4byte	0x17e6
 11230 17c7 23       		.uleb128 0x23
 11231 17c8 F4060000 		.4byte	.LASF299
 11232 17cc 00       		.byte	0
 11233 17cd 23       		.uleb128 0x23
 11234 17ce 8A000000 		.4byte	.LASF300
 11235 17d2 01       		.byte	0x1
 11236 17d3 23       		.uleb128 0x23
 11237 17d4 25000000 		.4byte	.LASF301
 11238 17d8 02       		.byte	0x2
 11239 17d9 23       		.uleb128 0x23
 11240 17da 17040000 		.4byte	.LASF302
 11241 17de 03       		.byte	0x3
 11242 17df 23       		.uleb128 0x23
 11243 17e0 EA060000 		.4byte	.LASF303
 11244 17e4 04       		.byte	0x4
ARM GAS  /tmp/ccs3e2Sq.s 			page 199


 11245 17e5 00       		.byte	0
 11246 17e6 03       		.uleb128 0x3
 11247 17e7 21040000 		.4byte	.LASF304
 11248 17eb 1F       		.byte	0x1f
 11249 17ec 6C       		.byte	0x6c
 11250 17ed BA170000 		.4byte	0x17ba
 11251 17f1 03       		.uleb128 0x3
 11252 17f2 B6020000 		.4byte	.LASF305
 11253 17f6 20       		.byte	0x20
 11254 17f7 C2       		.byte	0xc2
 11255 17f8 FC170000 		.4byte	0x17fc
 11256 17fc 0D       		.uleb128 0xd
 11257 17fd B6020000 		.4byte	.LASF305
 11258 1801 2C       		.byte	0x2c
 11259 1802 20       		.byte	0x20
 11260 1803 4801     		.2byte	0x148
 11261 1805 7F180000 		.4byte	0x187f
 11262 1809 0B       		.uleb128 0xb
 11263 180a E60E0000 		.4byte	.LASF40
 11264 180e 20       		.byte	0x20
 11265 180f 4C01     		.2byte	0x14c
 11266 1811 E6170000 		.4byte	0x17e6
 11267 1815 00       		.byte	0
 11268 1816 0B       		.uleb128 0xb
 11269 1817 AD120000 		.4byte	.LASF268
 11270 181b 20       		.byte	0x20
 11271 181c 5001     		.2byte	0x150
 11272 181e EB180000 		.4byte	0x18eb
 11273 1822 04       		.byte	0x4
 11274 1823 0B       		.uleb128 0xb
 11275 1824 AF060000 		.4byte	.LASF306
 11276 1828 20       		.byte	0x20
 11277 1829 5401     		.2byte	0x154
 11278 182b B5020000 		.4byte	0x2b5
 11279 182f 08       		.byte	0x8
 11280 1830 0B       		.uleb128 0xb
 11281 1831 E9140000 		.4byte	.LASF307
 11282 1835 20       		.byte	0x20
 11283 1836 5801     		.2byte	0x158
 11284 1838 B5020000 		.4byte	0x2b5
 11285 183c 10       		.byte	0x10
 11286 183d 0B       		.uleb128 0xb
 11287 183e B7060000 		.4byte	.LASF308
 11288 1842 20       		.byte	0x20
 11289 1843 8C01     		.2byte	0x18c
 11290 1845 7F180000 		.4byte	0x187f
 11291 1849 18       		.byte	0x18
 11292 184a 0B       		.uleb128 0xb
 11293 184b 28150000 		.4byte	.LASF309
 11294 184f 20       		.byte	0x20
 11295 1850 9201     		.2byte	0x192
 11296 1852 7F180000 		.4byte	0x187f
 11297 1856 1C       		.byte	0x1c
 11298 1857 0B       		.uleb128 0xb
 11299 1858 84180000 		.4byte	.LASF284
 11300 185c 20       		.byte	0x20
 11301 185d 9601     		.2byte	0x196
ARM GAS  /tmp/ccs3e2Sq.s 			page 200


 11302 185f 7F180000 		.4byte	0x187f
 11303 1863 20       		.byte	0x20
 11304 1864 0B       		.uleb128 0xb
 11305 1865 CE070000 		.4byte	.LASF310
 11306 1869 20       		.byte	0x20
 11307 186a 9B01     		.2byte	0x19b
 11308 186c 7F180000 		.4byte	0x187f
 11309 1870 24       		.byte	0x24
 11310 1871 0A       		.uleb128 0xa
 11311 1872 63616E00 		.ascii	"can\000"
 11312 1876 20       		.byte	0x20
 11313 1877 A201     		.2byte	0x1a2
 11314 1879 F1180000 		.4byte	0x18f1
 11315 187d 28       		.byte	0x28
 11316 187e 00       		.byte	0
 11317 187f 03       		.uleb128 0x3
 11318 1880 22020000 		.4byte	.LASF311
 11319 1884 20       		.byte	0x20
 11320 1885 D1       		.byte	0xd1
 11321 1886 8A180000 		.4byte	0x188a
 11322 188a 0C       		.uleb128 0xc
 11323 188b 04       		.byte	0x4
 11324 188c 90180000 		.4byte	0x1890
 11325 1890 0E       		.uleb128 0xe
 11326 1891 A0180000 		.4byte	0x18a0
 11327 1895 0F       		.uleb128 0xf
 11328 1896 A0180000 		.4byte	0x18a0
 11329 189a 0F       		.uleb128 0xf
 11330 189b 0E010000 		.4byte	0x10e
 11331 189f 00       		.byte	0
 11332 18a0 0C       		.uleb128 0xc
 11333 18a1 04       		.byte	0x4
 11334 18a2 F1170000 		.4byte	0x17f1
 11335 18a6 11       		.uleb128 0x11
 11336 18a7 C9000000 		.4byte	0xc9
 11337 18ab B6180000 		.4byte	0x18b6
 11338 18af 12       		.uleb128 0x12
 11339 18b0 3C000000 		.4byte	0x3c
 11340 18b4 07       		.byte	0x7
 11341 18b5 00       		.byte	0
 11342 18b6 17       		.uleb128 0x17
 11343 18b7 08       		.byte	0x8
 11344 18b8 20       		.byte	0x20
 11345 18b9 3601     		.2byte	0x136
 11346 18bb DA180000 		.4byte	0x18da
 11347 18bf 0A       		.uleb128 0xa
 11348 18c0 6D637200 		.ascii	"mcr\000"
 11349 18c4 20       		.byte	0x20
 11350 18c5 3C01     		.2byte	0x13c
 11351 18c7 0E010000 		.4byte	0x10e
 11352 18cb 00       		.byte	0
 11353 18cc 0A       		.uleb128 0xa
 11354 18cd 62747200 		.ascii	"btr\000"
 11355 18d1 20       		.byte	0x20
 11356 18d2 4201     		.2byte	0x142
 11357 18d4 0E010000 		.4byte	0x10e
 11358 18d8 04       		.byte	0x4
ARM GAS  /tmp/ccs3e2Sq.s 			page 201


 11359 18d9 00       		.byte	0
 11360 18da 16       		.uleb128 0x16
 11361 18db 84110000 		.4byte	.LASF312
 11362 18df 20       		.byte	0x20
 11363 18e0 4301     		.2byte	0x143
 11364 18e2 B6180000 		.4byte	0x18b6
 11365 18e6 06       		.uleb128 0x6
 11366 18e7 DA180000 		.4byte	0x18da
 11367 18eb 0C       		.uleb128 0xc
 11368 18ec 04       		.byte	0x4
 11369 18ed E6180000 		.4byte	0x18e6
 11370 18f1 0C       		.uleb128 0xc
 11371 18f2 04       		.byte	0x4
 11372 18f3 5A080000 		.4byte	0x85a
 11373 18f7 13       		.uleb128 0x13
 11374 18f8 D2150000 		.4byte	.LASF313
 11375 18fc 20       		.byte	0x20
 11376 18fd AE01     		.2byte	0x1ae
 11377 18ff F1170000 		.4byte	0x17f1
 11378 1903 13       		.uleb128 0x13
 11379 1904 90070000 		.4byte	.LASF314
 11380 1908 20       		.byte	0x20
 11381 1909 B201     		.2byte	0x1b2
 11382 190b F1170000 		.4byte	0x17f1
 11383 190f 22       		.uleb128 0x22
 11384 1910 07       		.byte	0x7
 11385 1911 01       		.byte	0x1
 11386 1912 63000000 		.4byte	0x63
 11387 1916 21       		.byte	0x21
 11388 1917 4C       		.byte	0x4c
 11389 1918 41190000 		.4byte	0x1941
 11390 191c 23       		.uleb128 0x23
 11391 191d 56040000 		.4byte	.LASF315
 11392 1921 00       		.byte	0
 11393 1922 23       		.uleb128 0x23
 11394 1923 D3090000 		.4byte	.LASF316
 11395 1927 01       		.byte	0x1
 11396 1928 23       		.uleb128 0x23
 11397 1929 95040000 		.4byte	.LASF317
 11398 192d 02       		.byte	0x2
 11399 192e 23       		.uleb128 0x23
 11400 192f 45030000 		.4byte	.LASF318
 11401 1933 03       		.byte	0x3
 11402 1934 23       		.uleb128 0x23
 11403 1935 50020000 		.4byte	.LASF319
 11404 1939 04       		.byte	0x4
 11405 193a 23       		.uleb128 0x23
 11406 193b 3C0D0000 		.4byte	.LASF320
 11407 193f 05       		.byte	0x5
 11408 1940 00       		.byte	0
 11409 1941 03       		.uleb128 0x3
 11410 1942 9D0B0000 		.4byte	.LASF321
 11411 1946 21       		.byte	0x21
 11412 1947 53       		.byte	0x53
 11413 1948 0F190000 		.4byte	0x190f
 11414 194c 16       		.uleb128 0x16
 11415 194d 96030000 		.4byte	.LASF322
ARM GAS  /tmp/ccs3e2Sq.s 			page 202


 11416 1951 22       		.byte	0x22
 11417 1952 6A01     		.2byte	0x16a
 11418 1954 E9000000 		.4byte	0xe9
 11419 1958 16       		.uleb128 0x16
 11420 1959 D2020000 		.4byte	.LASF323
 11421 195d 22       		.byte	0x22
 11422 195e 6F01     		.2byte	0x16f
 11423 1960 0E010000 		.4byte	0x10e
 11424 1964 24       		.uleb128 0x24
 11425 1965 07       		.byte	0x7
 11426 1966 01       		.byte	0x1
 11427 1967 63000000 		.4byte	0x63
 11428 196b 22       		.byte	0x22
 11429 196c 7401     		.2byte	0x174
 11430 196e 85190000 		.4byte	0x1985
 11431 1972 23       		.uleb128 0x23
 11432 1973 58030000 		.4byte	.LASF324
 11433 1977 01       		.byte	0x1
 11434 1978 23       		.uleb128 0x23
 11435 1979 43000000 		.4byte	.LASF325
 11436 197d 02       		.byte	0x2
 11437 197e 23       		.uleb128 0x23
 11438 197f D8060000 		.4byte	.LASF326
 11439 1983 03       		.byte	0x3
 11440 1984 00       		.byte	0
 11441 1985 16       		.uleb128 0x16
 11442 1986 66190000 		.4byte	.LASF327
 11443 198a 22       		.byte	0x22
 11444 198b 7801     		.2byte	0x178
 11445 198d 64190000 		.4byte	0x1964
 11446 1991 24       		.uleb128 0x24
 11447 1992 07       		.byte	0x7
 11448 1993 01       		.byte	0x1
 11449 1994 63000000 		.4byte	0x63
 11450 1998 22       		.byte	0x22
 11451 1999 7D01     		.2byte	0x17d
 11452 199b B2190000 		.4byte	0x19b2
 11453 199f 23       		.uleb128 0x23
 11454 19a0 08040000 		.4byte	.LASF328
 11455 19a4 01       		.byte	0x1
 11456 19a5 23       		.uleb128 0x23
 11457 19a6 EE180000 		.4byte	.LASF329
 11458 19aa 02       		.byte	0x2
 11459 19ab 23       		.uleb128 0x23
 11460 19ac 9D070000 		.4byte	.LASF330
 11461 19b0 03       		.byte	0x3
 11462 19b1 00       		.byte	0
 11463 19b2 16       		.uleb128 0x16
 11464 19b3 AB040000 		.4byte	.LASF331
 11465 19b7 22       		.byte	0x22
 11466 19b8 8101     		.2byte	0x181
 11467 19ba 91190000 		.4byte	0x1991
 11468 19be 17       		.uleb128 0x17
 11469 19bf 0C       		.byte	0xc
 11470 19c0 22       		.byte	0x22
 11471 19c1 8601     		.2byte	0x186
 11472 19c3 EF190000 		.4byte	0x19ef
ARM GAS  /tmp/ccs3e2Sq.s 			page 203


 11473 19c7 0B       		.uleb128 0xb
 11474 19c8 4E040000 		.4byte	.LASF332
 11475 19cc 22       		.byte	0x22
 11476 19cd 8801     		.2byte	0x188
 11477 19cf 85190000 		.4byte	0x1985
 11478 19d3 00       		.byte	0
 11479 19d4 0B       		.uleb128 0xb
 11480 19d5 A0020000 		.4byte	.LASF333
 11481 19d9 22       		.byte	0x22
 11482 19da 8901     		.2byte	0x189
 11483 19dc 0E010000 		.4byte	0x10e
 11484 19e0 04       		.byte	0x4
 11485 19e1 0B       		.uleb128 0xb
 11486 19e2 F3190000 		.4byte	.LASF334
 11487 19e6 22       		.byte	0x22
 11488 19e7 8C01     		.2byte	0x18c
 11489 19e9 B2190000 		.4byte	0x19b2
 11490 19ed 08       		.byte	0x8
 11491 19ee 00       		.byte	0
 11492 19ef 16       		.uleb128 0x16
 11493 19f0 45010000 		.4byte	.LASF335
 11494 19f4 22       		.byte	0x22
 11495 19f5 8E01     		.2byte	0x18e
 11496 19f7 BE190000 		.4byte	0x19be
 11497 19fb 06       		.uleb128 0x6
 11498 19fc EF190000 		.4byte	0x19ef
 11499 1a00 16       		.uleb128 0x16
 11500 1a01 3B030000 		.4byte	.LASF336
 11501 1a05 22       		.byte	0x22
 11502 1a06 9301     		.2byte	0x193
 11503 1a08 0C1A0000 		.4byte	0x1a0c
 11504 1a0c 0D       		.uleb128 0xd
 11505 1a0d 3B030000 		.4byte	.LASF336
 11506 1a11 38       		.byte	0x38
 11507 1a12 22       		.byte	0x22
 11508 1a13 9801     		.2byte	0x198
 11509 1a15 A91A0000 		.4byte	0x1aa9
 11510 1a19 0B       		.uleb128 0xb
 11511 1a1a E60E0000 		.4byte	.LASF40
 11512 1a1e 22       		.byte	0x22
 11513 1a1f 9C01     		.2byte	0x19c
 11514 1a21 41190000 		.4byte	0x1941
 11515 1a25 00       		.byte	0
 11516 1a26 0B       		.uleb128 0xb
 11517 1a27 AD120000 		.4byte	.LASF268
 11518 1a2b 22       		.byte	0x22
 11519 1a2c A001     		.2byte	0x1a0
 11520 1a2e A91A0000 		.4byte	0x1aa9
 11521 1a32 04       		.byte	0x4
 11522 1a33 0B       		.uleb128 0xb
 11523 1a34 FB000000 		.4byte	.LASF337
 11524 1a38 22       		.byte	0x22
 11525 1a39 A401     		.2byte	0x1a4
 11526 1a3b 58190000 		.4byte	0x1958
 11527 1a3f 08       		.byte	0x8
 11528 1a40 0B       		.uleb128 0xb
 11529 1a41 E1080000 		.4byte	.LASF273
ARM GAS  /tmp/ccs3e2Sq.s 			page 204


 11530 1a45 22       		.byte	0x22
 11531 1a46 A901     		.2byte	0x1a9
 11532 1a48 6A0F0000 		.4byte	0xf6a
 11533 1a4c 0C       		.byte	0xc
 11534 1a4d 0B       		.uleb128 0xb
 11535 1a4e D2040000 		.4byte	.LASF272
 11536 1a52 22       		.byte	0x22
 11537 1a53 B201     		.2byte	0x1b2
 11538 1a55 80020000 		.4byte	0x280
 11539 1a59 1C       		.byte	0x1c
 11540 1a5a 0B       		.uleb128 0xb
 11541 1a5b DC090000 		.4byte	.LASF338
 11542 1a5f 22       		.byte	0x22
 11543 1a60 B601     		.2byte	0x1b6
 11544 1a62 4C190000 		.4byte	0x194c
 11545 1a66 20       		.byte	0x20
 11546 1a67 0B       		.uleb128 0xb
 11547 1a68 17060000 		.4byte	.LASF339
 11548 1a6c 22       		.byte	0x22
 11549 1a6d BA01     		.2byte	0x1ba
 11550 1a6f 0E010000 		.4byte	0x10e
 11551 1a73 24       		.byte	0x24
 11552 1a74 0B       		.uleb128 0xb
 11553 1a75 D80C0000 		.4byte	.LASF340
 11554 1a79 22       		.byte	0x22
 11555 1a7a BE01     		.2byte	0x1be
 11556 1a7c 0E010000 		.4byte	0x10e
 11557 1a80 28       		.byte	0x28
 11558 1a81 0B       		.uleb128 0xb
 11559 1a82 B6000000 		.4byte	.LASF341
 11560 1a86 22       		.byte	0x22
 11561 1a87 C201     		.2byte	0x1c2
 11562 1a89 B4170000 		.4byte	0x17b4
 11563 1a8d 2C       		.byte	0x2c
 11564 1a8e 0B       		.uleb128 0xb
 11565 1a8f 58010000 		.4byte	.LASF342
 11566 1a93 22       		.byte	0x22
 11567 1a94 C601     		.2byte	0x1c6
 11568 1a96 B4170000 		.4byte	0x17b4
 11569 1a9a 30       		.byte	0x30
 11570 1a9b 0A       		.uleb128 0xa
 11571 1a9c 69326300 		.ascii	"i2c\000"
 11572 1aa0 22       		.byte	0x22
 11573 1aa1 CA01     		.2byte	0x1ca
 11574 1aa3 AF1A0000 		.4byte	0x1aaf
 11575 1aa7 34       		.byte	0x34
 11576 1aa8 00       		.byte	0
 11577 1aa9 0C       		.uleb128 0xc
 11578 1aaa 04       		.byte	0x4
 11579 1aab FB190000 		.4byte	0x19fb
 11580 1aaf 0C       		.uleb128 0xc
 11581 1ab0 04       		.byte	0x4
 11582 1ab1 7E090000 		.4byte	0x97e
 11583 1ab5 13       		.uleb128 0x13
 11584 1ab6 CD080000 		.4byte	.LASF343
 11585 1aba 22       		.byte	0x22
 11586 1abb E401     		.2byte	0x1e4
ARM GAS  /tmp/ccs3e2Sq.s 			page 205


 11587 1abd 001A0000 		.4byte	0x1a00
 11588 1ac1 22       		.uleb128 0x22
 11589 1ac2 07       		.byte	0x7
 11590 1ac3 01       		.byte	0x1
 11591 1ac4 63000000 		.4byte	0x63
 11592 1ac8 23       		.byte	0x23
 11593 1ac9 4A       		.byte	0x4a
 11594 1aca E11A0000 		.4byte	0x1ae1
 11595 1ace 23       		.uleb128 0x23
 11596 1acf 55050000 		.4byte	.LASF344
 11597 1ad3 00       		.byte	0
 11598 1ad4 23       		.uleb128 0x23
 11599 1ad5 C4080000 		.4byte	.LASF345
 11600 1ad9 01       		.byte	0x1
 11601 1ada 23       		.uleb128 0x23
 11602 1adb FA0A0000 		.4byte	.LASF346
 11603 1adf 02       		.byte	0x2
 11604 1ae0 00       		.byte	0
 11605 1ae1 03       		.uleb128 0x3
 11606 1ae2 67020000 		.4byte	.LASF347
 11607 1ae6 23       		.byte	0x23
 11608 1ae7 4E       		.byte	0x4e
 11609 1ae8 C11A0000 		.4byte	0x1ac1
 11610 1aec 03       		.uleb128 0x3
 11611 1aed 43080000 		.4byte	.LASF348
 11612 1af1 23       		.byte	0x23
 11613 1af2 53       		.byte	0x53
 11614 1af3 F71A0000 		.4byte	0x1af7
 11615 1af7 0D       		.uleb128 0xd
 11616 1af8 43080000 		.4byte	.LASF348
 11617 1afc 1C       		.byte	0x1c
 11618 1afd 24       		.byte	0x24
 11619 1afe 6302     		.2byte	0x263
 11620 1b00 601B0000 		.4byte	0x1b60
 11621 1b04 0B       		.uleb128 0xb
 11622 1b05 E60E0000 		.4byte	.LASF40
 11623 1b09 24       		.byte	0x24
 11624 1b0a 6702     		.2byte	0x267
 11625 1b0c E11A0000 		.4byte	0x1ae1
 11626 1b10 00       		.byte	0
 11627 1b11 0B       		.uleb128 0xb
 11628 1b12 AD120000 		.4byte	.LASF268
 11629 1b16 24       		.byte	0x24
 11630 1b17 6B02     		.2byte	0x26b
 11631 1b19 5B1C0000 		.4byte	0x1c5b
 11632 1b1d 04       		.byte	0x4
 11633 1b1e 0B       		.uleb128 0xb
 11634 1b1f 2B0D0000 		.4byte	.LASF349
 11635 1b23 24       		.byte	0x24
 11636 1b24 6F02     		.2byte	0x26f
 11637 1b26 A61B0000 		.4byte	0x1ba6
 11638 1b2a 08       		.byte	0x8
 11639 1b2b 0B       		.uleb128 0xb
 11640 1b2c 9C110000 		.4byte	.LASF350
 11641 1b30 24       		.byte	0x24
 11642 1b31 7302     		.2byte	0x273
 11643 1b33 9A1B0000 		.4byte	0x1b9a
ARM GAS  /tmp/ccs3e2Sq.s 			page 206


 11644 1b37 0C       		.byte	0xc
 11645 1b38 0B       		.uleb128 0xb
 11646 1b39 0D160000 		.4byte	.LASF351
 11647 1b3d 24       		.byte	0x24
 11648 1b3e 7702     		.2byte	0x277
 11649 1b40 8E1B0000 		.4byte	0x1b8e
 11650 1b44 10       		.byte	0x10
 11651 1b45 0B       		.uleb128 0xb
 11652 1b46 FE080000 		.4byte	.LASF352
 11653 1b4a 24       		.byte	0x24
 11654 1b4b 7F02     		.2byte	0x27f
 11655 1b4d 0E010000 		.4byte	0x10e
 11656 1b51 14       		.byte	0x14
 11657 1b52 0A       		.uleb128 0xa
 11658 1b53 74696D00 		.ascii	"tim\000"
 11659 1b57 24       		.byte	0x24
 11660 1b58 8302     		.2byte	0x283
 11661 1b5a 611C0000 		.4byte	0x1c61
 11662 1b5e 18       		.byte	0x18
 11663 1b5f 00       		.byte	0
 11664 1b60 03       		.uleb128 0x3
 11665 1b61 8F0B0000 		.4byte	.LASF353
 11666 1b65 23       		.byte	0x23
 11667 1b66 5A       		.byte	0x5a
 11668 1b67 6B1B0000 		.4byte	0x1b6b
 11669 1b6b 0C       		.uleb128 0xc
 11670 1b6c 04       		.byte	0x4
 11671 1b6d 711B0000 		.4byte	0x1b71
 11672 1b71 0E       		.uleb128 0xe
 11673 1b72 7C1B0000 		.4byte	0x1b7c
 11674 1b76 0F       		.uleb128 0xf
 11675 1b77 7C1B0000 		.4byte	0x1b7c
 11676 1b7b 00       		.byte	0
 11677 1b7c 0C       		.uleb128 0xc
 11678 1b7d 04       		.byte	0x4
 11679 1b7e EC1A0000 		.4byte	0x1aec
 11680 1b82 16       		.uleb128 0x16
 11681 1b83 670E0000 		.4byte	.LASF354
 11682 1b87 24       		.byte	0x24
 11683 1b88 0F02     		.2byte	0x20f
 11684 1b8a 0E010000 		.4byte	0x10e
 11685 1b8e 16       		.uleb128 0x16
 11686 1b8f BE0F0000 		.4byte	.LASF355
 11687 1b93 24       		.byte	0x24
 11688 1b94 1402     		.2byte	0x214
 11689 1b96 C9000000 		.4byte	0xc9
 11690 1b9a 16       		.uleb128 0x16
 11691 1b9b 0E020000 		.4byte	.LASF356
 11692 1b9f 24       		.byte	0x24
 11693 1ba0 1902     		.2byte	0x219
 11694 1ba2 0E010000 		.4byte	0x10e
 11695 1ba6 16       		.uleb128 0x16
 11696 1ba7 9F0F0000 		.4byte	.LASF357
 11697 1bab 24       		.byte	0x24
 11698 1bac 1E02     		.2byte	0x21e
 11699 1bae 0E010000 		.4byte	0x10e
 11700 1bb2 17       		.uleb128 0x17
ARM GAS  /tmp/ccs3e2Sq.s 			page 207


 11701 1bb3 08       		.byte	0x8
 11702 1bb4 24       		.byte	0x24
 11703 1bb5 2302     		.2byte	0x223
 11704 1bb7 D61B0000 		.4byte	0x1bd6
 11705 1bbb 0B       		.uleb128 0xb
 11706 1bbc 21060000 		.4byte	.LASF358
 11707 1bc0 24       		.byte	0x24
 11708 1bc1 2702     		.2byte	0x227
 11709 1bc3 821B0000 		.4byte	0x1b82
 11710 1bc7 00       		.byte	0
 11711 1bc8 0B       		.uleb128 0xb
 11712 1bc9 230F0000 		.4byte	.LASF359
 11713 1bcd 24       		.byte	0x24
 11714 1bce 2D02     		.2byte	0x22d
 11715 1bd0 601B0000 		.4byte	0x1b60
 11716 1bd4 04       		.byte	0x4
 11717 1bd5 00       		.byte	0
 11718 1bd6 16       		.uleb128 0x16
 11719 1bd7 65090000 		.4byte	.LASF360
 11720 1bdb 24       		.byte	0x24
 11721 1bdc 2F02     		.2byte	0x22f
 11722 1bde B21B0000 		.4byte	0x1bb2
 11723 1be2 17       		.uleb128 0x17
 11724 1be3 34       		.byte	0x34
 11725 1be4 24       		.byte	0x24
 11726 1be5 3402     		.2byte	0x234
 11727 1be7 3A1C0000 		.4byte	0x1c3a
 11728 1beb 0B       		.uleb128 0xb
 11729 1bec B6180000 		.4byte	.LASF361
 11730 1bf0 24       		.byte	0x24
 11731 1bf1 3A02     		.2byte	0x23a
 11732 1bf3 0E010000 		.4byte	0x10e
 11733 1bf7 00       		.byte	0
 11734 1bf8 0B       		.uleb128 0xb
 11735 1bf9 2B0D0000 		.4byte	.LASF349
 11736 1bfd 24       		.byte	0x24
 11737 1bfe 4002     		.2byte	0x240
 11738 1c00 A61B0000 		.4byte	0x1ba6
 11739 1c04 04       		.byte	0x4
 11740 1c05 0B       		.uleb128 0xb
 11741 1c06 230F0000 		.4byte	.LASF359
 11742 1c0a 24       		.byte	0x24
 11743 1c0b 4602     		.2byte	0x246
 11744 1c0d 601B0000 		.4byte	0x1b60
 11745 1c11 08       		.byte	0x8
 11746 1c12 0B       		.uleb128 0xb
 11747 1c13 0D160000 		.4byte	.LASF351
 11748 1c17 24       		.byte	0x24
 11749 1c18 4A02     		.2byte	0x24a
 11750 1c1a 3A1C0000 		.4byte	0x1c3a
 11751 1c1e 0C       		.byte	0xc
 11752 1c1f 0A       		.uleb128 0xa
 11753 1c20 63723200 		.ascii	"cr2\000"
 11754 1c24 24       		.byte	0x24
 11755 1c25 5002     		.2byte	0x250
 11756 1c27 0E010000 		.4byte	0x10e
 11757 1c2b 2C       		.byte	0x2c
ARM GAS  /tmp/ccs3e2Sq.s 			page 208


 11758 1c2c 0B       		.uleb128 0xb
 11759 1c2d 9D080000 		.4byte	.LASF362
 11760 1c31 24       		.byte	0x24
 11761 1c32 5D02     		.2byte	0x25d
 11762 1c34 0E010000 		.4byte	0x10e
 11763 1c38 30       		.byte	0x30
 11764 1c39 00       		.byte	0
 11765 1c3a 11       		.uleb128 0x11
 11766 1c3b D61B0000 		.4byte	0x1bd6
 11767 1c3f 4A1C0000 		.4byte	0x1c4a
 11768 1c43 12       		.uleb128 0x12
 11769 1c44 3C000000 		.4byte	0x3c
 11770 1c48 03       		.byte	0x3
 11771 1c49 00       		.byte	0
 11772 1c4a 16       		.uleb128 0x16
 11773 1c4b 4D080000 		.4byte	.LASF363
 11774 1c4f 24       		.byte	0x24
 11775 1c50 5E02     		.2byte	0x25e
 11776 1c52 E21B0000 		.4byte	0x1be2
 11777 1c56 06       		.uleb128 0x6
 11778 1c57 4A1C0000 		.4byte	0x1c4a
 11779 1c5b 0C       		.uleb128 0xc
 11780 1c5c 04       		.byte	0x4
 11781 1c5d 561C0000 		.4byte	0x1c56
 11782 1c61 0C       		.uleb128 0xc
 11783 1c62 04       		.byte	0x4
 11784 1c63 230D0000 		.4byte	0xd23
 11785 1c67 13       		.uleb128 0x13
 11786 1c68 0F0C0000 		.4byte	.LASF364
 11787 1c6c 24       		.byte	0x24
 11788 1c6d A202     		.2byte	0x2a2
 11789 1c6f EC1A0000 		.4byte	0x1aec
 11790 1c73 13       		.uleb128 0x13
 11791 1c74 270C0000 		.4byte	.LASF365
 11792 1c78 24       		.byte	0x24
 11793 1c79 AA02     		.2byte	0x2aa
 11794 1c7b EC1A0000 		.4byte	0x1aec
 11795 1c7f 13       		.uleb128 0x13
 11796 1c80 A6120000 		.4byte	.LASF366
 11797 1c84 24       		.byte	0x24
 11798 1c85 BE02     		.2byte	0x2be
 11799 1c87 EC1A0000 		.4byte	0x1aec
 11800 1c8b 22       		.uleb128 0x22
 11801 1c8c 07       		.byte	0x7
 11802 1c8d 01       		.byte	0x1
 11803 1c8e 63000000 		.4byte	0x63
 11804 1c92 25       		.byte	0x25
 11805 1c93 58       		.byte	0x58
 11806 1c94 AB1C0000 		.4byte	0x1cab
 11807 1c98 23       		.uleb128 0x23
 11808 1c99 6E040000 		.4byte	.LASF367
 11809 1c9d 00       		.byte	0
 11810 1c9e 23       		.uleb128 0x23
 11811 1c9f 1D090000 		.4byte	.LASF368
 11812 1ca3 01       		.byte	0x1
 11813 1ca4 23       		.uleb128 0x23
 11814 1ca5 721A0000 		.4byte	.LASF369
ARM GAS  /tmp/ccs3e2Sq.s 			page 209


 11815 1ca9 02       		.byte	0x2
 11816 1caa 00       		.byte	0
 11817 1cab 03       		.uleb128 0x3
 11818 1cac 26070000 		.4byte	.LASF370
 11819 1cb0 25       		.byte	0x25
 11820 1cb1 5C       		.byte	0x5c
 11821 1cb2 8B1C0000 		.4byte	0x1c8b
 11822 1cb6 03       		.uleb128 0x3
 11823 1cb7 24160000 		.4byte	.LASF371
 11824 1cbb 25       		.byte	0x25
 11825 1cbc 61       		.byte	0x61
 11826 1cbd C11C0000 		.4byte	0x1cc1
 11827 1cc1 07       		.uleb128 0x7
 11828 1cc2 24160000 		.4byte	.LASF371
 11829 1cc6 7C       		.byte	0x7c
 11830 1cc7 25       		.byte	0x25
 11831 1cc8 7B       		.byte	0x7b
 11832 1cc9 381D0000 		.4byte	0x1d38
 11833 1ccd 09       		.uleb128 0x9
 11834 1cce 766D7400 		.ascii	"vmt\000"
 11835 1cd2 25       		.byte	0x25
 11836 1cd3 7D       		.byte	0x7d
 11837 1cd4 CE1D0000 		.4byte	0x1dce
 11838 1cd8 00       		.byte	0
 11839 1cd9 08       		.uleb128 0x8
 11840 1cda 1F000000 		.4byte	.LASF372
 11841 1cde 25       		.byte	0x25
 11842 1cdf 7E       		.byte	0x7e
 11843 1ce0 EE0F0000 		.4byte	0xfee
 11844 1ce4 04       		.byte	0x4
 11845 1ce5 08       		.uleb128 0x8
 11846 1ce6 E60E0000 		.4byte	.LASF40
 11847 1cea 25       		.byte	0x25
 11848 1ceb 7E       		.byte	0x7e
 11849 1cec AB1C0000 		.4byte	0x1cab
 11850 1cf0 08       		.byte	0x8
 11851 1cf1 08       		.uleb128 0x8
 11852 1cf2 5A100000 		.4byte	.LASF373
 11853 1cf6 25       		.byte	0x25
 11854 1cf7 7E       		.byte	0x7e
 11855 1cf8 24140000 		.4byte	0x1424
 11856 1cfc 0C       		.byte	0xc
 11857 1cfd 08       		.uleb128 0x8
 11858 1cfe 570B0000 		.4byte	.LASF374
 11859 1d02 25       		.byte	0x25
 11860 1d03 7E       		.byte	0x7e
 11861 1d04 2F140000 		.4byte	0x142f
 11862 1d08 30       		.byte	0x30
 11863 1d09 09       		.uleb128 0x9
 11864 1d0a 696200   		.ascii	"ib\000"
 11865 1d0d 25       		.byte	0x25
 11866 1d0e 7E       		.byte	0x7e
 11867 1d0f D41D0000 		.4byte	0x1dd4
 11868 1d13 54       		.byte	0x54
 11869 1d14 09       		.uleb128 0x9
 11870 1d15 6F6200   		.ascii	"ob\000"
 11871 1d18 25       		.byte	0x25
ARM GAS  /tmp/ccs3e2Sq.s 			page 210


 11872 1d19 7E       		.byte	0x7e
 11873 1d1a D41D0000 		.4byte	0x1dd4
 11874 1d1e 64       		.byte	0x64
 11875 1d1f 08       		.uleb128 0x8
 11876 1d20 BA110000 		.4byte	.LASF375
 11877 1d24 25       		.byte	0x25
 11878 1d25 7E       		.byte	0x7e
 11879 1d26 E41D0000 		.4byte	0x1de4
 11880 1d2a 74       		.byte	0x74
 11881 1d2b 08       		.uleb128 0x8
 11882 1d2c 41120000 		.4byte	.LASF376
 11883 1d30 25       		.byte	0x25
 11884 1d31 7E       		.byte	0x7e
 11885 1d32 C9000000 		.4byte	0xc9
 11886 1d36 78       		.byte	0x78
 11887 1d37 00       		.byte	0
 11888 1d38 1E       		.uleb128 0x1e
 11889 1d39 53443700 		.ascii	"SD7\000"
 11890 1d3d 26       		.byte	0x26
 11891 1d3e 5601     		.2byte	0x156
 11892 1d40 B61C0000 		.4byte	0x1cb6
 11893 1d44 07       		.uleb128 0x7
 11894 1d45 350A0000 		.4byte	.LASF377
 11895 1d49 28       		.byte	0x28
 11896 1d4a 25       		.byte	0x25
 11897 1d4b 70       		.byte	0x70
 11898 1d4c C91D0000 		.4byte	0x1dc9
 11899 1d50 08       		.uleb128 0x8
 11900 1d51 02010000 		.4byte	.LASF378
 11901 1d55 25       		.byte	0x25
 11902 1d56 71       		.byte	0x71
 11903 1d57 2C000000 		.4byte	0x2c
 11904 1d5b 00       		.byte	0
 11905 1d5c 08       		.uleb128 0x8
 11906 1d5d 54100000 		.4byte	.LASF379
 11907 1d61 25       		.byte	0x25
 11908 1d62 71       		.byte	0x71
 11909 1d63 96120000 		.4byte	0x1296
 11910 1d67 04       		.byte	0x4
 11911 1d68 08       		.uleb128 0x8
 11912 1d69 2D010000 		.4byte	.LASF380
 11913 1d6d 25       		.byte	0x25
 11914 1d6e 71       		.byte	0x71
 11915 1d6f B5120000 		.4byte	0x12b5
 11916 1d73 08       		.byte	0x8
 11917 1d74 09       		.uleb128 0x9
 11918 1d75 70757400 		.ascii	"put\000"
 11919 1d79 25       		.byte	0x25
 11920 1d7a 71       		.byte	0x71
 11921 1d7b CF120000 		.4byte	0x12cf
 11922 1d7f 0C       		.byte	0xc
 11923 1d80 09       		.uleb128 0x9
 11924 1d81 67657400 		.ascii	"get\000"
 11925 1d85 25       		.byte	0x25
 11926 1d86 71       		.byte	0x71
 11927 1d87 E4120000 		.4byte	0x12e4
 11928 1d8b 10       		.byte	0x10
ARM GAS  /tmp/ccs3e2Sq.s 			page 211


 11929 1d8c 08       		.uleb128 0x8
 11930 1d8d DB0D0000 		.4byte	.LASF381
 11931 1d91 25       		.byte	0x25
 11932 1d92 71       		.byte	0x71
 11933 1d93 03130000 		.4byte	0x1303
 11934 1d97 14       		.byte	0x14
 11935 1d98 08       		.uleb128 0x8
 11936 1d99 0B100000 		.4byte	.LASF382
 11937 1d9d 25       		.byte	0x25
 11938 1d9e 71       		.byte	0x71
 11939 1d9f 1D130000 		.4byte	0x131d
 11940 1da3 18       		.byte	0x18
 11941 1da4 08       		.uleb128 0x8
 11942 1da5 D8160000 		.4byte	.LASF383
 11943 1da9 25       		.byte	0x25
 11944 1daa 71       		.byte	0x71
 11945 1dab 41130000 		.4byte	0x1341
 11946 1daf 1C       		.byte	0x1c
 11947 1db0 08       		.uleb128 0x8
 11948 1db1 5E0D0000 		.4byte	.LASF384
 11949 1db5 25       		.byte	0x25
 11950 1db6 71       		.byte	0x71
 11951 1db7 65130000 		.4byte	0x1365
 11952 1dbb 20       		.byte	0x20
 11953 1dbc 09       		.uleb128 0x9
 11954 1dbd 63746C00 		.ascii	"ctl\000"
 11955 1dc1 25       		.byte	0x25
 11956 1dc2 71       		.byte	0x71
 11957 1dc3 84130000 		.4byte	0x1384
 11958 1dc7 24       		.byte	0x24
 11959 1dc8 00       		.byte	0
 11960 1dc9 06       		.uleb128 0x6
 11961 1dca 441D0000 		.4byte	0x1d44
 11962 1dce 0C       		.uleb128 0xc
 11963 1dcf 04       		.byte	0x4
 11964 1dd0 C91D0000 		.4byte	0x1dc9
 11965 1dd4 11       		.uleb128 0x11
 11966 1dd5 C9000000 		.4byte	0xc9
 11967 1dd9 E41D0000 		.4byte	0x1de4
 11968 1ddd 12       		.uleb128 0x12
 11969 1dde 3C000000 		.4byte	0x3c
 11970 1de2 0F       		.byte	0xf
 11971 1de3 00       		.byte	0
 11972 1de4 0C       		.uleb128 0xc
 11973 1de5 04       		.byte	0x4
 11974 1de6 760A0000 		.4byte	0xa76
 11975 1dea 22       		.uleb128 0x22
 11976 1deb 07       		.byte	0x7
 11977 1dec 01       		.byte	0x1
 11978 1ded 63000000 		.4byte	0x63
 11979 1df1 27       		.byte	0x27
 11980 1df2 74       		.byte	0x74
 11981 1df3 161E0000 		.4byte	0x1e16
 11982 1df7 23       		.uleb128 0x23
 11983 1df8 EA040000 		.4byte	.LASF385
 11984 1dfc 00       		.byte	0
 11985 1dfd 23       		.uleb128 0x23
ARM GAS  /tmp/ccs3e2Sq.s 			page 212


 11986 1dfe 05020000 		.4byte	.LASF386
 11987 1e02 01       		.byte	0x1
 11988 1e03 23       		.uleb128 0x23
 11989 1e04 2E170000 		.4byte	.LASF387
 11990 1e08 02       		.byte	0x2
 11991 1e09 23       		.uleb128 0x23
 11992 1e0a F9090000 		.4byte	.LASF388
 11993 1e0e 03       		.byte	0x3
 11994 1e0f 23       		.uleb128 0x23
 11995 1e10 870D0000 		.4byte	.LASF389
 11996 1e14 04       		.byte	0x4
 11997 1e15 00       		.byte	0
 11998 1e16 03       		.uleb128 0x3
 11999 1e17 38020000 		.4byte	.LASF390
 12000 1e1b 27       		.byte	0x27
 12001 1e1c 7A       		.byte	0x7a
 12002 1e1d EA1D0000 		.4byte	0x1dea
 12003 1e21 03       		.uleb128 0x3
 12004 1e22 E6150000 		.4byte	.LASF391
 12005 1e26 27       		.byte	0x27
 12006 1e27 7F       		.byte	0x7f
 12007 1e28 2C1E0000 		.4byte	0x1e2c
 12008 1e2c 07       		.uleb128 0x7
 12009 1e2d 07030000 		.4byte	.LASF392
 12010 1e31 20       		.byte	0x20
 12011 1e32 27       		.byte	0x27
 12012 1e33 C0       		.byte	0xc0
 12013 1e34 991E0000 		.4byte	0x1e99
 12014 1e38 08       		.uleb128 0x8
 12015 1e39 E60E0000 		.4byte	.LASF40
 12016 1e3d 27       		.byte	0x27
 12017 1e3e C4       		.byte	0xc4
 12018 1e3f 161E0000 		.4byte	0x1e16
 12019 1e43 00       		.byte	0
 12020 1e44 08       		.uleb128 0x8
 12021 1e45 AD120000 		.4byte	.LASF268
 12022 1e49 27       		.byte	0x27
 12023 1e4a C8       		.byte	0xc8
 12024 1e4b 381F0000 		.4byte	0x1f38
 12025 1e4f 04       		.byte	0x4
 12026 1e50 08       		.uleb128 0x8
 12027 1e51 D2040000 		.4byte	.LASF272
 12028 1e55 27       		.byte	0x27
 12029 1e56 CD       		.byte	0xcd
 12030 1e57 80020000 		.4byte	0x280
 12031 1e5b 08       		.byte	0x8
 12032 1e5c 09       		.uleb128 0x9
 12033 1e5d 73706900 		.ascii	"spi\000"
 12034 1e61 27       		.byte	0x27
 12035 1e62 D9       		.byte	0xd9
 12036 1e63 3E1F0000 		.4byte	0x1f3e
 12037 1e67 0C       		.byte	0xc
 12038 1e68 08       		.uleb128 0x8
 12039 1e69 B6000000 		.4byte	.LASF341
 12040 1e6d 27       		.byte	0x27
 12041 1e6e D9       		.byte	0xd9
 12042 1e6f B4170000 		.4byte	0x17b4
ARM GAS  /tmp/ccs3e2Sq.s 			page 213


 12043 1e73 10       		.byte	0x10
 12044 1e74 08       		.uleb128 0x8
 12045 1e75 58010000 		.4byte	.LASF342
 12046 1e79 27       		.byte	0x27
 12047 1e7a D9       		.byte	0xd9
 12048 1e7b B4170000 		.4byte	0x17b4
 12049 1e7f 14       		.byte	0x14
 12050 1e80 08       		.uleb128 0x8
 12051 1e81 17060000 		.4byte	.LASF339
 12052 1e85 27       		.byte	0x27
 12053 1e86 D9       		.byte	0xd9
 12054 1e87 0E010000 		.4byte	0x10e
 12055 1e8b 18       		.byte	0x18
 12056 1e8c 08       		.uleb128 0x8
 12057 1e8d D80C0000 		.4byte	.LASF340
 12058 1e91 27       		.byte	0x27
 12059 1e92 D9       		.byte	0xd9
 12060 1e93 0E010000 		.4byte	0x10e
 12061 1e97 1C       		.byte	0x1c
 12062 1e98 00       		.byte	0
 12063 1e99 03       		.uleb128 0x3
 12064 1e9a F6150000 		.4byte	.LASF393
 12065 1e9e 27       		.byte	0x27
 12066 1e9f 83       		.byte	0x83
 12067 1ea0 A91E0000 		.4byte	0x1ea9
 12068 1ea4 06       		.uleb128 0x6
 12069 1ea5 991E0000 		.4byte	0x1e99
 12070 1ea9 07       		.uleb128 0x7
 12071 1eaa C0180000 		.4byte	.LASF394
 12072 1eae 10       		.byte	0x10
 12073 1eaf 27       		.byte	0x27
 12074 1eb0 94       		.byte	0x94
 12075 1eb1 F21E0000 		.4byte	0x1ef2
 12076 1eb5 08       		.uleb128 0x8
 12077 1eb6 BE160000 		.4byte	.LASF281
 12078 1eba 27       		.byte	0x27
 12079 1ebb 99       		.byte	0x99
 12080 1ebc F90F0000 		.4byte	0xff9
 12081 1ec0 00       		.byte	0
 12082 1ec1 08       		.uleb128 0x8
 12083 1ec2 78060000 		.4byte	.LASF283
 12084 1ec6 27       		.byte	0x27
 12085 1ec7 9E       		.byte	0x9e
 12086 1ec8 F21E0000 		.4byte	0x1ef2
 12087 1ecc 04       		.byte	0x4
 12088 1ecd 08       		.uleb128 0x8
 12089 1ece 76090000 		.4byte	.LASF395
 12090 1ed2 27       		.byte	0x27
 12091 1ed3 A3       		.byte	0xa3
 12092 1ed4 32150000 		.4byte	0x1532
 12093 1ed8 08       		.byte	0x8
 12094 1ed9 09       		.uleb128 0x9
 12095 1eda 63723100 		.ascii	"cr1\000"
 12096 1ede 27       		.byte	0x27
 12097 1edf BA       		.byte	0xba
 12098 1ee0 E9000000 		.4byte	0xe9
 12099 1ee4 0C       		.byte	0xc
ARM GAS  /tmp/ccs3e2Sq.s 			page 214


 12100 1ee5 09       		.uleb128 0x9
 12101 1ee6 63723200 		.ascii	"cr2\000"
 12102 1eea 27       		.byte	0x27
 12103 1eeb BA       		.byte	0xba
 12104 1eec E9000000 		.4byte	0xe9
 12105 1ef0 0E       		.byte	0xe
 12106 1ef1 00       		.byte	0
 12107 1ef2 03       		.uleb128 0x3
 12108 1ef3 12010000 		.4byte	.LASF396
 12109 1ef7 27       		.byte	0x27
 12110 1ef8 8B       		.byte	0x8b
 12111 1ef9 FD1E0000 		.4byte	0x1efd
 12112 1efd 0C       		.uleb128 0xc
 12113 1efe 04       		.byte	0x4
 12114 1eff 031F0000 		.4byte	0x1f03
 12115 1f03 0E       		.uleb128 0xe
 12116 1f04 0E1F0000 		.4byte	0x1f0e
 12117 1f08 0F       		.uleb128 0xf
 12118 1f09 0E1F0000 		.4byte	0x1f0e
 12119 1f0d 00       		.byte	0
 12120 1f0e 0C       		.uleb128 0xc
 12121 1f0f 04       		.byte	0x4
 12122 1f10 211E0000 		.4byte	0x1e21
 12123 1f14 13       		.uleb128 0x13
 12124 1f15 05100000 		.4byte	.LASF397
 12125 1f19 28       		.byte	0x28
 12126 1f1a BD01     		.2byte	0x1bd
 12127 1f1c 211E0000 		.4byte	0x1e21
 12128 1f20 13       		.uleb128 0x13
 12129 1f21 1F100000 		.4byte	.LASF398
 12130 1f25 28       		.byte	0x28
 12131 1f26 C901     		.2byte	0x1c9
 12132 1f28 211E0000 		.4byte	0x1e21
 12133 1f2c 13       		.uleb128 0x13
 12134 1f2d 25100000 		.4byte	.LASF399
 12135 1f31 28       		.byte	0x28
 12136 1f32 CD01     		.2byte	0x1cd
 12137 1f34 211E0000 		.4byte	0x1e21
 12138 1f38 0C       		.uleb128 0xc
 12139 1f39 04       		.byte	0x4
 12140 1f3a A41E0000 		.4byte	0x1ea4
 12141 1f3e 0C       		.uleb128 0xc
 12142 1f3f 04       		.byte	0x4
 12143 1f40 070A0000 		.4byte	0xa07
 12144 1f44 22       		.uleb128 0x22
 12145 1f45 07       		.byte	0x7
 12146 1f46 01       		.byte	0x1
 12147 1f47 63000000 		.4byte	0x63
 12148 1f4b 29       		.byte	0x29
 12149 1f4c 59       		.byte	0x59
 12150 1f4d 641F0000 		.4byte	0x1f64
 12151 1f51 23       		.uleb128 0x23
 12152 1f52 68080000 		.4byte	.LASF400
 12153 1f56 00       		.byte	0
 12154 1f57 23       		.uleb128 0x23
 12155 1f58 D6120000 		.4byte	.LASF401
 12156 1f5c 01       		.byte	0x1
ARM GAS  /tmp/ccs3e2Sq.s 			page 215


 12157 1f5d 23       		.uleb128 0x23
 12158 1f5e 15190000 		.4byte	.LASF402
 12159 1f62 02       		.byte	0x2
 12160 1f63 00       		.byte	0
 12161 1f64 03       		.uleb128 0x3
 12162 1f65 2B100000 		.4byte	.LASF403
 12163 1f69 29       		.byte	0x29
 12164 1f6a 5D       		.byte	0x5d
 12165 1f6b 441F0000 		.4byte	0x1f44
 12166 1f6f 22       		.uleb128 0x22
 12167 1f70 07       		.byte	0x7
 12168 1f71 01       		.byte	0x1
 12169 1f72 63000000 		.4byte	0x63
 12170 1f76 29       		.byte	0x29
 12171 1f77 62       		.byte	0x62
 12172 1f78 8F1F0000 		.4byte	0x1f8f
 12173 1f7c 23       		.uleb128 0x23
 12174 1f7d 57000000 		.4byte	.LASF404
 12175 1f81 00       		.byte	0
 12176 1f82 23       		.uleb128 0x23
 12177 1f83 81070000 		.4byte	.LASF405
 12178 1f87 01       		.byte	0x1
 12179 1f88 23       		.uleb128 0x23
 12180 1f89 311A0000 		.4byte	.LASF406
 12181 1f8d 02       		.byte	0x2
 12182 1f8e 00       		.byte	0
 12183 1f8f 03       		.uleb128 0x3
 12184 1f90 9A160000 		.4byte	.LASF407
 12185 1f94 29       		.byte	0x29
 12186 1f95 66       		.byte	0x66
 12187 1f96 6F1F0000 		.4byte	0x1f6f
 12188 1f9a 22       		.uleb128 0x22
 12189 1f9b 07       		.byte	0x7
 12190 1f9c 01       		.byte	0x1
 12191 1f9d 63000000 		.4byte	0x63
 12192 1fa1 29       		.byte	0x29
 12193 1fa2 6B       		.byte	0x6b
 12194 1fa3 BA1F0000 		.4byte	0x1fba
 12195 1fa7 23       		.uleb128 0x23
 12196 1fa8 3D0F0000 		.4byte	.LASF408
 12197 1fac 00       		.byte	0
 12198 1fad 23       		.uleb128 0x23
 12199 1fae 4E070000 		.4byte	.LASF409
 12200 1fb2 01       		.byte	0x1
 12201 1fb3 23       		.uleb128 0x23
 12202 1fb4 59110000 		.4byte	.LASF410
 12203 1fb8 02       		.byte	0x2
 12204 1fb9 00       		.byte	0
 12205 1fba 03       		.uleb128 0x3
 12206 1fbb 76160000 		.4byte	.LASF411
 12207 1fbf 29       		.byte	0x29
 12208 1fc0 6F       		.byte	0x6f
 12209 1fc1 9A1F0000 		.4byte	0x1f9a
 12210 1fc5 16       		.uleb128 0x16
 12211 1fc6 CA120000 		.4byte	.LASF412
 12212 1fca 2A       		.byte	0x2a
 12213 1fcb 2602     		.2byte	0x226
ARM GAS  /tmp/ccs3e2Sq.s 			page 216


 12214 1fcd 0E010000 		.4byte	0x10e
 12215 1fd1 16       		.uleb128 0x16
 12216 1fd2 990C0000 		.4byte	.LASF413
 12217 1fd6 2A       		.byte	0x2a
 12218 1fd7 2B02     		.2byte	0x22b
 12219 1fd9 DD1F0000 		.4byte	0x1fdd
 12220 1fdd 0D       		.uleb128 0xd
 12221 1fde 990C0000 		.4byte	.LASF413
 12222 1fe2 28       		.byte	0x28
 12223 1fe3 2A       		.byte	0x2a
 12224 1fe4 7302     		.2byte	0x273
 12225 1fe6 87200000 		.4byte	0x2087
 12226 1fea 0B       		.uleb128 0xb
 12227 1feb E60E0000 		.4byte	.LASF40
 12228 1fef 2A       		.byte	0x2a
 12229 1ff0 7702     		.2byte	0x277
 12230 1ff2 641F0000 		.4byte	0x1f64
 12231 1ff6 00       		.byte	0
 12232 1ff7 0B       		.uleb128 0xb
 12233 1ff8 D0190000 		.4byte	.LASF414
 12234 1ffc 2A       		.byte	0x2a
 12235 1ffd 7B02     		.2byte	0x27b
 12236 1fff 8F1F0000 		.4byte	0x1f8f
 12237 2003 01       		.byte	0x1
 12238 2004 0B       		.uleb128 0xb
 12239 2005 980E0000 		.4byte	.LASF415
 12240 2009 2A       		.byte	0x2a
 12241 200a 7F02     		.2byte	0x27f
 12242 200c BA1F0000 		.4byte	0x1fba
 12243 2010 02       		.byte	0x2
 12244 2011 0B       		.uleb128 0xb
 12245 2012 AD120000 		.4byte	.LASF268
 12246 2016 2A       		.byte	0x2a
 12247 2017 8302     		.2byte	0x283
 12248 2019 7E210000 		.4byte	0x217e
 12249 201d 04       		.byte	0x4
 12250 201e 0B       		.uleb128 0xb
 12251 201f 43020000 		.4byte	.LASF416
 12252 2023 2A       		.byte	0x2a
 12253 2024 8802     		.2byte	0x288
 12254 2026 F90F0000 		.4byte	0xff9
 12255 202a 08       		.byte	0x8
 12256 202b 0B       		.uleb128 0xb
 12257 202c 240B0000 		.4byte	.LASF417
 12258 2030 2A       		.byte	0x2a
 12259 2031 8C02     		.2byte	0x28c
 12260 2033 80020000 		.4byte	0x280
 12261 2037 0C       		.byte	0xc
 12262 2038 0B       		.uleb128 0xb
 12263 2039 2D0C0000 		.4byte	.LASF418
 12264 203d 2A       		.byte	0x2a
 12265 203e 9002     		.2byte	0x290
 12266 2040 80020000 		.4byte	0x280
 12267 2044 10       		.byte	0x10
 12268 2045 0B       		.uleb128 0xb
 12269 2046 BA110000 		.4byte	.LASF375
 12270 204a 2A       		.byte	0x2a
ARM GAS  /tmp/ccs3e2Sq.s 			page 217


 12271 204b 9F02     		.2byte	0x29f
 12272 204d E41D0000 		.4byte	0x1de4
 12273 2051 14       		.byte	0x14
 12274 2052 0B       		.uleb128 0xb
 12275 2053 FD0F0000 		.4byte	.LASF275
 12276 2057 2A       		.byte	0x2a
 12277 2058 A302     		.2byte	0x2a3
 12278 205a 0E010000 		.4byte	0x10e
 12279 205e 18       		.byte	0x18
 12280 205f 0B       		.uleb128 0xb
 12281 2060 B6000000 		.4byte	.LASF341
 12282 2064 2A       		.byte	0x2a
 12283 2065 A702     		.2byte	0x2a7
 12284 2067 B4170000 		.4byte	0x17b4
 12285 206b 1C       		.byte	0x1c
 12286 206c 0B       		.uleb128 0xb
 12287 206d 58010000 		.4byte	.LASF342
 12288 2071 2A       		.byte	0x2a
 12289 2072 AB02     		.2byte	0x2ab
 12290 2074 B4170000 		.4byte	0x17b4
 12291 2078 20       		.byte	0x20
 12292 2079 0B       		.uleb128 0xb
 12293 207a 2C080000 		.4byte	.LASF419
 12294 207e 2A       		.byte	0x2a
 12295 207f AF02     		.2byte	0x2af
 12296 2081 F4000000 		.4byte	0xf4
 12297 2085 24       		.byte	0x24
 12298 2086 00       		.byte	0
 12299 2087 16       		.uleb128 0x16
 12300 2088 50110000 		.4byte	.LASF420
 12301 208c 2A       		.byte	0x2a
 12302 208d 3202     		.2byte	0x232
 12303 208f 93200000 		.4byte	0x2093
 12304 2093 0C       		.uleb128 0xc
 12305 2094 04       		.byte	0x4
 12306 2095 99200000 		.4byte	0x2099
 12307 2099 0E       		.uleb128 0xe
 12308 209a A4200000 		.4byte	0x20a4
 12309 209e 0F       		.uleb128 0xf
 12310 209f A4200000 		.4byte	0x20a4
 12311 20a3 00       		.byte	0
 12312 20a4 0C       		.uleb128 0xc
 12313 20a5 04       		.byte	0x4
 12314 20a6 D11F0000 		.4byte	0x1fd1
 12315 20aa 16       		.uleb128 0x16
 12316 20ab 690D0000 		.4byte	.LASF421
 12317 20af 2A       		.byte	0x2a
 12318 20b0 3A02     		.2byte	0x23a
 12319 20b2 B6200000 		.4byte	0x20b6
 12320 20b6 0C       		.uleb128 0xc
 12321 20b7 04       		.byte	0x4
 12322 20b8 BC200000 		.4byte	0x20bc
 12323 20bc 0E       		.uleb128 0xe
 12324 20bd CC200000 		.4byte	0x20cc
 12325 20c1 0F       		.uleb128 0xf
 12326 20c2 A4200000 		.4byte	0x20a4
 12327 20c6 0F       		.uleb128 0xf
ARM GAS  /tmp/ccs3e2Sq.s 			page 218


 12328 20c7 E9000000 		.4byte	0xe9
 12329 20cb 00       		.byte	0
 12330 20cc 16       		.uleb128 0x16
 12331 20cd F7020000 		.4byte	.LASF422
 12332 20d1 2A       		.byte	0x2a
 12333 20d2 4202     		.2byte	0x242
 12334 20d4 D8200000 		.4byte	0x20d8
 12335 20d8 0C       		.uleb128 0xc
 12336 20d9 04       		.byte	0x4
 12337 20da DE200000 		.4byte	0x20de
 12338 20de 0E       		.uleb128 0xe
 12339 20df EE200000 		.4byte	0x20ee
 12340 20e3 0F       		.uleb128 0xf
 12341 20e4 A4200000 		.4byte	0x20a4
 12342 20e8 0F       		.uleb128 0xf
 12343 20e9 C51F0000 		.4byte	0x1fc5
 12344 20ed 00       		.byte	0
 12345 20ee 17       		.uleb128 0x17
 12346 20ef 20       		.byte	0x20
 12347 20f0 2A       		.byte	0x2a
 12348 20f1 4802     		.2byte	0x248
 12349 20f3 6D210000 		.4byte	0x216d
 12350 20f7 0B       		.uleb128 0xb
 12351 20f8 F70C0000 		.4byte	.LASF423
 12352 20fc 2A       		.byte	0x2a
 12353 20fd 4C02     		.2byte	0x24c
 12354 20ff 87200000 		.4byte	0x2087
 12355 2103 00       		.byte	0
 12356 2104 0B       		.uleb128 0xb
 12357 2105 01140000 		.4byte	.LASF424
 12358 2109 2A       		.byte	0x2a
 12359 210a 5002     		.2byte	0x250
 12360 210c 87200000 		.4byte	0x2087
 12361 2110 04       		.byte	0x4
 12362 2111 0B       		.uleb128 0xb
 12363 2112 E0120000 		.4byte	.LASF425
 12364 2116 2A       		.byte	0x2a
 12365 2117 5402     		.2byte	0x254
 12366 2119 87200000 		.4byte	0x2087
 12367 211d 08       		.byte	0x8
 12368 211e 0B       		.uleb128 0xb
 12369 211f 320D0000 		.4byte	.LASF426
 12370 2123 2A       		.byte	0x2a
 12371 2124 5802     		.2byte	0x258
 12372 2126 AA200000 		.4byte	0x20aa
 12373 212a 0C       		.byte	0xc
 12374 212b 0B       		.uleb128 0xb
 12375 212c 73150000 		.4byte	.LASF427
 12376 2130 2A       		.byte	0x2a
 12377 2131 5C02     		.2byte	0x25c
 12378 2133 CC200000 		.4byte	0x20cc
 12379 2137 10       		.byte	0x10
 12380 2138 0B       		.uleb128 0xb
 12381 2139 ED130000 		.4byte	.LASF428
 12382 213d 2A       		.byte	0x2a
 12383 213e 6102     		.2byte	0x261
 12384 2140 0E010000 		.4byte	0x10e
ARM GAS  /tmp/ccs3e2Sq.s 			page 219


 12385 2144 14       		.byte	0x14
 12386 2145 0A       		.uleb128 0xa
 12387 2146 63723100 		.ascii	"cr1\000"
 12388 214a 2A       		.byte	0x2a
 12389 214b 6502     		.2byte	0x265
 12390 214d E9000000 		.4byte	0xe9
 12391 2151 18       		.byte	0x18
 12392 2152 0A       		.uleb128 0xa
 12393 2153 63723200 		.ascii	"cr2\000"
 12394 2157 2A       		.byte	0x2a
 12395 2158 6902     		.2byte	0x269
 12396 215a E9000000 		.4byte	0xe9
 12397 215e 1A       		.byte	0x1a
 12398 215f 0A       		.uleb128 0xa
 12399 2160 63723300 		.ascii	"cr3\000"
 12400 2164 2A       		.byte	0x2a
 12401 2165 6D02     		.2byte	0x26d
 12402 2167 E9000000 		.4byte	0xe9
 12403 216b 1C       		.byte	0x1c
 12404 216c 00       		.byte	0
 12405 216d 16       		.uleb128 0x16
 12406 216e A90C0000 		.4byte	.LASF429
 12407 2172 2A       		.byte	0x2a
 12408 2173 6E02     		.2byte	0x26e
 12409 2175 EE200000 		.4byte	0x20ee
 12410 2179 06       		.uleb128 0x6
 12411 217a 6D210000 		.4byte	0x216d
 12412 217e 0C       		.uleb128 0xc
 12413 217f 04       		.byte	0x4
 12414 2180 79210000 		.4byte	0x2179
 12415 2184 13       		.uleb128 0x13
 12416 2185 010D0000 		.4byte	.LASF430
 12417 2189 2A       		.byte	0x2a
 12418 218a BB02     		.2byte	0x2bb
 12419 218c D11F0000 		.4byte	0x1fd1
 12420 2190 13       		.uleb128 0x13
 12421 2191 080D0000 		.4byte	.LASF431
 12422 2195 2A       		.byte	0x2a
 12423 2196 CF02     		.2byte	0x2cf
 12424 2198 D11F0000 		.4byte	0x1fd1
 12425 219c 13       		.uleb128 0x13
 12426 219d 1F1A0000 		.4byte	.LASF432
 12427 21a1 2A       		.byte	0x2a
 12428 21a2 D702     		.2byte	0x2d7
 12429 21a4 D11F0000 		.4byte	0x1fd1
 12430 21a8 16       		.uleb128 0x16
 12431 21a9 EB0B0000 		.4byte	.LASF433
 12432 21ad 2B       		.byte	0x2b
 12433 21ae 0301     		.2byte	0x103
 12434 21b0 B4210000 		.4byte	0x21b4
 12435 21b4 0D       		.uleb128 0xd
 12436 21b5 EB0B0000 		.4byte	.LASF433
 12437 21b9 60       		.byte	0x60
 12438 21ba 2C       		.byte	0x2c
 12439 21bb A401     		.2byte	0x1a4
 12440 21bd B9220000 		.4byte	0x22b9
 12441 21c1 0B       		.uleb128 0xb
ARM GAS  /tmp/ccs3e2Sq.s 			page 220


 12442 21c2 E60E0000 		.4byte	.LASF40
 12443 21c6 2C       		.byte	0x2c
 12444 21c7 A801     		.2byte	0x1a8
 12445 21c9 F8220000 		.4byte	0x22f8
 12446 21cd 00       		.byte	0
 12447 21ce 0B       		.uleb128 0xb
 12448 21cf AD120000 		.4byte	.LASF268
 12449 21d3 2C       		.byte	0x2c
 12450 21d4 AC01     		.2byte	0x1ac
 12451 21d6 722B0000 		.4byte	0x2b72
 12452 21da 04       		.byte	0x4
 12453 21db 0B       		.uleb128 0xb
 12454 21dc 00160000 		.4byte	.LASF434
 12455 21e0 2C       		.byte	0x2c
 12456 21e1 B001     		.2byte	0x1b0
 12457 21e3 E9000000 		.4byte	0xe9
 12458 21e7 08       		.byte	0x8
 12459 21e8 0B       		.uleb128 0xb
 12460 21e9 AC180000 		.4byte	.LASF435
 12461 21ed 2C       		.byte	0x2c
 12462 21ee B401     		.2byte	0x1b4
 12463 21f0 E9000000 		.4byte	0xe9
 12464 21f4 0A       		.byte	0xa
 12465 21f5 0A       		.uleb128 0xa
 12466 21f6 65706300 		.ascii	"epc\000"
 12467 21fa 2C       		.byte	0x2c
 12468 21fb B801     		.2byte	0x1b8
 12469 21fd 782B0000 		.4byte	0x2b78
 12470 2201 0C       		.byte	0xc
 12471 2202 0B       		.uleb128 0xb
 12472 2203 A4010000 		.4byte	.LASF436
 12473 2207 2C       		.byte	0x2c
 12474 2208 BF01     		.2byte	0x1bf
 12475 220a 8E2B0000 		.4byte	0x2b8e
 12476 220e 1C       		.byte	0x1c
 12477 220f 0B       		.uleb128 0xb
 12478 2210 84080000 		.4byte	.LASF437
 12479 2214 2C       		.byte	0x2c
 12480 2215 C601     		.2byte	0x1c6
 12481 2217 8E2B0000 		.4byte	0x2b8e
 12482 221b 28       		.byte	0x28
 12483 221c 0B       		.uleb128 0xb
 12484 221d AC0A0000 		.4byte	.LASF438
 12485 2221 2C       		.byte	0x2c
 12486 2222 CA01     		.2byte	0x1ca
 12487 2224 3D230000 		.4byte	0x233d
 12488 2228 34       		.byte	0x34
 12489 2229 0B       		.uleb128 0xb
 12490 222a 39120000 		.4byte	.LASF439
 12491 222e 2C       		.byte	0x2c
 12492 222f CE01     		.2byte	0x1ce
 12493 2231 4B100000 		.4byte	0x104b
 12494 2235 38       		.byte	0x38
 12495 2236 0B       		.uleb128 0xb
 12496 2237 E40F0000 		.4byte	.LASF440
 12497 223b 2C       		.byte	0x2c
 12498 223c D201     		.2byte	0x1d2
ARM GAS  /tmp/ccs3e2Sq.s 			page 221


 12499 223e 2C000000 		.4byte	0x2c
 12500 2242 3C       		.byte	0x3c
 12501 2243 0B       		.uleb128 0xb
 12502 2244 64140000 		.4byte	.LASF441
 12503 2248 2C       		.byte	0x2c
 12504 2249 D601     		.2byte	0x1d6
 12505 224b C3230000 		.4byte	0x23c3
 12506 224f 40       		.byte	0x40
 12507 2250 0B       		.uleb128 0xb
 12508 2251 E4040000 		.4byte	.LASF442
 12509 2255 2C       		.byte	0x2c
 12510 2256 DA01     		.2byte	0x1da
 12511 2258 A6180000 		.4byte	0x18a6
 12512 225c 44       		.byte	0x44
 12513 225d 0B       		.uleb128 0xb
 12514 225e 710E0000 		.4byte	.LASF443
 12515 2262 2C       		.byte	0x2c
 12516 2263 DE01     		.2byte	0x1de
 12517 2265 E9000000 		.4byte	0xe9
 12518 2269 4C       		.byte	0x4c
 12519 226a 0B       		.uleb128 0xb
 12520 226b A00E0000 		.4byte	.LASF444
 12521 226f 2C       		.byte	0x2c
 12522 2270 E201     		.2byte	0x1e2
 12523 2272 C9000000 		.4byte	0xc9
 12524 2276 4E       		.byte	0x4e
 12525 2277 0B       		.uleb128 0xb
 12526 2278 DD110000 		.4byte	.LASF445
 12527 227c 2C       		.byte	0x2c
 12528 227d E601     		.2byte	0x1e6
 12529 227f C9000000 		.4byte	0xc9
 12530 2283 4F       		.byte	0x4f
 12531 2284 0B       		.uleb128 0xb
 12532 2285 80040000 		.4byte	.LASF446
 12533 2289 2C       		.byte	0x2c
 12534 228a EA01     		.2byte	0x1ea
 12535 228c F8220000 		.4byte	0x22f8
 12536 2290 50       		.byte	0x50
 12537 2291 0A       		.uleb128 0xa
 12538 2292 6F746700 		.ascii	"otg\000"
 12539 2296 2C       		.byte	0x2c
 12540 2297 F201     		.2byte	0x1f2
 12541 2299 9E2B0000 		.4byte	0x2b9e
 12542 229d 54       		.byte	0x54
 12543 229e 0B       		.uleb128 0xb
 12544 229f A1090000 		.4byte	.LASF447
 12545 22a3 2C       		.byte	0x2c
 12546 22a4 F601     		.2byte	0x1f6
 12547 22a6 A42B0000 		.4byte	0x2ba4
 12548 22aa 58       		.byte	0x58
 12549 22ab 0B       		.uleb128 0xb
 12550 22ac 39150000 		.4byte	.LASF448
 12551 22b0 2C       		.byte	0x2c
 12552 22b1 FA01     		.2byte	0x1fa
 12553 22b3 0E010000 		.4byte	0x10e
 12554 22b7 5C       		.byte	0x5c
 12555 22b8 00       		.byte	0
ARM GAS  /tmp/ccs3e2Sq.s 			page 222


 12556 22b9 16       		.uleb128 0x16
 12557 22ba 25010000 		.4byte	.LASF449
 12558 22be 2B       		.byte	0x2b
 12559 22bf 0801     		.2byte	0x108
 12560 22c1 C9000000 		.4byte	0xc9
 12561 22c5 24       		.uleb128 0x24
 12562 22c6 07       		.byte	0x7
 12563 22c7 01       		.byte	0x1
 12564 22c8 63000000 		.4byte	0x63
 12565 22cc 2B       		.byte	0x2b
 12566 22cd 0D01     		.2byte	0x10d
 12567 22cf F8220000 		.4byte	0x22f8
 12568 22d3 23       		.uleb128 0x23
 12569 22d4 4E190000 		.4byte	.LASF450
 12570 22d8 00       		.byte	0
 12571 22d9 23       		.uleb128 0x23
 12572 22da DD050000 		.4byte	.LASF451
 12573 22de 01       		.byte	0x1
 12574 22df 23       		.uleb128 0x23
 12575 22e0 540D0000 		.4byte	.LASF452
 12576 22e4 02       		.byte	0x2
 12577 22e5 23       		.uleb128 0x23
 12578 22e6 01110000 		.4byte	.LASF453
 12579 22ea 03       		.byte	0x3
 12580 22eb 23       		.uleb128 0x23
 12581 22ec D2050000 		.4byte	.LASF454
 12582 22f0 04       		.byte	0x4
 12583 22f1 23       		.uleb128 0x23
 12584 22f2 A8160000 		.4byte	.LASF455
 12585 22f6 05       		.byte	0x5
 12586 22f7 00       		.byte	0
 12587 22f8 16       		.uleb128 0x16
 12588 22f9 7B1A0000 		.4byte	.LASF456
 12589 22fd 2B       		.byte	0x2b
 12590 22fe 1401     		.2byte	0x114
 12591 2300 C5220000 		.4byte	0x22c5
 12592 2304 24       		.uleb128 0x24
 12593 2305 07       		.byte	0x7
 12594 2306 01       		.byte	0x1
 12595 2307 63000000 		.4byte	0x63
 12596 230b 2B       		.byte	0x2b
 12597 230c 2201     		.2byte	0x122
 12598 230e 3D230000 		.4byte	0x233d
 12599 2312 23       		.uleb128 0x23
 12600 2313 5D120000 		.4byte	.LASF457
 12601 2317 00       		.byte	0
 12602 2318 23       		.uleb128 0x23
 12603 2319 38170000 		.4byte	.LASF458
 12604 231d 09       		.byte	0x9
 12605 231e 23       		.uleb128 0x23
 12606 231f AE010000 		.4byte	.LASF459
 12607 2323 0A       		.byte	0xa
 12608 2324 23       		.uleb128 0x23
 12609 2325 AD130000 		.4byte	.LASF460
 12610 2329 0B       		.byte	0xb
 12611 232a 23       		.uleb128 0x23
 12612 232b EB110000 		.4byte	.LASF461
ARM GAS  /tmp/ccs3e2Sq.s 			page 223


 12613 232f 14       		.byte	0x14
 12614 2330 23       		.uleb128 0x23
 12615 2331 5B0A0000 		.4byte	.LASF462
 12616 2335 15       		.byte	0x15
 12617 2336 23       		.uleb128 0x23
 12618 2337 4D0A0000 		.4byte	.LASF463
 12619 233b 06       		.byte	0x6
 12620 233c 00       		.byte	0
 12621 233d 16       		.uleb128 0x16
 12622 233e B00B0000 		.4byte	.LASF464
 12623 2342 2B       		.byte	0x2b
 12624 2343 2A01     		.2byte	0x12a
 12625 2345 04230000 		.4byte	0x2304
 12626 2349 24       		.uleb128 0x24
 12627 234a 07       		.byte	0x7
 12628 234b 01       		.byte	0x1
 12629 234c 63000000 		.4byte	0x63
 12630 2350 2B       		.byte	0x2b
 12631 2351 2F01     		.2byte	0x12f
 12632 2353 82230000 		.4byte	0x2382
 12633 2357 23       		.uleb128 0x23
 12634 2358 D6130000 		.4byte	.LASF465
 12635 235c 00       		.byte	0
 12636 235d 23       		.uleb128 0x23
 12637 235e 3E110000 		.4byte	.LASF466
 12638 2362 01       		.byte	0x1
 12639 2363 23       		.uleb128 0x23
 12640 2364 B90D0000 		.4byte	.LASF467
 12641 2368 02       		.byte	0x2
 12642 2369 23       		.uleb128 0x23
 12643 236a 64000000 		.4byte	.LASF468
 12644 236e 03       		.byte	0x3
 12645 236f 23       		.uleb128 0x23
 12646 2370 050E0000 		.4byte	.LASF469
 12647 2374 04       		.byte	0x4
 12648 2375 23       		.uleb128 0x23
 12649 2376 55180000 		.4byte	.LASF470
 12650 237a 05       		.byte	0x5
 12651 237b 23       		.uleb128 0x23
 12652 237c 940D0000 		.4byte	.LASF471
 12653 2380 06       		.byte	0x6
 12654 2381 00       		.byte	0
 12655 2382 16       		.uleb128 0x16
 12656 2383 74110000 		.4byte	.LASF472
 12657 2387 2B       		.byte	0x2b
 12658 2388 3701     		.2byte	0x137
 12659 238a 49230000 		.4byte	0x2349
 12660 238e 17       		.uleb128 0x17
 12661 238f 08       		.byte	0x8
 12662 2390 2B       		.byte	0x2b
 12663 2391 3C01     		.2byte	0x13c
 12664 2393 B2230000 		.4byte	0x23b2
 12665 2397 0B       		.uleb128 0xb
 12666 2398 FE190000 		.4byte	.LASF473
 12667 239c 2B       		.byte	0x2b
 12668 239d 4001     		.2byte	0x140
 12669 239f 2C000000 		.4byte	0x2c
ARM GAS  /tmp/ccs3e2Sq.s 			page 224


 12670 23a3 00       		.byte	0
 12671 23a4 0B       		.uleb128 0xb
 12672 23a5 31030000 		.4byte	.LASF474
 12673 23a9 2B       		.byte	0x2b
 12674 23aa 4401     		.2byte	0x144
 12675 23ac 90120000 		.4byte	0x1290
 12676 23b0 04       		.byte	0x4
 12677 23b1 00       		.byte	0
 12678 23b2 16       		.uleb128 0x16
 12679 23b3 8E110000 		.4byte	.LASF475
 12680 23b7 2B       		.byte	0x2b
 12681 23b8 4501     		.2byte	0x145
 12682 23ba 8E230000 		.4byte	0x238e
 12683 23be 06       		.uleb128 0x6
 12684 23bf B2230000 		.4byte	0x23b2
 12685 23c3 16       		.uleb128 0x16
 12686 23c4 7C190000 		.4byte	.LASF476
 12687 23c8 2B       		.byte	0x2b
 12688 23c9 4D01     		.2byte	0x14d
 12689 23cb CF230000 		.4byte	0x23cf
 12690 23cf 0C       		.uleb128 0xc
 12691 23d0 04       		.byte	0x4
 12692 23d1 D5230000 		.4byte	0x23d5
 12693 23d5 0E       		.uleb128 0xe
 12694 23d6 E0230000 		.4byte	0x23e0
 12695 23da 0F       		.uleb128 0xf
 12696 23db E0230000 		.4byte	0x23e0
 12697 23df 00       		.byte	0
 12698 23e0 0C       		.uleb128 0xc
 12699 23e1 04       		.byte	0x4
 12700 23e2 A8210000 		.4byte	0x21a8
 12701 23e6 16       		.uleb128 0x16
 12702 23e7 86030000 		.4byte	.LASF477
 12703 23eb 2B       		.byte	0x2b
 12704 23ec 5601     		.2byte	0x156
 12705 23ee F2230000 		.4byte	0x23f2
 12706 23f2 0C       		.uleb128 0xc
 12707 23f3 04       		.byte	0x4
 12708 23f4 F8230000 		.4byte	0x23f8
 12709 23f8 0E       		.uleb128 0xe
 12710 23f9 08240000 		.4byte	0x2408
 12711 23fd 0F       		.uleb128 0xf
 12712 23fe E0230000 		.4byte	0x23e0
 12713 2402 0F       		.uleb128 0xf
 12714 2403 B9220000 		.4byte	0x22b9
 12715 2407 00       		.byte	0
 12716 2408 16       		.uleb128 0x16
 12717 2409 DE070000 		.4byte	.LASF478
 12718 240d 2B       		.byte	0x2b
 12719 240e 5F01     		.2byte	0x15f
 12720 2410 14240000 		.4byte	0x2414
 12721 2414 0C       		.uleb128 0xc
 12722 2415 04       		.byte	0x4
 12723 2416 1A240000 		.4byte	0x241a
 12724 241a 0E       		.uleb128 0xe
 12725 241b 2A240000 		.4byte	0x242a
 12726 241f 0F       		.uleb128 0xf
ARM GAS  /tmp/ccs3e2Sq.s 			page 225


 12727 2420 E0230000 		.4byte	0x23e0
 12728 2424 0F       		.uleb128 0xf
 12729 2425 82230000 		.4byte	0x2382
 12730 2429 00       		.byte	0
 12731 242a 16       		.uleb128 0x16
 12732 242b A3100000 		.4byte	.LASF479
 12733 242f 2B       		.byte	0x2b
 12734 2430 6B01     		.2byte	0x16b
 12735 2432 36240000 		.4byte	0x2436
 12736 2436 0C       		.uleb128 0xc
 12737 2437 04       		.byte	0x4
 12738 2438 3C240000 		.4byte	0x243c
 12739 243c 20       		.uleb128 0x20
 12740 243d F90F0000 		.4byte	0xff9
 12741 2441 4B240000 		.4byte	0x244b
 12742 2445 0F       		.uleb128 0xf
 12743 2446 E0230000 		.4byte	0x23e0
 12744 244a 00       		.byte	0
 12745 244b 16       		.uleb128 0x16
 12746 244c 990A0000 		.4byte	.LASF480
 12747 2450 2B       		.byte	0x2b
 12748 2451 7001     		.2byte	0x170
 12749 2453 57240000 		.4byte	0x2457
 12750 2457 0C       		.uleb128 0xc
 12751 2458 04       		.byte	0x4
 12752 2459 5D240000 		.4byte	0x245d
 12753 245d 20       		.uleb128 0x20
 12754 245e 7B240000 		.4byte	0x247b
 12755 2462 7B240000 		.4byte	0x247b
 12756 2466 0F       		.uleb128 0xf
 12757 2467 E0230000 		.4byte	0x23e0
 12758 246b 0F       		.uleb128 0xf
 12759 246c C9000000 		.4byte	0xc9
 12760 2470 0F       		.uleb128 0xf
 12761 2471 C9000000 		.4byte	0xc9
 12762 2475 0F       		.uleb128 0xf
 12763 2476 E9000000 		.4byte	0xe9
 12764 247a 00       		.byte	0
 12765 247b 0C       		.uleb128 0xc
 12766 247c 04       		.byte	0x4
 12767 247d BE230000 		.4byte	0x23be
 12768 2481 15       		.uleb128 0x15
 12769 2482 20       		.byte	0x20
 12770 2483 2D       		.byte	0x2d
 12771 2484 29       		.byte	0x29
 12772 2485 EA240000 		.4byte	0x24ea
 12773 2489 08       		.uleb128 0x8
 12774 248a 49020000 		.4byte	.LASF481
 12775 248e 2D       		.byte	0x2d
 12776 248f 2A       		.byte	0x2a
 12777 2490 19010000 		.4byte	0x119
 12778 2494 00       		.byte	0
 12779 2495 08       		.uleb128 0x8
 12780 2496 25090000 		.4byte	.LASF482
 12781 249a 2D       		.byte	0x2d
 12782 249b 2C       		.byte	0x2c
 12783 249c 19010000 		.4byte	0x119
ARM GAS  /tmp/ccs3e2Sq.s 			page 226


 12784 24a0 04       		.byte	0x4
 12785 24a1 08       		.uleb128 0x8
 12786 24a2 EC010000 		.4byte	.LASF483
 12787 24a6 2D       		.byte	0x2d
 12788 24a7 2D       		.byte	0x2d
 12789 24a8 19010000 		.4byte	0x119
 12790 24ac 08       		.byte	0x8
 12791 24ad 08       		.uleb128 0x8
 12792 24ae 9D120000 		.4byte	.LASF484
 12793 24b2 2D       		.byte	0x2d
 12794 24b3 2E       		.byte	0x2e
 12795 24b4 19010000 		.4byte	0x119
 12796 24b8 0C       		.byte	0xc
 12797 24b9 08       		.uleb128 0x8
 12798 24ba B20D0000 		.4byte	.LASF485
 12799 24be 2D       		.byte	0x2d
 12800 24bf 30       		.byte	0x30
 12801 24c0 19010000 		.4byte	0x119
 12802 24c4 10       		.byte	0x10
 12803 24c5 08       		.uleb128 0x8
 12804 24c6 46090000 		.4byte	.LASF486
 12805 24ca 2D       		.byte	0x2d
 12806 24cb 32       		.byte	0x32
 12807 24cc 19010000 		.4byte	0x119
 12808 24d0 14       		.byte	0x14
 12809 24d1 08       		.uleb128 0x8
 12810 24d2 4E090000 		.4byte	.LASF487
 12811 24d6 2D       		.byte	0x2d
 12812 24d7 33       		.byte	0x33
 12813 24d8 19010000 		.4byte	0x119
 12814 24dc 18       		.byte	0x18
 12815 24dd 08       		.uleb128 0x8
 12816 24de CA020000 		.4byte	.LASF488
 12817 24e2 2D       		.byte	0x2d
 12818 24e3 34       		.byte	0x34
 12819 24e4 19010000 		.4byte	0x119
 12820 24e8 1C       		.byte	0x1c
 12821 24e9 00       		.byte	0
 12822 24ea 03       		.uleb128 0x3
 12823 24eb 48120000 		.4byte	.LASF489
 12824 24ef 2D       		.byte	0x2d
 12825 24f0 35       		.byte	0x35
 12826 24f1 81240000 		.4byte	0x2481
 12827 24f5 15       		.uleb128 0x15
 12828 24f6 20       		.byte	0x20
 12829 24f7 2D       		.byte	0x2d
 12830 24f8 3A       		.byte	0x3a
 12831 24f9 5E250000 		.4byte	0x255e
 12832 24fd 08       		.uleb128 0x8
 12833 24fe 94090000 		.4byte	.LASF490
 12834 2502 2D       		.byte	0x2d
 12835 2503 3B       		.byte	0x3b
 12836 2504 19010000 		.4byte	0x119
 12837 2508 00       		.byte	0
 12838 2509 08       		.uleb128 0x8
 12839 250a 16090000 		.4byte	.LASF491
 12840 250e 2D       		.byte	0x2d
ARM GAS  /tmp/ccs3e2Sq.s 			page 227


 12841 250f 3D       		.byte	0x3d
 12842 2510 19010000 		.4byte	0x119
 12843 2514 04       		.byte	0x4
 12844 2515 08       		.uleb128 0x8
 12845 2516 81150000 		.4byte	.LASF492
 12846 251a 2D       		.byte	0x2d
 12847 251b 3E       		.byte	0x3e
 12848 251c 19010000 		.4byte	0x119
 12849 2520 08       		.byte	0x8
 12850 2521 08       		.uleb128 0x8
 12851 2522 080C0000 		.4byte	.LASF493
 12852 2526 2D       		.byte	0x2d
 12853 2527 40       		.byte	0x40
 12854 2528 19010000 		.4byte	0x119
 12855 252c 0C       		.byte	0xc
 12856 252d 08       		.uleb128 0x8
 12857 252e 740F0000 		.4byte	.LASF494
 12858 2532 2D       		.byte	0x2d
 12859 2533 41       		.byte	0x41
 12860 2534 19010000 		.4byte	0x119
 12861 2538 10       		.byte	0x10
 12862 2539 08       		.uleb128 0x8
 12863 253a 46090000 		.4byte	.LASF486
 12864 253e 2D       		.byte	0x2d
 12865 253f 43       		.byte	0x43
 12866 2540 19010000 		.4byte	0x119
 12867 2544 14       		.byte	0x14
 12868 2545 08       		.uleb128 0x8
 12869 2546 1D120000 		.4byte	.LASF495
 12870 254a 2D       		.byte	0x2d
 12871 254b 44       		.byte	0x44
 12872 254c 19010000 		.4byte	0x119
 12873 2550 18       		.byte	0x18
 12874 2551 08       		.uleb128 0x8
 12875 2552 5D090000 		.4byte	.LASF496
 12876 2556 2D       		.byte	0x2d
 12877 2557 46       		.byte	0x46
 12878 2558 19010000 		.4byte	0x119
 12879 255c 1C       		.byte	0x1c
 12880 255d 00       		.byte	0
 12881 255e 03       		.uleb128 0x3
 12882 255f EC050000 		.4byte	.LASF497
 12883 2563 2D       		.byte	0x2d
 12884 2564 47       		.byte	0x47
 12885 2565 F5240000 		.4byte	0x24f5
 12886 2569 15       		.uleb128 0x15
 12887 256a 20       		.byte	0x20
 12888 256b 2D       		.byte	0x2d
 12889 256c 4C       		.byte	0x4c
 12890 256d D2250000 		.4byte	0x25d2
 12891 2571 08       		.uleb128 0x8
 12892 2572 95120000 		.4byte	.LASF498
 12893 2576 2D       		.byte	0x2d
 12894 2577 4D       		.byte	0x4d
 12895 2578 19010000 		.4byte	0x119
 12896 257c 00       		.byte	0
 12897 257d 08       		.uleb128 0x8
ARM GAS  /tmp/ccs3e2Sq.s 			page 228


 12898 257e 16090000 		.4byte	.LASF491
 12899 2582 2D       		.byte	0x2d
 12900 2583 4F       		.byte	0x4f
 12901 2584 19010000 		.4byte	0x119
 12902 2588 04       		.byte	0x4
 12903 2589 08       		.uleb128 0x8
 12904 258a 67100000 		.4byte	.LASF499
 12905 258e 2D       		.byte	0x2d
 12906 258f 50       		.byte	0x50
 12907 2590 19010000 		.4byte	0x119
 12908 2594 08       		.byte	0x8
 12909 2595 08       		.uleb128 0x8
 12910 2596 080C0000 		.4byte	.LASF493
 12911 259a 2D       		.byte	0x2d
 12912 259b 52       		.byte	0x52
 12913 259c 19010000 		.4byte	0x119
 12914 25a0 0C       		.byte	0xc
 12915 25a1 08       		.uleb128 0x8
 12916 25a2 45160000 		.4byte	.LASF500
 12917 25a6 2D       		.byte	0x2d
 12918 25a7 53       		.byte	0x53
 12919 25a8 19010000 		.4byte	0x119
 12920 25ac 10       		.byte	0x10
 12921 25ad 08       		.uleb128 0x8
 12922 25ae 46090000 		.4byte	.LASF486
 12923 25b2 2D       		.byte	0x2d
 12924 25b3 55       		.byte	0x55
 12925 25b4 19010000 		.4byte	0x119
 12926 25b8 14       		.byte	0x14
 12927 25b9 08       		.uleb128 0x8
 12928 25ba 4E090000 		.4byte	.LASF487
 12929 25be 2D       		.byte	0x2d
 12930 25bf 56       		.byte	0x56
 12931 25c0 19010000 		.4byte	0x119
 12932 25c4 18       		.byte	0x18
 12933 25c5 08       		.uleb128 0x8
 12934 25c6 5D090000 		.4byte	.LASF496
 12935 25ca 2D       		.byte	0x2d
 12936 25cb 57       		.byte	0x57
 12937 25cc 19010000 		.4byte	0x119
 12938 25d0 1C       		.byte	0x1c
 12939 25d1 00       		.byte	0
 12940 25d2 03       		.uleb128 0x3
 12941 25d3 92050000 		.4byte	.LASF501
 12942 25d7 2D       		.byte	0x2d
 12943 25d8 58       		.byte	0x58
 12944 25d9 69250000 		.4byte	0x2569
 12945 25dd 25       		.uleb128 0x25
 12946 25de 00100100 		.4byte	0x11000
 12947 25e2 2D       		.byte	0x2d
 12948 25e3 5D       		.byte	0x5d
 12949 25e4 BA280000 		.4byte	0x28ba
 12950 25e8 08       		.uleb128 0x8
 12951 25e9 74030000 		.4byte	.LASF502
 12952 25ed 2D       		.byte	0x2d
 12953 25ee 5E       		.byte	0x5e
 12954 25ef 19010000 		.4byte	0x119
ARM GAS  /tmp/ccs3e2Sq.s 			page 229


 12955 25f3 00       		.byte	0
 12956 25f4 08       		.uleb128 0x8
 12957 25f5 4C100000 		.4byte	.LASF503
 12958 25f9 2D       		.byte	0x2d
 12959 25fa 5F       		.byte	0x5f
 12960 25fb 19010000 		.4byte	0x119
 12961 25ff 04       		.byte	0x4
 12962 2600 08       		.uleb128 0x8
 12963 2601 66050000 		.4byte	.LASF504
 12964 2605 2D       		.byte	0x2d
 12965 2606 60       		.byte	0x60
 12966 2607 19010000 		.4byte	0x119
 12967 260b 08       		.byte	0x8
 12968 260c 08       		.uleb128 0x8
 12969 260d C3190000 		.4byte	.LASF505
 12970 2611 2D       		.byte	0x2d
 12971 2612 61       		.byte	0x61
 12972 2613 19010000 		.4byte	0x119
 12973 2617 0C       		.byte	0xc
 12974 2618 08       		.uleb128 0x8
 12975 2619 B6160000 		.4byte	.LASF506
 12976 261d 2D       		.byte	0x2d
 12977 261e 62       		.byte	0x62
 12978 261f 19010000 		.4byte	0x119
 12979 2623 10       		.byte	0x10
 12980 2624 08       		.uleb128 0x8
 12981 2625 32080000 		.4byte	.LASF507
 12982 2629 2D       		.byte	0x2d
 12983 262a 63       		.byte	0x63
 12984 262b 19010000 		.4byte	0x119
 12985 262f 14       		.byte	0x14
 12986 2630 08       		.uleb128 0x8
 12987 2631 CC110000 		.4byte	.LASF508
 12988 2635 2D       		.byte	0x2d
 12989 2636 64       		.byte	0x64
 12990 2637 19010000 		.4byte	0x119
 12991 263b 18       		.byte	0x18
 12992 263c 08       		.uleb128 0x8
 12993 263d AD050000 		.4byte	.LASF509
 12994 2641 2D       		.byte	0x2d
 12995 2642 65       		.byte	0x65
 12996 2643 19010000 		.4byte	0x119
 12997 2647 1C       		.byte	0x1c
 12998 2648 08       		.uleb128 0x8
 12999 2649 A5050000 		.4byte	.LASF510
 13000 264d 2D       		.byte	0x2d
 13001 264e 67       		.byte	0x67
 13002 264f 19010000 		.4byte	0x119
 13003 2653 20       		.byte	0x20
 13004 2654 08       		.uleb128 0x8
 13005 2655 B2110000 		.4byte	.LASF511
 13006 2659 2D       		.byte	0x2d
 13007 265a 69       		.byte	0x69
 13008 265b 19010000 		.4byte	0x119
 13009 265f 24       		.byte	0x24
 13010 2660 08       		.uleb128 0x8
 13011 2661 7B000000 		.4byte	.LASF512
ARM GAS  /tmp/ccs3e2Sq.s 			page 230


 13012 2665 2D       		.byte	0x2d
 13013 2666 6A       		.byte	0x6a
 13014 2667 19010000 		.4byte	0x119
 13015 266b 28       		.byte	0x28
 13016 266c 08       		.uleb128 0x8
 13017 266d D4110000 		.4byte	.LASF513
 13018 2671 2D       		.byte	0x2d
 13019 2672 6C       		.byte	0x6c
 13020 2673 19010000 		.4byte	0x119
 13021 2677 2C       		.byte	0x2c
 13022 2678 08       		.uleb128 0x8
 13023 2679 250A0000 		.4byte	.LASF514
 13024 267d 2D       		.byte	0x2d
 13025 267e 6E       		.byte	0x6e
 13026 267f 19010000 		.4byte	0x119
 13027 2683 30       		.byte	0x30
 13028 2684 08       		.uleb128 0x8
 13029 2685 2D0A0000 		.4byte	.LASF515
 13030 2689 2D       		.byte	0x2d
 13031 268a 6F       		.byte	0x6f
 13032 268b 19010000 		.4byte	0x119
 13033 268f 34       		.byte	0x34
 13034 2690 08       		.uleb128 0x8
 13035 2691 3A010000 		.4byte	.LASF516
 13036 2695 2D       		.byte	0x2d
 13037 2696 70       		.byte	0x70
 13038 2697 19010000 		.4byte	0x119
 13039 269b 38       		.byte	0x38
 13040 269c 09       		.uleb128 0x9
 13041 269d 43494400 		.ascii	"CID\000"
 13042 26a1 2D       		.byte	0x2d
 13043 26a2 71       		.byte	0x71
 13044 26a3 19010000 		.4byte	0x119
 13045 26a7 3C       		.byte	0x3c
 13046 26a8 08       		.uleb128 0x8
 13047 26a9 26060000 		.4byte	.LASF517
 13048 26ad 2D       		.byte	0x2d
 13049 26ae 72       		.byte	0x72
 13050 26af CA280000 		.4byte	0x28ca
 13051 26b3 40       		.byte	0x40
 13052 26b4 26       		.uleb128 0x26
 13053 26b5 ED160000 		.4byte	.LASF518
 13054 26b9 2D       		.byte	0x2d
 13055 26ba 73       		.byte	0x73
 13056 26bb 19010000 		.4byte	0x119
 13057 26bf 0001     		.2byte	0x100
 13058 26c1 26       		.uleb128 0x26
 13059 26c2 9C010000 		.4byte	.LASF519
 13060 26c6 2D       		.byte	0x2d
 13061 26c7 75       		.byte	0x75
 13062 26c8 920A0000 		.4byte	0xa92
 13063 26cc 0401     		.2byte	0x104
 13064 26ce 26       		.uleb128 0x26
 13065 26cf EF0D0000 		.4byte	.LASF520
 13066 26d3 2D       		.byte	0x2d
 13067 26d4 77       		.byte	0x77
 13068 26d5 DF280000 		.4byte	0x28df
ARM GAS  /tmp/ccs3e2Sq.s 			page 231


 13069 26d9 4001     		.2byte	0x140
 13070 26db 26       		.uleb128 0x26
 13071 26dc F80F0000 		.4byte	.LASF521
 13072 26e0 2D       		.byte	0x2d
 13073 26e1 78       		.byte	0x78
 13074 26e2 19010000 		.4byte	0x119
 13075 26e6 0004     		.2byte	0x400
 13076 26e8 26       		.uleb128 0x26
 13077 26e9 49190000 		.4byte	.LASF522
 13078 26ed 2D       		.byte	0x2d
 13079 26ee 79       		.byte	0x79
 13080 26ef 19010000 		.4byte	0x119
 13081 26f3 0404     		.2byte	0x404
 13082 26f5 26       		.uleb128 0x26
 13083 26f6 01030000 		.4byte	.LASF523
 13084 26fa 2D       		.byte	0x2d
 13085 26fb 7A       		.byte	0x7a
 13086 26fc 19010000 		.4byte	0x119
 13087 2700 0804     		.2byte	0x408
 13088 2702 26       		.uleb128 0x26
 13089 2703 A2080000 		.4byte	.LASF524
 13090 2707 2D       		.byte	0x2d
 13091 2708 7C       		.byte	0x7c
 13092 2709 19010000 		.4byte	0x119
 13093 270d 0C04     		.2byte	0x40c
 13094 270f 26       		.uleb128 0x26
 13095 2710 1A020000 		.4byte	.LASF525
 13096 2714 2D       		.byte	0x2d
 13097 2715 7D       		.byte	0x7d
 13098 2716 19010000 		.4byte	0x119
 13099 271a 1004     		.2byte	0x410
 13100 271c 26       		.uleb128 0x26
 13101 271d DD020000 		.4byte	.LASF526
 13102 2721 2D       		.byte	0x2d
 13103 2722 7F       		.byte	0x7f
 13104 2723 19010000 		.4byte	0x119
 13105 2727 1404     		.2byte	0x414
 13106 2729 26       		.uleb128 0x26
 13107 272a 7B080000 		.4byte	.LASF527
 13108 272e 2D       		.byte	0x2d
 13109 272f 81       		.byte	0x81
 13110 2730 19010000 		.4byte	0x119
 13111 2734 1804     		.2byte	0x418
 13112 2736 26       		.uleb128 0x26
 13113 2737 71130000 		.4byte	.LASF528
 13114 273b 2D       		.byte	0x2d
 13115 273c 83       		.byte	0x83
 13116 273d F4280000 		.4byte	0x28f4
 13117 2741 1C04     		.2byte	0x41c
 13118 2743 26       		.uleb128 0x26
 13119 2744 E7010000 		.4byte	.LASF529
 13120 2748 2D       		.byte	0x2d
 13121 2749 84       		.byte	0x84
 13122 274a 19010000 		.4byte	0x119
 13123 274e 4004     		.2byte	0x440
 13124 2750 26       		.uleb128 0x26
 13125 2751 F1140000 		.4byte	.LASF530
ARM GAS  /tmp/ccs3e2Sq.s 			page 232


 13126 2755 2D       		.byte	0x2d
 13127 2756 86       		.byte	0x86
 13128 2757 09290000 		.4byte	0x2909
 13129 275b 4404     		.2byte	0x444
 13130 275d 27       		.uleb128 0x27
 13131 275e 686300   		.ascii	"hc\000"
 13132 2761 2D       		.byte	0x2d
 13133 2762 87       		.byte	0x87
 13134 2763 0E290000 		.4byte	0x290e
 13135 2767 0005     		.2byte	0x500
 13136 2769 26       		.uleb128 0x26
 13137 276a C7160000 		.4byte	.LASF531
 13138 276e 2D       		.byte	0x2d
 13139 276f 88       		.byte	0x88
 13140 2770 2E290000 		.4byte	0x292e
 13141 2774 0007     		.2byte	0x700
 13142 2776 26       		.uleb128 0x26
 13143 2777 C7110000 		.4byte	.LASF532
 13144 277b 2D       		.byte	0x2d
 13145 277c 89       		.byte	0x89
 13146 277d 19010000 		.4byte	0x119
 13147 2781 0008     		.2byte	0x800
 13148 2783 26       		.uleb128 0x26
 13149 2784 42180000 		.4byte	.LASF533
 13150 2788 2D       		.byte	0x2d
 13151 2789 8A       		.byte	0x8a
 13152 278a 19010000 		.4byte	0x119
 13153 278e 0408     		.2byte	0x804
 13154 2790 26       		.uleb128 0x26
 13155 2791 03040000 		.4byte	.LASF534
 13156 2795 2D       		.byte	0x2d
 13157 2796 8B       		.byte	0x8b
 13158 2797 19010000 		.4byte	0x119
 13159 279b 0808     		.2byte	0x808
 13160 279d 26       		.uleb128 0x26
 13161 279e 63030000 		.4byte	.LASF535
 13162 27a2 2D       		.byte	0x2d
 13163 27a3 8C       		.byte	0x8c
 13164 27a4 19010000 		.4byte	0x119
 13165 27a8 0C08     		.2byte	0x80c
 13166 27aa 26       		.uleb128 0x26
 13167 27ab 57080000 		.4byte	.LASF536
 13168 27af 2D       		.byte	0x2d
 13169 27b0 8D       		.byte	0x8d
 13170 27b1 19010000 		.4byte	0x119
 13171 27b5 1008     		.2byte	0x810
 13172 27b7 26       		.uleb128 0x26
 13173 27b8 A5150000 		.4byte	.LASF537
 13174 27bc 2D       		.byte	0x2d
 13175 27bd 8F       		.byte	0x8f
 13176 27be 19010000 		.4byte	0x119
 13177 27c2 1408     		.2byte	0x814
 13178 27c4 26       		.uleb128 0x26
 13179 27c5 F0150000 		.4byte	.LASF538
 13180 27c9 2D       		.byte	0x2d
 13181 27ca 91       		.byte	0x91
 13182 27cb 19010000 		.4byte	0x119
ARM GAS  /tmp/ccs3e2Sq.s 			page 233


 13183 27cf 1808     		.2byte	0x818
 13184 27d1 26       		.uleb128 0x26
 13185 27d2 45140000 		.4byte	.LASF539
 13186 27d6 2D       		.byte	0x2d
 13187 27d7 93       		.byte	0x93
 13188 27d8 19010000 		.4byte	0x119
 13189 27dc 1C08     		.2byte	0x81c
 13190 27de 26       		.uleb128 0x26
 13191 27df 3C040000 		.4byte	.LASF540
 13192 27e3 2D       		.byte	0x2d
 13193 27e4 95       		.byte	0x95
 13194 27e5 19010000 		.4byte	0x119
 13195 27e9 2008     		.2byte	0x820
 13196 27eb 26       		.uleb128 0x26
 13197 27ec 45040000 		.4byte	.LASF541
 13198 27f0 2D       		.byte	0x2d
 13199 27f1 96       		.byte	0x96
 13200 27f2 19010000 		.4byte	0x119
 13201 27f6 2408     		.2byte	0x824
 13202 27f8 26       		.uleb128 0x26
 13203 27f9 F2000000 		.4byte	.LASF542
 13204 27fd 2D       		.byte	0x2d
 13205 27fe 97       		.byte	0x97
 13206 27ff 19010000 		.4byte	0x119
 13207 2803 2808     		.2byte	0x828
 13208 2805 26       		.uleb128 0x26
 13209 2806 D9040000 		.4byte	.LASF543
 13210 280a 2D       		.byte	0x2d
 13211 280b 99       		.byte	0x99
 13212 280c 19010000 		.4byte	0x119
 13213 2810 2C08     		.2byte	0x82c
 13214 2812 26       		.uleb128 0x26
 13215 2813 8C040000 		.4byte	.LASF544
 13216 2817 2D       		.byte	0x2d
 13217 2818 9B       		.byte	0x9b
 13218 2819 19010000 		.4byte	0x119
 13219 281d 3008     		.2byte	0x830
 13220 281f 26       		.uleb128 0x26
 13221 2820 89090000 		.4byte	.LASF545
 13222 2824 2D       		.byte	0x2d
 13223 2825 9C       		.byte	0x9c
 13224 2826 19010000 		.4byte	0x119
 13225 282a 3408     		.2byte	0x834
 13226 282c 26       		.uleb128 0x26
 13227 282d BA040000 		.4byte	.LASF546
 13228 2831 2D       		.byte	0x2d
 13229 2832 9E       		.byte	0x9e
 13230 2833 19010000 		.4byte	0x119
 13231 2837 3808     		.2byte	0x838
 13232 2839 26       		.uleb128 0x26
 13233 283a 41050000 		.4byte	.LASF547
 13234 283e 2D       		.byte	0x2d
 13235 283f 9F       		.byte	0x9f
 13236 2840 19010000 		.4byte	0x119
 13237 2844 3C08     		.2byte	0x83c
 13238 2846 26       		.uleb128 0x26
 13239 2847 6E050000 		.4byte	.LASF548
ARM GAS  /tmp/ccs3e2Sq.s 			page 234


 13240 284b 2D       		.byte	0x2d
 13241 284c A0       		.byte	0xa0
 13242 284d 43290000 		.4byte	0x2943
 13243 2851 4008     		.2byte	0x840
 13244 2853 26       		.uleb128 0x26
 13245 2854 5D070000 		.4byte	.LASF549
 13246 2858 2D       		.byte	0x2d
 13247 2859 A1       		.byte	0xa1
 13248 285a 43290000 		.4byte	0x2943
 13249 285e 8008     		.2byte	0x880
 13250 2860 26       		.uleb128 0x26
 13251 2861 F50B0000 		.4byte	.LASF550
 13252 2865 2D       		.byte	0x2d
 13253 2866 A2       		.byte	0xa2
 13254 2867 43290000 		.4byte	0x2943
 13255 286b C008     		.2byte	0x8c0
 13256 286d 27       		.uleb128 0x27
 13257 286e 696500   		.ascii	"ie\000"
 13258 2871 2D       		.byte	0x2d
 13259 2872 A3       		.byte	0xa3
 13260 2873 48290000 		.4byte	0x2948
 13261 2877 0009     		.2byte	0x900
 13262 2879 27       		.uleb128 0x27
 13263 287a 6F6500   		.ascii	"oe\000"
 13264 287d 2D       		.byte	0x2d
 13265 287e A4       		.byte	0xa4
 13266 287f 58290000 		.4byte	0x2958
 13267 2883 000B     		.2byte	0xb00
 13268 2885 26       		.uleb128 0x26
 13269 2886 1C080000 		.4byte	.LASF551
 13270 288a 2D       		.byte	0x2d
 13271 288b A5       		.byte	0xa5
 13272 288c 2E290000 		.4byte	0x292e
 13273 2890 000D     		.2byte	0xd00
 13274 2892 26       		.uleb128 0x26
 13275 2893 4D180000 		.4byte	.LASF552
 13276 2897 2D       		.byte	0x2d
 13277 2898 A6       		.byte	0xa6
 13278 2899 19010000 		.4byte	0x119
 13279 289d 000E     		.2byte	0xe00
 13280 289f 26       		.uleb128 0x26
 13281 28a0 E90F0000 		.4byte	.LASF553
 13282 28a4 2D       		.byte	0x2d
 13283 28a5 A8       		.byte	0xa8
 13284 28a6 78290000 		.4byte	0x2978
 13285 28aa 040E     		.2byte	0xe04
 13286 28ac 26       		.uleb128 0x26
 13287 28ad 46170000 		.4byte	.LASF554
 13288 28b1 2D       		.byte	0x2d
 13289 28b2 A9       		.byte	0xa9
 13290 28b3 94290000 		.4byte	0x2994
 13291 28b7 0010     		.2byte	0x1000
 13292 28b9 00       		.byte	0
 13293 28ba 11       		.uleb128 0x11
 13294 28bb 19010000 		.4byte	0x119
 13295 28bf CA280000 		.4byte	0x28ca
 13296 28c3 12       		.uleb128 0x12
ARM GAS  /tmp/ccs3e2Sq.s 			page 235


 13297 28c4 3C000000 		.4byte	0x3c
 13298 28c8 2F       		.byte	0x2f
 13299 28c9 00       		.byte	0
 13300 28ca 04       		.uleb128 0x4
 13301 28cb BA280000 		.4byte	0x28ba
 13302 28cf 11       		.uleb128 0x11
 13303 28d0 19010000 		.4byte	0x119
 13304 28d4 DF280000 		.4byte	0x28df
 13305 28d8 12       		.uleb128 0x12
 13306 28d9 3C000000 		.4byte	0x3c
 13307 28dd AF       		.byte	0xaf
 13308 28de 00       		.byte	0
 13309 28df 04       		.uleb128 0x4
 13310 28e0 CF280000 		.4byte	0x28cf
 13311 28e4 11       		.uleb128 0x11
 13312 28e5 19010000 		.4byte	0x119
 13313 28e9 F4280000 		.4byte	0x28f4
 13314 28ed 12       		.uleb128 0x12
 13315 28ee 3C000000 		.4byte	0x3c
 13316 28f2 08       		.byte	0x8
 13317 28f3 00       		.byte	0
 13318 28f4 04       		.uleb128 0x4
 13319 28f5 E4280000 		.4byte	0x28e4
 13320 28f9 11       		.uleb128 0x11
 13321 28fa 19010000 		.4byte	0x119
 13322 28fe 09290000 		.4byte	0x2909
 13323 2902 12       		.uleb128 0x12
 13324 2903 3C000000 		.4byte	0x3c
 13325 2907 2E       		.byte	0x2e
 13326 2908 00       		.byte	0
 13327 2909 04       		.uleb128 0x4
 13328 290a F9280000 		.4byte	0x28f9
 13329 290e 11       		.uleb128 0x11
 13330 290f EA240000 		.4byte	0x24ea
 13331 2913 1E290000 		.4byte	0x291e
 13332 2917 12       		.uleb128 0x12
 13333 2918 3C000000 		.4byte	0x3c
 13334 291c 0F       		.byte	0xf
 13335 291d 00       		.byte	0
 13336 291e 11       		.uleb128 0x11
 13337 291f 19010000 		.4byte	0x119
 13338 2923 2E290000 		.4byte	0x292e
 13339 2927 12       		.uleb128 0x12
 13340 2928 3C000000 		.4byte	0x3c
 13341 292c 3F       		.byte	0x3f
 13342 292d 00       		.byte	0
 13343 292e 04       		.uleb128 0x4
 13344 292f 1E290000 		.4byte	0x291e
 13345 2933 11       		.uleb128 0x11
 13346 2934 19010000 		.4byte	0x119
 13347 2938 43290000 		.4byte	0x2943
 13348 293c 12       		.uleb128 0x12
 13349 293d 3C000000 		.4byte	0x3c
 13350 2941 0F       		.byte	0xf
 13351 2942 00       		.byte	0
 13352 2943 04       		.uleb128 0x4
 13353 2944 33290000 		.4byte	0x2933
ARM GAS  /tmp/ccs3e2Sq.s 			page 236


 13354 2948 11       		.uleb128 0x11
 13355 2949 5E250000 		.4byte	0x255e
 13356 294d 58290000 		.4byte	0x2958
 13357 2951 12       		.uleb128 0x12
 13358 2952 3C000000 		.4byte	0x3c
 13359 2956 0F       		.byte	0xf
 13360 2957 00       		.byte	0
 13361 2958 11       		.uleb128 0x11
 13362 2959 D2250000 		.4byte	0x25d2
 13363 295d 68290000 		.4byte	0x2968
 13364 2961 12       		.uleb128 0x12
 13365 2962 3C000000 		.4byte	0x3c
 13366 2966 0F       		.byte	0xf
 13367 2967 00       		.byte	0
 13368 2968 11       		.uleb128 0x11
 13369 2969 19010000 		.4byte	0x119
 13370 296d 78290000 		.4byte	0x2978
 13371 2971 12       		.uleb128 0x12
 13372 2972 3C000000 		.4byte	0x3c
 13373 2976 7E       		.byte	0x7e
 13374 2977 00       		.byte	0
 13375 2978 04       		.uleb128 0x4
 13376 2979 68290000 		.4byte	0x2968
 13377 297d 11       		.uleb128 0x11
 13378 297e 19010000 		.4byte	0x119
 13379 2982 94290000 		.4byte	0x2994
 13380 2986 12       		.uleb128 0x12
 13381 2987 3C000000 		.4byte	0x3c
 13382 298b 0F       		.byte	0xf
 13383 298c 28       		.uleb128 0x28
 13384 298d 3C000000 		.4byte	0x3c
 13385 2991 FF03     		.2byte	0x3ff
 13386 2993 00       		.byte	0
 13387 2994 04       		.uleb128 0x4
 13388 2995 7D290000 		.4byte	0x297d
 13389 2999 03       		.uleb128 0x3
 13390 299a E7190000 		.4byte	.LASF555
 13391 299e 2D       		.byte	0x2d
 13392 299f AA       		.byte	0xaa
 13393 29a0 DD250000 		.4byte	0x25dd
 13394 29a4 17       		.uleb128 0x17
 13395 29a5 0C       		.byte	0xc
 13396 29a6 2C       		.byte	0x2c
 13397 29a7 0301     		.2byte	0x103
 13398 29a9 D5290000 		.4byte	0x29d5
 13399 29ad 0B       		.uleb128 0xb
 13400 29ae 44060000 		.4byte	.LASF556
 13401 29b2 2C       		.byte	0x2c
 13402 29b3 0401     		.2byte	0x104
 13403 29b5 0E010000 		.4byte	0x10e
 13404 29b9 00       		.byte	0
 13405 29ba 0B       		.uleb128 0xb
 13406 29bb FC070000 		.4byte	.LASF557
 13407 29bf 2C       		.byte	0x2c
 13408 29c0 0501     		.2byte	0x105
 13409 29c2 0E010000 		.4byte	0x10e
 13410 29c6 04       		.byte	0x4
ARM GAS  /tmp/ccs3e2Sq.s 			page 237


 13411 29c7 0B       		.uleb128 0xb
 13412 29c8 790A0000 		.4byte	.LASF558
 13413 29cc 2C       		.byte	0x2c
 13414 29cd 0601     		.2byte	0x106
 13415 29cf 0E010000 		.4byte	0x10e
 13416 29d3 08       		.byte	0x8
 13417 29d4 00       		.byte	0
 13418 29d5 16       		.uleb128 0x16
 13419 29d6 09080000 		.4byte	.LASF559
 13420 29da 2C       		.byte	0x2c
 13421 29db 0701     		.2byte	0x107
 13422 29dd A4290000 		.4byte	0x29a4
 13423 29e1 06       		.uleb128 0x6
 13424 29e2 D5290000 		.4byte	0x29d5
 13425 29e6 17       		.uleb128 0x17
 13426 29e7 10       		.byte	0x10
 13427 29e8 2C       		.byte	0x2c
 13428 29e9 0C01     		.2byte	0x10c
 13429 29eb 242A0000 		.4byte	0x2a24
 13430 29ef 0B       		.uleb128 0xb
 13431 29f0 F00C0000 		.4byte	.LASF560
 13432 29f4 2C       		.byte	0x2c
 13433 29f5 1001     		.2byte	0x110
 13434 29f7 2C000000 		.4byte	0x2c
 13435 29fb 00       		.byte	0
 13436 29fc 0B       		.uleb128 0xb
 13437 29fd D8070000 		.4byte	.LASF561
 13438 2a01 2C       		.byte	0x2c
 13439 2a02 1401     		.2byte	0x114
 13440 2a04 2C000000 		.4byte	0x2c
 13441 2a08 04       		.byte	0x4
 13442 2a09 0B       		.uleb128 0xb
 13443 2a0a 47180000 		.4byte	.LASF562
 13444 2a0e 2C       		.byte	0x2c
 13445 2a0f 1801     		.2byte	0x118
 13446 2a11 90120000 		.4byte	0x1290
 13447 2a15 08       		.byte	0x8
 13448 2a16 0B       		.uleb128 0xb
 13449 2a17 910A0000 		.4byte	.LASF563
 13450 2a1b 2C       		.byte	0x2c
 13451 2a1c 2301     		.2byte	0x123
 13452 2a1e 2C000000 		.4byte	0x2c
 13453 2a22 0C       		.byte	0xc
 13454 2a23 00       		.byte	0
 13455 2a24 16       		.uleb128 0x16
 13456 2a25 440B0000 		.4byte	.LASF564
 13457 2a29 2C       		.byte	0x2c
 13458 2a2a 2401     		.2byte	0x124
 13459 2a2c E6290000 		.4byte	0x29e6
 13460 2a30 17       		.uleb128 0x17
 13461 2a31 10       		.byte	0x10
 13462 2a32 2C       		.byte	0x2c
 13463 2a33 2901     		.2byte	0x129
 13464 2a35 6E2A0000 		.4byte	0x2a6e
 13465 2a39 0B       		.uleb128 0xb
 13466 2a3a AB0D0000 		.4byte	.LASF565
 13467 2a3e 2C       		.byte	0x2c
ARM GAS  /tmp/ccs3e2Sq.s 			page 238


 13468 2a3f 2D01     		.2byte	0x12d
 13469 2a41 2C000000 		.4byte	0x2c
 13470 2a45 00       		.byte	0
 13471 2a46 0B       		.uleb128 0xb
 13472 2a47 06060000 		.4byte	.LASF566
 13473 2a4b 2C       		.byte	0x2c
 13474 2a4c 3101     		.2byte	0x131
 13475 2a4e 2C000000 		.4byte	0x2c
 13476 2a52 04       		.byte	0x4
 13477 2a53 0B       		.uleb128 0xb
 13478 2a54 2C080000 		.4byte	.LASF419
 13479 2a58 2C       		.byte	0x2c
 13480 2a59 3501     		.2byte	0x135
 13481 2a5b 4B100000 		.4byte	0x104b
 13482 2a5f 08       		.byte	0x8
 13483 2a60 0B       		.uleb128 0xb
 13484 2a61 910A0000 		.4byte	.LASF563
 13485 2a65 2C       		.byte	0x2c
 13486 2a66 4001     		.2byte	0x140
 13487 2a68 2C000000 		.4byte	0x2c
 13488 2a6c 0C       		.byte	0xc
 13489 2a6d 00       		.byte	0
 13490 2a6e 16       		.uleb128 0x16
 13491 2a6f 5D130000 		.4byte	.LASF567
 13492 2a73 2C       		.byte	0x2c
 13493 2a74 4101     		.2byte	0x141
 13494 2a76 302A0000 		.4byte	0x2a30
 13495 2a7a 17       		.uleb128 0x17
 13496 2a7b 24       		.byte	0x24
 13497 2a7c 2C       		.byte	0x2c
 13498 2a7d 4701     		.2byte	0x147
 13499 2a7f 062B0000 		.4byte	0x2b06
 13500 2a83 0B       		.uleb128 0xb
 13501 2a84 B60F0000 		.4byte	.LASF568
 13502 2a88 2C       		.byte	0x2c
 13503 2a89 4B01     		.2byte	0x14b
 13504 2a8b 0E010000 		.4byte	0x10e
 13505 2a8f 00       		.byte	0
 13506 2a90 0B       		.uleb128 0xb
 13507 2a91 7F060000 		.4byte	.LASF569
 13508 2a95 2C       		.byte	0x2c
 13509 2a96 5601     		.2byte	0x156
 13510 2a98 E6230000 		.4byte	0x23e6
 13511 2a9c 04       		.byte	0x4
 13512 2a9d 0B       		.uleb128 0xb
 13513 2a9e 61100000 		.4byte	.LASF570
 13514 2aa2 2C       		.byte	0x2c
 13515 2aa3 5B01     		.2byte	0x15b
 13516 2aa5 E6230000 		.4byte	0x23e6
 13517 2aa9 08       		.byte	0x8
 13518 2aaa 0B       		.uleb128 0xb
 13519 2aab 74080000 		.4byte	.LASF571
 13520 2aaf 2C       		.byte	0x2c
 13521 2ab0 6001     		.2byte	0x160
 13522 2ab2 E6230000 		.4byte	0x23e6
 13523 2ab6 0C       		.byte	0xc
 13524 2ab7 0B       		.uleb128 0xb
ARM GAS  /tmp/ccs3e2Sq.s 			page 239


 13525 2ab8 261A0000 		.4byte	.LASF572
 13526 2abc 2C       		.byte	0x2c
 13527 2abd 6501     		.2byte	0x165
 13528 2abf E9000000 		.4byte	0xe9
 13529 2ac3 10       		.byte	0x10
 13530 2ac4 0B       		.uleb128 0xb
 13531 2ac5 DA0A0000 		.4byte	.LASF573
 13532 2ac9 2C       		.byte	0x2c
 13533 2aca 6A01     		.2byte	0x16a
 13534 2acc E9000000 		.4byte	0xe9
 13535 2ad0 12       		.byte	0x12
 13536 2ad1 0B       		.uleb128 0xb
 13537 2ad2 E0180000 		.4byte	.LASF574
 13538 2ad6 2C       		.byte	0x2c
 13539 2ad7 7001     		.2byte	0x170
 13540 2ad9 062B0000 		.4byte	0x2b06
 13541 2add 14       		.byte	0x14
 13542 2ade 0B       		.uleb128 0xb
 13543 2adf B4090000 		.4byte	.LASF575
 13544 2ae3 2C       		.byte	0x2c
 13545 2ae4 7601     		.2byte	0x176
 13546 2ae6 0C2B0000 		.4byte	0x2b0c
 13547 2aea 18       		.byte	0x18
 13548 2aeb 0B       		.uleb128 0xb
 13549 2aec 5F0C0000 		.4byte	.LASF576
 13550 2af0 2C       		.byte	0x2c
 13551 2af1 7D01     		.2byte	0x17d
 13552 2af3 E9000000 		.4byte	0xe9
 13553 2af7 1C       		.byte	0x1c
 13554 2af8 0B       		.uleb128 0xb
 13555 2af9 70180000 		.4byte	.LASF577
 13556 2afd 2C       		.byte	0x2c
 13557 2afe 8301     		.2byte	0x183
 13558 2b00 4B100000 		.4byte	0x104b
 13559 2b04 20       		.byte	0x20
 13560 2b05 00       		.byte	0
 13561 2b06 0C       		.uleb128 0xc
 13562 2b07 04       		.byte	0x4
 13563 2b08 242A0000 		.4byte	0x2a24
 13564 2b0c 0C       		.uleb128 0xc
 13565 2b0d 04       		.byte	0x4
 13566 2b0e 6E2A0000 		.4byte	0x2a6e
 13567 2b12 16       		.uleb128 0x16
 13568 2b13 D7140000 		.4byte	.LASF578
 13569 2b17 2C       		.byte	0x2c
 13570 2b18 8401     		.2byte	0x184
 13571 2b1a 7A2A0000 		.4byte	0x2a7a
 13572 2b1e 06       		.uleb128 0x6
 13573 2b1f 122B0000 		.4byte	0x2b12
 13574 2b23 17       		.uleb128 0x17
 13575 2b24 10       		.byte	0x10
 13576 2b25 2C       		.byte	0x2c
 13577 2b26 8901     		.2byte	0x189
 13578 2b28 612B0000 		.4byte	0x2b61
 13579 2b2c 0B       		.uleb128 0xb
 13580 2b2d 5F080000 		.4byte	.LASF579
 13581 2b31 2C       		.byte	0x2c
ARM GAS  /tmp/ccs3e2Sq.s 			page 240


 13582 2b32 8E01     		.2byte	0x18e
 13583 2b34 08240000 		.4byte	0x2408
 13584 2b38 00       		.byte	0
 13585 2b39 0B       		.uleb128 0xb
 13586 2b3a 0F170000 		.4byte	.LASF580
 13587 2b3e 2C       		.byte	0x2c
 13588 2b3f 9301     		.2byte	0x193
 13589 2b41 4B240000 		.4byte	0x244b
 13590 2b45 04       		.byte	0x4
 13591 2b46 0B       		.uleb128 0xb
 13592 2b47 C70C0000 		.4byte	.LASF581
 13593 2b4b 2C       		.byte	0x2c
 13594 2b4c 9901     		.2byte	0x199
 13595 2b4e 2A240000 		.4byte	0x242a
 13596 2b52 08       		.byte	0x8
 13597 2b53 0B       		.uleb128 0xb
 13598 2b54 5E010000 		.4byte	.LASF582
 13599 2b58 2C       		.byte	0x2c
 13600 2b59 9D01     		.2byte	0x19d
 13601 2b5b C3230000 		.4byte	0x23c3
 13602 2b5f 0C       		.byte	0xc
 13603 2b60 00       		.byte	0
 13604 2b61 16       		.uleb128 0x16
 13605 2b62 FE0B0000 		.4byte	.LASF583
 13606 2b66 2C       		.byte	0x2c
 13607 2b67 9F01     		.2byte	0x19f
 13608 2b69 232B0000 		.4byte	0x2b23
 13609 2b6d 06       		.uleb128 0x6
 13610 2b6e 612B0000 		.4byte	0x2b61
 13611 2b72 0C       		.uleb128 0xc
 13612 2b73 04       		.byte	0x4
 13613 2b74 6D2B0000 		.4byte	0x2b6d
 13614 2b78 11       		.uleb128 0x11
 13615 2b79 882B0000 		.4byte	0x2b88
 13616 2b7d 882B0000 		.4byte	0x2b88
 13617 2b81 12       		.uleb128 0x12
 13618 2b82 3C000000 		.4byte	0x3c
 13619 2b86 03       		.byte	0x3
 13620 2b87 00       		.byte	0
 13621 2b88 0C       		.uleb128 0xc
 13622 2b89 04       		.byte	0x4
 13623 2b8a 1E2B0000 		.4byte	0x2b1e
 13624 2b8e 11       		.uleb128 0x11
 13625 2b8f 68030000 		.4byte	0x368
 13626 2b93 9E2B0000 		.4byte	0x2b9e
 13627 2b97 12       		.uleb128 0x12
 13628 2b98 3C000000 		.4byte	0x3c
 13629 2b9c 02       		.byte	0x2
 13630 2b9d 00       		.byte	0
 13631 2b9e 0C       		.uleb128 0xc
 13632 2b9f 04       		.byte	0x4
 13633 2ba0 99290000 		.4byte	0x2999
 13634 2ba4 0C       		.uleb128 0xc
 13635 2ba5 04       		.byte	0x4
 13636 2ba6 E1290000 		.4byte	0x29e1
 13637 2baa 13       		.uleb128 0x13
 13638 2bab 84000000 		.4byte	.LASF584
ARM GAS  /tmp/ccs3e2Sq.s 			page 241


 13639 2baf 2C       		.byte	0x2c
 13640 2bb0 3902     		.2byte	0x239
 13641 2bb2 A8210000 		.4byte	0x21a8
 13642 2bb6 29       		.uleb128 0x29
 13643 2bb7 860B0000 		.4byte	.LASF645
 13644 2bbb 07       		.byte	0x7
 13645 2bbc 01       		.byte	0x1
 13646 2bbd 63000000 		.4byte	0x63
 13647 2bc1 2E       		.byte	0x2e
 13648 2bc2 46       		.byte	0x46
 13649 2bc3 D42B0000 		.4byte	0x2bd4
 13650 2bc7 23       		.uleb128 0x23
 13651 2bc8 7A130000 		.4byte	.LASF585
 13652 2bcc 08       		.byte	0x8
 13653 2bcd 23       		.uleb128 0x23
 13654 2bce F6160000 		.4byte	.LASF586
 13655 2bd2 10       		.byte	0x10
 13656 2bd3 00       		.byte	0
 13657 2bd4 03       		.uleb128 0x3
 13658 2bd5 38000000 		.4byte	.LASF587
 13659 2bd9 2E       		.byte	0x2e
 13660 2bda 4A       		.byte	0x4a
 13661 2bdb B62B0000 		.4byte	0x2bb6
 13662 2bdf 06       		.uleb128 0x6
 13663 2be0 D42B0000 		.4byte	0x2bd4
 13664 2be4 15       		.uleb128 0x15
 13665 2be5 1C       		.byte	0x1c
 13666 2be6 2E       		.byte	0x2e
 13667 2be7 63       		.byte	0x63
 13668 2be8 852C0000 		.4byte	0x2c85
 13669 2bec 08       		.uleb128 0x8
 13670 2bed 95140000 		.4byte	.LASF588
 13671 2bf1 2E       		.byte	0x2e
 13672 2bf2 65       		.byte	0x65
 13673 2bf3 C9000000 		.4byte	0xc9
 13674 2bf7 00       		.byte	0
 13675 2bf8 08       		.uleb128 0x8
 13676 2bf9 F2010000 		.4byte	.LASF589
 13677 2bfd 2E       		.byte	0x2e
 13678 2bfe 65       		.byte	0x65
 13679 2bff C9000000 		.4byte	0xc9
 13680 2c03 01       		.byte	0x1
 13681 2c04 08       		.uleb128 0x8
 13682 2c05 CE0D0000 		.4byte	.LASF590
 13683 2c09 2E       		.byte	0x2e
 13684 2c0a 65       		.byte	0x65
 13685 2c0b C9000000 		.4byte	0xc9
 13686 2c0f 02       		.byte	0x2
 13687 2c10 08       		.uleb128 0x8
 13688 2c11 140F0000 		.4byte	.LASF591
 13689 2c15 2E       		.byte	0x2e
 13690 2c16 65       		.byte	0x65
 13691 2c17 C9000000 		.4byte	0xc9
 13692 2c1b 03       		.byte	0x3
 13693 2c1c 08       		.uleb128 0x8
 13694 2c1d C4130000 		.4byte	.LASF592
 13695 2c21 2E       		.byte	0x2e
ARM GAS  /tmp/ccs3e2Sq.s 			page 242


 13696 2c22 65       		.byte	0x65
 13697 2c23 4B100000 		.4byte	0x104b
 13698 2c27 04       		.byte	0x4
 13699 2c28 08       		.uleb128 0x8
 13700 2c29 16120000 		.4byte	.LASF593
 13701 2c2d 2E       		.byte	0x2e
 13702 2c2e 65       		.byte	0x65
 13703 2c2f 4B100000 		.4byte	0x104b
 13704 2c33 08       		.byte	0x8
 13705 2c34 08       		.uleb128 0x8
 13706 2c35 7F140000 		.4byte	.LASF594
 13707 2c39 2E       		.byte	0x2e
 13708 2c3a 66       		.byte	0x66
 13709 2c3b D9000000 		.4byte	0xd9
 13710 2c3f 0C       		.byte	0xc
 13711 2c40 08       		.uleb128 0x8
 13712 2c41 84140000 		.4byte	.LASF595
 13713 2c45 2E       		.byte	0x2e
 13714 2c46 66       		.byte	0x66
 13715 2c47 D9000000 		.4byte	0xd9
 13716 2c4b 0E       		.byte	0xe
 13717 2c4c 08       		.uleb128 0x8
 13718 2c4d 51060000 		.4byte	.LASF596
 13719 2c51 2E       		.byte	0x2e
 13720 2c52 66       		.byte	0x66
 13721 2c53 D9000000 		.4byte	0xd9
 13722 2c57 10       		.byte	0x10
 13723 2c58 08       		.uleb128 0x8
 13724 2c59 BB070000 		.4byte	.LASF597
 13725 2c5d 2E       		.byte	0x2e
 13726 2c5e 66       		.byte	0x66
 13727 2c5f D9000000 		.4byte	0xd9
 13728 2c63 12       		.byte	0x12
 13729 2c64 09       		.uleb128 0x9
 13730 2c65 7800     		.ascii	"x\000"
 13731 2c67 2E       		.byte	0x2e
 13732 2c68 66       		.byte	0x66
 13733 2c69 D9000000 		.4byte	0xd9
 13734 2c6d 14       		.byte	0x14
 13735 2c6e 09       		.uleb128 0x9
 13736 2c6f 7900     		.ascii	"y\000"
 13737 2c71 2E       		.byte	0x2e
 13738 2c72 66       		.byte	0x66
 13739 2c73 D9000000 		.4byte	0xd9
 13740 2c77 16       		.byte	0x16
 13741 2c78 08       		.uleb128 0x8
 13742 2c79 21060000 		.4byte	.LASF358
 13743 2c7d 2E       		.byte	0x2e
 13744 2c7e 67       		.byte	0x67
 13745 2c7f F90F0000 		.4byte	0xff9
 13746 2c83 18       		.byte	0x18
 13747 2c84 00       		.byte	0
 13748 2c85 03       		.uleb128 0x3
 13749 2c86 4E160000 		.4byte	.LASF598
 13750 2c8a 2E       		.byte	0x2e
 13751 2c8b 68       		.byte	0x68
 13752 2c8c E42B0000 		.4byte	0x2be4
ARM GAS  /tmp/ccs3e2Sq.s 			page 243


 13753 2c90 15       		.uleb128 0x15
 13754 2c91 08       		.byte	0x8
 13755 2c92 2E       		.byte	0x2e
 13756 2c93 6A       		.byte	0x6a
 13757 2c94 B12C0000 		.4byte	0x2cb1
 13758 2c98 08       		.uleb128 0x8
 13759 2c99 95140000 		.4byte	.LASF588
 13760 2c9d 2E       		.byte	0x2e
 13761 2c9e 6C       		.byte	0x6c
 13762 2c9f C9000000 		.4byte	0xc9
 13763 2ca3 00       		.byte	0
 13764 2ca4 08       		.uleb128 0x8
 13765 2ca5 16120000 		.4byte	.LASF593
 13766 2ca9 2E       		.byte	0x2e
 13767 2caa 6C       		.byte	0x6c
 13768 2cab 4B100000 		.4byte	0x104b
 13769 2caf 04       		.byte	0x4
 13770 2cb0 00       		.byte	0
 13771 2cb1 03       		.uleb128 0x3
 13772 2cb2 74100000 		.4byte	.LASF599
 13773 2cb6 2E       		.byte	0x2e
 13774 2cb7 6D       		.byte	0x6d
 13775 2cb8 902C0000 		.4byte	0x2c90
 13776 2cbc 06       		.uleb128 0x6
 13777 2cbd B12C0000 		.4byte	0x2cb1
 13778 2cc1 11       		.uleb128 0x11
 13779 2cc2 6A000000 		.4byte	0x6a
 13780 2cc6 D72C0000 		.4byte	0x2cd7
 13781 2cca 12       		.uleb128 0x12
 13782 2ccb 3C000000 		.4byte	0x3c
 13783 2ccf 5B       		.byte	0x5b
 13784 2cd0 12       		.uleb128 0x12
 13785 2cd1 3C000000 		.4byte	0x3c
 13786 2cd5 05       		.byte	0x5
 13787 2cd6 00       		.byte	0
 13788 2cd7 06       		.uleb128 0x6
 13789 2cd8 C12C0000 		.4byte	0x2cc1
 13790 2cdc 2A       		.uleb128 0x2a
 13791 2cdd CD050000 		.4byte	.LASF600
 13792 2ce1 2F       		.byte	0x2f
 13793 2ce2 07       		.byte	0x7
 13794 2ce3 D72C0000 		.4byte	0x2cd7
 13795 2ce7 05       		.uleb128 0x5
 13796 2ce8 03       		.byte	0x3
 13797 2ce9 00000000 		.4byte	F6x8
 13798 2ced 11       		.uleb128 0x11
 13799 2cee 6A000000 		.4byte	0x6a
 13800 2cf2 FE2C0000 		.4byte	0x2cfe
 13801 2cf6 28       		.uleb128 0x28
 13802 2cf7 3C000000 		.4byte	0x3c
 13803 2cfb EF05     		.2byte	0x5ef
 13804 2cfd 00       		.byte	0
 13805 2cfe 06       		.uleb128 0x6
 13806 2cff ED2C0000 		.4byte	0x2ced
 13807 2d03 2A       		.uleb128 0x2a
 13808 2d04 EC020000 		.4byte	.LASF601
 13809 2d08 2F       		.byte	0x2f
ARM GAS  /tmp/ccs3e2Sq.s 			page 244


 13810 2d09 69       		.byte	0x69
 13811 2d0a FE2C0000 		.4byte	0x2cfe
 13812 2d0e 05       		.uleb128 0x5
 13813 2d0f 03       		.byte	0x3
 13814 2d10 00000000 		.4byte	F8X16
 13815 2d14 11       		.uleb128 0x11
 13816 2d15 240E0000 		.4byte	0xe24
 13817 2d19 2A2D0000 		.4byte	0x2d2a
 13818 2d1d 12       		.uleb128 0x12
 13819 2d1e 3C000000 		.4byte	0x3c
 13820 2d22 0D       		.byte	0xd
 13821 2d23 12       		.uleb128 0x12
 13822 2d24 3C000000 		.4byte	0x3c
 13823 2d28 1F       		.byte	0x1f
 13824 2d29 00       		.byte	0
 13825 2d2a 2B       		.uleb128 0x2b
 13826 2d2b 487A6B00 		.ascii	"Hzk\000"
 13827 2d2f 2F       		.byte	0x2f
 13828 2d30 CB       		.byte	0xcb
 13829 2d31 142D0000 		.4byte	0x2d14
 13830 2d35 05       		.uleb128 0x5
 13831 2d36 03       		.byte	0x3
 13832 2d37 00000000 		.4byte	Hzk
 13833 2d3b 2A       		.uleb128 0x2a
 13834 2d3c 581A0000 		.4byte	.LASF602
 13835 2d40 01       		.byte	0x1
 13836 2d41 23       		.byte	0x23
 13837 2d42 F9000000 		.4byte	0xf9
 13838 2d46 05       		.uleb128 0x5
 13839 2d47 03       		.byte	0x3
 13840 2d48 00000000 		.4byte	OLED_PAGE_COUNT
 13841 2d4c 2A       		.uleb128 0x2a
 13842 2d4d 150C0000 		.4byte	.LASF603
 13843 2d51 01       		.byte	0x1
 13844 2d52 24       		.byte	0x24
 13845 2d53 F9000000 		.4byte	0xf9
 13846 2d57 05       		.uleb128 0x5
 13847 2d58 03       		.byte	0x3
 13848 2d59 00000000 		.4byte	OLED_COLUMN_COUNT
 13849 2d5d 2C       		.uleb128 0x2c
 13850 2d5e 730D0000 		.4byte	.LASF604
 13851 2d62 01       		.byte	0x1
 13852 2d63 8B01     		.2byte	0x18b
 13853 2d65 00000000 		.4byte	.LFB344
 13854 2d69 9C020000 		.4byte	.LFE344-.LFB344
 13855 2d6d 01       		.uleb128 0x1
 13856 2d6e 9C       		.byte	0x9c
 13857 2d6f E3350000 		.4byte	0x35e3
 13858 2d73 2D       		.uleb128 0x2d
 13859 2d74 E3350000 		.4byte	0x35e3
 13860 2d78 06000000 		.4byte	.LBB984
 13861 2d7c B80A0000 		.4byte	.Ldebug_ranges0+0xab8
 13862 2d80 01       		.byte	0x1
 13863 2d81 B401     		.2byte	0x1b4
 13864 2d83 782E0000 		.4byte	0x2e78
 13865 2d87 2E       		.uleb128 0x2e
 13866 2d88 B80A0000 		.4byte	.Ldebug_ranges0+0xab8
ARM GAS  /tmp/ccs3e2Sq.s 			page 245


 13867 2d8c 2F       		.uleb128 0x2f
 13868 2d8d 694B0000 		.4byte	0x4b69
 13869 2d91 2F       		.uleb128 0x2f
 13870 2d92 724B0000 		.4byte	0x4b72
 13871 2d96 2D       		.uleb128 0x2d
 13872 2d97 99450000 		.4byte	0x4599
 13873 2d9b 06000000 		.4byte	.LBB986
 13874 2d9f D80A0000 		.4byte	.Ldebug_ranges0+0xad8
 13875 2da3 01       		.byte	0x1
 13876 2da4 8101     		.2byte	0x181
 13877 2da6 CF2D0000 		.4byte	0x2dcf
 13878 2daa 30       		.uleb128 0x30
 13879 2dab A5450000 		.4byte	0x45a5
 13880 2daf 00000000 		.4byte	.LLST242
 13881 2db3 31       		.uleb128 0x31
 13882 2db4 14020000 		.4byte	.LVL525
 13883 2db8 584C0000 		.4byte	0x4c58
 13884 2dbc 32       		.uleb128 0x32
 13885 2dbd 01       		.uleb128 0x1
 13886 2dbe 50       		.byte	0x50
 13887 2dbf 02       		.uleb128 0x2
 13888 2dc0 76       		.byte	0x76
 13889 2dc1 00       		.sleb128 0
 13890 2dc2 32       		.uleb128 0x32
 13891 2dc3 01       		.uleb128 0x1
 13892 2dc4 51       		.byte	0x51
 13893 2dc5 01       		.uleb128 0x1
 13894 2dc6 31       		.byte	0x31
 13895 2dc7 32       		.uleb128 0x32
 13896 2dc8 01       		.uleb128 0x1
 13897 2dc9 52       		.byte	0x52
 13898 2dca 02       		.uleb128 0x2
 13899 2dcb 91       		.byte	0x91
 13900 2dcc 5D       		.sleb128 -35
 13901 2dcd 00       		.byte	0
 13902 2dce 00       		.byte	0
 13903 2dcf 33       		.uleb128 0x33
 13904 2dd0 99450000 		.4byte	0x4599
 13905 2dd4 14020000 		.4byte	.LBB990
 13906 2dd8 12000000 		.4byte	.LBE990-.LBB990
 13907 2ddc 01       		.byte	0x1
 13908 2ddd 8201     		.2byte	0x182
 13909 2ddf 082E0000 		.4byte	0x2e08
 13910 2de3 30       		.uleb128 0x30
 13911 2de4 A5450000 		.4byte	0x45a5
 13912 2de8 13000000 		.4byte	.LLST243
 13913 2dec 31       		.uleb128 0x31
 13914 2ded 24020000 		.4byte	.LVL527
 13915 2df1 584C0000 		.4byte	0x4c58
 13916 2df5 32       		.uleb128 0x32
 13917 2df6 01       		.uleb128 0x1
 13918 2df7 50       		.byte	0x50
 13919 2df8 02       		.uleb128 0x2
 13920 2df9 76       		.byte	0x76
 13921 2dfa 00       		.sleb128 0
 13922 2dfb 32       		.uleb128 0x32
 13923 2dfc 01       		.uleb128 0x1
ARM GAS  /tmp/ccs3e2Sq.s 			page 246


 13924 2dfd 51       		.byte	0x51
 13925 2dfe 01       		.uleb128 0x1
 13926 2dff 31       		.byte	0x31
 13927 2e00 32       		.uleb128 0x32
 13928 2e01 01       		.uleb128 0x1
 13929 2e02 52       		.byte	0x52
 13930 2e03 02       		.uleb128 0x2
 13931 2e04 91       		.byte	0x91
 13932 2e05 5E       		.sleb128 -34
 13933 2e06 00       		.byte	0
 13934 2e07 00       		.byte	0
 13935 2e08 2D       		.uleb128 0x2d
 13936 2e09 99450000 		.4byte	0x4599
 13937 2e0d 26020000 		.4byte	.LBB992
 13938 2e11 F00A0000 		.4byte	.Ldebug_ranges0+0xaf0
 13939 2e15 01       		.byte	0x1
 13940 2e16 8301     		.2byte	0x183
 13941 2e18 412E0000 		.4byte	0x2e41
 13942 2e1c 30       		.uleb128 0x30
 13943 2e1d A5450000 		.4byte	0x45a5
 13944 2e21 26000000 		.4byte	.LLST244
 13945 2e25 31       		.uleb128 0x31
 13946 2e26 38020000 		.4byte	.LVL529
 13947 2e2a 584C0000 		.4byte	0x4c58
 13948 2e2e 32       		.uleb128 0x32
 13949 2e2f 01       		.uleb128 0x1
 13950 2e30 50       		.byte	0x50
 13951 2e31 02       		.uleb128 0x2
 13952 2e32 76       		.byte	0x76
 13953 2e33 00       		.sleb128 0
 13954 2e34 32       		.uleb128 0x32
 13955 2e35 01       		.uleb128 0x1
 13956 2e36 51       		.byte	0x51
 13957 2e37 01       		.uleb128 0x1
 13958 2e38 31       		.byte	0x31
 13959 2e39 32       		.uleb128 0x32
 13960 2e3a 01       		.uleb128 0x1
 13961 2e3b 52       		.byte	0x52
 13962 2e3c 02       		.uleb128 0x2
 13963 2e3d 91       		.byte	0x91
 13964 2e3e 5F       		.sleb128 -33
 13965 2e3f 00       		.byte	0
 13966 2e40 00       		.byte	0
 13967 2e41 34       		.uleb128 0x34
 13968 2e42 99450000 		.4byte	0x4599
 13969 2e46 3C020000 		.4byte	.LBB996
 13970 2e4a 0E000000 		.4byte	.LBE996-.LBB996
 13971 2e4e 01       		.byte	0x1
 13972 2e4f 8601     		.2byte	0x186
 13973 2e51 30       		.uleb128 0x30
 13974 2e52 A5450000 		.4byte	0x45a5
 13975 2e56 39000000 		.4byte	.LLST245
 13976 2e5a 31       		.uleb128 0x31
 13977 2e5b 4A020000 		.4byte	.LVL532
 13978 2e5f 584C0000 		.4byte	0x4c58
 13979 2e63 32       		.uleb128 0x32
 13980 2e64 01       		.uleb128 0x1
ARM GAS  /tmp/ccs3e2Sq.s 			page 247


 13981 2e65 50       		.byte	0x50
 13982 2e66 02       		.uleb128 0x2
 13983 2e67 76       		.byte	0x76
 13984 2e68 00       		.sleb128 0
 13985 2e69 32       		.uleb128 0x32
 13986 2e6a 01       		.uleb128 0x1
 13987 2e6b 51       		.byte	0x51
 13988 2e6c 01       		.uleb128 0x1
 13989 2e6d 31       		.byte	0x31
 13990 2e6e 32       		.uleb128 0x32
 13991 2e6f 01       		.uleb128 0x1
 13992 2e70 52       		.byte	0x52
 13993 2e71 02       		.uleb128 0x2
 13994 2e72 91       		.byte	0x91
 13995 2e73 5C       		.sleb128 -36
 13996 2e74 00       		.byte	0
 13997 2e75 00       		.byte	0
 13998 2e76 00       		.byte	0
 13999 2e77 00       		.byte	0
 14000 2e78 2D       		.uleb128 0x2d
 14001 2e79 99450000 		.4byte	0x4599
 14002 2e7d 2E000000 		.4byte	.LBB1000
 14003 2e81 080B0000 		.4byte	.Ldebug_ranges0+0xb08
 14004 2e85 01       		.byte	0x1
 14005 2e86 9601     		.2byte	0x196
 14006 2e88 B12E0000 		.4byte	0x2eb1
 14007 2e8c 30       		.uleb128 0x30
 14008 2e8d A5450000 		.4byte	0x45a5
 14009 2e91 4D000000 		.4byte	.LLST246
 14010 2e95 31       		.uleb128 0x31
 14011 2e96 3C000000 		.4byte	.LVL466
 14012 2e9a 584C0000 		.4byte	0x4c58
 14013 2e9e 32       		.uleb128 0x32
 14014 2e9f 01       		.uleb128 0x1
 14015 2ea0 50       		.byte	0x50
 14016 2ea1 02       		.uleb128 0x2
 14017 2ea2 76       		.byte	0x76
 14018 2ea3 00       		.sleb128 0
 14019 2ea4 32       		.uleb128 0x32
 14020 2ea5 01       		.uleb128 0x1
 14021 2ea6 51       		.byte	0x51
 14022 2ea7 01       		.uleb128 0x1
 14023 2ea8 31       		.byte	0x31
 14024 2ea9 32       		.uleb128 0x32
 14025 2eaa 01       		.uleb128 0x1
 14026 2eab 52       		.byte	0x52
 14027 2eac 02       		.uleb128 0x2
 14028 2ead 91       		.byte	0x91
 14029 2eae 58       		.sleb128 -40
 14030 2eaf 00       		.byte	0
 14031 2eb0 00       		.byte	0
 14032 2eb1 33       		.uleb128 0x33
 14033 2eb2 99450000 		.4byte	0x4599
 14034 2eb6 46000000 		.4byte	.LBB1004
 14035 2eba 10000000 		.4byte	.LBE1004-.LBB1004
 14036 2ebe 01       		.byte	0x1
 14037 2ebf 9701     		.2byte	0x197
ARM GAS  /tmp/ccs3e2Sq.s 			page 248


 14038 2ec1 EA2E0000 		.4byte	0x2eea
 14039 2ec5 30       		.uleb128 0x30
 14040 2ec6 A5450000 		.4byte	0x45a5
 14041 2eca 61000000 		.4byte	.LLST247
 14042 2ece 31       		.uleb128 0x31
 14043 2ecf 4E000000 		.4byte	.LVL468
 14044 2ed3 584C0000 		.4byte	0x4c58
 14045 2ed7 32       		.uleb128 0x32
 14046 2ed8 01       		.uleb128 0x1
 14047 2ed9 50       		.byte	0x50
 14048 2eda 02       		.uleb128 0x2
 14049 2edb 76       		.byte	0x76
 14050 2edc 00       		.sleb128 0
 14051 2edd 32       		.uleb128 0x32
 14052 2ede 01       		.uleb128 0x1
 14053 2edf 51       		.byte	0x51
 14054 2ee0 01       		.uleb128 0x1
 14055 2ee1 31       		.byte	0x31
 14056 2ee2 32       		.uleb128 0x32
 14057 2ee3 01       		.uleb128 0x1
 14058 2ee4 52       		.byte	0x52
 14059 2ee5 02       		.uleb128 0x2
 14060 2ee6 91       		.byte	0x91
 14061 2ee7 57       		.sleb128 -41
 14062 2ee8 00       		.byte	0
 14063 2ee9 00       		.byte	0
 14064 2eea 33       		.uleb128 0x33
 14065 2eeb 99450000 		.4byte	0x4599
 14066 2eef 56000000 		.4byte	.LBB1006
 14067 2ef3 10000000 		.4byte	.LBE1006-.LBB1006
 14068 2ef7 01       		.byte	0x1
 14069 2ef8 9801     		.2byte	0x198
 14070 2efa 232F0000 		.4byte	0x2f23
 14071 2efe 30       		.uleb128 0x30
 14072 2eff A5450000 		.4byte	0x45a5
 14073 2f03 75000000 		.4byte	.LLST248
 14074 2f07 31       		.uleb128 0x31
 14075 2f08 5E000000 		.4byte	.LVL470
 14076 2f0c 584C0000 		.4byte	0x4c58
 14077 2f10 32       		.uleb128 0x32
 14078 2f11 01       		.uleb128 0x1
 14079 2f12 50       		.byte	0x50
 14080 2f13 02       		.uleb128 0x2
 14081 2f14 76       		.byte	0x76
 14082 2f15 00       		.sleb128 0
 14083 2f16 32       		.uleb128 0x32
 14084 2f17 01       		.uleb128 0x1
 14085 2f18 51       		.byte	0x51
 14086 2f19 01       		.uleb128 0x1
 14087 2f1a 31       		.byte	0x31
 14088 2f1b 32       		.uleb128 0x32
 14089 2f1c 01       		.uleb128 0x1
 14090 2f1d 52       		.byte	0x52
 14091 2f1e 02       		.uleb128 0x2
 14092 2f1f 91       		.byte	0x91
 14093 2f20 56       		.sleb128 -42
 14094 2f21 00       		.byte	0
ARM GAS  /tmp/ccs3e2Sq.s 			page 249


 14095 2f22 00       		.byte	0
 14096 2f23 33       		.uleb128 0x33
 14097 2f24 99450000 		.4byte	0x4599
 14098 2f28 66000000 		.4byte	.LBB1008
 14099 2f2c 10000000 		.4byte	.LBE1008-.LBB1008
 14100 2f30 01       		.byte	0x1
 14101 2f31 9901     		.2byte	0x199
 14102 2f33 5C2F0000 		.4byte	0x2f5c
 14103 2f37 30       		.uleb128 0x30
 14104 2f38 A5450000 		.4byte	0x45a5
 14105 2f3c 89000000 		.4byte	.LLST249
 14106 2f40 31       		.uleb128 0x31
 14107 2f41 6E000000 		.4byte	.LVL472
 14108 2f45 584C0000 		.4byte	0x4c58
 14109 2f49 32       		.uleb128 0x32
 14110 2f4a 01       		.uleb128 0x1
 14111 2f4b 50       		.byte	0x50
 14112 2f4c 02       		.uleb128 0x2
 14113 2f4d 76       		.byte	0x76
 14114 2f4e 00       		.sleb128 0
 14115 2f4f 32       		.uleb128 0x32
 14116 2f50 01       		.uleb128 0x1
 14117 2f51 51       		.byte	0x51
 14118 2f52 01       		.uleb128 0x1
 14119 2f53 31       		.byte	0x31
 14120 2f54 32       		.uleb128 0x32
 14121 2f55 01       		.uleb128 0x1
 14122 2f56 52       		.byte	0x52
 14123 2f57 02       		.uleb128 0x2
 14124 2f58 91       		.byte	0x91
 14125 2f59 55       		.sleb128 -43
 14126 2f5a 00       		.byte	0
 14127 2f5b 00       		.byte	0
 14128 2f5c 33       		.uleb128 0x33
 14129 2f5d 99450000 		.4byte	0x4599
 14130 2f61 76000000 		.4byte	.LBB1010
 14131 2f65 10000000 		.4byte	.LBE1010-.LBB1010
 14132 2f69 01       		.byte	0x1
 14133 2f6a 9A01     		.2byte	0x19a
 14134 2f6c 952F0000 		.4byte	0x2f95
 14135 2f70 30       		.uleb128 0x30
 14136 2f71 A5450000 		.4byte	0x45a5
 14137 2f75 9D000000 		.4byte	.LLST250
 14138 2f79 31       		.uleb128 0x31
 14139 2f7a 7E000000 		.4byte	.LVL474
 14140 2f7e 584C0000 		.4byte	0x4c58
 14141 2f82 32       		.uleb128 0x32
 14142 2f83 01       		.uleb128 0x1
 14143 2f84 50       		.byte	0x50
 14144 2f85 02       		.uleb128 0x2
 14145 2f86 76       		.byte	0x76
 14146 2f87 00       		.sleb128 0
 14147 2f88 32       		.uleb128 0x32
 14148 2f89 01       		.uleb128 0x1
 14149 2f8a 51       		.byte	0x51
 14150 2f8b 01       		.uleb128 0x1
 14151 2f8c 31       		.byte	0x31
ARM GAS  /tmp/ccs3e2Sq.s 			page 250


 14152 2f8d 32       		.uleb128 0x32
 14153 2f8e 01       		.uleb128 0x1
 14154 2f8f 52       		.byte	0x52
 14155 2f90 02       		.uleb128 0x2
 14156 2f91 91       		.byte	0x91
 14157 2f92 54       		.sleb128 -44
 14158 2f93 00       		.byte	0
 14159 2f94 00       		.byte	0
 14160 2f95 33       		.uleb128 0x33
 14161 2f96 99450000 		.4byte	0x4599
 14162 2f9a 86000000 		.4byte	.LBB1012
 14163 2f9e 10000000 		.4byte	.LBE1012-.LBB1012
 14164 2fa2 01       		.byte	0x1
 14165 2fa3 9B01     		.2byte	0x19b
 14166 2fa5 CE2F0000 		.4byte	0x2fce
 14167 2fa9 30       		.uleb128 0x30
 14168 2faa A5450000 		.4byte	0x45a5
 14169 2fae B1000000 		.4byte	.LLST251
 14170 2fb2 31       		.uleb128 0x31
 14171 2fb3 8E000000 		.4byte	.LVL476
 14172 2fb7 584C0000 		.4byte	0x4c58
 14173 2fbb 32       		.uleb128 0x32
 14174 2fbc 01       		.uleb128 0x1
 14175 2fbd 50       		.byte	0x50
 14176 2fbe 02       		.uleb128 0x2
 14177 2fbf 76       		.byte	0x76
 14178 2fc0 00       		.sleb128 0
 14179 2fc1 32       		.uleb128 0x32
 14180 2fc2 01       		.uleb128 0x1
 14181 2fc3 51       		.byte	0x51
 14182 2fc4 01       		.uleb128 0x1
 14183 2fc5 31       		.byte	0x31
 14184 2fc6 32       		.uleb128 0x32
 14185 2fc7 01       		.uleb128 0x1
 14186 2fc8 52       		.byte	0x52
 14187 2fc9 02       		.uleb128 0x2
 14188 2fca 91       		.byte	0x91
 14189 2fcb 53       		.sleb128 -45
 14190 2fcc 00       		.byte	0
 14191 2fcd 00       		.byte	0
 14192 2fce 33       		.uleb128 0x33
 14193 2fcf 99450000 		.4byte	0x4599
 14194 2fd3 96000000 		.4byte	.LBB1014
 14195 2fd7 10000000 		.4byte	.LBE1014-.LBB1014
 14196 2fdb 01       		.byte	0x1
 14197 2fdc 9C01     		.2byte	0x19c
 14198 2fde 07300000 		.4byte	0x3007
 14199 2fe2 30       		.uleb128 0x30
 14200 2fe3 A5450000 		.4byte	0x45a5
 14201 2fe7 C5000000 		.4byte	.LLST252
 14202 2feb 31       		.uleb128 0x31
 14203 2fec 9E000000 		.4byte	.LVL478
 14204 2ff0 584C0000 		.4byte	0x4c58
 14205 2ff4 32       		.uleb128 0x32
 14206 2ff5 01       		.uleb128 0x1
 14207 2ff6 50       		.byte	0x50
 14208 2ff7 02       		.uleb128 0x2
ARM GAS  /tmp/ccs3e2Sq.s 			page 251


 14209 2ff8 76       		.byte	0x76
 14210 2ff9 00       		.sleb128 0
 14211 2ffa 32       		.uleb128 0x32
 14212 2ffb 01       		.uleb128 0x1
 14213 2ffc 51       		.byte	0x51
 14214 2ffd 01       		.uleb128 0x1
 14215 2ffe 31       		.byte	0x31
 14216 2fff 32       		.uleb128 0x32
 14217 3000 01       		.uleb128 0x1
 14218 3001 52       		.byte	0x52
 14219 3002 02       		.uleb128 0x2
 14220 3003 91       		.byte	0x91
 14221 3004 52       		.sleb128 -46
 14222 3005 00       		.byte	0
 14223 3006 00       		.byte	0
 14224 3007 33       		.uleb128 0x33
 14225 3008 99450000 		.4byte	0x4599
 14226 300c A6000000 		.4byte	.LBB1016
 14227 3010 10000000 		.4byte	.LBE1016-.LBB1016
 14228 3014 01       		.byte	0x1
 14229 3015 9D01     		.2byte	0x19d
 14230 3017 40300000 		.4byte	0x3040
 14231 301b 30       		.uleb128 0x30
 14232 301c A5450000 		.4byte	0x45a5
 14233 3020 D9000000 		.4byte	.LLST253
 14234 3024 31       		.uleb128 0x31
 14235 3025 AE000000 		.4byte	.LVL480
 14236 3029 584C0000 		.4byte	0x4c58
 14237 302d 32       		.uleb128 0x32
 14238 302e 01       		.uleb128 0x1
 14239 302f 50       		.byte	0x50
 14240 3030 02       		.uleb128 0x2
 14241 3031 76       		.byte	0x76
 14242 3032 00       		.sleb128 0
 14243 3033 32       		.uleb128 0x32
 14244 3034 01       		.uleb128 0x1
 14245 3035 51       		.byte	0x51
 14246 3036 01       		.uleb128 0x1
 14247 3037 31       		.byte	0x31
 14248 3038 32       		.uleb128 0x32
 14249 3039 01       		.uleb128 0x1
 14250 303a 52       		.byte	0x52
 14251 303b 02       		.uleb128 0x2
 14252 303c 91       		.byte	0x91
 14253 303d 51       		.sleb128 -47
 14254 303e 00       		.byte	0
 14255 303f 00       		.byte	0
 14256 3040 33       		.uleb128 0x33
 14257 3041 99450000 		.4byte	0x4599
 14258 3045 B6000000 		.4byte	.LBB1018
 14259 3049 10000000 		.4byte	.LBE1018-.LBB1018
 14260 304d 01       		.byte	0x1
 14261 304e 9E01     		.2byte	0x19e
 14262 3050 79300000 		.4byte	0x3079
 14263 3054 30       		.uleb128 0x30
 14264 3055 A5450000 		.4byte	0x45a5
 14265 3059 ED000000 		.4byte	.LLST254
ARM GAS  /tmp/ccs3e2Sq.s 			page 252


 14266 305d 31       		.uleb128 0x31
 14267 305e BE000000 		.4byte	.LVL482
 14268 3062 584C0000 		.4byte	0x4c58
 14269 3066 32       		.uleb128 0x32
 14270 3067 01       		.uleb128 0x1
 14271 3068 50       		.byte	0x50
 14272 3069 02       		.uleb128 0x2
 14273 306a 76       		.byte	0x76
 14274 306b 00       		.sleb128 0
 14275 306c 32       		.uleb128 0x32
 14276 306d 01       		.uleb128 0x1
 14277 306e 51       		.byte	0x51
 14278 306f 01       		.uleb128 0x1
 14279 3070 31       		.byte	0x31
 14280 3071 32       		.uleb128 0x32
 14281 3072 01       		.uleb128 0x1
 14282 3073 52       		.byte	0x52
 14283 3074 02       		.uleb128 0x2
 14284 3075 91       		.byte	0x91
 14285 3076 50       		.sleb128 -48
 14286 3077 00       		.byte	0
 14287 3078 00       		.byte	0
 14288 3079 33       		.uleb128 0x33
 14289 307a 99450000 		.4byte	0x4599
 14290 307e C6000000 		.4byte	.LBB1020
 14291 3082 10000000 		.4byte	.LBE1020-.LBB1020
 14292 3086 01       		.byte	0x1
 14293 3087 9F01     		.2byte	0x19f
 14294 3089 B2300000 		.4byte	0x30b2
 14295 308d 30       		.uleb128 0x30
 14296 308e A5450000 		.4byte	0x45a5
 14297 3092 01010000 		.4byte	.LLST255
 14298 3096 31       		.uleb128 0x31
 14299 3097 CE000000 		.4byte	.LVL484
 14300 309b 584C0000 		.4byte	0x4c58
 14301 309f 32       		.uleb128 0x32
 14302 30a0 01       		.uleb128 0x1
 14303 30a1 50       		.byte	0x50
 14304 30a2 02       		.uleb128 0x2
 14305 30a3 76       		.byte	0x76
 14306 30a4 00       		.sleb128 0
 14307 30a5 32       		.uleb128 0x32
 14308 30a6 01       		.uleb128 0x1
 14309 30a7 51       		.byte	0x51
 14310 30a8 01       		.uleb128 0x1
 14311 30a9 31       		.byte	0x31
 14312 30aa 32       		.uleb128 0x32
 14313 30ab 01       		.uleb128 0x1
 14314 30ac 52       		.byte	0x52
 14315 30ad 02       		.uleb128 0x2
 14316 30ae 91       		.byte	0x91
 14317 30af 4F       		.sleb128 -49
 14318 30b0 00       		.byte	0
 14319 30b1 00       		.byte	0
 14320 30b2 33       		.uleb128 0x33
 14321 30b3 99450000 		.4byte	0x4599
 14322 30b7 D6000000 		.4byte	.LBB1022
ARM GAS  /tmp/ccs3e2Sq.s 			page 253


 14323 30bb 10000000 		.4byte	.LBE1022-.LBB1022
 14324 30bf 01       		.byte	0x1
 14325 30c0 A001     		.2byte	0x1a0
 14326 30c2 EB300000 		.4byte	0x30eb
 14327 30c6 30       		.uleb128 0x30
 14328 30c7 A5450000 		.4byte	0x45a5
 14329 30cb 15010000 		.4byte	.LLST256
 14330 30cf 31       		.uleb128 0x31
 14331 30d0 DE000000 		.4byte	.LVL486
 14332 30d4 584C0000 		.4byte	0x4c58
 14333 30d8 32       		.uleb128 0x32
 14334 30d9 01       		.uleb128 0x1
 14335 30da 50       		.byte	0x50
 14336 30db 02       		.uleb128 0x2
 14337 30dc 76       		.byte	0x76
 14338 30dd 00       		.sleb128 0
 14339 30de 32       		.uleb128 0x32
 14340 30df 01       		.uleb128 0x1
 14341 30e0 51       		.byte	0x51
 14342 30e1 01       		.uleb128 0x1
 14343 30e2 31       		.byte	0x31
 14344 30e3 32       		.uleb128 0x32
 14345 30e4 01       		.uleb128 0x1
 14346 30e5 52       		.byte	0x52
 14347 30e6 02       		.uleb128 0x2
 14348 30e7 91       		.byte	0x91
 14349 30e8 4E       		.sleb128 -50
 14350 30e9 00       		.byte	0
 14351 30ea 00       		.byte	0
 14352 30eb 33       		.uleb128 0x33
 14353 30ec 99450000 		.4byte	0x4599
 14354 30f0 E6000000 		.4byte	.LBB1024
 14355 30f4 0A000000 		.4byte	.LBE1024-.LBB1024
 14356 30f8 01       		.byte	0x1
 14357 30f9 A101     		.2byte	0x1a1
 14358 30fb 24310000 		.4byte	0x3124
 14359 30ff 30       		.uleb128 0x30
 14360 3100 A5450000 		.4byte	0x45a5
 14361 3104 29010000 		.4byte	.LLST257
 14362 3108 31       		.uleb128 0x31
 14363 3109 EE000000 		.4byte	.LVL488
 14364 310d 584C0000 		.4byte	0x4c58
 14365 3111 32       		.uleb128 0x32
 14366 3112 01       		.uleb128 0x1
 14367 3113 50       		.byte	0x50
 14368 3114 02       		.uleb128 0x2
 14369 3115 76       		.byte	0x76
 14370 3116 00       		.sleb128 0
 14371 3117 32       		.uleb128 0x32
 14372 3118 01       		.uleb128 0x1
 14373 3119 51       		.byte	0x51
 14374 311a 01       		.uleb128 0x1
 14375 311b 31       		.byte	0x31
 14376 311c 32       		.uleb128 0x32
 14377 311d 01       		.uleb128 0x1
 14378 311e 52       		.byte	0x52
 14379 311f 02       		.uleb128 0x2
ARM GAS  /tmp/ccs3e2Sq.s 			page 254


 14380 3120 91       		.byte	0x91
 14381 3121 4D       		.sleb128 -51
 14382 3122 00       		.byte	0
 14383 3123 00       		.byte	0
 14384 3124 33       		.uleb128 0x33
 14385 3125 99450000 		.4byte	0x4599
 14386 3129 F0000000 		.4byte	.LBB1026
 14387 312d 14000000 		.4byte	.LBE1026-.LBB1026
 14388 3131 01       		.byte	0x1
 14389 3132 A201     		.2byte	0x1a2
 14390 3134 5D310000 		.4byte	0x315d
 14391 3138 30       		.uleb128 0x30
 14392 3139 A5450000 		.4byte	0x45a5
 14393 313d 3D010000 		.4byte	.LLST258
 14394 3141 31       		.uleb128 0x31
 14395 3142 FC000000 		.4byte	.LVL490
 14396 3146 584C0000 		.4byte	0x4c58
 14397 314a 32       		.uleb128 0x32
 14398 314b 01       		.uleb128 0x1
 14399 314c 50       		.byte	0x50
 14400 314d 02       		.uleb128 0x2
 14401 314e 76       		.byte	0x76
 14402 314f 00       		.sleb128 0
 14403 3150 32       		.uleb128 0x32
 14404 3151 01       		.uleb128 0x1
 14405 3152 51       		.byte	0x51
 14406 3153 01       		.uleb128 0x1
 14407 3154 31       		.byte	0x31
 14408 3155 32       		.uleb128 0x32
 14409 3156 01       		.uleb128 0x1
 14410 3157 52       		.byte	0x52
 14411 3158 02       		.uleb128 0x2
 14412 3159 91       		.byte	0x91
 14413 315a 4C       		.sleb128 -52
 14414 315b 00       		.byte	0
 14415 315c 00       		.byte	0
 14416 315d 33       		.uleb128 0x33
 14417 315e 99450000 		.4byte	0x4599
 14418 3162 04010000 		.4byte	.LBB1028
 14419 3166 10000000 		.4byte	.LBE1028-.LBB1028
 14420 316a 01       		.byte	0x1
 14421 316b A301     		.2byte	0x1a3
 14422 316d 96310000 		.4byte	0x3196
 14423 3171 30       		.uleb128 0x30
 14424 3172 A5450000 		.4byte	0x45a5
 14425 3176 51010000 		.4byte	.LLST259
 14426 317a 31       		.uleb128 0x31
 14427 317b 0C010000 		.4byte	.LVL492
 14428 317f 584C0000 		.4byte	0x4c58
 14429 3183 32       		.uleb128 0x32
 14430 3184 01       		.uleb128 0x1
 14431 3185 50       		.byte	0x50
 14432 3186 02       		.uleb128 0x2
 14433 3187 76       		.byte	0x76
 14434 3188 00       		.sleb128 0
 14435 3189 32       		.uleb128 0x32
 14436 318a 01       		.uleb128 0x1
ARM GAS  /tmp/ccs3e2Sq.s 			page 255


 14437 318b 51       		.byte	0x51
 14438 318c 01       		.uleb128 0x1
 14439 318d 31       		.byte	0x31
 14440 318e 32       		.uleb128 0x32
 14441 318f 01       		.uleb128 0x1
 14442 3190 52       		.byte	0x52
 14443 3191 02       		.uleb128 0x2
 14444 3192 91       		.byte	0x91
 14445 3193 4B       		.sleb128 -53
 14446 3194 00       		.byte	0
 14447 3195 00       		.byte	0
 14448 3196 33       		.uleb128 0x33
 14449 3197 99450000 		.4byte	0x4599
 14450 319b 14010000 		.4byte	.LBB1030
 14451 319f 10000000 		.4byte	.LBE1030-.LBB1030
 14452 31a3 01       		.byte	0x1
 14453 31a4 A401     		.2byte	0x1a4
 14454 31a6 CF310000 		.4byte	0x31cf
 14455 31aa 30       		.uleb128 0x30
 14456 31ab A5450000 		.4byte	0x45a5
 14457 31af 65010000 		.4byte	.LLST260
 14458 31b3 31       		.uleb128 0x31
 14459 31b4 1C010000 		.4byte	.LVL494
 14460 31b8 584C0000 		.4byte	0x4c58
 14461 31bc 32       		.uleb128 0x32
 14462 31bd 01       		.uleb128 0x1
 14463 31be 50       		.byte	0x50
 14464 31bf 02       		.uleb128 0x2
 14465 31c0 76       		.byte	0x76
 14466 31c1 00       		.sleb128 0
 14467 31c2 32       		.uleb128 0x32
 14468 31c3 01       		.uleb128 0x1
 14469 31c4 51       		.byte	0x51
 14470 31c5 01       		.uleb128 0x1
 14471 31c6 31       		.byte	0x31
 14472 31c7 32       		.uleb128 0x32
 14473 31c8 01       		.uleb128 0x1
 14474 31c9 52       		.byte	0x52
 14475 31ca 02       		.uleb128 0x2
 14476 31cb 91       		.byte	0x91
 14477 31cc 4A       		.sleb128 -54
 14478 31cd 00       		.byte	0
 14479 31ce 00       		.byte	0
 14480 31cf 33       		.uleb128 0x33
 14481 31d0 99450000 		.4byte	0x4599
 14482 31d4 24010000 		.4byte	.LBB1032
 14483 31d8 10000000 		.4byte	.LBE1032-.LBB1032
 14484 31dc 01       		.byte	0x1
 14485 31dd A501     		.2byte	0x1a5
 14486 31df 08320000 		.4byte	0x3208
 14487 31e3 30       		.uleb128 0x30
 14488 31e4 A5450000 		.4byte	0x45a5
 14489 31e8 79010000 		.4byte	.LLST261
 14490 31ec 31       		.uleb128 0x31
 14491 31ed 2C010000 		.4byte	.LVL496
 14492 31f1 584C0000 		.4byte	0x4c58
 14493 31f5 32       		.uleb128 0x32
ARM GAS  /tmp/ccs3e2Sq.s 			page 256


 14494 31f6 01       		.uleb128 0x1
 14495 31f7 50       		.byte	0x50
 14496 31f8 02       		.uleb128 0x2
 14497 31f9 76       		.byte	0x76
 14498 31fa 00       		.sleb128 0
 14499 31fb 32       		.uleb128 0x32
 14500 31fc 01       		.uleb128 0x1
 14501 31fd 51       		.byte	0x51
 14502 31fe 01       		.uleb128 0x1
 14503 31ff 31       		.byte	0x31
 14504 3200 32       		.uleb128 0x32
 14505 3201 01       		.uleb128 0x1
 14506 3202 52       		.byte	0x52
 14507 3203 02       		.uleb128 0x2
 14508 3204 91       		.byte	0x91
 14509 3205 49       		.sleb128 -55
 14510 3206 00       		.byte	0
 14511 3207 00       		.byte	0
 14512 3208 33       		.uleb128 0x33
 14513 3209 99450000 		.4byte	0x4599
 14514 320d 34010000 		.4byte	.LBB1034
 14515 3211 10000000 		.4byte	.LBE1034-.LBB1034
 14516 3215 01       		.byte	0x1
 14517 3216 A601     		.2byte	0x1a6
 14518 3218 41320000 		.4byte	0x3241
 14519 321c 30       		.uleb128 0x30
 14520 321d A5450000 		.4byte	0x45a5
 14521 3221 8D010000 		.4byte	.LLST262
 14522 3225 31       		.uleb128 0x31
 14523 3226 3C010000 		.4byte	.LVL498
 14524 322a 584C0000 		.4byte	0x4c58
 14525 322e 32       		.uleb128 0x32
 14526 322f 01       		.uleb128 0x1
 14527 3230 50       		.byte	0x50
 14528 3231 02       		.uleb128 0x2
 14529 3232 76       		.byte	0x76
 14530 3233 00       		.sleb128 0
 14531 3234 32       		.uleb128 0x32
 14532 3235 01       		.uleb128 0x1
 14533 3236 51       		.byte	0x51
 14534 3237 01       		.uleb128 0x1
 14535 3238 31       		.byte	0x31
 14536 3239 32       		.uleb128 0x32
 14537 323a 01       		.uleb128 0x1
 14538 323b 52       		.byte	0x52
 14539 323c 02       		.uleb128 0x2
 14540 323d 91       		.byte	0x91
 14541 323e 48       		.sleb128 -56
 14542 323f 00       		.byte	0
 14543 3240 00       		.byte	0
 14544 3241 33       		.uleb128 0x33
 14545 3242 99450000 		.4byte	0x4599
 14546 3246 44010000 		.4byte	.LBB1036
 14547 324a 10000000 		.4byte	.LBE1036-.LBB1036
 14548 324e 01       		.byte	0x1
 14549 324f A701     		.2byte	0x1a7
 14550 3251 7A320000 		.4byte	0x327a
ARM GAS  /tmp/ccs3e2Sq.s 			page 257


 14551 3255 30       		.uleb128 0x30
 14552 3256 A5450000 		.4byte	0x45a5
 14553 325a A1010000 		.4byte	.LLST263
 14554 325e 31       		.uleb128 0x31
 14555 325f 4C010000 		.4byte	.LVL500
 14556 3263 584C0000 		.4byte	0x4c58
 14557 3267 32       		.uleb128 0x32
 14558 3268 01       		.uleb128 0x1
 14559 3269 50       		.byte	0x50
 14560 326a 02       		.uleb128 0x2
 14561 326b 76       		.byte	0x76
 14562 326c 00       		.sleb128 0
 14563 326d 32       		.uleb128 0x32
 14564 326e 01       		.uleb128 0x1
 14565 326f 51       		.byte	0x51
 14566 3270 01       		.uleb128 0x1
 14567 3271 31       		.byte	0x31
 14568 3272 32       		.uleb128 0x32
 14569 3273 01       		.uleb128 0x1
 14570 3274 52       		.byte	0x52
 14571 3275 02       		.uleb128 0x2
 14572 3276 91       		.byte	0x91
 14573 3277 47       		.sleb128 -57
 14574 3278 00       		.byte	0
 14575 3279 00       		.byte	0
 14576 327a 33       		.uleb128 0x33
 14577 327b 99450000 		.4byte	0x4599
 14578 327f 54010000 		.4byte	.LBB1038
 14579 3283 10000000 		.4byte	.LBE1038-.LBB1038
 14580 3287 01       		.byte	0x1
 14581 3288 A801     		.2byte	0x1a8
 14582 328a B3320000 		.4byte	0x32b3
 14583 328e 30       		.uleb128 0x30
 14584 328f A5450000 		.4byte	0x45a5
 14585 3293 B5010000 		.4byte	.LLST264
 14586 3297 31       		.uleb128 0x31
 14587 3298 5C010000 		.4byte	.LVL502
 14588 329c 584C0000 		.4byte	0x4c58
 14589 32a0 32       		.uleb128 0x32
 14590 32a1 01       		.uleb128 0x1
 14591 32a2 50       		.byte	0x50
 14592 32a3 02       		.uleb128 0x2
 14593 32a4 76       		.byte	0x76
 14594 32a5 00       		.sleb128 0
 14595 32a6 32       		.uleb128 0x32
 14596 32a7 01       		.uleb128 0x1
 14597 32a8 51       		.byte	0x51
 14598 32a9 01       		.uleb128 0x1
 14599 32aa 31       		.byte	0x31
 14600 32ab 32       		.uleb128 0x32
 14601 32ac 01       		.uleb128 0x1
 14602 32ad 52       		.byte	0x52
 14603 32ae 02       		.uleb128 0x2
 14604 32af 91       		.byte	0x91
 14605 32b0 46       		.sleb128 -58
 14606 32b1 00       		.byte	0
 14607 32b2 00       		.byte	0
ARM GAS  /tmp/ccs3e2Sq.s 			page 258


 14608 32b3 33       		.uleb128 0x33
 14609 32b4 99450000 		.4byte	0x4599
 14610 32b8 64010000 		.4byte	.LBB1040
 14611 32bc 0A000000 		.4byte	.LBE1040-.LBB1040
 14612 32c0 01       		.byte	0x1
 14613 32c1 A901     		.2byte	0x1a9
 14614 32c3 EC320000 		.4byte	0x32ec
 14615 32c7 30       		.uleb128 0x30
 14616 32c8 A5450000 		.4byte	0x45a5
 14617 32cc C9010000 		.4byte	.LLST265
 14618 32d0 31       		.uleb128 0x31
 14619 32d1 6C010000 		.4byte	.LVL504
 14620 32d5 584C0000 		.4byte	0x4c58
 14621 32d9 32       		.uleb128 0x32
 14622 32da 01       		.uleb128 0x1
 14623 32db 50       		.byte	0x50
 14624 32dc 02       		.uleb128 0x2
 14625 32dd 76       		.byte	0x76
 14626 32de 00       		.sleb128 0
 14627 32df 32       		.uleb128 0x32
 14628 32e0 01       		.uleb128 0x1
 14629 32e1 51       		.byte	0x51
 14630 32e2 01       		.uleb128 0x1
 14631 32e3 31       		.byte	0x31
 14632 32e4 32       		.uleb128 0x32
 14633 32e5 01       		.uleb128 0x1
 14634 32e6 52       		.byte	0x52
 14635 32e7 02       		.uleb128 0x2
 14636 32e8 91       		.byte	0x91
 14637 32e9 45       		.sleb128 -59
 14638 32ea 00       		.byte	0
 14639 32eb 00       		.byte	0
 14640 32ec 33       		.uleb128 0x33
 14641 32ed 99450000 		.4byte	0x4599
 14642 32f1 6E010000 		.4byte	.LBB1042
 14643 32f5 14000000 		.4byte	.LBE1042-.LBB1042
 14644 32f9 01       		.byte	0x1
 14645 32fa AA01     		.2byte	0x1aa
 14646 32fc 25330000 		.4byte	0x3325
 14647 3300 30       		.uleb128 0x30
 14648 3301 A5450000 		.4byte	0x45a5
 14649 3305 DD010000 		.4byte	.LLST266
 14650 3309 31       		.uleb128 0x31
 14651 330a 7A010000 		.4byte	.LVL506
 14652 330e 584C0000 		.4byte	0x4c58
 14653 3312 32       		.uleb128 0x32
 14654 3313 01       		.uleb128 0x1
 14655 3314 50       		.byte	0x50
 14656 3315 02       		.uleb128 0x2
 14657 3316 76       		.byte	0x76
 14658 3317 00       		.sleb128 0
 14659 3318 32       		.uleb128 0x32
 14660 3319 01       		.uleb128 0x1
 14661 331a 51       		.byte	0x51
 14662 331b 01       		.uleb128 0x1
 14663 331c 31       		.byte	0x31
 14664 331d 32       		.uleb128 0x32
ARM GAS  /tmp/ccs3e2Sq.s 			page 259


 14665 331e 01       		.uleb128 0x1
 14666 331f 52       		.byte	0x52
 14667 3320 02       		.uleb128 0x2
 14668 3321 91       		.byte	0x91
 14669 3322 44       		.sleb128 -60
 14670 3323 00       		.byte	0
 14671 3324 00       		.byte	0
 14672 3325 33       		.uleb128 0x33
 14673 3326 99450000 		.4byte	0x4599
 14674 332a 82010000 		.4byte	.LBB1044
 14675 332e 10000000 		.4byte	.LBE1044-.LBB1044
 14676 3332 01       		.byte	0x1
 14677 3333 AB01     		.2byte	0x1ab
 14678 3335 5E330000 		.4byte	0x335e
 14679 3339 30       		.uleb128 0x30
 14680 333a A5450000 		.4byte	0x45a5
 14681 333e F1010000 		.4byte	.LLST267
 14682 3342 31       		.uleb128 0x31
 14683 3343 8A010000 		.4byte	.LVL508
 14684 3347 584C0000 		.4byte	0x4c58
 14685 334b 32       		.uleb128 0x32
 14686 334c 01       		.uleb128 0x1
 14687 334d 50       		.byte	0x50
 14688 334e 02       		.uleb128 0x2
 14689 334f 76       		.byte	0x76
 14690 3350 00       		.sleb128 0
 14691 3351 32       		.uleb128 0x32
 14692 3352 01       		.uleb128 0x1
 14693 3353 51       		.byte	0x51
 14694 3354 01       		.uleb128 0x1
 14695 3355 31       		.byte	0x31
 14696 3356 32       		.uleb128 0x32
 14697 3357 01       		.uleb128 0x1
 14698 3358 52       		.byte	0x52
 14699 3359 02       		.uleb128 0x2
 14700 335a 91       		.byte	0x91
 14701 335b 43       		.sleb128 -61
 14702 335c 00       		.byte	0
 14703 335d 00       		.byte	0
 14704 335e 33       		.uleb128 0x33
 14705 335f 99450000 		.4byte	0x4599
 14706 3363 92010000 		.4byte	.LBB1046
 14707 3367 10000000 		.4byte	.LBE1046-.LBB1046
 14708 336b 01       		.byte	0x1
 14709 336c AC01     		.2byte	0x1ac
 14710 336e 97330000 		.4byte	0x3397
 14711 3372 30       		.uleb128 0x30
 14712 3373 A5450000 		.4byte	0x45a5
 14713 3377 05020000 		.4byte	.LLST268
 14714 337b 31       		.uleb128 0x31
 14715 337c 9A010000 		.4byte	.LVL510
 14716 3380 584C0000 		.4byte	0x4c58
 14717 3384 32       		.uleb128 0x32
 14718 3385 01       		.uleb128 0x1
 14719 3386 50       		.byte	0x50
 14720 3387 02       		.uleb128 0x2
 14721 3388 76       		.byte	0x76
ARM GAS  /tmp/ccs3e2Sq.s 			page 260


 14722 3389 00       		.sleb128 0
 14723 338a 32       		.uleb128 0x32
 14724 338b 01       		.uleb128 0x1
 14725 338c 51       		.byte	0x51
 14726 338d 01       		.uleb128 0x1
 14727 338e 31       		.byte	0x31
 14728 338f 32       		.uleb128 0x32
 14729 3390 01       		.uleb128 0x1
 14730 3391 52       		.byte	0x52
 14731 3392 02       		.uleb128 0x2
 14732 3393 91       		.byte	0x91
 14733 3394 42       		.sleb128 -62
 14734 3395 00       		.byte	0
 14735 3396 00       		.byte	0
 14736 3397 33       		.uleb128 0x33
 14737 3398 99450000 		.4byte	0x4599
 14738 339c A2010000 		.4byte	.LBB1048
 14739 33a0 10000000 		.4byte	.LBE1048-.LBB1048
 14740 33a4 01       		.byte	0x1
 14741 33a5 AD01     		.2byte	0x1ad
 14742 33a7 D0330000 		.4byte	0x33d0
 14743 33ab 30       		.uleb128 0x30
 14744 33ac A5450000 		.4byte	0x45a5
 14745 33b0 19020000 		.4byte	.LLST269
 14746 33b4 31       		.uleb128 0x31
 14747 33b5 AA010000 		.4byte	.LVL512
 14748 33b9 584C0000 		.4byte	0x4c58
 14749 33bd 32       		.uleb128 0x32
 14750 33be 01       		.uleb128 0x1
 14751 33bf 50       		.byte	0x50
 14752 33c0 02       		.uleb128 0x2
 14753 33c1 76       		.byte	0x76
 14754 33c2 00       		.sleb128 0
 14755 33c3 32       		.uleb128 0x32
 14756 33c4 01       		.uleb128 0x1
 14757 33c5 51       		.byte	0x51
 14758 33c6 01       		.uleb128 0x1
 14759 33c7 31       		.byte	0x31
 14760 33c8 32       		.uleb128 0x32
 14761 33c9 01       		.uleb128 0x1
 14762 33ca 52       		.byte	0x52
 14763 33cb 02       		.uleb128 0x2
 14764 33cc 91       		.byte	0x91
 14765 33cd 41       		.sleb128 -63
 14766 33ce 00       		.byte	0
 14767 33cf 00       		.byte	0
 14768 33d0 33       		.uleb128 0x33
 14769 33d1 99450000 		.4byte	0x4599
 14770 33d5 B2010000 		.4byte	.LBB1050
 14771 33d9 10000000 		.4byte	.LBE1050-.LBB1050
 14772 33dd 01       		.byte	0x1
 14773 33de AE01     		.2byte	0x1ae
 14774 33e0 09340000 		.4byte	0x3409
 14775 33e4 30       		.uleb128 0x30
 14776 33e5 A5450000 		.4byte	0x45a5
 14777 33e9 2D020000 		.4byte	.LLST270
 14778 33ed 31       		.uleb128 0x31
ARM GAS  /tmp/ccs3e2Sq.s 			page 261


 14779 33ee BA010000 		.4byte	.LVL514
 14780 33f2 584C0000 		.4byte	0x4c58
 14781 33f6 32       		.uleb128 0x32
 14782 33f7 01       		.uleb128 0x1
 14783 33f8 50       		.byte	0x50
 14784 33f9 02       		.uleb128 0x2
 14785 33fa 76       		.byte	0x76
 14786 33fb 00       		.sleb128 0
 14787 33fc 32       		.uleb128 0x32
 14788 33fd 01       		.uleb128 0x1
 14789 33fe 51       		.byte	0x51
 14790 33ff 01       		.uleb128 0x1
 14791 3400 31       		.byte	0x31
 14792 3401 32       		.uleb128 0x32
 14793 3402 01       		.uleb128 0x1
 14794 3403 52       		.byte	0x52
 14795 3404 02       		.uleb128 0x2
 14796 3405 91       		.byte	0x91
 14797 3406 40       		.sleb128 -64
 14798 3407 00       		.byte	0
 14799 3408 00       		.byte	0
 14800 3409 33       		.uleb128 0x33
 14801 340a 99450000 		.4byte	0x4599
 14802 340e C2010000 		.4byte	.LBB1052
 14803 3412 0A000000 		.4byte	.LBE1052-.LBB1052
 14804 3416 01       		.byte	0x1
 14805 3417 AF01     		.2byte	0x1af
 14806 3419 43340000 		.4byte	0x3443
 14807 341d 30       		.uleb128 0x30
 14808 341e A5450000 		.4byte	0x45a5
 14809 3422 41020000 		.4byte	.LLST271
 14810 3426 31       		.uleb128 0x31
 14811 3427 CA010000 		.4byte	.LVL516
 14812 342b 584C0000 		.4byte	0x4c58
 14813 342f 32       		.uleb128 0x32
 14814 3430 01       		.uleb128 0x1
 14815 3431 50       		.byte	0x50
 14816 3432 02       		.uleb128 0x2
 14817 3433 76       		.byte	0x76
 14818 3434 00       		.sleb128 0
 14819 3435 32       		.uleb128 0x32
 14820 3436 01       		.uleb128 0x1
 14821 3437 51       		.byte	0x51
 14822 3438 01       		.uleb128 0x1
 14823 3439 31       		.byte	0x31
 14824 343a 32       		.uleb128 0x32
 14825 343b 01       		.uleb128 0x1
 14826 343c 52       		.byte	0x52
 14827 343d 03       		.uleb128 0x3
 14828 343e 91       		.byte	0x91
 14829 343f BF7F     		.sleb128 -65
 14830 3441 00       		.byte	0
 14831 3442 00       		.byte	0
 14832 3443 33       		.uleb128 0x33
 14833 3444 99450000 		.4byte	0x4599
 14834 3448 CC010000 		.4byte	.LBB1054
 14835 344c 0E000000 		.4byte	.LBE1054-.LBB1054
ARM GAS  /tmp/ccs3e2Sq.s 			page 262


 14836 3450 01       		.byte	0x1
 14837 3451 B001     		.2byte	0x1b0
 14838 3453 7D340000 		.4byte	0x347d
 14839 3457 30       		.uleb128 0x30
 14840 3458 A5450000 		.4byte	0x45a5
 14841 345c 56020000 		.4byte	.LLST272
 14842 3460 31       		.uleb128 0x31
 14843 3461 D8010000 		.4byte	.LVL518
 14844 3465 584C0000 		.4byte	0x4c58
 14845 3469 32       		.uleb128 0x32
 14846 346a 01       		.uleb128 0x1
 14847 346b 50       		.byte	0x50
 14848 346c 02       		.uleb128 0x2
 14849 346d 76       		.byte	0x76
 14850 346e 00       		.sleb128 0
 14851 346f 32       		.uleb128 0x32
 14852 3470 01       		.uleb128 0x1
 14853 3471 51       		.byte	0x51
 14854 3472 01       		.uleb128 0x1
 14855 3473 31       		.byte	0x31
 14856 3474 32       		.uleb128 0x32
 14857 3475 01       		.uleb128 0x1
 14858 3476 52       		.byte	0x52
 14859 3477 03       		.uleb128 0x3
 14860 3478 91       		.byte	0x91
 14861 3479 BE7F     		.sleb128 -66
 14862 347b 00       		.byte	0
 14863 347c 00       		.byte	0
 14864 347d 33       		.uleb128 0x33
 14865 347e 99450000 		.4byte	0x4599
 14866 3482 E2010000 		.4byte	.LBB1057
 14867 3486 0A000000 		.4byte	.LBE1057-.LBB1057
 14868 348a 01       		.byte	0x1
 14869 348b B101     		.2byte	0x1b1
 14870 348d B7340000 		.4byte	0x34b7
 14871 3491 30       		.uleb128 0x30
 14872 3492 A5450000 		.4byte	0x45a5
 14873 3496 6B020000 		.4byte	.LLST273
 14874 349a 31       		.uleb128 0x31
 14875 349b EA010000 		.4byte	.LVL520
 14876 349f 584C0000 		.4byte	0x4c58
 14877 34a3 32       		.uleb128 0x32
 14878 34a4 01       		.uleb128 0x1
 14879 34a5 50       		.byte	0x50
 14880 34a6 02       		.uleb128 0x2
 14881 34a7 76       		.byte	0x76
 14882 34a8 00       		.sleb128 0
 14883 34a9 32       		.uleb128 0x32
 14884 34aa 01       		.uleb128 0x1
 14885 34ab 51       		.byte	0x51
 14886 34ac 01       		.uleb128 0x1
 14887 34ad 31       		.byte	0x31
 14888 34ae 32       		.uleb128 0x32
 14889 34af 01       		.uleb128 0x1
 14890 34b0 52       		.byte	0x52
 14891 34b1 03       		.uleb128 0x3
 14892 34b2 91       		.byte	0x91
ARM GAS  /tmp/ccs3e2Sq.s 			page 263


 14893 34b3 BD7F     		.sleb128 -67
 14894 34b5 00       		.byte	0
 14895 34b6 00       		.byte	0
 14896 34b7 33       		.uleb128 0x33
 14897 34b8 99450000 		.4byte	0x4599
 14898 34bc EC010000 		.4byte	.LBB1059
 14899 34c0 0E000000 		.4byte	.LBE1059-.LBB1059
 14900 34c4 01       		.byte	0x1
 14901 34c5 B301     		.2byte	0x1b3
 14902 34c7 F1340000 		.4byte	0x34f1
 14903 34cb 30       		.uleb128 0x30
 14904 34cc A5450000 		.4byte	0x45a5
 14905 34d0 80020000 		.4byte	.LLST274
 14906 34d4 31       		.uleb128 0x31
 14907 34d5 F8010000 		.4byte	.LVL522
 14908 34d9 584C0000 		.4byte	0x4c58
 14909 34dd 32       		.uleb128 0x32
 14910 34de 01       		.uleb128 0x1
 14911 34df 50       		.byte	0x50
 14912 34e0 02       		.uleb128 0x2
 14913 34e1 76       		.byte	0x76
 14914 34e2 00       		.sleb128 0
 14915 34e3 32       		.uleb128 0x32
 14916 34e4 01       		.uleb128 0x1
 14917 34e5 51       		.byte	0x51
 14918 34e6 01       		.uleb128 0x1
 14919 34e7 31       		.byte	0x31
 14920 34e8 32       		.uleb128 0x32
 14921 34e9 01       		.uleb128 0x1
 14922 34ea 52       		.byte	0x52
 14923 34eb 03       		.uleb128 0x3
 14924 34ec 91       		.byte	0x91
 14925 34ed BC7F     		.sleb128 -68
 14926 34ef 00       		.byte	0
 14927 34f0 00       		.byte	0
 14928 34f1 33       		.uleb128 0x33
 14929 34f2 7A450000 		.4byte	0x457a
 14930 34f6 58020000 		.4byte	.LBB1062
 14931 34fa 34000000 		.4byte	.LBE1062-.LBB1062
 14932 34fe 01       		.byte	0x1
 14933 34ff B501     		.2byte	0x1b5
 14934 3501 BC350000 		.4byte	0x35bc
 14935 3505 30       		.uleb128 0x30
 14936 3506 8F450000 		.4byte	0x458f
 14937 350a 95020000 		.4byte	.LLST275
 14938 350e 30       		.uleb128 0x30
 14939 350f 86450000 		.4byte	0x4586
 14940 3513 95020000 		.4byte	.LLST275
 14941 3517 35       		.uleb128 0x35
 14942 3518 99450000 		.4byte	0x4599
 14943 351c 5A020000 		.4byte	.LBB1064
 14944 3520 200B0000 		.4byte	.Ldebug_ranges0+0xb20
 14945 3524 01       		.byte	0x1
 14946 3525 2E       		.byte	0x2e
 14947 3526 4F350000 		.4byte	0x354f
 14948 352a 30       		.uleb128 0x30
 14949 352b A5450000 		.4byte	0x45a5
ARM GAS  /tmp/ccs3e2Sq.s 			page 264


 14950 352f A9020000 		.4byte	.LLST277
 14951 3533 31       		.uleb128 0x31
 14952 3534 6E020000 		.4byte	.LVL537
 14953 3538 584C0000 		.4byte	0x4c58
 14954 353c 32       		.uleb128 0x32
 14955 353d 01       		.uleb128 0x1
 14956 353e 50       		.byte	0x50
 14957 353f 02       		.uleb128 0x2
 14958 3540 76       		.byte	0x76
 14959 3541 00       		.sleb128 0
 14960 3542 32       		.uleb128 0x32
 14961 3543 01       		.uleb128 0x1
 14962 3544 51       		.byte	0x51
 14963 3545 01       		.uleb128 0x1
 14964 3546 31       		.byte	0x31
 14965 3547 32       		.uleb128 0x32
 14966 3548 01       		.uleb128 0x1
 14967 3549 52       		.byte	0x52
 14968 354a 02       		.uleb128 0x2
 14969 354b 91       		.byte	0x91
 14970 354c 59       		.sleb128 -39
 14971 354d 00       		.byte	0
 14972 354e 00       		.byte	0
 14973 354f 36       		.uleb128 0x36
 14974 3550 99450000 		.4byte	0x4599
 14975 3554 76020000 		.4byte	.LBB1068
 14976 3558 0A000000 		.4byte	.LBE1068-.LBB1068
 14977 355c 01       		.byte	0x1
 14978 355d 2F       		.byte	0x2f
 14979 355e 87350000 		.4byte	0x3587
 14980 3562 30       		.uleb128 0x30
 14981 3563 A5450000 		.4byte	0x45a5
 14982 3567 BD020000 		.4byte	.LLST278
 14983 356b 31       		.uleb128 0x31
 14984 356c 7E020000 		.4byte	.LVL539
 14985 3570 584C0000 		.4byte	0x4c58
 14986 3574 32       		.uleb128 0x32
 14987 3575 01       		.uleb128 0x1
 14988 3576 50       		.byte	0x50
 14989 3577 02       		.uleb128 0x2
 14990 3578 76       		.byte	0x76
 14991 3579 00       		.sleb128 0
 14992 357a 32       		.uleb128 0x32
 14993 357b 01       		.uleb128 0x1
 14994 357c 51       		.byte	0x51
 14995 357d 01       		.uleb128 0x1
 14996 357e 31       		.byte	0x31
 14997 357f 32       		.uleb128 0x32
 14998 3580 01       		.uleb128 0x1
 14999 3581 52       		.byte	0x52
 15000 3582 02       		.uleb128 0x2
 15001 3583 91       		.byte	0x91
 15002 3584 5A       		.sleb128 -38
 15003 3585 00       		.byte	0
 15004 3586 00       		.byte	0
 15005 3587 37       		.uleb128 0x37
 15006 3588 99450000 		.4byte	0x4599
ARM GAS  /tmp/ccs3e2Sq.s 			page 265


 15007 358c 80020000 		.4byte	.LBB1070
 15008 3590 0C000000 		.4byte	.LBE1070-.LBB1070
 15009 3594 01       		.byte	0x1
 15010 3595 30       		.byte	0x30
 15011 3596 30       		.uleb128 0x30
 15012 3597 A5450000 		.4byte	0x45a5
 15013 359b D1020000 		.4byte	.LLST279
 15014 359f 31       		.uleb128 0x31
 15015 35a0 8C020000 		.4byte	.LVL541
 15016 35a4 584C0000 		.4byte	0x4c58
 15017 35a8 32       		.uleb128 0x32
 15018 35a9 01       		.uleb128 0x1
 15019 35aa 50       		.byte	0x50
 15020 35ab 02       		.uleb128 0x2
 15021 35ac 76       		.byte	0x76
 15022 35ad 00       		.sleb128 0
 15023 35ae 32       		.uleb128 0x32
 15024 35af 01       		.uleb128 0x1
 15025 35b0 51       		.byte	0x51
 15026 35b1 01       		.uleb128 0x1
 15027 35b2 31       		.byte	0x31
 15028 35b3 32       		.uleb128 0x32
 15029 35b4 01       		.uleb128 0x1
 15030 35b5 52       		.byte	0x52
 15031 35b6 02       		.uleb128 0x2
 15032 35b7 91       		.byte	0x91
 15033 35b8 5B       		.sleb128 -37
 15034 35b9 00       		.byte	0
 15035 35ba 00       		.byte	0
 15036 35bb 00       		.byte	0
 15037 35bc 38       		.uleb128 0x38
 15038 35bd 1E000000 		.4byte	.LVL463
 15039 35c1 644C0000 		.4byte	0x4c64
 15040 35c5 D1350000 		.4byte	0x35d1
 15041 35c9 32       		.uleb128 0x32
 15042 35ca 01       		.uleb128 0x1
 15043 35cb 50       		.byte	0x50
 15044 35cc 03       		.uleb128 0x3
 15045 35cd 0A       		.byte	0xa
 15046 35ce E803     		.2byte	0x3e8
 15047 35d0 00       		.byte	0
 15048 35d1 31       		.uleb128 0x31
 15049 35d2 28000000 		.4byte	.LVL464
 15050 35d6 644C0000 		.4byte	0x4c64
 15051 35da 32       		.uleb128 0x32
 15052 35db 01       		.uleb128 0x1
 15053 35dc 50       		.byte	0x50
 15054 35dd 03       		.uleb128 0x3
 15055 35de 0A       		.byte	0xa
 15056 35df D007     		.2byte	0x7d0
 15057 35e1 00       		.byte	0
 15058 35e2 00       		.byte	0
 15059 35e3 39       		.uleb128 0x39
 15060 35e4 CF0A0000 		.4byte	.LASF629
 15061 35e8 01       		.byte	0x1
 15062 35e9 7B01     		.2byte	0x17b
 15063 35eb 01       		.byte	0x1
ARM GAS  /tmp/ccs3e2Sq.s 			page 266


 15064 35ec 05360000 		.4byte	0x3605
 15065 35f0 3A       		.uleb128 0x3a
 15066 35f1 6900     		.ascii	"i\000"
 15067 35f3 01       		.byte	0x1
 15068 35f4 7D01     		.2byte	0x17d
 15069 35f6 C9000000 		.4byte	0xc9
 15070 35fa 3A       		.uleb128 0x3a
 15071 35fb 6E00     		.ascii	"n\000"
 15072 35fd 01       		.byte	0x1
 15073 35fe 7D01     		.2byte	0x17d
 15074 3600 C9000000 		.4byte	0xc9
 15075 3604 00       		.byte	0
 15076 3605 2C       		.uleb128 0x2c
 15077 3606 67060000 		.4byte	.LASF605
 15078 360a 01       		.byte	0x1
 15079 360b 7201     		.2byte	0x172
 15080 360d 00000000 		.4byte	.LFB342
 15081 3611 4C000000 		.4byte	.LFE342-.LFB342
 15082 3615 01       		.uleb128 0x1
 15083 3616 9C       		.byte	0x9c
 15084 3617 C3360000 		.4byte	0x36c3
 15085 361b 2D       		.uleb128 0x2d
 15086 361c 99450000 		.4byte	0x4599
 15087 3620 04000000 		.4byte	.LBB880
 15088 3624 700A0000 		.4byte	.Ldebug_ranges0+0xa70
 15089 3628 01       		.byte	0x1
 15090 3629 7501     		.2byte	0x175
 15091 362b 54360000 		.4byte	0x3654
 15092 362f 30       		.uleb128 0x30
 15093 3630 A5450000 		.4byte	0x45a5
 15094 3634 E5020000 		.4byte	.LLST234
 15095 3638 31       		.uleb128 0x31
 15096 3639 1E000000 		.4byte	.LVL445
 15097 363d 584C0000 		.4byte	0x4c58
 15098 3641 32       		.uleb128 0x32
 15099 3642 01       		.uleb128 0x1
 15100 3643 50       		.byte	0x50
 15101 3644 02       		.uleb128 0x2
 15102 3645 74       		.byte	0x74
 15103 3646 00       		.sleb128 0
 15104 3647 32       		.uleb128 0x32
 15105 3648 01       		.uleb128 0x1
 15106 3649 51       		.byte	0x51
 15107 364a 01       		.uleb128 0x1
 15108 364b 31       		.byte	0x31
 15109 364c 32       		.uleb128 0x32
 15110 364d 01       		.uleb128 0x1
 15111 364e 52       		.byte	0x52
 15112 364f 02       		.uleb128 0x2
 15113 3650 91       		.byte	0x91
 15114 3651 77       		.sleb128 -9
 15115 3652 00       		.byte	0
 15116 3653 00       		.byte	0
 15117 3654 33       		.uleb128 0x33
 15118 3655 99450000 		.4byte	0x4599
 15119 3659 26000000 		.4byte	.LBB884
 15120 365d 10000000 		.4byte	.LBE884-.LBB884
ARM GAS  /tmp/ccs3e2Sq.s 			page 267


 15121 3661 01       		.byte	0x1
 15122 3662 7601     		.2byte	0x176
 15123 3664 8D360000 		.4byte	0x368d
 15124 3668 30       		.uleb128 0x30
 15125 3669 A5450000 		.4byte	0x45a5
 15126 366d F9020000 		.4byte	.LLST235
 15127 3671 31       		.uleb128 0x31
 15128 3672 2E000000 		.4byte	.LVL447
 15129 3676 584C0000 		.4byte	0x4c58
 15130 367a 32       		.uleb128 0x32
 15131 367b 01       		.uleb128 0x1
 15132 367c 50       		.byte	0x50
 15133 367d 02       		.uleb128 0x2
 15134 367e 74       		.byte	0x74
 15135 367f 00       		.sleb128 0
 15136 3680 32       		.uleb128 0x32
 15137 3681 01       		.uleb128 0x1
 15138 3682 51       		.byte	0x51
 15139 3683 01       		.uleb128 0x1
 15140 3684 31       		.byte	0x31
 15141 3685 32       		.uleb128 0x32
 15142 3686 01       		.uleb128 0x1
 15143 3687 52       		.byte	0x52
 15144 3688 02       		.uleb128 0x2
 15145 3689 91       		.byte	0x91
 15146 368a 76       		.sleb128 -10
 15147 368b 00       		.byte	0
 15148 368c 00       		.byte	0
 15149 368d 34       		.uleb128 0x34
 15150 368e 99450000 		.4byte	0x4599
 15151 3692 36000000 		.4byte	.LBB886
 15152 3696 08000000 		.4byte	.LBE886-.LBB886
 15153 369a 01       		.byte	0x1
 15154 369b 7701     		.2byte	0x177
 15155 369d 30       		.uleb128 0x30
 15156 369e A5450000 		.4byte	0x45a5
 15157 36a2 0D030000 		.4byte	.LLST236
 15158 36a6 31       		.uleb128 0x31
 15159 36a7 3E000000 		.4byte	.LVL449
 15160 36ab 584C0000 		.4byte	0x4c58
 15161 36af 32       		.uleb128 0x32
 15162 36b0 01       		.uleb128 0x1
 15163 36b1 50       		.byte	0x50
 15164 36b2 02       		.uleb128 0x2
 15165 36b3 74       		.byte	0x74
 15166 36b4 00       		.sleb128 0
 15167 36b5 32       		.uleb128 0x32
 15168 36b6 01       		.uleb128 0x1
 15169 36b7 51       		.byte	0x51
 15170 36b8 01       		.uleb128 0x1
 15171 36b9 31       		.byte	0x31
 15172 36ba 32       		.uleb128 0x32
 15173 36bb 01       		.uleb128 0x1
 15174 36bc 52       		.byte	0x52
 15175 36bd 02       		.uleb128 0x2
 15176 36be 91       		.byte	0x91
 15177 36bf 75       		.sleb128 -11
ARM GAS  /tmp/ccs3e2Sq.s 			page 268


 15178 36c0 00       		.byte	0
 15179 36c1 00       		.byte	0
 15180 36c2 00       		.byte	0
 15181 36c3 2C       		.uleb128 0x2c
 15182 36c4 061A0000 		.4byte	.LASF606
 15183 36c8 01       		.byte	0x1
 15184 36c9 6901     		.2byte	0x169
 15185 36cb 00000000 		.4byte	.LFB341
 15186 36cf 4C000000 		.4byte	.LFE341-.LFB341
 15187 36d3 01       		.uleb128 0x1
 15188 36d4 9C       		.byte	0x9c
 15189 36d5 81370000 		.4byte	0x3781
 15190 36d9 2D       		.uleb128 0x2d
 15191 36da 99450000 		.4byte	0x4599
 15192 36de 04000000 		.4byte	.LBB872
 15193 36e2 580A0000 		.4byte	.Ldebug_ranges0+0xa58
 15194 36e6 01       		.byte	0x1
 15195 36e7 6C01     		.2byte	0x16c
 15196 36e9 12370000 		.4byte	0x3712
 15197 36ed 30       		.uleb128 0x30
 15198 36ee A5450000 		.4byte	0x45a5
 15199 36f2 21030000 		.4byte	.LLST231
 15200 36f6 31       		.uleb128 0x31
 15201 36f7 1E000000 		.4byte	.LVL439
 15202 36fb 584C0000 		.4byte	0x4c58
 15203 36ff 32       		.uleb128 0x32
 15204 3700 01       		.uleb128 0x1
 15205 3701 50       		.byte	0x50
 15206 3702 02       		.uleb128 0x2
 15207 3703 74       		.byte	0x74
 15208 3704 00       		.sleb128 0
 15209 3705 32       		.uleb128 0x32
 15210 3706 01       		.uleb128 0x1
 15211 3707 51       		.byte	0x51
 15212 3708 01       		.uleb128 0x1
 15213 3709 31       		.byte	0x31
 15214 370a 32       		.uleb128 0x32
 15215 370b 01       		.uleb128 0x1
 15216 370c 52       		.byte	0x52
 15217 370d 02       		.uleb128 0x2
 15218 370e 91       		.byte	0x91
 15219 370f 77       		.sleb128 -9
 15220 3710 00       		.byte	0
 15221 3711 00       		.byte	0
 15222 3712 33       		.uleb128 0x33
 15223 3713 99450000 		.4byte	0x4599
 15224 3717 26000000 		.4byte	.LBB876
 15225 371b 10000000 		.4byte	.LBE876-.LBB876
 15226 371f 01       		.byte	0x1
 15227 3720 6D01     		.2byte	0x16d
 15228 3722 4B370000 		.4byte	0x374b
 15229 3726 30       		.uleb128 0x30
 15230 3727 A5450000 		.4byte	0x45a5
 15231 372b 35030000 		.4byte	.LLST232
 15232 372f 31       		.uleb128 0x31
 15233 3730 2E000000 		.4byte	.LVL441
 15234 3734 584C0000 		.4byte	0x4c58
ARM GAS  /tmp/ccs3e2Sq.s 			page 269


 15235 3738 32       		.uleb128 0x32
 15236 3739 01       		.uleb128 0x1
 15237 373a 50       		.byte	0x50
 15238 373b 02       		.uleb128 0x2
 15239 373c 74       		.byte	0x74
 15240 373d 00       		.sleb128 0
 15241 373e 32       		.uleb128 0x32
 15242 373f 01       		.uleb128 0x1
 15243 3740 51       		.byte	0x51
 15244 3741 01       		.uleb128 0x1
 15245 3742 31       		.byte	0x31
 15246 3743 32       		.uleb128 0x32
 15247 3744 01       		.uleb128 0x1
 15248 3745 52       		.byte	0x52
 15249 3746 02       		.uleb128 0x2
 15250 3747 91       		.byte	0x91
 15251 3748 76       		.sleb128 -10
 15252 3749 00       		.byte	0
 15253 374a 00       		.byte	0
 15254 374b 34       		.uleb128 0x34
 15255 374c 99450000 		.4byte	0x4599
 15256 3750 36000000 		.4byte	.LBB878
 15257 3754 08000000 		.4byte	.LBE878-.LBB878
 15258 3758 01       		.byte	0x1
 15259 3759 6E01     		.2byte	0x16e
 15260 375b 30       		.uleb128 0x30
 15261 375c A5450000 		.4byte	0x45a5
 15262 3760 49030000 		.4byte	.LLST233
 15263 3764 31       		.uleb128 0x31
 15264 3765 3E000000 		.4byte	.LVL443
 15265 3769 584C0000 		.4byte	0x4c58
 15266 376d 32       		.uleb128 0x32
 15267 376e 01       		.uleb128 0x1
 15268 376f 50       		.byte	0x50
 15269 3770 02       		.uleb128 0x2
 15270 3771 74       		.byte	0x74
 15271 3772 00       		.sleb128 0
 15272 3773 32       		.uleb128 0x32
 15273 3774 01       		.uleb128 0x1
 15274 3775 51       		.byte	0x51
 15275 3776 01       		.uleb128 0x1
 15276 3777 31       		.byte	0x31
 15277 3778 32       		.uleb128 0x32
 15278 3779 01       		.uleb128 0x1
 15279 377a 52       		.byte	0x52
 15280 377b 02       		.uleb128 0x2
 15281 377c 91       		.byte	0x91
 15282 377d 75       		.sleb128 -11
 15283 377e 00       		.byte	0
 15284 377f 00       		.byte	0
 15285 3780 00       		.byte	0
 15286 3781 2C       		.uleb128 0x2c
 15287 3782 9A130000 		.4byte	.LASF607
 15288 3786 01       		.byte	0x1
 15289 3787 4401     		.2byte	0x144
 15290 3789 00000000 		.4byte	.LFB340
 15291 378d 6C010000 		.4byte	.LFE340-.LFB340
ARM GAS  /tmp/ccs3e2Sq.s 			page 270


 15292 3791 01       		.uleb128 0x1
 15293 3792 9C       		.byte	0x9c
 15294 3793 75390000 		.4byte	0x3975
 15295 3797 3B       		.uleb128 0x3b
 15296 3798 16120000 		.4byte	.LASF593
 15297 379c 01       		.byte	0x1
 15298 379d 4401     		.2byte	0x144
 15299 379f 75390000 		.4byte	0x3975
 15300 37a3 5D030000 		.4byte	.LLST216
 15301 37a7 3C       		.uleb128 0x3c
 15302 37a8 7800     		.ascii	"x\000"
 15303 37aa 01       		.byte	0x1
 15304 37ab 4401     		.2byte	0x144
 15305 37ad D4000000 		.4byte	0xd4
 15306 37b1 94030000 		.4byte	.LLST217
 15307 37b5 3B       		.uleb128 0x3b
 15308 37b6 9C090000 		.4byte	.LASF608
 15309 37ba 01       		.byte	0x1
 15310 37bb 4401     		.2byte	0x144
 15311 37bd D4000000 		.4byte	0xd4
 15312 37c1 B5030000 		.4byte	.LLST218
 15313 37c5 3B       		.uleb128 0x3b
 15314 37c6 08190000 		.4byte	.LASF609
 15315 37ca 01       		.byte	0x1
 15316 37cb 4401     		.2byte	0x144
 15317 37cd 00100000 		.4byte	0x1000
 15318 37d1 D6030000 		.4byte	.LLST219
 15319 37d5 2E       		.uleb128 0x2e
 15320 37d6 68090000 		.4byte	.Ldebug_ranges0+0x968
 15321 37da 3D       		.uleb128 0x3d
 15322 37db 66180000 		.4byte	.LASF610
 15323 37df 01       		.byte	0x1
 15324 37e0 4601     		.2byte	0x146
 15325 37e2 C9000000 		.4byte	0xc9
 15326 37e6 F7030000 		.4byte	.LLST220
 15327 37ea 2E       		.uleb128 0x2e
 15328 37eb 88090000 		.4byte	.Ldebug_ranges0+0x988
 15329 37ef 3E       		.uleb128 0x3e
 15330 37f0 6900     		.ascii	"i\000"
 15331 37f2 01       		.byte	0x1
 15332 37f3 4A01     		.2byte	0x14a
 15333 37f5 C9000000 		.4byte	0xc9
 15334 37f9 2E040000 		.4byte	.LLST221
 15335 37fd 2E       		.uleb128 0x2e
 15336 37fe A8090000 		.4byte	.Ldebug_ranges0+0x9a8
 15337 3802 3D       		.uleb128 0x3d
 15338 3803 78010000 		.4byte	.LASF611
 15339 3807 01       		.byte	0x1
 15340 3808 4C01     		.2byte	0x14c
 15341 380a C9000000 		.4byte	0xc9
 15342 380e 63040000 		.4byte	.LLST222
 15343 3812 2E       		.uleb128 0x2e
 15344 3813 C8090000 		.4byte	.Ldebug_ranges0+0x9c8
 15345 3817 3E       		.uleb128 0x3e
 15346 3818 6A00     		.ascii	"j\000"
 15347 381a 01       		.byte	0x1
 15348 381b 5401     		.2byte	0x154
ARM GAS  /tmp/ccs3e2Sq.s 			page 271


 15349 381d C9000000 		.4byte	0xc9
 15350 3821 97040000 		.4byte	.LLST223
 15351 3825 2E       		.uleb128 0x2e
 15352 3826 E0090000 		.4byte	.Ldebug_ranges0+0x9e0
 15353 382a 3D       		.uleb128 0x3d
 15354 382b 64150000 		.4byte	.LASF154
 15355 382f 01       		.byte	0x1
 15356 3830 5601     		.2byte	0x156
 15357 3832 C9000000 		.4byte	0xc9
 15358 3836 AA040000 		.4byte	.LLST224
 15359 383a 2D       		.uleb128 0x2d
 15360 383b 7A450000 		.4byte	0x457a
 15361 383f 2A000000 		.4byte	.LBB841
 15362 3843 000A0000 		.4byte	.Ldebug_ranges0+0xa00
 15363 3847 01       		.byte	0x1
 15364 3848 5B01     		.2byte	0x15b
 15365 384a 01390000 		.4byte	0x3901
 15366 384e 3F       		.uleb128 0x3f
 15367 384f 8F450000 		.4byte	0x458f
 15368 3853 30       		.uleb128 0x30
 15369 3854 86450000 		.4byte	0x4586
 15370 3858 DC040000 		.4byte	.LLST225
 15371 385c 35       		.uleb128 0x35
 15372 385d 99450000 		.4byte	0x4599
 15373 3861 2A000000 		.4byte	.LBB843
 15374 3865 280A0000 		.4byte	.Ldebug_ranges0+0xa28
 15375 3869 01       		.byte	0x1
 15376 386a 2E       		.byte	0x2e
 15377 386b 94380000 		.4byte	0x3894
 15378 386f 30       		.uleb128 0x30
 15379 3870 A5450000 		.4byte	0x45a5
 15380 3874 FA040000 		.4byte	.LLST226
 15381 3878 31       		.uleb128 0x31
 15382 3879 A6000000 		.4byte	.LVL417
 15383 387d 584C0000 		.4byte	0x4c58
 15384 3881 32       		.uleb128 0x32
 15385 3882 01       		.uleb128 0x1
 15386 3883 50       		.byte	0x50
 15387 3884 02       		.uleb128 0x2
 15388 3885 7B       		.byte	0x7b
 15389 3886 00       		.sleb128 0
 15390 3887 32       		.uleb128 0x32
 15391 3888 01       		.uleb128 0x1
 15392 3889 51       		.byte	0x51
 15393 388a 01       		.uleb128 0x1
 15394 388b 31       		.byte	0x31
 15395 388c 32       		.uleb128 0x32
 15396 388d 01       		.uleb128 0x1
 15397 388e 52       		.byte	0x52
 15398 388f 02       		.uleb128 0x2
 15399 3890 91       		.byte	0x91
 15400 3891 55       		.sleb128 -43
 15401 3892 00       		.byte	0
 15402 3893 00       		.byte	0
 15403 3894 36       		.uleb128 0x36
 15404 3895 99450000 		.4byte	0x4599
 15405 3899 B4000000 		.4byte	.LBB847
ARM GAS  /tmp/ccs3e2Sq.s 			page 272


 15406 389d 0A000000 		.4byte	.LBE847-.LBB847
 15407 38a1 01       		.byte	0x1
 15408 38a2 2F       		.byte	0x2f
 15409 38a3 CC380000 		.4byte	0x38cc
 15410 38a7 30       		.uleb128 0x30
 15411 38a8 A5450000 		.4byte	0x45a5
 15412 38ac 0E050000 		.4byte	.LLST227
 15413 38b0 31       		.uleb128 0x31
 15414 38b1 BC000000 		.4byte	.LVL419
 15415 38b5 584C0000 		.4byte	0x4c58
 15416 38b9 32       		.uleb128 0x32
 15417 38ba 01       		.uleb128 0x1
 15418 38bb 50       		.byte	0x50
 15419 38bc 02       		.uleb128 0x2
 15420 38bd 7B       		.byte	0x7b
 15421 38be 00       		.sleb128 0
 15422 38bf 32       		.uleb128 0x32
 15423 38c0 01       		.uleb128 0x1
 15424 38c1 51       		.byte	0x51
 15425 38c2 01       		.uleb128 0x1
 15426 38c3 31       		.byte	0x31
 15427 38c4 32       		.uleb128 0x32
 15428 38c5 01       		.uleb128 0x1
 15429 38c6 52       		.byte	0x52
 15430 38c7 02       		.uleb128 0x2
 15431 38c8 91       		.byte	0x91
 15432 38c9 56       		.sleb128 -42
 15433 38ca 00       		.byte	0
 15434 38cb 00       		.byte	0
 15435 38cc 37       		.uleb128 0x37
 15436 38cd 99450000 		.4byte	0x4599
 15437 38d1 C6000000 		.4byte	.LBB849
 15438 38d5 08000000 		.4byte	.LBE849-.LBB849
 15439 38d9 01       		.byte	0x1
 15440 38da 30       		.byte	0x30
 15441 38db 30       		.uleb128 0x30
 15442 38dc A5450000 		.4byte	0x45a5
 15443 38e0 22050000 		.4byte	.LLST228
 15444 38e4 31       		.uleb128 0x31
 15445 38e5 CE000000 		.4byte	.LVL422
 15446 38e9 584C0000 		.4byte	0x4c58
 15447 38ed 32       		.uleb128 0x32
 15448 38ee 01       		.uleb128 0x1
 15449 38ef 50       		.byte	0x50
 15450 38f0 02       		.uleb128 0x2
 15451 38f1 7B       		.byte	0x7b
 15452 38f2 00       		.sleb128 0
 15453 38f3 32       		.uleb128 0x32
 15454 38f4 01       		.uleb128 0x1
 15455 38f5 51       		.byte	0x51
 15456 38f6 01       		.uleb128 0x1
 15457 38f7 31       		.byte	0x31
 15458 38f8 32       		.uleb128 0x32
 15459 38f9 01       		.uleb128 0x1
 15460 38fa 52       		.byte	0x52
 15461 38fb 02       		.uleb128 0x2
 15462 38fc 91       		.byte	0x91
ARM GAS  /tmp/ccs3e2Sq.s 			page 273


 15463 38fd 57       		.sleb128 -41
 15464 38fe 00       		.byte	0
 15465 38ff 00       		.byte	0
 15466 3900 00       		.byte	0
 15467 3901 33       		.uleb128 0x33
 15468 3902 99450000 		.4byte	0x4599
 15469 3906 EC000000 		.4byte	.LBB857
 15470 390a 08000000 		.4byte	.LBE857-.LBB857
 15471 390e 01       		.byte	0x1
 15472 390f 5D01     		.2byte	0x15d
 15473 3911 3A390000 		.4byte	0x393a
 15474 3915 30       		.uleb128 0x30
 15475 3916 A5450000 		.4byte	0x45a5
 15476 391a 36050000 		.4byte	.LLST229
 15477 391e 31       		.uleb128 0x31
 15478 391f F4000000 		.4byte	.LVL424
 15479 3923 584C0000 		.4byte	0x4c58
 15480 3927 32       		.uleb128 0x32
 15481 3928 01       		.uleb128 0x1
 15482 3929 50       		.byte	0x50
 15483 392a 02       		.uleb128 0x2
 15484 392b 7B       		.byte	0x7b
 15485 392c 00       		.sleb128 0
 15486 392d 32       		.uleb128 0x32
 15487 392e 01       		.uleb128 0x1
 15488 392f 51       		.byte	0x51
 15489 3930 01       		.uleb128 0x1
 15490 3931 31       		.byte	0x31
 15491 3932 32       		.uleb128 0x32
 15492 3933 01       		.uleb128 0x1
 15493 3934 52       		.byte	0x52
 15494 3935 02       		.uleb128 0x2
 15495 3936 91       		.byte	0x91
 15496 3937 53       		.sleb128 -45
 15497 3938 00       		.byte	0
 15498 3939 00       		.byte	0
 15499 393a 40       		.uleb128 0x40
 15500 393b 99450000 		.4byte	0x4599
 15501 393f F8000000 		.4byte	.LBB859
 15502 3943 400A0000 		.4byte	.Ldebug_ranges0+0xa40
 15503 3947 01       		.byte	0x1
 15504 3948 6001     		.2byte	0x160
 15505 394a 30       		.uleb128 0x30
 15506 394b A5450000 		.4byte	0x45a5
 15507 394f 4A050000 		.4byte	.LLST230
 15508 3953 31       		.uleb128 0x31
 15509 3954 1A010000 		.4byte	.LVL427
 15510 3958 584C0000 		.4byte	0x4c58
 15511 395c 32       		.uleb128 0x32
 15512 395d 01       		.uleb128 0x1
 15513 395e 50       		.byte	0x50
 15514 395f 02       		.uleb128 0x2
 15515 3960 7B       		.byte	0x7b
 15516 3961 00       		.sleb128 0
 15517 3962 32       		.uleb128 0x32
 15518 3963 01       		.uleb128 0x1
 15519 3964 51       		.byte	0x51
ARM GAS  /tmp/ccs3e2Sq.s 			page 274


 15520 3965 01       		.uleb128 0x1
 15521 3966 31       		.byte	0x31
 15522 3967 32       		.uleb128 0x32
 15523 3968 01       		.uleb128 0x1
 15524 3969 52       		.byte	0x52
 15525 396a 02       		.uleb128 0x2
 15526 396b 91       		.byte	0x91
 15527 396c 54       		.sleb128 -44
 15528 396d 00       		.byte	0
 15529 396e 00       		.byte	0
 15530 396f 00       		.byte	0
 15531 3970 00       		.byte	0
 15532 3971 00       		.byte	0
 15533 3972 00       		.byte	0
 15534 3973 00       		.byte	0
 15535 3974 00       		.byte	0
 15536 3975 0C       		.uleb128 0xc
 15537 3976 04       		.byte	0x4
 15538 3977 852C0000 		.4byte	0x2c85
 15539 397b 2C       		.uleb128 0x2c
 15540 397c EC0E0000 		.4byte	.LASF612
 15541 3980 01       		.byte	0x1
 15542 3981 3F01     		.2byte	0x13f
 15543 3983 00000000 		.4byte	.LFB339
 15544 3987 04000000 		.4byte	.LFE339-.LFB339
 15545 398b 01       		.uleb128 0x1
 15546 398c 9C       		.byte	0x9c
 15547 398d AE390000 		.4byte	0x39ae
 15548 3991 41       		.uleb128 0x41
 15549 3992 16120000 		.4byte	.LASF593
 15550 3996 01       		.byte	0x1
 15551 3997 3F01     		.2byte	0x13f
 15552 3999 75390000 		.4byte	0x3975
 15553 399d 01       		.uleb128 0x1
 15554 399e 50       		.byte	0x50
 15555 399f 41       		.uleb128 0x41
 15556 39a0 21060000 		.4byte	.LASF358
 15557 39a4 01       		.byte	0x1
 15558 39a5 3F01     		.2byte	0x13f
 15559 39a7 F90F0000 		.4byte	0xff9
 15560 39ab 01       		.uleb128 0x1
 15561 39ac 51       		.byte	0x51
 15562 39ad 00       		.byte	0
 15563 39ae 2C       		.uleb128 0x2c
 15564 39af 24130000 		.4byte	.LASF613
 15565 39b3 01       		.byte	0x1
 15566 39b4 3A01     		.2byte	0x13a
 15567 39b6 00000000 		.4byte	.LFB338
 15568 39ba 0A000000 		.4byte	.LFE338-.LFB338
 15569 39be 01       		.uleb128 0x1
 15570 39bf 9C       		.byte	0x9c
 15571 39c0 D3390000 		.4byte	0x39d3
 15572 39c4 41       		.uleb128 0x41
 15573 39c5 16120000 		.4byte	.LASF593
 15574 39c9 01       		.byte	0x1
 15575 39ca 3A01     		.2byte	0x13a
 15576 39cc 75390000 		.4byte	0x3975
ARM GAS  /tmp/ccs3e2Sq.s 			page 275


 15577 39d0 01       		.uleb128 0x1
 15578 39d1 50       		.byte	0x50
 15579 39d2 00       		.byte	0
 15580 39d3 2C       		.uleb128 0x2c
 15581 39d4 66070000 		.4byte	.LASF614
 15582 39d8 01       		.byte	0x1
 15583 39d9 1301     		.2byte	0x113
 15584 39db 00000000 		.4byte	.LFB337
 15585 39df 08030000 		.4byte	.LFE337-.LFB337
 15586 39e3 01       		.uleb128 0x1
 15587 39e4 9C       		.byte	0x9c
 15588 39e5 333C0000 		.4byte	0x3c33
 15589 39e9 41       		.uleb128 0x41
 15590 39ea 16120000 		.4byte	.LASF593
 15591 39ee 01       		.byte	0x1
 15592 39ef 1301     		.2byte	0x113
 15593 39f1 75390000 		.4byte	0x3975
 15594 39f5 01       		.uleb128 0x1
 15595 39f6 50       		.byte	0x50
 15596 39f7 3C       		.uleb128 0x3c
 15597 39f8 73726300 		.ascii	"src\000"
 15598 39fc 01       		.byte	0x1
 15599 39fd 1301     		.2byte	0x113
 15600 39ff 333C0000 		.4byte	0x3c33
 15601 3a03 5E050000 		.4byte	.LLST186
 15602 3a07 3B       		.uleb128 0x3b
 15603 3a08 8D180000 		.4byte	.LASF615
 15604 3a0c 01       		.byte	0x1
 15605 3a0d 1301     		.2byte	0x113
 15606 3a0f D9000000 		.4byte	0xd9
 15607 3a13 94050000 		.4byte	.LLST187
 15608 3a17 3B       		.uleb128 0x3b
 15609 3a18 93180000 		.4byte	.LASF616
 15610 3a1c 01       		.byte	0x1
 15611 3a1d 1301     		.2byte	0x113
 15612 3a1f D9000000 		.4byte	0xd9
 15613 3a23 CB050000 		.4byte	.LLST188
 15614 3a27 3B       		.uleb128 0x3b
 15615 3a28 12150000 		.4byte	.LASF617
 15616 3a2c 01       		.byte	0x1
 15617 3a2d 1401     		.2byte	0x114
 15618 3a2f D9000000 		.4byte	0xd9
 15619 3a33 02060000 		.4byte	.LLST189
 15620 3a37 3B       		.uleb128 0x3b
 15621 3a38 17150000 		.4byte	.LASF618
 15622 3a3c 01       		.byte	0x1
 15623 3a3d 1401     		.2byte	0x114
 15624 3a3f D9000000 		.4byte	0xd9
 15625 3a43 22060000 		.4byte	.LLST190
 15626 3a47 3B       		.uleb128 0x3b
 15627 3a48 95140000 		.4byte	.LASF588
 15628 3a4c 01       		.byte	0x1
 15629 3a4d 1401     		.2byte	0x114
 15630 3a4f C9000000 		.4byte	0xc9
 15631 3a53 42060000 		.4byte	.LLST191
 15632 3a57 3B       		.uleb128 0x3b
 15633 3a58 F2010000 		.4byte	.LASF589
ARM GAS  /tmp/ccs3e2Sq.s 			page 276


 15634 3a5c 01       		.byte	0x1
 15635 3a5d 1401     		.2byte	0x114
 15636 3a5f C9000000 		.4byte	0xc9
 15637 3a63 62060000 		.4byte	.LLST192
 15638 3a67 3A       		.uleb128 0x3a
 15639 3a68 783000   		.ascii	"x0\000"
 15640 3a6b 01       		.byte	0x1
 15641 3a6c 1901     		.2byte	0x119
 15642 3a6e D9000000 		.4byte	0xd9
 15643 3a72 3A       		.uleb128 0x3a
 15644 3a73 793000   		.ascii	"y0\000"
 15645 3a76 01       		.byte	0x1
 15646 3a77 1A01     		.2byte	0x11a
 15647 3a79 D9000000 		.4byte	0xd9
 15648 3a7d 3D       		.uleb128 0x3d
 15649 3a7e F90E0000 		.4byte	.LASF619
 15650 3a82 01       		.byte	0x1
 15651 3a83 2601     		.2byte	0x126
 15652 3a85 D9000000 		.4byte	0xd9
 15653 3a89 82060000 		.4byte	.LLST193
 15654 3a8d 3D       		.uleb128 0x3d
 15655 3a8e 7C030000 		.4byte	.LASF620
 15656 3a92 01       		.byte	0x1
 15657 3a93 2701     		.2byte	0x127
 15658 3a95 D9000000 		.4byte	0xd9
 15659 3a99 A0060000 		.4byte	.LLST194
 15660 3a9d 2E       		.uleb128 0x2e
 15661 3a9e F0070000 		.4byte	.Ldebug_ranges0+0x7f0
 15662 3aa2 3E       		.uleb128 0x3e
 15663 3aa3 7900     		.ascii	"y\000"
 15664 3aa5 01       		.byte	0x1
 15665 3aa6 2A01     		.2byte	0x12a
 15666 3aa8 D9000000 		.4byte	0xd9
 15667 3aac BE060000 		.4byte	.LLST195
 15668 3ab0 2E       		.uleb128 0x2e
 15669 3ab1 20080000 		.4byte	.Ldebug_ranges0+0x820
 15670 3ab5 3D       		.uleb128 0x3d
 15671 3ab6 C0020000 		.4byte	.LASF621
 15672 3aba 01       		.byte	0x1
 15673 3abb 2F01     		.2byte	0x12f
 15674 3abd C9000000 		.4byte	0xc9
 15675 3ac1 01070000 		.4byte	.LLST196
 15676 3ac5 3D       		.uleb128 0x3d
 15677 3ac6 9C090000 		.4byte	.LASF608
 15678 3aca 01       		.byte	0x1
 15679 3acb 3401     		.2byte	0x134
 15680 3acd D9000000 		.4byte	0xd9
 15681 3ad1 2E070000 		.4byte	.LLST197
 15682 3ad5 42       		.uleb128 0x42
 15683 3ad6 38080000 		.4byte	.Ldebug_ranges0+0x838
 15684 3ada 0C3C0000 		.4byte	0x3c0c
 15685 3ade 3E       		.uleb128 0x3e
 15686 3adf 7800     		.ascii	"x\000"
 15687 3ae1 01       		.byte	0x1
 15688 3ae2 3501     		.2byte	0x135
 15689 3ae4 D9000000 		.4byte	0xd9
 15690 3ae8 50070000 		.4byte	.LLST198
ARM GAS  /tmp/ccs3e2Sq.s 			page 277


 15691 3aec 40       		.uleb128 0x40
 15692 3aed 72440000 		.4byte	0x4472
 15693 3af1 C8000000 		.4byte	.LBB749
 15694 3af5 60080000 		.4byte	.Ldebug_ranges0+0x860
 15695 3af9 01       		.byte	0x1
 15696 3afa 3601     		.2byte	0x136
 15697 3afc 3F       		.uleb128 0x3f
 15698 3afd 89440000 		.4byte	0x4489
 15699 3b01 30       		.uleb128 0x30
 15700 3b02 7E440000 		.4byte	0x447e
 15701 3b06 79070000 		.4byte	.LLST199
 15702 3b0a 2E       		.uleb128 0x2e
 15703 3b0b 60080000 		.4byte	.Ldebug_ranges0+0x860
 15704 3b0f 2F       		.uleb128 0x2f
 15705 3b10 FD450000 		.4byte	0x45fd
 15706 3b14 2F       		.uleb128 0x2f
 15707 3b15 06460000 		.4byte	0x4606
 15708 3b19 35       		.uleb128 0x35
 15709 3b1a D5440000 		.4byte	0x44d5
 15710 3b1e C8000000 		.4byte	.LBB751
 15711 3b22 98080000 		.4byte	.Ldebug_ranges0+0x898
 15712 3b26 01       		.byte	0x1
 15713 3b27 66       		.byte	0x66
 15714 3b28 993B0000 		.4byte	0x3b99
 15715 3b2c 30       		.uleb128 0x30
 15716 3b2d 00450000 		.4byte	0x4500
 15717 3b31 97070000 		.4byte	.LLST200
 15718 3b35 30       		.uleb128 0x30
 15719 3b36 F5440000 		.4byte	0x44f5
 15720 3b3a FE070000 		.4byte	.LLST201
 15721 3b3e 30       		.uleb128 0x30
 15722 3b3f EC440000 		.4byte	0x44ec
 15723 3b43 38080000 		.4byte	.LLST202
 15724 3b47 30       		.uleb128 0x30
 15725 3b48 E1440000 		.4byte	0x44e1
 15726 3b4c 61080000 		.4byte	.LLST203
 15727 3b50 2E       		.uleb128 0x2e
 15728 3b51 98080000 		.4byte	.Ldebug_ranges0+0x898
 15729 3b55 2F       		.uleb128 0x2f
 15730 3b56 0B450000 		.4byte	0x450b
 15731 3b5a 43       		.uleb128 0x43
 15732 3b5b D5440000 		.4byte	0x44d5
 15733 3b5f E8080000 		.4byte	.Ldebug_ranges0+0x8e8
 15734 3b63 30       		.uleb128 0x30
 15735 3b64 00450000 		.4byte	0x4500
 15736 3b68 74080000 		.4byte	.LLST204
 15737 3b6c 30       		.uleb128 0x30
 15738 3b6d F5440000 		.4byte	0x44f5
 15739 3b71 92080000 		.4byte	.LLST205
 15740 3b75 30       		.uleb128 0x30
 15741 3b76 EC440000 		.4byte	0x44ec
 15742 3b7a B0080000 		.4byte	.LLST206
 15743 3b7e 30       		.uleb128 0x30
 15744 3b7f E1440000 		.4byte	0x44e1
 15745 3b83 CE080000 		.4byte	.LLST207
 15746 3b87 2E       		.uleb128 0x2e
 15747 3b88 E8080000 		.4byte	.Ldebug_ranges0+0x8e8
ARM GAS  /tmp/ccs3e2Sq.s 			page 278


 15748 3b8c 44       		.uleb128 0x44
 15749 3b8d 0B450000 		.4byte	0x450b
 15750 3b91 EC080000 		.4byte	.LLST208
 15751 3b95 00       		.byte	0
 15752 3b96 00       		.byte	0
 15753 3b97 00       		.byte	0
 15754 3b98 00       		.byte	0
 15755 3b99 45       		.uleb128 0x45
 15756 3b9a D5440000 		.4byte	0x44d5
 15757 3b9e B2010000 		.4byte	.LBB773
 15758 3ba2 20090000 		.4byte	.Ldebug_ranges0+0x920
 15759 3ba6 01       		.byte	0x1
 15760 3ba7 62       		.byte	0x62
 15761 3ba8 3F       		.uleb128 0x3f
 15762 3ba9 00450000 		.4byte	0x4500
 15763 3bad 30       		.uleb128 0x30
 15764 3bae F5440000 		.4byte	0x44f5
 15765 3bb2 16090000 		.4byte	.LLST209
 15766 3bb6 30       		.uleb128 0x30
 15767 3bb7 EC440000 		.4byte	0x44ec
 15768 3bbb 3F090000 		.4byte	.LLST210
 15769 3bbf 3F       		.uleb128 0x3f
 15770 3bc0 E1440000 		.4byte	0x44e1
 15771 3bc4 2E       		.uleb128 0x2e
 15772 3bc5 20090000 		.4byte	.Ldebug_ranges0+0x920
 15773 3bc9 2F       		.uleb128 0x2f
 15774 3bca 0B450000 		.4byte	0x450b
 15775 3bce 43       		.uleb128 0x43
 15776 3bcf D5440000 		.4byte	0x44d5
 15777 3bd3 30090000 		.4byte	.Ldebug_ranges0+0x930
 15778 3bd7 3F       		.uleb128 0x3f
 15779 3bd8 00450000 		.4byte	0x4500
 15780 3bdc 30       		.uleb128 0x30
 15781 3bdd F5440000 		.4byte	0x44f5
 15782 3be1 6B090000 		.4byte	.LLST211
 15783 3be5 30       		.uleb128 0x30
 15784 3be6 EC440000 		.4byte	0x44ec
 15785 3bea 95090000 		.4byte	.LLST212
 15786 3bee 30       		.uleb128 0x30
 15787 3bef E1440000 		.4byte	0x44e1
 15788 3bf3 B5090000 		.4byte	.LLST213
 15789 3bf7 2E       		.uleb128 0x2e
 15790 3bf8 30090000 		.4byte	.Ldebug_ranges0+0x930
 15791 3bfc 44       		.uleb128 0x44
 15792 3bfd 0B450000 		.4byte	0x450b
 15793 3c01 D3090000 		.4byte	.LLST214
 15794 3c05 00       		.byte	0
 15795 3c06 00       		.byte	0
 15796 3c07 00       		.byte	0
 15797 3c08 00       		.byte	0
 15798 3c09 00       		.byte	0
 15799 3c0a 00       		.byte	0
 15800 3c0b 00       		.byte	0
 15801 3c0c 40       		.uleb128 0x40
 15802 3c0d AB440000 		.4byte	0x44ab
 15803 3c11 CE000000 		.4byte	.LBB807
 15804 3c15 50090000 		.4byte	.Ldebug_ranges0+0x950
ARM GAS  /tmp/ccs3e2Sq.s 			page 279


 15805 3c19 01       		.byte	0x1
 15806 3c1a 2C01     		.2byte	0x12c
 15807 3c1c 3F       		.uleb128 0x3f
 15808 3c1d CB440000 		.4byte	0x44cb
 15809 3c21 3F       		.uleb128 0x3f
 15810 3c22 C2440000 		.4byte	0x44c2
 15811 3c26 30       		.uleb128 0x30
 15812 3c27 B7440000 		.4byte	0x44b7
 15813 3c2b FD090000 		.4byte	.LLST215
 15814 3c2f 00       		.byte	0
 15815 3c30 00       		.byte	0
 15816 3c31 00       		.byte	0
 15817 3c32 00       		.byte	0
 15818 3c33 0C       		.uleb128 0xc
 15819 3c34 04       		.byte	0x4
 15820 3c35 BC2C0000 		.4byte	0x2cbc
 15821 3c39 46       		.uleb128 0x46
 15822 3c3a 7A180000 		.4byte	.LASF622
 15823 3c3e 01       		.byte	0x1
 15824 3c3f FB       		.byte	0xfb
 15825 3c40 00000000 		.4byte	.LFB336
 15826 3c44 A2020000 		.4byte	.LFE336-.LFB336
 15827 3c48 01       		.uleb128 0x1
 15828 3c49 9C       		.byte	0x9c
 15829 3c4a 213E0000 		.4byte	0x3e21
 15830 3c4e 47       		.uleb128 0x47
 15831 3c4f 16120000 		.4byte	.LASF593
 15832 3c53 01       		.byte	0x1
 15833 3c54 FB       		.byte	0xfb
 15834 3c55 75390000 		.4byte	0x3975
 15835 3c59 01       		.uleb128 0x1
 15836 3c5a 50       		.byte	0x50
 15837 3c5b 48       		.uleb128 0x48
 15838 3c5c 783000   		.ascii	"x0\000"
 15839 3c5f 01       		.byte	0x1
 15840 3c60 FB       		.byte	0xfb
 15841 3c61 D9000000 		.4byte	0xd9
 15842 3c65 100A0000 		.4byte	.LLST160
 15843 3c69 48       		.uleb128 0x48
 15844 3c6a 793000   		.ascii	"y0\000"
 15845 3c6d 01       		.byte	0x1
 15846 3c6e FB       		.byte	0xfb
 15847 3c6f D9000000 		.4byte	0xd9
 15848 3c73 2E0A0000 		.4byte	.LLST161
 15849 3c77 48       		.uleb128 0x48
 15850 3c78 783100   		.ascii	"x1\000"
 15851 3c7b 01       		.byte	0x1
 15852 3c7c FB       		.byte	0xfb
 15853 3c7d D9000000 		.4byte	0xd9
 15854 3c81 640A0000 		.4byte	.LLST162
 15855 3c85 48       		.uleb128 0x48
 15856 3c86 793100   		.ascii	"y1\000"
 15857 3c89 01       		.byte	0x1
 15858 3c8a FB       		.byte	0xfb
 15859 3c8b D9000000 		.4byte	0xd9
 15860 3c8f 820A0000 		.4byte	.LLST163
 15861 3c93 2E       		.uleb128 0x2e
ARM GAS  /tmp/ccs3e2Sq.s 			page 280


 15862 3c94 A8060000 		.4byte	.Ldebug_ranges0+0x6a8
 15863 3c98 3E       		.uleb128 0x3e
 15864 3c99 7900     		.ascii	"y\000"
 15865 3c9b 01       		.byte	0x1
 15866 3c9c 0601     		.2byte	0x106
 15867 3c9e D9000000 		.4byte	0xd9
 15868 3ca2 A10A0000 		.4byte	.LLST164
 15869 3ca6 2E       		.uleb128 0x2e
 15870 3ca7 C0060000 		.4byte	.Ldebug_ranges0+0x6c0
 15871 3cab 3D       		.uleb128 0x3d
 15872 3cac 4D0C0000 		.4byte	.LASF623
 15873 3cb0 01       		.byte	0x1
 15874 3cb1 0801     		.2byte	0x108
 15875 3cb3 C9000000 		.4byte	0xc9
 15876 3cb7 BF0A0000 		.4byte	.LLST165
 15877 3cbb 42       		.uleb128 0x42
 15878 3cbc D8060000 		.4byte	.Ldebug_ranges0+0x6d8
 15879 3cc0 F23D0000 		.4byte	0x3df2
 15880 3cc4 3E       		.uleb128 0x3e
 15881 3cc5 7800     		.ascii	"x\000"
 15882 3cc7 01       		.byte	0x1
 15883 3cc8 0E01     		.2byte	0x10e
 15884 3cca D9000000 		.4byte	0xd9
 15885 3cce EA0A0000 		.4byte	.LLST166
 15886 3cd2 40       		.uleb128 0x40
 15887 3cd3 72440000 		.4byte	0x4472
 15888 3cd7 56000000 		.4byte	.LBB669
 15889 3cdb F8060000 		.4byte	.Ldebug_ranges0+0x6f8
 15890 3cdf 01       		.byte	0x1
 15891 3ce0 0F01     		.2byte	0x10f
 15892 3ce2 3F       		.uleb128 0x3f
 15893 3ce3 89440000 		.4byte	0x4489
 15894 3ce7 30       		.uleb128 0x30
 15895 3ce8 7E440000 		.4byte	0x447e
 15896 3cec 1E0B0000 		.4byte	.LLST167
 15897 3cf0 2E       		.uleb128 0x2e
 15898 3cf1 F8060000 		.4byte	.Ldebug_ranges0+0x6f8
 15899 3cf5 2F       		.uleb128 0x2f
 15900 3cf6 FD450000 		.4byte	0x45fd
 15901 3cfa 2F       		.uleb128 0x2f
 15902 3cfb 06460000 		.4byte	0x4606
 15903 3cff 35       		.uleb128 0x35
 15904 3d00 D5440000 		.4byte	0x44d5
 15905 3d04 56000000 		.4byte	.LBB671
 15906 3d08 20070000 		.4byte	.Ldebug_ranges0+0x720
 15907 3d0c 01       		.byte	0x1
 15908 3d0d 66       		.byte	0x66
 15909 3d0e 7F3D0000 		.4byte	0x3d7f
 15910 3d12 30       		.uleb128 0x30
 15911 3d13 00450000 		.4byte	0x4500
 15912 3d17 3C0B0000 		.4byte	.LLST168
 15913 3d1b 30       		.uleb128 0x30
 15914 3d1c F5440000 		.4byte	0x44f5
 15915 3d20 A50B0000 		.4byte	.LLST169
 15916 3d24 30       		.uleb128 0x30
 15917 3d25 EC440000 		.4byte	0x44ec
 15918 3d29 DB0B0000 		.4byte	.LLST170
ARM GAS  /tmp/ccs3e2Sq.s 			page 281


 15919 3d2d 30       		.uleb128 0x30
 15920 3d2e E1440000 		.4byte	0x44e1
 15921 3d32 040C0000 		.4byte	.LLST171
 15922 3d36 2E       		.uleb128 0x2e
 15923 3d37 20070000 		.4byte	.Ldebug_ranges0+0x720
 15924 3d3b 2F       		.uleb128 0x2f
 15925 3d3c 0B450000 		.4byte	0x450b
 15926 3d40 43       		.uleb128 0x43
 15927 3d41 D5440000 		.4byte	0x44d5
 15928 3d45 70070000 		.4byte	.Ldebug_ranges0+0x770
 15929 3d49 30       		.uleb128 0x30
 15930 3d4a 00450000 		.4byte	0x4500
 15931 3d4e 170C0000 		.4byte	.LLST172
 15932 3d52 30       		.uleb128 0x30
 15933 3d53 F5440000 		.4byte	0x44f5
 15934 3d57 350C0000 		.4byte	.LLST173
 15935 3d5b 30       		.uleb128 0x30
 15936 3d5c EC440000 		.4byte	0x44ec
 15937 3d60 530C0000 		.4byte	.LLST174
 15938 3d64 30       		.uleb128 0x30
 15939 3d65 E1440000 		.4byte	0x44e1
 15940 3d69 710C0000 		.4byte	.LLST175
 15941 3d6d 2E       		.uleb128 0x2e
 15942 3d6e 70070000 		.4byte	.Ldebug_ranges0+0x770
 15943 3d72 44       		.uleb128 0x44
 15944 3d73 0B450000 		.4byte	0x450b
 15945 3d77 8F0C0000 		.4byte	.LLST176
 15946 3d7b 00       		.byte	0
 15947 3d7c 00       		.byte	0
 15948 3d7d 00       		.byte	0
 15949 3d7e 00       		.byte	0
 15950 3d7f 45       		.uleb128 0x45
 15951 3d80 D5440000 		.4byte	0x44d5
 15952 3d84 22010000 		.4byte	.LBB693
 15953 3d88 A8070000 		.4byte	.Ldebug_ranges0+0x7a8
 15954 3d8c 01       		.byte	0x1
 15955 3d8d 62       		.byte	0x62
 15956 3d8e 3F       		.uleb128 0x3f
 15957 3d8f 00450000 		.4byte	0x4500
 15958 3d93 30       		.uleb128 0x30
 15959 3d94 F5440000 		.4byte	0x44f5
 15960 3d98 A30C0000 		.4byte	.LLST177
 15961 3d9c 30       		.uleb128 0x30
 15962 3d9d EC440000 		.4byte	0x44ec
 15963 3da1 D70C0000 		.4byte	.LLST178
 15964 3da5 3F       		.uleb128 0x3f
 15965 3da6 E1440000 		.4byte	0x44e1
 15966 3daa 2E       		.uleb128 0x2e
 15967 3dab A8070000 		.4byte	.Ldebug_ranges0+0x7a8
 15968 3daf 2F       		.uleb128 0x2f
 15969 3db0 0B450000 		.4byte	0x450b
 15970 3db4 43       		.uleb128 0x43
 15971 3db5 D5440000 		.4byte	0x44d5
 15972 3db9 B8070000 		.4byte	.Ldebug_ranges0+0x7b8
 15973 3dbd 3F       		.uleb128 0x3f
 15974 3dbe 00450000 		.4byte	0x4500
 15975 3dc2 30       		.uleb128 0x30
ARM GAS  /tmp/ccs3e2Sq.s 			page 282


 15976 3dc3 F5440000 		.4byte	0x44f5
 15977 3dc7 030D0000 		.4byte	.LLST179
 15978 3dcb 30       		.uleb128 0x30
 15979 3dcc EC440000 		.4byte	0x44ec
 15980 3dd0 2C0D0000 		.4byte	.LLST180
 15981 3dd4 30       		.uleb128 0x30
 15982 3dd5 E1440000 		.4byte	0x44e1
 15983 3dd9 4C0D0000 		.4byte	.LLST181
 15984 3ddd 2E       		.uleb128 0x2e
 15985 3dde B8070000 		.4byte	.Ldebug_ranges0+0x7b8
 15986 3de2 44       		.uleb128 0x44
 15987 3de3 0B450000 		.4byte	0x450b
 15988 3de7 6A0D0000 		.4byte	.LLST182
 15989 3deb 00       		.byte	0
 15990 3dec 00       		.byte	0
 15991 3ded 00       		.byte	0
 15992 3dee 00       		.byte	0
 15993 3def 00       		.byte	0
 15994 3df0 00       		.byte	0
 15995 3df1 00       		.byte	0
 15996 3df2 40       		.uleb128 0x40
 15997 3df3 AB440000 		.4byte	0x44ab
 15998 3df7 5C000000 		.4byte	.LBB723
 15999 3dfb D8070000 		.4byte	.Ldebug_ranges0+0x7d8
 16000 3dff 01       		.byte	0x1
 16001 3e00 0901     		.2byte	0x109
 16002 3e02 30       		.uleb128 0x30
 16003 3e03 CB440000 		.4byte	0x44cb
 16004 3e07 7E0D0000 		.4byte	.LLST183
 16005 3e0b 30       		.uleb128 0x30
 16006 3e0c C2440000 		.4byte	0x44c2
 16007 3e10 910D0000 		.4byte	.LLST184
 16008 3e14 30       		.uleb128 0x30
 16009 3e15 B7440000 		.4byte	0x44b7
 16010 3e19 A40D0000 		.4byte	.LLST185
 16011 3e1d 00       		.byte	0
 16012 3e1e 00       		.byte	0
 16013 3e1f 00       		.byte	0
 16014 3e20 00       		.byte	0
 16015 3e21 46       		.uleb128 0x46
 16016 3e22 85120000 		.4byte	.LASF624
 16017 3e26 01       		.byte	0x1
 16018 3e27 8E       		.byte	0x8e
 16019 3e28 00000000 		.4byte	.LFB335
 16020 3e2c F2070000 		.4byte	.LFE335-.LFB335
 16021 3e30 01       		.uleb128 0x1
 16022 3e31 9C       		.byte	0x9c
 16023 3e32 EE430000 		.4byte	0x43ee
 16024 3e36 49       		.uleb128 0x49
 16025 3e37 16120000 		.4byte	.LASF593
 16026 3e3b 01       		.byte	0x1
 16027 3e3c 8E       		.byte	0x8e
 16028 3e3d 75390000 		.4byte	0x3975
 16029 3e41 B70D0000 		.4byte	.LLST88
 16030 3e45 48       		.uleb128 0x48
 16031 3e46 7800     		.ascii	"x\000"
 16032 3e48 01       		.byte	0x1
ARM GAS  /tmp/ccs3e2Sq.s 			page 283


 16033 3e49 8E       		.byte	0x8e
 16034 3e4a E4000000 		.4byte	0xe4
 16035 3e4e D50D0000 		.4byte	.LLST89
 16036 3e52 48       		.uleb128 0x48
 16037 3e53 7900     		.ascii	"y\000"
 16038 3e55 01       		.byte	0x1
 16039 3e56 8E       		.byte	0x8e
 16040 3e57 E4000000 		.4byte	0xe4
 16041 3e5b F60D0000 		.4byte	.LLST90
 16042 3e5f 49       		.uleb128 0x49
 16043 3e60 95140000 		.4byte	.LASF588
 16044 3e64 01       		.byte	0x1
 16045 3e65 8E       		.byte	0x8e
 16046 3e66 D4000000 		.4byte	0xd4
 16047 3e6a 170E0000 		.4byte	.LLST91
 16048 3e6e 49       		.uleb128 0x49
 16049 3e6f F2010000 		.4byte	.LASF589
 16050 3e73 01       		.byte	0x1
 16051 3e74 8F       		.byte	0x8f
 16052 3e75 D4000000 		.4byte	0xd4
 16053 3e79 380E0000 		.4byte	.LLST92
 16054 3e7d 48       		.uleb128 0x48
 16055 3e7e 73747200 		.ascii	"str\000"
 16056 3e82 01       		.byte	0x1
 16057 3e83 8F       		.byte	0x8f
 16058 3e84 190E0000 		.4byte	0xe19
 16059 3e88 580E0000 		.4byte	.LLST93
 16060 3e8c 49       		.uleb128 0x49
 16061 3e8d E7080000 		.4byte	.LASF171
 16062 3e91 01       		.byte	0x1
 16063 3e92 8F       		.byte	0x8f
 16064 3e93 DF2B0000 		.4byte	0x2bdf
 16065 3e97 F10E0000 		.4byte	.LLST94
 16066 3e9b 49       		.uleb128 0x49
 16067 3e9c 20110000 		.4byte	.LASF625
 16068 3ea0 01       		.byte	0x1
 16069 3ea1 8F       		.byte	0x8f
 16070 3ea2 00100000 		.4byte	0x1000
 16071 3ea6 110F0000 		.4byte	.LLST95
 16072 3eaa 4A       		.uleb128 0x4a
 16073 3eab 647800   		.ascii	"dx\000"
 16074 3eae 01       		.byte	0x1
 16075 3eaf 91       		.byte	0x91
 16076 3eb0 C9000000 		.4byte	0xc9
 16077 3eb4 310F0000 		.4byte	.LLST96
 16078 3eb8 4A       		.uleb128 0x4a
 16079 3eb9 647900   		.ascii	"dy\000"
 16080 3ebc 01       		.byte	0x1
 16081 3ebd 91       		.byte	0x91
 16082 3ebe C9000000 		.4byte	0xc9
 16083 3ec2 FA0F0000 		.4byte	.LLST97
 16084 3ec6 4B       		.uleb128 0x4b
 16085 3ec7 B10E0000 		.4byte	.LASF626
 16086 3ecb 01       		.byte	0x1
 16087 3ecc 92       		.byte	0x92
 16088 3ecd C9000000 		.4byte	0xc9
 16089 3ed1 03       		.uleb128 0x3
ARM GAS  /tmp/ccs3e2Sq.s 			page 284


 16090 3ed2 91       		.byte	0x91
 16091 3ed3 847F     		.sleb128 -124
 16092 3ed5 2E       		.uleb128 0x2e
 16093 3ed6 78030000 		.4byte	.Ldebug_ranges0+0x378
 16094 3eda 4C       		.uleb128 0x4c
 16095 3edb 810E0000 		.4byte	.LASF627
 16096 3edf 01       		.byte	0x1
 16097 3ee0 9C       		.byte	0x9c
 16098 3ee1 C9000000 		.4byte	0xc9
 16099 3ee5 72100000 		.4byte	.LLST98
 16100 3ee9 4C       		.uleb128 0x4c
 16101 3eea 96060000 		.4byte	.LASF628
 16102 3eee 01       		.byte	0x1
 16103 3eef 9D       		.byte	0x9d
 16104 3ef0 C9000000 		.4byte	0xc9
 16105 3ef4 B2100000 		.4byte	.LLST99
 16106 3ef8 36       		.uleb128 0x36
 16107 3ef9 EE430000 		.4byte	0x43ee
 16108 3efd 60000000 		.4byte	.LBB436
 16109 3f01 0C000000 		.4byte	.LBE436-.LBB436
 16110 3f05 01       		.byte	0x1
 16111 3f06 9F       		.byte	0x9f
 16112 3f07 153F0000 		.4byte	0x3f15
 16113 3f0b 30       		.uleb128 0x30
 16114 3f0c FE430000 		.4byte	0x43fe
 16115 3f10 1D110000 		.4byte	.LLST100
 16116 3f14 00       		.byte	0
 16117 3f15 35       		.uleb128 0x35
 16118 3f16 0A440000 		.4byte	0x440a
 16119 3f1a AE000000 		.4byte	.LBB438
 16120 3f1e 90030000 		.4byte	.Ldebug_ranges0+0x390
 16121 3f22 01       		.byte	0x1
 16122 3f23 BF       		.byte	0xbf
 16123 3f24 4F430000 		.4byte	0x434f
 16124 3f28 3F       		.uleb128 0x3f
 16125 3f29 49440000 		.4byte	0x4449
 16126 3f2d 30       		.uleb128 0x30
 16127 3f2e 3E440000 		.4byte	0x443e
 16128 3f32 30110000 		.4byte	.LLST101
 16129 3f36 30       		.uleb128 0x30
 16130 3f37 33440000 		.4byte	0x4433
 16131 3f3b 5F110000 		.4byte	.LLST102
 16132 3f3f 30       		.uleb128 0x30
 16133 3f40 2A440000 		.4byte	0x442a
 16134 3f44 8B110000 		.4byte	.LLST103
 16135 3f48 30       		.uleb128 0x30
 16136 3f49 21440000 		.4byte	0x4421
 16137 3f4d BA110000 		.4byte	.LLST104
 16138 3f51 3F       		.uleb128 0x3f
 16139 3f52 16440000 		.4byte	0x4416
 16140 3f56 2E       		.uleb128 0x2e
 16141 3f57 90030000 		.4byte	.Ldebug_ranges0+0x390
 16142 3f5b 2F       		.uleb128 0x2f
 16143 3f5c 4B470000 		.4byte	0x474b
 16144 3f60 2F       		.uleb128 0x2f
 16145 3f61 54470000 		.4byte	0x4754
 16146 3f65 2F       		.uleb128 0x2f
ARM GAS  /tmp/ccs3e2Sq.s 			page 285


 16147 3f66 5D470000 		.4byte	0x475d
 16148 3f6a 35       		.uleb128 0x35
 16149 3f6b AB440000 		.4byte	0x44ab
 16150 3f6f 32010000 		.4byte	.LBB440
 16151 3f73 E8030000 		.4byte	.Ldebug_ranges0+0x3e8
 16152 3f77 01       		.byte	0x1
 16153 3f78 76       		.byte	0x76
 16154 3f79 953F0000 		.4byte	0x3f95
 16155 3f7d 3F       		.uleb128 0x3f
 16156 3f7e CB440000 		.4byte	0x44cb
 16157 3f82 30       		.uleb128 0x30
 16158 3f83 C2440000 		.4byte	0x44c2
 16159 3f87 85120000 		.4byte	.LLST105
 16160 3f8b 30       		.uleb128 0x30
 16161 3f8c B7440000 		.4byte	0x44b7
 16162 3f90 98120000 		.4byte	.LLST106
 16163 3f94 00       		.byte	0
 16164 3f95 35       		.uleb128 0x35
 16165 3f96 72440000 		.4byte	0x4472
 16166 3f9a 42010000 		.4byte	.LBB444
 16167 3f9e 00040000 		.4byte	.Ldebug_ranges0+0x400
 16168 3fa2 01       		.byte	0x1
 16169 3fa3 78       		.byte	0x78
 16170 3fa4 B7400000 		.4byte	0x40b7
 16171 3fa8 3F       		.uleb128 0x3f
 16172 3fa9 89440000 		.4byte	0x4489
 16173 3fad 30       		.uleb128 0x30
 16174 3fae 7E440000 		.4byte	0x447e
 16175 3fb2 AB120000 		.4byte	.LLST107
 16176 3fb6 2E       		.uleb128 0x2e
 16177 3fb7 00040000 		.4byte	.Ldebug_ranges0+0x400
 16178 3fbb 2F       		.uleb128 0x2f
 16179 3fbc FD450000 		.4byte	0x45fd
 16180 3fc0 2F       		.uleb128 0x2f
 16181 3fc1 06460000 		.4byte	0x4606
 16182 3fc5 35       		.uleb128 0x35
 16183 3fc6 D5440000 		.4byte	0x44d5
 16184 3fca DC010000 		.4byte	.LBB446
 16185 3fce 48040000 		.4byte	.Ldebug_ranges0+0x448
 16186 3fd2 01       		.byte	0x1
 16187 3fd3 62       		.byte	0x62
 16188 3fd4 39400000 		.4byte	0x4039
 16189 3fd8 3F       		.uleb128 0x3f
 16190 3fd9 00450000 		.4byte	0x4500
 16191 3fdd 30       		.uleb128 0x30
 16192 3fde F5440000 		.4byte	0x44f5
 16193 3fe2 EA120000 		.4byte	.LLST108
 16194 3fe6 30       		.uleb128 0x30
 16195 3fe7 EC440000 		.4byte	0x44ec
 16196 3feb 13130000 		.4byte	.LLST109
 16197 3fef 3F       		.uleb128 0x3f
 16198 3ff0 E1440000 		.4byte	0x44e1
 16199 3ff4 2E       		.uleb128 0x2e
 16200 3ff5 48040000 		.4byte	.Ldebug_ranges0+0x448
 16201 3ff9 2F       		.uleb128 0x2f
 16202 3ffa 0B450000 		.4byte	0x450b
 16203 3ffe 43       		.uleb128 0x43
ARM GAS  /tmp/ccs3e2Sq.s 			page 286


 16204 3fff D5440000 		.4byte	0x44d5
 16205 4003 58040000 		.4byte	.Ldebug_ranges0+0x458
 16206 4007 3F       		.uleb128 0x3f
 16207 4008 00450000 		.4byte	0x4500
 16208 400c 30       		.uleb128 0x30
 16209 400d F5440000 		.4byte	0x44f5
 16210 4011 3F130000 		.4byte	.LLST110
 16211 4015 30       		.uleb128 0x30
 16212 4016 EC440000 		.4byte	0x44ec
 16213 401a 69130000 		.4byte	.LLST111
 16214 401e 30       		.uleb128 0x30
 16215 401f E1440000 		.4byte	0x44e1
 16216 4023 89130000 		.4byte	.LLST112
 16217 4027 2E       		.uleb128 0x2e
 16218 4028 58040000 		.4byte	.Ldebug_ranges0+0x458
 16219 402c 44       		.uleb128 0x44
 16220 402d 0B450000 		.4byte	0x450b
 16221 4031 A7130000 		.4byte	.LLST113
 16222 4035 00       		.byte	0
 16223 4036 00       		.byte	0
 16224 4037 00       		.byte	0
 16225 4038 00       		.byte	0
 16226 4039 45       		.uleb128 0x45
 16227 403a D5440000 		.4byte	0x44d5
 16228 403e 20050000 		.4byte	.LBB461
 16229 4042 78040000 		.4byte	.Ldebug_ranges0+0x478
 16230 4046 01       		.byte	0x1
 16231 4047 66       		.byte	0x66
 16232 4048 30       		.uleb128 0x30
 16233 4049 00450000 		.4byte	0x4500
 16234 404d BB130000 		.4byte	.LLST114
 16235 4051 30       		.uleb128 0x30
 16236 4052 F5440000 		.4byte	0x44f5
 16237 4056 24140000 		.4byte	.LLST115
 16238 405a 30       		.uleb128 0x30
 16239 405b EC440000 		.4byte	0x44ec
 16240 405f 5E140000 		.4byte	.LLST116
 16241 4063 30       		.uleb128 0x30
 16242 4064 E1440000 		.4byte	0x44e1
 16243 4068 87140000 		.4byte	.LLST117
 16244 406c 2E       		.uleb128 0x2e
 16245 406d 78040000 		.4byte	.Ldebug_ranges0+0x478
 16246 4071 2F       		.uleb128 0x2f
 16247 4072 0B450000 		.4byte	0x450b
 16248 4076 43       		.uleb128 0x43
 16249 4077 D5440000 		.4byte	0x44d5
 16250 407b B8040000 		.4byte	.Ldebug_ranges0+0x4b8
 16251 407f 30       		.uleb128 0x30
 16252 4080 00450000 		.4byte	0x4500
 16253 4084 9A140000 		.4byte	.LLST118
 16254 4088 30       		.uleb128 0x30
 16255 4089 F5440000 		.4byte	0x44f5
 16256 408d C3140000 		.4byte	.LLST119
 16257 4091 30       		.uleb128 0x30
 16258 4092 EC440000 		.4byte	0x44ec
 16259 4096 EC140000 		.4byte	.LLST120
 16260 409a 30       		.uleb128 0x30
ARM GAS  /tmp/ccs3e2Sq.s 			page 287


 16261 409b E1440000 		.4byte	0x44e1
 16262 409f 15150000 		.4byte	.LLST121
 16263 40a3 2E       		.uleb128 0x2e
 16264 40a4 B8040000 		.4byte	.Ldebug_ranges0+0x4b8
 16265 40a8 44       		.uleb128 0x44
 16266 40a9 0B450000 		.4byte	0x450b
 16267 40ad 33150000 		.4byte	.LLST122
 16268 40b1 00       		.byte	0
 16269 40b2 00       		.byte	0
 16270 40b3 00       		.byte	0
 16271 40b4 00       		.byte	0
 16272 40b5 00       		.byte	0
 16273 40b6 00       		.byte	0
 16274 40b7 35       		.uleb128 0x35
 16275 40b8 AB440000 		.4byte	0x44ab
 16276 40bc 04020000 		.4byte	.LBB496
 16277 40c0 E8040000 		.4byte	.Ldebug_ranges0+0x4e8
 16278 40c4 01       		.byte	0x1
 16279 40c5 7D       		.byte	0x7d
 16280 40c6 E2400000 		.4byte	0x40e2
 16281 40ca 3F       		.uleb128 0x3f
 16282 40cb CB440000 		.4byte	0x44cb
 16283 40cf 30       		.uleb128 0x30
 16284 40d0 C2440000 		.4byte	0x44c2
 16285 40d4 5D150000 		.4byte	.LLST123
 16286 40d8 30       		.uleb128 0x30
 16287 40d9 B7440000 		.4byte	0x44b7
 16288 40dd 70150000 		.4byte	.LLST124
 16289 40e1 00       		.byte	0
 16290 40e2 35       		.uleb128 0x35
 16291 40e3 72440000 		.4byte	0x4472
 16292 40e7 0C020000 		.4byte	.LBB500
 16293 40eb 00050000 		.4byte	.Ldebug_ranges0+0x500
 16294 40ef 01       		.byte	0x1
 16295 40f0 7F       		.byte	0x7f
 16296 40f1 04420000 		.4byte	0x4204
 16297 40f5 3F       		.uleb128 0x3f
 16298 40f6 89440000 		.4byte	0x4489
 16299 40fa 30       		.uleb128 0x30
 16300 40fb 7E440000 		.4byte	0x447e
 16301 40ff 83150000 		.4byte	.LLST125
 16302 4103 2E       		.uleb128 0x2e
 16303 4104 00050000 		.4byte	.Ldebug_ranges0+0x500
 16304 4108 2F       		.uleb128 0x2f
 16305 4109 FD450000 		.4byte	0x45fd
 16306 410d 2F       		.uleb128 0x2f
 16307 410e 06460000 		.4byte	0x4606
 16308 4112 35       		.uleb128 0x35
 16309 4113 D5440000 		.4byte	0x44d5
 16310 4117 A0020000 		.4byte	.LBB502
 16311 411b 48050000 		.4byte	.Ldebug_ranges0+0x548
 16312 411f 01       		.byte	0x1
 16313 4120 62       		.byte	0x62
 16314 4121 86410000 		.4byte	0x4186
 16315 4125 3F       		.uleb128 0x3f
 16316 4126 00450000 		.4byte	0x4500
 16317 412a 30       		.uleb128 0x30
ARM GAS  /tmp/ccs3e2Sq.s 			page 288


 16318 412b F5440000 		.4byte	0x44f5
 16319 412f C2150000 		.4byte	.LLST126
 16320 4133 30       		.uleb128 0x30
 16321 4134 EC440000 		.4byte	0x44ec
 16322 4138 F7150000 		.4byte	.LLST127
 16323 413c 3F       		.uleb128 0x3f
 16324 413d E1440000 		.4byte	0x44e1
 16325 4141 2E       		.uleb128 0x2e
 16326 4142 48050000 		.4byte	.Ldebug_ranges0+0x548
 16327 4146 2F       		.uleb128 0x2f
 16328 4147 0B450000 		.4byte	0x450b
 16329 414b 43       		.uleb128 0x43
 16330 414c D5440000 		.4byte	0x44d5
 16331 4150 58050000 		.4byte	.Ldebug_ranges0+0x558
 16332 4154 3F       		.uleb128 0x3f
 16333 4155 00450000 		.4byte	0x4500
 16334 4159 30       		.uleb128 0x30
 16335 415a F5440000 		.4byte	0x44f5
 16336 415e 23160000 		.4byte	.LLST128
 16337 4162 30       		.uleb128 0x30
 16338 4163 EC440000 		.4byte	0x44ec
 16339 4167 4D160000 		.4byte	.LLST129
 16340 416b 30       		.uleb128 0x30
 16341 416c E1440000 		.4byte	0x44e1
 16342 4170 6D160000 		.4byte	.LLST130
 16343 4174 2E       		.uleb128 0x2e
 16344 4175 58050000 		.4byte	.Ldebug_ranges0+0x558
 16345 4179 44       		.uleb128 0x44
 16346 417a 0B450000 		.4byte	0x450b
 16347 417e 8B160000 		.4byte	.LLST131
 16348 4182 00       		.byte	0
 16349 4183 00       		.byte	0
 16350 4184 00       		.byte	0
 16351 4185 00       		.byte	0
 16352 4186 45       		.uleb128 0x45
 16353 4187 D5440000 		.4byte	0x44d5
 16354 418b BC020000 		.4byte	.LBB515
 16355 418f 78050000 		.4byte	.Ldebug_ranges0+0x578
 16356 4193 01       		.byte	0x1
 16357 4194 66       		.byte	0x66
 16358 4195 30       		.uleb128 0x30
 16359 4196 00450000 		.4byte	0x4500
 16360 419a AD160000 		.4byte	.LLST132
 16361 419e 30       		.uleb128 0x30
 16362 419f F5440000 		.4byte	0x44f5
 16363 41a3 23170000 		.4byte	.LLST133
 16364 41a7 30       		.uleb128 0x30
 16365 41a8 EC440000 		.4byte	0x44ec
 16366 41ac 68170000 		.4byte	.LLST134
 16367 41b0 30       		.uleb128 0x30
 16368 41b1 E1440000 		.4byte	0x44e1
 16369 41b5 9C170000 		.4byte	.LLST135
 16370 41b9 2E       		.uleb128 0x2e
 16371 41ba 78050000 		.4byte	.Ldebug_ranges0+0x578
 16372 41be 2F       		.uleb128 0x2f
 16373 41bf 0B450000 		.4byte	0x450b
 16374 41c3 43       		.uleb128 0x43
ARM GAS  /tmp/ccs3e2Sq.s 			page 289


 16375 41c4 D5440000 		.4byte	0x44d5
 16376 41c8 90050000 		.4byte	.Ldebug_ranges0+0x590
 16377 41cc 30       		.uleb128 0x30
 16378 41cd 00450000 		.4byte	0x4500
 16379 41d1 AF170000 		.4byte	.LLST136
 16380 41d5 30       		.uleb128 0x30
 16381 41d6 F5440000 		.4byte	0x44f5
 16382 41da DB170000 		.4byte	.LLST137
 16383 41de 30       		.uleb128 0x30
 16384 41df EC440000 		.4byte	0x44ec
 16385 41e3 04180000 		.4byte	.LLST138
 16386 41e7 30       		.uleb128 0x30
 16387 41e8 E1440000 		.4byte	0x44e1
 16388 41ec 2D180000 		.4byte	.LLST139
 16389 41f0 2E       		.uleb128 0x2e
 16390 41f1 90050000 		.4byte	.Ldebug_ranges0+0x590
 16391 41f5 44       		.uleb128 0x44
 16392 41f6 0B450000 		.4byte	0x450b
 16393 41fa 4B180000 		.4byte	.LLST140
 16394 41fe 00       		.byte	0
 16395 41ff 00       		.byte	0
 16396 4200 00       		.byte	0
 16397 4201 00       		.byte	0
 16398 4202 00       		.byte	0
 16399 4203 00       		.byte	0
 16400 4204 35       		.uleb128 0x35
 16401 4205 AB440000 		.4byte	0x44ab
 16402 4209 72030000 		.4byte	.LBB554
 16403 420d C0050000 		.4byte	.Ldebug_ranges0+0x5c0
 16404 4211 01       		.byte	0x1
 16405 4212 82       		.byte	0x82
 16406 4213 2F420000 		.4byte	0x422f
 16407 4217 3F       		.uleb128 0x3f
 16408 4218 CB440000 		.4byte	0x44cb
 16409 421c 30       		.uleb128 0x30
 16410 421d C2440000 		.4byte	0x44c2
 16411 4221 69180000 		.4byte	.LLST141
 16412 4225 30       		.uleb128 0x30
 16413 4226 B7440000 		.4byte	0x44b7
 16414 422a 7C180000 		.4byte	.LLST142
 16415 422e 00       		.byte	0
 16416 422f 45       		.uleb128 0x45
 16417 4230 72440000 		.4byte	0x4472
 16418 4234 80030000 		.4byte	.LBB557
 16419 4238 D8050000 		.4byte	.Ldebug_ranges0+0x5d8
 16420 423c 01       		.byte	0x1
 16421 423d 84       		.byte	0x84
 16422 423e 3F       		.uleb128 0x3f
 16423 423f 89440000 		.4byte	0x4489
 16424 4243 30       		.uleb128 0x30
 16425 4244 7E440000 		.4byte	0x447e
 16426 4248 8F180000 		.4byte	.LLST143
 16427 424c 2E       		.uleb128 0x2e
 16428 424d D8050000 		.4byte	.Ldebug_ranges0+0x5d8
 16429 4251 2F       		.uleb128 0x2f
 16430 4252 FD450000 		.4byte	0x45fd
 16431 4256 2F       		.uleb128 0x2f
ARM GAS  /tmp/ccs3e2Sq.s 			page 290


 16432 4257 06460000 		.4byte	0x4606
 16433 425b 35       		.uleb128 0x35
 16434 425c D5440000 		.4byte	0x44d5
 16435 4260 12040000 		.4byte	.LBB559
 16436 4264 28060000 		.4byte	.Ldebug_ranges0+0x628
 16437 4268 01       		.byte	0x1
 16438 4269 62       		.byte	0x62
 16439 426a CF420000 		.4byte	0x42cf
 16440 426e 3F       		.uleb128 0x3f
 16441 426f 00450000 		.4byte	0x4500
 16442 4273 30       		.uleb128 0x30
 16443 4274 F5440000 		.4byte	0x44f5
 16444 4278 CE180000 		.4byte	.LLST144
 16445 427c 30       		.uleb128 0x30
 16446 427d EC440000 		.4byte	0x44ec
 16447 4281 F7180000 		.4byte	.LLST145
 16448 4285 3F       		.uleb128 0x3f
 16449 4286 E1440000 		.4byte	0x44e1
 16450 428a 2E       		.uleb128 0x2e
 16451 428b 28060000 		.4byte	.Ldebug_ranges0+0x628
 16452 428f 2F       		.uleb128 0x2f
 16453 4290 0B450000 		.4byte	0x450b
 16454 4294 43       		.uleb128 0x43
 16455 4295 D5440000 		.4byte	0x44d5
 16456 4299 38060000 		.4byte	.Ldebug_ranges0+0x638
 16457 429d 3F       		.uleb128 0x3f
 16458 429e 00450000 		.4byte	0x4500
 16459 42a2 30       		.uleb128 0x30
 16460 42a3 F5440000 		.4byte	0x44f5
 16461 42a7 23190000 		.4byte	.LLST146
 16462 42ab 30       		.uleb128 0x30
 16463 42ac EC440000 		.4byte	0x44ec
 16464 42b0 4D190000 		.4byte	.LLST147
 16465 42b4 30       		.uleb128 0x30
 16466 42b5 E1440000 		.4byte	0x44e1
 16467 42b9 6D190000 		.4byte	.LLST148
 16468 42bd 2E       		.uleb128 0x2e
 16469 42be 38060000 		.4byte	.Ldebug_ranges0+0x638
 16470 42c2 44       		.uleb128 0x44
 16471 42c3 0B450000 		.4byte	0x450b
 16472 42c7 8B190000 		.4byte	.LLST149
 16473 42cb 00       		.byte	0
 16474 42cc 00       		.byte	0
 16475 42cd 00       		.byte	0
 16476 42ce 00       		.byte	0
 16477 42cf 45       		.uleb128 0x45
 16478 42d0 D5440000 		.4byte	0x44d5
 16479 42d4 2E040000 		.4byte	.LBB575
 16480 42d8 60060000 		.4byte	.Ldebug_ranges0+0x660
 16481 42dc 01       		.byte	0x1
 16482 42dd 66       		.byte	0x66
 16483 42de 30       		.uleb128 0x30
 16484 42df 00450000 		.4byte	0x4500
 16485 42e3 B4190000 		.4byte	.LLST150
 16486 42e7 30       		.uleb128 0x30
 16487 42e8 F5440000 		.4byte	0x44f5
 16488 42ec 2C1A0000 		.4byte	.LLST151
ARM GAS  /tmp/ccs3e2Sq.s 			page 291


 16489 42f0 30       		.uleb128 0x30
 16490 42f1 EC440000 		.4byte	0x44ec
 16491 42f5 711A0000 		.4byte	.LLST152
 16492 42f9 30       		.uleb128 0x30
 16493 42fa E1440000 		.4byte	0x44e1
 16494 42fe A51A0000 		.4byte	.LLST153
 16495 4302 2E       		.uleb128 0x2e
 16496 4303 60060000 		.4byte	.Ldebug_ranges0+0x660
 16497 4307 2F       		.uleb128 0x2f
 16498 4308 0B450000 		.4byte	0x450b
 16499 430c 43       		.uleb128 0x43
 16500 430d D5440000 		.4byte	0x44d5
 16501 4311 78060000 		.4byte	.Ldebug_ranges0+0x678
 16502 4315 30       		.uleb128 0x30
 16503 4316 00450000 		.4byte	0x4500
 16504 431a B81A0000 		.4byte	.LLST154
 16505 431e 30       		.uleb128 0x30
 16506 431f F5440000 		.4byte	0x44f5
 16507 4323 E41A0000 		.4byte	.LLST155
 16508 4327 30       		.uleb128 0x30
 16509 4328 EC440000 		.4byte	0x44ec
 16510 432c 0D1B0000 		.4byte	.LLST156
 16511 4330 30       		.uleb128 0x30
 16512 4331 E1440000 		.4byte	0x44e1
 16513 4335 361B0000 		.4byte	.LLST157
 16514 4339 2E       		.uleb128 0x2e
 16515 433a 78060000 		.4byte	.Ldebug_ranges0+0x678
 16516 433e 44       		.uleb128 0x44
 16517 433f 0B450000 		.4byte	0x450b
 16518 4343 541B0000 		.4byte	.LLST158
 16519 4347 00       		.byte	0
 16520 4348 00       		.byte	0
 16521 4349 00       		.byte	0
 16522 434a 00       		.byte	0
 16523 434b 00       		.byte	0
 16524 434c 00       		.byte	0
 16525 434d 00       		.byte	0
 16526 434e 00       		.byte	0
 16527 434f 36       		.uleb128 0x36
 16528 4350 EE430000 		.4byte	0x43ee
 16529 4354 0E030000 		.4byte	.LBB646
 16530 4358 0C000000 		.4byte	.LBE646-.LBB646
 16531 435c 01       		.byte	0x1
 16532 435d DE       		.byte	0xde
 16533 435e 6C430000 		.4byte	0x436c
 16534 4362 30       		.uleb128 0x30
 16535 4363 FE430000 		.4byte	0x43fe
 16536 4367 881B0000 		.4byte	.LLST159
 16537 436b 00       		.byte	0
 16538 436c 38       		.uleb128 0x38
 16539 436d 68040000 		.4byte	.LVL235
 16540 4371 0A440000 		.4byte	0x440a
 16541 4375 AF430000 		.4byte	0x43af
 16542 4379 32       		.uleb128 0x32
 16543 437a 01       		.uleb128 0x1
 16544 437b 50       		.byte	0x50
 16545 437c 02       		.uleb128 0x2
ARM GAS  /tmp/ccs3e2Sq.s 			page 292


 16546 437d 70       		.byte	0x70
 16547 437e 00       		.sleb128 0
 16548 437f 32       		.uleb128 0x32
 16549 4380 01       		.uleb128 0x1
 16550 4381 51       		.byte	0x51
 16551 4382 07       		.uleb128 0x7
 16552 4383 76       		.byte	0x76
 16553 4384 00       		.sleb128 0
 16554 4385 91       		.byte	0x91
 16555 4386 987F     		.sleb128 -104
 16556 4388 06       		.byte	0x6
 16557 4389 22       		.byte	0x22
 16558 438a 32       		.uleb128 0x32
 16559 438b 01       		.uleb128 0x1
 16560 438c 52       		.byte	0x52
 16561 438d 07       		.uleb128 0x7
 16562 438e 74       		.byte	0x74
 16563 438f 00       		.sleb128 0
 16564 4390 91       		.byte	0x91
 16565 4391 A47F     		.sleb128 -92
 16566 4393 06       		.byte	0x6
 16567 4394 22       		.byte	0x22
 16568 4395 32       		.uleb128 0x32
 16569 4396 01       		.uleb128 0x1
 16570 4397 53       		.byte	0x53
 16571 4398 02       		.uleb128 0x2
 16572 4399 08       		.byte	0x8
 16573 439a 2D       		.byte	0x2d
 16574 439b 32       		.uleb128 0x32
 16575 439c 02       		.uleb128 0x2
 16576 439d 7D       		.byte	0x7d
 16577 439e 00       		.sleb128 0
 16578 439f 02       		.uleb128 0x2
 16579 43a0 75       		.byte	0x75
 16580 43a1 00       		.sleb128 0
 16581 43a2 32       		.uleb128 0x32
 16582 43a3 02       		.uleb128 0x2
 16583 43a4 7D       		.byte	0x7d
 16584 43a5 04       		.sleb128 4
 16585 43a6 07       		.uleb128 0x7
 16586 43a7 91       		.byte	0x91
 16587 43a8 9C7F     		.sleb128 -100
 16588 43aa 06       		.byte	0x6
 16589 43ab 74       		.byte	0x74
 16590 43ac 00       		.sleb128 0
 16591 43ad 1C       		.byte	0x1c
 16592 43ae 00       		.byte	0
 16593 43af 31       		.uleb128 0x31
 16594 43b0 A0040000 		.4byte	.LVL240
 16595 43b4 0A440000 		.4byte	0x440a
 16596 43b8 32       		.uleb128 0x32
 16597 43b9 01       		.uleb128 0x1
 16598 43ba 50       		.byte	0x50
 16599 43bb 02       		.uleb128 0x2
 16600 43bc 70       		.byte	0x70
 16601 43bd 00       		.sleb128 0
 16602 43be 32       		.uleb128 0x32
ARM GAS  /tmp/ccs3e2Sq.s 			page 293


 16603 43bf 01       		.uleb128 0x1
 16604 43c0 51       		.byte	0x51
 16605 43c1 07       		.uleb128 0x7
 16606 43c2 76       		.byte	0x76
 16607 43c3 00       		.sleb128 0
 16608 43c4 91       		.byte	0x91
 16609 43c5 987F     		.sleb128 -104
 16610 43c7 06       		.byte	0x6
 16611 43c8 22       		.byte	0x22
 16612 43c9 32       		.uleb128 0x32
 16613 43ca 01       		.uleb128 0x1
 16614 43cb 52       		.byte	0x52
 16615 43cc 09       		.uleb128 0x9
 16616 43cd 91       		.byte	0x91
 16617 43ce 907F     		.sleb128 -112
 16618 43d0 06       		.byte	0x6
 16619 43d1 91       		.byte	0x91
 16620 43d2 A47F     		.sleb128 -92
 16621 43d4 06       		.byte	0x6
 16622 43d5 22       		.byte	0x22
 16623 43d6 32       		.uleb128 0x32
 16624 43d7 02       		.uleb128 0x2
 16625 43d8 7D       		.byte	0x7d
 16626 43d9 00       		.sleb128 0
 16627 43da 02       		.uleb128 0x2
 16628 43db 74       		.byte	0x74
 16629 43dc 00       		.sleb128 0
 16630 43dd 32       		.uleb128 0x32
 16631 43de 02       		.uleb128 0x2
 16632 43df 7D       		.byte	0x7d
 16633 43e0 04       		.sleb128 4
 16634 43e1 09       		.uleb128 0x9
 16635 43e2 91       		.byte	0x91
 16636 43e3 9C7F     		.sleb128 -100
 16637 43e5 06       		.byte	0x6
 16638 43e6 91       		.byte	0x91
 16639 43e7 907F     		.sleb128 -112
 16640 43e9 06       		.byte	0x6
 16641 43ea 1C       		.byte	0x1c
 16642 43eb 00       		.byte	0
 16643 43ec 00       		.byte	0
 16644 43ed 00       		.byte	0
 16645 43ee 4D       		.uleb128 0x4d
 16646 43ef 58140000 		.4byte	.LASF646
 16647 43f3 01       		.byte	0x1
 16648 43f4 89       		.byte	0x89
 16649 43f5 F90F0000 		.4byte	0xff9
 16650 43f9 01       		.byte	0x1
 16651 43fa 0A440000 		.4byte	0x440a
 16652 43fe 4E       		.uleb128 0x4e
 16653 43ff 63687200 		.ascii	"chr\000"
 16654 4403 01       		.byte	0x1
 16655 4404 89       		.byte	0x89
 16656 4405 D4000000 		.4byte	0xd4
 16657 4409 00       		.byte	0
 16658 440a 4F       		.uleb128 0x4f
 16659 440b E20C0000 		.4byte	.LASF630
ARM GAS  /tmp/ccs3e2Sq.s 			page 294


 16660 440f 01       		.byte	0x1
 16661 4410 6B       		.byte	0x6b
 16662 4411 01       		.byte	0x1
 16663 4412 72440000 		.4byte	0x4472
 16664 4416 50       		.uleb128 0x50
 16665 4417 16120000 		.4byte	.LASF593
 16666 441b 01       		.byte	0x1
 16667 441c 6B       		.byte	0x6b
 16668 441d 75390000 		.4byte	0x3975
 16669 4421 4E       		.uleb128 0x4e
 16670 4422 7800     		.ascii	"x\000"
 16671 4424 01       		.byte	0x1
 16672 4425 6B       		.byte	0x6b
 16673 4426 E4000000 		.4byte	0xe4
 16674 442a 4E       		.uleb128 0x4e
 16675 442b 7900     		.ascii	"y\000"
 16676 442d 01       		.byte	0x1
 16677 442e 6B       		.byte	0x6b
 16678 442f E4000000 		.4byte	0xe4
 16679 4433 4E       		.uleb128 0x4e
 16680 4434 63687200 		.ascii	"chr\000"
 16681 4438 01       		.byte	0x1
 16682 4439 6C       		.byte	0x6c
 16683 443a 2B0E0000 		.4byte	0xe2b
 16684 443e 50       		.uleb128 0x50
 16685 443f E7080000 		.4byte	.LASF171
 16686 4443 01       		.byte	0x1
 16687 4444 6C       		.byte	0x6c
 16688 4445 DF2B0000 		.4byte	0x2bdf
 16689 4449 50       		.uleb128 0x50
 16690 444a F2010000 		.4byte	.LASF589
 16691 444e 01       		.byte	0x1
 16692 444f 6C       		.byte	0x6c
 16693 4450 D4000000 		.4byte	0xd4
 16694 4454 51       		.uleb128 0x51
 16695 4455 6300     		.ascii	"c\000"
 16696 4457 01       		.byte	0x1
 16697 4458 6E       		.byte	0x6e
 16698 4459 C9000000 		.4byte	0xc9
 16699 445d 51       		.uleb128 0x51
 16700 445e 6900     		.ascii	"i\000"
 16701 4460 01       		.byte	0x1
 16702 4461 6E       		.byte	0x6e
 16703 4462 C9000000 		.4byte	0xc9
 16704 4466 52       		.uleb128 0x52
 16705 4467 C0020000 		.4byte	.LASF621
 16706 446b 01       		.byte	0x1
 16707 446c 70       		.byte	0x70
 16708 446d C9000000 		.4byte	0xc9
 16709 4471 00       		.byte	0
 16710 4472 4F       		.uleb128 0x4f
 16711 4473 360C0000 		.4byte	.LASF631
 16712 4477 01       		.byte	0x1
 16713 4478 51       		.byte	0x51
 16714 4479 01       		.byte	0x1
 16715 447a AB440000 		.4byte	0x44ab
 16716 447e 50       		.uleb128 0x50
ARM GAS  /tmp/ccs3e2Sq.s 			page 295


 16717 447f 16120000 		.4byte	.LASF593
 16718 4483 01       		.byte	0x1
 16719 4484 51       		.byte	0x51
 16720 4485 75390000 		.4byte	0x3975
 16721 4489 50       		.uleb128 0x50
 16722 448a 40140000 		.4byte	.LASF632
 16723 448e 01       		.byte	0x1
 16724 448f 51       		.byte	0x51
 16725 4490 D4000000 		.4byte	0xd4
 16726 4494 52       		.uleb128 0x52
 16727 4495 56090000 		.4byte	.LASF633
 16728 4499 01       		.byte	0x1
 16729 449a 59       		.byte	0x59
 16730 449b C9000000 		.4byte	0xc9
 16731 449f 52       		.uleb128 0x52
 16732 44a0 9C090000 		.4byte	.LASF608
 16733 44a4 01       		.byte	0x1
 16734 44a5 5F       		.byte	0x5f
 16735 44a6 D9000000 		.4byte	0xd9
 16736 44aa 00       		.byte	0
 16737 44ab 4F       		.uleb128 0x4f
 16738 44ac 32110000 		.4byte	.LASF634
 16739 44b0 01       		.byte	0x1
 16740 44b1 4B       		.byte	0x4b
 16741 44b2 01       		.byte	0x1
 16742 44b3 D5440000 		.4byte	0x44d5
 16743 44b7 50       		.uleb128 0x50
 16744 44b8 16120000 		.4byte	.LASF593
 16745 44bc 01       		.byte	0x1
 16746 44bd 4B       		.byte	0x4b
 16747 44be 75390000 		.4byte	0x3975
 16748 44c2 4E       		.uleb128 0x4e
 16749 44c3 7800     		.ascii	"x\000"
 16750 44c5 01       		.byte	0x1
 16751 44c6 4B       		.byte	0x4b
 16752 44c7 E4000000 		.4byte	0xe4
 16753 44cb 4E       		.uleb128 0x4e
 16754 44cc 7900     		.ascii	"y\000"
 16755 44ce 01       		.byte	0x1
 16756 44cf 4B       		.byte	0x4b
 16757 44d0 E4000000 		.4byte	0xe4
 16758 44d4 00       		.byte	0
 16759 44d5 53       		.uleb128 0x53
 16760 44d6 16160000 		.4byte	.LASF637
 16761 44da 01       		.byte	0x1
 16762 44db 3C       		.byte	0x3c
 16763 44dc 01       		.byte	0x1
 16764 44dd 17450000 		.4byte	0x4517
 16765 44e1 50       		.uleb128 0x50
 16766 44e2 16120000 		.4byte	.LASF593
 16767 44e6 01       		.byte	0x1
 16768 44e7 3C       		.byte	0x3c
 16769 44e8 75390000 		.4byte	0x3975
 16770 44ec 4E       		.uleb128 0x4e
 16771 44ed 7800     		.ascii	"x\000"
 16772 44ef 01       		.byte	0x1
 16773 44f0 3C       		.byte	0x3c
ARM GAS  /tmp/ccs3e2Sq.s 			page 296


 16774 44f1 E4000000 		.4byte	0xe4
 16775 44f5 50       		.uleb128 0x50
 16776 44f6 9C090000 		.4byte	.LASF608
 16777 44fa 01       		.byte	0x1
 16778 44fb 3C       		.byte	0x3c
 16779 44fc E4000000 		.4byte	0xe4
 16780 4500 50       		.uleb128 0x50
 16781 4501 40140000 		.4byte	.LASF632
 16782 4505 01       		.byte	0x1
 16783 4506 3C       		.byte	0x3c
 16784 4507 D4000000 		.4byte	0xd4
 16785 450b 52       		.uleb128 0x52
 16786 450c 6F100000 		.4byte	.LASF635
 16787 4510 01       		.byte	0x1
 16788 4511 40       		.byte	0x40
 16789 4512 C9000000 		.4byte	0xc9
 16790 4516 00       		.byte	0
 16791 4517 54       		.uleb128 0x54
 16792 4518 B8100000 		.4byte	.LASF647
 16793 451c 01       		.byte	0x1
 16794 451d 33       		.byte	0x33
 16795 451e 852C0000 		.4byte	0x2c85
 16796 4522 00000000 		.4byte	.LFB329
 16797 4526 3E000000 		.4byte	.LFE329-.LFB329
 16798 452a 01       		.uleb128 0x1
 16799 452b 9C       		.byte	0x9c
 16800 452c 7A450000 		.4byte	0x457a
 16801 4530 49       		.uleb128 0x49
 16802 4531 95140000 		.4byte	.LASF588
 16803 4535 01       		.byte	0x1
 16804 4536 33       		.byte	0x33
 16805 4537 C9000000 		.4byte	0xc9
 16806 453b 9C1B0000 		.4byte	.LLST0
 16807 453f 49       		.uleb128 0x49
 16808 4540 F2010000 		.4byte	.LASF589
 16809 4544 01       		.byte	0x1
 16810 4545 33       		.byte	0x33
 16811 4546 C9000000 		.4byte	0xc9
 16812 454a BB1B0000 		.4byte	.LLST1
 16813 454e 47       		.uleb128 0x47
 16814 454f C4130000 		.4byte	.LASF592
 16815 4553 01       		.byte	0x1
 16816 4554 33       		.byte	0x33
 16817 4555 4B100000 		.4byte	0x104b
 16818 4559 01       		.uleb128 0x1
 16819 455a 53       		.byte	0x53
 16820 455b 49       		.uleb128 0x49
 16821 455c 16120000 		.4byte	.LASF593
 16822 4560 01       		.byte	0x1
 16823 4561 33       		.byte	0x33
 16824 4562 4B100000 		.4byte	0x104b
 16825 4566 DA1B0000 		.4byte	.LLST2
 16826 456a 4C       		.uleb128 0x4c
 16827 456b 4D0D0000 		.4byte	.LASF636
 16828 456f 01       		.byte	0x1
 16829 4570 35       		.byte	0x35
 16830 4571 852C0000 		.4byte	0x2c85
ARM GAS  /tmp/ccs3e2Sq.s 			page 297


 16831 4575 FA1B0000 		.4byte	.LLST3
 16832 4579 00       		.byte	0
 16833 457a 53       		.uleb128 0x53
 16834 457b BD120000 		.4byte	.LASF638
 16835 457f 01       		.byte	0x1
 16836 4580 2B       		.byte	0x2b
 16837 4581 03       		.byte	0x3
 16838 4582 99450000 		.4byte	0x4599
 16839 4586 4E       		.uleb128 0x4e
 16840 4587 7800     		.ascii	"x\000"
 16841 4589 01       		.byte	0x1
 16842 458a 2B       		.byte	0x2b
 16843 458b 63000000 		.4byte	0x63
 16844 458f 4E       		.uleb128 0x4e
 16845 4590 7900     		.ascii	"y\000"
 16846 4592 01       		.byte	0x1
 16847 4593 2B       		.byte	0x2b
 16848 4594 63000000 		.4byte	0x63
 16849 4598 00       		.byte	0
 16850 4599 53       		.uleb128 0x53
 16851 459a 040A0000 		.4byte	.LASF639
 16852 459e 01       		.byte	0x1
 16853 459f 26       		.byte	0x26
 16854 45a0 03       		.byte	0x3
 16855 45a1 B1450000 		.4byte	0x45b1
 16856 45a5 4E       		.uleb128 0x4e
 16857 45a6 64617400 		.ascii	"dat\000"
 16858 45aa 01       		.byte	0x1
 16859 45ab 26       		.byte	0x26
 16860 45ac D4000000 		.4byte	0xd4
 16861 45b0 00       		.byte	0
 16862 45b1 55       		.uleb128 0x55
 16863 45b2 AB440000 		.4byte	0x44ab
 16864 45b6 00000000 		.4byte	.LFB331
 16865 45ba 06000000 		.4byte	.LFE331-.LFB331
 16866 45be 01       		.uleb128 0x1
 16867 45bf 9C       		.byte	0x9c
 16868 45c0 DA450000 		.4byte	0x45da
 16869 45c4 56       		.uleb128 0x56
 16870 45c5 B7440000 		.4byte	0x44b7
 16871 45c9 01       		.uleb128 0x1
 16872 45ca 50       		.byte	0x50
 16873 45cb 56       		.uleb128 0x56
 16874 45cc C2440000 		.4byte	0x44c2
 16875 45d0 01       		.uleb128 0x1
 16876 45d1 51       		.byte	0x51
 16877 45d2 56       		.uleb128 0x56
 16878 45d3 CB440000 		.4byte	0x44cb
 16879 45d7 01       		.uleb128 0x1
 16880 45d8 52       		.byte	0x52
 16881 45d9 00       		.byte	0
 16882 45da 55       		.uleb128 0x55
 16883 45db 72440000 		.4byte	0x4472
 16884 45df 00000000 		.4byte	.LFB332
 16885 45e3 84010000 		.4byte	.LFE332-.LFB332
 16886 45e7 01       		.uleb128 0x1
 16887 45e8 9C       		.byte	0x9c
ARM GAS  /tmp/ccs3e2Sq.s 			page 298


 16888 45e9 04470000 		.4byte	0x4704
 16889 45ed 56       		.uleb128 0x56
 16890 45ee 7E440000 		.4byte	0x447e
 16891 45f2 01       		.uleb128 0x1
 16892 45f3 50       		.byte	0x50
 16893 45f4 30       		.uleb128 0x30
 16894 45f5 89440000 		.4byte	0x4489
 16895 45f9 081D0000 		.4byte	.LLST4
 16896 45fd 44       		.uleb128 0x44
 16897 45fe 94440000 		.4byte	0x4494
 16898 4602 421D0000 		.4byte	.LLST5
 16899 4606 44       		.uleb128 0x44
 16900 4607 9F440000 		.4byte	0x449f
 16901 460b 751D0000 		.4byte	.LLST6
 16902 460f 35       		.uleb128 0x35
 16903 4610 D5440000 		.4byte	0x44d5
 16904 4614 84000000 		.4byte	.LBB132
 16905 4618 00000000 		.4byte	.Ldebug_ranges0+0
 16906 461c 01       		.byte	0x1
 16907 461d 62       		.byte	0x62
 16908 461e 87460000 		.4byte	0x4687
 16909 4622 3F       		.uleb128 0x3f
 16910 4623 00450000 		.4byte	0x4500
 16911 4627 30       		.uleb128 0x30
 16912 4628 F5440000 		.4byte	0x44f5
 16913 462c BF1D0000 		.4byte	.LLST7
 16914 4630 30       		.uleb128 0x30
 16915 4631 EC440000 		.4byte	0x44ec
 16916 4635 F31D0000 		.4byte	.LLST8
 16917 4639 30       		.uleb128 0x30
 16918 463a E1440000 		.4byte	0x44e1
 16919 463e 1C1E0000 		.4byte	.LLST9
 16920 4642 2E       		.uleb128 0x2e
 16921 4643 00000000 		.4byte	.Ldebug_ranges0+0
 16922 4647 2F       		.uleb128 0x2f
 16923 4648 0B450000 		.4byte	0x450b
 16924 464c 43       		.uleb128 0x43
 16925 464d D5440000 		.4byte	0x44d5
 16926 4651 10000000 		.4byte	.Ldebug_ranges0+0x10
 16927 4655 3F       		.uleb128 0x3f
 16928 4656 00450000 		.4byte	0x4500
 16929 465a 30       		.uleb128 0x30
 16930 465b F5440000 		.4byte	0x44f5
 16931 465f 451E0000 		.4byte	.LLST10
 16932 4663 30       		.uleb128 0x30
 16933 4664 EC440000 		.4byte	0x44ec
 16934 4668 6E1E0000 		.4byte	.LLST11
 16935 466c 30       		.uleb128 0x30
 16936 466d E1440000 		.4byte	0x44e1
 16937 4671 8C1E0000 		.4byte	.LLST12
 16938 4675 2E       		.uleb128 0x2e
 16939 4676 10000000 		.4byte	.Ldebug_ranges0+0x10
 16940 467a 44       		.uleb128 0x44
 16941 467b 0B450000 		.4byte	0x450b
 16942 467f 9F1E0000 		.4byte	.LLST13
 16943 4683 00       		.byte	0
 16944 4684 00       		.byte	0
ARM GAS  /tmp/ccs3e2Sq.s 			page 299


 16945 4685 00       		.byte	0
 16946 4686 00       		.byte	0
 16947 4687 45       		.uleb128 0x45
 16948 4688 D5440000 		.4byte	0x44d5
 16949 468c 9A000000 		.4byte	.LBB145
 16950 4690 30000000 		.4byte	.Ldebug_ranges0+0x30
 16951 4694 01       		.byte	0x1
 16952 4695 66       		.byte	0x66
 16953 4696 30       		.uleb128 0x30
 16954 4697 00450000 		.4byte	0x4500
 16955 469b B21E0000 		.4byte	.LLST14
 16956 469f 30       		.uleb128 0x30
 16957 46a0 F5440000 		.4byte	0x44f5
 16958 46a4 191F0000 		.4byte	.LLST15
 16959 46a8 30       		.uleb128 0x30
 16960 46a9 EC440000 		.4byte	0x44ec
 16961 46ad 4F1F0000 		.4byte	.LLST16
 16962 46b1 30       		.uleb128 0x30
 16963 46b2 E1440000 		.4byte	0x44e1
 16964 46b6 841F0000 		.4byte	.LLST17
 16965 46ba 2E       		.uleb128 0x2e
 16966 46bb 30000000 		.4byte	.Ldebug_ranges0+0x30
 16967 46bf 2F       		.uleb128 0x2f
 16968 46c0 0B450000 		.4byte	0x450b
 16969 46c4 43       		.uleb128 0x43
 16970 46c5 D5440000 		.4byte	0x44d5
 16971 46c9 70000000 		.4byte	.Ldebug_ranges0+0x70
 16972 46cd 30       		.uleb128 0x30
 16973 46ce 00450000 		.4byte	0x4500
 16974 46d2 AD1F0000 		.4byte	.LLST18
 16975 46d6 30       		.uleb128 0x30
 16976 46d7 F5440000 		.4byte	0x44f5
 16977 46db D61F0000 		.4byte	.LLST19
 16978 46df 30       		.uleb128 0x30
 16979 46e0 EC440000 		.4byte	0x44ec
 16980 46e4 FF1F0000 		.4byte	.LLST20
 16981 46e8 30       		.uleb128 0x30
 16982 46e9 E1440000 		.4byte	0x44e1
 16983 46ed 28200000 		.4byte	.LLST21
 16984 46f1 2E       		.uleb128 0x2e
 16985 46f2 70000000 		.4byte	.Ldebug_ranges0+0x70
 16986 46f6 44       		.uleb128 0x44
 16987 46f7 0B450000 		.4byte	0x450b
 16988 46fb 51200000 		.4byte	.LLST22
 16989 46ff 00       		.byte	0
 16990 4700 00       		.byte	0
 16991 4701 00       		.byte	0
 16992 4702 00       		.byte	0
 16993 4703 00       		.byte	0
 16994 4704 55       		.uleb128 0x55
 16995 4705 0A440000 		.4byte	0x440a
 16996 4709 00000000 		.4byte	.LFB333
 16997 470d 1C060000 		.4byte	.LFE333-.LFB333
 16998 4711 01       		.uleb128 0x1
 16999 4712 9C       		.byte	0x9c
 17000 4713 564B0000 		.4byte	0x4b56
 17001 4717 56       		.uleb128 0x56
ARM GAS  /tmp/ccs3e2Sq.s 			page 300


 17002 4718 16440000 		.4byte	0x4416
 17003 471c 01       		.uleb128 0x1
 17004 471d 50       		.byte	0x50
 17005 471e 30       		.uleb128 0x30
 17006 471f 21440000 		.4byte	0x4421
 17007 4723 6F200000 		.4byte	.LLST23
 17008 4727 30       		.uleb128 0x30
 17009 4728 2A440000 		.4byte	0x442a
 17010 472c F4200000 		.4byte	.LLST24
 17011 4730 30       		.uleb128 0x30
 17012 4731 33440000 		.4byte	0x4433
 17013 4735 2E210000 		.4byte	.LLST25
 17014 4739 30       		.uleb128 0x30
 17015 473a 3E440000 		.4byte	0x443e
 17016 473e 4F210000 		.4byte	.LLST26
 17017 4742 30       		.uleb128 0x30
 17018 4743 49440000 		.4byte	0x4449
 17019 4747 7B210000 		.4byte	.LLST27
 17020 474b 44       		.uleb128 0x44
 17021 474c 54440000 		.4byte	0x4454
 17022 4750 A7210000 		.4byte	.LLST28
 17023 4754 44       		.uleb128 0x44
 17024 4755 5D440000 		.4byte	0x445d
 17025 4759 D1210000 		.4byte	.LLST29
 17026 475d 44       		.uleb128 0x44
 17027 475e 66440000 		.4byte	0x4466
 17028 4762 60220000 		.4byte	.LLST30
 17029 4766 35       		.uleb128 0x35
 17030 4767 AB440000 		.4byte	0x44ab
 17031 476b 32000000 		.4byte	.LBB214
 17032 476f A0000000 		.4byte	.Ldebug_ranges0+0xa0
 17033 4773 01       		.byte	0x1
 17034 4774 76       		.byte	0x76
 17035 4775 95470000 		.4byte	0x4795
 17036 4779 30       		.uleb128 0x30
 17037 477a CB440000 		.4byte	0x44cb
 17038 477e 98220000 		.4byte	.LLST31
 17039 4782 30       		.uleb128 0x30
 17040 4783 C2440000 		.4byte	0x44c2
 17041 4787 AB220000 		.4byte	.LLST32
 17042 478b 30       		.uleb128 0x30
 17043 478c B7440000 		.4byte	0x44b7
 17044 4790 BE220000 		.4byte	.LLST33
 17045 4794 00       		.byte	0
 17046 4795 35       		.uleb128 0x35
 17047 4796 72440000 		.4byte	0x4472
 17048 479a 42000000 		.4byte	.LBB218
 17049 479e B8000000 		.4byte	.Ldebug_ranges0+0xb8
 17050 47a2 01       		.byte	0x1
 17051 47a3 78       		.byte	0x78
 17052 47a4 B7480000 		.4byte	0x48b7
 17053 47a8 3F       		.uleb128 0x3f
 17054 47a9 89440000 		.4byte	0x4489
 17055 47ad 30       		.uleb128 0x30
 17056 47ae 7E440000 		.4byte	0x447e
 17057 47b2 D1220000 		.4byte	.LLST34
 17058 47b6 2E       		.uleb128 0x2e
ARM GAS  /tmp/ccs3e2Sq.s 			page 301


 17059 47b7 B8000000 		.4byte	.Ldebug_ranges0+0xb8
 17060 47bb 2F       		.uleb128 0x2f
 17061 47bc FD450000 		.4byte	0x45fd
 17062 47c0 2F       		.uleb128 0x2f
 17063 47c1 06460000 		.4byte	0x4606
 17064 47c5 35       		.uleb128 0x35
 17065 47c6 D5440000 		.4byte	0x44d5
 17066 47ca E4000000 		.4byte	.LBB220
 17067 47ce F8000000 		.4byte	.Ldebug_ranges0+0xf8
 17068 47d2 01       		.byte	0x1
 17069 47d3 62       		.byte	0x62
 17070 47d4 39480000 		.4byte	0x4839
 17071 47d8 3F       		.uleb128 0x3f
 17072 47d9 00450000 		.4byte	0x4500
 17073 47dd 30       		.uleb128 0x30
 17074 47de F5440000 		.4byte	0x44f5
 17075 47e2 05230000 		.4byte	.LLST35
 17076 47e6 30       		.uleb128 0x30
 17077 47e7 EC440000 		.4byte	0x44ec
 17078 47eb 2E230000 		.4byte	.LLST36
 17079 47ef 3F       		.uleb128 0x3f
 17080 47f0 E1440000 		.4byte	0x44e1
 17081 47f4 2E       		.uleb128 0x2e
 17082 47f5 F8000000 		.4byte	.Ldebug_ranges0+0xf8
 17083 47f9 2F       		.uleb128 0x2f
 17084 47fa 0B450000 		.4byte	0x450b
 17085 47fe 43       		.uleb128 0x43
 17086 47ff D5440000 		.4byte	0x44d5
 17087 4803 08010000 		.4byte	.Ldebug_ranges0+0x108
 17088 4807 3F       		.uleb128 0x3f
 17089 4808 00450000 		.4byte	0x4500
 17090 480c 30       		.uleb128 0x30
 17091 480d F5440000 		.4byte	0x44f5
 17092 4811 5A230000 		.4byte	.LLST37
 17093 4815 30       		.uleb128 0x30
 17094 4816 EC440000 		.4byte	0x44ec
 17095 481a 84230000 		.4byte	.LLST38
 17096 481e 30       		.uleb128 0x30
 17097 481f E1440000 		.4byte	0x44e1
 17098 4823 A4230000 		.4byte	.LLST39
 17099 4827 2E       		.uleb128 0x2e
 17100 4828 08010000 		.4byte	.Ldebug_ranges0+0x108
 17101 482c 44       		.uleb128 0x44
 17102 482d 0B450000 		.4byte	0x450b
 17103 4831 C2230000 		.4byte	.LLST40
 17104 4835 00       		.byte	0
 17105 4836 00       		.byte	0
 17106 4837 00       		.byte	0
 17107 4838 00       		.byte	0
 17108 4839 45       		.uleb128 0x45
 17109 483a D5440000 		.4byte	0x44d5
 17110 483e 0E010000 		.4byte	.LBB233
 17111 4842 28010000 		.4byte	.Ldebug_ranges0+0x128
 17112 4846 01       		.byte	0x1
 17113 4847 66       		.byte	0x66
 17114 4848 30       		.uleb128 0x30
 17115 4849 00450000 		.4byte	0x4500
ARM GAS  /tmp/ccs3e2Sq.s 			page 302


 17116 484d D6230000 		.4byte	.LLST41
 17117 4851 30       		.uleb128 0x30
 17118 4852 F5440000 		.4byte	0x44f5
 17119 4856 42240000 		.4byte	.LLST42
 17120 485a 30       		.uleb128 0x30
 17121 485b EC440000 		.4byte	0x44ec
 17122 485f 7C240000 		.4byte	.LLST43
 17123 4863 30       		.uleb128 0x30
 17124 4864 E1440000 		.4byte	0x44e1
 17125 4868 A5240000 		.4byte	.LLST44
 17126 486c 2E       		.uleb128 0x2e
 17127 486d 28010000 		.4byte	.Ldebug_ranges0+0x128
 17128 4871 2F       		.uleb128 0x2f
 17129 4872 0B450000 		.4byte	0x450b
 17130 4876 43       		.uleb128 0x43
 17131 4877 D5440000 		.4byte	0x44d5
 17132 487b 68010000 		.4byte	.Ldebug_ranges0+0x168
 17133 487f 30       		.uleb128 0x30
 17134 4880 00450000 		.4byte	0x4500
 17135 4884 B8240000 		.4byte	.LLST45
 17136 4888 30       		.uleb128 0x30
 17137 4889 F5440000 		.4byte	0x44f5
 17138 488d E4240000 		.4byte	.LLST46
 17139 4891 30       		.uleb128 0x30
 17140 4892 EC440000 		.4byte	0x44ec
 17141 4896 0D250000 		.4byte	.LLST47
 17142 489a 30       		.uleb128 0x30
 17143 489b E1440000 		.4byte	0x44e1
 17144 489f 36250000 		.4byte	.LLST48
 17145 48a3 2E       		.uleb128 0x2e
 17146 48a4 68010000 		.4byte	.Ldebug_ranges0+0x168
 17147 48a8 44       		.uleb128 0x44
 17148 48a9 0B450000 		.4byte	0x450b
 17149 48ad 5F250000 		.4byte	.LLST49
 17150 48b1 00       		.byte	0
 17151 48b2 00       		.byte	0
 17152 48b3 00       		.byte	0
 17153 48b4 00       		.byte	0
 17154 48b5 00       		.byte	0
 17155 48b6 00       		.byte	0
 17156 48b7 36       		.uleb128 0x36
 17157 48b8 AB440000 		.4byte	0x44ab
 17158 48bc A2010000 		.4byte	.LBB269
 17159 48c0 06000000 		.4byte	.LBE269-.LBB269
 17160 48c4 01       		.byte	0x1
 17161 48c5 7D       		.byte	0x7d
 17162 48c6 E6480000 		.4byte	0x48e6
 17163 48ca 30       		.uleb128 0x30
 17164 48cb CB440000 		.4byte	0x44cb
 17165 48cf 7D250000 		.4byte	.LLST50
 17166 48d3 30       		.uleb128 0x30
 17167 48d4 C2440000 		.4byte	0x44c2
 17168 48d8 92250000 		.4byte	.LLST51
 17169 48dc 30       		.uleb128 0x30
 17170 48dd B7440000 		.4byte	0x44b7
 17171 48e1 A5250000 		.4byte	.LLST52
 17172 48e5 00       		.byte	0
ARM GAS  /tmp/ccs3e2Sq.s 			page 303


 17173 48e6 35       		.uleb128 0x35
 17174 48e7 72440000 		.4byte	0x4472
 17175 48eb A8010000 		.4byte	.LBB271
 17176 48ef 98010000 		.4byte	.Ldebug_ranges0+0x198
 17177 48f3 01       		.byte	0x1
 17178 48f4 7F       		.byte	0x7f
 17179 48f5 084A0000 		.4byte	0x4a08
 17180 48f9 3F       		.uleb128 0x3f
 17181 48fa 89440000 		.4byte	0x4489
 17182 48fe 30       		.uleb128 0x30
 17183 48ff 7E440000 		.4byte	0x447e
 17184 4903 B8250000 		.4byte	.LLST53
 17185 4907 2E       		.uleb128 0x2e
 17186 4908 98010000 		.4byte	.Ldebug_ranges0+0x198
 17187 490c 2F       		.uleb128 0x2f
 17188 490d FD450000 		.4byte	0x45fd
 17189 4911 2F       		.uleb128 0x2f
 17190 4912 06460000 		.4byte	0x4606
 17191 4916 35       		.uleb128 0x35
 17192 4917 D5440000 		.4byte	0x44d5
 17193 491b A8010000 		.4byte	.LBB273
 17194 491f D8010000 		.4byte	.Ldebug_ranges0+0x1d8
 17195 4923 01       		.byte	0x1
 17196 4924 66       		.byte	0x66
 17197 4925 96490000 		.4byte	0x4996
 17198 4929 30       		.uleb128 0x30
 17199 492a 00450000 		.4byte	0x4500
 17200 492e EC250000 		.4byte	.LLST54
 17201 4932 30       		.uleb128 0x30
 17202 4933 F5440000 		.4byte	0x44f5
 17203 4937 53260000 		.4byte	.LLST55
 17204 493b 30       		.uleb128 0x30
 17205 493c EC440000 		.4byte	0x44ec
 17206 4940 89260000 		.4byte	.LLST56
 17207 4944 30       		.uleb128 0x30
 17208 4945 E1440000 		.4byte	0x44e1
 17209 4949 B2260000 		.4byte	.LLST57
 17210 494d 2E       		.uleb128 0x2e
 17211 494e D8010000 		.4byte	.Ldebug_ranges0+0x1d8
 17212 4952 2F       		.uleb128 0x2f
 17213 4953 0B450000 		.4byte	0x450b
 17214 4957 43       		.uleb128 0x43
 17215 4958 D5440000 		.4byte	0x44d5
 17216 495c 20020000 		.4byte	.Ldebug_ranges0+0x220
 17217 4960 30       		.uleb128 0x30
 17218 4961 00450000 		.4byte	0x4500
 17219 4965 C5260000 		.4byte	.LLST58
 17220 4969 30       		.uleb128 0x30
 17221 496a F5440000 		.4byte	0x44f5
 17222 496e EE260000 		.4byte	.LLST59
 17223 4972 30       		.uleb128 0x30
 17224 4973 EC440000 		.4byte	0x44ec
 17225 4977 17270000 		.4byte	.LLST60
 17226 497b 30       		.uleb128 0x30
 17227 497c E1440000 		.4byte	0x44e1
 17228 4980 40270000 		.4byte	.LLST61
 17229 4984 2E       		.uleb128 0x2e
ARM GAS  /tmp/ccs3e2Sq.s 			page 304


 17230 4985 20020000 		.4byte	.Ldebug_ranges0+0x220
 17231 4989 44       		.uleb128 0x44
 17232 498a 0B450000 		.4byte	0x450b
 17233 498e 69270000 		.4byte	.LLST62
 17234 4992 00       		.byte	0
 17235 4993 00       		.byte	0
 17236 4994 00       		.byte	0
 17237 4995 00       		.byte	0
 17238 4996 45       		.uleb128 0x45
 17239 4997 D5440000 		.4byte	0x44d5
 17240 499b 3C020000 		.4byte	.LBB294
 17241 499f 58020000 		.4byte	.Ldebug_ranges0+0x258
 17242 49a3 01       		.byte	0x1
 17243 49a4 62       		.byte	0x62
 17244 49a5 3F       		.uleb128 0x3f
 17245 49a6 00450000 		.4byte	0x4500
 17246 49aa 30       		.uleb128 0x30
 17247 49ab F5440000 		.4byte	0x44f5
 17248 49af 87270000 		.4byte	.LLST63
 17249 49b3 30       		.uleb128 0x30
 17250 49b4 EC440000 		.4byte	0x44ec
 17251 49b8 BB270000 		.4byte	.LLST64
 17252 49bc 3F       		.uleb128 0x3f
 17253 49bd E1440000 		.4byte	0x44e1
 17254 49c1 2E       		.uleb128 0x2e
 17255 49c2 58020000 		.4byte	.Ldebug_ranges0+0x258
 17256 49c6 2F       		.uleb128 0x2f
 17257 49c7 0B450000 		.4byte	0x450b
 17258 49cb 43       		.uleb128 0x43
 17259 49cc D5440000 		.4byte	0x44d5
 17260 49d0 68020000 		.4byte	.Ldebug_ranges0+0x268
 17261 49d4 3F       		.uleb128 0x3f
 17262 49d5 00450000 		.4byte	0x4500
 17263 49d9 30       		.uleb128 0x30
 17264 49da F5440000 		.4byte	0x44f5
 17265 49de E7270000 		.4byte	.LLST65
 17266 49e2 30       		.uleb128 0x30
 17267 49e3 EC440000 		.4byte	0x44ec
 17268 49e7 10280000 		.4byte	.LLST66
 17269 49eb 30       		.uleb128 0x30
 17270 49ec E1440000 		.4byte	0x44e1
 17271 49f0 30280000 		.4byte	.LLST67
 17272 49f4 2E       		.uleb128 0x2e
 17273 49f5 68020000 		.4byte	.Ldebug_ranges0+0x268
 17274 49f9 44       		.uleb128 0x44
 17275 49fa 0B450000 		.4byte	0x450b
 17276 49fe 4E280000 		.4byte	.LLST68
 17277 4a02 00       		.byte	0
 17278 4a03 00       		.byte	0
 17279 4a04 00       		.byte	0
 17280 4a05 00       		.byte	0
 17281 4a06 00       		.byte	0
 17282 4a07 00       		.byte	0
 17283 4a08 36       		.uleb128 0x36
 17284 4a09 AB440000 		.4byte	0x44ab
 17285 4a0d D0020000 		.4byte	.LBB326
 17286 4a11 0E000000 		.4byte	.LBE326-.LBB326
ARM GAS  /tmp/ccs3e2Sq.s 			page 305


 17287 4a15 01       		.byte	0x1
 17288 4a16 82       		.byte	0x82
 17289 4a17 374A0000 		.4byte	0x4a37
 17290 4a1b 30       		.uleb128 0x30
 17291 4a1c CB440000 		.4byte	0x44cb
 17292 4a20 6C280000 		.4byte	.LLST69
 17293 4a24 30       		.uleb128 0x30
 17294 4a25 C2440000 		.4byte	0x44c2
 17295 4a29 7F280000 		.4byte	.LLST70
 17296 4a2d 30       		.uleb128 0x30
 17297 4a2e B7440000 		.4byte	0x44b7
 17298 4a32 92280000 		.4byte	.LLST71
 17299 4a36 00       		.byte	0
 17300 4a37 45       		.uleb128 0x45
 17301 4a38 72440000 		.4byte	0x4472
 17302 4a3c DE020000 		.4byte	.LBB328
 17303 4a40 88020000 		.4byte	.Ldebug_ranges0+0x288
 17304 4a44 01       		.byte	0x1
 17305 4a45 84       		.byte	0x84
 17306 4a46 3F       		.uleb128 0x3f
 17307 4a47 89440000 		.4byte	0x4489
 17308 4a4b 30       		.uleb128 0x30
 17309 4a4c 7E440000 		.4byte	0x447e
 17310 4a50 A5280000 		.4byte	.LLST72
 17311 4a54 2E       		.uleb128 0x2e
 17312 4a55 88020000 		.4byte	.Ldebug_ranges0+0x288
 17313 4a59 2F       		.uleb128 0x2f
 17314 4a5a FD450000 		.4byte	0x45fd
 17315 4a5e 2F       		.uleb128 0x2f
 17316 4a5f 06460000 		.4byte	0x4606
 17317 4a63 35       		.uleb128 0x35
 17318 4a64 D5440000 		.4byte	0x44d5
 17319 4a68 DE020000 		.4byte	.LBB330
 17320 4a6c C8020000 		.4byte	.Ldebug_ranges0+0x2c8
 17321 4a70 01       		.byte	0x1
 17322 4a71 66       		.byte	0x66
 17323 4a72 E34A0000 		.4byte	0x4ae3
 17324 4a76 30       		.uleb128 0x30
 17325 4a77 00450000 		.4byte	0x4500
 17326 4a7b D9280000 		.4byte	.LLST73
 17327 4a7f 30       		.uleb128 0x30
 17328 4a80 F5440000 		.4byte	0x44f5
 17329 4a84 40290000 		.4byte	.LLST74
 17330 4a88 30       		.uleb128 0x30
 17331 4a89 EC440000 		.4byte	0x44ec
 17332 4a8d 83290000 		.4byte	.LLST75
 17333 4a91 30       		.uleb128 0x30
 17334 4a92 E1440000 		.4byte	0x44e1
 17335 4a96 AC290000 		.4byte	.LLST76
 17336 4a9a 2E       		.uleb128 0x2e
 17337 4a9b C8020000 		.4byte	.Ldebug_ranges0+0x2c8
 17338 4a9f 2F       		.uleb128 0x2f
 17339 4aa0 0B450000 		.4byte	0x450b
 17340 4aa4 43       		.uleb128 0x43
 17341 4aa5 D5440000 		.4byte	0x44d5
 17342 4aa9 10030000 		.4byte	.Ldebug_ranges0+0x310
 17343 4aad 30       		.uleb128 0x30
ARM GAS  /tmp/ccs3e2Sq.s 			page 306


 17344 4aae 00450000 		.4byte	0x4500
 17345 4ab2 BF290000 		.4byte	.LLST77
 17346 4ab6 30       		.uleb128 0x30
 17347 4ab7 F5440000 		.4byte	0x44f5
 17348 4abb E8290000 		.4byte	.LLST78
 17349 4abf 30       		.uleb128 0x30
 17350 4ac0 EC440000 		.4byte	0x44ec
 17351 4ac4 112A0000 		.4byte	.LLST79
 17352 4ac8 30       		.uleb128 0x30
 17353 4ac9 E1440000 		.4byte	0x44e1
 17354 4acd 3A2A0000 		.4byte	.LLST80
 17355 4ad1 2E       		.uleb128 0x2e
 17356 4ad2 10030000 		.4byte	.Ldebug_ranges0+0x310
 17357 4ad6 44       		.uleb128 0x44
 17358 4ad7 0B450000 		.4byte	0x450b
 17359 4adb 632A0000 		.4byte	.LLST81
 17360 4adf 00       		.byte	0
 17361 4ae0 00       		.byte	0
 17362 4ae1 00       		.byte	0
 17363 4ae2 00       		.byte	0
 17364 4ae3 45       		.uleb128 0x45
 17365 4ae4 D5440000 		.4byte	0x44d5
 17366 4ae8 76030000 		.4byte	.LBB351
 17367 4aec 48030000 		.4byte	.Ldebug_ranges0+0x348
 17368 4af0 01       		.byte	0x1
 17369 4af1 62       		.byte	0x62
 17370 4af2 3F       		.uleb128 0x3f
 17371 4af3 00450000 		.4byte	0x4500
 17372 4af7 30       		.uleb128 0x30
 17373 4af8 F5440000 		.4byte	0x44f5
 17374 4afc 812A0000 		.4byte	.LLST82
 17375 4b00 30       		.uleb128 0x30
 17376 4b01 EC440000 		.4byte	0x44ec
 17377 4b05 B52A0000 		.4byte	.LLST83
 17378 4b09 3F       		.uleb128 0x3f
 17379 4b0a E1440000 		.4byte	0x44e1
 17380 4b0e 2E       		.uleb128 0x2e
 17381 4b0f 48030000 		.4byte	.Ldebug_ranges0+0x348
 17382 4b13 2F       		.uleb128 0x2f
 17383 4b14 0B450000 		.4byte	0x450b
 17384 4b18 43       		.uleb128 0x43
 17385 4b19 D5440000 		.4byte	0x44d5
 17386 4b1d 58030000 		.4byte	.Ldebug_ranges0+0x358
 17387 4b21 3F       		.uleb128 0x3f
 17388 4b22 00450000 		.4byte	0x4500
 17389 4b26 30       		.uleb128 0x30
 17390 4b27 F5440000 		.4byte	0x44f5
 17391 4b2b E12A0000 		.4byte	.LLST84
 17392 4b2f 30       		.uleb128 0x30
 17393 4b30 EC440000 		.4byte	0x44ec
 17394 4b34 172B0000 		.4byte	.LLST85
 17395 4b38 30       		.uleb128 0x30
 17396 4b39 E1440000 		.4byte	0x44e1
 17397 4b3d 372B0000 		.4byte	.LLST86
 17398 4b41 2E       		.uleb128 0x2e
 17399 4b42 58030000 		.4byte	.Ldebug_ranges0+0x358
 17400 4b46 44       		.uleb128 0x44
ARM GAS  /tmp/ccs3e2Sq.s 			page 307


 17401 4b47 0B450000 		.4byte	0x450b
 17402 4b4b 552B0000 		.4byte	.LLST87
 17403 4b4f 00       		.byte	0
 17404 4b50 00       		.byte	0
 17405 4b51 00       		.byte	0
 17406 4b52 00       		.byte	0
 17407 4b53 00       		.byte	0
 17408 4b54 00       		.byte	0
 17409 4b55 00       		.byte	0
 17410 4b56 55       		.uleb128 0x55
 17411 4b57 E3350000 		.4byte	0x35e3
 17412 4b5b 00000000 		.4byte	.LFB343
 17413 4b5f 78000000 		.4byte	.LFE343-.LFB343
 17414 4b63 01       		.uleb128 0x1
 17415 4b64 9C       		.byte	0x9c
 17416 4b65 584C0000 		.4byte	0x4c58
 17417 4b69 44       		.uleb128 0x44
 17418 4b6a F0350000 		.4byte	0x35f0
 17419 4b6e 732B0000 		.4byte	.LLST237
 17420 4b72 2F       		.uleb128 0x2f
 17421 4b73 FA350000 		.4byte	0x35fa
 17422 4b77 2D       		.uleb128 0x2d
 17423 4b78 99450000 		.4byte	0x4599
 17424 4b7c 08000000 		.4byte	.LBB896
 17425 4b80 880A0000 		.4byte	.Ldebug_ranges0+0xa88
 17426 4b84 01       		.byte	0x1
 17427 4b85 8101     		.2byte	0x181
 17428 4b87 B04B0000 		.4byte	0x4bb0
 17429 4b8b 30       		.uleb128 0x30
 17430 4b8c A5450000 		.4byte	0x45a5
 17431 4b90 A32B0000 		.4byte	.LLST238
 17432 4b94 31       		.uleb128 0x31
 17433 4b95 28000000 		.4byte	.LVL453
 17434 4b99 584C0000 		.4byte	0x4c58
 17435 4b9d 32       		.uleb128 0x32
 17436 4b9e 01       		.uleb128 0x1
 17437 4b9f 50       		.byte	0x50
 17438 4ba0 02       		.uleb128 0x2
 17439 4ba1 76       		.byte	0x76
 17440 4ba2 00       		.sleb128 0
 17441 4ba3 32       		.uleb128 0x32
 17442 4ba4 01       		.uleb128 0x1
 17443 4ba5 51       		.byte	0x51
 17444 4ba6 01       		.uleb128 0x1
 17445 4ba7 31       		.byte	0x31
 17446 4ba8 32       		.uleb128 0x32
 17447 4ba9 01       		.uleb128 0x1
 17448 4baa 52       		.byte	0x52
 17449 4bab 02       		.uleb128 0x2
 17450 4bac 91       		.byte	0x91
 17451 4bad 5E       		.sleb128 -34
 17452 4bae 00       		.byte	0
 17453 4baf 00       		.byte	0
 17454 4bb0 33       		.uleb128 0x33
 17455 4bb1 99450000 		.4byte	0x4599
 17456 4bb5 28000000 		.4byte	.LBB900
 17457 4bb9 12000000 		.4byte	.LBE900-.LBB900
ARM GAS  /tmp/ccs3e2Sq.s 			page 308


 17458 4bbd 01       		.byte	0x1
 17459 4bbe 8201     		.2byte	0x182
 17460 4bc0 E94B0000 		.4byte	0x4be9
 17461 4bc4 30       		.uleb128 0x30
 17462 4bc5 A5450000 		.4byte	0x45a5
 17463 4bc9 B62B0000 		.4byte	.LLST239
 17464 4bcd 31       		.uleb128 0x31
 17465 4bce 38000000 		.4byte	.LVL455
 17466 4bd2 584C0000 		.4byte	0x4c58
 17467 4bd6 32       		.uleb128 0x32
 17468 4bd7 01       		.uleb128 0x1
 17469 4bd8 50       		.byte	0x50
 17470 4bd9 02       		.uleb128 0x2
 17471 4bda 76       		.byte	0x76
 17472 4bdb 00       		.sleb128 0
 17473 4bdc 32       		.uleb128 0x32
 17474 4bdd 01       		.uleb128 0x1
 17475 4bde 51       		.byte	0x51
 17476 4bdf 01       		.uleb128 0x1
 17477 4be0 31       		.byte	0x31
 17478 4be1 32       		.uleb128 0x32
 17479 4be2 01       		.uleb128 0x1
 17480 4be3 52       		.byte	0x52
 17481 4be4 02       		.uleb128 0x2
 17482 4be5 91       		.byte	0x91
 17483 4be6 5D       		.sleb128 -35
 17484 4be7 00       		.byte	0
 17485 4be8 00       		.byte	0
 17486 4be9 2D       		.uleb128 0x2d
 17487 4bea 99450000 		.4byte	0x4599
 17488 4bee 3A000000 		.4byte	.LBB902
 17489 4bf2 A00A0000 		.4byte	.Ldebug_ranges0+0xaa0
 17490 4bf6 01       		.byte	0x1
 17491 4bf7 8301     		.2byte	0x183
 17492 4bf9 224C0000 		.4byte	0x4c22
 17493 4bfd 30       		.uleb128 0x30
 17494 4bfe A5450000 		.4byte	0x45a5
 17495 4c02 C92B0000 		.4byte	.LLST240
 17496 4c06 31       		.uleb128 0x31
 17497 4c07 4A000000 		.4byte	.LVL457
 17498 4c0b 584C0000 		.4byte	0x4c58
 17499 4c0f 32       		.uleb128 0x32
 17500 4c10 01       		.uleb128 0x1
 17501 4c11 50       		.byte	0x50
 17502 4c12 02       		.uleb128 0x2
 17503 4c13 76       		.byte	0x76
 17504 4c14 00       		.sleb128 0
 17505 4c15 32       		.uleb128 0x32
 17506 4c16 01       		.uleb128 0x1
 17507 4c17 51       		.byte	0x51
 17508 4c18 01       		.uleb128 0x1
 17509 4c19 31       		.byte	0x31
 17510 4c1a 32       		.uleb128 0x32
 17511 4c1b 01       		.uleb128 0x1
 17512 4c1c 52       		.byte	0x52
 17513 4c1d 02       		.uleb128 0x2
 17514 4c1e 91       		.byte	0x91
ARM GAS  /tmp/ccs3e2Sq.s 			page 309


 17515 4c1f 5C       		.sleb128 -36
 17516 4c20 00       		.byte	0
 17517 4c21 00       		.byte	0
 17518 4c22 34       		.uleb128 0x34
 17519 4c23 99450000 		.4byte	0x4599
 17520 4c27 4E000000 		.4byte	.LBB906
 17521 4c2b 10000000 		.4byte	.LBE906-.LBB906
 17522 4c2f 01       		.byte	0x1
 17523 4c30 8601     		.2byte	0x186
 17524 4c32 30       		.uleb128 0x30
 17525 4c33 A5450000 		.4byte	0x45a5
 17526 4c37 DC2B0000 		.4byte	.LLST241
 17527 4c3b 31       		.uleb128 0x31
 17528 4c3c 5E000000 		.4byte	.LVL460
 17529 4c40 584C0000 		.4byte	0x4c58
 17530 4c44 32       		.uleb128 0x32
 17531 4c45 01       		.uleb128 0x1
 17532 4c46 50       		.byte	0x50
 17533 4c47 02       		.uleb128 0x2
 17534 4c48 76       		.byte	0x76
 17535 4c49 00       		.sleb128 0
 17536 4c4a 32       		.uleb128 0x32
 17537 4c4b 01       		.uleb128 0x1
 17538 4c4c 51       		.byte	0x51
 17539 4c4d 01       		.uleb128 0x1
 17540 4c4e 31       		.byte	0x31
 17541 4c4f 32       		.uleb128 0x32
 17542 4c50 01       		.uleb128 0x1
 17543 4c51 52       		.byte	0x52
 17544 4c52 02       		.uleb128 0x2
 17545 4c53 91       		.byte	0x91
 17546 4c54 5F       		.sleb128 -33
 17547 4c55 00       		.byte	0
 17548 4c56 00       		.byte	0
 17549 4c57 00       		.byte	0
 17550 4c58 57       		.uleb128 0x57
 17551 4c59 98020000 		.4byte	.LASF640
 17552 4c5d 98020000 		.4byte	.LASF640
 17553 4c61 27       		.byte	0x27
 17554 4c62 0502     		.2byte	0x205
 17555 4c64 58       		.uleb128 0x58
 17556 4c65 BF0A0000 		.4byte	.LASF641
 17557 4c69 BF0A0000 		.4byte	.LASF641
 17558 4c6d 30       		.byte	0x30
 17559 4c6e FD       		.byte	0xfd
 17560 4c6f 00       		.byte	0
 17561              		.section	.debug_abbrev,"",%progbits
 17562              	.Ldebug_abbrev0:
 17563 0000 01       		.uleb128 0x1
 17564 0001 11       		.uleb128 0x11
 17565 0002 01       		.byte	0x1
 17566 0003 25       		.uleb128 0x25
 17567 0004 0E       		.uleb128 0xe
 17568 0005 13       		.uleb128 0x13
 17569 0006 0B       		.uleb128 0xb
 17570 0007 03       		.uleb128 0x3
 17571 0008 0E       		.uleb128 0xe
ARM GAS  /tmp/ccs3e2Sq.s 			page 310


 17572 0009 1B       		.uleb128 0x1b
 17573 000a 0E       		.uleb128 0xe
 17574 000b 55       		.uleb128 0x55
 17575 000c 17       		.uleb128 0x17
 17576 000d 11       		.uleb128 0x11
 17577 000e 01       		.uleb128 0x1
 17578 000f 10       		.uleb128 0x10
 17579 0010 17       		.uleb128 0x17
 17580 0011 00       		.byte	0
 17581 0012 00       		.byte	0
 17582 0013 02       		.uleb128 0x2
 17583 0014 24       		.uleb128 0x24
 17584 0015 00       		.byte	0
 17585 0016 0B       		.uleb128 0xb
 17586 0017 0B       		.uleb128 0xb
 17587 0018 3E       		.uleb128 0x3e
 17588 0019 0B       		.uleb128 0xb
 17589 001a 03       		.uleb128 0x3
 17590 001b 08       		.uleb128 0x8
 17591 001c 00       		.byte	0
 17592 001d 00       		.byte	0
 17593 001e 03       		.uleb128 0x3
 17594 001f 16       		.uleb128 0x16
 17595 0020 00       		.byte	0
 17596 0021 03       		.uleb128 0x3
 17597 0022 0E       		.uleb128 0xe
 17598 0023 3A       		.uleb128 0x3a
 17599 0024 0B       		.uleb128 0xb
 17600 0025 3B       		.uleb128 0x3b
 17601 0026 0B       		.uleb128 0xb
 17602 0027 49       		.uleb128 0x49
 17603 0028 13       		.uleb128 0x13
 17604 0029 00       		.byte	0
 17605 002a 00       		.byte	0
 17606 002b 04       		.uleb128 0x4
 17607 002c 35       		.uleb128 0x35
 17608 002d 00       		.byte	0
 17609 002e 49       		.uleb128 0x49
 17610 002f 13       		.uleb128 0x13
 17611 0030 00       		.byte	0
 17612 0031 00       		.byte	0
 17613 0032 05       		.uleb128 0x5
 17614 0033 24       		.uleb128 0x24
 17615 0034 00       		.byte	0
 17616 0035 0B       		.uleb128 0xb
 17617 0036 0B       		.uleb128 0xb
 17618 0037 3E       		.uleb128 0x3e
 17619 0038 0B       		.uleb128 0xb
 17620 0039 03       		.uleb128 0x3
 17621 003a 0E       		.uleb128 0xe
 17622 003b 00       		.byte	0
 17623 003c 00       		.byte	0
 17624 003d 06       		.uleb128 0x6
 17625 003e 26       		.uleb128 0x26
 17626 003f 00       		.byte	0
 17627 0040 49       		.uleb128 0x49
 17628 0041 13       		.uleb128 0x13
ARM GAS  /tmp/ccs3e2Sq.s 			page 311


 17629 0042 00       		.byte	0
 17630 0043 00       		.byte	0
 17631 0044 07       		.uleb128 0x7
 17632 0045 13       		.uleb128 0x13
 17633 0046 01       		.byte	0x1
 17634 0047 03       		.uleb128 0x3
 17635 0048 0E       		.uleb128 0xe
 17636 0049 0B       		.uleb128 0xb
 17637 004a 0B       		.uleb128 0xb
 17638 004b 3A       		.uleb128 0x3a
 17639 004c 0B       		.uleb128 0xb
 17640 004d 3B       		.uleb128 0x3b
 17641 004e 0B       		.uleb128 0xb
 17642 004f 01       		.uleb128 0x1
 17643 0050 13       		.uleb128 0x13
 17644 0051 00       		.byte	0
 17645 0052 00       		.byte	0
 17646 0053 08       		.uleb128 0x8
 17647 0054 0D       		.uleb128 0xd
 17648 0055 00       		.byte	0
 17649 0056 03       		.uleb128 0x3
 17650 0057 0E       		.uleb128 0xe
 17651 0058 3A       		.uleb128 0x3a
 17652 0059 0B       		.uleb128 0xb
 17653 005a 3B       		.uleb128 0x3b
 17654 005b 0B       		.uleb128 0xb
 17655 005c 49       		.uleb128 0x49
 17656 005d 13       		.uleb128 0x13
 17657 005e 38       		.uleb128 0x38
 17658 005f 0B       		.uleb128 0xb
 17659 0060 00       		.byte	0
 17660 0061 00       		.byte	0
 17661 0062 09       		.uleb128 0x9
 17662 0063 0D       		.uleb128 0xd
 17663 0064 00       		.byte	0
 17664 0065 03       		.uleb128 0x3
 17665 0066 08       		.uleb128 0x8
 17666 0067 3A       		.uleb128 0x3a
 17667 0068 0B       		.uleb128 0xb
 17668 0069 3B       		.uleb128 0x3b
 17669 006a 0B       		.uleb128 0xb
 17670 006b 49       		.uleb128 0x49
 17671 006c 13       		.uleb128 0x13
 17672 006d 38       		.uleb128 0x38
 17673 006e 0B       		.uleb128 0xb
 17674 006f 00       		.byte	0
 17675 0070 00       		.byte	0
 17676 0071 0A       		.uleb128 0xa
 17677 0072 0D       		.uleb128 0xd
 17678 0073 00       		.byte	0
 17679 0074 03       		.uleb128 0x3
 17680 0075 08       		.uleb128 0x8
 17681 0076 3A       		.uleb128 0x3a
 17682 0077 0B       		.uleb128 0xb
 17683 0078 3B       		.uleb128 0x3b
 17684 0079 05       		.uleb128 0x5
 17685 007a 49       		.uleb128 0x49
ARM GAS  /tmp/ccs3e2Sq.s 			page 312


 17686 007b 13       		.uleb128 0x13
 17687 007c 38       		.uleb128 0x38
 17688 007d 0B       		.uleb128 0xb
 17689 007e 00       		.byte	0
 17690 007f 00       		.byte	0
 17691 0080 0B       		.uleb128 0xb
 17692 0081 0D       		.uleb128 0xd
 17693 0082 00       		.byte	0
 17694 0083 03       		.uleb128 0x3
 17695 0084 0E       		.uleb128 0xe
 17696 0085 3A       		.uleb128 0x3a
 17697 0086 0B       		.uleb128 0xb
 17698 0087 3B       		.uleb128 0x3b
 17699 0088 05       		.uleb128 0x5
 17700 0089 49       		.uleb128 0x49
 17701 008a 13       		.uleb128 0x13
 17702 008b 38       		.uleb128 0x38
 17703 008c 0B       		.uleb128 0xb
 17704 008d 00       		.byte	0
 17705 008e 00       		.byte	0
 17706 008f 0C       		.uleb128 0xc
 17707 0090 0F       		.uleb128 0xf
 17708 0091 00       		.byte	0
 17709 0092 0B       		.uleb128 0xb
 17710 0093 0B       		.uleb128 0xb
 17711 0094 49       		.uleb128 0x49
 17712 0095 13       		.uleb128 0x13
 17713 0096 00       		.byte	0
 17714 0097 00       		.byte	0
 17715 0098 0D       		.uleb128 0xd
 17716 0099 13       		.uleb128 0x13
 17717 009a 01       		.byte	0x1
 17718 009b 03       		.uleb128 0x3
 17719 009c 0E       		.uleb128 0xe
 17720 009d 0B       		.uleb128 0xb
 17721 009e 0B       		.uleb128 0xb
 17722 009f 3A       		.uleb128 0x3a
 17723 00a0 0B       		.uleb128 0xb
 17724 00a1 3B       		.uleb128 0x3b
 17725 00a2 05       		.uleb128 0x5
 17726 00a3 01       		.uleb128 0x1
 17727 00a4 13       		.uleb128 0x13
 17728 00a5 00       		.byte	0
 17729 00a6 00       		.byte	0
 17730 00a7 0E       		.uleb128 0xe
 17731 00a8 15       		.uleb128 0x15
 17732 00a9 01       		.byte	0x1
 17733 00aa 27       		.uleb128 0x27
 17734 00ab 19       		.uleb128 0x19
 17735 00ac 01       		.uleb128 0x1
 17736 00ad 13       		.uleb128 0x13
 17737 00ae 00       		.byte	0
 17738 00af 00       		.byte	0
 17739 00b0 0F       		.uleb128 0xf
 17740 00b1 05       		.uleb128 0x5
 17741 00b2 00       		.byte	0
 17742 00b3 49       		.uleb128 0x49
ARM GAS  /tmp/ccs3e2Sq.s 			page 313


 17743 00b4 13       		.uleb128 0x13
 17744 00b5 00       		.byte	0
 17745 00b6 00       		.byte	0
 17746 00b7 10       		.uleb128 0x10
 17747 00b8 0F       		.uleb128 0xf
 17748 00b9 00       		.byte	0
 17749 00ba 0B       		.uleb128 0xb
 17750 00bb 0B       		.uleb128 0xb
 17751 00bc 00       		.byte	0
 17752 00bd 00       		.byte	0
 17753 00be 11       		.uleb128 0x11
 17754 00bf 01       		.uleb128 0x1
 17755 00c0 01       		.byte	0x1
 17756 00c1 49       		.uleb128 0x49
 17757 00c2 13       		.uleb128 0x13
 17758 00c3 01       		.uleb128 0x1
 17759 00c4 13       		.uleb128 0x13
 17760 00c5 00       		.byte	0
 17761 00c6 00       		.byte	0
 17762 00c7 12       		.uleb128 0x12
 17763 00c8 21       		.uleb128 0x21
 17764 00c9 00       		.byte	0
 17765 00ca 49       		.uleb128 0x49
 17766 00cb 13       		.uleb128 0x13
 17767 00cc 2F       		.uleb128 0x2f
 17768 00cd 0B       		.uleb128 0xb
 17769 00ce 00       		.byte	0
 17770 00cf 00       		.byte	0
 17771 00d0 13       		.uleb128 0x13
 17772 00d1 34       		.uleb128 0x34
 17773 00d2 00       		.byte	0
 17774 00d3 03       		.uleb128 0x3
 17775 00d4 0E       		.uleb128 0xe
 17776 00d5 3A       		.uleb128 0x3a
 17777 00d6 0B       		.uleb128 0xb
 17778 00d7 3B       		.uleb128 0x3b
 17779 00d8 05       		.uleb128 0x5
 17780 00d9 49       		.uleb128 0x49
 17781 00da 13       		.uleb128 0x13
 17782 00db 3F       		.uleb128 0x3f
 17783 00dc 19       		.uleb128 0x19
 17784 00dd 3C       		.uleb128 0x3c
 17785 00de 19       		.uleb128 0x19
 17786 00df 00       		.byte	0
 17787 00e0 00       		.byte	0
 17788 00e1 14       		.uleb128 0x14
 17789 00e2 34       		.uleb128 0x34
 17790 00e3 00       		.byte	0
 17791 00e4 03       		.uleb128 0x3
 17792 00e5 0E       		.uleb128 0xe
 17793 00e6 3A       		.uleb128 0x3a
 17794 00e7 0B       		.uleb128 0xb
 17795 00e8 3B       		.uleb128 0x3b
 17796 00e9 0B       		.uleb128 0xb
 17797 00ea 49       		.uleb128 0x49
 17798 00eb 13       		.uleb128 0x13
 17799 00ec 3F       		.uleb128 0x3f
ARM GAS  /tmp/ccs3e2Sq.s 			page 314


 17800 00ed 19       		.uleb128 0x19
 17801 00ee 3C       		.uleb128 0x3c
 17802 00ef 19       		.uleb128 0x19
 17803 00f0 00       		.byte	0
 17804 00f1 00       		.byte	0
 17805 00f2 15       		.uleb128 0x15
 17806 00f3 13       		.uleb128 0x13
 17807 00f4 01       		.byte	0x1
 17808 00f5 0B       		.uleb128 0xb
 17809 00f6 0B       		.uleb128 0xb
 17810 00f7 3A       		.uleb128 0x3a
 17811 00f8 0B       		.uleb128 0xb
 17812 00f9 3B       		.uleb128 0x3b
 17813 00fa 0B       		.uleb128 0xb
 17814 00fb 01       		.uleb128 0x1
 17815 00fc 13       		.uleb128 0x13
 17816 00fd 00       		.byte	0
 17817 00fe 00       		.byte	0
 17818 00ff 16       		.uleb128 0x16
 17819 0100 16       		.uleb128 0x16
 17820 0101 00       		.byte	0
 17821 0102 03       		.uleb128 0x3
 17822 0103 0E       		.uleb128 0xe
 17823 0104 3A       		.uleb128 0x3a
 17824 0105 0B       		.uleb128 0xb
 17825 0106 3B       		.uleb128 0x3b
 17826 0107 05       		.uleb128 0x5
 17827 0108 49       		.uleb128 0x49
 17828 0109 13       		.uleb128 0x13
 17829 010a 00       		.byte	0
 17830 010b 00       		.byte	0
 17831 010c 17       		.uleb128 0x17
 17832 010d 13       		.uleb128 0x13
 17833 010e 01       		.byte	0x1
 17834 010f 0B       		.uleb128 0xb
 17835 0110 0B       		.uleb128 0xb
 17836 0111 3A       		.uleb128 0x3a
 17837 0112 0B       		.uleb128 0xb
 17838 0113 3B       		.uleb128 0x3b
 17839 0114 05       		.uleb128 0x5
 17840 0115 01       		.uleb128 0x1
 17841 0116 13       		.uleb128 0x13
 17842 0117 00       		.byte	0
 17843 0118 00       		.byte	0
 17844 0119 18       		.uleb128 0x18
 17845 011a 13       		.uleb128 0x13
 17846 011b 01       		.byte	0x1
 17847 011c 0B       		.uleb128 0xb
 17848 011d 05       		.uleb128 0x5
 17849 011e 3A       		.uleb128 0x3a
 17850 011f 0B       		.uleb128 0xb
 17851 0120 3B       		.uleb128 0x3b
 17852 0121 05       		.uleb128 0x5
 17853 0122 01       		.uleb128 0x1
 17854 0123 13       		.uleb128 0x13
 17855 0124 00       		.byte	0
 17856 0125 00       		.byte	0
ARM GAS  /tmp/ccs3e2Sq.s 			page 315


 17857 0126 19       		.uleb128 0x19
 17858 0127 0D       		.uleb128 0xd
 17859 0128 00       		.byte	0
 17860 0129 03       		.uleb128 0x3
 17861 012a 0E       		.uleb128 0xe
 17862 012b 3A       		.uleb128 0x3a
 17863 012c 0B       		.uleb128 0xb
 17864 012d 3B       		.uleb128 0x3b
 17865 012e 05       		.uleb128 0x5
 17866 012f 49       		.uleb128 0x49
 17867 0130 13       		.uleb128 0x13
 17868 0131 38       		.uleb128 0x38
 17869 0132 05       		.uleb128 0x5
 17870 0133 00       		.byte	0
 17871 0134 00       		.byte	0
 17872 0135 1A       		.uleb128 0x1a
 17873 0136 0D       		.uleb128 0xd
 17874 0137 00       		.byte	0
 17875 0138 03       		.uleb128 0x3
 17876 0139 08       		.uleb128 0x8
 17877 013a 3A       		.uleb128 0x3a
 17878 013b 0B       		.uleb128 0xb
 17879 013c 3B       		.uleb128 0x3b
 17880 013d 05       		.uleb128 0x5
 17881 013e 49       		.uleb128 0x49
 17882 013f 13       		.uleb128 0x13
 17883 0140 38       		.uleb128 0x38
 17884 0141 05       		.uleb128 0x5
 17885 0142 00       		.byte	0
 17886 0143 00       		.byte	0
 17887 0144 1B       		.uleb128 0x1b
 17888 0145 17       		.uleb128 0x17
 17889 0146 01       		.byte	0x1
 17890 0147 0B       		.uleb128 0xb
 17891 0148 0B       		.uleb128 0xb
 17892 0149 3A       		.uleb128 0x3a
 17893 014a 0B       		.uleb128 0xb
 17894 014b 3B       		.uleb128 0x3b
 17895 014c 0B       		.uleb128 0xb
 17896 014d 01       		.uleb128 0x1
 17897 014e 13       		.uleb128 0x13
 17898 014f 00       		.byte	0
 17899 0150 00       		.byte	0
 17900 0151 1C       		.uleb128 0x1c
 17901 0152 0D       		.uleb128 0xd
 17902 0153 00       		.byte	0
 17903 0154 03       		.uleb128 0x3
 17904 0155 0E       		.uleb128 0xe
 17905 0156 3A       		.uleb128 0x3a
 17906 0157 0B       		.uleb128 0xb
 17907 0158 3B       		.uleb128 0x3b
 17908 0159 0B       		.uleb128 0xb
 17909 015a 49       		.uleb128 0x49
 17910 015b 13       		.uleb128 0x13
 17911 015c 00       		.byte	0
 17912 015d 00       		.byte	0
 17913 015e 1D       		.uleb128 0x1d
ARM GAS  /tmp/ccs3e2Sq.s 			page 316


 17914 015f 0D       		.uleb128 0xd
 17915 0160 00       		.byte	0
 17916 0161 03       		.uleb128 0x3
 17917 0162 0E       		.uleb128 0xe
 17918 0163 3A       		.uleb128 0x3a
 17919 0164 0B       		.uleb128 0xb
 17920 0165 3B       		.uleb128 0x3b
 17921 0166 05       		.uleb128 0x5
 17922 0167 49       		.uleb128 0x49
 17923 0168 13       		.uleb128 0x13
 17924 0169 00       		.byte	0
 17925 016a 00       		.byte	0
 17926 016b 1E       		.uleb128 0x1e
 17927 016c 34       		.uleb128 0x34
 17928 016d 00       		.byte	0
 17929 016e 03       		.uleb128 0x3
 17930 016f 08       		.uleb128 0x8
 17931 0170 3A       		.uleb128 0x3a
 17932 0171 0B       		.uleb128 0xb
 17933 0172 3B       		.uleb128 0x3b
 17934 0173 05       		.uleb128 0x5
 17935 0174 49       		.uleb128 0x49
 17936 0175 13       		.uleb128 0x13
 17937 0176 3F       		.uleb128 0x3f
 17938 0177 19       		.uleb128 0x19
 17939 0178 3C       		.uleb128 0x3c
 17940 0179 19       		.uleb128 0x19
 17941 017a 00       		.byte	0
 17942 017b 00       		.byte	0
 17943 017c 1F       		.uleb128 0x1f
 17944 017d 21       		.uleb128 0x21
 17945 017e 00       		.byte	0
 17946 017f 00       		.byte	0
 17947 0180 00       		.byte	0
 17948 0181 20       		.uleb128 0x20
 17949 0182 15       		.uleb128 0x15
 17950 0183 01       		.byte	0x1
 17951 0184 27       		.uleb128 0x27
 17952 0185 19       		.uleb128 0x19
 17953 0186 49       		.uleb128 0x49
 17954 0187 13       		.uleb128 0x13
 17955 0188 01       		.uleb128 0x1
 17956 0189 13       		.uleb128 0x13
 17957 018a 00       		.byte	0
 17958 018b 00       		.byte	0
 17959 018c 21       		.uleb128 0x21
 17960 018d 0D       		.uleb128 0xd
 17961 018e 00       		.byte	0
 17962 018f 03       		.uleb128 0x3
 17963 0190 08       		.uleb128 0x8
 17964 0191 3A       		.uleb128 0x3a
 17965 0192 0B       		.uleb128 0xb
 17966 0193 3B       		.uleb128 0x3b
 17967 0194 0B       		.uleb128 0xb
 17968 0195 49       		.uleb128 0x49
 17969 0196 13       		.uleb128 0x13
 17970 0197 00       		.byte	0
ARM GAS  /tmp/ccs3e2Sq.s 			page 317


 17971 0198 00       		.byte	0
 17972 0199 22       		.uleb128 0x22
 17973 019a 04       		.uleb128 0x4
 17974 019b 01       		.byte	0x1
 17975 019c 3E       		.uleb128 0x3e
 17976 019d 0B       		.uleb128 0xb
 17977 019e 0B       		.uleb128 0xb
 17978 019f 0B       		.uleb128 0xb
 17979 01a0 49       		.uleb128 0x49
 17980 01a1 13       		.uleb128 0x13
 17981 01a2 3A       		.uleb128 0x3a
 17982 01a3 0B       		.uleb128 0xb
 17983 01a4 3B       		.uleb128 0x3b
 17984 01a5 0B       		.uleb128 0xb
 17985 01a6 01       		.uleb128 0x1
 17986 01a7 13       		.uleb128 0x13
 17987 01a8 00       		.byte	0
 17988 01a9 00       		.byte	0
 17989 01aa 23       		.uleb128 0x23
 17990 01ab 28       		.uleb128 0x28
 17991 01ac 00       		.byte	0
 17992 01ad 03       		.uleb128 0x3
 17993 01ae 0E       		.uleb128 0xe
 17994 01af 1C       		.uleb128 0x1c
 17995 01b0 0B       		.uleb128 0xb
 17996 01b1 00       		.byte	0
 17997 01b2 00       		.byte	0
 17998 01b3 24       		.uleb128 0x24
 17999 01b4 04       		.uleb128 0x4
 18000 01b5 01       		.byte	0x1
 18001 01b6 3E       		.uleb128 0x3e
 18002 01b7 0B       		.uleb128 0xb
 18003 01b8 0B       		.uleb128 0xb
 18004 01b9 0B       		.uleb128 0xb
 18005 01ba 49       		.uleb128 0x49
 18006 01bb 13       		.uleb128 0x13
 18007 01bc 3A       		.uleb128 0x3a
 18008 01bd 0B       		.uleb128 0xb
 18009 01be 3B       		.uleb128 0x3b
 18010 01bf 05       		.uleb128 0x5
 18011 01c0 01       		.uleb128 0x1
 18012 01c1 13       		.uleb128 0x13
 18013 01c2 00       		.byte	0
 18014 01c3 00       		.byte	0
 18015 01c4 25       		.uleb128 0x25
 18016 01c5 13       		.uleb128 0x13
 18017 01c6 01       		.byte	0x1
 18018 01c7 0B       		.uleb128 0xb
 18019 01c8 06       		.uleb128 0x6
 18020 01c9 3A       		.uleb128 0x3a
 18021 01ca 0B       		.uleb128 0xb
 18022 01cb 3B       		.uleb128 0x3b
 18023 01cc 0B       		.uleb128 0xb
 18024 01cd 01       		.uleb128 0x1
 18025 01ce 13       		.uleb128 0x13
 18026 01cf 00       		.byte	0
 18027 01d0 00       		.byte	0
ARM GAS  /tmp/ccs3e2Sq.s 			page 318


 18028 01d1 26       		.uleb128 0x26
 18029 01d2 0D       		.uleb128 0xd
 18030 01d3 00       		.byte	0
 18031 01d4 03       		.uleb128 0x3
 18032 01d5 0E       		.uleb128 0xe
 18033 01d6 3A       		.uleb128 0x3a
 18034 01d7 0B       		.uleb128 0xb
 18035 01d8 3B       		.uleb128 0x3b
 18036 01d9 0B       		.uleb128 0xb
 18037 01da 49       		.uleb128 0x49
 18038 01db 13       		.uleb128 0x13
 18039 01dc 38       		.uleb128 0x38
 18040 01dd 05       		.uleb128 0x5
 18041 01de 00       		.byte	0
 18042 01df 00       		.byte	0
 18043 01e0 27       		.uleb128 0x27
 18044 01e1 0D       		.uleb128 0xd
 18045 01e2 00       		.byte	0
 18046 01e3 03       		.uleb128 0x3
 18047 01e4 08       		.uleb128 0x8
 18048 01e5 3A       		.uleb128 0x3a
 18049 01e6 0B       		.uleb128 0xb
 18050 01e7 3B       		.uleb128 0x3b
 18051 01e8 0B       		.uleb128 0xb
 18052 01e9 49       		.uleb128 0x49
 18053 01ea 13       		.uleb128 0x13
 18054 01eb 38       		.uleb128 0x38
 18055 01ec 05       		.uleb128 0x5
 18056 01ed 00       		.byte	0
 18057 01ee 00       		.byte	0
 18058 01ef 28       		.uleb128 0x28
 18059 01f0 21       		.uleb128 0x21
 18060 01f1 00       		.byte	0
 18061 01f2 49       		.uleb128 0x49
 18062 01f3 13       		.uleb128 0x13
 18063 01f4 2F       		.uleb128 0x2f
 18064 01f5 05       		.uleb128 0x5
 18065 01f6 00       		.byte	0
 18066 01f7 00       		.byte	0
 18067 01f8 29       		.uleb128 0x29
 18068 01f9 04       		.uleb128 0x4
 18069 01fa 01       		.byte	0x1
 18070 01fb 03       		.uleb128 0x3
 18071 01fc 0E       		.uleb128 0xe
 18072 01fd 3E       		.uleb128 0x3e
 18073 01fe 0B       		.uleb128 0xb
 18074 01ff 0B       		.uleb128 0xb
 18075 0200 0B       		.uleb128 0xb
 18076 0201 49       		.uleb128 0x49
 18077 0202 13       		.uleb128 0x13
 18078 0203 3A       		.uleb128 0x3a
 18079 0204 0B       		.uleb128 0xb
 18080 0205 3B       		.uleb128 0x3b
 18081 0206 0B       		.uleb128 0xb
 18082 0207 01       		.uleb128 0x1
 18083 0208 13       		.uleb128 0x13
 18084 0209 00       		.byte	0
ARM GAS  /tmp/ccs3e2Sq.s 			page 319


 18085 020a 00       		.byte	0
 18086 020b 2A       		.uleb128 0x2a
 18087 020c 34       		.uleb128 0x34
 18088 020d 00       		.byte	0
 18089 020e 03       		.uleb128 0x3
 18090 020f 0E       		.uleb128 0xe
 18091 0210 3A       		.uleb128 0x3a
 18092 0211 0B       		.uleb128 0xb
 18093 0212 3B       		.uleb128 0x3b
 18094 0213 0B       		.uleb128 0xb
 18095 0214 49       		.uleb128 0x49
 18096 0215 13       		.uleb128 0x13
 18097 0216 3F       		.uleb128 0x3f
 18098 0217 19       		.uleb128 0x19
 18099 0218 02       		.uleb128 0x2
 18100 0219 18       		.uleb128 0x18
 18101 021a 00       		.byte	0
 18102 021b 00       		.byte	0
 18103 021c 2B       		.uleb128 0x2b
 18104 021d 34       		.uleb128 0x34
 18105 021e 00       		.byte	0
 18106 021f 03       		.uleb128 0x3
 18107 0220 08       		.uleb128 0x8
 18108 0221 3A       		.uleb128 0x3a
 18109 0222 0B       		.uleb128 0xb
 18110 0223 3B       		.uleb128 0x3b
 18111 0224 0B       		.uleb128 0xb
 18112 0225 49       		.uleb128 0x49
 18113 0226 13       		.uleb128 0x13
 18114 0227 3F       		.uleb128 0x3f
 18115 0228 19       		.uleb128 0x19
 18116 0229 02       		.uleb128 0x2
 18117 022a 18       		.uleb128 0x18
 18118 022b 00       		.byte	0
 18119 022c 00       		.byte	0
 18120 022d 2C       		.uleb128 0x2c
 18121 022e 2E       		.uleb128 0x2e
 18122 022f 01       		.byte	0x1
 18123 0230 3F       		.uleb128 0x3f
 18124 0231 19       		.uleb128 0x19
 18125 0232 03       		.uleb128 0x3
 18126 0233 0E       		.uleb128 0xe
 18127 0234 3A       		.uleb128 0x3a
 18128 0235 0B       		.uleb128 0xb
 18129 0236 3B       		.uleb128 0x3b
 18130 0237 05       		.uleb128 0x5
 18131 0238 27       		.uleb128 0x27
 18132 0239 19       		.uleb128 0x19
 18133 023a 11       		.uleb128 0x11
 18134 023b 01       		.uleb128 0x1
 18135 023c 12       		.uleb128 0x12
 18136 023d 06       		.uleb128 0x6
 18137 023e 40       		.uleb128 0x40
 18138 023f 18       		.uleb128 0x18
 18139 0240 9742     		.uleb128 0x2117
 18140 0242 19       		.uleb128 0x19
 18141 0243 01       		.uleb128 0x1
ARM GAS  /tmp/ccs3e2Sq.s 			page 320


 18142 0244 13       		.uleb128 0x13
 18143 0245 00       		.byte	0
 18144 0246 00       		.byte	0
 18145 0247 2D       		.uleb128 0x2d
 18146 0248 1D       		.uleb128 0x1d
 18147 0249 01       		.byte	0x1
 18148 024a 31       		.uleb128 0x31
 18149 024b 13       		.uleb128 0x13
 18150 024c 52       		.uleb128 0x52
 18151 024d 01       		.uleb128 0x1
 18152 024e 55       		.uleb128 0x55
 18153 024f 17       		.uleb128 0x17
 18154 0250 58       		.uleb128 0x58
 18155 0251 0B       		.uleb128 0xb
 18156 0252 59       		.uleb128 0x59
 18157 0253 05       		.uleb128 0x5
 18158 0254 01       		.uleb128 0x1
 18159 0255 13       		.uleb128 0x13
 18160 0256 00       		.byte	0
 18161 0257 00       		.byte	0
 18162 0258 2E       		.uleb128 0x2e
 18163 0259 0B       		.uleb128 0xb
 18164 025a 01       		.byte	0x1
 18165 025b 55       		.uleb128 0x55
 18166 025c 17       		.uleb128 0x17
 18167 025d 00       		.byte	0
 18168 025e 00       		.byte	0
 18169 025f 2F       		.uleb128 0x2f
 18170 0260 34       		.uleb128 0x34
 18171 0261 00       		.byte	0
 18172 0262 31       		.uleb128 0x31
 18173 0263 13       		.uleb128 0x13
 18174 0264 00       		.byte	0
 18175 0265 00       		.byte	0
 18176 0266 30       		.uleb128 0x30
 18177 0267 05       		.uleb128 0x5
 18178 0268 00       		.byte	0
 18179 0269 31       		.uleb128 0x31
 18180 026a 13       		.uleb128 0x13
 18181 026b 02       		.uleb128 0x2
 18182 026c 17       		.uleb128 0x17
 18183 026d 00       		.byte	0
 18184 026e 00       		.byte	0
 18185 026f 31       		.uleb128 0x31
 18186 0270 898201   		.uleb128 0x4109
 18187 0273 01       		.byte	0x1
 18188 0274 11       		.uleb128 0x11
 18189 0275 01       		.uleb128 0x1
 18190 0276 31       		.uleb128 0x31
 18191 0277 13       		.uleb128 0x13
 18192 0278 00       		.byte	0
 18193 0279 00       		.byte	0
 18194 027a 32       		.uleb128 0x32
 18195 027b 8A8201   		.uleb128 0x410a
 18196 027e 00       		.byte	0
 18197 027f 02       		.uleb128 0x2
 18198 0280 18       		.uleb128 0x18
ARM GAS  /tmp/ccs3e2Sq.s 			page 321


 18199 0281 9142     		.uleb128 0x2111
 18200 0283 18       		.uleb128 0x18
 18201 0284 00       		.byte	0
 18202 0285 00       		.byte	0
 18203 0286 33       		.uleb128 0x33
 18204 0287 1D       		.uleb128 0x1d
 18205 0288 01       		.byte	0x1
 18206 0289 31       		.uleb128 0x31
 18207 028a 13       		.uleb128 0x13
 18208 028b 11       		.uleb128 0x11
 18209 028c 01       		.uleb128 0x1
 18210 028d 12       		.uleb128 0x12
 18211 028e 06       		.uleb128 0x6
 18212 028f 58       		.uleb128 0x58
 18213 0290 0B       		.uleb128 0xb
 18214 0291 59       		.uleb128 0x59
 18215 0292 05       		.uleb128 0x5
 18216 0293 01       		.uleb128 0x1
 18217 0294 13       		.uleb128 0x13
 18218 0295 00       		.byte	0
 18219 0296 00       		.byte	0
 18220 0297 34       		.uleb128 0x34
 18221 0298 1D       		.uleb128 0x1d
 18222 0299 01       		.byte	0x1
 18223 029a 31       		.uleb128 0x31
 18224 029b 13       		.uleb128 0x13
 18225 029c 11       		.uleb128 0x11
 18226 029d 01       		.uleb128 0x1
 18227 029e 12       		.uleb128 0x12
 18228 029f 06       		.uleb128 0x6
 18229 02a0 58       		.uleb128 0x58
 18230 02a1 0B       		.uleb128 0xb
 18231 02a2 59       		.uleb128 0x59
 18232 02a3 05       		.uleb128 0x5
 18233 02a4 00       		.byte	0
 18234 02a5 00       		.byte	0
 18235 02a6 35       		.uleb128 0x35
 18236 02a7 1D       		.uleb128 0x1d
 18237 02a8 01       		.byte	0x1
 18238 02a9 31       		.uleb128 0x31
 18239 02aa 13       		.uleb128 0x13
 18240 02ab 52       		.uleb128 0x52
 18241 02ac 01       		.uleb128 0x1
 18242 02ad 55       		.uleb128 0x55
 18243 02ae 17       		.uleb128 0x17
 18244 02af 58       		.uleb128 0x58
 18245 02b0 0B       		.uleb128 0xb
 18246 02b1 59       		.uleb128 0x59
 18247 02b2 0B       		.uleb128 0xb
 18248 02b3 01       		.uleb128 0x1
 18249 02b4 13       		.uleb128 0x13
 18250 02b5 00       		.byte	0
 18251 02b6 00       		.byte	0
 18252 02b7 36       		.uleb128 0x36
 18253 02b8 1D       		.uleb128 0x1d
 18254 02b9 01       		.byte	0x1
 18255 02ba 31       		.uleb128 0x31
ARM GAS  /tmp/ccs3e2Sq.s 			page 322


 18256 02bb 13       		.uleb128 0x13
 18257 02bc 11       		.uleb128 0x11
 18258 02bd 01       		.uleb128 0x1
 18259 02be 12       		.uleb128 0x12
 18260 02bf 06       		.uleb128 0x6
 18261 02c0 58       		.uleb128 0x58
 18262 02c1 0B       		.uleb128 0xb
 18263 02c2 59       		.uleb128 0x59
 18264 02c3 0B       		.uleb128 0xb
 18265 02c4 01       		.uleb128 0x1
 18266 02c5 13       		.uleb128 0x13
 18267 02c6 00       		.byte	0
 18268 02c7 00       		.byte	0
 18269 02c8 37       		.uleb128 0x37
 18270 02c9 1D       		.uleb128 0x1d
 18271 02ca 01       		.byte	0x1
 18272 02cb 31       		.uleb128 0x31
 18273 02cc 13       		.uleb128 0x13
 18274 02cd 11       		.uleb128 0x11
 18275 02ce 01       		.uleb128 0x1
 18276 02cf 12       		.uleb128 0x12
 18277 02d0 06       		.uleb128 0x6
 18278 02d1 58       		.uleb128 0x58
 18279 02d2 0B       		.uleb128 0xb
 18280 02d3 59       		.uleb128 0x59
 18281 02d4 0B       		.uleb128 0xb
 18282 02d5 00       		.byte	0
 18283 02d6 00       		.byte	0
 18284 02d7 38       		.uleb128 0x38
 18285 02d8 898201   		.uleb128 0x4109
 18286 02db 01       		.byte	0x1
 18287 02dc 11       		.uleb128 0x11
 18288 02dd 01       		.uleb128 0x1
 18289 02de 31       		.uleb128 0x31
 18290 02df 13       		.uleb128 0x13
 18291 02e0 01       		.uleb128 0x1
 18292 02e1 13       		.uleb128 0x13
 18293 02e2 00       		.byte	0
 18294 02e3 00       		.byte	0
 18295 02e4 39       		.uleb128 0x39
 18296 02e5 2E       		.uleb128 0x2e
 18297 02e6 01       		.byte	0x1
 18298 02e7 3F       		.uleb128 0x3f
 18299 02e8 19       		.uleb128 0x19
 18300 02e9 03       		.uleb128 0x3
 18301 02ea 0E       		.uleb128 0xe
 18302 02eb 3A       		.uleb128 0x3a
 18303 02ec 0B       		.uleb128 0xb
 18304 02ed 3B       		.uleb128 0x3b
 18305 02ee 05       		.uleb128 0x5
 18306 02ef 27       		.uleb128 0x27
 18307 02f0 19       		.uleb128 0x19
 18308 02f1 20       		.uleb128 0x20
 18309 02f2 0B       		.uleb128 0xb
 18310 02f3 01       		.uleb128 0x1
 18311 02f4 13       		.uleb128 0x13
 18312 02f5 00       		.byte	0
ARM GAS  /tmp/ccs3e2Sq.s 			page 323


 18313 02f6 00       		.byte	0
 18314 02f7 3A       		.uleb128 0x3a
 18315 02f8 34       		.uleb128 0x34
 18316 02f9 00       		.byte	0
 18317 02fa 03       		.uleb128 0x3
 18318 02fb 08       		.uleb128 0x8
 18319 02fc 3A       		.uleb128 0x3a
 18320 02fd 0B       		.uleb128 0xb
 18321 02fe 3B       		.uleb128 0x3b
 18322 02ff 05       		.uleb128 0x5
 18323 0300 49       		.uleb128 0x49
 18324 0301 13       		.uleb128 0x13
 18325 0302 00       		.byte	0
 18326 0303 00       		.byte	0
 18327 0304 3B       		.uleb128 0x3b
 18328 0305 05       		.uleb128 0x5
 18329 0306 00       		.byte	0
 18330 0307 03       		.uleb128 0x3
 18331 0308 0E       		.uleb128 0xe
 18332 0309 3A       		.uleb128 0x3a
 18333 030a 0B       		.uleb128 0xb
 18334 030b 3B       		.uleb128 0x3b
 18335 030c 05       		.uleb128 0x5
 18336 030d 49       		.uleb128 0x49
 18337 030e 13       		.uleb128 0x13
 18338 030f 02       		.uleb128 0x2
 18339 0310 17       		.uleb128 0x17
 18340 0311 00       		.byte	0
 18341 0312 00       		.byte	0
 18342 0313 3C       		.uleb128 0x3c
 18343 0314 05       		.uleb128 0x5
 18344 0315 00       		.byte	0
 18345 0316 03       		.uleb128 0x3
 18346 0317 08       		.uleb128 0x8
 18347 0318 3A       		.uleb128 0x3a
 18348 0319 0B       		.uleb128 0xb
 18349 031a 3B       		.uleb128 0x3b
 18350 031b 05       		.uleb128 0x5
 18351 031c 49       		.uleb128 0x49
 18352 031d 13       		.uleb128 0x13
 18353 031e 02       		.uleb128 0x2
 18354 031f 17       		.uleb128 0x17
 18355 0320 00       		.byte	0
 18356 0321 00       		.byte	0
 18357 0322 3D       		.uleb128 0x3d
 18358 0323 34       		.uleb128 0x34
 18359 0324 00       		.byte	0
 18360 0325 03       		.uleb128 0x3
 18361 0326 0E       		.uleb128 0xe
 18362 0327 3A       		.uleb128 0x3a
 18363 0328 0B       		.uleb128 0xb
 18364 0329 3B       		.uleb128 0x3b
 18365 032a 05       		.uleb128 0x5
 18366 032b 49       		.uleb128 0x49
 18367 032c 13       		.uleb128 0x13
 18368 032d 02       		.uleb128 0x2
 18369 032e 17       		.uleb128 0x17
ARM GAS  /tmp/ccs3e2Sq.s 			page 324


 18370 032f 00       		.byte	0
 18371 0330 00       		.byte	0
 18372 0331 3E       		.uleb128 0x3e
 18373 0332 34       		.uleb128 0x34
 18374 0333 00       		.byte	0
 18375 0334 03       		.uleb128 0x3
 18376 0335 08       		.uleb128 0x8
 18377 0336 3A       		.uleb128 0x3a
 18378 0337 0B       		.uleb128 0xb
 18379 0338 3B       		.uleb128 0x3b
 18380 0339 05       		.uleb128 0x5
 18381 033a 49       		.uleb128 0x49
 18382 033b 13       		.uleb128 0x13
 18383 033c 02       		.uleb128 0x2
 18384 033d 17       		.uleb128 0x17
 18385 033e 00       		.byte	0
 18386 033f 00       		.byte	0
 18387 0340 3F       		.uleb128 0x3f
 18388 0341 05       		.uleb128 0x5
 18389 0342 00       		.byte	0
 18390 0343 31       		.uleb128 0x31
 18391 0344 13       		.uleb128 0x13
 18392 0345 00       		.byte	0
 18393 0346 00       		.byte	0
 18394 0347 40       		.uleb128 0x40
 18395 0348 1D       		.uleb128 0x1d
 18396 0349 01       		.byte	0x1
 18397 034a 31       		.uleb128 0x31
 18398 034b 13       		.uleb128 0x13
 18399 034c 52       		.uleb128 0x52
 18400 034d 01       		.uleb128 0x1
 18401 034e 55       		.uleb128 0x55
 18402 034f 17       		.uleb128 0x17
 18403 0350 58       		.uleb128 0x58
 18404 0351 0B       		.uleb128 0xb
 18405 0352 59       		.uleb128 0x59
 18406 0353 05       		.uleb128 0x5
 18407 0354 00       		.byte	0
 18408 0355 00       		.byte	0
 18409 0356 41       		.uleb128 0x41
 18410 0357 05       		.uleb128 0x5
 18411 0358 00       		.byte	0
 18412 0359 03       		.uleb128 0x3
 18413 035a 0E       		.uleb128 0xe
 18414 035b 3A       		.uleb128 0x3a
 18415 035c 0B       		.uleb128 0xb
 18416 035d 3B       		.uleb128 0x3b
 18417 035e 05       		.uleb128 0x5
 18418 035f 49       		.uleb128 0x49
 18419 0360 13       		.uleb128 0x13
 18420 0361 02       		.uleb128 0x2
 18421 0362 18       		.uleb128 0x18
 18422 0363 00       		.byte	0
 18423 0364 00       		.byte	0
 18424 0365 42       		.uleb128 0x42
 18425 0366 0B       		.uleb128 0xb
 18426 0367 01       		.byte	0x1
ARM GAS  /tmp/ccs3e2Sq.s 			page 325


 18427 0368 55       		.uleb128 0x55
 18428 0369 17       		.uleb128 0x17
 18429 036a 01       		.uleb128 0x1
 18430 036b 13       		.uleb128 0x13
 18431 036c 00       		.byte	0
 18432 036d 00       		.byte	0
 18433 036e 43       		.uleb128 0x43
 18434 036f 0B       		.uleb128 0xb
 18435 0370 01       		.byte	0x1
 18436 0371 31       		.uleb128 0x31
 18437 0372 13       		.uleb128 0x13
 18438 0373 55       		.uleb128 0x55
 18439 0374 17       		.uleb128 0x17
 18440 0375 00       		.byte	0
 18441 0376 00       		.byte	0
 18442 0377 44       		.uleb128 0x44
 18443 0378 34       		.uleb128 0x34
 18444 0379 00       		.byte	0
 18445 037a 31       		.uleb128 0x31
 18446 037b 13       		.uleb128 0x13
 18447 037c 02       		.uleb128 0x2
 18448 037d 17       		.uleb128 0x17
 18449 037e 00       		.byte	0
 18450 037f 00       		.byte	0
 18451 0380 45       		.uleb128 0x45
 18452 0381 1D       		.uleb128 0x1d
 18453 0382 01       		.byte	0x1
 18454 0383 31       		.uleb128 0x31
 18455 0384 13       		.uleb128 0x13
 18456 0385 52       		.uleb128 0x52
 18457 0386 01       		.uleb128 0x1
 18458 0387 55       		.uleb128 0x55
 18459 0388 17       		.uleb128 0x17
 18460 0389 58       		.uleb128 0x58
 18461 038a 0B       		.uleb128 0xb
 18462 038b 59       		.uleb128 0x59
 18463 038c 0B       		.uleb128 0xb
 18464 038d 00       		.byte	0
 18465 038e 00       		.byte	0
 18466 038f 46       		.uleb128 0x46
 18467 0390 2E       		.uleb128 0x2e
 18468 0391 01       		.byte	0x1
 18469 0392 3F       		.uleb128 0x3f
 18470 0393 19       		.uleb128 0x19
 18471 0394 03       		.uleb128 0x3
 18472 0395 0E       		.uleb128 0xe
 18473 0396 3A       		.uleb128 0x3a
 18474 0397 0B       		.uleb128 0xb
 18475 0398 3B       		.uleb128 0x3b
 18476 0399 0B       		.uleb128 0xb
 18477 039a 27       		.uleb128 0x27
 18478 039b 19       		.uleb128 0x19
 18479 039c 11       		.uleb128 0x11
 18480 039d 01       		.uleb128 0x1
 18481 039e 12       		.uleb128 0x12
 18482 039f 06       		.uleb128 0x6
 18483 03a0 40       		.uleb128 0x40
ARM GAS  /tmp/ccs3e2Sq.s 			page 326


 18484 03a1 18       		.uleb128 0x18
 18485 03a2 9742     		.uleb128 0x2117
 18486 03a4 19       		.uleb128 0x19
 18487 03a5 01       		.uleb128 0x1
 18488 03a6 13       		.uleb128 0x13
 18489 03a7 00       		.byte	0
 18490 03a8 00       		.byte	0
 18491 03a9 47       		.uleb128 0x47
 18492 03aa 05       		.uleb128 0x5
 18493 03ab 00       		.byte	0
 18494 03ac 03       		.uleb128 0x3
 18495 03ad 0E       		.uleb128 0xe
 18496 03ae 3A       		.uleb128 0x3a
 18497 03af 0B       		.uleb128 0xb
 18498 03b0 3B       		.uleb128 0x3b
 18499 03b1 0B       		.uleb128 0xb
 18500 03b2 49       		.uleb128 0x49
 18501 03b3 13       		.uleb128 0x13
 18502 03b4 02       		.uleb128 0x2
 18503 03b5 18       		.uleb128 0x18
 18504 03b6 00       		.byte	0
 18505 03b7 00       		.byte	0
 18506 03b8 48       		.uleb128 0x48
 18507 03b9 05       		.uleb128 0x5
 18508 03ba 00       		.byte	0
 18509 03bb 03       		.uleb128 0x3
 18510 03bc 08       		.uleb128 0x8
 18511 03bd 3A       		.uleb128 0x3a
 18512 03be 0B       		.uleb128 0xb
 18513 03bf 3B       		.uleb128 0x3b
 18514 03c0 0B       		.uleb128 0xb
 18515 03c1 49       		.uleb128 0x49
 18516 03c2 13       		.uleb128 0x13
 18517 03c3 02       		.uleb128 0x2
 18518 03c4 17       		.uleb128 0x17
 18519 03c5 00       		.byte	0
 18520 03c6 00       		.byte	0
 18521 03c7 49       		.uleb128 0x49
 18522 03c8 05       		.uleb128 0x5
 18523 03c9 00       		.byte	0
 18524 03ca 03       		.uleb128 0x3
 18525 03cb 0E       		.uleb128 0xe
 18526 03cc 3A       		.uleb128 0x3a
 18527 03cd 0B       		.uleb128 0xb
 18528 03ce 3B       		.uleb128 0x3b
 18529 03cf 0B       		.uleb128 0xb
 18530 03d0 49       		.uleb128 0x49
 18531 03d1 13       		.uleb128 0x13
 18532 03d2 02       		.uleb128 0x2
 18533 03d3 17       		.uleb128 0x17
 18534 03d4 00       		.byte	0
 18535 03d5 00       		.byte	0
 18536 03d6 4A       		.uleb128 0x4a
 18537 03d7 34       		.uleb128 0x34
 18538 03d8 00       		.byte	0
 18539 03d9 03       		.uleb128 0x3
 18540 03da 08       		.uleb128 0x8
ARM GAS  /tmp/ccs3e2Sq.s 			page 327


 18541 03db 3A       		.uleb128 0x3a
 18542 03dc 0B       		.uleb128 0xb
 18543 03dd 3B       		.uleb128 0x3b
 18544 03de 0B       		.uleb128 0xb
 18545 03df 49       		.uleb128 0x49
 18546 03e0 13       		.uleb128 0x13
 18547 03e1 02       		.uleb128 0x2
 18548 03e2 17       		.uleb128 0x17
 18549 03e3 00       		.byte	0
 18550 03e4 00       		.byte	0
 18551 03e5 4B       		.uleb128 0x4b
 18552 03e6 34       		.uleb128 0x34
 18553 03e7 00       		.byte	0
 18554 03e8 03       		.uleb128 0x3
 18555 03e9 0E       		.uleb128 0xe
 18556 03ea 3A       		.uleb128 0x3a
 18557 03eb 0B       		.uleb128 0xb
 18558 03ec 3B       		.uleb128 0x3b
 18559 03ed 0B       		.uleb128 0xb
 18560 03ee 49       		.uleb128 0x49
 18561 03ef 13       		.uleb128 0x13
 18562 03f0 02       		.uleb128 0x2
 18563 03f1 18       		.uleb128 0x18
 18564 03f2 00       		.byte	0
 18565 03f3 00       		.byte	0
 18566 03f4 4C       		.uleb128 0x4c
 18567 03f5 34       		.uleb128 0x34
 18568 03f6 00       		.byte	0
 18569 03f7 03       		.uleb128 0x3
 18570 03f8 0E       		.uleb128 0xe
 18571 03f9 3A       		.uleb128 0x3a
 18572 03fa 0B       		.uleb128 0xb
 18573 03fb 3B       		.uleb128 0x3b
 18574 03fc 0B       		.uleb128 0xb
 18575 03fd 49       		.uleb128 0x49
 18576 03fe 13       		.uleb128 0x13
 18577 03ff 02       		.uleb128 0x2
 18578 0400 17       		.uleb128 0x17
 18579 0401 00       		.byte	0
 18580 0402 00       		.byte	0
 18581 0403 4D       		.uleb128 0x4d
 18582 0404 2E       		.uleb128 0x2e
 18583 0405 01       		.byte	0x1
 18584 0406 03       		.uleb128 0x3
 18585 0407 0E       		.uleb128 0xe
 18586 0408 3A       		.uleb128 0x3a
 18587 0409 0B       		.uleb128 0xb
 18588 040a 3B       		.uleb128 0x3b
 18589 040b 0B       		.uleb128 0xb
 18590 040c 27       		.uleb128 0x27
 18591 040d 19       		.uleb128 0x19
 18592 040e 49       		.uleb128 0x49
 18593 040f 13       		.uleb128 0x13
 18594 0410 20       		.uleb128 0x20
 18595 0411 0B       		.uleb128 0xb
 18596 0412 01       		.uleb128 0x1
 18597 0413 13       		.uleb128 0x13
ARM GAS  /tmp/ccs3e2Sq.s 			page 328


 18598 0414 00       		.byte	0
 18599 0415 00       		.byte	0
 18600 0416 4E       		.uleb128 0x4e
 18601 0417 05       		.uleb128 0x5
 18602 0418 00       		.byte	0
 18603 0419 03       		.uleb128 0x3
 18604 041a 08       		.uleb128 0x8
 18605 041b 3A       		.uleb128 0x3a
 18606 041c 0B       		.uleb128 0xb
 18607 041d 3B       		.uleb128 0x3b
 18608 041e 0B       		.uleb128 0xb
 18609 041f 49       		.uleb128 0x49
 18610 0420 13       		.uleb128 0x13
 18611 0421 00       		.byte	0
 18612 0422 00       		.byte	0
 18613 0423 4F       		.uleb128 0x4f
 18614 0424 2E       		.uleb128 0x2e
 18615 0425 01       		.byte	0x1
 18616 0426 3F       		.uleb128 0x3f
 18617 0427 19       		.uleb128 0x19
 18618 0428 03       		.uleb128 0x3
 18619 0429 0E       		.uleb128 0xe
 18620 042a 3A       		.uleb128 0x3a
 18621 042b 0B       		.uleb128 0xb
 18622 042c 3B       		.uleb128 0x3b
 18623 042d 0B       		.uleb128 0xb
 18624 042e 27       		.uleb128 0x27
 18625 042f 19       		.uleb128 0x19
 18626 0430 20       		.uleb128 0x20
 18627 0431 0B       		.uleb128 0xb
 18628 0432 01       		.uleb128 0x1
 18629 0433 13       		.uleb128 0x13
 18630 0434 00       		.byte	0
 18631 0435 00       		.byte	0
 18632 0436 50       		.uleb128 0x50
 18633 0437 05       		.uleb128 0x5
 18634 0438 00       		.byte	0
 18635 0439 03       		.uleb128 0x3
 18636 043a 0E       		.uleb128 0xe
 18637 043b 3A       		.uleb128 0x3a
 18638 043c 0B       		.uleb128 0xb
 18639 043d 3B       		.uleb128 0x3b
 18640 043e 0B       		.uleb128 0xb
 18641 043f 49       		.uleb128 0x49
 18642 0440 13       		.uleb128 0x13
 18643 0441 00       		.byte	0
 18644 0442 00       		.byte	0
 18645 0443 51       		.uleb128 0x51
 18646 0444 34       		.uleb128 0x34
 18647 0445 00       		.byte	0
 18648 0446 03       		.uleb128 0x3
 18649 0447 08       		.uleb128 0x8
 18650 0448 3A       		.uleb128 0x3a
 18651 0449 0B       		.uleb128 0xb
 18652 044a 3B       		.uleb128 0x3b
 18653 044b 0B       		.uleb128 0xb
 18654 044c 49       		.uleb128 0x49
ARM GAS  /tmp/ccs3e2Sq.s 			page 329


 18655 044d 13       		.uleb128 0x13
 18656 044e 00       		.byte	0
 18657 044f 00       		.byte	0
 18658 0450 52       		.uleb128 0x52
 18659 0451 34       		.uleb128 0x34
 18660 0452 00       		.byte	0
 18661 0453 03       		.uleb128 0x3
 18662 0454 0E       		.uleb128 0xe
 18663 0455 3A       		.uleb128 0x3a
 18664 0456 0B       		.uleb128 0xb
 18665 0457 3B       		.uleb128 0x3b
 18666 0458 0B       		.uleb128 0xb
 18667 0459 49       		.uleb128 0x49
 18668 045a 13       		.uleb128 0x13
 18669 045b 00       		.byte	0
 18670 045c 00       		.byte	0
 18671 045d 53       		.uleb128 0x53
 18672 045e 2E       		.uleb128 0x2e
 18673 045f 01       		.byte	0x1
 18674 0460 03       		.uleb128 0x3
 18675 0461 0E       		.uleb128 0xe
 18676 0462 3A       		.uleb128 0x3a
 18677 0463 0B       		.uleb128 0xb
 18678 0464 3B       		.uleb128 0x3b
 18679 0465 0B       		.uleb128 0xb
 18680 0466 27       		.uleb128 0x27
 18681 0467 19       		.uleb128 0x19
 18682 0468 20       		.uleb128 0x20
 18683 0469 0B       		.uleb128 0xb
 18684 046a 01       		.uleb128 0x1
 18685 046b 13       		.uleb128 0x13
 18686 046c 00       		.byte	0
 18687 046d 00       		.byte	0
 18688 046e 54       		.uleb128 0x54
 18689 046f 2E       		.uleb128 0x2e
 18690 0470 01       		.byte	0x1
 18691 0471 3F       		.uleb128 0x3f
 18692 0472 19       		.uleb128 0x19
 18693 0473 03       		.uleb128 0x3
 18694 0474 0E       		.uleb128 0xe
 18695 0475 3A       		.uleb128 0x3a
 18696 0476 0B       		.uleb128 0xb
 18697 0477 3B       		.uleb128 0x3b
 18698 0478 0B       		.uleb128 0xb
 18699 0479 27       		.uleb128 0x27
 18700 047a 19       		.uleb128 0x19
 18701 047b 49       		.uleb128 0x49
 18702 047c 13       		.uleb128 0x13
 18703 047d 11       		.uleb128 0x11
 18704 047e 01       		.uleb128 0x1
 18705 047f 12       		.uleb128 0x12
 18706 0480 06       		.uleb128 0x6
 18707 0481 40       		.uleb128 0x40
 18708 0482 18       		.uleb128 0x18
 18709 0483 9742     		.uleb128 0x2117
 18710 0485 19       		.uleb128 0x19
 18711 0486 01       		.uleb128 0x1
ARM GAS  /tmp/ccs3e2Sq.s 			page 330


 18712 0487 13       		.uleb128 0x13
 18713 0488 00       		.byte	0
 18714 0489 00       		.byte	0
 18715 048a 55       		.uleb128 0x55
 18716 048b 2E       		.uleb128 0x2e
 18717 048c 01       		.byte	0x1
 18718 048d 31       		.uleb128 0x31
 18719 048e 13       		.uleb128 0x13
 18720 048f 11       		.uleb128 0x11
 18721 0490 01       		.uleb128 0x1
 18722 0491 12       		.uleb128 0x12
 18723 0492 06       		.uleb128 0x6
 18724 0493 40       		.uleb128 0x40
 18725 0494 18       		.uleb128 0x18
 18726 0495 9742     		.uleb128 0x2117
 18727 0497 19       		.uleb128 0x19
 18728 0498 01       		.uleb128 0x1
 18729 0499 13       		.uleb128 0x13
 18730 049a 00       		.byte	0
 18731 049b 00       		.byte	0
 18732 049c 56       		.uleb128 0x56
 18733 049d 05       		.uleb128 0x5
 18734 049e 00       		.byte	0
 18735 049f 31       		.uleb128 0x31
 18736 04a0 13       		.uleb128 0x13
 18737 04a1 02       		.uleb128 0x2
 18738 04a2 18       		.uleb128 0x18
 18739 04a3 00       		.byte	0
 18740 04a4 00       		.byte	0
 18741 04a5 57       		.uleb128 0x57
 18742 04a6 2E       		.uleb128 0x2e
 18743 04a7 00       		.byte	0
 18744 04a8 3F       		.uleb128 0x3f
 18745 04a9 19       		.uleb128 0x19
 18746 04aa 3C       		.uleb128 0x3c
 18747 04ab 19       		.uleb128 0x19
 18748 04ac 6E       		.uleb128 0x6e
 18749 04ad 0E       		.uleb128 0xe
 18750 04ae 03       		.uleb128 0x3
 18751 04af 0E       		.uleb128 0xe
 18752 04b0 3A       		.uleb128 0x3a
 18753 04b1 0B       		.uleb128 0xb
 18754 04b2 3B       		.uleb128 0x3b
 18755 04b3 05       		.uleb128 0x5
 18756 04b4 00       		.byte	0
 18757 04b5 00       		.byte	0
 18758 04b6 58       		.uleb128 0x58
 18759 04b7 2E       		.uleb128 0x2e
 18760 04b8 00       		.byte	0
 18761 04b9 3F       		.uleb128 0x3f
 18762 04ba 19       		.uleb128 0x19
 18763 04bb 3C       		.uleb128 0x3c
 18764 04bc 19       		.uleb128 0x19
 18765 04bd 6E       		.uleb128 0x6e
 18766 04be 0E       		.uleb128 0xe
 18767 04bf 03       		.uleb128 0x3
 18768 04c0 0E       		.uleb128 0xe
ARM GAS  /tmp/ccs3e2Sq.s 			page 331


 18769 04c1 3A       		.uleb128 0x3a
 18770 04c2 0B       		.uleb128 0xb
 18771 04c3 3B       		.uleb128 0x3b
 18772 04c4 0B       		.uleb128 0xb
 18773 04c5 00       		.byte	0
 18774 04c6 00       		.byte	0
 18775 04c7 00       		.byte	0
 18776              		.section	.debug_loc,"",%progbits
 18777              	.Ldebug_loc0:
 18778              	.LLST242:
 18779 0000 0E020000 		.4byte	.LVL524
 18780 0004 13020000 		.4byte	.LVL525-1
 18781 0008 0100     		.2byte	0x1
 18782 000a 57       		.byte	0x57
 18783 000b 00000000 		.4byte	0
 18784 000f 00000000 		.4byte	0
 18785              	.LLST243:
 18786 0013 20020000 		.4byte	.LVL526
 18787 0017 23020000 		.4byte	.LVL527-1
 18788 001b 0100     		.2byte	0x1
 18789 001d 55       		.byte	0x55
 18790 001e 00000000 		.4byte	0
 18791 0022 00000000 		.4byte	0
 18792              	.LLST244:
 18793 0026 32020000 		.4byte	.LVL528
 18794 002a 37020000 		.4byte	.LVL529-1
 18795 002e 0100     		.2byte	0x1
 18796 0030 53       		.byte	0x53
 18797 0031 00000000 		.4byte	0
 18798 0035 00000000 		.4byte	0
 18799              	.LLST245:
 18800 0039 46020000 		.4byte	.LVL531
 18801 003d 49020000 		.4byte	.LVL532-1
 18802 0041 0200     		.2byte	0x2
 18803 0043 72       		.byte	0x72
 18804 0044 00       		.sleb128 0
 18805 0045 00000000 		.4byte	0
 18806 0049 00000000 		.4byte	0
 18807              	.LLST246:
 18808 004d 38000000 		.4byte	.LVL465
 18809 0051 3B000000 		.4byte	.LVL466-1
 18810 0055 0200     		.2byte	0x2
 18811 0057 91       		.byte	0x91
 18812 0058 58       		.sleb128 -40
 18813 0059 00000000 		.4byte	0
 18814 005d 00000000 		.4byte	0
 18815              	.LLST247:
 18816 0061 46000000 		.4byte	.LVL467
 18817 0065 4D000000 		.4byte	.LVL468-1
 18818 0069 0200     		.2byte	0x2
 18819 006b 91       		.byte	0x91
 18820 006c 57       		.sleb128 -41
 18821 006d 00000000 		.4byte	0
 18822 0071 00000000 		.4byte	0
 18823              	.LLST248:
 18824 0075 56000000 		.4byte	.LVL469
 18825 0079 5D000000 		.4byte	.LVL470-1
ARM GAS  /tmp/ccs3e2Sq.s 			page 332


 18826 007d 0200     		.2byte	0x2
 18827 007f 91       		.byte	0x91
 18828 0080 56       		.sleb128 -42
 18829 0081 00000000 		.4byte	0
 18830 0085 00000000 		.4byte	0
 18831              	.LLST249:
 18832 0089 66000000 		.4byte	.LVL471
 18833 008d 6D000000 		.4byte	.LVL472-1
 18834 0091 0200     		.2byte	0x2
 18835 0093 91       		.byte	0x91
 18836 0094 55       		.sleb128 -43
 18837 0095 00000000 		.4byte	0
 18838 0099 00000000 		.4byte	0
 18839              	.LLST250:
 18840 009d 76000000 		.4byte	.LVL473
 18841 00a1 7D000000 		.4byte	.LVL474-1
 18842 00a5 0200     		.2byte	0x2
 18843 00a7 91       		.byte	0x91
 18844 00a8 54       		.sleb128 -44
 18845 00a9 00000000 		.4byte	0
 18846 00ad 00000000 		.4byte	0
 18847              	.LLST251:
 18848 00b1 86000000 		.4byte	.LVL475
 18849 00b5 8D000000 		.4byte	.LVL476-1
 18850 00b9 0200     		.2byte	0x2
 18851 00bb 91       		.byte	0x91
 18852 00bc 53       		.sleb128 -45
 18853 00bd 00000000 		.4byte	0
 18854 00c1 00000000 		.4byte	0
 18855              	.LLST252:
 18856 00c5 96000000 		.4byte	.LVL477
 18857 00c9 9D000000 		.4byte	.LVL478-1
 18858 00cd 0200     		.2byte	0x2
 18859 00cf 91       		.byte	0x91
 18860 00d0 52       		.sleb128 -46
 18861 00d1 00000000 		.4byte	0
 18862 00d5 00000000 		.4byte	0
 18863              	.LLST253:
 18864 00d9 A6000000 		.4byte	.LVL479
 18865 00dd AD000000 		.4byte	.LVL480-1
 18866 00e1 0200     		.2byte	0x2
 18867 00e3 91       		.byte	0x91
 18868 00e4 51       		.sleb128 -47
 18869 00e5 00000000 		.4byte	0
 18870 00e9 00000000 		.4byte	0
 18871              	.LLST254:
 18872 00ed B6000000 		.4byte	.LVL481
 18873 00f1 BD000000 		.4byte	.LVL482-1
 18874 00f5 0200     		.2byte	0x2
 18875 00f7 91       		.byte	0x91
 18876 00f8 50       		.sleb128 -48
 18877 00f9 00000000 		.4byte	0
 18878 00fd 00000000 		.4byte	0
 18879              	.LLST255:
 18880 0101 C6000000 		.4byte	.LVL483
 18881 0105 CD000000 		.4byte	.LVL484-1
 18882 0109 0200     		.2byte	0x2
ARM GAS  /tmp/ccs3e2Sq.s 			page 333


 18883 010b 91       		.byte	0x91
 18884 010c 4F       		.sleb128 -49
 18885 010d 00000000 		.4byte	0
 18886 0111 00000000 		.4byte	0
 18887              	.LLST256:
 18888 0115 D6000000 		.4byte	.LVL485
 18889 0119 DD000000 		.4byte	.LVL486-1
 18890 011d 0200     		.2byte	0x2
 18891 011f 91       		.byte	0x91
 18892 0120 4E       		.sleb128 -50
 18893 0121 00000000 		.4byte	0
 18894 0125 00000000 		.4byte	0
 18895              	.LLST257:
 18896 0129 E6000000 		.4byte	.LVL487
 18897 012d ED000000 		.4byte	.LVL488-1
 18898 0131 0200     		.2byte	0x2
 18899 0133 91       		.byte	0x91
 18900 0134 4D       		.sleb128 -51
 18901 0135 00000000 		.4byte	0
 18902 0139 00000000 		.4byte	0
 18903              	.LLST258:
 18904 013d F6000000 		.4byte	.LVL489
 18905 0141 FB000000 		.4byte	.LVL490-1
 18906 0145 0200     		.2byte	0x2
 18907 0147 91       		.byte	0x91
 18908 0148 4C       		.sleb128 -52
 18909 0149 00000000 		.4byte	0
 18910 014d 00000000 		.4byte	0
 18911              	.LLST259:
 18912 0151 04010000 		.4byte	.LVL491
 18913 0155 0B010000 		.4byte	.LVL492-1
 18914 0159 0200     		.2byte	0x2
 18915 015b 91       		.byte	0x91
 18916 015c 4B       		.sleb128 -53
 18917 015d 00000000 		.4byte	0
 18918 0161 00000000 		.4byte	0
 18919              	.LLST260:
 18920 0165 14010000 		.4byte	.LVL493
 18921 0169 1B010000 		.4byte	.LVL494-1
 18922 016d 0200     		.2byte	0x2
 18923 016f 91       		.byte	0x91
 18924 0170 4A       		.sleb128 -54
 18925 0171 00000000 		.4byte	0
 18926 0175 00000000 		.4byte	0
 18927              	.LLST261:
 18928 0179 24010000 		.4byte	.LVL495
 18929 017d 2B010000 		.4byte	.LVL496-1
 18930 0181 0200     		.2byte	0x2
 18931 0183 91       		.byte	0x91
 18932 0184 49       		.sleb128 -55
 18933 0185 00000000 		.4byte	0
 18934 0189 00000000 		.4byte	0
 18935              	.LLST262:
 18936 018d 34010000 		.4byte	.LVL497
 18937 0191 3B010000 		.4byte	.LVL498-1
 18938 0195 0200     		.2byte	0x2
 18939 0197 91       		.byte	0x91
ARM GAS  /tmp/ccs3e2Sq.s 			page 334


 18940 0198 48       		.sleb128 -56
 18941 0199 00000000 		.4byte	0
 18942 019d 00000000 		.4byte	0
 18943              	.LLST263:
 18944 01a1 44010000 		.4byte	.LVL499
 18945 01a5 4B010000 		.4byte	.LVL500-1
 18946 01a9 0200     		.2byte	0x2
 18947 01ab 91       		.byte	0x91
 18948 01ac 47       		.sleb128 -57
 18949 01ad 00000000 		.4byte	0
 18950 01b1 00000000 		.4byte	0
 18951              	.LLST264:
 18952 01b5 54010000 		.4byte	.LVL501
 18953 01b9 5B010000 		.4byte	.LVL502-1
 18954 01bd 0200     		.2byte	0x2
 18955 01bf 91       		.byte	0x91
 18956 01c0 46       		.sleb128 -58
 18957 01c1 00000000 		.4byte	0
 18958 01c5 00000000 		.4byte	0
 18959              	.LLST265:
 18960 01c9 64010000 		.4byte	.LVL503
 18961 01cd 6B010000 		.4byte	.LVL504-1
 18962 01d1 0200     		.2byte	0x2
 18963 01d3 91       		.byte	0x91
 18964 01d4 45       		.sleb128 -59
 18965 01d5 00000000 		.4byte	0
 18966 01d9 00000000 		.4byte	0
 18967              	.LLST266:
 18968 01dd 74010000 		.4byte	.LVL505
 18969 01e1 79010000 		.4byte	.LVL506-1
 18970 01e5 0200     		.2byte	0x2
 18971 01e7 91       		.byte	0x91
 18972 01e8 44       		.sleb128 -60
 18973 01e9 00000000 		.4byte	0
 18974 01ed 00000000 		.4byte	0
 18975              	.LLST267:
 18976 01f1 82010000 		.4byte	.LVL507
 18977 01f5 89010000 		.4byte	.LVL508-1
 18978 01f9 0200     		.2byte	0x2
 18979 01fb 91       		.byte	0x91
 18980 01fc 43       		.sleb128 -61
 18981 01fd 00000000 		.4byte	0
 18982 0201 00000000 		.4byte	0
 18983              	.LLST268:
 18984 0205 92010000 		.4byte	.LVL509
 18985 0209 99010000 		.4byte	.LVL510-1
 18986 020d 0200     		.2byte	0x2
 18987 020f 91       		.byte	0x91
 18988 0210 42       		.sleb128 -62
 18989 0211 00000000 		.4byte	0
 18990 0215 00000000 		.4byte	0
 18991              	.LLST269:
 18992 0219 A2010000 		.4byte	.LVL511
 18993 021d A9010000 		.4byte	.LVL512-1
 18994 0221 0200     		.2byte	0x2
 18995 0223 91       		.byte	0x91
 18996 0224 41       		.sleb128 -63
ARM GAS  /tmp/ccs3e2Sq.s 			page 335


 18997 0225 00000000 		.4byte	0
 18998 0229 00000000 		.4byte	0
 18999              	.LLST270:
 19000 022d B2010000 		.4byte	.LVL513
 19001 0231 B9010000 		.4byte	.LVL514-1
 19002 0235 0200     		.2byte	0x2
 19003 0237 91       		.byte	0x91
 19004 0238 40       		.sleb128 -64
 19005 0239 00000000 		.4byte	0
 19006 023d 00000000 		.4byte	0
 19007              	.LLST271:
 19008 0241 C2010000 		.4byte	.LVL515
 19009 0245 C9010000 		.4byte	.LVL516-1
 19010 0249 0300     		.2byte	0x3
 19011 024b 91       		.byte	0x91
 19012 024c BF7F     		.sleb128 -65
 19013 024e 00000000 		.4byte	0
 19014 0252 00000000 		.4byte	0
 19015              	.LLST272:
 19016 0256 D2010000 		.4byte	.LVL517
 19017 025a D7010000 		.4byte	.LVL518-1
 19018 025e 0300     		.2byte	0x3
 19019 0260 91       		.byte	0x91
 19020 0261 BE7F     		.sleb128 -66
 19021 0263 00000000 		.4byte	0
 19022 0267 00000000 		.4byte	0
 19023              	.LLST273:
 19024 026b E2010000 		.4byte	.LVL519
 19025 026f E9010000 		.4byte	.LVL520-1
 19026 0273 0300     		.2byte	0x3
 19027 0275 91       		.byte	0x91
 19028 0276 BD7F     		.sleb128 -67
 19029 0278 00000000 		.4byte	0
 19030 027c 00000000 		.4byte	0
 19031              	.LLST274:
 19032 0280 F2010000 		.4byte	.LVL521
 19033 0284 F7010000 		.4byte	.LVL522-1
 19034 0288 0300     		.2byte	0x3
 19035 028a 91       		.byte	0x91
 19036 028b BC7F     		.sleb128 -68
 19037 028d 00000000 		.4byte	0
 19038 0291 00000000 		.4byte	0
 19039              	.LLST275:
 19040 0295 56020000 		.4byte	.LVL535
 19041 0299 8C020000 		.4byte	.LVL541
 19042 029d 0200     		.2byte	0x2
 19043 029f 30       		.byte	0x30
 19044 02a0 9F       		.byte	0x9f
 19045 02a1 00000000 		.4byte	0
 19046 02a5 00000000 		.4byte	0
 19047              	.LLST277:
 19048 02a9 68020000 		.4byte	.LVL536
 19049 02ad 6D020000 		.4byte	.LVL537-1
 19050 02b1 0200     		.2byte	0x2
 19051 02b3 91       		.byte	0x91
 19052 02b4 59       		.sleb128 -39
 19053 02b5 00000000 		.4byte	0
ARM GAS  /tmp/ccs3e2Sq.s 			page 336


 19054 02b9 00000000 		.4byte	0
 19055              	.LLST278:
 19056 02bd 76020000 		.4byte	.LVL538
 19057 02c1 7D020000 		.4byte	.LVL539-1
 19058 02c5 0200     		.2byte	0x2
 19059 02c7 91       		.byte	0x91
 19060 02c8 5A       		.sleb128 -38
 19061 02c9 00000000 		.4byte	0
 19062 02cd 00000000 		.4byte	0
 19063              	.LLST279:
 19064 02d1 86020000 		.4byte	.LVL540
 19065 02d5 8B020000 		.4byte	.LVL541-1
 19066 02d9 0200     		.2byte	0x2
 19067 02db 91       		.byte	0x91
 19068 02dc 5B       		.sleb128 -37
 19069 02dd 00000000 		.4byte	0
 19070 02e1 00000000 		.4byte	0
 19071              	.LLST234:
 19072 02e5 16000000 		.4byte	.LVL444
 19073 02e9 1D000000 		.4byte	.LVL445-1
 19074 02ed 0200     		.2byte	0x2
 19075 02ef 91       		.byte	0x91
 19076 02f0 77       		.sleb128 -9
 19077 02f1 00000000 		.4byte	0
 19078 02f5 00000000 		.4byte	0
 19079              	.LLST235:
 19080 02f9 26000000 		.4byte	.LVL446
 19081 02fd 2D000000 		.4byte	.LVL447-1
 19082 0301 0200     		.2byte	0x2
 19083 0303 91       		.byte	0x91
 19084 0304 76       		.sleb128 -10
 19085 0305 00000000 		.4byte	0
 19086 0309 00000000 		.4byte	0
 19087              	.LLST236:
 19088 030d 36000000 		.4byte	.LVL448
 19089 0311 3D000000 		.4byte	.LVL449-1
 19090 0315 0200     		.2byte	0x2
 19091 0317 91       		.byte	0x91
 19092 0318 75       		.sleb128 -11
 19093 0319 00000000 		.4byte	0
 19094 031d 00000000 		.4byte	0
 19095              	.LLST231:
 19096 0321 16000000 		.4byte	.LVL438
 19097 0325 1D000000 		.4byte	.LVL439-1
 19098 0329 0200     		.2byte	0x2
 19099 032b 91       		.byte	0x91
 19100 032c 77       		.sleb128 -9
 19101 032d 00000000 		.4byte	0
 19102 0331 00000000 		.4byte	0
 19103              	.LLST232:
 19104 0335 26000000 		.4byte	.LVL440
 19105 0339 2D000000 		.4byte	.LVL441-1
 19106 033d 0200     		.2byte	0x2
 19107 033f 91       		.byte	0x91
 19108 0340 76       		.sleb128 -10
 19109 0341 00000000 		.4byte	0
 19110 0345 00000000 		.4byte	0
ARM GAS  /tmp/ccs3e2Sq.s 			page 337


 19111              	.LLST233:
 19112 0349 36000000 		.4byte	.LVL442
 19113 034d 3D000000 		.4byte	.LVL443-1
 19114 0351 0200     		.2byte	0x2
 19115 0353 91       		.byte	0x91
 19116 0354 75       		.sleb128 -11
 19117 0355 00000000 		.4byte	0
 19118 0359 00000000 		.4byte	0
 19119              	.LLST216:
 19120 035d 00000000 		.4byte	.LVL402
 19121 0361 34000000 		.4byte	.LVL406
 19122 0365 0100     		.2byte	0x1
 19123 0367 50       		.byte	0x50
 19124 0368 34000000 		.4byte	.LVL406
 19125 036c 58010000 		.4byte	.LVL435
 19126 0370 0100     		.2byte	0x1
 19127 0372 5A       		.byte	0x5a
 19128 0373 58010000 		.4byte	.LVL435
 19129 0377 5E010000 		.4byte	.LVL436
 19130 037b 0400     		.2byte	0x4
 19131 037d F3       		.byte	0xf3
 19132 037e 01       		.uleb128 0x1
 19133 037f 50       		.byte	0x50
 19134 0380 9F       		.byte	0x9f
 19135 0381 5E010000 		.4byte	.LVL436
 19136 0385 6C010000 		.4byte	.LFE340
 19137 0389 0100     		.2byte	0x1
 19138 038b 5A       		.byte	0x5a
 19139 038c 00000000 		.4byte	0
 19140 0390 00000000 		.4byte	0
 19141              	.LLST217:
 19142 0394 00000000 		.4byte	.LVL402
 19143 0398 24000000 		.4byte	.LVL405
 19144 039c 0100     		.2byte	0x1
 19145 039e 51       		.byte	0x51
 19146 039f 24000000 		.4byte	.LVL405
 19147 03a3 6C010000 		.4byte	.LFE340
 19148 03a7 0400     		.2byte	0x4
 19149 03a9 F3       		.byte	0xf3
 19150 03aa 01       		.uleb128 0x1
 19151 03ab 51       		.byte	0x51
 19152 03ac 9F       		.byte	0x9f
 19153 03ad 00000000 		.4byte	0
 19154 03b1 00000000 		.4byte	0
 19155              	.LLST218:
 19156 03b5 00000000 		.4byte	.LVL402
 19157 03b9 1C000000 		.4byte	.LVL404
 19158 03bd 0100     		.2byte	0x1
 19159 03bf 52       		.byte	0x52
 19160 03c0 1C000000 		.4byte	.LVL404
 19161 03c4 6C010000 		.4byte	.LFE340
 19162 03c8 0400     		.2byte	0x4
 19163 03ca F3       		.byte	0xf3
 19164 03cb 01       		.uleb128 0x1
 19165 03cc 52       		.byte	0x52
 19166 03cd 9F       		.byte	0x9f
 19167 03ce 00000000 		.4byte	0
ARM GAS  /tmp/ccs3e2Sq.s 			page 338


 19168 03d2 00000000 		.4byte	0
 19169              	.LLST219:
 19170 03d6 00000000 		.4byte	.LVL402
 19171 03da 1A000000 		.4byte	.LVL403
 19172 03de 0100     		.2byte	0x1
 19173 03e0 53       		.byte	0x53
 19174 03e1 1A000000 		.4byte	.LVL403
 19175 03e5 6C010000 		.4byte	.LFE340
 19176 03e9 0400     		.2byte	0x4
 19177 03eb F3       		.byte	0xf3
 19178 03ec 01       		.uleb128 0x1
 19179 03ed 53       		.byte	0x53
 19180 03ee 9F       		.byte	0x9f
 19181 03ef 00000000 		.4byte	0
 19182 03f3 00000000 		.4byte	0
 19183              	.LLST220:
 19184 03f7 00000000 		.4byte	.LVL402
 19185 03fb 34000000 		.4byte	.LVL406
 19186 03ff 0200     		.2byte	0x2
 19187 0401 30       		.byte	0x30
 19188 0402 9F       		.byte	0x9f
 19189 0403 3E010000 		.4byte	.LVL432
 19190 0407 4A010000 		.4byte	.LVL433
 19191 040b 0100     		.2byte	0x1
 19192 040d 51       		.byte	0x51
 19193 040e 4A010000 		.4byte	.LVL433
 19194 0412 52010000 		.4byte	.LVL434
 19195 0416 0100     		.2byte	0x1
 19196 0418 53       		.byte	0x53
 19197 0419 52010000 		.4byte	.LVL434
 19198 041d 58010000 		.4byte	.LVL435
 19199 0421 0300     		.2byte	0x3
 19200 0423 91       		.byte	0x91
 19201 0424 B87F     		.sleb128 -72
 19202 0426 00000000 		.4byte	0
 19203 042a 00000000 		.4byte	0
 19204              	.LLST221:
 19205 042e 34000000 		.4byte	.LVL406
 19206 0432 3C000000 		.4byte	.LVL407
 19207 0436 0200     		.2byte	0x2
 19208 0438 30       		.byte	0x30
 19209 0439 9F       		.byte	0x9f
 19210 043a 3C000000 		.4byte	.LVL407
 19211 043e 66000000 		.4byte	.LVL410
 19212 0442 0100     		.2byte	0x1
 19213 0444 59       		.byte	0x59
 19214 0445 2E010000 		.4byte	.LVL430
 19215 0449 36010000 		.4byte	.LVL431
 19216 044d 0100     		.2byte	0x1
 19217 044f 59       		.byte	0x59
 19218 0450 5E010000 		.4byte	.LVL436
 19219 0454 6C010000 		.4byte	.LFE340
 19220 0458 0100     		.2byte	0x1
 19221 045a 59       		.byte	0x59
 19222 045b 00000000 		.4byte	0
 19223 045f 00000000 		.4byte	0
 19224              	.LLST222:
ARM GAS  /tmp/ccs3e2Sq.s 			page 339


 19225 0463 4C000000 		.4byte	.LVL408
 19226 0467 5A000000 		.4byte	.LVL409
 19227 046b 0100     		.2byte	0x1
 19228 046d 56       		.byte	0x56
 19229 046e 68000000 		.4byte	.LVL411
 19230 0472 88000000 		.4byte	.LVL415
 19231 0476 0100     		.2byte	0x1
 19232 0478 56       		.byte	0x56
 19233 0479 1A010000 		.4byte	.LVL427
 19234 047d 1E010000 		.4byte	.LVL428
 19235 0481 0100     		.2byte	0x1
 19236 0483 56       		.byte	0x56
 19237 0484 5E010000 		.4byte	.LVL436
 19238 0488 60010000 		.4byte	.LVL437
 19239 048c 0100     		.2byte	0x1
 19240 048e 56       		.byte	0x56
 19241 048f 00000000 		.4byte	0
 19242 0493 00000000 		.4byte	0
 19243              	.LLST223:
 19244 0497 6C000000 		.4byte	.LVL412
 19245 049b 7E000000 		.4byte	.LVL414
 19246 049f 0100     		.2byte	0x1
 19247 04a1 55       		.byte	0x55
 19248 04a2 00000000 		.4byte	0
 19249 04a6 00000000 		.4byte	0
 19250              	.LLST224:
 19251 04aa 68000000 		.4byte	.LVL411
 19252 04ae 6C000000 		.4byte	.LVL412
 19253 04b2 0100     		.2byte	0x1
 19254 04b4 54       		.byte	0x54
 19255 04b5 76000000 		.4byte	.LVL413
 19256 04b9 0C010000 		.4byte	.LVL425
 19257 04bd 0100     		.2byte	0x1
 19258 04bf 54       		.byte	0x54
 19259 04c0 0C010000 		.4byte	.LVL425
 19260 04c4 22010000 		.4byte	.LVL429
 19261 04c8 0A00     		.2byte	0xa
 19262 04ca 75       		.byte	0x75
 19263 04cb 00       		.sleb128 0
 19264 04cc 79       		.byte	0x79
 19265 04cd 00       		.sleb128 0
 19266 04ce 22       		.byte	0x22
 19267 04cf 31       		.byte	0x31
 19268 04d0 1C       		.byte	0x1c
 19269 04d1 31       		.byte	0x31
 19270 04d2 24       		.byte	0x24
 19271 04d3 9F       		.byte	0x9f
 19272 04d4 00000000 		.4byte	0
 19273 04d8 00000000 		.4byte	0
 19274              	.LLST225:
 19275 04dc A2000000 		.4byte	.LVL416
 19276 04e0 C2000000 		.4byte	.LVL420
 19277 04e4 0100     		.2byte	0x1
 19278 04e6 58       		.byte	0x58
 19279 04e7 C2000000 		.4byte	.LVL420
 19280 04eb CE000000 		.4byte	.LVL422
 19281 04ef 0100     		.2byte	0x1
ARM GAS  /tmp/ccs3e2Sq.s 			page 340


 19282 04f1 57       		.byte	0x57
 19283 04f2 00000000 		.4byte	0
 19284 04f6 00000000 		.4byte	0
 19285              	.LLST226:
 19286 04fa A2000000 		.4byte	.LVL416
 19287 04fe A5000000 		.4byte	.LVL417-1
 19288 0502 0200     		.2byte	0x2
 19289 0504 91       		.byte	0x91
 19290 0505 55       		.sleb128 -43
 19291 0506 00000000 		.4byte	0
 19292 050a 00000000 		.4byte	0
 19293              	.LLST227:
 19294 050e B4000000 		.4byte	.LVL418
 19295 0512 BB000000 		.4byte	.LVL419-1
 19296 0516 0200     		.2byte	0x2
 19297 0518 91       		.byte	0x91
 19298 0519 56       		.sleb128 -42
 19299 051a 00000000 		.4byte	0
 19300 051e 00000000 		.4byte	0
 19301              	.LLST228:
 19302 0522 C6000000 		.4byte	.LVL421
 19303 0526 CD000000 		.4byte	.LVL422-1
 19304 052a 0200     		.2byte	0x2
 19305 052c 91       		.byte	0x91
 19306 052d 57       		.sleb128 -41
 19307 052e 00000000 		.4byte	0
 19308 0532 00000000 		.4byte	0
 19309              	.LLST229:
 19310 0536 EC000000 		.4byte	.LVL423
 19311 053a F3000000 		.4byte	.LVL424-1
 19312 053e 0200     		.2byte	0x2
 19313 0540 91       		.byte	0x91
 19314 0541 53       		.sleb128 -45
 19315 0542 00000000 		.4byte	0
 19316 0546 00000000 		.4byte	0
 19317              	.LLST230:
 19318 054a 16010000 		.4byte	.LVL426
 19319 054e 19010000 		.4byte	.LVL427-1
 19320 0552 0200     		.2byte	0x2
 19321 0554 91       		.byte	0x91
 19322 0555 54       		.sleb128 -44
 19323 0556 00000000 		.4byte	0
 19324 055a 00000000 		.4byte	0
 19325              	.LLST186:
 19326 055e 00000000 		.4byte	.LVL346
 19327 0562 2E000000 		.4byte	.LVL347
 19328 0566 0100     		.2byte	0x1
 19329 0568 51       		.byte	0x51
 19330 0569 2E000000 		.4byte	.LVL347
 19331 056d E6010000 		.4byte	.LVL375
 19332 0571 0200     		.2byte	0x2
 19333 0573 91       		.byte	0x91
 19334 0574 44       		.sleb128 -60
 19335 0575 E6010000 		.4byte	.LVL375
 19336 0579 EA010000 		.4byte	.LVL376
 19337 057d 0100     		.2byte	0x1
 19338 057f 51       		.byte	0x51
ARM GAS  /tmp/ccs3e2Sq.s 			page 341


 19339 0580 EA010000 		.4byte	.LVL376
 19340 0584 08030000 		.4byte	.LFE337
 19341 0588 0200     		.2byte	0x2
 19342 058a 91       		.byte	0x91
 19343 058b 44       		.sleb128 -60
 19344 058c 00000000 		.4byte	0
 19345 0590 00000000 		.4byte	0
 19346              	.LLST187:
 19347 0594 00000000 		.4byte	.LVL346
 19348 0598 30000000 		.4byte	.LVL348
 19349 059c 0100     		.2byte	0x1
 19350 059e 52       		.byte	0x52
 19351 059f 30000000 		.4byte	.LVL348
 19352 05a3 3C000000 		.4byte	.LVL349
 19353 05a7 0100     		.2byte	0x1
 19354 05a9 57       		.byte	0x57
 19355 05aa 3C000000 		.4byte	.LVL349
 19356 05ae 6C000000 		.4byte	.LVL352
 19357 05b2 0400     		.2byte	0x4
 19358 05b4 F3       		.byte	0xf3
 19359 05b5 01       		.uleb128 0x1
 19360 05b6 52       		.byte	0x52
 19361 05b7 9F       		.byte	0x9f
 19362 05b8 E6010000 		.4byte	.LVL375
 19363 05bc EA010000 		.4byte	.LVL376
 19364 05c0 0100     		.2byte	0x1
 19365 05c2 52       		.byte	0x52
 19366 05c3 00000000 		.4byte	0
 19367 05c7 00000000 		.4byte	0
 19368              	.LLST188:
 19369 05cb 00000000 		.4byte	.LVL346
 19370 05cf 5A000000 		.4byte	.LVL350
 19371 05d3 0100     		.2byte	0x1
 19372 05d5 53       		.byte	0x53
 19373 05d6 5A000000 		.4byte	.LVL350
 19374 05da 68000000 		.4byte	.LVL351
 19375 05de 0100     		.2byte	0x1
 19376 05e0 58       		.byte	0x58
 19377 05e1 68000000 		.4byte	.LVL351
 19378 05e5 6C000000 		.4byte	.LVL352
 19379 05e9 0400     		.2byte	0x4
 19380 05eb F3       		.byte	0xf3
 19381 05ec 01       		.uleb128 0x1
 19382 05ed 53       		.byte	0x53
 19383 05ee 9F       		.byte	0x9f
 19384 05ef E6010000 		.4byte	.LVL375
 19385 05f3 EA010000 		.4byte	.LVL376
 19386 05f7 0100     		.2byte	0x1
 19387 05f9 53       		.byte	0x53
 19388 05fa 00000000 		.4byte	0
 19389 05fe 00000000 		.4byte	0
 19390              	.LLST189:
 19391 0602 00000000 		.4byte	.LVL346
 19392 0606 6C000000 		.4byte	.LVL352
 19393 060a 0200     		.2byte	0x2
 19394 060c 91       		.byte	0x91
 19395 060d 00       		.sleb128 0
ARM GAS  /tmp/ccs3e2Sq.s 			page 342


 19396 060e E6010000 		.4byte	.LVL375
 19397 0612 EA010000 		.4byte	.LVL376
 19398 0616 0200     		.2byte	0x2
 19399 0618 91       		.byte	0x91
 19400 0619 00       		.sleb128 0
 19401 061a 00000000 		.4byte	0
 19402 061e 00000000 		.4byte	0
 19403              	.LLST190:
 19404 0622 00000000 		.4byte	.LVL346
 19405 0626 6C000000 		.4byte	.LVL352
 19406 062a 0200     		.2byte	0x2
 19407 062c 91       		.byte	0x91
 19408 062d 04       		.sleb128 4
 19409 062e E6010000 		.4byte	.LVL375
 19410 0632 EA010000 		.4byte	.LVL376
 19411 0636 0200     		.2byte	0x2
 19412 0638 91       		.byte	0x91
 19413 0639 04       		.sleb128 4
 19414 063a 00000000 		.4byte	0
 19415 063e 00000000 		.4byte	0
 19416              	.LLST191:
 19417 0642 00000000 		.4byte	.LVL346
 19418 0646 6C000000 		.4byte	.LVL352
 19419 064a 0200     		.2byte	0x2
 19420 064c 91       		.byte	0x91
 19421 064d 08       		.sleb128 8
 19422 064e E6010000 		.4byte	.LVL375
 19423 0652 EA010000 		.4byte	.LVL376
 19424 0656 0200     		.2byte	0x2
 19425 0658 91       		.byte	0x91
 19426 0659 08       		.sleb128 8
 19427 065a 00000000 		.4byte	0
 19428 065e 00000000 		.4byte	0
 19429              	.LLST192:
 19430 0662 00000000 		.4byte	.LVL346
 19431 0666 6C000000 		.4byte	.LVL352
 19432 066a 0200     		.2byte	0x2
 19433 066c 91       		.byte	0x91
 19434 066d 0C       		.sleb128 12
 19435 066e E6010000 		.4byte	.LVL375
 19436 0672 EA010000 		.4byte	.LVL376
 19437 0676 0200     		.2byte	0x2
 19438 0678 91       		.byte	0x91
 19439 0679 0C       		.sleb128 12
 19440 067a 00000000 		.4byte	0
 19441 067e 00000000 		.4byte	0
 19442              	.LLST193:
 19443 0682 C2000000 		.4byte	.LVL353
 19444 0686 E6010000 		.4byte	.LVL375
 19445 068a 0100     		.2byte	0x1
 19446 068c 55       		.byte	0x55
 19447 068d EA010000 		.4byte	.LVL376
 19448 0691 08030000 		.4byte	.LFE337
 19449 0695 0100     		.2byte	0x1
 19450 0697 55       		.byte	0x55
 19451 0698 00000000 		.4byte	0
 19452 069c 00000000 		.4byte	0
ARM GAS  /tmp/ccs3e2Sq.s 			page 343


 19453              	.LLST194:
 19454 06a0 C2000000 		.4byte	.LVL353
 19455 06a4 E6010000 		.4byte	.LVL375
 19456 06a8 0100     		.2byte	0x1
 19457 06aa 5E       		.byte	0x5e
 19458 06ab EA010000 		.4byte	.LVL376
 19459 06af 08030000 		.4byte	.LFE337
 19460 06b3 0100     		.2byte	0x1
 19461 06b5 5E       		.byte	0x5e
 19462 06b6 00000000 		.4byte	0
 19463 06ba 00000000 		.4byte	0
 19464              	.LLST195:
 19465 06be C2000000 		.4byte	.LVL353
 19466 06c2 02010000 		.4byte	.LVL358
 19467 06c6 0100     		.2byte	0x1
 19468 06c8 54       		.byte	0x54
 19469 06c9 02010000 		.4byte	.LVL358
 19470 06cd 18010000 		.4byte	.LVL360
 19471 06d1 0100     		.2byte	0x1
 19472 06d3 51       		.byte	0x51
 19473 06d4 18010000 		.4byte	.LVL360
 19474 06d8 D2010000 		.4byte	.LVL371
 19475 06dc 0300     		.2byte	0x3
 19476 06de 91       		.byte	0x91
 19477 06df B47F     		.sleb128 -76
 19478 06e1 D6010000 		.4byte	.LVL372
 19479 06e5 E6010000 		.4byte	.LVL375
 19480 06e9 0100     		.2byte	0x1
 19481 06eb 54       		.byte	0x54
 19482 06ec EA010000 		.4byte	.LVL376
 19483 06f0 08030000 		.4byte	.LFE337
 19484 06f4 0300     		.2byte	0x3
 19485 06f6 91       		.byte	0x91
 19486 06f7 B47F     		.sleb128 -76
 19487 06f9 00000000 		.4byte	0
 19488 06fd 00000000 		.4byte	0
 19489              	.LLST196:
 19490 0701 DC000000 		.4byte	.LVL355
 19491 0705 EC000000 		.4byte	.LVL356
 19492 0709 0300     		.2byte	0x3
 19493 070b 09       		.byte	0x9
 19494 070c FF       		.byte	0xff
 19495 070d 9F       		.byte	0x9f
 19496 070e EC000000 		.4byte	.LVL356
 19497 0712 18010000 		.4byte	.LVL360
 19498 0716 0100     		.2byte	0x1
 19499 0718 57       		.byte	0x57
 19500 0719 E2010000 		.4byte	.LVL374
 19501 071d E6010000 		.4byte	.LVL375
 19502 0721 0300     		.2byte	0x3
 19503 0723 09       		.byte	0x9
 19504 0724 FF       		.byte	0xff
 19505 0725 9F       		.byte	0x9f
 19506 0726 00000000 		.4byte	0
 19507 072a 00000000 		.4byte	0
 19508              	.LLST197:
 19509 072e 0E010000 		.4byte	.LVL359
ARM GAS  /tmp/ccs3e2Sq.s 			page 344


 19510 0732 DC010000 		.4byte	.LVL373
 19511 0736 0300     		.2byte	0x3
 19512 0738 91       		.byte	0x91
 19513 0739 BC7F     		.sleb128 -68
 19514 073b EA010000 		.4byte	.LVL376
 19515 073f 08030000 		.4byte	.LFE337
 19516 0743 0300     		.2byte	0x3
 19517 0745 91       		.byte	0x91
 19518 0746 BC7F     		.sleb128 -68
 19519 0748 00000000 		.4byte	0
 19520 074c 00000000 		.4byte	0
 19521              	.LLST198:
 19522 0750 18010000 		.4byte	.LVL360
 19523 0754 C4010000 		.4byte	.LVL369
 19524 0758 0100     		.2byte	0x1
 19525 075a 52       		.byte	0x52
 19526 075b CE010000 		.4byte	.LVL370
 19527 075f D2010000 		.4byte	.LVL371
 19528 0763 0100     		.2byte	0x1
 19529 0765 52       		.byte	0x52
 19530 0766 EA010000 		.4byte	.LVL376
 19531 076a 08030000 		.4byte	.LFE337
 19532 076e 0100     		.2byte	0x1
 19533 0770 52       		.byte	0x52
 19534 0771 00000000 		.4byte	0
 19535 0775 00000000 		.4byte	0
 19536              	.LLST199:
 19537 0779 18010000 		.4byte	.LVL360
 19538 077d CE010000 		.4byte	.LVL370
 19539 0781 0100     		.2byte	0x1
 19540 0783 50       		.byte	0x50
 19541 0784 EA010000 		.4byte	.LVL376
 19542 0788 08030000 		.4byte	.LFE337
 19543 078c 0100     		.2byte	0x1
 19544 078e 50       		.byte	0x50
 19545 078f 00000000 		.4byte	0
 19546 0793 00000000 		.4byte	0
 19547              	.LLST200:
 19548 0797 56020000 		.4byte	.LVL381
 19549 079b 5C020000 		.4byte	.LVL382
 19550 079f 1400     		.2byte	0x14
 19551 07a1 77       		.byte	0x77
 19552 07a2 00       		.sleb128 0
 19553 07a3 38       		.byte	0x38
 19554 07a4 74       		.byte	0x74
 19555 07a5 00       		.sleb128 0
 19556 07a6 38       		.byte	0x38
 19557 07a7 14       		.byte	0x14
 19558 07a8 14       		.byte	0x14
 19559 07a9 1B       		.byte	0x1b
 19560 07aa 1E       		.byte	0x1e
 19561 07ab 1C       		.byte	0x1c
 19562 07ac 37       		.byte	0x37
 19563 07ad 1A       		.byte	0x1a
 19564 07ae 0A       		.byte	0xa
 19565 07af FFFF     		.2byte	0xffff
 19566 07b1 1A       		.byte	0x1a
ARM GAS  /tmp/ccs3e2Sq.s 			page 345


 19567 07b2 1C       		.byte	0x1c
 19568 07b3 26       		.byte	0x26
 19569 07b4 9F       		.byte	0x9f
 19570 07b5 5C020000 		.4byte	.LVL382
 19571 07b9 78020000 		.4byte	.LVL385
 19572 07bd 1600     		.2byte	0x16
 19573 07bf 77       		.byte	0x77
 19574 07c0 00       		.sleb128 0
 19575 07c1 38       		.byte	0x38
 19576 07c2 70       		.byte	0x70
 19577 07c3 16       		.sleb128 22
 19578 07c4 94       		.byte	0x94
 19579 07c5 02       		.byte	0x2
 19580 07c6 38       		.byte	0x38
 19581 07c7 14       		.byte	0x14
 19582 07c8 14       		.byte	0x14
 19583 07c9 1B       		.byte	0x1b
 19584 07ca 1E       		.byte	0x1e
 19585 07cb 1C       		.byte	0x1c
 19586 07cc 37       		.byte	0x37
 19587 07cd 1A       		.byte	0x1a
 19588 07ce 0A       		.byte	0xa
 19589 07cf FFFF     		.2byte	0xffff
 19590 07d1 1A       		.byte	0x1a
 19591 07d2 1C       		.byte	0x1c
 19592 07d3 26       		.byte	0x26
 19593 07d4 9F       		.byte	0x9f
 19594 07d5 80020000 		.4byte	.LVL386
 19595 07d9 A6020000 		.4byte	.LVL390
 19596 07dd 0100     		.2byte	0x1
 19597 07df 54       		.byte	0x54
 19598 07e0 F8020000 		.4byte	.LVL396
 19599 07e4 FE020000 		.4byte	.LVL397
 19600 07e8 0100     		.2byte	0x1
 19601 07ea 54       		.byte	0x54
 19602 07eb 04030000 		.4byte	.LVL398
 19603 07ef 06030000 		.4byte	.LVL399
 19604 07f3 0100     		.2byte	0x1
 19605 07f5 54       		.byte	0x54
 19606 07f6 00000000 		.4byte	0
 19607 07fa 00000000 		.4byte	0
 19608              	.LLST201:
 19609 07fe 56020000 		.4byte	.LVL381
 19610 0802 80020000 		.4byte	.LVL386
 19611 0806 0700     		.2byte	0x7
 19612 0808 91       		.byte	0x91
 19613 0809 48       		.sleb128 -56
 19614 080a 94       		.byte	0x94
 19615 080b 02       		.byte	0x2
 19616 080c 23       		.byte	0x23
 19617 080d 01       		.uleb128 0x1
 19618 080e 9F       		.byte	0x9f
 19619 080f 80020000 		.4byte	.LVL386
 19620 0813 C8020000 		.4byte	.LVL392
 19621 0817 0100     		.2byte	0x1
 19622 0819 5C       		.byte	0x5c
 19623 081a F8020000 		.4byte	.LVL396
ARM GAS  /tmp/ccs3e2Sq.s 			page 346


 19624 081e FE020000 		.4byte	.LVL397
 19625 0822 0100     		.2byte	0x1
 19626 0824 5C       		.byte	0x5c
 19627 0825 04030000 		.4byte	.LVL398
 19628 0829 08030000 		.4byte	.LFE337
 19629 082d 0100     		.2byte	0x1
 19630 082f 5C       		.byte	0x5c
 19631 0830 00000000 		.4byte	0
 19632 0834 00000000 		.4byte	0
 19633              	.LLST202:
 19634 0838 80020000 		.4byte	.LVL386
 19635 083c CC020000 		.4byte	.LVL393
 19636 0840 0100     		.2byte	0x1
 19637 0842 53       		.byte	0x53
 19638 0843 F8020000 		.4byte	.LVL396
 19639 0847 FE020000 		.4byte	.LVL397
 19640 084b 0100     		.2byte	0x1
 19641 084d 53       		.byte	0x53
 19642 084e 04030000 		.4byte	.LVL398
 19643 0852 08030000 		.4byte	.LFE337
 19644 0856 0100     		.2byte	0x1
 19645 0858 53       		.byte	0x53
 19646 0859 00000000 		.4byte	0
 19647 085d 00000000 		.4byte	0
 19648              	.LLST203:
 19649 0861 80020000 		.4byte	.LVL386
 19650 0865 82020000 		.4byte	.LVL387
 19651 0869 0100     		.2byte	0x1
 19652 086b 50       		.byte	0x50
 19653 086c 00000000 		.4byte	0
 19654 0870 00000000 		.4byte	0
 19655              	.LLST204:
 19656 0874 80020000 		.4byte	.LVL386
 19657 0878 A6020000 		.4byte	.LVL390
 19658 087c 0100     		.2byte	0x1
 19659 087e 54       		.byte	0x54
 19660 087f 04030000 		.4byte	.LVL398
 19661 0883 06030000 		.4byte	.LVL399
 19662 0887 0100     		.2byte	0x1
 19663 0889 54       		.byte	0x54
 19664 088a 00000000 		.4byte	0
 19665 088e 00000000 		.4byte	0
 19666              	.LLST205:
 19667 0892 80020000 		.4byte	.LVL386
 19668 0896 C8020000 		.4byte	.LVL392
 19669 089a 0100     		.2byte	0x1
 19670 089c 5C       		.byte	0x5c
 19671 089d 04030000 		.4byte	.LVL398
 19672 08a1 08030000 		.4byte	.LFE337
 19673 08a5 0100     		.2byte	0x1
 19674 08a7 5C       		.byte	0x5c
 19675 08a8 00000000 		.4byte	0
 19676 08ac 00000000 		.4byte	0
 19677              	.LLST206:
 19678 08b0 80020000 		.4byte	.LVL386
 19679 08b4 CC020000 		.4byte	.LVL393
 19680 08b8 0100     		.2byte	0x1
ARM GAS  /tmp/ccs3e2Sq.s 			page 347


 19681 08ba 53       		.byte	0x53
 19682 08bb 04030000 		.4byte	.LVL398
 19683 08bf 08030000 		.4byte	.LFE337
 19684 08c3 0100     		.2byte	0x1
 19685 08c5 53       		.byte	0x53
 19686 08c6 00000000 		.4byte	0
 19687 08ca 00000000 		.4byte	0
 19688              	.LLST207:
 19689 08ce 80020000 		.4byte	.LVL386
 19690 08d2 E2020000 		.4byte	.LVL394
 19691 08d6 0100     		.2byte	0x1
 19692 08d8 50       		.byte	0x50
 19693 08d9 04030000 		.4byte	.LVL398
 19694 08dd 08030000 		.4byte	.LFE337
 19695 08e1 0100     		.2byte	0x1
 19696 08e3 50       		.byte	0x50
 19697 08e4 00000000 		.4byte	0
 19698 08e8 00000000 		.4byte	0
 19699              	.LLST208:
 19700 08ec A0020000 		.4byte	.LVL389
 19701 08f0 AA020000 		.4byte	.LVL391
 19702 08f4 0100     		.2byte	0x1
 19703 08f6 51       		.byte	0x51
 19704 08f7 AA020000 		.4byte	.LVL391
 19705 08fb E2020000 		.4byte	.LVL394
 19706 08ff 0200     		.2byte	0x2
 19707 0901 91       		.byte	0x91
 19708 0902 40       		.sleb128 -64
 19709 0903 04030000 		.4byte	.LVL398
 19710 0907 08030000 		.4byte	.LFE337
 19711 090b 0100     		.2byte	0x1
 19712 090d 51       		.byte	0x51
 19713 090e 00000000 		.4byte	0
 19714 0912 00000000 		.4byte	0
 19715              	.LLST209:
 19716 0916 BA010000 		.4byte	.LVL366
 19717 091a BC010000 		.4byte	.LVL367
 19718 091e 0100     		.2byte	0x1
 19719 0920 5C       		.byte	0x5c
 19720 0921 EA010000 		.4byte	.LVL376
 19721 0925 48020000 		.4byte	.LVL380
 19722 0929 0100     		.2byte	0x1
 19723 092b 5C       		.byte	0x5c
 19724 092c FE020000 		.4byte	.LVL397
 19725 0930 04030000 		.4byte	.LVL398
 19726 0934 0100     		.2byte	0x1
 19727 0936 5C       		.byte	0x5c
 19728 0937 00000000 		.4byte	0
 19729 093b 00000000 		.4byte	0
 19730              	.LLST210:
 19731 093f BA010000 		.4byte	.LVL366
 19732 0943 BC010000 		.4byte	.LVL367
 19733 0947 0200     		.2byte	0x2
 19734 0949 70       		.byte	0x70
 19735 094a 14       		.sleb128 20
 19736 094b EA010000 		.4byte	.LVL376
 19737 094f 1A020000 		.4byte	.LVL379
ARM GAS  /tmp/ccs3e2Sq.s 			page 348


 19738 0953 0200     		.2byte	0x2
 19739 0955 70       		.byte	0x70
 19740 0956 14       		.sleb128 20
 19741 0957 FE020000 		.4byte	.LVL397
 19742 095b 04030000 		.4byte	.LVL398
 19743 095f 0200     		.2byte	0x2
 19744 0961 70       		.byte	0x70
 19745 0962 14       		.sleb128 20
 19746 0963 00000000 		.4byte	0
 19747 0967 00000000 		.4byte	0
 19748              	.LLST211:
 19749 096b EA010000 		.4byte	.LVL376
 19750 096f 76020000 		.4byte	.LVL384
 19751 0973 0100     		.2byte	0x1
 19752 0975 5C       		.byte	0x5c
 19753 0976 76020000 		.4byte	.LVL384
 19754 097a 82020000 		.4byte	.LVL387
 19755 097e 0200     		.2byte	0x2
 19756 0980 91       		.byte	0x91
 19757 0981 48       		.sleb128 -56
 19758 0982 FE020000 		.4byte	.LVL397
 19759 0986 04030000 		.4byte	.LVL398
 19760 098a 0100     		.2byte	0x1
 19761 098c 5C       		.byte	0x5c
 19762 098d 00000000 		.4byte	0
 19763 0991 00000000 		.4byte	0
 19764              	.LLST212:
 19765 0995 EA010000 		.4byte	.LVL376
 19766 0999 1A020000 		.4byte	.LVL379
 19767 099d 0200     		.2byte	0x2
 19768 099f 70       		.byte	0x70
 19769 09a0 14       		.sleb128 20
 19770 09a1 FE020000 		.4byte	.LVL397
 19771 09a5 04030000 		.4byte	.LVL398
 19772 09a9 0200     		.2byte	0x2
 19773 09ab 70       		.byte	0x70
 19774 09ac 14       		.sleb128 20
 19775 09ad 00000000 		.4byte	0
 19776 09b1 00000000 		.4byte	0
 19777              	.LLST213:
 19778 09b5 EA010000 		.4byte	.LVL376
 19779 09b9 82020000 		.4byte	.LVL387
 19780 09bd 0100     		.2byte	0x1
 19781 09bf 50       		.byte	0x50
 19782 09c0 FE020000 		.4byte	.LVL397
 19783 09c4 04030000 		.4byte	.LVL398
 19784 09c8 0100     		.2byte	0x1
 19785 09ca 50       		.byte	0x50
 19786 09cb 00000000 		.4byte	0
 19787 09cf 00000000 		.4byte	0
 19788              	.LLST214:
 19789 09d3 08020000 		.4byte	.LVL377
 19790 09d7 18020000 		.4byte	.LVL378
 19791 09db 0100     		.2byte	0x1
 19792 09dd 51       		.byte	0x51
 19793 09de 18020000 		.4byte	.LVL378
 19794 09e2 6A020000 		.4byte	.LVL383
ARM GAS  /tmp/ccs3e2Sq.s 			page 349


 19795 09e6 0200     		.2byte	0x2
 19796 09e8 91       		.byte	0x91
 19797 09e9 40       		.sleb128 -64
 19798 09ea FE020000 		.4byte	.LVL397
 19799 09ee 04030000 		.4byte	.LVL398
 19800 09f2 0100     		.2byte	0x1
 19801 09f4 51       		.byte	0x51
 19802 09f5 00000000 		.4byte	0
 19803 09f9 00000000 		.4byte	0
 19804              	.LLST215:
 19805 09fd D6000000 		.4byte	.LVL354
 19806 0a01 DC000000 		.4byte	.LVL355
 19807 0a05 0100     		.2byte	0x1
 19808 0a07 50       		.byte	0x50
 19809 0a08 00000000 		.4byte	0
 19810 0a0c 00000000 		.4byte	0
 19811              	.LLST160:
 19812 0a10 00000000 		.4byte	.LVL300
 19813 0a14 26000000 		.4byte	.LVL301
 19814 0a18 0100     		.2byte	0x1
 19815 0a1a 51       		.byte	0x51
 19816 0a1b 26000000 		.4byte	.LVL301
 19817 0a1f A2020000 		.4byte	.LFE336
 19818 0a23 0100     		.2byte	0x1
 19819 0a25 51       		.byte	0x51
 19820 0a26 00000000 		.4byte	0
 19821 0a2a 00000000 		.4byte	0
 19822              	.LLST161:
 19823 0a2e 00000000 		.4byte	.LVL300
 19824 0a32 26000000 		.4byte	.LVL301
 19825 0a36 0100     		.2byte	0x1
 19826 0a38 52       		.byte	0x52
 19827 0a39 26000000 		.4byte	.LVL301
 19828 0a3d 5A000000 		.4byte	.LVL305
 19829 0a41 0100     		.2byte	0x1
 19830 0a43 5C       		.byte	0x5c
 19831 0a44 5A000000 		.4byte	.LVL305
 19832 0a48 48010000 		.4byte	.LVL322
 19833 0a4c 0200     		.2byte	0x2
 19834 0a4e 91       		.byte	0x91
 19835 0a4f 44       		.sleb128 -60
 19836 0a50 4E010000 		.4byte	.LVL323
 19837 0a54 A2020000 		.4byte	.LFE336
 19838 0a58 0200     		.2byte	0x2
 19839 0a5a 91       		.byte	0x91
 19840 0a5b 44       		.sleb128 -60
 19841 0a5c 00000000 		.4byte	0
 19842 0a60 00000000 		.4byte	0
 19843              	.LLST162:
 19844 0a64 00000000 		.4byte	.LVL300
 19845 0a68 2C000000 		.4byte	.LVL302
 19846 0a6c 0100     		.2byte	0x1
 19847 0a6e 53       		.byte	0x53
 19848 0a6f 2C000000 		.4byte	.LVL302
 19849 0a73 A2020000 		.4byte	.LFE336
 19850 0a77 0100     		.2byte	0x1
 19851 0a79 53       		.byte	0x53
ARM GAS  /tmp/ccs3e2Sq.s 			page 350


 19852 0a7a 00000000 		.4byte	0
 19853 0a7e 00000000 		.4byte	0
 19854              	.LLST163:
 19855 0a82 00000000 		.4byte	.LVL300
 19856 0a86 3C000000 		.4byte	.LVL303
 19857 0a8a 0200     		.2byte	0x2
 19858 0a8c 91       		.byte	0x91
 19859 0a8d 00       		.sleb128 0
 19860 0a8e 3C000000 		.4byte	.LVL303
 19861 0a92 A2020000 		.4byte	.LFE336
 19862 0a96 0100     		.2byte	0x1
 19863 0a98 5A       		.byte	0x5a
 19864 0a99 00000000 		.4byte	0
 19865 0a9d 00000000 		.4byte	0
 19866              	.LLST164:
 19867 0aa1 4E000000 		.4byte	.LVL304
 19868 0aa5 42010000 		.4byte	.LVL320
 19869 0aa9 0100     		.2byte	0x1
 19870 0aab 55       		.byte	0x55
 19871 0aac 44010000 		.4byte	.LVL321
 19872 0ab0 A2020000 		.4byte	.LFE336
 19873 0ab4 0100     		.2byte	0x1
 19874 0ab6 55       		.byte	0x55
 19875 0ab7 00000000 		.4byte	0
 19876 0abb 00000000 		.4byte	0
 19877              	.LLST165:
 19878 0abf 5A000000 		.4byte	.LVL305
 19879 0ac3 7A000000 		.4byte	.LVL306
 19880 0ac7 0300     		.2byte	0x3
 19881 0ac9 09       		.byte	0x9
 19882 0aca FF       		.byte	0xff
 19883 0acb 9F       		.byte	0x9f
 19884 0acc 7A000000 		.4byte	.LVL306
 19885 0ad0 48010000 		.4byte	.LVL322
 19886 0ad4 0100     		.2byte	0x1
 19887 0ad6 58       		.byte	0x58
 19888 0ad7 4E010000 		.4byte	.LVL323
 19889 0adb A2020000 		.4byte	.LFE336
 19890 0adf 0100     		.2byte	0x1
 19891 0ae1 58       		.byte	0x58
 19892 0ae2 00000000 		.4byte	0
 19893 0ae6 00000000 		.4byte	0
 19894              	.LLST166:
 19895 0aea 8A000000 		.4byte	.LVL307
 19896 0aee 92000000 		.4byte	.LVL308
 19897 0af2 0100     		.2byte	0x1
 19898 0af4 51       		.byte	0x51
 19899 0af5 92000000 		.4byte	.LVL308
 19900 0af9 34010000 		.4byte	.LVL317
 19901 0afd 0100     		.2byte	0x1
 19902 0aff 54       		.byte	0x54
 19903 0b00 3E010000 		.4byte	.LVL318
 19904 0b04 40010000 		.4byte	.LVL319
 19905 0b08 0100     		.2byte	0x1
 19906 0b0a 54       		.byte	0x54
 19907 0b0b 4E010000 		.4byte	.LVL323
 19908 0b0f A2020000 		.4byte	.LFE336
ARM GAS  /tmp/ccs3e2Sq.s 			page 351


 19909 0b13 0100     		.2byte	0x1
 19910 0b15 54       		.byte	0x54
 19911 0b16 00000000 		.4byte	0
 19912 0b1a 00000000 		.4byte	0
 19913              	.LLST167:
 19914 0b1e 92000000 		.4byte	.LVL308
 19915 0b22 3E010000 		.4byte	.LVL318
 19916 0b26 0100     		.2byte	0x1
 19917 0b28 50       		.byte	0x50
 19918 0b29 4E010000 		.4byte	.LVL323
 19919 0b2d A2020000 		.4byte	.LFE336
 19920 0b31 0100     		.2byte	0x1
 19921 0b33 50       		.byte	0x50
 19922 0b34 00000000 		.4byte	0
 19923 0b38 00000000 		.4byte	0
 19924              	.LLST168:
 19925 0b3c D6010000 		.4byte	.LVL331
 19926 0b40 DC010000 		.4byte	.LVL332
 19927 0b44 1500     		.2byte	0x15
 19928 0b46 91       		.byte	0x91
 19929 0b47 4C       		.sleb128 -52
 19930 0b48 06       		.byte	0x6
 19931 0b49 38       		.byte	0x38
 19932 0b4a 76       		.byte	0x76
 19933 0b4b 00       		.sleb128 0
 19934 0b4c 38       		.byte	0x38
 19935 0b4d 14       		.byte	0x14
 19936 0b4e 14       		.byte	0x14
 19937 0b4f 1B       		.byte	0x1b
 19938 0b50 1E       		.byte	0x1e
 19939 0b51 1C       		.byte	0x1c
 19940 0b52 37       		.byte	0x37
 19941 0b53 1A       		.byte	0x1a
 19942 0b54 0A       		.byte	0xa
 19943 0b55 FFFF     		.2byte	0xffff
 19944 0b57 1A       		.byte	0x1a
 19945 0b58 1C       		.byte	0x1c
 19946 0b59 26       		.byte	0x26
 19947 0b5a 9F       		.byte	0x9f
 19948 0b5b DC010000 		.4byte	.LVL332
 19949 0b5f 06020000 		.4byte	.LVL334
 19950 0b63 1700     		.2byte	0x17
 19951 0b65 91       		.byte	0x91
 19952 0b66 4C       		.sleb128 -52
 19953 0b67 06       		.byte	0x6
 19954 0b68 38       		.byte	0x38
 19955 0b69 70       		.byte	0x70
 19956 0b6a 16       		.sleb128 22
 19957 0b6b 94       		.byte	0x94
 19958 0b6c 02       		.byte	0x2
 19959 0b6d 38       		.byte	0x38
 19960 0b6e 14       		.byte	0x14
 19961 0b6f 14       		.byte	0x14
 19962 0b70 1B       		.byte	0x1b
 19963 0b71 1E       		.byte	0x1e
 19964 0b72 1C       		.byte	0x1c
 19965 0b73 37       		.byte	0x37
ARM GAS  /tmp/ccs3e2Sq.s 			page 352


 19966 0b74 1A       		.byte	0x1a
 19967 0b75 0A       		.byte	0xa
 19968 0b76 FFFF     		.2byte	0xffff
 19969 0b78 1A       		.byte	0x1a
 19970 0b79 1C       		.byte	0x1c
 19971 0b7a 26       		.byte	0x26
 19972 0b7b 9F       		.byte	0x9f
 19973 0b7c 06020000 		.4byte	.LVL334
 19974 0b80 3A020000 		.4byte	.LVL339
 19975 0b84 0100     		.2byte	0x1
 19976 0b86 5E       		.byte	0x5e
 19977 0b87 8C020000 		.4byte	.LVL343
 19978 0b8b 92020000 		.4byte	.LVL344
 19979 0b8f 0100     		.2byte	0x1
 19980 0b91 5E       		.byte	0x5e
 19981 0b92 9A020000 		.4byte	.LVL345
 19982 0b96 A2020000 		.4byte	.LFE336
 19983 0b9a 0100     		.2byte	0x1
 19984 0b9c 5E       		.byte	0x5e
 19985 0b9d 00000000 		.4byte	0
 19986 0ba1 00000000 		.4byte	0
 19987              	.LLST169:
 19988 0ba5 D6010000 		.4byte	.LVL331
 19989 0ba9 06020000 		.4byte	.LVL334
 19990 0bad 0300     		.2byte	0x3
 19991 0baf 79       		.byte	0x79
 19992 0bb0 01       		.sleb128 1
 19993 0bb1 9F       		.byte	0x9f
 19994 0bb2 06020000 		.4byte	.LVL334
 19995 0bb6 56020000 		.4byte	.LVL340
 19996 0bba 0100     		.2byte	0x1
 19997 0bbc 5C       		.byte	0x5c
 19998 0bbd 8C020000 		.4byte	.LVL343
 19999 0bc1 92020000 		.4byte	.LVL344
 20000 0bc5 0100     		.2byte	0x1
 20001 0bc7 5C       		.byte	0x5c
 20002 0bc8 9A020000 		.4byte	.LVL345
 20003 0bcc A2020000 		.4byte	.LFE336
 20004 0bd0 0100     		.2byte	0x1
 20005 0bd2 5C       		.byte	0x5c
 20006 0bd3 00000000 		.4byte	0
 20007 0bd7 00000000 		.4byte	0
 20008              	.LLST170:
 20009 0bdb FA010000 		.4byte	.LVL333
 20010 0bdf 5A020000 		.4byte	.LVL341
 20011 0be3 0100     		.2byte	0x1
 20012 0be5 52       		.byte	0x52
 20013 0be6 8C020000 		.4byte	.LVL343
 20014 0bea 92020000 		.4byte	.LVL344
 20015 0bee 0100     		.2byte	0x1
 20016 0bf0 52       		.byte	0x52
 20017 0bf1 9A020000 		.4byte	.LVL345
 20018 0bf5 A2020000 		.4byte	.LFE336
 20019 0bf9 0100     		.2byte	0x1
 20020 0bfb 52       		.byte	0x52
 20021 0bfc 00000000 		.4byte	0
 20022 0c00 00000000 		.4byte	0
ARM GAS  /tmp/ccs3e2Sq.s 			page 353


 20023              	.LLST171:
 20024 0c04 FA010000 		.4byte	.LVL333
 20025 0c08 08020000 		.4byte	.LVL335
 20026 0c0c 0100     		.2byte	0x1
 20027 0c0e 50       		.byte	0x50
 20028 0c0f 00000000 		.4byte	0
 20029 0c13 00000000 		.4byte	0
 20030              	.LLST172:
 20031 0c17 06020000 		.4byte	.LVL334
 20032 0c1b 3A020000 		.4byte	.LVL339
 20033 0c1f 0100     		.2byte	0x1
 20034 0c21 5E       		.byte	0x5e
 20035 0c22 9A020000 		.4byte	.LVL345
 20036 0c26 A2020000 		.4byte	.LFE336
 20037 0c2a 0100     		.2byte	0x1
 20038 0c2c 5E       		.byte	0x5e
 20039 0c2d 00000000 		.4byte	0
 20040 0c31 00000000 		.4byte	0
 20041              	.LLST173:
 20042 0c35 06020000 		.4byte	.LVL334
 20043 0c39 56020000 		.4byte	.LVL340
 20044 0c3d 0100     		.2byte	0x1
 20045 0c3f 5C       		.byte	0x5c
 20046 0c40 9A020000 		.4byte	.LVL345
 20047 0c44 A2020000 		.4byte	.LFE336
 20048 0c48 0100     		.2byte	0x1
 20049 0c4a 5C       		.byte	0x5c
 20050 0c4b 00000000 		.4byte	0
 20051 0c4f 00000000 		.4byte	0
 20052              	.LLST174:
 20053 0c53 06020000 		.4byte	.LVL334
 20054 0c57 5A020000 		.4byte	.LVL341
 20055 0c5b 0100     		.2byte	0x1
 20056 0c5d 52       		.byte	0x52
 20057 0c5e 9A020000 		.4byte	.LVL345
 20058 0c62 A2020000 		.4byte	.LFE336
 20059 0c66 0100     		.2byte	0x1
 20060 0c68 52       		.byte	0x52
 20061 0c69 00000000 		.4byte	0
 20062 0c6d 00000000 		.4byte	0
 20063              	.LLST175:
 20064 0c71 06020000 		.4byte	.LVL334
 20065 0c75 72020000 		.4byte	.LVL342
 20066 0c79 0100     		.2byte	0x1
 20067 0c7b 50       		.byte	0x50
 20068 0c7c 9A020000 		.4byte	.LVL345
 20069 0c80 A2020000 		.4byte	.LFE336
 20070 0c84 0100     		.2byte	0x1
 20071 0c86 50       		.byte	0x50
 20072 0c87 00000000 		.4byte	0
 20073 0c8b 00000000 		.4byte	0
 20074              	.LLST176:
 20075 0c8f 10020000 		.4byte	.LVL337
 20076 0c93 26020000 		.4byte	.LVL338
 20077 0c97 0200     		.2byte	0x2
 20078 0c99 91       		.byte	0x91
 20079 0c9a 48       		.sleb128 -56
ARM GAS  /tmp/ccs3e2Sq.s 			page 354


 20080 0c9b 00000000 		.4byte	0
 20081 0c9f 00000000 		.4byte	0
 20082              	.LLST177:
 20083 0ca3 2A010000 		.4byte	.LVL314
 20084 0ca7 2C010000 		.4byte	.LVL315
 20085 0cab 0100     		.2byte	0x1
 20086 0cad 5E       		.byte	0x5e
 20087 0cae 5E010000 		.4byte	.LVL325
 20088 0cb2 BE010000 		.4byte	.LVL329
 20089 0cb6 0100     		.2byte	0x1
 20090 0cb8 5E       		.byte	0x5e
 20091 0cb9 BE010000 		.4byte	.LVL329
 20092 0cbd C8010000 		.4byte	.LVL330
 20093 0cc1 0100     		.2byte	0x1
 20094 0cc3 59       		.byte	0x59
 20095 0cc4 92020000 		.4byte	.LVL344
 20096 0cc8 9A020000 		.4byte	.LVL345
 20097 0ccc 0100     		.2byte	0x1
 20098 0cce 5E       		.byte	0x5e
 20099 0ccf 00000000 		.4byte	0
 20100 0cd3 00000000 		.4byte	0
 20101              	.LLST178:
 20102 0cd7 2A010000 		.4byte	.LVL314
 20103 0cdb 2C010000 		.4byte	.LVL315
 20104 0cdf 0200     		.2byte	0x2
 20105 0ce1 70       		.byte	0x70
 20106 0ce2 14       		.sleb128 20
 20107 0ce3 5E010000 		.4byte	.LVL325
 20108 0ce7 96010000 		.4byte	.LVL328
 20109 0ceb 0200     		.2byte	0x2
 20110 0ced 70       		.byte	0x70
 20111 0cee 14       		.sleb128 20
 20112 0cef 92020000 		.4byte	.LVL344
 20113 0cf3 9A020000 		.4byte	.LVL345
 20114 0cf7 0200     		.2byte	0x2
 20115 0cf9 70       		.byte	0x70
 20116 0cfa 14       		.sleb128 20
 20117 0cfb 00000000 		.4byte	0
 20118 0cff 00000000 		.4byte	0
 20119              	.LLST179:
 20120 0d03 5E010000 		.4byte	.LVL325
 20121 0d07 BE010000 		.4byte	.LVL329
 20122 0d0b 0100     		.2byte	0x1
 20123 0d0d 5E       		.byte	0x5e
 20124 0d0e BE010000 		.4byte	.LVL329
 20125 0d12 08020000 		.4byte	.LVL335
 20126 0d16 0100     		.2byte	0x1
 20127 0d18 59       		.byte	0x59
 20128 0d19 92020000 		.4byte	.LVL344
 20129 0d1d 9A020000 		.4byte	.LVL345
 20130 0d21 0100     		.2byte	0x1
 20131 0d23 5E       		.byte	0x5e
 20132 0d24 00000000 		.4byte	0
 20133 0d28 00000000 		.4byte	0
 20134              	.LLST180:
 20135 0d2c 5E010000 		.4byte	.LVL325
 20136 0d30 96010000 		.4byte	.LVL328
ARM GAS  /tmp/ccs3e2Sq.s 			page 355


 20137 0d34 0200     		.2byte	0x2
 20138 0d36 70       		.byte	0x70
 20139 0d37 14       		.sleb128 20
 20140 0d38 92020000 		.4byte	.LVL344
 20141 0d3c 9A020000 		.4byte	.LVL345
 20142 0d40 0200     		.2byte	0x2
 20143 0d42 70       		.byte	0x70
 20144 0d43 14       		.sleb128 20
 20145 0d44 00000000 		.4byte	0
 20146 0d48 00000000 		.4byte	0
 20147              	.LLST181:
 20148 0d4c 5E010000 		.4byte	.LVL325
 20149 0d50 08020000 		.4byte	.LVL335
 20150 0d54 0100     		.2byte	0x1
 20151 0d56 50       		.byte	0x50
 20152 0d57 92020000 		.4byte	.LVL344
 20153 0d5b 9A020000 		.4byte	.LVL345
 20154 0d5f 0100     		.2byte	0x1
 20155 0d61 50       		.byte	0x50
 20156 0d62 00000000 		.4byte	0
 20157 0d66 00000000 		.4byte	0
 20158              	.LLST182:
 20159 0d6a 64010000 		.4byte	.LVL326
 20160 0d6e 78010000 		.4byte	.LVL327
 20161 0d72 0200     		.2byte	0x2
 20162 0d74 91       		.byte	0x91
 20163 0d75 48       		.sleb128 -56
 20164 0d76 00000000 		.4byte	0
 20165 0d7a 00000000 		.4byte	0
 20166              	.LLST183:
 20167 0d7e 5A000000 		.4byte	.LVL305
 20168 0d82 7A000000 		.4byte	.LVL306
 20169 0d86 0100     		.2byte	0x1
 20170 0d88 55       		.byte	0x55
 20171 0d89 00000000 		.4byte	0
 20172 0d8d 00000000 		.4byte	0
 20173              	.LLST184:
 20174 0d91 5A000000 		.4byte	.LVL305
 20175 0d95 7A000000 		.4byte	.LVL306
 20176 0d99 0100     		.2byte	0x1
 20177 0d9b 51       		.byte	0x51
 20178 0d9c 00000000 		.4byte	0
 20179 0da0 00000000 		.4byte	0
 20180              	.LLST185:
 20181 0da4 5A000000 		.4byte	.LVL305
 20182 0da8 7A000000 		.4byte	.LVL306
 20183 0dac 0100     		.2byte	0x1
 20184 0dae 50       		.byte	0x50
 20185 0daf 00000000 		.4byte	0
 20186 0db3 00000000 		.4byte	0
 20187              	.LLST88:
 20188 0db7 00000000 		.4byte	.LVL145
 20189 0dbb 3E000000 		.4byte	.LVL148
 20190 0dbf 0100     		.2byte	0x1
 20191 0dc1 50       		.byte	0x50
 20192 0dc2 3E000000 		.4byte	.LVL148
 20193 0dc6 F2070000 		.4byte	.LFE335
ARM GAS  /tmp/ccs3e2Sq.s 			page 356


 20194 0dca 0100     		.2byte	0x1
 20195 0dcc 57       		.byte	0x57
 20196 0dcd 00000000 		.4byte	0
 20197 0dd1 00000000 		.4byte	0
 20198              	.LLST89:
 20199 0dd5 00000000 		.4byte	.LVL145
 20200 0dd9 3E000000 		.4byte	.LVL148
 20201 0ddd 0100     		.2byte	0x1
 20202 0ddf 51       		.byte	0x51
 20203 0de0 3E000000 		.4byte	.LVL148
 20204 0de4 F2070000 		.4byte	.LFE335
 20205 0de8 0400     		.2byte	0x4
 20206 0dea F3       		.byte	0xf3
 20207 0deb 01       		.uleb128 0x1
 20208 0dec 51       		.byte	0x51
 20209 0ded 9F       		.byte	0x9f
 20210 0dee 00000000 		.4byte	0
 20211 0df2 00000000 		.4byte	0
 20212              	.LLST90:
 20213 0df6 00000000 		.4byte	.LVL145
 20214 0dfa 3E000000 		.4byte	.LVL148
 20215 0dfe 0100     		.2byte	0x1
 20216 0e00 52       		.byte	0x52
 20217 0e01 3E000000 		.4byte	.LVL148
 20218 0e05 F2070000 		.4byte	.LFE335
 20219 0e09 0400     		.2byte	0x4
 20220 0e0b F3       		.byte	0xf3
 20221 0e0c 01       		.uleb128 0x1
 20222 0e0d 52       		.byte	0x52
 20223 0e0e 9F       		.byte	0x9f
 20224 0e0f 00000000 		.4byte	0
 20225 0e13 00000000 		.4byte	0
 20226              	.LLST91:
 20227 0e17 00000000 		.4byte	.LVL145
 20228 0e1b 1C000000 		.4byte	.LVL146
 20229 0e1f 0100     		.2byte	0x1
 20230 0e21 53       		.byte	0x53
 20231 0e22 1C000000 		.4byte	.LVL146
 20232 0e26 F2070000 		.4byte	.LFE335
 20233 0e2a 0400     		.2byte	0x4
 20234 0e2c F3       		.byte	0xf3
 20235 0e2d 01       		.uleb128 0x1
 20236 0e2e 53       		.byte	0x53
 20237 0e2f 9F       		.byte	0x9f
 20238 0e30 00000000 		.4byte	0
 20239 0e34 00000000 		.4byte	0
 20240              	.LLST92:
 20241 0e38 00000000 		.4byte	.LVL145
 20242 0e3c 60030000 		.4byte	.LVL212
 20243 0e40 0200     		.2byte	0x2
 20244 0e42 91       		.byte	0x91
 20245 0e43 00       		.sleb128 0
 20246 0e44 60030000 		.4byte	.LVL212
 20247 0e48 F2070000 		.4byte	.LFE335
 20248 0e4c 0200     		.2byte	0x2
 20249 0e4e 91       		.byte	0x91
 20250 0e4f 00       		.sleb128 0
ARM GAS  /tmp/ccs3e2Sq.s 			page 357


 20251 0e50 00000000 		.4byte	0
 20252 0e54 00000000 		.4byte	0
 20253              	.LLST93:
 20254 0e58 00000000 		.4byte	.LVL145
 20255 0e5c 3E000000 		.4byte	.LVL148
 20256 0e60 0200     		.2byte	0x2
 20257 0e62 91       		.byte	0x91
 20258 0e63 04       		.sleb128 4
 20259 0e64 3E000000 		.4byte	.LVL148
 20260 0e68 32010000 		.4byte	.LVL167
 20261 0e6c 0100     		.2byte	0x1
 20262 0e6e 58       		.byte	0x58
 20263 0e6f 32010000 		.4byte	.LVL167
 20264 0e73 E0020000 		.4byte	.LVL198
 20265 0e77 0300     		.2byte	0x3
 20266 0e79 79       		.byte	0x79
 20267 0e7a 7F       		.sleb128 -1
 20268 0e7b 9F       		.byte	0x9f
 20269 0e7c E0020000 		.4byte	.LVL198
 20270 0e80 2E030000 		.4byte	.LVL205
 20271 0e84 0100     		.2byte	0x1
 20272 0e86 58       		.byte	0x58
 20273 0e87 2E030000 		.4byte	.LVL205
 20274 0e8b 36030000 		.4byte	.LVL206
 20275 0e8f 0300     		.2byte	0x3
 20276 0e91 78       		.byte	0x78
 20277 0e92 01       		.sleb128 1
 20278 0e93 9F       		.byte	0x9f
 20279 0e94 36030000 		.4byte	.LVL206
 20280 0e98 3C030000 		.4byte	.LVL208
 20281 0e9c 0100     		.2byte	0x1
 20282 0e9e 58       		.byte	0x58
 20283 0e9f 3C030000 		.4byte	.LVL208
 20284 0ea3 4C030000 		.4byte	.LVL209
 20285 0ea7 0300     		.2byte	0x3
 20286 0ea9 78       		.byte	0x78
 20287 0eaa 7F       		.sleb128 -1
 20288 0eab 9F       		.byte	0x9f
 20289 0eac 4C030000 		.4byte	.LVL209
 20290 0eb0 58030000 		.4byte	.LVL210
 20291 0eb4 0300     		.2byte	0x3
 20292 0eb6 78       		.byte	0x78
 20293 0eb7 01       		.sleb128 1
 20294 0eb8 9F       		.byte	0x9f
 20295 0eb9 58030000 		.4byte	.LVL210
 20296 0ebd 84030000 		.4byte	.LVL219
 20297 0ec1 0100     		.2byte	0x1
 20298 0ec3 58       		.byte	0x58
 20299 0ec4 84030000 		.4byte	.LVL219
 20300 0ec8 46040000 		.4byte	.LVL234
 20301 0ecc 0300     		.2byte	0x3
 20302 0ece 79       		.byte	0x79
 20303 0ecf 7F       		.sleb128 -1
 20304 0ed0 9F       		.byte	0x9f
 20305 0ed1 46040000 		.4byte	.LVL234
 20306 0ed5 B2040000 		.4byte	.LVL243
 20307 0ed9 0100     		.2byte	0x1
ARM GAS  /tmp/ccs3e2Sq.s 			page 358


 20308 0edb 58       		.byte	0x58
 20309 0edc B2040000 		.4byte	.LVL243
 20310 0ee0 F2070000 		.4byte	.LFE335
 20311 0ee4 0300     		.2byte	0x3
 20312 0ee6 79       		.byte	0x79
 20313 0ee7 7F       		.sleb128 -1
 20314 0ee8 9F       		.byte	0x9f
 20315 0ee9 00000000 		.4byte	0
 20316 0eed 00000000 		.4byte	0
 20317              	.LLST94:
 20318 0ef1 00000000 		.4byte	.LVL145
 20319 0ef5 60030000 		.4byte	.LVL212
 20320 0ef9 0200     		.2byte	0x2
 20321 0efb 91       		.byte	0x91
 20322 0efc 08       		.sleb128 8
 20323 0efd 60030000 		.4byte	.LVL212
 20324 0f01 F2070000 		.4byte	.LFE335
 20325 0f05 0200     		.2byte	0x2
 20326 0f07 91       		.byte	0x91
 20327 0f08 08       		.sleb128 8
 20328 0f09 00000000 		.4byte	0
 20329 0f0d 00000000 		.4byte	0
 20330              	.LLST95:
 20331 0f11 00000000 		.4byte	.LVL145
 20332 0f15 60030000 		.4byte	.LVL212
 20333 0f19 0200     		.2byte	0x2
 20334 0f1b 91       		.byte	0x91
 20335 0f1c 0C       		.sleb128 12
 20336 0f1d 60030000 		.4byte	.LVL212
 20337 0f21 F2070000 		.4byte	.LFE335
 20338 0f25 0200     		.2byte	0x2
 20339 0f27 91       		.byte	0x91
 20340 0f28 0C       		.sleb128 12
 20341 0f29 00000000 		.4byte	0
 20342 0f2d 00000000 		.4byte	0
 20343              	.LLST96:
 20344 0f31 00000000 		.4byte	.LVL145
 20345 0f35 3E000000 		.4byte	.LVL148
 20346 0f39 0200     		.2byte	0x2
 20347 0f3b 30       		.byte	0x30
 20348 0f3c 9F       		.byte	0x9f
 20349 0f3d 3E000000 		.4byte	.LVL148
 20350 0f41 74000000 		.4byte	.LVL153
 20351 0f45 0100     		.2byte	0x1
 20352 0f47 5B       		.byte	0x5b
 20353 0f48 74000000 		.4byte	.LVL153
 20354 0f4c 94000000 		.4byte	.LVL157
 20355 0f50 0200     		.2byte	0x2
 20356 0f52 30       		.byte	0x30
 20357 0f53 9F       		.byte	0x9f
 20358 0f54 94000000 		.4byte	.LVL157
 20359 0f58 A6000000 		.4byte	.LVL162
 20360 0f5c 0100     		.2byte	0x1
 20361 0f5e 5B       		.byte	0x5b
 20362 0f5f FC000000 		.4byte	.LVL164
 20363 0f63 D4020000 		.4byte	.LVL197
 20364 0f67 0100     		.2byte	0x1
ARM GAS  /tmp/ccs3e2Sq.s 			page 359


 20365 0f69 5B       		.byte	0x5b
 20366 0f6a E0020000 		.4byte	.LVL198
 20367 0f6e F0020000 		.4byte	.LVL199
 20368 0f72 0100     		.2byte	0x1
 20369 0f74 5B       		.byte	0x5b
 20370 0f75 F0020000 		.4byte	.LVL199
 20371 0f79 0C030000 		.4byte	.LVL202
 20372 0f7d 0200     		.2byte	0x2
 20373 0f7f 30       		.byte	0x30
 20374 0f80 9F       		.byte	0x9f
 20375 0f81 0C030000 		.4byte	.LVL202
 20376 0f85 2E030000 		.4byte	.LVL205
 20377 0f89 0100     		.2byte	0x1
 20378 0f8b 56       		.byte	0x56
 20379 0f8c 2E030000 		.4byte	.LVL205
 20380 0f90 38030000 		.4byte	.LVL207
 20381 0f94 0100     		.2byte	0x1
 20382 0f96 5B       		.byte	0x5b
 20383 0f97 38030000 		.4byte	.LVL207
 20384 0f9b 5A030000 		.4byte	.LVL211
 20385 0f9f 0200     		.2byte	0x2
 20386 0fa1 30       		.byte	0x30
 20387 0fa2 9F       		.byte	0x9f
 20388 0fa3 60030000 		.4byte	.LVL212
 20389 0fa7 46040000 		.4byte	.LVL234
 20390 0fab 0100     		.2byte	0x1
 20391 0fad 5B       		.byte	0x5b
 20392 0fae 46040000 		.4byte	.LVL234
 20393 0fb2 68040000 		.4byte	.LVL235
 20394 0fb6 0100     		.2byte	0x1
 20395 0fb8 56       		.byte	0x56
 20396 0fb9 68040000 		.4byte	.LVL235
 20397 0fbd 78040000 		.4byte	.LVL237
 20398 0fc1 0200     		.2byte	0x2
 20399 0fc3 30       		.byte	0x30
 20400 0fc4 9F       		.byte	0x9f
 20401 0fc5 78040000 		.4byte	.LVL237
 20402 0fc9 80040000 		.4byte	.LVL239
 20403 0fcd 0100     		.2byte	0x1
 20404 0fcf 5B       		.byte	0x5b
 20405 0fd0 80040000 		.4byte	.LVL239
 20406 0fd4 A2040000 		.4byte	.LVL241
 20407 0fd8 0100     		.2byte	0x1
 20408 0fda 56       		.byte	0x56
 20409 0fdb A2040000 		.4byte	.LVL241
 20410 0fdf B2040000 		.4byte	.LVL243
 20411 0fe3 0200     		.2byte	0x2
 20412 0fe5 30       		.byte	0x30
 20413 0fe6 9F       		.byte	0x9f
 20414 0fe7 B2040000 		.4byte	.LVL243
 20415 0feb F2070000 		.4byte	.LFE335
 20416 0fef 0100     		.2byte	0x1
 20417 0ff1 5B       		.byte	0x5b
 20418 0ff2 00000000 		.4byte	0
 20419 0ff6 00000000 		.4byte	0
 20420              	.LLST97:
 20421 0ffa 00000000 		.4byte	.LVL145
ARM GAS  /tmp/ccs3e2Sq.s 			page 360


 20422 0ffe 3E000000 		.4byte	.LVL148
 20423 1002 0200     		.2byte	0x2
 20424 1004 30       		.byte	0x30
 20425 1005 9F       		.byte	0x9f
 20426 1006 3E000000 		.4byte	.LVL148
 20427 100a 82000000 		.4byte	.LVL154
 20428 100e 0300     		.2byte	0x3
 20429 1010 91       		.byte	0x91
 20430 1011 907F     		.sleb128 -112
 20431 1013 82000000 		.4byte	.LVL154
 20432 1017 88000000 		.4byte	.LVL155
 20433 101b 0100     		.2byte	0x1
 20434 101d 53       		.byte	0x53
 20435 101e 88000000 		.4byte	.LVL155
 20436 1022 F6000000 		.4byte	.LVL163
 20437 1026 0300     		.2byte	0x3
 20438 1028 91       		.byte	0x91
 20439 1029 907F     		.sleb128 -112
 20440 102b FE020000 		.4byte	.LVL200
 20441 102f 04030000 		.4byte	.LVL201
 20442 1033 0100     		.2byte	0x1
 20443 1035 53       		.byte	0x53
 20444 1036 04030000 		.4byte	.LVL201
 20445 103a 5A030000 		.4byte	.LVL211
 20446 103e 0300     		.2byte	0x3
 20447 1040 91       		.byte	0x91
 20448 1041 907F     		.sleb128 -112
 20449 1043 60030000 		.4byte	.LVL212
 20450 1047 70030000 		.4byte	.LVL215
 20451 104b 0300     		.2byte	0x3
 20452 104d 91       		.byte	0x91
 20453 104e 907F     		.sleb128 -112
 20454 1050 46040000 		.4byte	.LVL234
 20455 1054 78040000 		.4byte	.LVL237
 20456 1058 0300     		.2byte	0x3
 20457 105a 91       		.byte	0x91
 20458 105b 907F     		.sleb128 -112
 20459 105d 80040000 		.4byte	.LVL239
 20460 1061 B2040000 		.4byte	.LVL243
 20461 1065 0300     		.2byte	0x3
 20462 1067 91       		.byte	0x91
 20463 1068 907F     		.sleb128 -112
 20464 106a 00000000 		.4byte	0
 20465 106e 00000000 		.4byte	0
 20466              	.LLST98:
 20467 1072 4E000000 		.4byte	.LVL149
 20468 1076 60000000 		.4byte	.LVL151
 20469 107a 0200     		.2byte	0x2
 20470 107c 30       		.byte	0x30
 20471 107d 9F       		.byte	0x9f
 20472 107e 60000000 		.4byte	.LVL151
 20473 1082 96000000 		.4byte	.LVL158
 20474 1086 0100     		.2byte	0x1
 20475 1088 52       		.byte	0x52
 20476 1089 98000000 		.4byte	.LVL159
 20477 108d F6000000 		.4byte	.LVL163
 20478 1091 0100     		.2byte	0x1
ARM GAS  /tmp/ccs3e2Sq.s 			page 361


 20479 1093 52       		.byte	0x52
 20480 1094 60030000 		.4byte	.LVL212
 20481 1098 62030000 		.4byte	.LVL213
 20482 109c 0100     		.2byte	0x1
 20483 109e 52       		.byte	0x52
 20484 109f 64030000 		.4byte	.LVL214
 20485 10a3 70030000 		.4byte	.LVL215
 20486 10a7 0100     		.2byte	0x1
 20487 10a9 52       		.byte	0x52
 20488 10aa 00000000 		.4byte	0
 20489 10ae 00000000 		.4byte	0
 20490              	.LLST99:
 20491 10b2 5C000000 		.4byte	.LVL150
 20492 10b6 D0020000 		.4byte	.LVL196
 20493 10ba 0100     		.2byte	0x1
 20494 10bc 56       		.byte	0x56
 20495 10bd E0020000 		.4byte	.LVL198
 20496 10c1 0C030000 		.4byte	.LVL202
 20497 10c5 0100     		.2byte	0x1
 20498 10c7 56       		.byte	0x56
 20499 10c8 38030000 		.4byte	.LVL207
 20500 10cc 5A030000 		.4byte	.LVL211
 20501 10d0 0100     		.2byte	0x1
 20502 10d2 56       		.byte	0x56
 20503 10d3 60030000 		.4byte	.LVL212
 20504 10d7 88030000 		.4byte	.LVL220
 20505 10db 0100     		.2byte	0x1
 20506 10dd 56       		.byte	0x56
 20507 10de 78040000 		.4byte	.LVL237
 20508 10e2 7E040000 		.4byte	.LVL238
 20509 10e6 0100     		.2byte	0x1
 20510 10e8 56       		.byte	0x56
 20511 10e9 B2040000 		.4byte	.LVL243
 20512 10ed B8050000 		.4byte	.LVL258
 20513 10f1 0100     		.2byte	0x1
 20514 10f3 56       		.byte	0x56
 20515 10f4 AC060000 		.4byte	.LVL273
 20516 10f8 BA070000 		.4byte	.LVL291
 20517 10fc 0100     		.2byte	0x1
 20518 10fe 56       		.byte	0x56
 20519 10ff BE070000 		.4byte	.LVL292
 20520 1103 CE070000 		.4byte	.LVL294
 20521 1107 0100     		.2byte	0x1
 20522 1109 56       		.byte	0x56
 20523 110a D4070000 		.4byte	.LVL295
 20524 110e EA070000 		.4byte	.LVL298
 20525 1112 0100     		.2byte	0x1
 20526 1114 56       		.byte	0x56
 20527 1115 00000000 		.4byte	0
 20528 1119 00000000 		.4byte	0
 20529              	.LLST100:
 20530 111d 60000000 		.4byte	.LVL151
 20531 1121 64000000 		.4byte	.LVL152
 20532 1125 0100     		.2byte	0x1
 20533 1127 53       		.byte	0x53
 20534 1128 00000000 		.4byte	0
 20535 112c 00000000 		.4byte	0
ARM GAS  /tmp/ccs3e2Sq.s 			page 362


 20536              	.LLST101:
 20537 1130 24010000 		.4byte	.LVL165
 20538 1134 D0020000 		.4byte	.LVL196
 20539 1138 0300     		.2byte	0x3
 20540 113a 91       		.byte	0x91
 20541 113b 947F     		.sleb128 -108
 20542 113d 70030000 		.4byte	.LVL215
 20543 1141 46040000 		.4byte	.LVL234
 20544 1145 0300     		.2byte	0x3
 20545 1147 91       		.byte	0x91
 20546 1148 947F     		.sleb128 -108
 20547 114a B2040000 		.4byte	.LVL243
 20548 114e F2070000 		.4byte	.LFE335
 20549 1152 0300     		.2byte	0x3
 20550 1154 91       		.byte	0x91
 20551 1155 947F     		.sleb128 -108
 20552 1157 00000000 		.4byte	0
 20553 115b 00000000 		.4byte	0
 20554              	.LLST102:
 20555 115f 24010000 		.4byte	.LVL165
 20556 1163 32010000 		.4byte	.LVL167
 20557 1167 0200     		.2byte	0x2
 20558 1169 78       		.byte	0x78
 20559 116a 00       		.sleb128 0
 20560 116b 32010000 		.4byte	.LVL167
 20561 116f 36010000 		.4byte	.LVL169
 20562 1173 0200     		.2byte	0x2
 20563 1175 79       		.byte	0x79
 20564 1176 7F       		.sleb128 -1
 20565 1177 70030000 		.4byte	.LVL215
 20566 117b 74030000 		.4byte	.LVL216
 20567 117f 0200     		.2byte	0x2
 20568 1181 78       		.byte	0x78
 20569 1182 00       		.sleb128 0
 20570 1183 00000000 		.4byte	0
 20571 1187 00000000 		.4byte	0
 20572              	.LLST103:
 20573 118b 24010000 		.4byte	.LVL165
 20574 118f D0020000 		.4byte	.LVL196
 20575 1193 0300     		.2byte	0x3
 20576 1195 91       		.byte	0x91
 20577 1196 A07F     		.sleb128 -96
 20578 1198 70030000 		.4byte	.LVL215
 20579 119c 46040000 		.4byte	.LVL234
 20580 11a0 0300     		.2byte	0x3
 20581 11a2 91       		.byte	0x91
 20582 11a3 A07F     		.sleb128 -96
 20583 11a5 B2040000 		.4byte	.LVL243
 20584 11a9 F2070000 		.4byte	.LFE335
 20585 11ad 0300     		.2byte	0x3
 20586 11af 91       		.byte	0x91
 20587 11b0 A07F     		.sleb128 -96
 20588 11b2 00000000 		.4byte	0
 20589 11b6 00000000 		.4byte	0
 20590              	.LLST104:
 20591 11ba 24010000 		.4byte	.LVL165
 20592 11be 44010000 		.4byte	.LVL170
ARM GAS  /tmp/ccs3e2Sq.s 			page 363


 20593 11c2 0100     		.2byte	0x1
 20594 11c4 53       		.byte	0x53
 20595 11c5 44010000 		.4byte	.LVL170
 20596 11c9 0C020000 		.4byte	.LVL184
 20597 11cd 0300     		.2byte	0x3
 20598 11cf 91       		.byte	0x91
 20599 11d0 AC7F     		.sleb128 -84
 20600 11d2 0C020000 		.4byte	.LVL184
 20601 11d6 D0020000 		.4byte	.LVL196
 20602 11da 0800     		.2byte	0x8
 20603 11dc 7B       		.byte	0x7b
 20604 11dd 00       		.sleb128 0
 20605 11de 91       		.byte	0x91
 20606 11df 987F     		.sleb128 -104
 20607 11e1 06       		.byte	0x6
 20608 11e2 22       		.byte	0x22
 20609 11e3 9F       		.byte	0x9f
 20610 11e4 70030000 		.4byte	.LVL215
 20611 11e8 88030000 		.4byte	.LVL220
 20612 11ec 0100     		.2byte	0x1
 20613 11ee 53       		.byte	0x53
 20614 11ef 88030000 		.4byte	.LVL220
 20615 11f3 46040000 		.4byte	.LVL234
 20616 11f7 0800     		.2byte	0x8
 20617 11f9 7B       		.byte	0x7b
 20618 11fa 00       		.sleb128 0
 20619 11fb 91       		.byte	0x91
 20620 11fc 987F     		.sleb128 -104
 20621 11fe 06       		.byte	0x6
 20622 11ff 22       		.byte	0x22
 20623 1200 9F       		.byte	0x9f
 20624 1201 B2040000 		.4byte	.LVL243
 20625 1205 B8050000 		.4byte	.LVL258
 20626 1209 0300     		.2byte	0x3
 20627 120b 91       		.byte	0x91
 20628 120c AC7F     		.sleb128 -84
 20629 120e B8050000 		.4byte	.LVL258
 20630 1212 AC060000 		.4byte	.LVL273
 20631 1216 0800     		.2byte	0x8
 20632 1218 7B       		.byte	0x7b
 20633 1219 00       		.sleb128 0
 20634 121a 91       		.byte	0x91
 20635 121b 987F     		.sleb128 -104
 20636 121d 06       		.byte	0x6
 20637 121e 22       		.byte	0x22
 20638 121f 9F       		.byte	0x9f
 20639 1220 AC060000 		.4byte	.LVL273
 20640 1224 CA060000 		.4byte	.LVL278
 20641 1228 0300     		.2byte	0x3
 20642 122a 91       		.byte	0x91
 20643 122b AC7F     		.sleb128 -84
 20644 122d CA060000 		.4byte	.LVL278
 20645 1231 C2070000 		.4byte	.LVL293
 20646 1235 0800     		.2byte	0x8
 20647 1237 7B       		.byte	0x7b
 20648 1238 00       		.sleb128 0
 20649 1239 91       		.byte	0x91
ARM GAS  /tmp/ccs3e2Sq.s 			page 364


 20650 123a 987F     		.sleb128 -104
 20651 123c 06       		.byte	0x6
 20652 123d 22       		.byte	0x22
 20653 123e 9F       		.byte	0x9f
 20654 123f C2070000 		.4byte	.LVL293
 20655 1243 CE070000 		.4byte	.LVL294
 20656 1247 0300     		.2byte	0x3
 20657 1249 91       		.byte	0x91
 20658 124a AC7F     		.sleb128 -84
 20659 124c CE070000 		.4byte	.LVL294
 20660 1250 DE070000 		.4byte	.LVL296
 20661 1254 0800     		.2byte	0x8
 20662 1256 7B       		.byte	0x7b
 20663 1257 00       		.sleb128 0
 20664 1258 91       		.byte	0x91
 20665 1259 987F     		.sleb128 -104
 20666 125b 06       		.byte	0x6
 20667 125c 22       		.byte	0x22
 20668 125d 9F       		.byte	0x9f
 20669 125e DE070000 		.4byte	.LVL296
 20670 1262 E4070000 		.4byte	.LVL297
 20671 1266 0300     		.2byte	0x3
 20672 1268 91       		.byte	0x91
 20673 1269 AC7F     		.sleb128 -84
 20674 126b E4070000 		.4byte	.LVL297
 20675 126f F2070000 		.4byte	.LFE335
 20676 1273 0800     		.2byte	0x8
 20677 1275 7B       		.byte	0x7b
 20678 1276 00       		.sleb128 0
 20679 1277 91       		.byte	0x91
 20680 1278 987F     		.sleb128 -104
 20681 127a 06       		.byte	0x6
 20682 127b 22       		.byte	0x22
 20683 127c 9F       		.byte	0x9f
 20684 127d 00000000 		.4byte	0
 20685 1281 00000000 		.4byte	0
 20686              	.LLST105:
 20687 1285 2E010000 		.4byte	.LVL166
 20688 1289 36010000 		.4byte	.LVL169
 20689 128d 0100     		.2byte	0x1
 20690 128f 53       		.byte	0x53
 20691 1290 00000000 		.4byte	0
 20692 1294 00000000 		.4byte	0
 20693              	.LLST106:
 20694 1298 2E010000 		.4byte	.LVL166
 20695 129c 36010000 		.4byte	.LVL169
 20696 12a0 0100     		.2byte	0x1
 20697 12a2 57       		.byte	0x57
 20698 12a3 00000000 		.4byte	0
 20699 12a7 00000000 		.4byte	0
 20700              	.LLST107:
 20701 12ab 44010000 		.4byte	.LVL170
 20702 12af F8010000 		.4byte	.LVL181
 20703 12b3 0100     		.2byte	0x1
 20704 12b5 57       		.byte	0x57
 20705 12b6 B2040000 		.4byte	.LVL243
 20706 12ba B8050000 		.4byte	.LVL258
ARM GAS  /tmp/ccs3e2Sq.s 			page 365


 20707 12be 0100     		.2byte	0x1
 20708 12c0 57       		.byte	0x57
 20709 12c1 AC060000 		.4byte	.LVL273
 20710 12c5 CA060000 		.4byte	.LVL278
 20711 12c9 0100     		.2byte	0x1
 20712 12cb 57       		.byte	0x57
 20713 12cc C2070000 		.4byte	.LVL293
 20714 12d0 CE070000 		.4byte	.LVL294
 20715 12d4 0100     		.2byte	0x1
 20716 12d6 57       		.byte	0x57
 20717 12d7 DE070000 		.4byte	.LVL296
 20718 12db E4070000 		.4byte	.LVL297
 20719 12df 0100     		.2byte	0x1
 20720 12e1 57       		.byte	0x57
 20721 12e2 00000000 		.4byte	0
 20722 12e6 00000000 		.4byte	0
 20723              	.LLST108:
 20724 12ea E4010000 		.4byte	.LVL177
 20725 12ee E8010000 		.4byte	.LVL178
 20726 12f2 0100     		.2byte	0x1
 20727 12f4 55       		.byte	0x55
 20728 12f5 B2040000 		.4byte	.LVL243
 20729 12f9 10050000 		.4byte	.LVL247
 20730 12fd 0100     		.2byte	0x1
 20731 12ff 55       		.byte	0x55
 20732 1300 C2070000 		.4byte	.LVL293
 20733 1304 CE070000 		.4byte	.LVL294
 20734 1308 0100     		.2byte	0x1
 20735 130a 55       		.byte	0x55
 20736 130b 00000000 		.4byte	0
 20737 130f 00000000 		.4byte	0
 20738              	.LLST109:
 20739 1313 E4010000 		.4byte	.LVL177
 20740 1317 E8010000 		.4byte	.LVL178
 20741 131b 0200     		.2byte	0x2
 20742 131d 77       		.byte	0x77
 20743 131e 14       		.sleb128 20
 20744 131f B2040000 		.4byte	.LVL243
 20745 1323 E2040000 		.4byte	.LVL246
 20746 1327 0200     		.2byte	0x2
 20747 1329 77       		.byte	0x77
 20748 132a 14       		.sleb128 20
 20749 132b C2070000 		.4byte	.LVL293
 20750 132f CE070000 		.4byte	.LVL294
 20751 1333 0200     		.2byte	0x2
 20752 1335 77       		.byte	0x77
 20753 1336 14       		.sleb128 20
 20754 1337 00000000 		.4byte	0
 20755 133b 00000000 		.4byte	0
 20756              	.LLST110:
 20757 133f B2040000 		.4byte	.LVL243
 20758 1343 3A050000 		.4byte	.LVL250
 20759 1347 0100     		.2byte	0x1
 20760 1349 55       		.byte	0x55
 20761 134a 3A050000 		.4byte	.LVL250
 20762 134e 50050000 		.4byte	.LVL252
 20763 1352 0200     		.2byte	0x2
ARM GAS  /tmp/ccs3e2Sq.s 			page 366


 20764 1354 91       		.byte	0x91
 20765 1355 50       		.sleb128 -48
 20766 1356 C2070000 		.4byte	.LVL293
 20767 135a CE070000 		.4byte	.LVL294
 20768 135e 0100     		.2byte	0x1
 20769 1360 55       		.byte	0x55
 20770 1361 00000000 		.4byte	0
 20771 1365 00000000 		.4byte	0
 20772              	.LLST111:
 20773 1369 B2040000 		.4byte	.LVL243
 20774 136d E2040000 		.4byte	.LVL246
 20775 1371 0200     		.2byte	0x2
 20776 1373 77       		.byte	0x77
 20777 1374 14       		.sleb128 20
 20778 1375 C2070000 		.4byte	.LVL293
 20779 1379 CE070000 		.4byte	.LVL294
 20780 137d 0200     		.2byte	0x2
 20781 137f 77       		.byte	0x77
 20782 1380 14       		.sleb128 20
 20783 1381 00000000 		.4byte	0
 20784 1385 00000000 		.4byte	0
 20785              	.LLST112:
 20786 1389 B2040000 		.4byte	.LVL243
 20787 138d 50050000 		.4byte	.LVL252
 20788 1391 0100     		.2byte	0x1
 20789 1393 57       		.byte	0x57
 20790 1394 C2070000 		.4byte	.LVL293
 20791 1398 CE070000 		.4byte	.LVL294
 20792 139c 0100     		.2byte	0x1
 20793 139e 57       		.byte	0x57
 20794 139f 00000000 		.4byte	0
 20795 13a3 00000000 		.4byte	0
 20796              	.LLST113:
 20797 13a7 BA040000 		.4byte	.LVL244
 20798 13ab CA040000 		.4byte	.LVL245
 20799 13af 0200     		.2byte	0x2
 20800 13b1 91       		.byte	0x91
 20801 13b2 48       		.sleb128 -56
 20802 13b3 00000000 		.4byte	0
 20803 13b7 00000000 		.4byte	0
 20804              	.LLST114:
 20805 13bb 20050000 		.4byte	.LVL248
 20806 13bf 28050000 		.4byte	.LVL249
 20807 13c3 1500     		.2byte	0x15
 20808 13c5 91       		.byte	0x91
 20809 13c6 4C       		.sleb128 -52
 20810 13c7 06       		.byte	0x6
 20811 13c8 38       		.byte	0x38
 20812 13c9 70       		.byte	0x70
 20813 13ca 00       		.sleb128 0
 20814 13cb 38       		.byte	0x38
 20815 13cc 14       		.byte	0x14
 20816 13cd 14       		.byte	0x14
 20817 13ce 1B       		.byte	0x1b
 20818 13cf 1E       		.byte	0x1e
 20819 13d0 1C       		.byte	0x1c
 20820 13d1 37       		.byte	0x37
ARM GAS  /tmp/ccs3e2Sq.s 			page 367


 20821 13d2 1A       		.byte	0x1a
 20822 13d3 0A       		.byte	0xa
 20823 13d4 FFFF     		.2byte	0xffff
 20824 13d6 1A       		.byte	0x1a
 20825 13d7 1C       		.byte	0x1c
 20826 13d8 26       		.byte	0x26
 20827 13d9 9F       		.byte	0x9f
 20828 13da 28050000 		.4byte	.LVL249
 20829 13de 4C050000 		.4byte	.LVL251
 20830 13e2 1700     		.2byte	0x17
 20831 13e4 91       		.byte	0x91
 20832 13e5 4C       		.sleb128 -52
 20833 13e6 06       		.byte	0x6
 20834 13e7 38       		.byte	0x38
 20835 13e8 77       		.byte	0x77
 20836 13e9 16       		.sleb128 22
 20837 13ea 94       		.byte	0x94
 20838 13eb 02       		.byte	0x2
 20839 13ec 38       		.byte	0x38
 20840 13ed 14       		.byte	0x14
 20841 13ee 14       		.byte	0x14
 20842 13ef 1B       		.byte	0x1b
 20843 13f0 1E       		.byte	0x1e
 20844 13f1 1C       		.byte	0x1c
 20845 13f2 37       		.byte	0x37
 20846 13f3 1A       		.byte	0x1a
 20847 13f4 0A       		.byte	0xa
 20848 13f5 FFFF     		.2byte	0xffff
 20849 13f7 1A       		.byte	0x1a
 20850 13f8 1C       		.byte	0x1c
 20851 13f9 26       		.byte	0x26
 20852 13fa 9F       		.byte	0x9f
 20853 13fb 4C050000 		.4byte	.LVL251
 20854 13ff 7C050000 		.4byte	.LVL255
 20855 1403 0100     		.2byte	0x1
 20856 1405 50       		.byte	0x50
 20857 1406 C2060000 		.4byte	.LVL276
 20858 140a CA060000 		.4byte	.LVL278
 20859 140e 0100     		.2byte	0x1
 20860 1410 50       		.byte	0x50
 20861 1411 DE070000 		.4byte	.LVL296
 20862 1415 E4070000 		.4byte	.LVL297
 20863 1419 0100     		.2byte	0x1
 20864 141b 50       		.byte	0x50
 20865 141c 00000000 		.4byte	0
 20866 1420 00000000 		.4byte	0
 20867              	.LLST115:
 20868 1424 20050000 		.4byte	.LVL248
 20869 1428 4C050000 		.4byte	.LVL251
 20870 142c 0700     		.2byte	0x7
 20871 142e 91       		.byte	0x91
 20872 142f 50       		.sleb128 -48
 20873 1430 94       		.byte	0x94
 20874 1431 02       		.byte	0x2
 20875 1432 23       		.byte	0x23
 20876 1433 01       		.uleb128 0x1
 20877 1434 9F       		.byte	0x9f
ARM GAS  /tmp/ccs3e2Sq.s 			page 368


 20878 1435 4C050000 		.4byte	.LVL251
 20879 1439 9C050000 		.4byte	.LVL256
 20880 143d 0100     		.2byte	0x1
 20881 143f 55       		.byte	0x55
 20882 1440 C2060000 		.4byte	.LVL276
 20883 1444 CA060000 		.4byte	.LVL278
 20884 1448 0100     		.2byte	0x1
 20885 144a 55       		.byte	0x55
 20886 144b DE070000 		.4byte	.LVL296
 20887 144f E4070000 		.4byte	.LVL297
 20888 1453 0100     		.2byte	0x1
 20889 1455 55       		.byte	0x55
 20890 1456 00000000 		.4byte	0
 20891 145a 00000000 		.4byte	0
 20892              	.LLST116:
 20893 145e 4C050000 		.4byte	.LVL251
 20894 1462 A0050000 		.4byte	.LVL257
 20895 1466 0100     		.2byte	0x1
 20896 1468 52       		.byte	0x52
 20897 1469 C2060000 		.4byte	.LVL276
 20898 146d CA060000 		.4byte	.LVL278
 20899 1471 0100     		.2byte	0x1
 20900 1473 52       		.byte	0x52
 20901 1474 DE070000 		.4byte	.LVL296
 20902 1478 E4070000 		.4byte	.LVL297
 20903 147c 0100     		.2byte	0x1
 20904 147e 52       		.byte	0x52
 20905 147f 00000000 		.4byte	0
 20906 1483 00000000 		.4byte	0
 20907              	.LLST117:
 20908 1487 4C050000 		.4byte	.LVL251
 20909 148b 50050000 		.4byte	.LVL252
 20910 148f 0100     		.2byte	0x1
 20911 1491 57       		.byte	0x57
 20912 1492 00000000 		.4byte	0
 20913 1496 00000000 		.4byte	0
 20914              	.LLST118:
 20915 149a 4C050000 		.4byte	.LVL251
 20916 149e 7C050000 		.4byte	.LVL255
 20917 14a2 0100     		.2byte	0x1
 20918 14a4 50       		.byte	0x50
 20919 14a5 C6060000 		.4byte	.LVL277
 20920 14a9 CA060000 		.4byte	.LVL278
 20921 14ad 0100     		.2byte	0x1
 20922 14af 50       		.byte	0x50
 20923 14b0 DE070000 		.4byte	.LVL296
 20924 14b4 E4070000 		.4byte	.LVL297
 20925 14b8 0100     		.2byte	0x1
 20926 14ba 50       		.byte	0x50
 20927 14bb 00000000 		.4byte	0
 20928 14bf 00000000 		.4byte	0
 20929              	.LLST119:
 20930 14c3 4C050000 		.4byte	.LVL251
 20931 14c7 9C050000 		.4byte	.LVL256
 20932 14cb 0100     		.2byte	0x1
 20933 14cd 55       		.byte	0x55
 20934 14ce C6060000 		.4byte	.LVL277
ARM GAS  /tmp/ccs3e2Sq.s 			page 369


 20935 14d2 CA060000 		.4byte	.LVL278
 20936 14d6 0100     		.2byte	0x1
 20937 14d8 55       		.byte	0x55
 20938 14d9 DE070000 		.4byte	.LVL296
 20939 14dd E4070000 		.4byte	.LVL297
 20940 14e1 0100     		.2byte	0x1
 20941 14e3 55       		.byte	0x55
 20942 14e4 00000000 		.4byte	0
 20943 14e8 00000000 		.4byte	0
 20944              	.LLST120:
 20945 14ec 4C050000 		.4byte	.LVL251
 20946 14f0 A0050000 		.4byte	.LVL257
 20947 14f4 0100     		.2byte	0x1
 20948 14f6 52       		.byte	0x52
 20949 14f7 C6060000 		.4byte	.LVL277
 20950 14fb CA060000 		.4byte	.LVL278
 20951 14ff 0100     		.2byte	0x1
 20952 1501 52       		.byte	0x52
 20953 1502 DE070000 		.4byte	.LVL296
 20954 1506 E4070000 		.4byte	.LVL297
 20955 150a 0100     		.2byte	0x1
 20956 150c 52       		.byte	0x52
 20957 150d 00000000 		.4byte	0
 20958 1511 00000000 		.4byte	0
 20959              	.LLST121:
 20960 1515 4C050000 		.4byte	.LVL251
 20961 1519 B8050000 		.4byte	.LVL258
 20962 151d 0100     		.2byte	0x1
 20963 151f 57       		.byte	0x57
 20964 1520 DE070000 		.4byte	.LVL296
 20965 1524 E4070000 		.4byte	.LVL297
 20966 1528 0100     		.2byte	0x1
 20967 152a 57       		.byte	0x57
 20968 152b 00000000 		.4byte	0
 20969 152f 00000000 		.4byte	0
 20970              	.LLST122:
 20971 1533 6E050000 		.4byte	.LVL254
 20972 1537 7C050000 		.4byte	.LVL255
 20973 153b 0100     		.2byte	0x1
 20974 153d 53       		.byte	0x53
 20975 153e 7C050000 		.4byte	.LVL255
 20976 1542 B8050000 		.4byte	.LVL258
 20977 1546 0200     		.2byte	0x2
 20978 1548 91       		.byte	0x91
 20979 1549 48       		.sleb128 -56
 20980 154a DE070000 		.4byte	.LVL296
 20981 154e E4070000 		.4byte	.LVL297
 20982 1552 0100     		.2byte	0x1
 20983 1554 53       		.byte	0x53
 20984 1555 00000000 		.4byte	0
 20985 1559 00000000 		.4byte	0
 20986              	.LLST123:
 20987 155d 02020000 		.4byte	.LVL182
 20988 1561 0A020000 		.4byte	.LVL183
 20989 1565 0100     		.2byte	0x1
 20990 1567 53       		.byte	0x53
 20991 1568 00000000 		.4byte	0
ARM GAS  /tmp/ccs3e2Sq.s 			page 370


 20992 156c 00000000 		.4byte	0
 20993              	.LLST124:
 20994 1570 02020000 		.4byte	.LVL182
 20995 1574 0A020000 		.4byte	.LVL183
 20996 1578 0100     		.2byte	0x1
 20997 157a 57       		.byte	0x57
 20998 157b 00000000 		.4byte	0
 20999 157f 00000000 		.4byte	0
 21000              	.LLST125:
 21001 1583 0C020000 		.4byte	.LVL184
 21002 1587 CE020000 		.4byte	.LVL195
 21003 158b 0100     		.2byte	0x1
 21004 158d 57       		.byte	0x57
 21005 158e CA060000 		.4byte	.LVL278
 21006 1592 BA070000 		.4byte	.LVL291
 21007 1596 0100     		.2byte	0x1
 21008 1598 57       		.byte	0x57
 21009 1599 BE070000 		.4byte	.LVL292
 21010 159d C2070000 		.4byte	.LVL293
 21011 15a1 0100     		.2byte	0x1
 21012 15a3 57       		.byte	0x57
 21013 15a4 D4070000 		.4byte	.LVL295
 21014 15a8 DE070000 		.4byte	.LVL296
 21015 15ac 0100     		.2byte	0x1
 21016 15ae 57       		.byte	0x57
 21017 15af E4070000 		.4byte	.LVL297
 21018 15b3 EA070000 		.4byte	.LVL298
 21019 15b7 0100     		.2byte	0x1
 21020 15b9 57       		.byte	0x57
 21021 15ba 00000000 		.4byte	0
 21022 15be 00000000 		.4byte	0
 21023              	.LLST126:
 21024 15c2 A6020000 		.4byte	.LVL190
 21025 15c6 AA020000 		.4byte	.LVL191
 21026 15ca 0100     		.2byte	0x1
 21027 15cc 55       		.byte	0x55
 21028 15cd CA060000 		.4byte	.LVL278
 21029 15d1 22070000 		.4byte	.LVL281
 21030 15d5 0100     		.2byte	0x1
 21031 15d7 55       		.byte	0x55
 21032 15d8 22070000 		.4byte	.LVL281
 21033 15dc 2A070000 		.4byte	.LVL282
 21034 15e0 0200     		.2byte	0x2
 21035 15e2 91       		.byte	0x91
 21036 15e3 44       		.sleb128 -60
 21037 15e4 D4070000 		.4byte	.LVL295
 21038 15e8 DE070000 		.4byte	.LVL296
 21039 15ec 0100     		.2byte	0x1
 21040 15ee 55       		.byte	0x55
 21041 15ef 00000000 		.4byte	0
 21042 15f3 00000000 		.4byte	0
 21043              	.LLST127:
 21044 15f7 A6020000 		.4byte	.LVL190
 21045 15fb AA020000 		.4byte	.LVL191
 21046 15ff 0200     		.2byte	0x2
 21047 1601 77       		.byte	0x77
 21048 1602 14       		.sleb128 20
ARM GAS  /tmp/ccs3e2Sq.s 			page 371


 21049 1603 CA060000 		.4byte	.LVL278
 21050 1607 00070000 		.4byte	.LVL280
 21051 160b 0200     		.2byte	0x2
 21052 160d 77       		.byte	0x77
 21053 160e 14       		.sleb128 20
 21054 160f D4070000 		.4byte	.LVL295
 21055 1613 DE070000 		.4byte	.LVL296
 21056 1617 0200     		.2byte	0x2
 21057 1619 77       		.byte	0x77
 21058 161a 14       		.sleb128 20
 21059 161b 00000000 		.4byte	0
 21060 161f 00000000 		.4byte	0
 21061              	.LLST128:
 21062 1623 CA060000 		.4byte	.LVL278
 21063 1627 22070000 		.4byte	.LVL281
 21064 162b 0100     		.2byte	0x1
 21065 162d 55       		.byte	0x55
 21066 162e 22070000 		.4byte	.LVL281
 21067 1632 64070000 		.4byte	.LVL285
 21068 1636 0200     		.2byte	0x2
 21069 1638 91       		.byte	0x91
 21070 1639 44       		.sleb128 -60
 21071 163a D4070000 		.4byte	.LVL295
 21072 163e DE070000 		.4byte	.LVL296
 21073 1642 0100     		.2byte	0x1
 21074 1644 55       		.byte	0x55
 21075 1645 00000000 		.4byte	0
 21076 1649 00000000 		.4byte	0
 21077              	.LLST129:
 21078 164d CA060000 		.4byte	.LVL278
 21079 1651 00070000 		.4byte	.LVL280
 21080 1655 0200     		.2byte	0x2
 21081 1657 77       		.byte	0x77
 21082 1658 14       		.sleb128 20
 21083 1659 D4070000 		.4byte	.LVL295
 21084 165d DE070000 		.4byte	.LVL296
 21085 1661 0200     		.2byte	0x2
 21086 1663 77       		.byte	0x77
 21087 1664 14       		.sleb128 20
 21088 1665 00000000 		.4byte	0
 21089 1669 00000000 		.4byte	0
 21090              	.LLST130:
 21091 166d CA060000 		.4byte	.LVL278
 21092 1671 68070000 		.4byte	.LVL286
 21093 1675 0100     		.2byte	0x1
 21094 1677 57       		.byte	0x57
 21095 1678 D4070000 		.4byte	.LVL295
 21096 167c DE070000 		.4byte	.LVL296
 21097 1680 0100     		.2byte	0x1
 21098 1682 57       		.byte	0x57
 21099 1683 00000000 		.4byte	0
 21100 1687 00000000 		.4byte	0
 21101              	.LLST131:
 21102 168b E8060000 		.4byte	.LVL279
 21103 168f 68070000 		.4byte	.LVL286
 21104 1693 0300     		.2byte	0x3
 21105 1695 91       		.byte	0x91
ARM GAS  /tmp/ccs3e2Sq.s 			page 372


 21106 1696 AC7F     		.sleb128 -84
 21107 1698 D4070000 		.4byte	.LVL295
 21108 169c DE070000 		.4byte	.LVL296
 21109 16a0 0300     		.2byte	0x3
 21110 16a2 91       		.byte	0x91
 21111 16a3 AC7F     		.sleb128 -84
 21112 16a5 00000000 		.4byte	0
 21113 16a9 00000000 		.4byte	0
 21114              	.LLST132:
 21115 16ad C0020000 		.4byte	.LVL192
 21116 16b1 C4020000 		.4byte	.LVL193
 21117 16b5 0200     		.2byte	0x2
 21118 16b7 91       		.byte	0x91
 21119 16b8 44       		.sleb128 -60
 21120 16b9 3A070000 		.4byte	.LVL283
 21121 16bd 42070000 		.4byte	.LVL284
 21122 16c1 1400     		.2byte	0x14
 21123 16c3 7C       		.byte	0x7c
 21124 16c4 00       		.sleb128 0
 21125 16c5 38       		.byte	0x38
 21126 16c6 71       		.byte	0x71
 21127 16c7 00       		.sleb128 0
 21128 16c8 38       		.byte	0x38
 21129 16c9 14       		.byte	0x14
 21130 16ca 14       		.byte	0x14
 21131 16cb 1B       		.byte	0x1b
 21132 16cc 1E       		.byte	0x1e
 21133 16cd 1C       		.byte	0x1c
 21134 16ce 37       		.byte	0x37
 21135 16cf 1A       		.byte	0x1a
 21136 16d0 0A       		.byte	0xa
 21137 16d1 FFFF     		.2byte	0xffff
 21138 16d3 1A       		.byte	0x1a
 21139 16d4 1C       		.byte	0x1c
 21140 16d5 26       		.byte	0x26
 21141 16d6 9F       		.byte	0x9f
 21142 16d7 42070000 		.4byte	.LVL284
 21143 16db 64070000 		.4byte	.LVL285
 21144 16df 1600     		.2byte	0x16
 21145 16e1 7C       		.byte	0x7c
 21146 16e2 00       		.sleb128 0
 21147 16e3 38       		.byte	0x38
 21148 16e4 77       		.byte	0x77
 21149 16e5 16       		.sleb128 22
 21150 16e6 94       		.byte	0x94
 21151 16e7 02       		.byte	0x2
 21152 16e8 38       		.byte	0x38
 21153 16e9 14       		.byte	0x14
 21154 16ea 14       		.byte	0x14
 21155 16eb 1B       		.byte	0x1b
 21156 16ec 1E       		.byte	0x1e
 21157 16ed 1C       		.byte	0x1c
 21158 16ee 37       		.byte	0x37
 21159 16ef 1A       		.byte	0x1a
 21160 16f0 0A       		.byte	0xa
 21161 16f1 FFFF     		.2byte	0xffff
 21162 16f3 1A       		.byte	0x1a
ARM GAS  /tmp/ccs3e2Sq.s 			page 373


 21163 16f4 1C       		.byte	0x1c
 21164 16f5 26       		.byte	0x26
 21165 16f6 9F       		.byte	0x9f
 21166 16f7 64070000 		.4byte	.LVL285
 21167 16fb BA070000 		.4byte	.LVL291
 21168 16ff 0200     		.2byte	0x2
 21169 1701 91       		.byte	0x91
 21170 1702 44       		.sleb128 -60
 21171 1703 BE070000 		.4byte	.LVL292
 21172 1707 C2070000 		.4byte	.LVL293
 21173 170b 0200     		.2byte	0x2
 21174 170d 91       		.byte	0x91
 21175 170e 44       		.sleb128 -60
 21176 170f E4070000 		.4byte	.LVL297
 21177 1713 EA070000 		.4byte	.LVL298
 21178 1717 0200     		.2byte	0x2
 21179 1719 91       		.byte	0x91
 21180 171a 44       		.sleb128 -60
 21181 171b 00000000 		.4byte	0
 21182 171f 00000000 		.4byte	0
 21183              	.LLST133:
 21184 1723 C0020000 		.4byte	.LVL192
 21185 1727 C4020000 		.4byte	.LVL193
 21186 172b 0100     		.2byte	0x1
 21187 172d 50       		.byte	0x50
 21188 172e 3A070000 		.4byte	.LVL283
 21189 1732 64070000 		.4byte	.LVL285
 21190 1736 0700     		.2byte	0x7
 21191 1738 91       		.byte	0x91
 21192 1739 44       		.sleb128 -60
 21193 173a 94       		.byte	0x94
 21194 173b 02       		.byte	0x2
 21195 173c 23       		.byte	0x23
 21196 173d 01       		.uleb128 0x1
 21197 173e 9F       		.byte	0x9f
 21198 173f 64070000 		.4byte	.LVL285
 21199 1743 A4070000 		.4byte	.LVL289
 21200 1747 0100     		.2byte	0x1
 21201 1749 50       		.byte	0x50
 21202 174a BE070000 		.4byte	.LVL292
 21203 174e C2070000 		.4byte	.LVL293
 21204 1752 0100     		.2byte	0x1
 21205 1754 50       		.byte	0x50
 21206 1755 E4070000 		.4byte	.LVL297
 21207 1759 EA070000 		.4byte	.LVL298
 21208 175d 0100     		.2byte	0x1
 21209 175f 50       		.byte	0x50
 21210 1760 00000000 		.4byte	0
 21211 1764 00000000 		.4byte	0
 21212              	.LLST134:
 21213 1768 C0020000 		.4byte	.LVL192
 21214 176c C4020000 		.4byte	.LVL193
 21215 1770 0100     		.2byte	0x1
 21216 1772 53       		.byte	0x53
 21217 1773 64070000 		.4byte	.LVL285
 21218 1777 A8070000 		.4byte	.LVL290
 21219 177b 0100     		.2byte	0x1
ARM GAS  /tmp/ccs3e2Sq.s 			page 374


 21220 177d 53       		.byte	0x53
 21221 177e BE070000 		.4byte	.LVL292
 21222 1782 C2070000 		.4byte	.LVL293
 21223 1786 0100     		.2byte	0x1
 21224 1788 53       		.byte	0x53
 21225 1789 E4070000 		.4byte	.LVL297
 21226 178d EA070000 		.4byte	.LVL298
 21227 1791 0100     		.2byte	0x1
 21228 1793 53       		.byte	0x53
 21229 1794 00000000 		.4byte	0
 21230 1798 00000000 		.4byte	0
 21231              	.LLST135:
 21232 179c 64070000 		.4byte	.LVL285
 21233 17a0 68070000 		.4byte	.LVL286
 21234 17a4 0100     		.2byte	0x1
 21235 17a6 57       		.byte	0x57
 21236 17a7 00000000 		.4byte	0
 21237 17ab 00000000 		.4byte	0
 21238              	.LLST136:
 21239 17af 64070000 		.4byte	.LVL285
 21240 17b3 BA070000 		.4byte	.LVL291
 21241 17b7 0200     		.2byte	0x2
 21242 17b9 91       		.byte	0x91
 21243 17ba 44       		.sleb128 -60
 21244 17bb BE070000 		.4byte	.LVL292
 21245 17bf C2070000 		.4byte	.LVL293
 21246 17c3 0200     		.2byte	0x2
 21247 17c5 91       		.byte	0x91
 21248 17c6 44       		.sleb128 -60
 21249 17c7 E4070000 		.4byte	.LVL297
 21250 17cb EA070000 		.4byte	.LVL298
 21251 17cf 0200     		.2byte	0x2
 21252 17d1 91       		.byte	0x91
 21253 17d2 44       		.sleb128 -60
 21254 17d3 00000000 		.4byte	0
 21255 17d7 00000000 		.4byte	0
 21256              	.LLST137:
 21257 17db 64070000 		.4byte	.LVL285
 21258 17df A4070000 		.4byte	.LVL289
 21259 17e3 0100     		.2byte	0x1
 21260 17e5 50       		.byte	0x50
 21261 17e6 BE070000 		.4byte	.LVL292
 21262 17ea C2070000 		.4byte	.LVL293
 21263 17ee 0100     		.2byte	0x1
 21264 17f0 50       		.byte	0x50
 21265 17f1 E4070000 		.4byte	.LVL297
 21266 17f5 EA070000 		.4byte	.LVL298
 21267 17f9 0100     		.2byte	0x1
 21268 17fb 50       		.byte	0x50
 21269 17fc 00000000 		.4byte	0
 21270 1800 00000000 		.4byte	0
 21271              	.LLST138:
 21272 1804 64070000 		.4byte	.LVL285
 21273 1808 A8070000 		.4byte	.LVL290
 21274 180c 0100     		.2byte	0x1
 21275 180e 53       		.byte	0x53
 21276 180f BE070000 		.4byte	.LVL292
ARM GAS  /tmp/ccs3e2Sq.s 			page 375


 21277 1813 C2070000 		.4byte	.LVL293
 21278 1817 0100     		.2byte	0x1
 21279 1819 53       		.byte	0x53
 21280 181a E4070000 		.4byte	.LVL297
 21281 181e EA070000 		.4byte	.LVL298
 21282 1822 0100     		.2byte	0x1
 21283 1824 53       		.byte	0x53
 21284 1825 00000000 		.4byte	0
 21285 1829 00000000 		.4byte	0
 21286              	.LLST139:
 21287 182d 64070000 		.4byte	.LVL285
 21288 1831 BA070000 		.4byte	.LVL291
 21289 1835 0100     		.2byte	0x1
 21290 1837 57       		.byte	0x57
 21291 1838 E4070000 		.4byte	.LVL297
 21292 183c EA070000 		.4byte	.LVL298
 21293 1840 0100     		.2byte	0x1
 21294 1842 57       		.byte	0x57
 21295 1843 00000000 		.4byte	0
 21296 1847 00000000 		.4byte	0
 21297              	.LLST140:
 21298 184b 80070000 		.4byte	.LVL287
 21299 184f A0070000 		.4byte	.LVL288
 21300 1853 0100     		.2byte	0x1
 21301 1855 54       		.byte	0x54
 21302 1856 E4070000 		.4byte	.LVL297
 21303 185a EA070000 		.4byte	.LVL298
 21304 185e 0100     		.2byte	0x1
 21305 1860 54       		.byte	0x54
 21306 1861 00000000 		.4byte	0
 21307 1865 00000000 		.4byte	0
 21308              	.LLST141:
 21309 1869 70030000 		.4byte	.LVL215
 21310 186d 80030000 		.4byte	.LVL218
 21311 1871 0100     		.2byte	0x1
 21312 1873 53       		.byte	0x53
 21313 1874 00000000 		.4byte	0
 21314 1878 00000000 		.4byte	0
 21315              	.LLST142:
 21316 187c 70030000 		.4byte	.LVL215
 21317 1880 80030000 		.4byte	.LVL218
 21318 1884 0100     		.2byte	0x1
 21319 1886 57       		.byte	0x57
 21320 1887 00000000 		.4byte	0
 21321 188b 00000000 		.4byte	0
 21322              	.LLST143:
 21323 188f 88030000 		.4byte	.LVL220
 21324 1893 40040000 		.4byte	.LVL233
 21325 1897 0100     		.2byte	0x1
 21326 1899 57       		.byte	0x57
 21327 189a B8050000 		.4byte	.LVL258
 21328 189e AC060000 		.4byte	.LVL273
 21329 18a2 0100     		.2byte	0x1
 21330 18a4 57       		.byte	0x57
 21331 18a5 BA070000 		.4byte	.LVL291
 21332 18a9 BE070000 		.4byte	.LVL292
 21333 18ad 0100     		.2byte	0x1
ARM GAS  /tmp/ccs3e2Sq.s 			page 376


 21334 18af 57       		.byte	0x57
 21335 18b0 CE070000 		.4byte	.LVL294
 21336 18b4 D4070000 		.4byte	.LVL295
 21337 18b8 0100     		.2byte	0x1
 21338 18ba 57       		.byte	0x57
 21339 18bb EA070000 		.4byte	.LVL298
 21340 18bf F2070000 		.4byte	.LFE335
 21341 18c3 0100     		.2byte	0x1
 21342 18c5 57       		.byte	0x57
 21343 18c6 00000000 		.4byte	0
 21344 18ca 00000000 		.4byte	0
 21345              	.LLST144:
 21346 18ce 18040000 		.4byte	.LVL227
 21347 18d2 1C040000 		.4byte	.LVL228
 21348 18d6 0100     		.2byte	0x1
 21349 18d8 55       		.byte	0x55
 21350 18d9 B8050000 		.4byte	.LVL258
 21351 18dd 16060000 		.4byte	.LVL262
 21352 18e1 0100     		.2byte	0x1
 21353 18e3 55       		.byte	0x55
 21354 18e4 CE070000 		.4byte	.LVL294
 21355 18e8 D4070000 		.4byte	.LVL295
 21356 18ec 0100     		.2byte	0x1
 21357 18ee 55       		.byte	0x55
 21358 18ef 00000000 		.4byte	0
 21359 18f3 00000000 		.4byte	0
 21360              	.LLST145:
 21361 18f7 18040000 		.4byte	.LVL227
 21362 18fb 1C040000 		.4byte	.LVL228
 21363 18ff 0200     		.2byte	0x2
 21364 1901 77       		.byte	0x77
 21365 1902 14       		.sleb128 20
 21366 1903 B8050000 		.4byte	.LVL258
 21367 1907 EC050000 		.4byte	.LVL261
 21368 190b 0200     		.2byte	0x2
 21369 190d 77       		.byte	0x77
 21370 190e 14       		.sleb128 20
 21371 190f CE070000 		.4byte	.LVL294
 21372 1913 D4070000 		.4byte	.LVL295
 21373 1917 0200     		.2byte	0x2
 21374 1919 77       		.byte	0x77
 21375 191a 14       		.sleb128 20
 21376 191b 00000000 		.4byte	0
 21377 191f 00000000 		.4byte	0
 21378              	.LLST146:
 21379 1923 B8050000 		.4byte	.LVL258
 21380 1927 38060000 		.4byte	.LVL265
 21381 192b 0100     		.2byte	0x1
 21382 192d 55       		.byte	0x55
 21383 192e 38060000 		.4byte	.LVL265
 21384 1932 54060000 		.4byte	.LVL267
 21385 1936 0200     		.2byte	0x2
 21386 1938 91       		.byte	0x91
 21387 1939 4C       		.sleb128 -52
 21388 193a CE070000 		.4byte	.LVL294
 21389 193e D4070000 		.4byte	.LVL295
 21390 1942 0100     		.2byte	0x1
ARM GAS  /tmp/ccs3e2Sq.s 			page 377


 21391 1944 55       		.byte	0x55
 21392 1945 00000000 		.4byte	0
 21393 1949 00000000 		.4byte	0
 21394              	.LLST147:
 21395 194d B8050000 		.4byte	.LVL258
 21396 1951 EC050000 		.4byte	.LVL261
 21397 1955 0200     		.2byte	0x2
 21398 1957 77       		.byte	0x77
 21399 1958 14       		.sleb128 20
 21400 1959 CE070000 		.4byte	.LVL294
 21401 195d D4070000 		.4byte	.LVL295
 21402 1961 0200     		.2byte	0x2
 21403 1963 77       		.byte	0x77
 21404 1964 14       		.sleb128 20
 21405 1965 00000000 		.4byte	0
 21406 1969 00000000 		.4byte	0
 21407              	.LLST148:
 21408 196d B8050000 		.4byte	.LVL258
 21409 1971 54060000 		.4byte	.LVL267
 21410 1975 0100     		.2byte	0x1
 21411 1977 57       		.byte	0x57
 21412 1978 CE070000 		.4byte	.LVL294
 21413 197c D4070000 		.4byte	.LVL295
 21414 1980 0100     		.2byte	0x1
 21415 1982 57       		.byte	0x57
 21416 1983 00000000 		.4byte	0
 21417 1987 00000000 		.4byte	0
 21418              	.LLST149:
 21419 198b DC050000 		.4byte	.LVL259
 21420 198f EA050000 		.4byte	.LVL260
 21421 1993 0100     		.2byte	0x1
 21422 1995 54       		.byte	0x54
 21423 1996 EA050000 		.4byte	.LVL260
 21424 199a 54060000 		.4byte	.LVL267
 21425 199e 0100     		.2byte	0x1
 21426 19a0 56       		.byte	0x56
 21427 19a1 CE070000 		.4byte	.LVL294
 21428 19a5 D4070000 		.4byte	.LVL295
 21429 19a9 0100     		.2byte	0x1
 21430 19ab 54       		.byte	0x54
 21431 19ac 00000000 		.4byte	0
 21432 19b0 00000000 		.4byte	0
 21433              	.LLST150:
 21434 19b4 32040000 		.4byte	.LVL230
 21435 19b8 36040000 		.4byte	.LVL231
 21436 19bc 0200     		.2byte	0x2
 21437 19be 91       		.byte	0x91
 21438 19bf 48       		.sleb128 -56
 21439 19c0 26060000 		.4byte	.LVL263
 21440 19c4 2E060000 		.4byte	.LVL264
 21441 19c8 1500     		.2byte	0x15
 21442 19ca 91       		.byte	0x91
 21443 19cb 48       		.sleb128 -56
 21444 19cc 06       		.byte	0x6
 21445 19cd 38       		.byte	0x38
 21446 19ce 71       		.byte	0x71
 21447 19cf 00       		.sleb128 0
ARM GAS  /tmp/ccs3e2Sq.s 			page 378


 21448 19d0 38       		.byte	0x38
 21449 19d1 14       		.byte	0x14
 21450 19d2 14       		.byte	0x14
 21451 19d3 1B       		.byte	0x1b
 21452 19d4 1E       		.byte	0x1e
 21453 19d5 1C       		.byte	0x1c
 21454 19d6 37       		.byte	0x37
 21455 19d7 1A       		.byte	0x1a
 21456 19d8 0A       		.byte	0xa
 21457 19d9 FFFF     		.2byte	0xffff
 21458 19db 1A       		.byte	0x1a
 21459 19dc 1C       		.byte	0x1c
 21460 19dd 26       		.byte	0x26
 21461 19de 9F       		.byte	0x9f
 21462 19df 2E060000 		.4byte	.LVL264
 21463 19e3 50060000 		.4byte	.LVL266
 21464 19e7 1700     		.2byte	0x17
 21465 19e9 91       		.byte	0x91
 21466 19ea 48       		.sleb128 -56
 21467 19eb 06       		.byte	0x6
 21468 19ec 38       		.byte	0x38
 21469 19ed 77       		.byte	0x77
 21470 19ee 16       		.sleb128 22
 21471 19ef 94       		.byte	0x94
 21472 19f0 02       		.byte	0x2
 21473 19f1 38       		.byte	0x38
 21474 19f2 14       		.byte	0x14
 21475 19f3 14       		.byte	0x14
 21476 19f4 1B       		.byte	0x1b
 21477 19f5 1E       		.byte	0x1e
 21478 19f6 1C       		.byte	0x1c
 21479 19f7 37       		.byte	0x37
 21480 19f8 1A       		.byte	0x1a
 21481 19f9 0A       		.byte	0xa
 21482 19fa FFFF     		.2byte	0xffff
 21483 19fc 1A       		.byte	0x1a
 21484 19fd 1C       		.byte	0x1c
 21485 19fe 26       		.byte	0x26
 21486 19ff 9F       		.byte	0x9f
 21487 1a00 50060000 		.4byte	.LVL266
 21488 1a04 AC060000 		.4byte	.LVL273
 21489 1a08 0200     		.2byte	0x2
 21490 1a0a 91       		.byte	0x91
 21491 1a0b 48       		.sleb128 -56
 21492 1a0c BA070000 		.4byte	.LVL291
 21493 1a10 BE070000 		.4byte	.LVL292
 21494 1a14 0200     		.2byte	0x2
 21495 1a16 91       		.byte	0x91
 21496 1a17 48       		.sleb128 -56
 21497 1a18 EA070000 		.4byte	.LVL298
 21498 1a1c F2070000 		.4byte	.LFE335
 21499 1a20 0200     		.2byte	0x2
 21500 1a22 91       		.byte	0x91
 21501 1a23 48       		.sleb128 -56
 21502 1a24 00000000 		.4byte	0
 21503 1a28 00000000 		.4byte	0
 21504              	.LLST151:
ARM GAS  /tmp/ccs3e2Sq.s 			page 379


 21505 1a2c 32040000 		.4byte	.LVL230
 21506 1a30 36040000 		.4byte	.LVL231
 21507 1a34 0100     		.2byte	0x1
 21508 1a36 54       		.byte	0x54
 21509 1a37 26060000 		.4byte	.LVL263
 21510 1a3b 50060000 		.4byte	.LVL266
 21511 1a3f 0700     		.2byte	0x7
 21512 1a41 91       		.byte	0x91
 21513 1a42 4C       		.sleb128 -52
 21514 1a43 94       		.byte	0x94
 21515 1a44 02       		.byte	0x2
 21516 1a45 23       		.byte	0x23
 21517 1a46 01       		.uleb128 0x1
 21518 1a47 9F       		.byte	0x9f
 21519 1a48 50060000 		.4byte	.LVL266
 21520 1a4c 96060000 		.4byte	.LVL271
 21521 1a50 0100     		.2byte	0x1
 21522 1a52 54       		.byte	0x54
 21523 1a53 BA070000 		.4byte	.LVL291
 21524 1a57 BE070000 		.4byte	.LVL292
 21525 1a5b 0100     		.2byte	0x1
 21526 1a5d 54       		.byte	0x54
 21527 1a5e EA070000 		.4byte	.LVL298
 21528 1a62 F2070000 		.4byte	.LFE335
 21529 1a66 0100     		.2byte	0x1
 21530 1a68 54       		.byte	0x54
 21531 1a69 00000000 		.4byte	0
 21532 1a6d 00000000 		.4byte	0
 21533              	.LLST152:
 21534 1a71 32040000 		.4byte	.LVL230
 21535 1a75 36040000 		.4byte	.LVL231
 21536 1a79 0100     		.2byte	0x1
 21537 1a7b 53       		.byte	0x53
 21538 1a7c 50060000 		.4byte	.LVL266
 21539 1a80 9A060000 		.4byte	.LVL272
 21540 1a84 0100     		.2byte	0x1
 21541 1a86 53       		.byte	0x53
 21542 1a87 BA070000 		.4byte	.LVL291
 21543 1a8b BE070000 		.4byte	.LVL292
 21544 1a8f 0100     		.2byte	0x1
 21545 1a91 53       		.byte	0x53
 21546 1a92 EA070000 		.4byte	.LVL298
 21547 1a96 F2070000 		.4byte	.LFE335
 21548 1a9a 0100     		.2byte	0x1
 21549 1a9c 53       		.byte	0x53
 21550 1a9d 00000000 		.4byte	0
 21551 1aa1 00000000 		.4byte	0
 21552              	.LLST153:
 21553 1aa5 50060000 		.4byte	.LVL266
 21554 1aa9 54060000 		.4byte	.LVL267
 21555 1aad 0100     		.2byte	0x1
 21556 1aaf 57       		.byte	0x57
 21557 1ab0 00000000 		.4byte	0
 21558 1ab4 00000000 		.4byte	0
 21559              	.LLST154:
 21560 1ab8 50060000 		.4byte	.LVL266
 21561 1abc AC060000 		.4byte	.LVL273
ARM GAS  /tmp/ccs3e2Sq.s 			page 380


 21562 1ac0 0200     		.2byte	0x2
 21563 1ac2 91       		.byte	0x91
 21564 1ac3 48       		.sleb128 -56
 21565 1ac4 BA070000 		.4byte	.LVL291
 21566 1ac8 BE070000 		.4byte	.LVL292
 21567 1acc 0200     		.2byte	0x2
 21568 1ace 91       		.byte	0x91
 21569 1acf 48       		.sleb128 -56
 21570 1ad0 EA070000 		.4byte	.LVL298
 21571 1ad4 F2070000 		.4byte	.LFE335
 21572 1ad8 0200     		.2byte	0x2
 21573 1ada 91       		.byte	0x91
 21574 1adb 48       		.sleb128 -56
 21575 1adc 00000000 		.4byte	0
 21576 1ae0 00000000 		.4byte	0
 21577              	.LLST155:
 21578 1ae4 50060000 		.4byte	.LVL266
 21579 1ae8 96060000 		.4byte	.LVL271
 21580 1aec 0100     		.2byte	0x1
 21581 1aee 54       		.byte	0x54
 21582 1aef BA070000 		.4byte	.LVL291
 21583 1af3 BE070000 		.4byte	.LVL292
 21584 1af7 0100     		.2byte	0x1
 21585 1af9 54       		.byte	0x54
 21586 1afa EA070000 		.4byte	.LVL298
 21587 1afe F2070000 		.4byte	.LFE335
 21588 1b02 0100     		.2byte	0x1
 21589 1b04 54       		.byte	0x54
 21590 1b05 00000000 		.4byte	0
 21591 1b09 00000000 		.4byte	0
 21592              	.LLST156:
 21593 1b0d 50060000 		.4byte	.LVL266
 21594 1b11 9A060000 		.4byte	.LVL272
 21595 1b15 0100     		.2byte	0x1
 21596 1b17 53       		.byte	0x53
 21597 1b18 BA070000 		.4byte	.LVL291
 21598 1b1c BE070000 		.4byte	.LVL292
 21599 1b20 0100     		.2byte	0x1
 21600 1b22 53       		.byte	0x53
 21601 1b23 EA070000 		.4byte	.LVL298
 21602 1b27 F2070000 		.4byte	.LFE335
 21603 1b2b 0100     		.2byte	0x1
 21604 1b2d 53       		.byte	0x53
 21605 1b2e 00000000 		.4byte	0
 21606 1b32 00000000 		.4byte	0
 21607              	.LLST157:
 21608 1b36 50060000 		.4byte	.LVL266
 21609 1b3a AC060000 		.4byte	.LVL273
 21610 1b3e 0100     		.2byte	0x1
 21611 1b40 57       		.byte	0x57
 21612 1b41 EA070000 		.4byte	.LVL298
 21613 1b45 F2070000 		.4byte	.LFE335
 21614 1b49 0100     		.2byte	0x1
 21615 1b4b 57       		.byte	0x57
 21616 1b4c 00000000 		.4byte	0
 21617 1b50 00000000 		.4byte	0
 21618              	.LLST158:
ARM GAS  /tmp/ccs3e2Sq.s 			page 381


 21619 1b54 6E060000 		.4byte	.LVL269
 21620 1b58 78060000 		.4byte	.LVL270
 21621 1b5c 0100     		.2byte	0x1
 21622 1b5e 51       		.byte	0x51
 21623 1b5f 78060000 		.4byte	.LVL270
 21624 1b63 AC060000 		.4byte	.LVL273
 21625 1b67 0100     		.2byte	0x1
 21626 1b69 56       		.byte	0x56
 21627 1b6a EA070000 		.4byte	.LVL298
 21628 1b6e F0070000 		.4byte	.LVL299
 21629 1b72 0100     		.2byte	0x1
 21630 1b74 51       		.byte	0x51
 21631 1b75 F0070000 		.4byte	.LVL299
 21632 1b79 F2070000 		.4byte	.LFE335
 21633 1b7d 0100     		.2byte	0x1
 21634 1b7f 56       		.byte	0x56
 21635 1b80 00000000 		.4byte	0
 21636 1b84 00000000 		.4byte	0
 21637              	.LLST159:
 21638 1b88 0E030000 		.4byte	.LVL203
 21639 1b8c 1A030000 		.4byte	.LVL204
 21640 1b90 0200     		.2byte	0x2
 21641 1b92 78       		.byte	0x78
 21642 1b93 00       		.sleb128 0
 21643 1b94 00000000 		.4byte	0
 21644 1b98 00000000 		.4byte	0
 21645              	.LLST0:
 21646 1b9c 00000000 		.4byte	.LVL0
 21647 1ba0 1E000000 		.4byte	.LVL1
 21648 1ba4 0100     		.2byte	0x1
 21649 1ba6 51       		.byte	0x51
 21650 1ba7 1E000000 		.4byte	.LVL1
 21651 1bab 3E000000 		.4byte	.LFE329
 21652 1baf 0200     		.2byte	0x2
 21653 1bb1 70       		.byte	0x70
 21654 1bb2 00       		.sleb128 0
 21655 1bb3 00000000 		.4byte	0
 21656 1bb7 00000000 		.4byte	0
 21657              	.LLST1:
 21658 1bbb 00000000 		.4byte	.LVL0
 21659 1bbf 2A000000 		.4byte	.LVL2
 21660 1bc3 0100     		.2byte	0x1
 21661 1bc5 52       		.byte	0x52
 21662 1bc6 2A000000 		.4byte	.LVL2
 21663 1bca 3E000000 		.4byte	.LFE329
 21664 1bce 0200     		.2byte	0x2
 21665 1bd0 70       		.byte	0x70
 21666 1bd1 01       		.sleb128 1
 21667 1bd2 00000000 		.4byte	0
 21668 1bd6 00000000 		.4byte	0
 21669              	.LLST2:
 21670 1bda 00000000 		.4byte	.LVL0
 21671 1bde 3C000000 		.4byte	.LVL4
 21672 1be2 0200     		.2byte	0x2
 21673 1be4 91       		.byte	0x91
 21674 1be5 00       		.sleb128 0
 21675 1be6 3C000000 		.4byte	.LVL4
ARM GAS  /tmp/ccs3e2Sq.s 			page 382


 21676 1bea 3E000000 		.4byte	.LFE329
 21677 1bee 0200     		.2byte	0x2
 21678 1bf0 7D       		.byte	0x7d
 21679 1bf1 00       		.sleb128 0
 21680 1bf2 00000000 		.4byte	0
 21681 1bf6 00000000 		.4byte	0
 21682              	.LLST3:
 21683 1bfa 00000000 		.4byte	.LVL0
 21684 1bfe 1E000000 		.4byte	.LVL1
 21685 1c02 2B00     		.2byte	0x2b
 21686 1c04 51       		.byte	0x51
 21687 1c05 93       		.byte	0x93
 21688 1c06 01       		.uleb128 0x1
 21689 1c07 52       		.byte	0x52
 21690 1c08 93       		.byte	0x93
 21691 1c09 01       		.uleb128 0x1
 21692 1c0a 71       		.byte	0x71
 21693 1c0b 00       		.sleb128 0
 21694 1c0c 34       		.byte	0x34
 21695 1c0d 25       		.byte	0x25
 21696 1c0e 71       		.byte	0x71
 21697 1c0f 00       		.sleb128 0
 21698 1c10 3F       		.byte	0x3f
 21699 1c11 1A       		.byte	0x1a
 21700 1c12 48       		.byte	0x48
 21701 1c13 24       		.byte	0x24
 21702 1c14 30       		.byte	0x30
 21703 1c15 2E       		.byte	0x2e
 21704 1c16 22       		.byte	0x22
 21705 1c17 9F       		.byte	0x9f
 21706 1c18 93       		.byte	0x93
 21707 1c19 01       		.uleb128 0x1
 21708 1c1a 72       		.byte	0x72
 21709 1c1b 00       		.sleb128 0
 21710 1c1c 33       		.byte	0x33
 21711 1c1d 25       		.byte	0x25
 21712 1c1e 72       		.byte	0x72
 21713 1c1f 00       		.sleb128 0
 21714 1c20 37       		.byte	0x37
 21715 1c21 1A       		.byte	0x1a
 21716 1c22 48       		.byte	0x48
 21717 1c23 24       		.byte	0x24
 21718 1c24 30       		.byte	0x30
 21719 1c25 2E       		.byte	0x2e
 21720 1c26 22       		.byte	0x22
 21721 1c27 9F       		.byte	0x9f
 21722 1c28 93       		.byte	0x93
 21723 1c29 01       		.uleb128 0x1
 21724 1c2a 53       		.byte	0x53
 21725 1c2b 93       		.byte	0x93
 21726 1c2c 04       		.uleb128 0x4
 21727 1c2d 93       		.byte	0x93
 21728 1c2e 14       		.uleb128 0x14
 21729 1c2f 1E000000 		.4byte	.LVL1
 21730 1c33 2A000000 		.4byte	.LVL2
 21731 1c37 5B00     		.2byte	0x5b
 21732 1c39 70       		.byte	0x70
ARM GAS  /tmp/ccs3e2Sq.s 			page 383


 21733 1c3a 00       		.sleb128 0
 21734 1c3b 93       		.byte	0x93
 21735 1c3c 01       		.uleb128 0x1
 21736 1c3d 52       		.byte	0x52
 21737 1c3e 93       		.byte	0x93
 21738 1c3f 01       		.uleb128 0x1
 21739 1c40 70       		.byte	0x70
 21740 1c41 00       		.sleb128 0
 21741 1c42 94       		.byte	0x94
 21742 1c43 01       		.byte	0x1
 21743 1c44 34       		.byte	0x34
 21744 1c45 25       		.byte	0x25
 21745 1c46 70       		.byte	0x70
 21746 1c47 00       		.sleb128 0
 21747 1c48 94       		.byte	0x94
 21748 1c49 01       		.byte	0x1
 21749 1c4a 3F       		.byte	0x3f
 21750 1c4b 1A       		.byte	0x1a
 21751 1c4c 48       		.byte	0x48
 21752 1c4d 24       		.byte	0x24
 21753 1c4e 30       		.byte	0x30
 21754 1c4f 2E       		.byte	0x2e
 21755 1c50 22       		.byte	0x22
 21756 1c51 9F       		.byte	0x9f
 21757 1c52 93       		.byte	0x93
 21758 1c53 01       		.uleb128 0x1
 21759 1c54 72       		.byte	0x72
 21760 1c55 00       		.sleb128 0
 21761 1c56 33       		.byte	0x33
 21762 1c57 25       		.byte	0x25
 21763 1c58 72       		.byte	0x72
 21764 1c59 00       		.sleb128 0
 21765 1c5a 37       		.byte	0x37
 21766 1c5b 1A       		.byte	0x1a
 21767 1c5c 48       		.byte	0x48
 21768 1c5d 24       		.byte	0x24
 21769 1c5e 30       		.byte	0x30
 21770 1c5f 2E       		.byte	0x2e
 21771 1c60 22       		.byte	0x22
 21772 1c61 9F       		.byte	0x9f
 21773 1c62 93       		.byte	0x93
 21774 1c63 01       		.uleb128 0x1
 21775 1c64 53       		.byte	0x53
 21776 1c65 93       		.byte	0x93
 21777 1c66 04       		.uleb128 0x4
 21778 1c67 51       		.byte	0x51
 21779 1c68 93       		.byte	0x93
 21780 1c69 04       		.uleb128 0x4
 21781 1c6a 30       		.byte	0x30
 21782 1c6b 9F       		.byte	0x9f
 21783 1c6c 93       		.byte	0x93
 21784 1c6d 02       		.uleb128 0x2
 21785 1c6e 30       		.byte	0x30
 21786 1c6f 9F       		.byte	0x9f
 21787 1c70 93       		.byte	0x93
 21788 1c71 02       		.uleb128 0x2
 21789 1c72 77       		.byte	0x77
ARM GAS  /tmp/ccs3e2Sq.s 			page 384


 21790 1c73 01       		.sleb128 1
 21791 1c74 08       		.byte	0x8
 21792 1c75 FF       		.byte	0xff
 21793 1c76 1A       		.byte	0x1a
 21794 1c77 31       		.byte	0x31
 21795 1c78 1C       		.byte	0x1c
 21796 1c79 9F       		.byte	0x9f
 21797 1c7a 93       		.byte	0x93
 21798 1c7b 02       		.uleb128 0x2
 21799 1c7c 72       		.byte	0x72
 21800 1c7d 00       		.sleb128 0
 21801 1c7e 08       		.byte	0x8
 21802 1c7f FF       		.byte	0xff
 21803 1c80 1A       		.byte	0x1a
 21804 1c81 31       		.byte	0x31
 21805 1c82 1C       		.byte	0x1c
 21806 1c83 9F       		.byte	0x9f
 21807 1c84 93       		.byte	0x93
 21808 1c85 02       		.uleb128 0x2
 21809 1c86 30       		.byte	0x30
 21810 1c87 9F       		.byte	0x9f
 21811 1c88 93       		.byte	0x93
 21812 1c89 02       		.uleb128 0x2
 21813 1c8a 30       		.byte	0x30
 21814 1c8b 9F       		.byte	0x9f
 21815 1c8c 93       		.byte	0x93
 21816 1c8d 02       		.uleb128 0x2
 21817 1c8e 30       		.byte	0x30
 21818 1c8f 9F       		.byte	0x9f
 21819 1c90 93       		.byte	0x93
 21820 1c91 01       		.uleb128 0x1
 21821 1c92 93       		.byte	0x93
 21822 1c93 03       		.uleb128 0x3
 21823 1c94 2A000000 		.4byte	.LVL2
 21824 1c98 3A000000 		.4byte	.LVL3
 21825 1c9c 6200     		.2byte	0x62
 21826 1c9e 70       		.byte	0x70
 21827 1c9f 00       		.sleb128 0
 21828 1ca0 93       		.byte	0x93
 21829 1ca1 01       		.uleb128 0x1
 21830 1ca2 70       		.byte	0x70
 21831 1ca3 01       		.sleb128 1
 21832 1ca4 93       		.byte	0x93
 21833 1ca5 01       		.uleb128 0x1
 21834 1ca6 70       		.byte	0x70
 21835 1ca7 00       		.sleb128 0
 21836 1ca8 94       		.byte	0x94
 21837 1ca9 01       		.byte	0x1
 21838 1caa 34       		.byte	0x34
 21839 1cab 25       		.byte	0x25
 21840 1cac 70       		.byte	0x70
 21841 1cad 00       		.sleb128 0
 21842 1cae 94       		.byte	0x94
 21843 1caf 01       		.byte	0x1
 21844 1cb0 3F       		.byte	0x3f
 21845 1cb1 1A       		.byte	0x1a
 21846 1cb2 48       		.byte	0x48
ARM GAS  /tmp/ccs3e2Sq.s 			page 385


 21847 1cb3 24       		.byte	0x24
 21848 1cb4 30       		.byte	0x30
 21849 1cb5 2E       		.byte	0x2e
 21850 1cb6 22       		.byte	0x22
 21851 1cb7 9F       		.byte	0x9f
 21852 1cb8 93       		.byte	0x93
 21853 1cb9 01       		.uleb128 0x1
 21854 1cba 70       		.byte	0x70
 21855 1cbb 01       		.sleb128 1
 21856 1cbc 94       		.byte	0x94
 21857 1cbd 01       		.byte	0x1
 21858 1cbe 33       		.byte	0x33
 21859 1cbf 25       		.byte	0x25
 21860 1cc0 70       		.byte	0x70
 21861 1cc1 01       		.sleb128 1
 21862 1cc2 94       		.byte	0x94
 21863 1cc3 01       		.byte	0x1
 21864 1cc4 37       		.byte	0x37
 21865 1cc5 1A       		.byte	0x1a
 21866 1cc6 48       		.byte	0x48
 21867 1cc7 24       		.byte	0x24
 21868 1cc8 30       		.byte	0x30
 21869 1cc9 2E       		.byte	0x2e
 21870 1cca 22       		.byte	0x22
 21871 1ccb 9F       		.byte	0x9f
 21872 1ccc 93       		.byte	0x93
 21873 1ccd 01       		.uleb128 0x1
 21874 1cce 53       		.byte	0x53
 21875 1ccf 93       		.byte	0x93
 21876 1cd0 04       		.uleb128 0x4
 21877 1cd1 51       		.byte	0x51
 21878 1cd2 93       		.byte	0x93
 21879 1cd3 04       		.uleb128 0x4
 21880 1cd4 30       		.byte	0x30
 21881 1cd5 9F       		.byte	0x9f
 21882 1cd6 93       		.byte	0x93
 21883 1cd7 02       		.uleb128 0x2
 21884 1cd8 30       		.byte	0x30
 21885 1cd9 9F       		.byte	0x9f
 21886 1cda 93       		.byte	0x93
 21887 1cdb 02       		.uleb128 0x2
 21888 1cdc 77       		.byte	0x77
 21889 1cdd 01       		.sleb128 1
 21890 1cde 08       		.byte	0x8
 21891 1cdf FF       		.byte	0xff
 21892 1ce0 1A       		.byte	0x1a
 21893 1ce1 31       		.byte	0x31
 21894 1ce2 1C       		.byte	0x1c
 21895 1ce3 9F       		.byte	0x9f
 21896 1ce4 93       		.byte	0x93
 21897 1ce5 02       		.uleb128 0x2
 21898 1ce6 70       		.byte	0x70
 21899 1ce7 01       		.sleb128 1
 21900 1ce8 94       		.byte	0x94
 21901 1ce9 01       		.byte	0x1
 21902 1cea 08       		.byte	0x8
 21903 1ceb FF       		.byte	0xff
ARM GAS  /tmp/ccs3e2Sq.s 			page 386


 21904 1cec 1A       		.byte	0x1a
 21905 1ced 31       		.byte	0x31
 21906 1cee 1C       		.byte	0x1c
 21907 1cef 9F       		.byte	0x9f
 21908 1cf0 93       		.byte	0x93
 21909 1cf1 02       		.uleb128 0x2
 21910 1cf2 30       		.byte	0x30
 21911 1cf3 9F       		.byte	0x9f
 21912 1cf4 93       		.byte	0x93
 21913 1cf5 02       		.uleb128 0x2
 21914 1cf6 30       		.byte	0x30
 21915 1cf7 9F       		.byte	0x9f
 21916 1cf8 93       		.byte	0x93
 21917 1cf9 02       		.uleb128 0x2
 21918 1cfa 30       		.byte	0x30
 21919 1cfb 9F       		.byte	0x9f
 21920 1cfc 93       		.byte	0x93
 21921 1cfd 01       		.uleb128 0x1
 21922 1cfe 93       		.byte	0x93
 21923 1cff 03       		.uleb128 0x3
 21924 1d00 00000000 		.4byte	0
 21925 1d04 00000000 		.4byte	0
 21926              	.LLST4:
 21927 1d08 00000000 		.4byte	.LVL6
 21928 1d0c 4A000000 		.4byte	.LVL9
 21929 1d10 0100     		.2byte	0x1
 21930 1d12 51       		.byte	0x51
 21931 1d13 4A000000 		.4byte	.LVL9
 21932 1d17 F0000000 		.4byte	.LVL23
 21933 1d1b 0400     		.2byte	0x4
 21934 1d1d F3       		.byte	0xf3
 21935 1d1e 01       		.uleb128 0x1
 21936 1d1f 51       		.byte	0x51
 21937 1d20 9F       		.byte	0x9f
 21938 1d21 F0000000 		.4byte	.LVL23
 21939 1d25 F6000000 		.4byte	.LVL24
 21940 1d29 0100     		.2byte	0x1
 21941 1d2b 51       		.byte	0x51
 21942 1d2c F6000000 		.4byte	.LVL24
 21943 1d30 84010000 		.4byte	.LFE332
 21944 1d34 0400     		.2byte	0x4
 21945 1d36 F3       		.byte	0xf3
 21946 1d37 01       		.uleb128 0x1
 21947 1d38 51       		.byte	0x51
 21948 1d39 9F       		.byte	0x9f
 21949 1d3a 00000000 		.4byte	0
 21950 1d3e 00000000 		.4byte	0
 21951              	.LLST5:
 21952 1d42 3C000000 		.4byte	.LVL7
 21953 1d46 48000000 		.4byte	.LVL8
 21954 1d4a 0100     		.2byte	0x1
 21955 1d4c 51       		.byte	0x51
 21956 1d4d 48000000 		.4byte	.LVL8
 21957 1d51 4A000000 		.4byte	.LVL9
 21958 1d55 0600     		.2byte	0x6
 21959 1d57 74       		.byte	0x74
 21960 1d58 00       		.sleb128 0
ARM GAS  /tmp/ccs3e2Sq.s 			page 387


 21961 1d59 71       		.byte	0x71
 21962 1d5a 00       		.sleb128 0
 21963 1d5b 1A       		.byte	0x1a
 21964 1d5c 9F       		.byte	0x9f
 21965 1d5d 5C000000 		.4byte	.LVL10
 21966 1d61 5E000000 		.4byte	.LVL11
 21967 1d65 0600     		.2byte	0x6
 21968 1d67 74       		.byte	0x74
 21969 1d68 00       		.sleb128 0
 21970 1d69 71       		.byte	0x71
 21971 1d6a 00       		.sleb128 0
 21972 1d6b 1A       		.byte	0x1a
 21973 1d6c 9F       		.byte	0x9f
 21974 1d6d 00000000 		.4byte	0
 21975 1d71 00000000 		.4byte	0
 21976              	.LLST6:
 21977 1d75 7E000000 		.4byte	.LVL12
 21978 1d79 A0000000 		.4byte	.LVL16
 21979 1d7d 0100     		.2byte	0x1
 21980 1d7f 57       		.byte	0x57
 21981 1d80 A0000000 		.4byte	.LVL16
 21982 1d84 E8000000 		.4byte	.LVL22
 21983 1d88 0100     		.2byte	0x1
 21984 1d8a 58       		.byte	0x58
 21985 1d8b F6000000 		.4byte	.LVL24
 21986 1d8f 36010000 		.4byte	.LVL26
 21987 1d93 0100     		.2byte	0x1
 21988 1d95 57       		.byte	0x57
 21989 1d96 36010000 		.4byte	.LVL26
 21990 1d9a 76010000 		.4byte	.LVL33
 21991 1d9e 0100     		.2byte	0x1
 21992 1da0 58       		.byte	0x58
 21993 1da1 76010000 		.4byte	.LVL33
 21994 1da5 7E010000 		.4byte	.LVL34
 21995 1da9 0100     		.2byte	0x1
 21996 1dab 57       		.byte	0x57
 21997 1dac 7E010000 		.4byte	.LVL34
 21998 1db0 84010000 		.4byte	.LFE332
 21999 1db4 0100     		.2byte	0x1
 22000 1db6 58       		.byte	0x58
 22001 1db7 00000000 		.4byte	0
 22002 1dbb 00000000 		.4byte	0
 22003              	.LLST7:
 22004 1dbf 8A000000 		.4byte	.LVL13
 22005 1dc3 8C000000 		.4byte	.LVL14
 22006 1dc7 0100     		.2byte	0x1
 22007 1dc9 57       		.byte	0x57
 22008 1dca F6000000 		.4byte	.LVL24
 22009 1dce 36010000 		.4byte	.LVL26
 22010 1dd2 0100     		.2byte	0x1
 22011 1dd4 57       		.byte	0x57
 22012 1dd5 36010000 		.4byte	.LVL26
 22013 1dd9 40010000 		.4byte	.LVL28
 22014 1ddd 0100     		.2byte	0x1
 22015 1ddf 58       		.byte	0x58
 22016 1de0 76010000 		.4byte	.LVL33
 22017 1de4 7E010000 		.4byte	.LVL34
ARM GAS  /tmp/ccs3e2Sq.s 			page 388


 22018 1de8 0100     		.2byte	0x1
 22019 1dea 57       		.byte	0x57
 22020 1deb 00000000 		.4byte	0
 22021 1def 00000000 		.4byte	0
 22022              	.LLST8:
 22023 1df3 8A000000 		.4byte	.LVL13
 22024 1df7 8C000000 		.4byte	.LVL14
 22025 1dfb 0100     		.2byte	0x1
 22026 1dfd 53       		.byte	0x53
 22027 1dfe F6000000 		.4byte	.LVL24
 22028 1e02 3A010000 		.4byte	.LVL27
 22029 1e06 0100     		.2byte	0x1
 22030 1e08 53       		.byte	0x53
 22031 1e09 76010000 		.4byte	.LVL33
 22032 1e0d 7E010000 		.4byte	.LVL34
 22033 1e11 0100     		.2byte	0x1
 22034 1e13 53       		.byte	0x53
 22035 1e14 00000000 		.4byte	0
 22036 1e18 00000000 		.4byte	0
 22037              	.LLST9:
 22038 1e1c 8A000000 		.4byte	.LVL13
 22039 1e20 8C000000 		.4byte	.LVL14
 22040 1e24 0100     		.2byte	0x1
 22041 1e26 50       		.byte	0x50
 22042 1e27 F6000000 		.4byte	.LVL24
 22043 1e2b 40010000 		.4byte	.LVL28
 22044 1e2f 0100     		.2byte	0x1
 22045 1e31 50       		.byte	0x50
 22046 1e32 76010000 		.4byte	.LVL33
 22047 1e36 7E010000 		.4byte	.LVL34
 22048 1e3a 0100     		.2byte	0x1
 22049 1e3c 50       		.byte	0x50
 22050 1e3d 00000000 		.4byte	0
 22051 1e41 00000000 		.4byte	0
 22052              	.LLST10:
 22053 1e45 F6000000 		.4byte	.LVL24
 22054 1e49 36010000 		.4byte	.LVL26
 22055 1e4d 0100     		.2byte	0x1
 22056 1e4f 57       		.byte	0x57
 22057 1e50 36010000 		.4byte	.LVL26
 22058 1e54 76010000 		.4byte	.LVL33
 22059 1e58 0100     		.2byte	0x1
 22060 1e5a 58       		.byte	0x58
 22061 1e5b 76010000 		.4byte	.LVL33
 22062 1e5f 7E010000 		.4byte	.LVL34
 22063 1e63 0100     		.2byte	0x1
 22064 1e65 57       		.byte	0x57
 22065 1e66 00000000 		.4byte	0
 22066 1e6a 00000000 		.4byte	0
 22067              	.LLST11:
 22068 1e6e F6000000 		.4byte	.LVL24
 22069 1e72 3A010000 		.4byte	.LVL27
 22070 1e76 0100     		.2byte	0x1
 22071 1e78 53       		.byte	0x53
 22072 1e79 76010000 		.4byte	.LVL33
 22073 1e7d 7E010000 		.4byte	.LVL34
 22074 1e81 0100     		.2byte	0x1
ARM GAS  /tmp/ccs3e2Sq.s 			page 389


 22075 1e83 53       		.byte	0x53
 22076 1e84 00000000 		.4byte	0
 22077 1e88 00000000 		.4byte	0
 22078              	.LLST12:
 22079 1e8c F6000000 		.4byte	.LVL24
 22080 1e90 7E010000 		.4byte	.LVL34
 22081 1e94 0100     		.2byte	0x1
 22082 1e96 50       		.byte	0x50
 22083 1e97 00000000 		.4byte	0
 22084 1e9b 00000000 		.4byte	0
 22085              	.LLST13:
 22086 1e9f 0C010000 		.4byte	.LVL25
 22087 1ea3 7E010000 		.4byte	.LVL34
 22088 1ea7 0100     		.2byte	0x1
 22089 1ea9 5C       		.byte	0x5c
 22090 1eaa 00000000 		.4byte	0
 22091 1eae 00000000 		.4byte	0
 22092              	.LLST14:
 22093 1eb2 9E000000 		.4byte	.LVL15
 22094 1eb6 C2000000 		.4byte	.LVL18
 22095 1eba 0100     		.2byte	0x1
 22096 1ebc 54       		.byte	0x54
 22097 1ebd 4E010000 		.4byte	.LVL29
 22098 1ec1 54010000 		.4byte	.LVL30
 22099 1ec5 1400     		.2byte	0x14
 22100 1ec7 71       		.byte	0x71
 22101 1ec8 00       		.sleb128 0
 22102 1ec9 38       		.byte	0x38
 22103 1eca 72       		.byte	0x72
 22104 1ecb 00       		.sleb128 0
 22105 1ecc 38       		.byte	0x38
 22106 1ecd 14       		.byte	0x14
 22107 1ece 14       		.byte	0x14
 22108 1ecf 1B       		.byte	0x1b
 22109 1ed0 1E       		.byte	0x1e
 22110 1ed1 1C       		.byte	0x1c
 22111 1ed2 37       		.byte	0x37
 22112 1ed3 1A       		.byte	0x1a
 22113 1ed4 0A       		.byte	0xa
 22114 1ed5 FFFF     		.2byte	0xffff
 22115 1ed7 1A       		.byte	0x1a
 22116 1ed8 1C       		.byte	0x1c
 22117 1ed9 26       		.byte	0x26
 22118 1eda 9F       		.byte	0x9f
 22119 1edb 54010000 		.4byte	.LVL30
 22120 1edf 68010000 		.4byte	.LVL31
 22121 1ee3 1600     		.2byte	0x16
 22122 1ee5 71       		.byte	0x71
 22123 1ee6 00       		.sleb128 0
 22124 1ee7 38       		.byte	0x38
 22125 1ee8 70       		.byte	0x70
 22126 1ee9 16       		.sleb128 22
 22127 1eea 94       		.byte	0x94
 22128 1eeb 02       		.byte	0x2
 22129 1eec 38       		.byte	0x38
 22130 1eed 14       		.byte	0x14
 22131 1eee 14       		.byte	0x14
ARM GAS  /tmp/ccs3e2Sq.s 			page 390


 22132 1eef 1B       		.byte	0x1b
 22133 1ef0 1E       		.byte	0x1e
 22134 1ef1 1C       		.byte	0x1c
 22135 1ef2 37       		.byte	0x37
 22136 1ef3 1A       		.byte	0x1a
 22137 1ef4 0A       		.byte	0xa
 22138 1ef5 FFFF     		.2byte	0xffff
 22139 1ef7 1A       		.byte	0x1a
 22140 1ef8 1C       		.byte	0x1c
 22141 1ef9 26       		.byte	0x26
 22142 1efa 9F       		.byte	0x9f
 22143 1efb 72010000 		.4byte	.LVL32
 22144 1eff 76010000 		.4byte	.LVL33
 22145 1f03 0100     		.2byte	0x1
 22146 1f05 54       		.byte	0x54
 22147 1f06 7E010000 		.4byte	.LVL34
 22148 1f0a 84010000 		.4byte	.LFE332
 22149 1f0e 0100     		.2byte	0x1
 22150 1f10 54       		.byte	0x54
 22151 1f11 00000000 		.4byte	0
 22152 1f15 00000000 		.4byte	0
 22153              	.LLST15:
 22154 1f19 9E000000 		.4byte	.LVL15
 22155 1f1d D6000000 		.4byte	.LVL20
 22156 1f21 0100     		.2byte	0x1
 22157 1f23 52       		.byte	0x52
 22158 1f24 4E010000 		.4byte	.LVL29
 22159 1f28 72010000 		.4byte	.LVL32
 22160 1f2c 0300     		.2byte	0x3
 22161 1f2e 78       		.byte	0x78
 22162 1f2f 01       		.sleb128 1
 22163 1f30 9F       		.byte	0x9f
 22164 1f31 72010000 		.4byte	.LVL32
 22165 1f35 76010000 		.4byte	.LVL33
 22166 1f39 0100     		.2byte	0x1
 22167 1f3b 52       		.byte	0x52
 22168 1f3c 7E010000 		.4byte	.LVL34
 22169 1f40 84010000 		.4byte	.LFE332
 22170 1f44 0100     		.2byte	0x1
 22171 1f46 52       		.byte	0x52
 22172 1f47 00000000 		.4byte	0
 22173 1f4b 00000000 		.4byte	0
 22174              	.LLST16:
 22175 1f4f 9E000000 		.4byte	.LVL15
 22176 1f53 DE000000 		.4byte	.LVL21
 22177 1f57 0100     		.2byte	0x1
 22178 1f59 53       		.byte	0x53
 22179 1f5a 4E010000 		.4byte	.LVL29
 22180 1f5e 72010000 		.4byte	.LVL32
 22181 1f62 0200     		.2byte	0x2
 22182 1f64 70       		.byte	0x70
 22183 1f65 14       		.sleb128 20
 22184 1f66 72010000 		.4byte	.LVL32
 22185 1f6a 76010000 		.4byte	.LVL33
 22186 1f6e 0100     		.2byte	0x1
 22187 1f70 53       		.byte	0x53
 22188 1f71 7E010000 		.4byte	.LVL34
ARM GAS  /tmp/ccs3e2Sq.s 			page 391


 22189 1f75 84010000 		.4byte	.LFE332
 22190 1f79 0100     		.2byte	0x1
 22191 1f7b 53       		.byte	0x53
 22192 1f7c 00000000 		.4byte	0
 22193 1f80 00000000 		.4byte	0
 22194              	.LLST17:
 22195 1f84 9E000000 		.4byte	.LVL15
 22196 1f88 E8000000 		.4byte	.LVL22
 22197 1f8c 0100     		.2byte	0x1
 22198 1f8e 50       		.byte	0x50
 22199 1f8f 4E010000 		.4byte	.LVL29
 22200 1f93 76010000 		.4byte	.LVL33
 22201 1f97 0100     		.2byte	0x1
 22202 1f99 50       		.byte	0x50
 22203 1f9a 7E010000 		.4byte	.LVL34
 22204 1f9e 84010000 		.4byte	.LFE332
 22205 1fa2 0100     		.2byte	0x1
 22206 1fa4 50       		.byte	0x50
 22207 1fa5 00000000 		.4byte	0
 22208 1fa9 00000000 		.4byte	0
 22209              	.LLST18:
 22210 1fad A0000000 		.4byte	.LVL16
 22211 1fb1 C2000000 		.4byte	.LVL18
 22212 1fb5 0100     		.2byte	0x1
 22213 1fb7 54       		.byte	0x54
 22214 1fb8 72010000 		.4byte	.LVL32
 22215 1fbc 76010000 		.4byte	.LVL33
 22216 1fc0 0100     		.2byte	0x1
 22217 1fc2 54       		.byte	0x54
 22218 1fc3 7E010000 		.4byte	.LVL34
 22219 1fc7 84010000 		.4byte	.LFE332
 22220 1fcb 0100     		.2byte	0x1
 22221 1fcd 54       		.byte	0x54
 22222 1fce 00000000 		.4byte	0
 22223 1fd2 00000000 		.4byte	0
 22224              	.LLST19:
 22225 1fd6 A0000000 		.4byte	.LVL16
 22226 1fda D6000000 		.4byte	.LVL20
 22227 1fde 0100     		.2byte	0x1
 22228 1fe0 52       		.byte	0x52
 22229 1fe1 72010000 		.4byte	.LVL32
 22230 1fe5 76010000 		.4byte	.LVL33
 22231 1fe9 0100     		.2byte	0x1
 22232 1feb 52       		.byte	0x52
 22233 1fec 7E010000 		.4byte	.LVL34
 22234 1ff0 84010000 		.4byte	.LFE332
 22235 1ff4 0100     		.2byte	0x1
 22236 1ff6 52       		.byte	0x52
 22237 1ff7 00000000 		.4byte	0
 22238 1ffb 00000000 		.4byte	0
 22239              	.LLST20:
 22240 1fff A0000000 		.4byte	.LVL16
 22241 2003 DE000000 		.4byte	.LVL21
 22242 2007 0100     		.2byte	0x1
 22243 2009 53       		.byte	0x53
 22244 200a 72010000 		.4byte	.LVL32
 22245 200e 76010000 		.4byte	.LVL33
ARM GAS  /tmp/ccs3e2Sq.s 			page 392


 22246 2012 0100     		.2byte	0x1
 22247 2014 53       		.byte	0x53
 22248 2015 7E010000 		.4byte	.LVL34
 22249 2019 84010000 		.4byte	.LFE332
 22250 201d 0100     		.2byte	0x1
 22251 201f 53       		.byte	0x53
 22252 2020 00000000 		.4byte	0
 22253 2024 00000000 		.4byte	0
 22254              	.LLST21:
 22255 2028 A0000000 		.4byte	.LVL16
 22256 202c E8000000 		.4byte	.LVL22
 22257 2030 0100     		.2byte	0x1
 22258 2032 50       		.byte	0x50
 22259 2033 72010000 		.4byte	.LVL32
 22260 2037 76010000 		.4byte	.LVL33
 22261 203b 0100     		.2byte	0x1
 22262 203d 50       		.byte	0x50
 22263 203e 7E010000 		.4byte	.LVL34
 22264 2042 84010000 		.4byte	.LFE332
 22265 2046 0100     		.2byte	0x1
 22266 2048 50       		.byte	0x50
 22267 2049 00000000 		.4byte	0
 22268 204d 00000000 		.4byte	0
 22269              	.LLST22:
 22270 2051 B2000000 		.4byte	.LVL17
 22271 2055 D2000000 		.4byte	.LVL19
 22272 2059 0100     		.2byte	0x1
 22273 205b 55       		.byte	0x55
 22274 205c 7E010000 		.4byte	.LVL34
 22275 2060 84010000 		.4byte	.LFE332
 22276 2064 0100     		.2byte	0x1
 22277 2066 55       		.byte	0x55
 22278 2067 00000000 		.4byte	0
 22279 206b 00000000 		.4byte	0
 22280              	.LLST23:
 22281 206f 00000000 		.4byte	.LVL35
 22282 2073 AC010000 		.4byte	.LVL66
 22283 2077 0100     		.2byte	0x1
 22284 2079 51       		.byte	0x51
 22285 207a AC010000 		.4byte	.LVL66
 22286 207e C4020000 		.4byte	.LVL86
 22287 2082 0400     		.2byte	0x4
 22288 2084 F3       		.byte	0xf3
 22289 2085 01       		.uleb128 0x1
 22290 2086 51       		.byte	0x51
 22291 2087 9F       		.byte	0x9f
 22292 2088 C4020000 		.4byte	.LVL86
 22293 208c E4020000 		.4byte	.LVL91
 22294 2090 0100     		.2byte	0x1
 22295 2092 51       		.byte	0x51
 22296 2093 E4020000 		.4byte	.LVL91
 22297 2097 04040000 		.4byte	.LVL108
 22298 209b 0400     		.2byte	0x4
 22299 209d F3       		.byte	0xf3
 22300 209e 01       		.uleb128 0x1
 22301 209f 51       		.byte	0x51
 22302 20a0 9F       		.byte	0x9f
ARM GAS  /tmp/ccs3e2Sq.s 			page 393


 22303 20a1 04040000 		.4byte	.LVL108
 22304 20a5 AC040000 		.4byte	.LVL117
 22305 20a9 0100     		.2byte	0x1
 22306 20ab 51       		.byte	0x51
 22307 20ac AC040000 		.4byte	.LVL117
 22308 20b0 E4050000 		.4byte	.LVL139
 22309 20b4 0400     		.2byte	0x4
 22310 20b6 F3       		.byte	0xf3
 22311 20b7 01       		.uleb128 0x1
 22312 20b8 51       		.byte	0x51
 22313 20b9 9F       		.byte	0x9f
 22314 20ba E4050000 		.4byte	.LVL139
 22315 20be F0050000 		.4byte	.LVL140
 22316 20c2 0100     		.2byte	0x1
 22317 20c4 51       		.byte	0x51
 22318 20c5 F0050000 		.4byte	.LVL140
 22319 20c9 08060000 		.4byte	.LVL142
 22320 20cd 0400     		.2byte	0x4
 22321 20cf F3       		.byte	0xf3
 22322 20d0 01       		.uleb128 0x1
 22323 20d1 51       		.byte	0x51
 22324 20d2 9F       		.byte	0x9f
 22325 20d3 08060000 		.4byte	.LVL142
 22326 20d7 10060000 		.4byte	.LVL143
 22327 20db 0100     		.2byte	0x1
 22328 20dd 51       		.byte	0x51
 22329 20de 10060000 		.4byte	.LVL143
 22330 20e2 1C060000 		.4byte	.LFE333
 22331 20e6 0400     		.2byte	0x4
 22332 20e8 F3       		.byte	0xf3
 22333 20e9 01       		.uleb128 0x1
 22334 20ea 51       		.byte	0x51
 22335 20eb 9F       		.byte	0x9f
 22336 20ec 00000000 		.4byte	0
 22337 20f0 00000000 		.4byte	0
 22338              	.LLST24:
 22339 20f4 00000000 		.4byte	.LVL35
 22340 20f8 48000000 		.4byte	.LVL42
 22341 20fc 0100     		.2byte	0x1
 22342 20fe 52       		.byte	0x52
 22343 20ff 48000000 		.4byte	.LVL42
 22344 2103 C4020000 		.4byte	.LVL86
 22345 2107 0400     		.2byte	0x4
 22346 2109 F3       		.byte	0xf3
 22347 210a 01       		.uleb128 0x1
 22348 210b 52       		.byte	0x52
 22349 210c 9F       		.byte	0x9f
 22350 210d C4020000 		.4byte	.LVL86
 22351 2111 E4020000 		.4byte	.LVL91
 22352 2115 0100     		.2byte	0x1
 22353 2117 52       		.byte	0x52
 22354 2118 E4020000 		.4byte	.LVL91
 22355 211c 1C060000 		.4byte	.LFE333
 22356 2120 0400     		.2byte	0x4
 22357 2122 F3       		.byte	0xf3
 22358 2123 01       		.uleb128 0x1
 22359 2124 52       		.byte	0x52
ARM GAS  /tmp/ccs3e2Sq.s 			page 394


 22360 2125 9F       		.byte	0x9f
 22361 2126 00000000 		.4byte	0
 22362 212a 00000000 		.4byte	0
 22363              	.LLST25:
 22364 212e 00000000 		.4byte	.LVL35
 22365 2132 08000000 		.4byte	.LVL36
 22366 2136 0100     		.2byte	0x1
 22367 2138 53       		.byte	0x53
 22368 2139 08000000 		.4byte	.LVL36
 22369 213d 1C060000 		.4byte	.LFE333
 22370 2141 0400     		.2byte	0x4
 22371 2143 F3       		.byte	0xf3
 22372 2144 01       		.uleb128 0x1
 22373 2145 53       		.byte	0x53
 22374 2146 9F       		.byte	0x9f
 22375 2147 00000000 		.4byte	0
 22376 214b 00000000 		.4byte	0
 22377              	.LLST26:
 22378 214f 00000000 		.4byte	.LVL35
 22379 2153 C0020000 		.4byte	.LVL85
 22380 2157 0200     		.2byte	0x2
 22381 2159 91       		.byte	0x91
 22382 215a 00       		.sleb128 0
 22383 215b C0020000 		.4byte	.LVL85
 22384 215f C4020000 		.4byte	.LVL86
 22385 2163 0200     		.2byte	0x2
 22386 2165 7D       		.byte	0x7d
 22387 2166 00       		.sleb128 0
 22388 2167 C4020000 		.4byte	.LVL86
 22389 216b 1C060000 		.4byte	.LFE333
 22390 216f 0200     		.2byte	0x2
 22391 2171 91       		.byte	0x91
 22392 2172 00       		.sleb128 0
 22393 2173 00000000 		.4byte	0
 22394 2177 00000000 		.4byte	0
 22395              	.LLST27:
 22396 217b 00000000 		.4byte	.LVL35
 22397 217f C0020000 		.4byte	.LVL85
 22398 2183 0200     		.2byte	0x2
 22399 2185 91       		.byte	0x91
 22400 2186 04       		.sleb128 4
 22401 2187 C0020000 		.4byte	.LVL85
 22402 218b C4020000 		.4byte	.LVL86
 22403 218f 0200     		.2byte	0x2
 22404 2191 7D       		.byte	0x7d
 22405 2192 04       		.sleb128 4
 22406 2193 C4020000 		.4byte	.LVL86
 22407 2197 1C060000 		.4byte	.LFE333
 22408 219b 0200     		.2byte	0x2
 22409 219d 91       		.byte	0x91
 22410 219e 04       		.sleb128 4
 22411 219f 00000000 		.4byte	0
 22412 21a3 00000000 		.4byte	0
 22413              	.LLST28:
 22414 21a7 00000000 		.4byte	.LVL35
 22415 21ab 14000000 		.4byte	.LVL37
 22416 21af 0200     		.2byte	0x2
ARM GAS  /tmp/ccs3e2Sq.s 			page 395


 22417 21b1 30       		.byte	0x30
 22418 21b2 9F       		.byte	0x9f
 22419 21b3 14000000 		.4byte	.LVL37
 22420 21b7 40000000 		.4byte	.LVL41
 22421 21bb 0100     		.2byte	0x1
 22422 21bd 53       		.byte	0x53
 22423 21be C4020000 		.4byte	.LVL86
 22424 21c2 D6020000 		.4byte	.LVL89
 22425 21c6 0100     		.2byte	0x1
 22426 21c8 53       		.byte	0x53
 22427 21c9 00000000 		.4byte	0
 22428 21cd 00000000 		.4byte	0
 22429              	.LLST29:
 22430 21d1 00000000 		.4byte	.LVL35
 22431 21d5 48000000 		.4byte	.LVL42
 22432 21d9 0200     		.2byte	0x2
 22433 21db 30       		.byte	0x30
 22434 21dc 9F       		.byte	0x9f
 22435 21dd 48000000 		.4byte	.LVL42
 22436 21e1 7A010000 		.4byte	.LVL61
 22437 21e5 0100     		.2byte	0x1
 22438 21e7 54       		.byte	0x54
 22439 21e8 A4010000 		.4byte	.LVL65
 22440 21ec AC010000 		.4byte	.LVL66
 22441 21f0 0200     		.2byte	0x2
 22442 21f2 30       		.byte	0x30
 22443 21f3 9F       		.byte	0x9f
 22444 21f4 AC010000 		.4byte	.LVL66
 22445 21f8 B0020000 		.4byte	.LVL83
 22446 21fc 0100     		.2byte	0x1
 22447 21fe 53       		.byte	0x53
 22448 21ff C4020000 		.4byte	.LVL86
 22449 2203 E4020000 		.4byte	.LVL91
 22450 2207 0200     		.2byte	0x2
 22451 2209 30       		.byte	0x30
 22452 220a 9F       		.byte	0x9f
 22453 220b E4020000 		.4byte	.LVL91
 22454 220f F4030000 		.4byte	.LVL106
 22455 2213 0100     		.2byte	0x1
 22456 2215 53       		.byte	0x53
 22457 2216 04040000 		.4byte	.LVL108
 22458 221a AC040000 		.4byte	.LVL117
 22459 221e 0100     		.2byte	0x1
 22460 2220 54       		.byte	0x54
 22461 2221 AC040000 		.4byte	.LVL117
 22462 2225 E4050000 		.4byte	.LVL139
 22463 2229 0100     		.2byte	0x1
 22464 222b 53       		.byte	0x53
 22465 222c E4050000 		.4byte	.LVL139
 22466 2230 F0050000 		.4byte	.LVL140
 22467 2234 0100     		.2byte	0x1
 22468 2236 54       		.byte	0x54
 22469 2237 F0050000 		.4byte	.LVL140
 22470 223b 08060000 		.4byte	.LVL142
 22471 223f 0100     		.2byte	0x1
 22472 2241 53       		.byte	0x53
 22473 2242 08060000 		.4byte	.LVL142
ARM GAS  /tmp/ccs3e2Sq.s 			page 396


 22474 2246 10060000 		.4byte	.LVL143
 22475 224a 0100     		.2byte	0x1
 22476 224c 54       		.byte	0x54
 22477 224d 10060000 		.4byte	.LVL143
 22478 2251 1C060000 		.4byte	.LFE333
 22479 2255 0100     		.2byte	0x1
 22480 2257 53       		.byte	0x53
 22481 2258 00000000 		.4byte	0
 22482 225c 00000000 		.4byte	0
 22483              	.LLST30:
 22484 2260 14000000 		.4byte	.LVL37
 22485 2264 26000000 		.4byte	.LVL38
 22486 2268 0300     		.2byte	0x3
 22487 226a 09       		.byte	0x9
 22488 226b FF       		.byte	0xff
 22489 226c 9F       		.byte	0x9f
 22490 226d 26000000 		.4byte	.LVL38
 22491 2271 C0020000 		.4byte	.LVL85
 22492 2275 0100     		.2byte	0x1
 22493 2277 5B       		.byte	0x5b
 22494 2278 C4020000 		.4byte	.LVL86
 22495 227c CA020000 		.4byte	.LVL87
 22496 2280 0300     		.2byte	0x3
 22497 2282 09       		.byte	0x9
 22498 2283 FF       		.byte	0xff
 22499 2284 9F       		.byte	0x9f
 22500 2285 CA020000 		.4byte	.LVL87
 22501 2289 1C060000 		.4byte	.LFE333
 22502 228d 0100     		.2byte	0x1
 22503 228f 5B       		.byte	0x5b
 22504 2290 00000000 		.4byte	0
 22505 2294 00000000 		.4byte	0
 22506              	.LLST31:
 22507 2298 30000000 		.4byte	.LVL39
 22508 229c 3E000000 		.4byte	.LVL40
 22509 22a0 0100     		.2byte	0x1
 22510 22a2 52       		.byte	0x52
 22511 22a3 00000000 		.4byte	0
 22512 22a7 00000000 		.4byte	0
 22513              	.LLST32:
 22514 22ab 30000000 		.4byte	.LVL39
 22515 22af 3E000000 		.4byte	.LVL40
 22516 22b3 0100     		.2byte	0x1
 22517 22b5 51       		.byte	0x51
 22518 22b6 00000000 		.4byte	0
 22519 22ba 00000000 		.4byte	0
 22520              	.LLST33:
 22521 22be 30000000 		.4byte	.LVL39
 22522 22c2 3E000000 		.4byte	.LVL40
 22523 22c6 0100     		.2byte	0x1
 22524 22c8 50       		.byte	0x50
 22525 22c9 00000000 		.4byte	0
 22526 22cd 00000000 		.4byte	0
 22527              	.LLST34:
 22528 22d1 48000000 		.4byte	.LVL42
 22529 22d5 80010000 		.4byte	.LVL62
 22530 22d9 0100     		.2byte	0x1
ARM GAS  /tmp/ccs3e2Sq.s 			page 397


 22531 22db 50       		.byte	0x50
 22532 22dc 04040000 		.4byte	.LVL108
 22533 22e0 AC040000 		.4byte	.LVL117
 22534 22e4 0100     		.2byte	0x1
 22535 22e6 50       		.byte	0x50
 22536 22e7 E4050000 		.4byte	.LVL139
 22537 22eb F0050000 		.4byte	.LVL140
 22538 22ef 0100     		.2byte	0x1
 22539 22f1 50       		.byte	0x50
 22540 22f2 08060000 		.4byte	.LVL142
 22541 22f6 10060000 		.4byte	.LVL143
 22542 22fa 0100     		.2byte	0x1
 22543 22fc 50       		.byte	0x50
 22544 22fd 00000000 		.4byte	0
 22545 2301 00000000 		.4byte	0
 22546              	.LLST35:
 22547 2305 EE000000 		.4byte	.LVL49
 22548 2309 F2000000 		.4byte	.LVL50
 22549 230d 0100     		.2byte	0x1
 22550 230f 5C       		.byte	0x5c
 22551 2310 04040000 		.4byte	.LVL108
 22552 2314 64040000 		.4byte	.LVL112
 22553 2318 0100     		.2byte	0x1
 22554 231a 5C       		.byte	0x5c
 22555 231b E4050000 		.4byte	.LVL139
 22556 231f F0050000 		.4byte	.LVL140
 22557 2323 0100     		.2byte	0x1
 22558 2325 5C       		.byte	0x5c
 22559 2326 00000000 		.4byte	0
 22560 232a 00000000 		.4byte	0
 22561              	.LLST36:
 22562 232e EE000000 		.4byte	.LVL49
 22563 2332 F2000000 		.4byte	.LVL50
 22564 2336 0200     		.2byte	0x2
 22565 2338 70       		.byte	0x70
 22566 2339 14       		.sleb128 20
 22567 233a 04040000 		.4byte	.LVL108
 22568 233e 34040000 		.4byte	.LVL111
 22569 2342 0200     		.2byte	0x2
 22570 2344 70       		.byte	0x70
 22571 2345 14       		.sleb128 20
 22572 2346 E4050000 		.4byte	.LVL139
 22573 234a F0050000 		.4byte	.LVL140
 22574 234e 0200     		.2byte	0x2
 22575 2350 70       		.byte	0x70
 22576 2351 14       		.sleb128 20
 22577 2352 00000000 		.4byte	0
 22578 2356 00000000 		.4byte	0
 22579              	.LLST37:
 22580 235a 04040000 		.4byte	.LVL108
 22581 235e 9C040000 		.4byte	.LVL115
 22582 2362 0100     		.2byte	0x1
 22583 2364 5C       		.byte	0x5c
 22584 2365 9C040000 		.4byte	.LVL115
 22585 2369 AC040000 		.4byte	.LVL117
 22586 236d 0200     		.2byte	0x2
 22587 236f 91       		.byte	0x91
ARM GAS  /tmp/ccs3e2Sq.s 			page 398


 22588 2370 50       		.sleb128 -48
 22589 2371 E4050000 		.4byte	.LVL139
 22590 2375 F0050000 		.4byte	.LVL140
 22591 2379 0100     		.2byte	0x1
 22592 237b 5C       		.byte	0x5c
 22593 237c 00000000 		.4byte	0
 22594 2380 00000000 		.4byte	0
 22595              	.LLST38:
 22596 2384 04040000 		.4byte	.LVL108
 22597 2388 34040000 		.4byte	.LVL111
 22598 238c 0200     		.2byte	0x2
 22599 238e 70       		.byte	0x70
 22600 238f 14       		.sleb128 20
 22601 2390 E4050000 		.4byte	.LVL139
 22602 2394 F0050000 		.4byte	.LVL140
 22603 2398 0200     		.2byte	0x2
 22604 239a 70       		.byte	0x70
 22605 239b 14       		.sleb128 20
 22606 239c 00000000 		.4byte	0
 22607 23a0 00000000 		.4byte	0
 22608              	.LLST39:
 22609 23a4 04040000 		.4byte	.LVL108
 22610 23a8 AC040000 		.4byte	.LVL117
 22611 23ac 0100     		.2byte	0x1
 22612 23ae 50       		.byte	0x50
 22613 23af E4050000 		.4byte	.LVL139
 22614 23b3 F0050000 		.4byte	.LVL140
 22615 23b7 0100     		.2byte	0x1
 22616 23b9 50       		.byte	0x50
 22617 23ba 00000000 		.4byte	0
 22618 23be 00000000 		.4byte	0
 22619              	.LLST40:
 22620 23c2 0C040000 		.4byte	.LVL109
 22621 23c6 1C040000 		.4byte	.LVL110
 22622 23ca 0200     		.2byte	0x2
 22623 23cc 91       		.byte	0x91
 22624 23cd 48       		.sleb128 -56
 22625 23ce 00000000 		.4byte	0
 22626 23d2 00000000 		.4byte	0
 22627              	.LLST41:
 22628 23d6 14010000 		.4byte	.LVL52
 22629 23da 76010000 		.4byte	.LVL60
 22630 23de 0200     		.2byte	0x2
 22631 23e0 91       		.byte	0x91
 22632 23e1 4C       		.sleb128 -52
 22633 23e2 74040000 		.4byte	.LVL113
 22634 23e6 7C040000 		.4byte	.LVL114
 22635 23ea 1500     		.2byte	0x15
 22636 23ec 91       		.byte	0x91
 22637 23ed 4C       		.sleb128 -52
 22638 23ee 06       		.byte	0x6
 22639 23ef 38       		.byte	0x38
 22640 23f0 76       		.byte	0x76
 22641 23f1 00       		.sleb128 0
 22642 23f2 38       		.byte	0x38
 22643 23f3 14       		.byte	0x14
 22644 23f4 14       		.byte	0x14
ARM GAS  /tmp/ccs3e2Sq.s 			page 399


 22645 23f5 1B       		.byte	0x1b
 22646 23f6 1E       		.byte	0x1e
 22647 23f7 1C       		.byte	0x1c
 22648 23f8 37       		.byte	0x37
 22649 23f9 1A       		.byte	0x1a
 22650 23fa 0A       		.byte	0xa
 22651 23fb FFFF     		.2byte	0xffff
 22652 23fd 1A       		.byte	0x1a
 22653 23fe 1C       		.byte	0x1c
 22654 23ff 26       		.byte	0x26
 22655 2400 9F       		.byte	0x9f
 22656 2401 7C040000 		.4byte	.LVL114
 22657 2405 A6040000 		.4byte	.LVL116
 22658 2409 1700     		.2byte	0x17
 22659 240b 91       		.byte	0x91
 22660 240c 4C       		.sleb128 -52
 22661 240d 06       		.byte	0x6
 22662 240e 38       		.byte	0x38
 22663 240f 70       		.byte	0x70
 22664 2410 16       		.sleb128 22
 22665 2411 94       		.byte	0x94
 22666 2412 02       		.byte	0x2
 22667 2413 38       		.byte	0x38
 22668 2414 14       		.byte	0x14
 22669 2415 14       		.byte	0x14
 22670 2416 1B       		.byte	0x1b
 22671 2417 1E       		.byte	0x1e
 22672 2418 1C       		.byte	0x1c
 22673 2419 37       		.byte	0x37
 22674 241a 1A       		.byte	0x1a
 22675 241b 0A       		.byte	0xa
 22676 241c FFFF     		.2byte	0xffff
 22677 241e 1A       		.byte	0x1a
 22678 241f 1C       		.byte	0x1c
 22679 2420 26       		.byte	0x26
 22680 2421 9F       		.byte	0x9f
 22681 2422 A6040000 		.4byte	.LVL116
 22682 2426 AC040000 		.4byte	.LVL117
 22683 242a 0200     		.2byte	0x2
 22684 242c 91       		.byte	0x91
 22685 242d 4C       		.sleb128 -52
 22686 242e 08060000 		.4byte	.LVL142
 22687 2432 10060000 		.4byte	.LVL143
 22688 2436 0200     		.2byte	0x2
 22689 2438 91       		.byte	0x91
 22690 2439 4C       		.sleb128 -52
 22691 243a 00000000 		.4byte	0
 22692 243e 00000000 		.4byte	0
 22693              	.LLST42:
 22694 2442 14010000 		.4byte	.LVL52
 22695 2446 5E010000 		.4byte	.LVL58
 22696 244a 0100     		.2byte	0x1
 22697 244c 5C       		.byte	0x5c
 22698 244d 74040000 		.4byte	.LVL113
 22699 2451 A6040000 		.4byte	.LVL116
 22700 2455 0700     		.2byte	0x7
 22701 2457 91       		.byte	0x91
ARM GAS  /tmp/ccs3e2Sq.s 			page 400


 22702 2458 50       		.sleb128 -48
 22703 2459 94       		.byte	0x94
 22704 245a 02       		.byte	0x2
 22705 245b 23       		.byte	0x23
 22706 245c 01       		.uleb128 0x1
 22707 245d 9F       		.byte	0x9f
 22708 245e A6040000 		.4byte	.LVL116
 22709 2462 AC040000 		.4byte	.LVL117
 22710 2466 0100     		.2byte	0x1
 22711 2468 5C       		.byte	0x5c
 22712 2469 08060000 		.4byte	.LVL142
 22713 246d 10060000 		.4byte	.LVL143
 22714 2471 0100     		.2byte	0x1
 22715 2473 5C       		.byte	0x5c
 22716 2474 00000000 		.4byte	0
 22717 2478 00000000 		.4byte	0
 22718              	.LLST43:
 22719 247c 14010000 		.4byte	.LVL52
 22720 2480 62010000 		.4byte	.LVL59
 22721 2484 0100     		.2byte	0x1
 22722 2486 53       		.byte	0x53
 22723 2487 A6040000 		.4byte	.LVL116
 22724 248b AC040000 		.4byte	.LVL117
 22725 248f 0100     		.2byte	0x1
 22726 2491 53       		.byte	0x53
 22727 2492 08060000 		.4byte	.LVL142
 22728 2496 10060000 		.4byte	.LVL143
 22729 249a 0100     		.2byte	0x1
 22730 249c 53       		.byte	0x53
 22731 249d 00000000 		.4byte	0
 22732 24a1 00000000 		.4byte	0
 22733              	.LLST44:
 22734 24a5 A6040000 		.4byte	.LVL116
 22735 24a9 AC040000 		.4byte	.LVL117
 22736 24ad 0100     		.2byte	0x1
 22737 24af 50       		.byte	0x50
 22738 24b0 00000000 		.4byte	0
 22739 24b4 00000000 		.4byte	0
 22740              	.LLST45:
 22741 24b8 16010000 		.4byte	.LVL53
 22742 24bc 76010000 		.4byte	.LVL60
 22743 24c0 0200     		.2byte	0x2
 22744 24c2 91       		.byte	0x91
 22745 24c3 4C       		.sleb128 -52
 22746 24c4 A6040000 		.4byte	.LVL116
 22747 24c8 AC040000 		.4byte	.LVL117
 22748 24cc 0200     		.2byte	0x2
 22749 24ce 91       		.byte	0x91
 22750 24cf 4C       		.sleb128 -52
 22751 24d0 08060000 		.4byte	.LVL142
 22752 24d4 10060000 		.4byte	.LVL143
 22753 24d8 0200     		.2byte	0x2
 22754 24da 91       		.byte	0x91
 22755 24db 4C       		.sleb128 -52
 22756 24dc 00000000 		.4byte	0
 22757 24e0 00000000 		.4byte	0
 22758              	.LLST46:
ARM GAS  /tmp/ccs3e2Sq.s 			page 401


 22759 24e4 16010000 		.4byte	.LVL53
 22760 24e8 5E010000 		.4byte	.LVL58
 22761 24ec 0100     		.2byte	0x1
 22762 24ee 5C       		.byte	0x5c
 22763 24ef A6040000 		.4byte	.LVL116
 22764 24f3 AC040000 		.4byte	.LVL117
 22765 24f7 0100     		.2byte	0x1
 22766 24f9 5C       		.byte	0x5c
 22767 24fa 08060000 		.4byte	.LVL142
 22768 24fe 10060000 		.4byte	.LVL143
 22769 2502 0100     		.2byte	0x1
 22770 2504 5C       		.byte	0x5c
 22771 2505 00000000 		.4byte	0
 22772 2509 00000000 		.4byte	0
 22773              	.LLST47:
 22774 250d 16010000 		.4byte	.LVL53
 22775 2511 62010000 		.4byte	.LVL59
 22776 2515 0100     		.2byte	0x1
 22777 2517 53       		.byte	0x53
 22778 2518 A6040000 		.4byte	.LVL116
 22779 251c AC040000 		.4byte	.LVL117
 22780 2520 0100     		.2byte	0x1
 22781 2522 53       		.byte	0x53
 22782 2523 08060000 		.4byte	.LVL142
 22783 2527 10060000 		.4byte	.LVL143
 22784 252b 0100     		.2byte	0x1
 22785 252d 53       		.byte	0x53
 22786 252e 00000000 		.4byte	0
 22787 2532 00000000 		.4byte	0
 22788              	.LLST48:
 22789 2536 18010000 		.4byte	.LVL54
 22790 253a 76010000 		.4byte	.LVL60
 22791 253e 0100     		.2byte	0x1
 22792 2540 50       		.byte	0x50
 22793 2541 A6040000 		.4byte	.LVL116
 22794 2545 AC040000 		.4byte	.LVL117
 22795 2549 0100     		.2byte	0x1
 22796 254b 50       		.byte	0x50
 22797 254c 08060000 		.4byte	.LVL142
 22798 2550 10060000 		.4byte	.LVL143
 22799 2554 0100     		.2byte	0x1
 22800 2556 50       		.byte	0x50
 22801 2557 00000000 		.4byte	0
 22802 255b 00000000 		.4byte	0
 22803              	.LLST49:
 22804 255f 2C010000 		.4byte	.LVL56
 22805 2563 5A010000 		.4byte	.LVL57
 22806 2567 0100     		.2byte	0x1
 22807 2569 57       		.byte	0x57
 22808 256a 08060000 		.4byte	.LVL142
 22809 256e 10060000 		.4byte	.LVL143
 22810 2572 0100     		.2byte	0x1
 22811 2574 57       		.byte	0x57
 22812 2575 00000000 		.4byte	0
 22813 2579 00000000 		.4byte	0
 22814              	.LLST50:
 22815 257d 9E010000 		.4byte	.LVL63
ARM GAS  /tmp/ccs3e2Sq.s 			page 402


 22816 2581 A0010000 		.4byte	.LVL64
 22817 2585 0300     		.2byte	0x3
 22818 2587 72       		.byte	0x72
 22819 2588 08       		.sleb128 8
 22820 2589 9F       		.byte	0x9f
 22821 258a 00000000 		.4byte	0
 22822 258e 00000000 		.4byte	0
 22823              	.LLST51:
 22824 2592 9E010000 		.4byte	.LVL63
 22825 2596 A4010000 		.4byte	.LVL65
 22826 259a 0100     		.2byte	0x1
 22827 259c 51       		.byte	0x51
 22828 259d 00000000 		.4byte	0
 22829 25a1 00000000 		.4byte	0
 22830              	.LLST52:
 22831 25a5 9E010000 		.4byte	.LVL63
 22832 25a9 A4010000 		.4byte	.LVL65
 22833 25ad 0100     		.2byte	0x1
 22834 25af 50       		.byte	0x50
 22835 25b0 00000000 		.4byte	0
 22836 25b4 00000000 		.4byte	0
 22837              	.LLST53:
 22838 25b8 AC010000 		.4byte	.LVL66
 22839 25bc B6020000 		.4byte	.LVL84
 22840 25c0 0100     		.2byte	0x1
 22841 25c2 50       		.byte	0x50
 22842 25c3 4A050000 		.4byte	.LVL129
 22843 25c7 E4050000 		.4byte	.LVL139
 22844 25cb 0100     		.2byte	0x1
 22845 25cd 50       		.byte	0x50
 22846 25ce F8050000 		.4byte	.LVL141
 22847 25d2 08060000 		.4byte	.LVL142
 22848 25d6 0100     		.2byte	0x1
 22849 25d8 50       		.byte	0x50
 22850 25d9 10060000 		.4byte	.LVL143
 22851 25dd 16060000 		.4byte	.LVL144
 22852 25e1 0100     		.2byte	0x1
 22853 25e3 50       		.byte	0x50
 22854 25e4 00000000 		.4byte	0
 22855 25e8 00000000 		.4byte	0
 22856              	.LLST54:
 22857 25ec 5A020000 		.4byte	.LVL74
 22858 25f0 82020000 		.4byte	.LVL78
 22859 25f4 0100     		.2byte	0x1
 22860 25f6 57       		.byte	0x57
 22861 25f7 B6050000 		.4byte	.LVL135
 22862 25fb BE050000 		.4byte	.LVL136
 22863 25ff 1400     		.2byte	0x14
 22864 2601 72       		.byte	0x72
 22865 2602 00       		.sleb128 0
 22866 2603 38       		.byte	0x38
 22867 2604 74       		.byte	0x74
 22868 2605 00       		.sleb128 0
 22869 2606 38       		.byte	0x38
 22870 2607 14       		.byte	0x14
 22871 2608 14       		.byte	0x14
 22872 2609 1B       		.byte	0x1b
ARM GAS  /tmp/ccs3e2Sq.s 			page 403


 22873 260a 1E       		.byte	0x1e
 22874 260b 1C       		.byte	0x1c
 22875 260c 37       		.byte	0x37
 22876 260d 1A       		.byte	0x1a
 22877 260e 0A       		.byte	0xa
 22878 260f FFFF     		.2byte	0xffff
 22879 2611 1A       		.byte	0x1a
 22880 2612 1C       		.byte	0x1c
 22881 2613 26       		.byte	0x26
 22882 2614 9F       		.byte	0x9f
 22883 2615 BE050000 		.4byte	.LVL136
 22884 2619 D4050000 		.4byte	.LVL137
 22885 261d 1600     		.2byte	0x16
 22886 261f 72       		.byte	0x72
 22887 2620 00       		.sleb128 0
 22888 2621 38       		.byte	0x38
 22889 2622 70       		.byte	0x70
 22890 2623 16       		.sleb128 22
 22891 2624 94       		.byte	0x94
 22892 2625 02       		.byte	0x2
 22893 2626 38       		.byte	0x38
 22894 2627 14       		.byte	0x14
 22895 2628 14       		.byte	0x14
 22896 2629 1B       		.byte	0x1b
 22897 262a 1E       		.byte	0x1e
 22898 262b 1C       		.byte	0x1c
 22899 262c 37       		.byte	0x37
 22900 262d 1A       		.byte	0x1a
 22901 262e 0A       		.byte	0xa
 22902 262f FFFF     		.2byte	0xffff
 22903 2631 1A       		.byte	0x1a
 22904 2632 1C       		.byte	0x1c
 22905 2633 26       		.byte	0x26
 22906 2634 9F       		.byte	0x9f
 22907 2635 DE050000 		.4byte	.LVL138
 22908 2639 E4050000 		.4byte	.LVL139
 22909 263d 0100     		.2byte	0x1
 22910 263f 57       		.byte	0x57
 22911 2640 10060000 		.4byte	.LVL143
 22912 2644 16060000 		.4byte	.LVL144
 22913 2648 0100     		.2byte	0x1
 22914 264a 57       		.byte	0x57
 22915 264b 00000000 		.4byte	0
 22916 264f 00000000 		.4byte	0
 22917              	.LLST55:
 22918 2653 5A020000 		.4byte	.LVL74
 22919 2657 9A020000 		.4byte	.LVL80
 22920 265b 0100     		.2byte	0x1
 22921 265d 54       		.byte	0x54
 22922 265e B6050000 		.4byte	.LVL135
 22923 2662 DE050000 		.4byte	.LVL138
 22924 2666 0300     		.2byte	0x3
 22925 2668 79       		.byte	0x79
 22926 2669 01       		.sleb128 1
 22927 266a 9F       		.byte	0x9f
 22928 266b DE050000 		.4byte	.LVL138
 22929 266f E4050000 		.4byte	.LVL139
ARM GAS  /tmp/ccs3e2Sq.s 			page 404


 22930 2673 0100     		.2byte	0x1
 22931 2675 54       		.byte	0x54
 22932 2676 10060000 		.4byte	.LVL143
 22933 267a 16060000 		.4byte	.LVL144
 22934 267e 0100     		.2byte	0x1
 22935 2680 54       		.byte	0x54
 22936 2681 00000000 		.4byte	0
 22937 2685 00000000 		.4byte	0
 22938              	.LLST56:
 22939 2689 5A020000 		.4byte	.LVL74
 22940 268d A0020000 		.4byte	.LVL81
 22941 2691 0100     		.2byte	0x1
 22942 2693 51       		.byte	0x51
 22943 2694 DE050000 		.4byte	.LVL138
 22944 2698 E4050000 		.4byte	.LVL139
 22945 269c 0100     		.2byte	0x1
 22946 269e 51       		.byte	0x51
 22947 269f 10060000 		.4byte	.LVL143
 22948 26a3 16060000 		.4byte	.LVL144
 22949 26a7 0100     		.2byte	0x1
 22950 26a9 51       		.byte	0x51
 22951 26aa 00000000 		.4byte	0
 22952 26ae 00000000 		.4byte	0
 22953              	.LLST57:
 22954 26b2 DE050000 		.4byte	.LVL138
 22955 26b6 E4050000 		.4byte	.LVL139
 22956 26ba 0100     		.2byte	0x1
 22957 26bc 50       		.byte	0x50
 22958 26bd 00000000 		.4byte	0
 22959 26c1 00000000 		.4byte	0
 22960              	.LLST58:
 22961 26c5 5C020000 		.4byte	.LVL75
 22962 26c9 82020000 		.4byte	.LVL78
 22963 26cd 0100     		.2byte	0x1
 22964 26cf 57       		.byte	0x57
 22965 26d0 DE050000 		.4byte	.LVL138
 22966 26d4 E4050000 		.4byte	.LVL139
 22967 26d8 0100     		.2byte	0x1
 22968 26da 57       		.byte	0x57
 22969 26db 10060000 		.4byte	.LVL143
 22970 26df 16060000 		.4byte	.LVL144
 22971 26e3 0100     		.2byte	0x1
 22972 26e5 57       		.byte	0x57
 22973 26e6 00000000 		.4byte	0
 22974 26ea 00000000 		.4byte	0
 22975              	.LLST59:
 22976 26ee 5C020000 		.4byte	.LVL75
 22977 26f2 9A020000 		.4byte	.LVL80
 22978 26f6 0100     		.2byte	0x1
 22979 26f8 54       		.byte	0x54
 22980 26f9 DE050000 		.4byte	.LVL138
 22981 26fd E4050000 		.4byte	.LVL139
 22982 2701 0100     		.2byte	0x1
 22983 2703 54       		.byte	0x54
 22984 2704 10060000 		.4byte	.LVL143
 22985 2708 16060000 		.4byte	.LVL144
 22986 270c 0100     		.2byte	0x1
ARM GAS  /tmp/ccs3e2Sq.s 			page 405


 22987 270e 54       		.byte	0x54
 22988 270f 00000000 		.4byte	0
 22989 2713 00000000 		.4byte	0
 22990              	.LLST60:
 22991 2717 5C020000 		.4byte	.LVL75
 22992 271b A0020000 		.4byte	.LVL81
 22993 271f 0100     		.2byte	0x1
 22994 2721 51       		.byte	0x51
 22995 2722 DE050000 		.4byte	.LVL138
 22996 2726 E4050000 		.4byte	.LVL139
 22997 272a 0100     		.2byte	0x1
 22998 272c 51       		.byte	0x51
 22999 272d 10060000 		.4byte	.LVL143
 23000 2731 16060000 		.4byte	.LVL144
 23001 2735 0100     		.2byte	0x1
 23002 2737 51       		.byte	0x51
 23003 2738 00000000 		.4byte	0
 23004 273c 00000000 		.4byte	0
 23005              	.LLST61:
 23006 2740 5C020000 		.4byte	.LVL75
 23007 2744 AC020000 		.4byte	.LVL82
 23008 2748 0100     		.2byte	0x1
 23009 274a 50       		.byte	0x50
 23010 274b DE050000 		.4byte	.LVL138
 23011 274f E4050000 		.4byte	.LVL139
 23012 2753 0100     		.2byte	0x1
 23013 2755 50       		.byte	0x50
 23014 2756 10060000 		.4byte	.LVL143
 23015 275a 16060000 		.4byte	.LVL144
 23016 275e 0100     		.2byte	0x1
 23017 2760 50       		.byte	0x50
 23018 2761 00000000 		.4byte	0
 23019 2765 00000000 		.4byte	0
 23020              	.LLST62:
 23021 2769 72020000 		.4byte	.LVL77
 23022 276d 96020000 		.4byte	.LVL79
 23023 2771 0100     		.2byte	0x1
 23024 2773 5E       		.byte	0x5e
 23025 2774 10060000 		.4byte	.LVL143
 23026 2778 16060000 		.4byte	.LVL144
 23027 277c 0100     		.2byte	0x1
 23028 277e 5E       		.byte	0x5e
 23029 277f 00000000 		.4byte	0
 23030 2783 00000000 		.4byte	0
 23031              	.LLST63:
 23032 2787 44020000 		.4byte	.LVL72
 23033 278b 48020000 		.4byte	.LVL73
 23034 278f 0100     		.2byte	0x1
 23035 2791 58       		.byte	0x58
 23036 2792 4A050000 		.4byte	.LVL129
 23037 2796 94050000 		.4byte	.LVL133
 23038 279a 0100     		.2byte	0x1
 23039 279c 58       		.byte	0x58
 23040 279d 94050000 		.4byte	.LVL133
 23041 27a1 A6050000 		.4byte	.LVL134
 23042 27a5 0100     		.2byte	0x1
 23043 27a7 59       		.byte	0x59
ARM GAS  /tmp/ccs3e2Sq.s 			page 406


 23044 27a8 F8050000 		.4byte	.LVL141
 23045 27ac 08060000 		.4byte	.LVL142
 23046 27b0 0100     		.2byte	0x1
 23047 27b2 58       		.byte	0x58
 23048 27b3 00000000 		.4byte	0
 23049 27b7 00000000 		.4byte	0
 23050              	.LLST64:
 23051 27bb 44020000 		.4byte	.LVL72
 23052 27bf 48020000 		.4byte	.LVL73
 23053 27c3 0200     		.2byte	0x2
 23054 27c5 70       		.byte	0x70
 23055 27c6 14       		.sleb128 20
 23056 27c7 4A050000 		.4byte	.LVL129
 23057 27cb 7A050000 		.4byte	.LVL131
 23058 27cf 0200     		.2byte	0x2
 23059 27d1 70       		.byte	0x70
 23060 27d2 14       		.sleb128 20
 23061 27d3 F8050000 		.4byte	.LVL141
 23062 27d7 08060000 		.4byte	.LVL142
 23063 27db 0200     		.2byte	0x2
 23064 27dd 70       		.byte	0x70
 23065 27de 14       		.sleb128 20
 23066 27df 00000000 		.4byte	0
 23067 27e3 00000000 		.4byte	0
 23068              	.LLST65:
 23069 27e7 4A050000 		.4byte	.LVL129
 23070 27eb 94050000 		.4byte	.LVL133
 23071 27ef 0100     		.2byte	0x1
 23072 27f1 58       		.byte	0x58
 23073 27f2 94050000 		.4byte	.LVL133
 23074 27f6 E4050000 		.4byte	.LVL139
 23075 27fa 0100     		.2byte	0x1
 23076 27fc 59       		.byte	0x59
 23077 27fd F8050000 		.4byte	.LVL141
 23078 2801 08060000 		.4byte	.LVL142
 23079 2805 0100     		.2byte	0x1
 23080 2807 58       		.byte	0x58
 23081 2808 00000000 		.4byte	0
 23082 280c 00000000 		.4byte	0
 23083              	.LLST66:
 23084 2810 4A050000 		.4byte	.LVL129
 23085 2814 7A050000 		.4byte	.LVL131
 23086 2818 0200     		.2byte	0x2
 23087 281a 70       		.byte	0x70
 23088 281b 14       		.sleb128 20
 23089 281c F8050000 		.4byte	.LVL141
 23090 2820 08060000 		.4byte	.LVL142
 23091 2824 0200     		.2byte	0x2
 23092 2826 70       		.byte	0x70
 23093 2827 14       		.sleb128 20
 23094 2828 00000000 		.4byte	0
 23095 282c 00000000 		.4byte	0
 23096              	.LLST67:
 23097 2830 4A050000 		.4byte	.LVL129
 23098 2834 E4050000 		.4byte	.LVL139
 23099 2838 0100     		.2byte	0x1
 23100 283a 50       		.byte	0x50
ARM GAS  /tmp/ccs3e2Sq.s 			page 407


 23101 283b F8050000 		.4byte	.LVL141
 23102 283f 08060000 		.4byte	.LVL142
 23103 2843 0100     		.2byte	0x1
 23104 2845 50       		.byte	0x50
 23105 2846 00000000 		.4byte	0
 23106 284a 00000000 		.4byte	0
 23107              	.LLST68:
 23108 284e 66050000 		.4byte	.LVL130
 23109 2852 8C050000 		.4byte	.LVL132
 23110 2856 0100     		.2byte	0x1
 23111 2858 5E       		.byte	0x5e
 23112 2859 F8050000 		.4byte	.LVL141
 23113 285d 08060000 		.4byte	.LVL142
 23114 2861 0100     		.2byte	0x1
 23115 2863 5E       		.byte	0x5e
 23116 2864 00000000 		.4byte	0
 23117 2868 00000000 		.4byte	0
 23118              	.LLST69:
 23119 286c CE020000 		.4byte	.LVL88
 23120 2870 DC020000 		.4byte	.LVL90
 23121 2874 0100     		.2byte	0x1
 23122 2876 52       		.byte	0x52
 23123 2877 00000000 		.4byte	0
 23124 287b 00000000 		.4byte	0
 23125              	.LLST70:
 23126 287f CE020000 		.4byte	.LVL88
 23127 2883 DC020000 		.4byte	.LVL90
 23128 2887 0100     		.2byte	0x1
 23129 2889 51       		.byte	0x51
 23130 288a 00000000 		.4byte	0
 23131 288e 00000000 		.4byte	0
 23132              	.LLST71:
 23133 2892 CE020000 		.4byte	.LVL88
 23134 2896 DC020000 		.4byte	.LVL90
 23135 289a 0100     		.2byte	0x1
 23136 289c 50       		.byte	0x50
 23137 289d 00000000 		.4byte	0
 23138 28a1 00000000 		.4byte	0
 23139              	.LLST72:
 23140 28a5 E4020000 		.4byte	.LVL91
 23141 28a9 FA030000 		.4byte	.LVL107
 23142 28ad 0100     		.2byte	0x1
 23143 28af 50       		.byte	0x50
 23144 28b0 AC040000 		.4byte	.LVL117
 23145 28b4 4A050000 		.4byte	.LVL129
 23146 28b8 0100     		.2byte	0x1
 23147 28ba 50       		.byte	0x50
 23148 28bb F0050000 		.4byte	.LVL140
 23149 28bf F8050000 		.4byte	.LVL141
 23150 28c3 0100     		.2byte	0x1
 23151 28c5 50       		.byte	0x50
 23152 28c6 16060000 		.4byte	.LVL144
 23153 28ca 1C060000 		.4byte	.LFE333
 23154 28ce 0100     		.2byte	0x1
 23155 28d0 50       		.byte	0x50
 23156 28d1 00000000 		.4byte	0
 23157 28d5 00000000 		.4byte	0
ARM GAS  /tmp/ccs3e2Sq.s 			page 408


 23158              	.LLST73:
 23159 28d9 9A030000 		.4byte	.LVL99
 23160 28dd C6030000 		.4byte	.LVL102
 23161 28e1 0100     		.2byte	0x1
 23162 28e3 57       		.byte	0x57
 23163 28e4 1C050000 		.4byte	.LVL123
 23164 28e8 24050000 		.4byte	.LVL124
 23165 28ec 1400     		.2byte	0x14
 23166 28ee 7E       		.byte	0x7e
 23167 28ef 00       		.sleb128 0
 23168 28f0 38       		.byte	0x38
 23169 28f1 75       		.byte	0x75
 23170 28f2 00       		.sleb128 0
 23171 28f3 38       		.byte	0x38
 23172 28f4 14       		.byte	0x14
 23173 28f5 14       		.byte	0x14
 23174 28f6 1B       		.byte	0x1b
 23175 28f7 1E       		.byte	0x1e
 23176 28f8 1C       		.byte	0x1c
 23177 28f9 37       		.byte	0x37
 23178 28fa 1A       		.byte	0x1a
 23179 28fb 0A       		.byte	0xa
 23180 28fc FFFF     		.2byte	0xffff
 23181 28fe 1A       		.byte	0x1a
 23182 28ff 1C       		.byte	0x1c
 23183 2900 26       		.byte	0x26
 23184 2901 9F       		.byte	0x9f
 23185 2902 24050000 		.4byte	.LVL124
 23186 2906 3A050000 		.4byte	.LVL125
 23187 290a 1600     		.2byte	0x16
 23188 290c 7E       		.byte	0x7e
 23189 290d 00       		.sleb128 0
 23190 290e 38       		.byte	0x38
 23191 290f 70       		.byte	0x70
 23192 2910 16       		.sleb128 22
 23193 2911 94       		.byte	0x94
 23194 2912 02       		.byte	0x2
 23195 2913 38       		.byte	0x38
 23196 2914 14       		.byte	0x14
 23197 2915 14       		.byte	0x14
 23198 2916 1B       		.byte	0x1b
 23199 2917 1E       		.byte	0x1e
 23200 2918 1C       		.byte	0x1c
 23201 2919 37       		.byte	0x37
 23202 291a 1A       		.byte	0x1a
 23203 291b 0A       		.byte	0xa
 23204 291c FFFF     		.2byte	0xffff
 23205 291e 1A       		.byte	0x1a
 23206 291f 1C       		.byte	0x1c
 23207 2920 26       		.byte	0x26
 23208 2921 9F       		.byte	0x9f
 23209 2922 44050000 		.4byte	.LVL128
 23210 2926 4A050000 		.4byte	.LVL129
 23211 292a 0100     		.2byte	0x1
 23212 292c 57       		.byte	0x57
 23213 292d 16060000 		.4byte	.LVL144
 23214 2931 1C060000 		.4byte	.LFE333
ARM GAS  /tmp/ccs3e2Sq.s 			page 409


 23215 2935 0100     		.2byte	0x1
 23216 2937 57       		.byte	0x57
 23217 2938 00000000 		.4byte	0
 23218 293c 00000000 		.4byte	0
 23219              	.LLST74:
 23220 2940 9A030000 		.4byte	.LVL99
 23221 2944 E2030000 		.4byte	.LVL103
 23222 2948 0100     		.2byte	0x1
 23223 294a 52       		.byte	0x52
 23224 294b 1C050000 		.4byte	.LVL123
 23225 294f 3C050000 		.4byte	.LVL126
 23226 2953 0300     		.2byte	0x3
 23227 2955 72       		.byte	0x72
 23228 2956 01       		.sleb128 1
 23229 2957 9F       		.byte	0x9f
 23230 2958 3C050000 		.4byte	.LVL126
 23231 295c 40050000 		.4byte	.LVL127
 23232 2960 0300     		.2byte	0x3
 23233 2962 72       		.byte	0x72
 23234 2963 00       		.sleb128 0
 23235 2964 9F       		.byte	0x9f
 23236 2965 44050000 		.4byte	.LVL128
 23237 2969 4A050000 		.4byte	.LVL129
 23238 296d 0100     		.2byte	0x1
 23239 296f 52       		.byte	0x52
 23240 2970 16060000 		.4byte	.LVL144
 23241 2974 1C060000 		.4byte	.LFE333
 23242 2978 0100     		.2byte	0x1
 23243 297a 52       		.byte	0x52
 23244 297b 00000000 		.4byte	0
 23245 297f 00000000 		.4byte	0
 23246              	.LLST75:
 23247 2983 9A030000 		.4byte	.LVL99
 23248 2987 E4030000 		.4byte	.LVL104
 23249 298b 0100     		.2byte	0x1
 23250 298d 51       		.byte	0x51
 23251 298e 44050000 		.4byte	.LVL128
 23252 2992 4A050000 		.4byte	.LVL129
 23253 2996 0100     		.2byte	0x1
 23254 2998 51       		.byte	0x51
 23255 2999 16060000 		.4byte	.LVL144
 23256 299d 1C060000 		.4byte	.LFE333
 23257 29a1 0100     		.2byte	0x1
 23258 29a3 51       		.byte	0x51
 23259 29a4 00000000 		.4byte	0
 23260 29a8 00000000 		.4byte	0
 23261              	.LLST76:
 23262 29ac 44050000 		.4byte	.LVL128
 23263 29b0 4A050000 		.4byte	.LVL129
 23264 29b4 0100     		.2byte	0x1
 23265 29b6 50       		.byte	0x50
 23266 29b7 00000000 		.4byte	0
 23267 29bb 00000000 		.4byte	0
 23268              	.LLST77:
 23269 29bf 9C030000 		.4byte	.LVL100
 23270 29c3 C6030000 		.4byte	.LVL102
 23271 29c7 0100     		.2byte	0x1
ARM GAS  /tmp/ccs3e2Sq.s 			page 410


 23272 29c9 57       		.byte	0x57
 23273 29ca 44050000 		.4byte	.LVL128
 23274 29ce 4A050000 		.4byte	.LVL129
 23275 29d2 0100     		.2byte	0x1
 23276 29d4 57       		.byte	0x57
 23277 29d5 16060000 		.4byte	.LVL144
 23278 29d9 1C060000 		.4byte	.LFE333
 23279 29dd 0100     		.2byte	0x1
 23280 29df 57       		.byte	0x57
 23281 29e0 00000000 		.4byte	0
 23282 29e4 00000000 		.4byte	0
 23283              	.LLST78:
 23284 29e8 9C030000 		.4byte	.LVL100
 23285 29ec E2030000 		.4byte	.LVL103
 23286 29f0 0100     		.2byte	0x1
 23287 29f2 52       		.byte	0x52
 23288 29f3 44050000 		.4byte	.LVL128
 23289 29f7 4A050000 		.4byte	.LVL129
 23290 29fb 0100     		.2byte	0x1
 23291 29fd 52       		.byte	0x52
 23292 29fe 16060000 		.4byte	.LVL144
 23293 2a02 1C060000 		.4byte	.LFE333
 23294 2a06 0100     		.2byte	0x1
 23295 2a08 52       		.byte	0x52
 23296 2a09 00000000 		.4byte	0
 23297 2a0d 00000000 		.4byte	0
 23298              	.LLST79:
 23299 2a11 9C030000 		.4byte	.LVL100
 23300 2a15 E4030000 		.4byte	.LVL104
 23301 2a19 0100     		.2byte	0x1
 23302 2a1b 51       		.byte	0x51
 23303 2a1c 44050000 		.4byte	.LVL128
 23304 2a20 4A050000 		.4byte	.LVL129
 23305 2a24 0100     		.2byte	0x1
 23306 2a26 51       		.byte	0x51
 23307 2a27 16060000 		.4byte	.LVL144
 23308 2a2b 1C060000 		.4byte	.LFE333
 23309 2a2f 0100     		.2byte	0x1
 23310 2a31 51       		.byte	0x51
 23311 2a32 00000000 		.4byte	0
 23312 2a36 00000000 		.4byte	0
 23313              	.LLST80:
 23314 2a3a 9C030000 		.4byte	.LVL100
 23315 2a3e F0030000 		.4byte	.LVL105
 23316 2a42 0100     		.2byte	0x1
 23317 2a44 50       		.byte	0x50
 23318 2a45 44050000 		.4byte	.LVL128
 23319 2a49 4A050000 		.4byte	.LVL129
 23320 2a4d 0100     		.2byte	0x1
 23321 2a4f 50       		.byte	0x50
 23322 2a50 16060000 		.4byte	.LVL144
 23323 2a54 1C060000 		.4byte	.LFE333
 23324 2a58 0100     		.2byte	0x1
 23325 2a5a 50       		.byte	0x50
 23326 2a5b 00000000 		.4byte	0
 23327 2a5f 00000000 		.4byte	0
 23328              	.LLST81:
ARM GAS  /tmp/ccs3e2Sq.s 			page 411


 23329 2a63 B4030000 		.4byte	.LVL101
 23330 2a67 F0030000 		.4byte	.LVL105
 23331 2a6b 0100     		.2byte	0x1
 23332 2a6d 58       		.byte	0x58
 23333 2a6e 16060000 		.4byte	.LVL144
 23334 2a72 1C060000 		.4byte	.LFE333
 23335 2a76 0100     		.2byte	0x1
 23336 2a78 58       		.byte	0x58
 23337 2a79 00000000 		.4byte	0
 23338 2a7d 00000000 		.4byte	0
 23339              	.LLST82:
 23340 2a81 7E030000 		.4byte	.LVL97
 23341 2a85 82030000 		.4byte	.LVL98
 23342 2a89 0100     		.2byte	0x1
 23343 2a8b 58       		.byte	0x58
 23344 2a8c AC040000 		.4byte	.LVL117
 23345 2a90 FA040000 		.4byte	.LVL121
 23346 2a94 0100     		.2byte	0x1
 23347 2a96 58       		.byte	0x58
 23348 2a97 FA040000 		.4byte	.LVL121
 23349 2a9b 0C050000 		.4byte	.LVL122
 23350 2a9f 0100     		.2byte	0x1
 23351 2aa1 52       		.byte	0x52
 23352 2aa2 F0050000 		.4byte	.LVL140
 23353 2aa6 F8050000 		.4byte	.LVL141
 23354 2aaa 0100     		.2byte	0x1
 23355 2aac 58       		.byte	0x58
 23356 2aad 00000000 		.4byte	0
 23357 2ab1 00000000 		.4byte	0
 23358              	.LLST83:
 23359 2ab5 7E030000 		.4byte	.LVL97
 23360 2ab9 82030000 		.4byte	.LVL98
 23361 2abd 0200     		.2byte	0x2
 23362 2abf 70       		.byte	0x70
 23363 2ac0 14       		.sleb128 20
 23364 2ac1 AC040000 		.4byte	.LVL117
 23365 2ac5 E0040000 		.4byte	.LVL119
 23366 2ac9 0200     		.2byte	0x2
 23367 2acb 70       		.byte	0x70
 23368 2acc 14       		.sleb128 20
 23369 2acd F0050000 		.4byte	.LVL140
 23370 2ad1 F8050000 		.4byte	.LVL141
 23371 2ad5 0200     		.2byte	0x2
 23372 2ad7 70       		.byte	0x70
 23373 2ad8 14       		.sleb128 20
 23374 2ad9 00000000 		.4byte	0
 23375 2add 00000000 		.4byte	0
 23376              	.LLST84:
 23377 2ae1 AC040000 		.4byte	.LVL117
 23378 2ae5 FA040000 		.4byte	.LVL121
 23379 2ae9 0100     		.2byte	0x1
 23380 2aeb 58       		.byte	0x58
 23381 2aec FA040000 		.4byte	.LVL121
 23382 2af0 3C050000 		.4byte	.LVL126
 23383 2af4 0100     		.2byte	0x1
 23384 2af6 52       		.byte	0x52
 23385 2af7 3C050000 		.4byte	.LVL126
ARM GAS  /tmp/ccs3e2Sq.s 			page 412


 23386 2afb 40050000 		.4byte	.LVL127
 23387 2aff 0300     		.2byte	0x3
 23388 2b01 72       		.byte	0x72
 23389 2b02 7F       		.sleb128 -1
 23390 2b03 9F       		.byte	0x9f
 23391 2b04 F0050000 		.4byte	.LVL140
 23392 2b08 F8050000 		.4byte	.LVL141
 23393 2b0c 0100     		.2byte	0x1
 23394 2b0e 58       		.byte	0x58
 23395 2b0f 00000000 		.4byte	0
 23396 2b13 00000000 		.4byte	0
 23397              	.LLST85:
 23398 2b17 AC040000 		.4byte	.LVL117
 23399 2b1b E0040000 		.4byte	.LVL119
 23400 2b1f 0200     		.2byte	0x2
 23401 2b21 70       		.byte	0x70
 23402 2b22 14       		.sleb128 20
 23403 2b23 F0050000 		.4byte	.LVL140
 23404 2b27 F8050000 		.4byte	.LVL141
 23405 2b2b 0200     		.2byte	0x2
 23406 2b2d 70       		.byte	0x70
 23407 2b2e 14       		.sleb128 20
 23408 2b2f 00000000 		.4byte	0
 23409 2b33 00000000 		.4byte	0
 23410              	.LLST86:
 23411 2b37 AC040000 		.4byte	.LVL117
 23412 2b3b 4A050000 		.4byte	.LVL129
 23413 2b3f 0100     		.2byte	0x1
 23414 2b41 50       		.byte	0x50
 23415 2b42 F0050000 		.4byte	.LVL140
 23416 2b46 F8050000 		.4byte	.LVL141
 23417 2b4a 0100     		.2byte	0x1
 23418 2b4c 50       		.byte	0x50
 23419 2b4d 00000000 		.4byte	0
 23420 2b51 00000000 		.4byte	0
 23421              	.LLST87:
 23422 2b55 CA040000 		.4byte	.LVL118
 23423 2b59 F2040000 		.4byte	.LVL120
 23424 2b5d 0100     		.2byte	0x1
 23425 2b5f 59       		.byte	0x59
 23426 2b60 F0050000 		.4byte	.LVL140
 23427 2b64 F8050000 		.4byte	.LVL141
 23428 2b68 0100     		.2byte	0x1
 23429 2b6a 59       		.byte	0x59
 23430 2b6b 00000000 		.4byte	0
 23431 2b6f 00000000 		.4byte	0
 23432              	.LLST237:
 23433 2b73 00000000 		.4byte	.LVL450
 23434 2b77 0E000000 		.4byte	.LVL451
 23435 2b7b 0200     		.2byte	0x2
 23436 2b7d 30       		.byte	0x30
 23437 2b7e 9F       		.byte	0x9f
 23438 2b7f 0E000000 		.4byte	.LVL451
 23439 2b83 62000000 		.4byte	.LVL461
 23440 2b87 0400     		.2byte	0x4
 23441 2b89 77       		.byte	0x77
 23442 2b8a D000     		.sleb128 80
ARM GAS  /tmp/ccs3e2Sq.s 			page 413


 23443 2b8c 9F       		.byte	0x9f
 23444 2b8d 62000000 		.4byte	.LVL461
 23445 2b91 64000000 		.4byte	.LVL462
 23446 2b95 0400     		.2byte	0x4
 23447 2b97 77       		.byte	0x77
 23448 2b98 D100     		.sleb128 81
 23449 2b9a 9F       		.byte	0x9f
 23450 2b9b 00000000 		.4byte	0
 23451 2b9f 00000000 		.4byte	0
 23452              	.LLST238:
 23453 2ba3 22000000 		.4byte	.LVL452
 23454 2ba7 27000000 		.4byte	.LVL453-1
 23455 2bab 0100     		.2byte	0x1
 23456 2bad 57       		.byte	0x57
 23457 2bae 00000000 		.4byte	0
 23458 2bb2 00000000 		.4byte	0
 23459              	.LLST239:
 23460 2bb6 34000000 		.4byte	.LVL454
 23461 2bba 37000000 		.4byte	.LVL455-1
 23462 2bbe 0100     		.2byte	0x1
 23463 2bc0 55       		.byte	0x55
 23464 2bc1 00000000 		.4byte	0
 23465 2bc5 00000000 		.4byte	0
 23466              	.LLST240:
 23467 2bc9 44000000 		.4byte	.LVL456
 23468 2bcd 49000000 		.4byte	.LVL457-1
 23469 2bd1 0100     		.2byte	0x1
 23470 2bd3 53       		.byte	0x53
 23471 2bd4 00000000 		.4byte	0
 23472 2bd8 00000000 		.4byte	0
 23473              	.LLST241:
 23474 2bdc 5A000000 		.4byte	.LVL459
 23475 2be0 5D000000 		.4byte	.LVL460-1
 23476 2be4 0200     		.2byte	0x2
 23477 2be6 72       		.byte	0x72
 23478 2be7 00       		.sleb128 0
 23479 2be8 00000000 		.4byte	0
 23480 2bec 00000000 		.4byte	0
 23481              		.section	.debug_aranges,"",%progbits
 23482 0000 84000000 		.4byte	0x84
 23483 0004 0200     		.2byte	0x2
 23484 0006 00000000 		.4byte	.Ldebug_info0
 23485 000a 04       		.byte	0x4
 23486 000b 00       		.byte	0
 23487 000c 0000     		.2byte	0
 23488 000e 0000     		.2byte	0
 23489 0010 00000000 		.4byte	.LFB329
 23490 0014 3E000000 		.4byte	.LFE329-.LFB329
 23491 0018 00000000 		.4byte	.LFB331
 23492 001c 06000000 		.4byte	.LFE331-.LFB331
 23493 0020 00000000 		.4byte	.LFB332
 23494 0024 84010000 		.4byte	.LFE332-.LFB332
 23495 0028 00000000 		.4byte	.LFB333
 23496 002c 1C060000 		.4byte	.LFE333-.LFB333
 23497 0030 00000000 		.4byte	.LFB335
 23498 0034 F2070000 		.4byte	.LFE335-.LFB335
 23499 0038 00000000 		.4byte	.LFB336
ARM GAS  /tmp/ccs3e2Sq.s 			page 414


 23500 003c A2020000 		.4byte	.LFE336-.LFB336
 23501 0040 00000000 		.4byte	.LFB337
 23502 0044 08030000 		.4byte	.LFE337-.LFB337
 23503 0048 00000000 		.4byte	.LFB338
 23504 004c 0A000000 		.4byte	.LFE338-.LFB338
 23505 0050 00000000 		.4byte	.LFB339
 23506 0054 04000000 		.4byte	.LFE339-.LFB339
 23507 0058 00000000 		.4byte	.LFB340
 23508 005c 6C010000 		.4byte	.LFE340-.LFB340
 23509 0060 00000000 		.4byte	.LFB341
 23510 0064 4C000000 		.4byte	.LFE341-.LFB341
 23511 0068 00000000 		.4byte	.LFB342
 23512 006c 4C000000 		.4byte	.LFE342-.LFB342
 23513 0070 00000000 		.4byte	.LFB343
 23514 0074 78000000 		.4byte	.LFE343-.LFB343
 23515 0078 00000000 		.4byte	.LFB344
 23516 007c 9C020000 		.4byte	.LFE344-.LFB344
 23517 0080 00000000 		.4byte	0
 23518 0084 00000000 		.4byte	0
 23519              		.section	.debug_ranges,"",%progbits
 23520              	.Ldebug_ranges0:
 23521 0000 84000000 		.4byte	.LBB132
 23522 0004 86000000 		.4byte	.LBE132
 23523 0008 8A000000 		.4byte	.LBB144
 23524 000c 8C000000 		.4byte	.LBE144
 23525 0010 F6000000 		.4byte	.LBB164
 23526 0014 0C010000 		.4byte	.LBE164
 23527 0018 10010000 		.4byte	.LBB165
 23528 001c 40010000 		.4byte	.LBE165
 23529 0020 76010000 		.4byte	.LBB170
 23530 0024 7E010000 		.4byte	.LBE170
 23531 0028 00000000 		.4byte	0
 23532 002c 00000000 		.4byte	0
 23533 0030 9A000000 		.4byte	.LBB145
 23534 0034 9C000000 		.4byte	.LBE145
 23535 0038 9E000000 		.4byte	.LBB163
 23536 003c E8000000 		.4byte	.LBE163
 23537 0040 4E010000 		.4byte	.LBB166
 23538 0044 52010000 		.4byte	.LBE166
 23539 0048 60010000 		.4byte	.LBB167
 23540 004c 62010000 		.4byte	.LBE167
 23541 0050 68010000 		.4byte	.LBB168
 23542 0054 6A010000 		.4byte	.LBE168
 23543 0058 72010000 		.4byte	.LBB169
 23544 005c 76010000 		.4byte	.LBE169
 23545 0060 7E010000 		.4byte	.LBB171
 23546 0064 84010000 		.4byte	.LBE171
 23547 0068 00000000 		.4byte	0
 23548 006c 00000000 		.4byte	0
 23549 0070 A0000000 		.4byte	.LBB147
 23550 0074 E8000000 		.4byte	.LBE147
 23551 0078 60010000 		.4byte	.LBB153
 23552 007c 62010000 		.4byte	.LBE153
 23553 0080 68010000 		.4byte	.LBB154
 23554 0084 6A010000 		.4byte	.LBE154
 23555 0088 72010000 		.4byte	.LBB155
 23556 008c 76010000 		.4byte	.LBE155
ARM GAS  /tmp/ccs3e2Sq.s 			page 415


 23557 0090 7E010000 		.4byte	.LBB156
 23558 0094 84010000 		.4byte	.LBE156
 23559 0098 00000000 		.4byte	0
 23560 009c 00000000 		.4byte	0
 23561 00a0 32000000 		.4byte	.LBB214
 23562 00a4 34000000 		.4byte	.LBE214
 23563 00a8 3C000000 		.4byte	.LBB217
 23564 00ac 3E000000 		.4byte	.LBE217
 23565 00b0 00000000 		.4byte	0
 23566 00b4 00000000 		.4byte	0
 23567 00b8 42000000 		.4byte	.LBB218
 23568 00bc 8A000000 		.4byte	.LBE218
 23569 00c0 8E000000 		.4byte	.LBB266
 23570 00c4 90000000 		.4byte	.LBE266
 23571 00c8 96000000 		.4byte	.LBB267
 23572 00cc 7C010000 		.4byte	.LBE267
 23573 00d0 7E010000 		.4byte	.LBB268
 23574 00d4 80010000 		.4byte	.LBE268
 23575 00d8 04040000 		.4byte	.LBB383
 23576 00dc AC040000 		.4byte	.LBE383
 23577 00e0 E4050000 		.4byte	.LBB386
 23578 00e4 F0050000 		.4byte	.LBE386
 23579 00e8 08060000 		.4byte	.LBB389
 23580 00ec 10060000 		.4byte	.LBE389
 23581 00f0 00000000 		.4byte	0
 23582 00f4 00000000 		.4byte	0
 23583 00f8 E4000000 		.4byte	.LBB220
 23584 00fc E8000000 		.4byte	.LBE220
 23585 0100 EE000000 		.4byte	.LBB232
 23586 0104 F2000000 		.4byte	.LBE232
 23587 0108 04040000 		.4byte	.LBB252
 23588 010c 1C040000 		.4byte	.LBE252
 23589 0110 22040000 		.4byte	.LBB253
 23590 0114 64040000 		.4byte	.LBE253
 23591 0118 E4050000 		.4byte	.LBB258
 23592 011c F0050000 		.4byte	.LBE258
 23593 0120 00000000 		.4byte	0
 23594 0124 00000000 		.4byte	0
 23595 0128 0E010000 		.4byte	.LBB233
 23596 012c 12010000 		.4byte	.LBE233
 23597 0130 14010000 		.4byte	.LBB251
 23598 0134 76010000 		.4byte	.LBE251
 23599 0138 74040000 		.4byte	.LBB254
 23600 013c 7A040000 		.4byte	.LBE254
 23601 0140 86040000 		.4byte	.LBB255
 23602 0144 88040000 		.4byte	.LBE255
 23603 0148 96040000 		.4byte	.LBB256
 23604 014c 98040000 		.4byte	.LBE256
 23605 0150 A6040000 		.4byte	.LBB257
 23606 0154 AC040000 		.4byte	.LBE257
 23607 0158 08060000 		.4byte	.LBB259
 23608 015c 10060000 		.4byte	.LBE259
 23609 0160 00000000 		.4byte	0
 23610 0164 00000000 		.4byte	0
 23611 0168 16010000 		.4byte	.LBB235
 23612 016c 76010000 		.4byte	.LBE235
 23613 0170 86040000 		.4byte	.LBB241
ARM GAS  /tmp/ccs3e2Sq.s 			page 416


 23614 0174 88040000 		.4byte	.LBE241
 23615 0178 96040000 		.4byte	.LBB242
 23616 017c 98040000 		.4byte	.LBE242
 23617 0180 A6040000 		.4byte	.LBB243
 23618 0184 AC040000 		.4byte	.LBE243
 23619 0188 08060000 		.4byte	.LBB244
 23620 018c 10060000 		.4byte	.LBE244
 23621 0190 00000000 		.4byte	0
 23622 0194 00000000 		.4byte	0
 23623 0198 A8010000 		.4byte	.LBB271
 23624 019c E4010000 		.4byte	.LBE271
 23625 01a0 EA010000 		.4byte	.LBB323
 23626 01a4 EC010000 		.4byte	.LBE323
 23627 01a8 F2010000 		.4byte	.LBB324
 23628 01ac B2020000 		.4byte	.LBE324
 23629 01b0 B4020000 		.4byte	.LBB325
 23630 01b4 B6020000 		.4byte	.LBE325
 23631 01b8 4A050000 		.4byte	.LBB385
 23632 01bc E4050000 		.4byte	.LBE385
 23633 01c0 F8050000 		.4byte	.LBB388
 23634 01c4 08060000 		.4byte	.LBE388
 23635 01c8 10060000 		.4byte	.LBB390
 23636 01cc 16060000 		.4byte	.LBE390
 23637 01d0 00000000 		.4byte	0
 23638 01d4 00000000 		.4byte	0
 23639 01d8 A8010000 		.4byte	.LBB273
 23640 01dc AC010000 		.4byte	.LBE273
 23641 01e0 56020000 		.4byte	.LBB307
 23642 01e4 58020000 		.4byte	.LBE307
 23643 01e8 5A020000 		.4byte	.LBB308
 23644 01ec AC020000 		.4byte	.LBE308
 23645 01f0 B6050000 		.4byte	.LBB311
 23646 01f4 BC050000 		.4byte	.LBE311
 23647 01f8 CA050000 		.4byte	.LBB312
 23648 01fc CE050000 		.4byte	.LBE312
 23649 0200 D4050000 		.4byte	.LBB313
 23650 0204 D6050000 		.4byte	.LBE313
 23651 0208 DE050000 		.4byte	.LBB314
 23652 020c E4050000 		.4byte	.LBE314
 23653 0210 10060000 		.4byte	.LBB316
 23654 0214 16060000 		.4byte	.LBE316
 23655 0218 00000000 		.4byte	0
 23656 021c 00000000 		.4byte	0
 23657 0220 A8010000 		.4byte	.LBB275
 23658 0224 AC010000 		.4byte	.LBE275
 23659 0228 5C020000 		.4byte	.LBB282
 23660 022c AC020000 		.4byte	.LBE282
 23661 0230 CA050000 		.4byte	.LBB283
 23662 0234 CE050000 		.4byte	.LBE283
 23663 0238 D4050000 		.4byte	.LBB284
 23664 023c D6050000 		.4byte	.LBE284
 23665 0240 DE050000 		.4byte	.LBB285
 23666 0244 E4050000 		.4byte	.LBE285
 23667 0248 10060000 		.4byte	.LBB286
 23668 024c 16060000 		.4byte	.LBE286
 23669 0250 00000000 		.4byte	0
 23670 0254 00000000 		.4byte	0
ARM GAS  /tmp/ccs3e2Sq.s 			page 417


 23671 0258 3C020000 		.4byte	.LBB294
 23672 025c 40020000 		.4byte	.LBE294
 23673 0260 44020000 		.4byte	.LBB306
 23674 0264 48020000 		.4byte	.LBE306
 23675 0268 4A050000 		.4byte	.LBB309
 23676 026c 68050000 		.4byte	.LBE309
 23677 0270 6C050000 		.4byte	.LBB310
 23678 0274 A6050000 		.4byte	.LBE310
 23679 0278 F8050000 		.4byte	.LBB315
 23680 027c 08060000 		.4byte	.LBE315
 23681 0280 00000000 		.4byte	0
 23682 0284 00000000 		.4byte	0
 23683 0288 DE020000 		.4byte	.LBB328
 23684 028c 1E030000 		.4byte	.LBE328
 23685 0290 22030000 		.4byte	.LBB380
 23686 0294 24030000 		.4byte	.LBE380
 23687 0298 28030000 		.4byte	.LBB381
 23688 029c F6030000 		.4byte	.LBE381
 23689 02a0 F8030000 		.4byte	.LBB382
 23690 02a4 FA030000 		.4byte	.LBE382
 23691 02a8 AC040000 		.4byte	.LBB384
 23692 02ac 4A050000 		.4byte	.LBE384
 23693 02b0 F0050000 		.4byte	.LBB387
 23694 02b4 F8050000 		.4byte	.LBE387
 23695 02b8 16060000 		.4byte	.LBB391
 23696 02bc 1C060000 		.4byte	.LBE391
 23697 02c0 00000000 		.4byte	0
 23698 02c4 00000000 		.4byte	0
 23699 02c8 DE020000 		.4byte	.LBB330
 23700 02cc E2020000 		.4byte	.LBE330
 23701 02d0 94030000 		.4byte	.LBB364
 23702 02d4 96030000 		.4byte	.LBE364
 23703 02d8 9A030000 		.4byte	.LBB365
 23704 02dc F0030000 		.4byte	.LBE365
 23705 02e0 1C050000 		.4byte	.LBB368
 23706 02e4 22050000 		.4byte	.LBE368
 23707 02e8 30050000 		.4byte	.LBB369
 23708 02ec 32050000 		.4byte	.LBE369
 23709 02f0 3C050000 		.4byte	.LBB370
 23710 02f4 3E050000 		.4byte	.LBE370
 23711 02f8 44050000 		.4byte	.LBB371
 23712 02fc 4A050000 		.4byte	.LBE371
 23713 0300 16060000 		.4byte	.LBB373
 23714 0304 1C060000 		.4byte	.LBE373
 23715 0308 00000000 		.4byte	0
 23716 030c 00000000 		.4byte	0
 23717 0310 DE020000 		.4byte	.LBB332
 23718 0314 E2020000 		.4byte	.LBE332
 23719 0318 9C030000 		.4byte	.LBB339
 23720 031c F0030000 		.4byte	.LBE339
 23721 0320 30050000 		.4byte	.LBB340
 23722 0324 32050000 		.4byte	.LBE340
 23723 0328 3C050000 		.4byte	.LBB341
 23724 032c 3E050000 		.4byte	.LBE341
 23725 0330 44050000 		.4byte	.LBB342
 23726 0334 4A050000 		.4byte	.LBE342
 23727 0338 16060000 		.4byte	.LBB343
ARM GAS  /tmp/ccs3e2Sq.s 			page 418


 23728 033c 1C060000 		.4byte	.LBE343
 23729 0340 00000000 		.4byte	0
 23730 0344 00000000 		.4byte	0
 23731 0348 76030000 		.4byte	.LBB351
 23732 034c 7A030000 		.4byte	.LBE351
 23733 0350 7E030000 		.4byte	.LBB363
 23734 0354 82030000 		.4byte	.LBE363
 23735 0358 AC040000 		.4byte	.LBB366
 23736 035c CC040000 		.4byte	.LBE366
 23737 0360 D0040000 		.4byte	.LBB367
 23738 0364 0C050000 		.4byte	.LBE367
 23739 0368 F0050000 		.4byte	.LBB372
 23740 036c F8050000 		.4byte	.LBE372
 23741 0370 00000000 		.4byte	0
 23742 0374 00000000 		.4byte	0
 23743 0378 44000000 		.4byte	.LBB435
 23744 037c 5A030000 		.4byte	.LBE435
 23745 0380 60030000 		.4byte	.LBB650
 23746 0384 F2070000 		.4byte	.LBE650
 23747 0388 00000000 		.4byte	0
 23748 038c 00000000 		.4byte	0
 23749 0390 AE000000 		.4byte	.LBB438
 23750 0394 C0000000 		.4byte	.LBE438
 23751 0398 C6000000 		.4byte	.LBB639
 23752 039c C8000000 		.4byte	.LBE639
 23753 03a0 CE000000 		.4byte	.LBB640
 23754 03a4 E4000000 		.4byte	.LBE640
 23755 03a8 EE000000 		.4byte	.LBB641
 23756 03ac F2000000 		.4byte	.LBE641
 23757 03b0 14010000 		.4byte	.LBB642
 23758 03b4 1A010000 		.4byte	.LBE642
 23759 03b8 1C010000 		.4byte	.LBB643
 23760 03bc 1E010000 		.4byte	.LBE643
 23761 03c0 20010000 		.4byte	.LBB644
 23762 03c4 22010000 		.4byte	.LBE644
 23763 03c8 24010000 		.4byte	.LBB645
 23764 03cc D0020000 		.4byte	.LBE645
 23765 03d0 72030000 		.4byte	.LBB648
 23766 03d4 46040000 		.4byte	.LBE648
 23767 03d8 B2040000 		.4byte	.LBB649
 23768 03dc F2070000 		.4byte	.LBE649
 23769 03e0 00000000 		.4byte	0
 23770 03e4 00000000 		.4byte	0
 23771 03e8 32010000 		.4byte	.LBB440
 23772 03ec 36010000 		.4byte	.LBE440
 23773 03f0 38010000 		.4byte	.LBB443
 23774 03f4 3A010000 		.4byte	.LBE443
 23775 03f8 00000000 		.4byte	0
 23776 03fc 00000000 		.4byte	0
 23777 0400 42010000 		.4byte	.LBB444
 23778 0404 7E010000 		.4byte	.LBE444
 23779 0408 86010000 		.4byte	.LBB493
 23780 040c 88010000 		.4byte	.LBE493
 23781 0410 8E010000 		.4byte	.LBB494
 23782 0414 F4010000 		.4byte	.LBE494
 23783 0418 F6010000 		.4byte	.LBB495
 23784 041c F8010000 		.4byte	.LBE495
ARM GAS  /tmp/ccs3e2Sq.s 			page 419


 23785 0420 B2040000 		.4byte	.LBB618
 23786 0424 B8050000 		.4byte	.LBE618
 23787 0428 AC060000 		.4byte	.LBB620
 23788 042c CA060000 		.4byte	.LBE620
 23789 0430 C2070000 		.4byte	.LBB624
 23790 0434 CE070000 		.4byte	.LBE624
 23791 0438 DE070000 		.4byte	.LBB627
 23792 043c E4070000 		.4byte	.LBE627
 23793 0440 00000000 		.4byte	0
 23794 0444 00000000 		.4byte	0
 23795 0448 DC010000 		.4byte	.LBB446
 23796 044c DE010000 		.4byte	.LBE446
 23797 0450 E4010000 		.4byte	.LBB458
 23798 0454 E8010000 		.4byte	.LBE458
 23799 0458 B2040000 		.4byte	.LBB459
 23800 045c CA040000 		.4byte	.LBE459
 23801 0460 D0040000 		.4byte	.LBB460
 23802 0464 10050000 		.4byte	.LBE460
 23803 0468 C2070000 		.4byte	.LBB484
 23804 046c CE070000 		.4byte	.LBE484
 23805 0470 00000000 		.4byte	0
 23806 0474 00000000 		.4byte	0
 23807 0478 20050000 		.4byte	.LBB461
 23808 047c 26050000 		.4byte	.LBE461
 23809 0480 36050000 		.4byte	.LBB479
 23810 0484 38050000 		.4byte	.LBE479
 23811 0488 44050000 		.4byte	.LBB480
 23812 048c 46050000 		.4byte	.LBE480
 23813 0490 4C050000 		.4byte	.LBB481
 23814 0494 B8050000 		.4byte	.LBE481
 23815 0498 BC060000 		.4byte	.LBB482
 23816 049c BE060000 		.4byte	.LBE482
 23817 04a0 C2060000 		.4byte	.LBB483
 23818 04a4 CA060000 		.4byte	.LBE483
 23819 04a8 DE070000 		.4byte	.LBB485
 23820 04ac E4070000 		.4byte	.LBE485
 23821 04b0 00000000 		.4byte	0
 23822 04b4 00000000 		.4byte	0
 23823 04b8 36050000 		.4byte	.LBB463
 23824 04bc 38050000 		.4byte	.LBE463
 23825 04c0 44050000 		.4byte	.LBB469
 23826 04c4 46050000 		.4byte	.LBE469
 23827 04c8 4C050000 		.4byte	.LBB470
 23828 04cc B8050000 		.4byte	.LBE470
 23829 04d0 C6060000 		.4byte	.LBB471
 23830 04d4 CA060000 		.4byte	.LBE471
 23831 04d8 DE070000 		.4byte	.LBB472
 23832 04dc E4070000 		.4byte	.LBE472
 23833 04e0 00000000 		.4byte	0
 23834 04e4 00000000 		.4byte	0
 23835 04e8 04020000 		.4byte	.LBB496
 23836 04ec 06020000 		.4byte	.LBE496
 23837 04f0 08020000 		.4byte	.LBB499
 23838 04f4 0C020000 		.4byte	.LBE499
 23839 04f8 00000000 		.4byte	0
 23840 04fc 00000000 		.4byte	0
 23841 0500 0C020000 		.4byte	.LBB500
ARM GAS  /tmp/ccs3e2Sq.s 			page 420


 23842 0504 44020000 		.4byte	.LBE500
 23843 0508 52020000 		.4byte	.LBB551
 23844 050c 54020000 		.4byte	.LBE551
 23845 0510 58020000 		.4byte	.LBB552
 23846 0514 CA020000 		.4byte	.LBE552
 23847 0518 CC020000 		.4byte	.LBB553
 23848 051c CE020000 		.4byte	.LBE553
 23849 0520 CA060000 		.4byte	.LBB621
 23850 0524 BA070000 		.4byte	.LBE621
 23851 0528 BE070000 		.4byte	.LBB623
 23852 052c C2070000 		.4byte	.LBE623
 23853 0530 D4070000 		.4byte	.LBB626
 23854 0534 DE070000 		.4byte	.LBE626
 23855 0538 E4070000 		.4byte	.LBB628
 23856 053c EA070000 		.4byte	.LBE628
 23857 0540 00000000 		.4byte	0
 23858 0544 00000000 		.4byte	0
 23859 0548 A0020000 		.4byte	.LBB502
 23860 054c A2020000 		.4byte	.LBE502
 23861 0550 A6020000 		.4byte	.LBB514
 23862 0554 AA020000 		.4byte	.LBE514
 23863 0558 CA060000 		.4byte	.LBB535
 23864 055c EA060000 		.4byte	.LBE535
 23865 0560 EE060000 		.4byte	.LBB536
 23866 0564 2A070000 		.4byte	.LBE536
 23867 0568 D4070000 		.4byte	.LBB542
 23868 056c DE070000 		.4byte	.LBE542
 23869 0570 00000000 		.4byte	0
 23870 0574 00000000 		.4byte	0
 23871 0578 BC020000 		.4byte	.LBB515
 23872 057c BE020000 		.4byte	.LBE515
 23873 0580 C0020000 		.4byte	.LBB534
 23874 0584 C4020000 		.4byte	.LBE534
 23875 0588 3A070000 		.4byte	.LBB537
 23876 058c 40070000 		.4byte	.LBE537
 23877 0590 54070000 		.4byte	.LBB538
 23878 0594 56070000 		.4byte	.LBE538
 23879 0598 5E070000 		.4byte	.LBB539
 23880 059c 60070000 		.4byte	.LBE539
 23881 05a0 64070000 		.4byte	.LBB540
 23882 05a4 BA070000 		.4byte	.LBE540
 23883 05a8 BE070000 		.4byte	.LBB541
 23884 05ac C2070000 		.4byte	.LBE541
 23885 05b0 E4070000 		.4byte	.LBB543
 23886 05b4 EA070000 		.4byte	.LBE543
 23887 05b8 00000000 		.4byte	0
 23888 05bc 00000000 		.4byte	0
 23889 05c0 72030000 		.4byte	.LBB554
 23890 05c4 80030000 		.4byte	.LBE554
 23891 05c8 84030000 		.4byte	.LBB613
 23892 05cc 86030000 		.4byte	.LBE613
 23893 05d0 00000000 		.4byte	0
 23894 05d4 00000000 		.4byte	0
 23895 05d8 80030000 		.4byte	.LBB557
 23896 05dc 84030000 		.4byte	.LBE557
 23897 05e0 86030000 		.4byte	.LBB614
 23898 05e4 BE030000 		.4byte	.LBE614
ARM GAS  /tmp/ccs3e2Sq.s 			page 421


 23899 05e8 C4030000 		.4byte	.LBB615
 23900 05ec C6030000 		.4byte	.LBE615
 23901 05f0 CC030000 		.4byte	.LBB616
 23902 05f4 3C040000 		.4byte	.LBE616
 23903 05f8 3E040000 		.4byte	.LBB617
 23904 05fc 40040000 		.4byte	.LBE617
 23905 0600 B8050000 		.4byte	.LBB619
 23906 0604 AC060000 		.4byte	.LBE619
 23907 0608 BA070000 		.4byte	.LBB622
 23908 060c BE070000 		.4byte	.LBE622
 23909 0610 CE070000 		.4byte	.LBB625
 23910 0614 D4070000 		.4byte	.LBE625
 23911 0618 EA070000 		.4byte	.LBB629
 23912 061c F2070000 		.4byte	.LBE629
 23913 0620 00000000 		.4byte	0
 23914 0624 00000000 		.4byte	0
 23915 0628 12040000 		.4byte	.LBB559
 23916 062c 14040000 		.4byte	.LBE559
 23917 0630 18040000 		.4byte	.LBB574
 23918 0634 1C040000 		.4byte	.LBE574
 23919 0638 B8050000 		.4byte	.LBB595
 23920 063c CE050000 		.4byte	.LBE595
 23921 0640 D0050000 		.4byte	.LBB596
 23922 0644 D4050000 		.4byte	.LBE596
 23923 0648 D8050000 		.4byte	.LBB597
 23924 064c 16060000 		.4byte	.LBE597
 23925 0650 CE070000 		.4byte	.LBB603
 23926 0654 D4070000 		.4byte	.LBE603
 23927 0658 00000000 		.4byte	0
 23928 065c 00000000 		.4byte	0
 23929 0660 2E040000 		.4byte	.LBB575
 23930 0664 30040000 		.4byte	.LBE575
 23931 0668 32040000 		.4byte	.LBB594
 23932 066c 36040000 		.4byte	.LBE594
 23933 0670 26060000 		.4byte	.LBB598
 23934 0674 2C060000 		.4byte	.LBE598
 23935 0678 38060000 		.4byte	.LBB599
 23936 067c 3A060000 		.4byte	.LBE599
 23937 0680 4A060000 		.4byte	.LBB600
 23938 0684 4C060000 		.4byte	.LBE600
 23939 0688 50060000 		.4byte	.LBB601
 23940 068c AC060000 		.4byte	.LBE601
 23941 0690 BA070000 		.4byte	.LBB602
 23942 0694 BE070000 		.4byte	.LBE602
 23943 0698 EA070000 		.4byte	.LBB604
 23944 069c F2070000 		.4byte	.LBE604
 23945 06a0 00000000 		.4byte	0
 23946 06a4 00000000 		.4byte	0
 23947 06a8 32000000 		.4byte	.LBB666
 23948 06ac 48010000 		.4byte	.LBE666
 23949 06b0 4E010000 		.4byte	.LBB730
 23950 06b4 A2020000 		.4byte	.LBE730
 23951 06b8 00000000 		.4byte	0
 23952 06bc 00000000 		.4byte	0
 23953 06c0 52000000 		.4byte	.LBB667
 23954 06c4 44010000 		.4byte	.LBE667
 23955 06c8 4E010000 		.4byte	.LBB729
ARM GAS  /tmp/ccs3e2Sq.s 			page 422


 23956 06cc A2020000 		.4byte	.LBE729
 23957 06d0 00000000 		.4byte	0
 23958 06d4 00000000 		.4byte	0
 23959 06d8 56000000 		.4byte	.LBB668
 23960 06dc 5A000000 		.4byte	.LBE668
 23961 06e0 8A000000 		.4byte	.LBB727
 23962 06e4 44010000 		.4byte	.LBE727
 23963 06e8 4E010000 		.4byte	.LBB728
 23964 06ec A2020000 		.4byte	.LBE728
 23965 06f0 00000000 		.4byte	0
 23966 06f4 00000000 		.4byte	0
 23967 06f8 56000000 		.4byte	.LBB669
 23968 06fc 5A000000 		.4byte	.LBE669
 23969 0700 92000000 		.4byte	.LBB720
 23970 0704 3A010000 		.4byte	.LBE720
 23971 0708 3C010000 		.4byte	.LBB721
 23972 070c 3E010000 		.4byte	.LBE721
 23973 0710 4E010000 		.4byte	.LBB722
 23974 0714 A2020000 		.4byte	.LBE722
 23975 0718 00000000 		.4byte	0
 23976 071c 00000000 		.4byte	0
 23977 0720 56000000 		.4byte	.LBB671
 23978 0724 5A000000 		.4byte	.LBE671
 23979 0728 D6010000 		.4byte	.LBB708
 23980 072c DA010000 		.4byte	.LBE708
 23981 0730 E8010000 		.4byte	.LBB709
 23982 0734 EC010000 		.4byte	.LBE709
 23983 0738 FA010000 		.4byte	.LBB710
 23984 073c FC010000 		.4byte	.LBE710
 23985 0740 00020000 		.4byte	.LBB711
 23986 0744 02020000 		.4byte	.LBE711
 23987 0748 06020000 		.4byte	.LBB712
 23988 074c 72020000 		.4byte	.LBE712
 23989 0750 82020000 		.4byte	.LBB713
 23990 0754 86020000 		.4byte	.LBE713
 23991 0758 8C020000 		.4byte	.LBB714
 23992 075c 92020000 		.4byte	.LBE714
 23993 0760 9A020000 		.4byte	.LBB716
 23994 0764 A2020000 		.4byte	.LBE716
 23995 0768 00000000 		.4byte	0
 23996 076c 00000000 		.4byte	0
 23997 0770 56000000 		.4byte	.LBB673
 23998 0774 5A000000 		.4byte	.LBE673
 23999 0778 E8010000 		.4byte	.LBB680
 24000 077c EC010000 		.4byte	.LBE680
 24001 0780 FA010000 		.4byte	.LBB681
 24002 0784 FC010000 		.4byte	.LBE681
 24003 0788 00020000 		.4byte	.LBB682
 24004 078c 02020000 		.4byte	.LBE682
 24005 0790 06020000 		.4byte	.LBB683
 24006 0794 72020000 		.4byte	.LBE683
 24007 0798 9A020000 		.4byte	.LBB684
 24008 079c A2020000 		.4byte	.LBE684
 24009 07a0 00000000 		.4byte	0
 24010 07a4 00000000 		.4byte	0
 24011 07a8 22010000 		.4byte	.LBB693
 24012 07ac 26010000 		.4byte	.LBE693
ARM GAS  /tmp/ccs3e2Sq.s 			page 423


 24013 07b0 2A010000 		.4byte	.LBB705
 24014 07b4 2C010000 		.4byte	.LBE705
 24015 07b8 5E010000 		.4byte	.LBB706
 24016 07bc 78010000 		.4byte	.LBE706
 24017 07c0 7E010000 		.4byte	.LBB707
 24018 07c4 C8010000 		.4byte	.LBE707
 24019 07c8 92020000 		.4byte	.LBB715
 24020 07cc 9A020000 		.4byte	.LBE715
 24021 07d0 00000000 		.4byte	0
 24022 07d4 00000000 		.4byte	0
 24023 07d8 5C000000 		.4byte	.LBB723
 24024 07dc 5E000000 		.4byte	.LBE723
 24025 07e0 78000000 		.4byte	.LBB726
 24026 07e4 7A000000 		.4byte	.LBE726
 24027 07e8 00000000 		.4byte	0
 24028 07ec 00000000 		.4byte	0
 24029 07f0 98000000 		.4byte	.LBB746
 24030 07f4 AE000000 		.4byte	.LBE746
 24031 07f8 B2000000 		.4byte	.LBB815
 24032 07fc B4000000 		.4byte	.LBE815
 24033 0800 BC000000 		.4byte	.LBB816
 24034 0804 C0000000 		.4byte	.LBE816
 24035 0808 C2000000 		.4byte	.LBB817
 24036 080c DC010000 		.4byte	.LBE817
 24037 0810 E2010000 		.4byte	.LBB818
 24038 0814 08030000 		.4byte	.LBE818
 24039 0818 00000000 		.4byte	0
 24040 081c 00000000 		.4byte	0
 24041 0820 C8000000 		.4byte	.LBB747
 24042 0824 D6010000 		.4byte	.LBE747
 24043 0828 E2010000 		.4byte	.LBB814
 24044 082c 08030000 		.4byte	.LBE814
 24045 0830 00000000 		.4byte	0
 24046 0834 00000000 		.4byte	0
 24047 0838 C8000000 		.4byte	.LBB748
 24048 083c CE000000 		.4byte	.LBE748
 24049 0840 0A010000 		.4byte	.LBB811
 24050 0844 0C010000 		.4byte	.LBE811
 24051 0848 0E010000 		.4byte	.LBB812
 24052 084c D6010000 		.4byte	.LBE812
 24053 0850 EA010000 		.4byte	.LBB813
 24054 0854 08030000 		.4byte	.LBE813
 24055 0858 00000000 		.4byte	0
 24056 085c 00000000 		.4byte	0
 24057 0860 C8000000 		.4byte	.LBB749
 24058 0864 CE000000 		.4byte	.LBE749
 24059 0868 18010000 		.4byte	.LBB802
 24060 086c 50010000 		.4byte	.LBE802
 24061 0870 62010000 		.4byte	.LBB803
 24062 0874 64010000 		.4byte	.LBE803
 24063 0878 68010000 		.4byte	.LBB804
 24064 087c CA010000 		.4byte	.LBE804
 24065 0880 CC010000 		.4byte	.LBB805
 24066 0884 CE010000 		.4byte	.LBE805
 24067 0888 EA010000 		.4byte	.LBB806
 24068 088c 08030000 		.4byte	.LBE806
 24069 0890 00000000 		.4byte	0
ARM GAS  /tmp/ccs3e2Sq.s 			page 424


 24070 0894 00000000 		.4byte	0
 24071 0898 C8000000 		.4byte	.LBB751
 24072 089c CE000000 		.4byte	.LBE751
 24073 08a0 56020000 		.4byte	.LBB788
 24074 08a4 5A020000 		.4byte	.LBE788
 24075 08a8 64020000 		.4byte	.LBB789
 24076 08ac 66020000 		.4byte	.LBE789
 24077 08b0 68020000 		.4byte	.LBB790
 24078 08b4 6A020000 		.4byte	.LBE790
 24079 08b8 78020000 		.4byte	.LBB791
 24080 08bc 7A020000 		.4byte	.LBE791
 24081 08c0 80020000 		.4byte	.LBB792
 24082 08c4 E2020000 		.4byte	.LBE792
 24083 08c8 F2020000 		.4byte	.LBB793
 24084 08cc F6020000 		.4byte	.LBE793
 24085 08d0 F8020000 		.4byte	.LBB794
 24086 08d4 FE020000 		.4byte	.LBE794
 24087 08d8 04030000 		.4byte	.LBB796
 24088 08dc 08030000 		.4byte	.LBE796
 24089 08e0 00000000 		.4byte	0
 24090 08e4 00000000 		.4byte	0
 24091 08e8 C8000000 		.4byte	.LBB753
 24092 08ec CE000000 		.4byte	.LBE753
 24093 08f0 64020000 		.4byte	.LBB760
 24094 08f4 66020000 		.4byte	.LBE760
 24095 08f8 68020000 		.4byte	.LBB761
 24096 08fc 6A020000 		.4byte	.LBE761
 24097 0900 78020000 		.4byte	.LBB762
 24098 0904 7A020000 		.4byte	.LBE762
 24099 0908 80020000 		.4byte	.LBB763
 24100 090c E2020000 		.4byte	.LBE763
 24101 0910 04030000 		.4byte	.LBB764
 24102 0914 08030000 		.4byte	.LBE764
 24103 0918 00000000 		.4byte	0
 24104 091c 00000000 		.4byte	0
 24105 0920 B2010000 		.4byte	.LBB773
 24106 0924 B6010000 		.4byte	.LBE773
 24107 0928 BA010000 		.4byte	.LBB785
 24108 092c BC010000 		.4byte	.LBE785
 24109 0930 EA010000 		.4byte	.LBB786
 24110 0934 08020000 		.4byte	.LBE786
 24111 0938 0C020000 		.4byte	.LBB787
 24112 093c 48020000 		.4byte	.LBE787
 24113 0940 FE020000 		.4byte	.LBB795
 24114 0944 04030000 		.4byte	.LBE795
 24115 0948 00000000 		.4byte	0
 24116 094c 00000000 		.4byte	0
 24117 0950 CE000000 		.4byte	.LBB807
 24118 0954 D8000000 		.4byte	.LBE807
 24119 0958 DA000000 		.4byte	.LBB810
 24120 095c DC000000 		.4byte	.LBE810
 24121 0960 00000000 		.4byte	0
 24122 0964 00000000 		.4byte	0
 24123 0968 04000000 		.4byte	.LBB836
 24124 096c 06000000 		.4byte	.LBE836
 24125 0970 08000000 		.4byte	.LBB870
 24126 0974 58010000 		.4byte	.LBE870
ARM GAS  /tmp/ccs3e2Sq.s 			page 425


 24127 0978 5E010000 		.4byte	.LBB871
 24128 097c 6C010000 		.4byte	.LBE871
 24129 0980 00000000 		.4byte	0
 24130 0984 00000000 		.4byte	0
 24131 0988 2A000000 		.4byte	.LBB837
 24132 098c 2E000000 		.4byte	.LBE837
 24133 0990 34000000 		.4byte	.LBB868
 24134 0994 3E010000 		.4byte	.LBE868
 24135 0998 5E010000 		.4byte	.LBB869
 24136 099c 6C010000 		.4byte	.LBE869
 24137 09a0 00000000 		.4byte	0
 24138 09a4 00000000 		.4byte	0
 24139 09a8 2A000000 		.4byte	.LBB838
 24140 09ac 2E000000 		.4byte	.LBE838
 24141 09b0 3C000000 		.4byte	.LBB866
 24142 09b4 22010000 		.4byte	.LBE866
 24143 09b8 5E010000 		.4byte	.LBB867
 24144 09bc 6C010000 		.4byte	.LBE867
 24145 09c0 00000000 		.4byte	0
 24146 09c4 00000000 		.4byte	0
 24147 09c8 2A000000 		.4byte	.LBB839
 24148 09cc 2E000000 		.4byte	.LBE839
 24149 09d0 5A000000 		.4byte	.LBB865
 24150 09d4 22010000 		.4byte	.LBE865
 24151 09d8 00000000 		.4byte	0
 24152 09dc 00000000 		.4byte	0
 24153 09e0 2A000000 		.4byte	.LBB840
 24154 09e4 2E000000 		.4byte	.LBE840
 24155 09e8 5A000000 		.4byte	.LBB863
 24156 09ec 68000000 		.4byte	.LBE863
 24157 09f0 72000000 		.4byte	.LBB864
 24158 09f4 1A010000 		.4byte	.LBE864
 24159 09f8 00000000 		.4byte	0
 24160 09fc 00000000 		.4byte	0
 24161 0a00 2A000000 		.4byte	.LBB841
 24162 0a04 2E000000 		.4byte	.LBE841
 24163 0a08 5E000000 		.4byte	.LBB854
 24164 0a0c 62000000 		.4byte	.LBE854
 24165 0a10 64000000 		.4byte	.LBB855
 24166 0a14 68000000 		.4byte	.LBE855
 24167 0a18 8A000000 		.4byte	.LBB856
 24168 0a1c CE000000 		.4byte	.LBE856
 24169 0a20 00000000 		.4byte	0
 24170 0a24 00000000 		.4byte	0
 24171 0a28 2A000000 		.4byte	.LBB843
 24172 0a2c 2E000000 		.4byte	.LBE843
 24173 0a30 9A000000 		.4byte	.LBB846
 24174 0a34 A8000000 		.4byte	.LBE846
 24175 0a38 00000000 		.4byte	0
 24176 0a3c 00000000 		.4byte	0
 24177 0a40 F8000000 		.4byte	.LBB859
 24178 0a44 FE000000 		.4byte	.LBE859
 24179 0a48 16010000 		.4byte	.LBB862
 24180 0a4c 1A010000 		.4byte	.LBE862
 24181 0a50 00000000 		.4byte	0
 24182 0a54 00000000 		.4byte	0
 24183 0a58 04000000 		.4byte	.LBB872
ARM GAS  /tmp/ccs3e2Sq.s 			page 426


 24184 0a5c 06000000 		.4byte	.LBE872
 24185 0a60 16000000 		.4byte	.LBB875
 24186 0a64 26000000 		.4byte	.LBE875
 24187 0a68 00000000 		.4byte	0
 24188 0a6c 00000000 		.4byte	0
 24189 0a70 04000000 		.4byte	.LBB880
 24190 0a74 06000000 		.4byte	.LBE880
 24191 0a78 16000000 		.4byte	.LBB883
 24192 0a7c 26000000 		.4byte	.LBE883
 24193 0a80 00000000 		.4byte	0
 24194 0a84 00000000 		.4byte	0
 24195 0a88 08000000 		.4byte	.LBB896
 24196 0a8c 0A000000 		.4byte	.LBE896
 24197 0a90 16000000 		.4byte	.LBB899
 24198 0a94 28000000 		.4byte	.LBE899
 24199 0a98 00000000 		.4byte	0
 24200 0a9c 00000000 		.4byte	0
 24201 0aa0 3A000000 		.4byte	.LBB902
 24202 0aa4 44000000 		.4byte	.LBE902
 24203 0aa8 46000000 		.4byte	.LBB905
 24204 0aac 4A000000 		.4byte	.LBE905
 24205 0ab0 00000000 		.4byte	0
 24206 0ab4 00000000 		.4byte	0
 24207 0ab8 06000000 		.4byte	.LBB984
 24208 0abc 08000000 		.4byte	.LBE984
 24209 0ac0 DA010000 		.4byte	.LBB1056
 24210 0ac4 E2010000 		.4byte	.LBE1056
 24211 0ac8 FA010000 		.4byte	.LBB1061
 24212 0acc 58020000 		.4byte	.LBE1061
 24213 0ad0 00000000 		.4byte	0
 24214 0ad4 00000000 		.4byte	0
 24215 0ad8 06000000 		.4byte	.LBB986
 24216 0adc 08000000 		.4byte	.LBE986
 24217 0ae0 02020000 		.4byte	.LBB989
 24218 0ae4 14020000 		.4byte	.LBE989
 24219 0ae8 00000000 		.4byte	0
 24220 0aec 00000000 		.4byte	0
 24221 0af0 26020000 		.4byte	.LBB992
 24222 0af4 32020000 		.4byte	.LBE992
 24223 0af8 34020000 		.4byte	.LBB995
 24224 0afc 38020000 		.4byte	.LBE995
 24225 0b00 00000000 		.4byte	0
 24226 0b04 00000000 		.4byte	0
 24227 0b08 2E000000 		.4byte	.LBB1000
 24228 0b0c 30000000 		.4byte	.LBE1000
 24229 0b10 32000000 		.4byte	.LBB1003
 24230 0b14 46000000 		.4byte	.LBE1003
 24231 0b18 00000000 		.4byte	0
 24232 0b1c 00000000 		.4byte	0
 24233 0b20 5A020000 		.4byte	.LBB1064
 24234 0b24 5E020000 		.4byte	.LBE1064
 24235 0b28 68020000 		.4byte	.LBB1067
 24236 0b2c 76020000 		.4byte	.LBE1067
 24237 0b30 00000000 		.4byte	0
 24238 0b34 00000000 		.4byte	0
 24239 0b38 00000000 		.4byte	.LFB329
 24240 0b3c 3E000000 		.4byte	.LFE329
ARM GAS  /tmp/ccs3e2Sq.s 			page 427


 24241 0b40 00000000 		.4byte	.LFB331
 24242 0b44 06000000 		.4byte	.LFE331
 24243 0b48 00000000 		.4byte	.LFB332
 24244 0b4c 84010000 		.4byte	.LFE332
 24245 0b50 00000000 		.4byte	.LFB333
 24246 0b54 1C060000 		.4byte	.LFE333
 24247 0b58 00000000 		.4byte	.LFB335
 24248 0b5c F2070000 		.4byte	.LFE335
 24249 0b60 00000000 		.4byte	.LFB336
 24250 0b64 A2020000 		.4byte	.LFE336
 24251 0b68 00000000 		.4byte	.LFB337
 24252 0b6c 08030000 		.4byte	.LFE337
 24253 0b70 00000000 		.4byte	.LFB338
 24254 0b74 0A000000 		.4byte	.LFE338
 24255 0b78 00000000 		.4byte	.LFB339
 24256 0b7c 04000000 		.4byte	.LFE339
 24257 0b80 00000000 		.4byte	.LFB340
 24258 0b84 6C010000 		.4byte	.LFE340
 24259 0b88 00000000 		.4byte	.LFB341
 24260 0b8c 4C000000 		.4byte	.LFE341
 24261 0b90 00000000 		.4byte	.LFB342
 24262 0b94 4C000000 		.4byte	.LFE342
 24263 0b98 00000000 		.4byte	.LFB343
 24264 0b9c 78000000 		.4byte	.LFE343
 24265 0ba0 00000000 		.4byte	.LFB344
 24266 0ba4 9C020000 		.4byte	.LFE344
 24267 0ba8 00000000 		.4byte	0
 24268 0bac 00000000 		.4byte	0
 24269              		.section	.debug_line,"",%progbits
 24270              	.Ldebug_line0:
 24271 0000 000F0000 		.section	.debug_str,"MS",%progbits,1
 24271      02000407 
 24271      00000201 
 24271      FB0E0D00 
 24271      01010101 
 24272              	.LASF202:
 24273 0000 63685F6D 		.ascii	"ch_memcore\000"
 24273      656D636F 
 24273      726500
 24274              	.LASF160:
 24275 000b 73656E74 		.ascii	"sentmsg\000"
 24275      6D736700 
 24276              	.LASF143:
 24277 0013 706F7274 		.ascii	"port_intctx\000"
 24277      5F696E74 
 24277      63747800 
 24278              	.LASF372:
 24279 001f 6576656E 		.ascii	"event\000"
 24279      7400
 24280              	.LASF301:
 24281 0025 43414E5F 		.ascii	"CAN_STARTING\000"
 24281      53544152 
 24281      54494E47 
 24281      00
 24282              	.LASF28:
 24283 0032 6D73675F 		.ascii	"msg_t\000"
 24283      7400
ARM GAS  /tmp/ccs3e2Sq.s 			page 428


 24284              	.LASF587:
 24285 0038 466F6E74 		.ascii	"FontSize_t\000"
 24285      53697A65 
 24285      5F7400
 24286              	.LASF325:
 24287 0043 4F504D4F 		.ascii	"OPMODE_SMBUS_DEVICE\000"
 24287      44455F53 
 24287      4D425553 
 24287      5F444556 
 24287      49434500 
 24288              	.LASF404:
 24289 0057 55415254 		.ascii	"UART_TX_IDLE\000"
 24289      5F54585F 
 24289      49444C45 
 24289      00
 24290              	.LASF468:
 24291 0064 5553425F 		.ascii	"USB_EVENT_UNCONFIGURED\000"
 24291      4556454E 
 24291      545F554E 
 24291      434F4E46 
 24291      49475552 
 24292              	.LASF512:
 24293 007b 44494550 		.ascii	"DIEPTXF0\000"
 24293      54584630 
 24293      00
 24294              	.LASF584:
 24295 0084 55534244 		.ascii	"USBD1\000"
 24295      3100
 24296              	.LASF300:
 24297 008a 43414E5F 		.ascii	"CAN_STOP\000"
 24297      53544F50 
 24297      00
 24298              	.LASF71:
 24299 0093 63685F73 		.ascii	"ch_system_t\000"
 24299      79737465 
 24299      6D5F7400 
 24300              	.LASF5:
 24301 009f 5F5F7569 		.ascii	"__uint8_t\000"
 24301      6E74385F 
 24301      7400
 24302              	.LASF161:
 24303 00a9 77747365 		.ascii	"wtsemp\000"
 24303      6D7000
 24304              	.LASF197:
 24305 00b0 5F426F6F 		.ascii	"_Bool\000"
 24305      6C00
 24306              	.LASF341:
 24307 00b6 646D6172 		.ascii	"dmarx\000"
 24307      7800
 24308              	.LASF45:
 24309 00bc 6570656E 		.ascii	"epending\000"
 24309      64696E67 
 24309      00
 24310              	.LASF206:
 24311 00c5 70726F76 		.ascii	"provider\000"
 24311      69646572 
 24311      00
ARM GAS  /tmp/ccs3e2Sq.s 			page 429


 24312              	.LASF221:
 24313 00ce 6F626A65 		.ascii	"objects_factory_t\000"
 24313      6374735F 
 24313      66616374 
 24313      6F72795F 
 24313      7400
 24314              	.LASF287:
 24315 00e0 73717231 		.ascii	"sqr1\000"
 24315      00
 24316              	.LASF198:
 24317 00e5 6D656D67 		.ascii	"memgetfunc_t\000"
 24317      65746675 
 24317      6E635F74 
 24317      00
 24318              	.LASF542:
 24319 00f2 44564255 		.ascii	"DVBUSDIS\000"
 24319      53444953 
 24319      00
 24320              	.LASF337:
 24321 00fb 6572726F 		.ascii	"errors\000"
 24321      727300
 24322              	.LASF378:
 24323 0102 696E7374 		.ascii	"instance_offset\000"
 24323      616E6365 
 24323      5F6F6666 
 24323      73657400 
 24324              	.LASF396:
 24325 0112 73706963 		.ascii	"spicallback_t\000"
 24325      616C6C62 
 24325      61636B5F 
 24325      7400
 24326              	.LASF35:
 24327 0120 7072696F 		.ascii	"prio\000"
 24327      00
 24328              	.LASF449:
 24329 0125 75736265 		.ascii	"usbep_t\000"
 24329      705F7400 
 24330              	.LASF380:
 24331 012d 72656164 		.ascii	"read\000"
 24331      00
 24332              	.LASF269:
 24333 0132 73616D70 		.ascii	"samples\000"
 24333      6C657300 
 24334              	.LASF516:
 24335 013a 47434346 		.ascii	"GCCFG\000"
 24335      4700
 24336              	.LASF149:
 24337 0140 42445452 		.ascii	"BDTR\000"
 24337      00
 24338              	.LASF335:
 24339 0145 49324343 		.ascii	"I2CConfig\000"
 24339      6F6E6669 
 24339      6700
 24340              	.LASF19:
 24341 014f 75696E74 		.ascii	"uint16_t\000"
 24341      31365F74 
 24341      00
ARM GAS  /tmp/ccs3e2Sq.s 			page 430


 24342              	.LASF342:
 24343 0158 646D6174 		.ascii	"dmatx\000"
 24343      7800
 24344              	.LASF582:
 24345 015e 736F665F 		.ascii	"sof_cb\000"
 24345      636200
 24346              	.LASF212:
 24347 0165 63685F6F 		.ascii	"ch_objects_factory\000"
 24347      626A6563 
 24347      74735F66 
 24347      6163746F 
 24347      727900
 24348              	.LASF611:
 24349 0178 64697274 		.ascii	"dirtyBits\000"
 24349      79426974 
 24349      7300
 24350              	.LASF53:
 24351 0182 6E657874 		.ascii	"next\000"
 24351      00
 24352              	.LASF37:
 24353 0187 6F6C6465 		.ascii	"older\000"
 24353      7200
 24354              	.LASF208:
 24355 018d 63685F64 		.ascii	"ch_dyn_element\000"
 24355      796E5F65 
 24355      6C656D65 
 24355      6E7400
 24356              	.LASF519:
 24357 019c 44494550 		.ascii	"DIEPTXF\000"
 24357      54584600 
 24358              	.LASF436:
 24359 01a4 696E5F70 		.ascii	"in_params\000"
 24359      6172616D 
 24359      7300
 24360              	.LASF459:
 24361 01ae 5553425F 		.ascii	"USB_EP0_IN_WAITING_TX0\000"
 24361      4550305F 
 24361      494E5F57 
 24361      41495449 
 24361      4E475F54 
 24362              	.LASF293:
 24363 01c5 4144435F 		.ascii	"ADC_ERR_OVERFLOW\000"
 24363      4552525F 
 24363      4F564552 
 24363      464C4F57 
 24363      00
 24364              	.LASF55:
 24365 01d6 63685F74 		.ascii	"ch_threads_queue\000"
 24365      68726561 
 24365      64735F71 
 24365      75657565 
 24365      00
 24366              	.LASF529:
 24367 01e7 48505254 		.ascii	"HPRT\000"
 24367      00
 24368              	.LASF483:
 24369 01ec 4843494E 		.ascii	"HCINT\000"
ARM GAS  /tmp/ccs3e2Sq.s 			page 431


 24369      5400
 24370              	.LASF589:
 24371 01f2 68656967 		.ascii	"height\000"
 24371      687400
 24372              	.LASF83:
 24373 01f9 534D5052 		.ascii	"SMPR1\000"
 24373      3100
 24374              	.LASF84:
 24375 01ff 534D5052 		.ascii	"SMPR2\000"
 24375      3200
 24376              	.LASF386:
 24377 0205 5350495F 		.ascii	"SPI_STOP\000"
 24377      53544F50 
 24377      00
 24378              	.LASF356:
 24379 020e 70776D63 		.ascii	"pwmchnmsk_t\000"
 24379      686E6D73 
 24379      6B5F7400 
 24380              	.LASF525:
 24381 021a 48505458 		.ascii	"HPTXSTS\000"
 24381      53545300 
 24382              	.LASF311:
 24383 0222 63616E5F 		.ascii	"can_callback_t\000"
 24383      63616C6C 
 24383      6261636B 
 24383      5F7400
 24384              	.LASF248:
 24385 0231 4F545950 		.ascii	"OTYPER\000"
 24385      455200
 24386              	.LASF390:
 24387 0238 73706973 		.ascii	"spistate_t\000"
 24387      74617465 
 24387      5F7400
 24388              	.LASF416:
 24389 0243 6561726C 		.ascii	"early\000"
 24389      7900
 24390              	.LASF481:
 24391 0249 48434348 		.ascii	"HCCHAR\000"
 24391      415200
 24392              	.LASF319:
 24393 0250 4932435F 		.ascii	"I2C_ACTIVE_RX\000"
 24393      41435449 
 24393      56455F52 
 24393      5800
 24394              	.LASF33:
 24395 025e 74687265 		.ascii	"thread_t\000"
 24395      61645F74 
 24395      00
 24396              	.LASF347:
 24397 0267 70776D73 		.ascii	"pwmstate_t\000"
 24397      74617465 
 24397      5F7400
 24398              	.LASF66:
 24399 0272 63685F76 		.ascii	"ch_virtual_timers_list\000"
 24399      69727475 
 24399      616C5F74 
 24399      696D6572 
ARM GAS  /tmp/ccs3e2Sq.s 			page 432


 24399      735F6C69 
 24400              	.LASF228:
 24401 0289 76656374 		.ascii	"vector\000"
 24401      6F7200
 24402              	.LASF20:
 24403 0290 696E7433 		.ascii	"int32_t\000"
 24403      325F7400 
 24404              	.LASF640:
 24405 0298 73706953 		.ascii	"spiSend\000"
 24405      656E6400 
 24406              	.LASF333:
 24407 02a0 636C6F63 		.ascii	"clock_speed\000"
 24407      6B5F7370 
 24407      65656400 
 24408              	.LASF76:
 24409 02ac 73797374 		.ascii	"systime_t\000"
 24409      696D655F 
 24409      7400
 24410              	.LASF305:
 24411 02b6 43414E44 		.ascii	"CANDriver\000"
 24411      72697665 
 24411      7200
 24412              	.LASF621:
 24413 02c0 6D61736B 		.ascii	"mask\000"
 24413      00
 24414              	.LASF124:
 24415 02c5 4D304152 		.ascii	"M0AR\000"
 24415      00
 24416              	.LASF488:
 24417 02ca 72657376 		.ascii	"resvd1c\000"
 24417      64316300 
 24418              	.LASF323:
 24419 02d2 69326366 		.ascii	"i2cflags_t\000"
 24419      6C616773 
 24419      5F7400
 24420              	.LASF526:
 24421 02dd 4841494E 		.ascii	"HAINT\000"
 24421      5400
 24422              	.LASF174:
 24423 02e3 74696D65 		.ascii	"timesize\000"
 24423      73697A65 
 24423      00
 24424              	.LASF601:
 24425 02ec 46385831 		.ascii	"F8X16\000"
 24425      3600
 24426              	.LASF119:
 24427 02f2 46413152 		.ascii	"FA1R\000"
 24427      00
 24428              	.LASF422:
 24429 02f7 75617274 		.ascii	"uartecb_t\000"
 24429      6563625F 
 24429      7400
 24430              	.LASF523:
 24431 0301 48464E55 		.ascii	"HFNUM\000"
 24431      4D00
 24432              	.LASF392:
 24433 0307 68616C5F 		.ascii	"hal_spi_driver\000"
ARM GAS  /tmp/ccs3e2Sq.s 			page 433


 24433      7370695F 
 24433      64726976 
 24433      657200
 24434              	.LASF241:
 24435 0316 716E6F74 		.ascii	"qnotify_t\000"
 24435      6966795F 
 24435      7400
 24436              	.LASF265:
 24437 0320 61646373 		.ascii	"adcstate_t\000"
 24437      74617465 
 24437      5F7400
 24438              	.LASF236:
 24439 032b 715F746F 		.ascii	"q_top\000"
 24439      7000
 24440              	.LASF474:
 24441 0331 75645F73 		.ascii	"ud_string\000"
 24441      7472696E 
 24441      6700
 24442              	.LASF336:
 24443 033b 49324344 		.ascii	"I2CDriver\000"
 24443      72697665 
 24443      7200
 24444              	.LASF318:
 24445 0345 4932435F 		.ascii	"I2C_ACTIVE_TX\000"
 24445      41435449 
 24445      56455F54 
 24445      5800
 24446              	.LASF42:
 24447 0353 72656673 		.ascii	"refs\000"
 24447      00
 24448              	.LASF324:
 24449 0358 4F504D4F 		.ascii	"OPMODE_I2C\000"
 24449      44455F49 
 24449      324300
 24450              	.LASF535:
 24451 0363 72657376 		.ascii	"resvd80C\000"
 24451      64383043 
 24451      00
 24452              	.LASF46:
 24453 036c 6D74786C 		.ascii	"mtxlist\000"
 24453      69737400 
 24454              	.LASF502:
 24455 0374 474F5447 		.ascii	"GOTGCTL\000"
 24455      43544C00 
 24456              	.LASF620:
 24457 037c 66696E61 		.ascii	"finalSrcY\000"
 24457      6C537263 
 24457      5900
 24458              	.LASF477:
 24459 0386 75736265 		.ascii	"usbepcallback_t\000"
 24459      7063616C 
 24459      6C626163 
 24459      6B5F7400 
 24460              	.LASF322:
 24461 0396 69326361 		.ascii	"i2caddr_t\000"
 24461      6464725F 
 24461      7400
ARM GAS  /tmp/ccs3e2Sq.s 			page 434


 24462              	.LASF74:
 24463 03a0 76746C69 		.ascii	"vtlist\000"
 24463      737400
 24464              	.LASF129:
 24465 03a7 54524953 		.ascii	"TRISE\000"
 24465      4500
 24466              	.LASF233:
 24467 03ad 715F7761 		.ascii	"q_waiting\000"
 24467      6974696E 
 24467      6700
 24468              	.LASF101:
 24469 03b7 43414E5F 		.ascii	"CAN_TxMailBox_TypeDef\000"
 24469      54784D61 
 24469      696C426F 
 24469      785F5479 
 24469      70654465 
 24470              	.LASF73:
 24471 03cd 726C6973 		.ascii	"rlist\000"
 24471      7400
 24472              	.LASF50:
 24473 03d3 74687265 		.ascii	"threads_list_t\000"
 24473      6164735F 
 24473      6C697374 
 24473      5F7400
 24474              	.LASF242:
 24475 03e2 696E7075 		.ascii	"input_queue_t\000"
 24475      745F7175 
 24475      6575655F 
 24475      7400
 24476              	.LASF279:
 24477 03f0 41444343 		.ascii	"ADCConversionGroup\000"
 24477      6F6E7665 
 24477      7273696F 
 24477      6E47726F 
 24477      757000
 24478              	.LASF534:
 24479 0403 44535453 		.ascii	"DSTS\000"
 24479      00
 24480              	.LASF328:
 24481 0408 5354445F 		.ascii	"STD_DUTY_CYCLE\000"
 24481      44555459 
 24481      5F435943 
 24481      4C4500
 24482              	.LASF302:
 24483 0417 43414E5F 		.ascii	"CAN_READY\000"
 24483      52454144 
 24483      5900
 24484              	.LASF304:
 24485 0421 63616E73 		.ascii	"canstate_t\000"
 24485      74617465 
 24485      5F7400
 24486              	.LASF121:
 24487 042c 7346696C 		.ascii	"sFilterRegister\000"
 24487      74657252 
 24487      65676973 
 24487      74657200 
 24488              	.LASF540:
ARM GAS  /tmp/ccs3e2Sq.s 			page 435


 24489 043c 72657376 		.ascii	"resvd820\000"
 24489      64383230 
 24489      00
 24490              	.LASF541:
 24491 0445 72657376 		.ascii	"resvd824\000"
 24491      64383234 
 24491      00
 24492              	.LASF332:
 24493 044e 6F705F6D 		.ascii	"op_mode\000"
 24493      6F646500 
 24494              	.LASF315:
 24495 0456 4932435F 		.ascii	"I2C_UNINIT\000"
 24495      554E494E 
 24495      495400
 24496              	.LASF263:
 24497 0461 4144435F 		.ascii	"ADC_COMPLETE\000"
 24497      434F4D50 
 24497      4C455445 
 24497      00
 24498              	.LASF367:
 24499 046e 53445F55 		.ascii	"SD_UNINIT\000"
 24499      4E494E49 
 24499      5400
 24500              	.LASF27:
 24501 0478 74707269 		.ascii	"tprio_t\000"
 24501      6F5F7400 
 24502              	.LASF446:
 24503 0480 73617665 		.ascii	"saved_state\000"
 24503      645F7374 
 24503      61746500 
 24504              	.LASF544:
 24505 048c 72657376 		.ascii	"resvd830\000"
 24505      64383330 
 24505      00
 24506              	.LASF317:
 24507 0495 4932435F 		.ascii	"I2C_READY\000"
 24507      52454144 
 24507      5900
 24508              	.LASF210:
 24509 049f 63685F64 		.ascii	"ch_dyn_list\000"
 24509      796E5F6C 
 24509      69737400 
 24510              	.LASF331:
 24511 04ab 69326364 		.ascii	"i2cdutycycle_t\000"
 24511      75747963 
 24511      79636C65 
 24511      5F7400
 24512              	.LASF546:
 24513 04ba 72657376 		.ascii	"resvd838\000"
 24513      64383338 
 24513      00
 24514              	.LASF277:
 24515 04c3 68616C5F 		.ascii	"hal_adc_config\000"
 24515      6164635F 
 24515      636F6E66 
 24515      696700
 24516              	.LASF272:
ARM GAS  /tmp/ccs3e2Sq.s 			page 436


 24517 04d2 74687265 		.ascii	"thread\000"
 24517      616400
 24518              	.LASF543:
 24519 04d9 44564255 		.ascii	"DVBUSPULSE\000"
 24519      5350554C 
 24519      534500
 24520              	.LASF442:
 24521 04e4 73657475 		.ascii	"setup\000"
 24521      7000
 24522              	.LASF385:
 24523 04ea 5350495F 		.ascii	"SPI_UNINIT\000"
 24523      554E494E 
 24523      495400
 24524              	.LASF170:
 24525 04f5 7A65726F 		.ascii	"zero\000"
 24525      00
 24526              	.LASF644:
 24527 04fa 2F686F6D 		.ascii	"/home/tongcheng/Downloads/RM2019_Power_Runes-master"
 24527      652F746F 
 24527      6E676368 
 24527      656E672F 
 24527      446F776E 
 24528 052d 2F524D32 		.ascii	"/RM2019_Power_Runes\000"
 24528      3031395F 
 24528      506F7765 
 24528      725F5275 
 24528      6E657300 
 24529              	.LASF547:
 24530 0541 72657376 		.ascii	"resvd83C\000"
 24530      64383343 
 24530      00
 24531              	.LASF148:
 24532 054a 43434552 		.ascii	"CCER\000"
 24532      00
 24533              	.LASF136:
 24534 054f 49325350 		.ascii	"I2SPR\000"
 24534      5200
 24535              	.LASF344:
 24536 0555 50574D5F 		.ascii	"PWM_UNINIT\000"
 24536      554E494E 
 24536      495400
 24537              	.LASF205:
 24538 0560 616C6967 		.ascii	"align\000"
 24538      6E00
 24539              	.LASF504:
 24540 0566 47414842 		.ascii	"GAHBCFG\000"
 24540      43464700 
 24541              	.LASF548:
 24542 056e 72657376 		.ascii	"resvd840\000"
 24542      64383430 
 24542      00
 24543              	.LASF132:
 24544 0577 43524350 		.ascii	"CRCPR\000"
 24544      5200
 24545              	.LASF7:
 24546 057d 5F5F696E 		.ascii	"__int16_t\000"
 24546      7431365F 
ARM GAS  /tmp/ccs3e2Sq.s 			page 437


 24546      7400
 24547              	.LASF9:
 24548 0587 5F5F7569 		.ascii	"__uint16_t\000"
 24548      6E743136 
 24548      5F7400
 24549              	.LASF501:
 24550 0592 73746D33 		.ascii	"stm32_otg_out_ep_t\000"
 24550      325F6F74 
 24550      675F6F75 
 24550      745F6570 
 24550      5F7400
 24551              	.LASF510:
 24552 05a5 47525853 		.ascii	"GRXSTSP\000"
 24552      54535000 
 24553              	.LASF509:
 24554 05ad 47525853 		.ascii	"GRXSTSR\000"
 24554      54535200 
 24555              	.LASF125:
 24556 05b5 4D314152 		.ascii	"M1AR\000"
 24556      00
 24557              	.LASF126:
 24558 05ba 444D415F 		.ascii	"DMA_Stream_TypeDef\000"
 24558      53747265 
 24558      616D5F54 
 24558      79706544 
 24558      656600
 24559              	.LASF600:
 24560 05cd 46367838 		.ascii	"F6x8\000"
 24560      00
 24561              	.LASF454:
 24562 05d2 5553425F 		.ascii	"USB_ACTIVE\000"
 24562      41435449 
 24562      564500
 24563              	.LASF451:
 24564 05dd 5553425F 		.ascii	"USB_STOP\000"
 24564      53544F50 
 24564      00
 24565              	.LASF36:
 24566 05e6 6E657765 		.ascii	"newer\000"
 24566      7200
 24567              	.LASF497:
 24568 05ec 73746D33 		.ascii	"stm32_otg_in_ep_t\000"
 24568      325F6F74 
 24568      675F696E 
 24568      5F65705F 
 24568      7400
 24569              	.LASF244:
 24570 05fe 74687265 		.ascii	"threads\000"
 24570      61647300 
 24571              	.LASF566:
 24572 0606 7278636E 		.ascii	"rxcnt\000"
 24572      7400
 24573              	.LASF259:
 24574 060c 4144435F 		.ascii	"ADC_UNINIT\000"
 24574      554E494E 
 24574      495400
 24575              	.LASF339:
ARM GAS  /tmp/ccs3e2Sq.s 			page 438


 24576 0617 7278646D 		.ascii	"rxdmamode\000"
 24576      616D6F64 
 24576      6500
 24577              	.LASF358:
 24578 0621 6D6F6465 		.ascii	"mode\000"
 24578      00
 24579              	.LASF517:
 24580 0626 72657376 		.ascii	"resvd58\000"
 24580      64353800 
 24581              	.LASF245:
 24582 062e 70616C65 		.ascii	"palevent_t\000"
 24582      76656E74 
 24582      5F7400
 24583              	.LASF141:
 24584 0639 73746B61 		.ascii	"stkalign_t\000"
 24584      6C69676E 
 24584      5F7400
 24585              	.LASF556:
 24586 0644 72785F66 		.ascii	"rx_fifo_size\000"
 24586      69666F5F 
 24586      73697A65 
 24586      00
 24587              	.LASF596:
 24588 0651 6D617858 		.ascii	"maxX\000"
 24588      00
 24589              	.LASF294:
 24590 0656 4144435F 		.ascii	"ADC_ERR_WATCHDOG\000"
 24590      4552525F 
 24590      57415443 
 24590      48444F47 
 24590      00
 24591              	.LASF605:
 24592 0667 4F4C4544 		.ascii	"OLED_Display_Off\000"
 24592      5F446973 
 24592      706C6179 
 24592      5F4F6666 
 24592      00
 24593              	.LASF283:
 24594 0678 656E645F 		.ascii	"end_cb\000"
 24594      636200
 24595              	.LASF569:
 24596 067f 73657475 		.ascii	"setup_cb\000"
 24596      705F6362 
 24596      00
 24597              	.LASF6:
 24598 0688 756E7369 		.ascii	"unsigned char\000"
 24598      676E6564 
 24598      20636861 
 24598      7200
 24599              	.LASF628:
 24600 0696 706C6163 		.ascii	"placeLeft\000"
 24600      654C6566 
 24600      7400
 24601              	.LASF191:
 24602 06a0 6576656E 		.ascii	"event_listener\000"
 24602      745F6C69 
 24602      7374656E 
ARM GAS  /tmp/ccs3e2Sq.s 			page 439


 24602      657200
 24603              	.LASF306:
 24604 06af 74787175 		.ascii	"txqueue\000"
 24604      65756500 
 24605              	.LASF308:
 24606 06b7 72786675 		.ascii	"rxfull_cb\000"
 24606      6C6C5F63 
 24606      6200
 24607              	.LASF57:
 24608 06c1 72656164 		.ascii	"ready_list_t\000"
 24608      795F6C69 
 24608      73745F74 
 24608      00
 24609              	.LASF51:
 24610 06ce 63685F74 		.ascii	"ch_thread\000"
 24610      68726561 
 24610      6400
 24611              	.LASF326:
 24612 06d8 4F504D4F 		.ascii	"OPMODE_SMBUS_HOST\000"
 24612      44455F53 
 24612      4D425553 
 24612      5F484F53 
 24612      5400
 24613              	.LASF303:
 24614 06ea 43414E5F 		.ascii	"CAN_SLEEP\000"
 24614      534C4545 
 24614      5000
 24615              	.LASF299:
 24616 06f4 43414E5F 		.ascii	"CAN_UNINIT\000"
 24616      554E494E 
 24616      495400
 24617              	.LASF203:
 24618 06ff 706F6F6C 		.ascii	"pool_header\000"
 24618      5F686561 
 24618      64657200 
 24619              	.LASF68:
 24620 070b 73797374 		.ascii	"system_debug_t\000"
 24620      656D5F64 
 24620      65627567 
 24620      5F7400
 24621              	.LASF145:
 24622 071a 44494552 		.ascii	"DIER\000"
 24622      00
 24623              	.LASF278:
 24624 071f 75736544 		.ascii	"useDMA\000"
 24624      4D4100
 24625              	.LASF370:
 24626 0726 73647374 		.ascii	"sdstate_t\000"
 24626      6174655F 
 24626      7400
 24627              	.LASF63:
 24628 0730 64656C74 		.ascii	"delta\000"
 24628      6100
 24629              	.LASF85:
 24630 0736 4A4F4652 		.ascii	"JOFR1\000"
 24630      3100
 24631              	.LASF86:
ARM GAS  /tmp/ccs3e2Sq.s 			page 440


 24632 073c 4A4F4652 		.ascii	"JOFR2\000"
 24632      3200
 24633              	.LASF87:
 24634 0742 4A4F4652 		.ascii	"JOFR3\000"
 24634      3300
 24635              	.LASF88:
 24636 0748 4A4F4652 		.ascii	"JOFR4\000"
 24636      3400
 24637              	.LASF409:
 24638 074e 55415254 		.ascii	"UART_RX_ACTIVE\000"
 24638      5F52585F 
 24638      41435449 
 24638      564500
 24639              	.LASF549:
 24640 075d 72657376 		.ascii	"resvd880\000"
 24640      64383830 
 24640      00
 24641              	.LASF614:
 24642 0766 4F4C4544 		.ascii	"OLED_copyFromBuffer\000"
 24642      5F636F70 
 24642      7946726F 
 24642      6D427566 
 24642      66657200 
 24643              	.LASF134:
 24644 077a 54584352 		.ascii	"TXCRCR\000"
 24644      435200
 24645              	.LASF405:
 24646 0781 55415254 		.ascii	"UART_TX_ACTIVE\000"
 24646      5F54585F 
 24646      41435449 
 24646      564500
 24647              	.LASF314:
 24648 0790 43414E44 		.ascii	"CAND2\000"
 24648      3200
 24649              	.LASF274:
 24650 0796 646D6173 		.ascii	"dmastp\000"
 24650      747000
 24651              	.LASF330:
 24652 079d 46415354 		.ascii	"FAST_DUTY_CYCLE_16_9\000"
 24652      5F445554 
 24652      595F4359 
 24652      434C455F 
 24652      31365F39 
 24653              	.LASF22:
 24654 07b2 75696E74 		.ascii	"uint64_t\000"
 24654      36345F74 
 24654      00
 24655              	.LASF597:
 24656 07bb 6D617859 		.ascii	"maxY\000"
 24656      00
 24657              	.LASF188:
 24658 07c0 63685F64 		.ascii	"ch_debug\000"
 24658      65627567 
 24658      00
 24659              	.LASF113:
 24660 07c9 464D3152 		.ascii	"FM1R\000"
 24660      00
ARM GAS  /tmp/ccs3e2Sq.s 			page 441


 24661              	.LASF310:
 24662 07ce 77616B65 		.ascii	"wakeup_cb\000"
 24662      75705F63 
 24662      6200
 24663              	.LASF561:
 24664 07d8 7478636E 		.ascii	"txcnt\000"
 24664      7400
 24665              	.LASF478:
 24666 07de 75736265 		.ascii	"usbeventcb_t\000"
 24666      76656E74 
 24666      63625F74 
 24666      00
 24667              	.LASF190:
 24668 07eb 6576656E 		.ascii	"event_listener_t\000"
 24668      745F6C69 
 24668      7374656E 
 24668      65725F74 
 24668      00
 24669              	.LASF557:
 24670 07fc 6F74675F 		.ascii	"otg_ram_size\000"
 24670      72616D5F 
 24670      73697A65 
 24670      00
 24671              	.LASF559:
 24672 0809 73746D33 		.ascii	"stm32_otg_params_t\000"
 24672      325F6F74 
 24672      675F7061 
 24672      72616D73 
 24672      5F7400
 24673              	.LASF551:
 24674 081c 72657376 		.ascii	"resvdD00\000"
 24674      64443030 
 24674      00
 24675              	.LASF133:
 24676 0825 52584352 		.ascii	"RXCRCR\000"
 24676      435200
 24677              	.LASF419:
 24678 082c 72786275 		.ascii	"rxbuf\000"
 24678      6600
 24679              	.LASF507:
 24680 0832 47494E54 		.ascii	"GINTSTS\000"
 24680      53545300 
 24681              	.LASF165:
 24682 083a 63685F6D 		.ascii	"ch_mutex\000"
 24682      75746578 
 24682      00
 24683              	.LASF348:
 24684 0843 50574D44 		.ascii	"PWMDriver\000"
 24684      72697665 
 24684      7200
 24685              	.LASF363:
 24686 084d 50574D43 		.ascii	"PWMConfig\000"
 24686      6F6E6669 
 24686      6700
 24687              	.LASF536:
 24688 0857 44494550 		.ascii	"DIEPMSK\000"
 24688      4D534B00 
ARM GAS  /tmp/ccs3e2Sq.s 			page 442


 24689              	.LASF579:
 24690 085f 6576656E 		.ascii	"event_cb\000"
 24690      745F6362 
 24690      00
 24691              	.LASF400:
 24692 0868 55415254 		.ascii	"UART_UNINIT\000"
 24692      5F554E49 
 24692      4E495400 
 24693              	.LASF571:
 24694 0874 6F75745F 		.ascii	"out_cb\000"
 24694      636200
 24695              	.LASF527:
 24696 087b 4841494E 		.ascii	"HAINTMSK\000"
 24696      544D534B 
 24696      00
 24697              	.LASF437:
 24698 0884 6F75745F 		.ascii	"out_params\000"
 24698      70617261 
 24698      6D7300
 24699              	.LASF92:
 24700 088f 4A535152 		.ascii	"JSQR\000"
 24700      00
 24701              	.LASF213:
 24702 0894 6F626A5F 		.ascii	"obj_list\000"
 24702      6C697374 
 24702      00
 24703              	.LASF362:
 24704 089d 64696572 		.ascii	"dier\000"
 24704      00
 24705              	.LASF524:
 24706 08a2 72657376 		.ascii	"resvd40C\000"
 24706      64343043 
 24706      00
 24707              	.LASF217:
 24708 08ab 73656D5F 		.ascii	"sem_pool\000"
 24708      706F6F6C 
 24708      00
 24709              	.LASF61:
 24710 08b4 76697274 		.ascii	"virtual_timer_t\000"
 24710      75616C5F 
 24710      74696D65 
 24710      725F7400 
 24711              	.LASF345:
 24712 08c4 50574D5F 		.ascii	"PWM_STOP\000"
 24712      53544F50 
 24712      00
 24713              	.LASF343:
 24714 08cd 49324344 		.ascii	"I2CD2\000"
 24714      3200
 24715              	.LASF226:
 24716 08d3 73686966 		.ascii	"shift\000"
 24716      7400
 24717              	.LASF23:
 24718 08d9 7274636E 		.ascii	"rtcnt_t\000"
 24718      745F7400 
 24719              	.LASF273:
 24720 08e1 6D757465 		.ascii	"mutex\000"
ARM GAS  /tmp/ccs3e2Sq.s 			page 443


 24720      7800
 24721              	.LASF171:
 24722 08e7 73697A65 		.ascii	"size\000"
 24722      00
 24723              	.LASF168:
 24724 08ec 63685F69 		.ascii	"ch_idle_thread_wa\000"
 24724      646C655F 
 24724      74687265 
 24724      61645F77 
 24724      6100
 24725              	.LASF352:
 24726 08fe 636C6F63 		.ascii	"clock\000"
 24726      6B00
 24727              	.LASF166:
 24728 0904 6F776E65 		.ascii	"owner\000"
 24728      7200
 24729              	.LASF122:
 24730 090a 43414E5F 		.ascii	"CAN_TypeDef\000"
 24730      54797065 
 24730      44656600 
 24731              	.LASF491:
 24732 0916 72657376 		.ascii	"resvd4\000"
 24732      643400
 24733              	.LASF368:
 24734 091d 53445F53 		.ascii	"SD_STOP\000"
 24734      544F5000 
 24735              	.LASF482:
 24736 0925 72657376 		.ascii	"resvd8\000"
 24736      643800
 24737              	.LASF4:
 24738 092c 73697A65 		.ascii	"size_t\000"
 24738      5F7400
 24739              	.LASF169:
 24740 0933 6964656E 		.ascii	"identifier\000"
 24740      74696669 
 24740      657200
 24741              	.LASF17:
 24742 093e 75696E74 		.ascii	"uint8_t\000"
 24742      385F7400 
 24743              	.LASF486:
 24744 0946 72657376 		.ascii	"resvd14\000"
 24744      64313400 
 24745              	.LASF487:
 24746 094e 72657376 		.ascii	"resvd18\000"
 24746      64313800 
 24747              	.LASF633:
 24748 0956 6D61736B 		.ascii	"masked\000"
 24748      656400
 24749              	.LASF496:
 24750 095d 72657376 		.ascii	"resvd1C\000"
 24750      64314300 
 24751              	.LASF360:
 24752 0965 50574D43 		.ascii	"PWMChannelConfig\000"
 24752      68616E6E 
 24752      656C436F 
 24752      6E666967 
 24752      00
ARM GAS  /tmp/ccs3e2Sq.s 			page 444


 24753              	.LASF395:
 24754 0976 73736C69 		.ascii	"ssline\000"
 24754      6E6500
 24755              	.LASF204:
 24756 097d 6F626A65 		.ascii	"object_size\000"
 24756      63745F73 
 24756      697A6500 
 24757              	.LASF545:
 24758 0989 44494550 		.ascii	"DIEPEMPMSK\000"
 24758      454D504D 
 24758      534B00
 24759              	.LASF490:
 24760 0994 44494550 		.ascii	"DIEPCTL\000"
 24760      43544C00 
 24761              	.LASF608:
 24762 099c 70616765 		.ascii	"page\000"
 24762      00
 24763              	.LASF447:
 24764 09a1 6F746770 		.ascii	"otgparams\000"
 24764      6172616D 
 24764      7300
 24765              	.LASF157:
 24766 09ab 65786974 		.ascii	"exitcode\000"
 24766      636F6465 
 24766      00
 24767              	.LASF575:
 24768 09b4 6F75745F 		.ascii	"out_state\000"
 24768      73746174 
 24768      6500
 24769              	.LASF231:
 24770 09be 696F5F71 		.ascii	"io_queue_t\000"
 24770      75657565 
 24770      5F7400
 24771              	.LASF219:
 24772 09c9 6669666F 		.ascii	"fifo_list\000"
 24772      5F6C6973 
 24772      7400
 24773              	.LASF316:
 24774 09d3 4932435F 		.ascii	"I2C_STOP\000"
 24774      53544F50 
 24774      00
 24775              	.LASF338:
 24776 09dc 61646472 		.ascii	"addr\000"
 24776      00
 24777              	.LASF107:
 24778 09e1 52463052 		.ascii	"RF0R\000"
 24778      00
 24779              	.LASF292:
 24780 09e6 4144435F 		.ascii	"ADC_ERR_DMAFAILURE\000"
 24780      4552525F 
 24780      444D4146 
 24780      41494C55 
 24780      524500
 24781              	.LASF388:
 24782 09f9 5350495F 		.ascii	"SPI_ACTIVE\000"
 24782      41435449 
 24782      564500
ARM GAS  /tmp/ccs3e2Sq.s 			page 445


 24783              	.LASF639:
 24784 0a04 4F4C4544 		.ascii	"OLED_Write_Byte\000"
 24784      5F577269 
 24784      74655F42 
 24784      79746500 
 24785              	.LASF192:
 24786 0a14 6C697374 		.ascii	"listener\000"
 24786      656E6572 
 24786      00
 24787              	.LASF249:
 24788 0a1d 4F535045 		.ascii	"OSPEEDR\000"
 24788      45445200 
 24789              	.LASF514:
 24790 0a25 72657376 		.ascii	"resvd30\000"
 24790      64333000 
 24791              	.LASF515:
 24792 0a2d 72657376 		.ascii	"resvd34\000"
 24792      64333400 
 24793              	.LASF377:
 24794 0a35 53657269 		.ascii	"SerialDriverVMT\000"
 24794      616C4472 
 24794      69766572 
 24794      564D5400 
 24795              	.LASF173:
 24796 0a45 70747273 		.ascii	"ptrsize\000"
 24796      697A6500 
 24797              	.LASF463:
 24798 0a4d 5553425F 		.ascii	"USB_EP0_ERROR\000"
 24798      4550305F 
 24798      4552524F 
 24798      5200
 24799              	.LASF462:
 24800 0a5b 5553425F 		.ascii	"USB_EP0_OUT_RX\000"
 24800      4550305F 
 24800      4F55545F 
 24800      525800
 24801              	.LASF108:
 24802 0a6a 52463152 		.ascii	"RF1R\000"
 24802      00
 24803              	.LASF266:
 24804 0a6f 41444344 		.ascii	"ADCDriver\000"
 24804      72697665 
 24804      7200
 24805              	.LASF558:
 24806 0a79 6E756D5F 		.ascii	"num_endpoints\000"
 24806      656E6470 
 24806      6F696E74 
 24806      7300
 24807              	.LASF276:
 24808 0a87 41444343 		.ascii	"ADCConfig\000"
 24808      6F6E6669 
 24808      6700
 24809              	.LASF563:
 24810 0a91 746F7473 		.ascii	"totsize\000"
 24810      697A6500 
 24811              	.LASF480:
 24812 0a99 75736267 		.ascii	"usbgetdescriptor_t\000"
ARM GAS  /tmp/ccs3e2Sq.s 			page 446


 24812      65746465 
 24812      73637269 
 24812      70746F72 
 24812      5F7400
 24813              	.LASF438:
 24814 0aac 65703073 		.ascii	"ep0state\000"
 24814      74617465 
 24814      00
 24815              	.LASF201:
 24816 0ab5 6D656D63 		.ascii	"memcore_t\000"
 24816      6F72655F 
 24816      7400
 24817              	.LASF641:
 24818 0abf 63685468 		.ascii	"chThdSleep\000"
 24818      64536C65 
 24818      657000
 24819              	.LASF224:
 24820 0aca 69666372 		.ascii	"ifcr\000"
 24820      00
 24821              	.LASF629:
 24822 0acf 4F4C4544 		.ascii	"OLED_Clear\000"
 24822      5F436C65 
 24822      617200
 24823              	.LASF573:
 24824 0ada 6F75745F 		.ascii	"out_maxsize\000"
 24824      6D617873 
 24824      697A6500 
 24825              	.LASF255:
 24826 0ae6 73746D33 		.ascii	"stm32_gpio_t\000"
 24826      325F6770 
 24826      696F5F74 
 24826      00
 24827              	.LASF156:
 24828 0af3 7264796D 		.ascii	"rdymsg\000"
 24828      736700
 24829              	.LASF346:
 24830 0afa 50574D5F 		.ascii	"PWM_READY\000"
 24830      52454144 
 24830      5900
 24831              	.LASF98:
 24832 0b04 54445452 		.ascii	"TDTR\000"
 24832      00
 24833              	.LASF106:
 24834 0b09 43414E5F 		.ascii	"CAN_FilterRegister_TypeDef\000"
 24834      46696C74 
 24834      65725265 
 24834      67697374 
 24834      65725F54 
 24835              	.LASF417:
 24836 0b24 74687265 		.ascii	"threadrx\000"
 24836      61647278 
 24836      00
 24837              	.LASF282:
 24838 0b2d 6E756D5F 		.ascii	"num_channels\000"
 24838      6368616E 
 24838      6E656C73 
 24838      00
ARM GAS  /tmp/ccs3e2Sq.s 			page 447


 24839              	.LASF220:
 24840 0b3a 70697065 		.ascii	"pipe_list\000"
 24840      5F6C6973 
 24840      7400
 24841              	.LASF564:
 24842 0b44 55534249 		.ascii	"USBInEndpointState\000"
 24842      6E456E64 
 24842      706F696E 
 24842      74537461 
 24842      746500
 24843              	.LASF374:
 24844 0b57 6F717565 		.ascii	"oqueue\000"
 24844      756500
 24845              	.LASF232:
 24846 0b5e 696F5F71 		.ascii	"io_queue\000"
 24846      75657565 
 24846      00
 24847              	.LASF15:
 24848 0b67 5F5F7569 		.ascii	"__uint64_t\000"
 24848      6E743634 
 24848      5F7400
 24849              	.LASF176:
 24850 0b72 6F66665F 		.ascii	"off_prio\000"
 24850      7072696F 
 24850      00
 24851              	.LASF211:
 24852 0b7b 64796E5F 		.ascii	"dyn_list_t\000"
 24852      6C697374 
 24852      5F7400
 24853              	.LASF645:
 24854 0b86 466F6E74 		.ascii	"FontSize\000"
 24854      53697A65 
 24854      00
 24855              	.LASF353:
 24856 0b8f 70776D63 		.ascii	"pwmcallback_t\000"
 24856      616C6C62 
 24856      61636B5F 
 24856      7400
 24857              	.LASF321:
 24858 0b9d 69326373 		.ascii	"i2cstate_t\000"
 24858      74617465 
 24858      5F7400
 24859              	.LASF43:
 24860 0ba8 77616974 		.ascii	"waiting\000"
 24860      696E6700 
 24861              	.LASF464:
 24862 0bb0 75736265 		.ascii	"usbep0state_t\000"
 24862      70307374 
 24862      6174655F 
 24862      7400
 24863              	.LASF110:
 24864 0bbe 7354784D 		.ascii	"sTxMailBox\000"
 24864      61696C42 
 24864      6F7800
 24865              	.LASF290:
 24866 0bc9 61646373 		.ascii	"adcsample_t\000"
 24866      616D706C 
ARM GAS  /tmp/ccs3e2Sq.s 			page 448


 24866      655F7400 
 24867              	.LASF235:
 24868 0bd5 715F6275 		.ascii	"q_buffer\000"
 24868      66666572 
 24868      00
 24869              	.LASF142:
 24870 0bde 706F7274 		.ascii	"port_context\000"
 24870      5F636F6E 
 24870      74657874 
 24870      00
 24871              	.LASF433:
 24872 0beb 55534244 		.ascii	"USBDriver\000"
 24872      72697665 
 24872      7200
 24873              	.LASF550:
 24874 0bf5 72657376 		.ascii	"resvd8C0\000"
 24874      64384330 
 24874      00
 24875              	.LASF583:
 24876 0bfe 55534243 		.ascii	"USBConfig\000"
 24876      6F6E6669 
 24876      6700
 24877              	.LASF493:
 24878 0c08 72657376 		.ascii	"resvdC\000"
 24878      644300
 24879              	.LASF364:
 24880 0c0f 50574D44 		.ascii	"PWMD1\000"
 24880      3100
 24881              	.LASF603:
 24882 0c15 4F4C4544 		.ascii	"OLED_COLUMN_COUNT\000"
 24882      5F434F4C 
 24882      554D4E5F 
 24882      434F554E 
 24882      5400
 24883              	.LASF365:
 24884 0c27 50574D44 		.ascii	"PWMD3\000"
 24884      3300
 24885              	.LASF418:
 24886 0c2d 74687265 		.ascii	"threadtx\000"
 24886      61647478 
 24886      00
 24887              	.LASF631:
 24888 0c36 4F4C4544 		.ascii	"OLED_writeData\000"
 24888      5F777269 
 24888      74654461 
 24888      746100
 24889              	.LASF26:
 24890 0c45 74726566 		.ascii	"trefs_t\000"
 24890      735F7400 
 24891              	.LASF623:
 24892 0c4d 62727573 		.ascii	"brush\000"
 24892      6800
 24893              	.LASF78:
 24894 0c53 74696D65 		.ascii	"time_conv_t\000"
 24894      5F636F6E 
 24894      765F7400 
 24895              	.LASF576:
ARM GAS  /tmp/ccs3e2Sq.s 			page 449


 24896 0c5f 696E5F6D 		.ascii	"in_multiplier\000"
 24896      756C7469 
 24896      706C6965 
 24896      7200
 24897              	.LASF264:
 24898 0c6d 4144435F 		.ascii	"ADC_ERROR\000"
 24898      4552524F 
 24898      5200
 24899              	.LASF24:
 24900 0c77 746D6F64 		.ascii	"tmode_t\000"
 24900      655F7400 
 24901              	.LASF262:
 24902 0c7f 4144435F 		.ascii	"ADC_ACTIVE\000"
 24902      41435449 
 24902      564500
 24903              	.LASF89:
 24904 0c8a 53515231 		.ascii	"SQR1\000"
 24904      00
 24905              	.LASF90:
 24906 0c8f 53515232 		.ascii	"SQR2\000"
 24906      00
 24907              	.LASF91:
 24908 0c94 53515233 		.ascii	"SQR3\000"
 24908      00
 24909              	.LASF413:
 24910 0c99 55415254 		.ascii	"UARTDriver\000"
 24910      44726976 
 24910      657200
 24911              	.LASF251:
 24912 0ca4 42535252 		.ascii	"BSRR\000"
 24912      00
 24913              	.LASF429:
 24914 0ca9 55415254 		.ascii	"UARTConfig\000"
 24914      436F6E66 
 24914      696700
 24915              	.LASF229:
 24916 0cb4 73746D33 		.ascii	"stm32_dma_stream_t\000"
 24916      325F646D 
 24916      615F7374 
 24916      7265616D 
 24916      5F7400
 24917              	.LASF581:
 24918 0cc7 72657175 		.ascii	"requests_hook_cb\000"
 24918      65737473 
 24918      5F686F6F 
 24918      6B5F6362 
 24918      00
 24919              	.LASF340:
 24920 0cd8 7478646D 		.ascii	"txdmamode\000"
 24920      616D6F64 
 24920      6500
 24921              	.LASF630:
 24922 0ce2 4F4C4544 		.ascii	"OLED_drawChar\000"
 24922      5F647261 
 24922      77436861 
 24922      7200
 24923              	.LASF560:
ARM GAS  /tmp/ccs3e2Sq.s 			page 450


 24924 0cf0 74787369 		.ascii	"txsize\000"
 24924      7A6500
 24925              	.LASF423:
 24926 0cf7 7478656E 		.ascii	"txend1_cb\000"
 24926      64315F63 
 24926      6200
 24927              	.LASF430:
 24928 0d01 55415254 		.ascii	"UARTD1\000"
 24928      443100
 24929              	.LASF431:
 24930 0d08 55415254 		.ascii	"UARTD6\000"
 24930      443600
 24931              	.LASF280:
 24932 0d0f 68616C5F 		.ascii	"hal_adc_configuration_group\000"
 24932      6164635F 
 24932      636F6E66 
 24932      69677572 
 24932      6174696F 
 24933              	.LASF349:
 24934 0d2b 70657269 		.ascii	"period\000"
 24934      6F6400
 24935              	.LASF426:
 24936 0d32 72786368 		.ascii	"rxchar_cb\000"
 24936      61725F63 
 24936      6200
 24937              	.LASF320:
 24938 0d3c 4932435F 		.ascii	"I2C_LOCKED\000"
 24938      4C4F434B 
 24938      454400
 24939              	.LASF252:
 24940 0d47 4C4F434B 		.ascii	"LOCKR\000"
 24940      5200
 24941              	.LASF636:
 24942 0d4d 72657375 		.ascii	"result\000"
 24942      6C7400
 24943              	.LASF452:
 24944 0d54 5553425F 		.ascii	"USB_READY\000"
 24944      52454144 
 24944      5900
 24945              	.LASF384:
 24946 0d5e 72656164 		.ascii	"readt\000"
 24946      7400
 24947              	.LASF38:
 24948 0d64 6E616D65 		.ascii	"name\000"
 24948      00
 24949              	.LASF421:
 24950 0d69 75617274 		.ascii	"uartccb_t\000"
 24950      6363625F 
 24950      7400
 24951              	.LASF604:
 24952 0d73 4F4C4544 		.ascii	"OLED_Init\000"
 24952      5F496E69 
 24952      7400
 24953              	.LASF70:
 24954 0d7d 70616E69 		.ascii	"panic_msg\000"
 24954      635F6D73 
 24954      6700
ARM GAS  /tmp/ccs3e2Sq.s 			page 451


 24955              	.LASF389:
 24956 0d87 5350495F 		.ascii	"SPI_COMPLETE\000"
 24956      434F4D50 
 24956      4C455445 
 24956      00
 24957              	.LASF471:
 24958 0d94 5553425F 		.ascii	"USB_EVENT_STALLED\000"
 24958      4556454E 
 24958      545F5354 
 24958      414C4C45 
 24958      4400
 24959              	.LASF152:
 24960 0da6 43435852 		.ascii	"CCXR\000"
 24960      00
 24961              	.LASF565:
 24962 0dab 72787369 		.ascii	"rxsize\000"
 24962      7A6500
 24963              	.LASF485:
 24964 0db2 48435453 		.ascii	"HCTSIZ\000"
 24964      495A00
 24965              	.LASF467:
 24966 0db9 5553425F 		.ascii	"USB_EVENT_CONFIGURED\000"
 24966      4556454E 
 24966      545F434F 
 24966      4E464947 
 24966      55524544 
 24967              	.LASF590:
 24968 0dce 73656374 		.ascii	"sectionCount\000"
 24968      696F6E43 
 24968      6F756E74 
 24968      00
 24969              	.LASF381:
 24970 0ddb 70757474 		.ascii	"putt\000"
 24970      00
 24971              	.LASF196:
 24972 0de0 6576656E 		.ascii	"event_source_t\000"
 24972      745F736F 
 24972      75726365 
 24972      5F7400
 24973              	.LASF520:
 24974 0def 72657376 		.ascii	"resvd140\000"
 24974      64313430 
 24974      00
 24975              	.LASF256:
 24976 0df8 696F706F 		.ascii	"ioportmask_t\000"
 24976      72746D61 
 24976      736B5F74 
 24976      00
 24977              	.LASF469:
 24978 0e05 5553425F 		.ascii	"USB_EVENT_SUSPEND\000"
 24978      4556454E 
 24978      545F5355 
 24978      5350454E 
 24978      4400
 24979              	.LASF18:
 24980 0e17 696E7431 		.ascii	"int16_t\000"
 24980      365F7400 
ARM GAS  /tmp/ccs3e2Sq.s 			page 452


 24981              	.LASF97:
 24982 0e1f 4144435F 		.ascii	"ADC_TypeDef\000"
 24982      54797065 
 24982      44656600 
 24983              	.LASF10:
 24984 0e2b 73686F72 		.ascii	"short unsigned int\000"
 24984      7420756E 
 24984      7369676E 
 24984      65642069 
 24984      6E7400
 24985              	.LASF3:
 24986 0e3e 7369676E 		.ascii	"signed char\000"
 24986      65642063 
 24986      68617200 
 24987              	.LASF32:
 24988 0e4a 75636E74 		.ascii	"ucnt_t\000"
 24988      5F7400
 24989              	.LASF100:
 24990 0e51 54444852 		.ascii	"TDHR\000"
 24990      00
 24991              	.LASF260:
 24992 0e56 4144435F 		.ascii	"ADC_STOP\000"
 24992      53544F50 
 24992      00
 24993              	.LASF59:
 24994 0e5f 63757272 		.ascii	"current\000"
 24994      656E7400 
 24995              	.LASF354:
 24996 0e67 70776D6D 		.ascii	"pwmmode_t\000"
 24996      6F64655F 
 24996      7400
 24997              	.LASF443:
 24998 0e71 73746174 		.ascii	"status\000"
 24998      757300
 24999              	.LASF186:
 25000 0e78 6F66665F 		.ascii	"off_time\000"
 25000      74696D65 
 25000      00
 25001              	.LASF627:
 25002 0e81 636F756E 		.ascii	"count\000"
 25002      7400
 25003              	.LASF177:
 25004 0e87 6F66665F 		.ascii	"off_ctx\000"
 25004      63747800 
 25005              	.LASF67:
 25006 0e8f 6C617374 		.ascii	"lasttime\000"
 25006      74696D65 
 25006      00
 25007              	.LASF415:
 25008 0e98 72787374 		.ascii	"rxstate\000"
 25008      61746500 
 25009              	.LASF444:
 25010 0ea0 61646472 		.ascii	"address\000"
 25010      65737300 
 25011              	.LASF44:
 25012 0ea8 6D736771 		.ascii	"msgqueue\000"
 25012      75657565 
ARM GAS  /tmp/ccs3e2Sq.s 			page 453


 25012      00
 25013              	.LASF626:
 25014 0eb1 63687257 		.ascii	"chrWidth\000"
 25014      69647468 
 25014      00
 25015              	.LASF184:
 25016 0eba 6F66665F 		.ascii	"off_refs\000"
 25016      72656673 
 25016      00
 25017              	.LASF80:
 25018 0ec3 53797374 		.ascii	"SystemCoreClock\000"
 25018      656D436F 
 25018      7265436C 
 25018      6F636B00 
 25019              	.LASF298:
 25020 0ed3 61646365 		.ascii	"adcerrorcallback_t\000"
 25020      72726F72 
 25020      63616C6C 
 25020      6261636B 
 25020      5F7400
 25021              	.LASF40:
 25022 0ee6 73746174 		.ascii	"state\000"
 25022      6500
 25023              	.LASF612:
 25024 0eec 4F4C4544 		.ascii	"OLED_setMode\000"
 25024      5F736574 
 25024      4D6F6465 
 25024      00
 25025              	.LASF619:
 25026 0ef9 66696E61 		.ascii	"finalSrcX\000"
 25026      6C537263 
 25026      5800
 25027              	.LASF131:
 25028 0f03 4932435F 		.ascii	"I2C_TypeDef\000"
 25028      54797065 
 25028      44656600 
 25029              	.LASF104:
 25030 0f0f 52444852 		.ascii	"RDHR\000"
 25030      00
 25031              	.LASF591:
 25032 0f14 70616765 		.ascii	"pageCount\000"
 25032      436F756E 
 25032      7400
 25033              	.LASF150:
 25034 0f1e 444D4152 		.ascii	"DMAR\000"
 25034      00
 25035              	.LASF359:
 25036 0f23 63616C6C 		.ascii	"callback\000"
 25036      6261636B 
 25036      00
 25037              	.LASF72:
 25038 0f2c 63685F73 		.ascii	"ch_system\000"
 25038      79737465 
 25038      6D00
 25039              	.LASF39:
 25040 0f36 77616261 		.ascii	"wabase\000"
 25040      736500
ARM GAS  /tmp/ccs3e2Sq.s 			page 454


 25041              	.LASF408:
 25042 0f3d 55415254 		.ascii	"UART_RX_IDLE\000"
 25042      5F52585F 
 25042      49444C45 
 25042      00
 25043              	.LASF64:
 25044 0f4a 66756E63 		.ascii	"func\000"
 25044      00
 25045              	.LASF164:
 25046 0f4f 63685F73 		.ascii	"ch_semaphore\000"
 25046      656D6170 
 25046      686F7265 
 25046      00
 25047              	.LASF183:
 25048 0f5c 6F66665F 		.ascii	"off_flags\000"
 25048      666C6167 
 25048      7300
 25049              	.LASF209:
 25050 0f66 64796E5F 		.ascii	"dyn_element_t\000"
 25050      656C656D 
 25050      656E745F 
 25050      7400
 25051              	.LASF494:
 25052 0f74 44494550 		.ascii	"DIEPTSIZ\000"
 25052      5453495A 
 25052      00
 25053              	.LASF48:
 25054 0f7d 6D706F6F 		.ascii	"mpool\000"
 25054      6C00
 25055              	.LASF285:
 25056 0f83 736D7072 		.ascii	"smpr1\000"
 25056      3100
 25057              	.LASF286:
 25058 0f89 736D7072 		.ascii	"smpr2\000"
 25058      3200
 25059              	.LASF54:
 25060 0f8f 74687265 		.ascii	"threads_queue_t\000"
 25060      6164735F 
 25060      71756575 
 25060      655F7400 
 25061              	.LASF357:
 25062 0f9f 70776D63 		.ascii	"pwmcnt_t\000"
 25062      6E745F74 
 25062      00
 25063              	.LASF139:
 25064 0fa8 55534152 		.ascii	"USART_TypeDef\000"
 25064      545F5479 
 25064      70654465 
 25064      6600
 25065              	.LASF568:
 25066 0fb6 65705F6D 		.ascii	"ep_mode\000"
 25066      6F646500 
 25067              	.LASF355:
 25068 0fbe 70776D63 		.ascii	"pwmchannel_t\000"
 25068      68616E6E 
 25068      656C5F74 
 25068      00
ARM GAS  /tmp/ccs3e2Sq.s 			page 455


 25069              	.LASF99:
 25070 0fcb 54444C52 		.ascii	"TDLR\000"
 25070      00
 25071              	.LASF12:
 25072 0fd0 6C6F6E67 		.ascii	"long int\000"
 25072      20696E74 
 25072      00
 25073              	.LASF75:
 25074 0fd9 6D61696E 		.ascii	"mainthread\000"
 25074      74687265 
 25074      616400
 25075              	.LASF440:
 25076 0fe4 6570306E 		.ascii	"ep0n\000"
 25076      00
 25077              	.LASF553:
 25078 0fe9 72657376 		.ascii	"resvdE04\000"
 25078      64453034 
 25078      00
 25079              	.LASF296:
 25080 0ff2 41444344 		.ascii	"ADCD1\000"
 25080      3100
 25081              	.LASF521:
 25082 0ff8 48434647 		.ascii	"HCFG\000"
 25082      00
 25083              	.LASF275:
 25084 0ffd 646D616D 		.ascii	"dmamode\000"
 25084      6F646500 
 25085              	.LASF397:
 25086 1005 53504944 		.ascii	"SPID1\000"
 25086      3100
 25087              	.LASF382:
 25088 100b 67657474 		.ascii	"gett\000"
 25088      00
 25089              	.LASF267:
 25090 1010 68616C5F 		.ascii	"hal_adc_driver\000"
 25090      6164635F 
 25090      64726976 
 25090      657200
 25091              	.LASF398:
 25092 101f 53504944 		.ascii	"SPID4\000"
 25092      3400
 25093              	.LASF399:
 25094 1025 53504944 		.ascii	"SPID5\000"
 25094      3500
 25095              	.LASF403:
 25096 102b 75617274 		.ascii	"uartstate_t\000"
 25096      73746174 
 25096      655F7400 
 25097              	.LASF200:
 25098 1037 656E646D 		.ascii	"endmem\000"
 25098      656D00
 25099              	.LASF159:
 25100 103e 77747472 		.ascii	"wttrp\000"
 25100      7000
 25101              	.LASF238:
 25102 1044 715F7264 		.ascii	"q_rdptr\000"
 25102      70747200 
ARM GAS  /tmp/ccs3e2Sq.s 			page 456


 25103              	.LASF503:
 25104 104c 474F5447 		.ascii	"GOTGINT\000"
 25104      494E5400 
 25105              	.LASF379:
 25106 1054 77726974 		.ascii	"write\000"
 25106      6500
 25107              	.LASF373:
 25108 105a 69717565 		.ascii	"iqueue\000"
 25108      756500
 25109              	.LASF570:
 25110 1061 696E5F63 		.ascii	"in_cb\000"
 25110      6200
 25111              	.LASF499:
 25112 1067 444F4550 		.ascii	"DOEPINT\000"
 25112      494E5400 
 25113              	.LASF635:
 25114 106f 6C617374 		.ascii	"last\000"
 25114      00
 25115              	.LASF599:
 25116 1074 4F4C4544 		.ascii	"OLED_BufferLike\000"
 25116      5F427566 
 25116      6665724C 
 25116      696B6500 
 25117              	.LASF215:
 25118 1084 6275665F 		.ascii	"buf_list\000"
 25118      6C697374 
 25118      00
 25119              	.LASF21:
 25120 108d 75696E74 		.ascii	"uint32_t\000"
 25120      33325F74 
 25120      00
 25121              	.LASF181:
 25122 1096 6F66665F 		.ascii	"off_stklimit\000"
 25122      73746B6C 
 25122      696D6974 
 25122      00
 25123              	.LASF479:
 25124 10a3 75736272 		.ascii	"usbreqhandler_t\000"
 25124      65716861 
 25124      6E646C65 
 25124      725F7400 
 25125              	.LASF103:
 25126 10b3 52444C52 		.ascii	"RDLR\000"
 25126      00
 25127              	.LASF647:
 25128 10b8 4F4C4544 		.ascii	"OLED_BufferInit\000"
 25128      5F427566 
 25128      66657249 
 25128      6E697400 
 25129              	.LASF2:
 25130 10c8 6C6F6E67 		.ascii	"long double\000"
 25130      20646F75 
 25130      626C6500 
 25131              	.LASF185:
 25132 10d4 6F66665F 		.ascii	"off_preempt\000"
 25132      70726565 
 25132      6D707400 
ARM GAS  /tmp/ccs3e2Sq.s 			page 457


 25133              	.LASF140:
 25134 10e0 72656761 		.ascii	"regarm_t\000"
 25134      726D5F74 
 25134      00
 25135              	.LASF29:
 25136 10e9 6576656E 		.ascii	"eventmask_t\000"
 25136      746D6173 
 25136      6B5F7400 
 25137              	.LASF270:
 25138 10f5 64657074 		.ascii	"depth\000"
 25138      6800
 25139              	.LASF117:
 25140 10fb 46464131 		.ascii	"FFA1R\000"
 25140      5200
 25141              	.LASF453:
 25142 1101 5553425F 		.ascii	"USB_SELECTED\000"
 25142      53454C45 
 25142      43544544 
 25142      00
 25143              	.LASF14:
 25144 110e 6C6F6E67 		.ascii	"long unsigned int\000"
 25144      20756E73 
 25144      69676E65 
 25144      6420696E 
 25144      7400
 25145              	.LASF625:
 25146 1120 6D756C74 		.ascii	"multiline\000"
 25146      696C696E 
 25146      6500
 25147              	.LASF237:
 25148 112a 715F7772 		.ascii	"q_wrptr\000"
 25148      70747200 
 25149              	.LASF634:
 25150 1132 4F4C4544 		.ascii	"OLED_setPos\000"
 25150      5F736574 
 25150      506F7300 
 25151              	.LASF466:
 25152 113e 5553425F 		.ascii	"USB_EVENT_ADDRESS\000"
 25152      4556454E 
 25152      545F4144 
 25152      44524553 
 25152      5300
 25153              	.LASF420:
 25154 1150 75617274 		.ascii	"uartcb_t\000"
 25154      63625F74 
 25154      00
 25155              	.LASF410:
 25156 1159 55415254 		.ascii	"UART_RX_COMPLETE\000"
 25156      5F52585F 
 25156      434F4D50 
 25156      4C455445 
 25156      00
 25157              	.LASF179:
 25158 116a 6F66665F 		.ascii	"off_older\000"
 25158      6F6C6465 
 25158      7200
 25159              	.LASF472:
ARM GAS  /tmp/ccs3e2Sq.s 			page 458


 25160 1174 75736265 		.ascii	"usbevent_t\000"
 25160      76656E74 
 25160      5F7400
 25161              	.LASF167:
 25162 117f 63686172 		.ascii	"char\000"
 25162      00
 25163              	.LASF312:
 25164 1184 43414E43 		.ascii	"CANConfig\000"
 25164      6F6E6669 
 25164      6700
 25165              	.LASF475:
 25166 118e 55534244 		.ascii	"USBDescriptor\000"
 25166      65736372 
 25166      6970746F 
 25166      7200
 25167              	.LASF350:
 25168 119c 656E6162 		.ascii	"enabled\000"
 25168      6C656400 
 25169              	.LASF82:
 25170 11a4 41504250 		.ascii	"APBPrescTable\000"
 25170      72657363 
 25170      5461626C 
 25170      6500
 25171              	.LASF511:
 25172 11b2 47525846 		.ascii	"GRXFSIZ\000"
 25172      53495A00 
 25173              	.LASF375:
 25174 11ba 75736172 		.ascii	"usart\000"
 25174      7400
 25175              	.LASF240:
 25176 11c0 715F6C69 		.ascii	"q_link\000"
 25176      6E6B00
 25177              	.LASF532:
 25178 11c7 44434647 		.ascii	"DCFG\000"
 25178      00
 25179              	.LASF508:
 25180 11cc 47494E54 		.ascii	"GINTMSK\000"
 25180      4D534B00 
 25181              	.LASF513:
 25182 11d4 484E5054 		.ascii	"HNPTXSTS\000"
 25182      58535453 
 25182      00
 25183              	.LASF445:
 25184 11dd 636F6E66 		.ascii	"configuration\000"
 25184      69677572 
 25184      6174696F 
 25184      6E00
 25185              	.LASF461:
 25186 11eb 5553425F 		.ascii	"USB_EP0_OUT_WAITING_STS\000"
 25186      4550305F 
 25186      4F55545F 
 25186      57414954 
 25186      494E475F 
 25187              	.LASF230:
 25188 1203 5F73746D 		.ascii	"_stm32_dma_streams\000"
 25188      33325F64 
 25188      6D615F73 
ARM GAS  /tmp/ccs3e2Sq.s 			page 459


 25188      74726561 
 25188      6D7300
 25189              	.LASF593:
 25190 1216 62756666 		.ascii	"buffer\000"
 25190      657200
 25191              	.LASF495:
 25192 121d 44545846 		.ascii	"DTXFSTS\000"
 25192      53545300 
 25193              	.LASF297:
 25194 1225 61646363 		.ascii	"adccallback_t\000"
 25194      616C6C62 
 25194      61636B5F 
 25194      7400
 25195              	.LASF31:
 25196 1233 636E745F 		.ascii	"cnt_t\000"
 25196      7400
 25197              	.LASF439:
 25198 1239 6570306E 		.ascii	"ep0next\000"
 25198      65787400 
 25199              	.LASF376:
 25200 1241 72786D61 		.ascii	"rxmask\000"
 25200      736B00
 25201              	.LASF489:
 25202 1248 73746D33 		.ascii	"stm32_otg_host_chn_t\000"
 25202      325F6F74 
 25202      675F686F 
 25202      73745F63 
 25202      686E5F74 
 25203              	.LASF457:
 25204 125d 5553425F 		.ascii	"USB_EP0_STP_WAITING\000"
 25204      4550305F 
 25204      5354505F 
 25204      57414954 
 25204      494E4700 
 25205              	.LASF254:
 25206 1271 41465248 		.ascii	"AFRH\000"
 25206      00
 25207              	.LASF253:
 25208 1276 4146524C 		.ascii	"AFRL\000"
 25208      00
 25209              	.LASF182:
 25210 127b 6F66665F 		.ascii	"off_state\000"
 25210      73746174 
 25210      6500
 25211              	.LASF624:
 25212 1285 4F4C4544 		.ascii	"OLED_drawString\000"
 25212      5F647261 
 25212      77537472 
 25212      696E6700 
 25213              	.LASF498:
 25214 1295 444F4550 		.ascii	"DOEPCTL\000"
 25214      43544C00 
 25215              	.LASF484:
 25216 129d 4843494E 		.ascii	"HCINTMSK\000"
 25216      544D534B 
 25216      00
 25217              	.LASF366:
ARM GAS  /tmp/ccs3e2Sq.s 			page 460


 25218 12a6 50574D44 		.ascii	"PWMD12\000"
 25218      313200
 25219              	.LASF268:
 25220 12ad 636F6E66 		.ascii	"config\000"
 25220      696700
 25221              	.LASF257:
 25222 12b4 696F6C69 		.ascii	"ioline_t\000"
 25222      6E655F74 
 25222      00
 25223              	.LASF638:
 25224 12bd 4F4C4544 		.ascii	"OLED_Set_Pos\000"
 25224      5F536574 
 25224      5F506F73 
 25224      00
 25225              	.LASF412:
 25226 12ca 75617274 		.ascii	"uartflags_t\000"
 25226      666C6167 
 25226      735F7400 
 25227              	.LASF401:
 25228 12d6 55415254 		.ascii	"UART_STOP\000"
 25228      5F53544F 
 25228      5000
 25229              	.LASF425:
 25230 12e0 7278656E 		.ascii	"rxend_cb\000"
 25230      645F6362 
 25230      00
 25231              	.LASF291:
 25232 12e9 6164635F 		.ascii	"adc_channels_num_t\000"
 25232      6368616E 
 25232      6E656C73 
 25232      5F6E756D 
 25232      5F7400
 25233              	.LASF60:
 25234 12fc 76746675 		.ascii	"vtfunc_t\000"
 25234      6E635F74 
 25234      00
 25235              	.LASF105:
 25236 1305 43414E5F 		.ascii	"CAN_FIFOMailBox_TypeDef\000"
 25236      4649464F 
 25236      4D61696C 
 25236      426F785F 
 25236      54797065 
 25237              	.LASF158:
 25238 131d 77746F62 		.ascii	"wtobjp\000"
 25238      6A7000
 25239              	.LASF613:
 25240 1324 4F4C4544 		.ascii	"OLED_toggleMode\000"
 25240      5F746F67 
 25240      676C654D 
 25240      6F646500 
 25241              	.LASF130:
 25242 1334 464C5452 		.ascii	"FLTR\000"
 25242      00
 25243              	.LASF214:
 25244 1339 6F626A5F 		.ascii	"obj_pool\000"
 25244      706F6F6C 
 25244      00
ARM GAS  /tmp/ccs3e2Sq.s 			page 461


 25245              	.LASF222:
 25246 1342 63685F66 		.ascii	"ch_factory\000"
 25246      6163746F 
 25246      727900
 25247              	.LASF239:
 25248 134d 715F6E6F 		.ascii	"q_notify\000"
 25248      74696679 
 25248      00
 25249              	.LASF162:
 25250 1356 77746D74 		.ascii	"wtmtxp\000"
 25250      787000
 25251              	.LASF567:
 25252 135d 5553424F 		.ascii	"USBOutEndpointState\000"
 25252      7574456E 
 25252      64706F69 
 25252      6E745374 
 25252      61746500 
 25253              	.LASF528:
 25254 1371 72657376 		.ascii	"resvd41C\000"
 25254      64343143 
 25254      00
 25255              	.LASF585:
 25256 137a 466F6E74 		.ascii	"FontSize_6x8\000"
 25256      53697A65 
 25256      5F367838 
 25256      00
 25257              	.LASF102:
 25258 1387 52445452 		.ascii	"RDTR\000"
 25258      00
 25259              	.LASF77:
 25260 138c 73797369 		.ascii	"sysinterval_t\000"
 25260      6E746572 
 25260      76616C5F 
 25260      7400
 25261              	.LASF607:
 25262 139a 4F4C4544 		.ascii	"OLED_writeToScreen\000"
 25262      5F777269 
 25262      7465546F 
 25262      53637265 
 25262      656E00
 25263              	.LASF460:
 25264 13ad 5553425F 		.ascii	"USB_EP0_IN_SENDING_STS\000"
 25264      4550305F 
 25264      494E5F53 
 25264      454E4449 
 25264      4E475F53 
 25265              	.LASF592:
 25266 13c4 64697274 		.ascii	"dirty\000"
 25266      7900
 25267              	.LASF258:
 25268 13ca 5F70616C 		.ascii	"_pal_events\000"
 25268      5F657665 
 25268      6E747300 
 25269              	.LASF465:
 25270 13d6 5553425F 		.ascii	"USB_EVENT_RESET\000"
 25270      4556454E 
 25270      545F5245 
ARM GAS  /tmp/ccs3e2Sq.s 			page 462


 25270      53455400 
 25271              	.LASF194:
 25272 13e6 77666C61 		.ascii	"wflags\000"
 25272      677300
 25273              	.LASF428:
 25274 13ed 73706565 		.ascii	"speed\000"
 25274      6400
 25275              	.LASF58:
 25276 13f3 63685F72 		.ascii	"ch_ready_list\000"
 25276      65616479 
 25276      5F6C6973 
 25276      7400
 25277              	.LASF424:
 25278 1401 7478656E 		.ascii	"txend2_cb\000"
 25278      64325F63 
 25278      6200
 25279              	.LASF250:
 25280 140b 50555044 		.ascii	"PUPDR\000"
 25280      5200
 25281              	.LASF11:
 25282 1411 5F5F696E 		.ascii	"__int32_t\000"
 25282      7433325F 
 25282      7400
 25283              	.LASF13:
 25284 141b 5F5F7569 		.ascii	"__uint32_t\000"
 25284      6E743332 
 25284      5F7400
 25285              	.LASF187:
 25286 1426 63686465 		.ascii	"chdebug_t\000"
 25286      6275675F 
 25286      7400
 25287              	.LASF69:
 25288 1430 63685F73 		.ascii	"ch_system_debug\000"
 25288      79737465 
 25288      6D5F6465 
 25288      62756700 
 25289              	.LASF632:
 25290 1440 64617461 		.ascii	"data\000"
 25290      00
 25291              	.LASF539:
 25292 1445 4441494E 		.ascii	"DAINTMSK\000"
 25292      544D534B 
 25292      00
 25293              	.LASF234:
 25294 144e 715F636F 		.ascii	"q_counter\000"
 25294      756E7465 
 25294      7200
 25295              	.LASF646:
 25296 1458 69735365 		.ascii	"isSeperator\000"
 25296      70657261 
 25296      746F7200 
 25297              	.LASF441:
 25298 1464 65703065 		.ascii	"ep0endcb\000"
 25298      6E646362 
 25298      00
 25299              	.LASF227:
 25300 146d 73656C66 		.ascii	"selfindex\000"
ARM GAS  /tmp/ccs3e2Sq.s 			page 463


 25300      696E6465 
 25300      7800
 25301              	.LASF189:
 25302 1477 6D757465 		.ascii	"mutex_t\000"
 25302      785F7400 
 25303              	.LASF594:
 25304 147f 6D696E58 		.ascii	"minX\000"
 25304      00
 25305              	.LASF595:
 25306 1484 6D696E59 		.ascii	"minY\000"
 25306      00
 25307              	.LASF246:
 25308 1489 636C6561 		.ascii	"clear\000"
 25308      7200
 25309              	.LASF247:
 25310 148f 4D4F4445 		.ascii	"MODER\000"
 25310      5200
 25311              	.LASF588:
 25312 1495 77696474 		.ascii	"width\000"
 25312      6800
 25313              	.LASF109:
 25314 149b 52455345 		.ascii	"RESERVED0\000"
 25314      52564544 
 25314      3000
 25315              	.LASF112:
 25316 14a5 52455345 		.ascii	"RESERVED1\000"
 25316      52564544 
 25316      3100
 25317              	.LASF114:
 25318 14af 52455345 		.ascii	"RESERVED2\000"
 25318      52564544 
 25318      3200
 25319              	.LASF116:
 25320 14b9 52455345 		.ascii	"RESERVED3\000"
 25320      52564544 
 25320      3300
 25321              	.LASF118:
 25322 14c3 52455345 		.ascii	"RESERVED4\000"
 25322      52564544 
 25322      3400
 25323              	.LASF120:
 25324 14cd 52455345 		.ascii	"RESERVED5\000"
 25324      52564544 
 25324      3500
 25325              	.LASF578:
 25326 14d7 55534245 		.ascii	"USBEndpointConfig\000"
 25326      6E64706F 
 25326      696E7443 
 25326      6F6E6669 
 25326      6700
 25327              	.LASF307:
 25328 14e9 72787175 		.ascii	"rxqueue\000"
 25328      65756500 
 25329              	.LASF530:
 25330 14f1 72657376 		.ascii	"resvd444\000"
 25330      64343434 
 25330      00
ARM GAS  /tmp/ccs3e2Sq.s 			page 464


 25331              	.LASF271:
 25332 14fa 67727070 		.ascii	"grpp\000"
 25332      00
 25333              	.LASF218:
 25334 14ff 6D62785F 		.ascii	"mbx_list\000"
 25334      6C697374 
 25334      00
 25335              	.LASF178:
 25336 1508 6F66665F 		.ascii	"off_newer\000"
 25336      6E657765 
 25336      7200
 25337              	.LASF617:
 25338 1512 73726358 		.ascii	"srcX\000"
 25338      00
 25339              	.LASF618:
 25340 1517 73726359 		.ascii	"srcY\000"
 25340      00
 25341              	.LASF153:
 25342 151c 73746D33 		.ascii	"stm32_tim_t\000"
 25342      325F7469 
 25342      6D5F7400 
 25343              	.LASF309:
 25344 1528 7478656D 		.ascii	"txempty_cb\000"
 25344      7074795F 
 25344      636200
 25345              	.LASF34:
 25346 1533 71756575 		.ascii	"queue\000"
 25346      6500
 25347              	.LASF448:
 25348 1539 706D6E65 		.ascii	"pmnext\000"
 25348      787400
 25349              	.LASF79:
 25350 1540 49544D5F 		.ascii	"ITM_RxBuffer\000"
 25350      52784275 
 25350      66666572 
 25350      00
 25351              	.LASF16:
 25352 154d 6C6F6E67 		.ascii	"long long unsigned int\000"
 25352      206C6F6E 
 25352      6720756E 
 25352      7369676E 
 25352      65642069 
 25353              	.LASF154:
 25354 1564 6F666673 		.ascii	"offset\000"
 25354      657400
 25355              	.LASF199:
 25356 156b 6E657874 		.ascii	"nextmem\000"
 25356      6D656D00 
 25357              	.LASF427:
 25358 1573 72786572 		.ascii	"rxerr_cb\000"
 25358      725F6362 
 25358      00
 25359              	.LASF123:
 25360 157c 4E445452 		.ascii	"NDTR\000"
 25360      00
 25361              	.LASF492:
 25362 1581 44494550 		.ascii	"DIEPINT\000"
ARM GAS  /tmp/ccs3e2Sq.s 			page 465


 25362      494E5400 
 25363              	.LASF137:
 25364 1589 5350495F 		.ascii	"SPI_TypeDef\000"
 25364      54797065 
 25364      44656600 
 25365              	.LASF144:
 25366 1595 534D4352 		.ascii	"SMCR\000"
 25366      00
 25367              	.LASF175:
 25368 159a 74687265 		.ascii	"threadsize\000"
 25368      61647369 
 25368      7A6500
 25369              	.LASF537:
 25370 15a5 444F4550 		.ascii	"DOEPMSK\000"
 25370      4D534B00 
 25371              	.LASF62:
 25372 15ad 63685F76 		.ascii	"ch_virtual_timer\000"
 25372      69727475 
 25372      616C5F74 
 25372      696D6572 
 25372      00
 25373              	.LASF163:
 25374 15be 65776D61 		.ascii	"ewmask\000"
 25374      736B00
 25375              	.LASF195:
 25376 15c5 6576656E 		.ascii	"event_source\000"
 25376      745F736F 
 25376      75726365 
 25376      00
 25377              	.LASF313:
 25378 15d2 43414E44 		.ascii	"CAND1\000"
 25378      3100
 25379              	.LASF115:
 25380 15d8 46533152 		.ascii	"FS1R\000"
 25380      00
 25381              	.LASF25:
 25382 15dd 74737461 		.ascii	"tstate_t\000"
 25382      74655F74 
 25382      00
 25383              	.LASF391:
 25384 15e6 53504944 		.ascii	"SPIDriver\000"
 25384      72697665 
 25384      7200
 25385              	.LASF538:
 25386 15f0 4441494E 		.ascii	"DAINT\000"
 25386      5400
 25387              	.LASF393:
 25388 15f6 53504943 		.ascii	"SPIConfig\000"
 25388      6F6E6669 
 25388      6700
 25389              	.LASF434:
 25390 1600 7472616E 		.ascii	"transmitting\000"
 25390      736D6974 
 25390      74696E67 
 25390      00
 25391              	.LASF351:
 25392 160d 6368616E 		.ascii	"channels\000"
ARM GAS  /tmp/ccs3e2Sq.s 			page 466


 25392      6E656C73 
 25392      00
 25393              	.LASF637:
 25394 1616 4F4C4544 		.ascii	"OLED_writeRaw\000"
 25394      5F777269 
 25394      74655261 
 25394      7700
 25395              	.LASF371:
 25396 1624 53657269 		.ascii	"SerialDriver\000"
 25396      616C4472 
 25396      69766572 
 25396      00
 25397              	.LASF93:
 25398 1631 4A445231 		.ascii	"JDR1\000"
 25398      00
 25399              	.LASF94:
 25400 1636 4A445232 		.ascii	"JDR2\000"
 25400      00
 25401              	.LASF95:
 25402 163b 4A445233 		.ascii	"JDR3\000"
 25402      00
 25403              	.LASF96:
 25404 1640 4A445234 		.ascii	"JDR4\000"
 25404      00
 25405              	.LASF500:
 25406 1645 444F4550 		.ascii	"DOEPTSIZ\000"
 25406      5453495A 
 25406      00
 25407              	.LASF598:
 25408 164e 4F4C4544 		.ascii	"OLED_Buffer\000"
 25408      5F427566 
 25408      66657200 
 25409              	.LASF216:
 25410 165a 73656D5F 		.ascii	"sem_list\000"
 25410      6C697374 
 25410      00
 25411              	.LASF261:
 25412 1663 4144435F 		.ascii	"ADC_READY\000"
 25412      52454144 
 25412      5900
 25413              	.LASF180:
 25414 166d 6F66665F 		.ascii	"off_name\000"
 25414      6E616D65 
 25414      00
 25415              	.LASF411:
 25416 1676 75617274 		.ascii	"uartrxstate_t\000"
 25416      72787374 
 25416      6174655F 
 25416      7400
 25417              	.LASF65:
 25418 1684 76697274 		.ascii	"virtual_timers_list_t\000"
 25418      75616C5F 
 25418      74696D65 
 25418      72735F6C 
 25418      6973745F 
 25419              	.LASF407:
 25420 169a 75617274 		.ascii	"uarttxstate_t\000"
ARM GAS  /tmp/ccs3e2Sq.s 			page 467


 25420      74787374 
 25420      6174655F 
 25420      7400
 25421              	.LASF455:
 25422 16a8 5553425F 		.ascii	"USB_SUSPENDED\000"
 25422      53555350 
 25422      454E4445 
 25422      4400
 25423              	.LASF506:
 25424 16b6 47525354 		.ascii	"GRSTCTL\000"
 25424      43544C00 
 25425              	.LASF281:
 25426 16be 63697263 		.ascii	"circular\000"
 25426      756C6172 
 25426      00
 25427              	.LASF531:
 25428 16c7 72657376 		.ascii	"resvd700\000"
 25428      64373030 
 25428      00
 25429              	.LASF135:
 25430 16d0 49325343 		.ascii	"I2SCFGR\000"
 25430      46475200 
 25431              	.LASF383:
 25432 16d8 77726974 		.ascii	"writet\000"
 25432      657400
 25433              	.LASF1:
 25434 16df 6C6F6E67 		.ascii	"long long int\000"
 25434      206C6F6E 
 25434      6720696E 
 25434      7400
 25435              	.LASF518:
 25436 16ed 48505458 		.ascii	"HPTXFSIZ\000"
 25436      4653495A 
 25436      00
 25437              	.LASF586:
 25438 16f6 466F6E74 		.ascii	"FontSize_8x16\000"
 25438      53697A65 
 25438      5F387831 
 25438      3600
 25439              	.LASF295:
 25440 1704 61646365 		.ascii	"adcerror_t\000"
 25440      72726F72 
 25440      5F7400
 25441              	.LASF580:
 25442 170f 6765745F 		.ascii	"get_descriptor_cb\000"
 25442      64657363 
 25442      72697074 
 25442      6F725F63 
 25442      6200
 25443              	.LASF30:
 25444 1721 6576656E 		.ascii	"eventflags_t\000"
 25444      74666C61 
 25444      67735F74 
 25444      00
 25445              	.LASF387:
 25446 172e 5350495F 		.ascii	"SPI_READY\000"
 25446      52454144 
ARM GAS  /tmp/ccs3e2Sq.s 			page 468


 25446      5900
 25447              	.LASF458:
 25448 1738 5553425F 		.ascii	"USB_EP0_IN_TX\000"
 25448      4550305F 
 25448      494E5F54 
 25448      5800
 25449              	.LASF554:
 25450 1746 4649464F 		.ascii	"FIFO\000"
 25450      00
 25451              	.LASF111:
 25452 174b 73464946 		.ascii	"sFIFOMailBox\000"
 25452      4F4D6169 
 25452      6C426F78 
 25452      00
 25453              	.LASF81:
 25454 1758 41484250 		.ascii	"AHBPrescTable\000"
 25454      72657363 
 25454      5461626C 
 25454      6500
 25455              	.LASF642:
 25456 1766 474E5520 		.ascii	"GNU C11 7.3.1 20180622 (release) [ARM/embedded-7-br"
 25456      43313120 
 25456      372E332E 
 25456      31203230 
 25456      31383036 
 25457 1799 616E6368 		.ascii	"anch revision 261907] -mcpu=cortex-m4 -mthumb -mflo"
 25457      20726576 
 25457      6973696F 
 25457      6E203236 
 25457      31393037 
 25458 17cc 61742D61 		.ascii	"at-abi=hard -mfpu=fpv4-sp-d16 -ggdb -O3 -std=c11 -f"
 25458      62693D68 
 25458      61726420 
 25458      2D6D6670 
 25458      753D6670 
 25459 17ff 6F6D6974 		.ascii	"omit-frame-pointer -ffunction-sections -fdata-secti"
 25459      2D667261 
 25459      6D652D70 
 25459      6F696E74 
 25459      6572202D 
 25460 1832 6F6E7320 		.ascii	"ons -fno-common\000"
 25460      2D666E6F 
 25460      2D636F6D 
 25460      6D6F6E00 
 25461              	.LASF533:
 25462 1842 4443544C 		.ascii	"DCTL\000"
 25462      00
 25463              	.LASF562:
 25464 1847 74786275 		.ascii	"txbuf\000"
 25464      6600
 25465              	.LASF552:
 25466 184d 50434743 		.ascii	"PCGCCTL\000"
 25466      43544C00 
 25467              	.LASF470:
 25468 1855 5553425F 		.ascii	"USB_EVENT_WAKEUP\000"
 25468      4556454E 
 25468      545F5741 
ARM GAS  /tmp/ccs3e2Sq.s 			page 469


 25468      4B455550 
 25468      00
 25469              	.LASF610:
 25470 1866 6C6F6361 		.ascii	"localPage\000"
 25470      6C506167 
 25470      6500
 25471              	.LASF577:
 25472 1870 73657475 		.ascii	"setup_buf\000"
 25472      705F6275 
 25472      6600
 25473              	.LASF622:
 25474 187a 4F4C4544 		.ascii	"OLED_fill\000"
 25474      5F66696C 
 25474      6C00
 25475              	.LASF284:
 25476 1884 6572726F 		.ascii	"error_cb\000"
 25476      725F6362 
 25476      00
 25477              	.LASF615:
 25478 188d 64657374 		.ascii	"destX\000"
 25478      5800
 25479              	.LASF616:
 25480 1893 64657374 		.ascii	"destY\000"
 25480      5900
 25481              	.LASF49:
 25482 1899 74687265 		.ascii	"thread_reference_t\000"
 25482      61645F72 
 25482      65666572 
 25482      656E6365 
 25482      5F7400
 25483              	.LASF435:
 25484 18ac 72656365 		.ascii	"receiving\000"
 25484      6976696E 
 25484      6700
 25485              	.LASF361:
 25486 18b6 66726571 		.ascii	"frequency\000"
 25486      75656E63 
 25486      7900
 25487              	.LASF394:
 25488 18c0 68616C5F 		.ascii	"hal_spi_config\000"
 25488      7370695F 
 25488      636F6E66 
 25488      696700
 25489              	.LASF155:
 25490 18cf 746D5F63 		.ascii	"tm_calibration_t\000"
 25490      616C6962 
 25490      72617469 
 25490      6F6E5F74 
 25490      00
 25491              	.LASF574:
 25492 18e0 696E5F73 		.ascii	"in_state\000"
 25492      74617465 
 25492      00
 25493              	.LASF138:
 25494 18e9 47545052 		.ascii	"GTPR\000"
 25494      00
 25495              	.LASF329:
ARM GAS  /tmp/ccs3e2Sq.s 			page 470


 25496 18ee 46415354 		.ascii	"FAST_DUTY_CYCLE_2\000"
 25496      5F445554 
 25496      595F4359 
 25496      434C455F 
 25496      3200
 25497              	.LASF172:
 25498 1900 76657273 		.ascii	"version\000"
 25498      696F6E00 
 25499              	.LASF609:
 25500 1908 666F7263 		.ascii	"force\000"
 25500      6500
 25501              	.LASF193:
 25502 190e 6576656E 		.ascii	"events\000"
 25502      747300
 25503              	.LASF402:
 25504 1915 55415254 		.ascii	"UART_READY\000"
 25504      5F524541 
 25504      445900
 25505              	.LASF146:
 25506 1920 43434D52 		.ascii	"CCMR1\000"
 25506      3100
 25507              	.LASF147:
 25508 1926 43434D52 		.ascii	"CCMR2\000"
 25508      3200
 25509              	.LASF151:
 25510 192c 43434D52 		.ascii	"CCMR3\000"
 25510      3300
 25511              	.LASF0:
 25512 1932 756E7369 		.ascii	"unsigned int\000"
 25512      676E6564 
 25512      20696E74 
 25512      00
 25513              	.LASF288:
 25514 193f 73717232 		.ascii	"sqr2\000"
 25514      00
 25515              	.LASF289:
 25516 1944 73717233 		.ascii	"sqr3\000"
 25516      00
 25517              	.LASF522:
 25518 1949 48464952 		.ascii	"HFIR\000"
 25518      00
 25519              	.LASF450:
 25520 194e 5553425F 		.ascii	"USB_UNINIT\000"
 25520      554E494E 
 25520      495400
 25521              	.LASF223:
 25522 1959 73747265 		.ascii	"stream\000"
 25522      616D00
 25523              	.LASF225:
 25524 1960 64756D6D 		.ascii	"dummy\000"
 25524      7900
 25525              	.LASF327:
 25526 1966 6932636F 		.ascii	"i2copmode_t\000"
 25526      706D6F64 
 25526      655F7400 
 25527              	.LASF8:
 25528 1972 73686F72 		.ascii	"short int\000"
ARM GAS  /tmp/ccs3e2Sq.s 			page 471


 25528      7420696E 
 25528      7400
 25529              	.LASF476:
 25530 197c 75736263 		.ascii	"usbcallback_t\000"
 25530      616C6C62 
 25530      61636B5F 
 25530      7400
 25531              	.LASF207:
 25532 198a 6D656D6F 		.ascii	"memory_pool_t\000"
 25532      72795F70 
 25532      6F6F6C5F 
 25532      7400
 25533              	.LASF643:
 25534 1998 2E2F524D 		.ascii	"./RM18A-ChibiOS18-Core/src/ext_hw/SH1106.c\000"
 25534      3138412D 
 25534      43686962 
 25534      694F5331 
 25534      382D436F 
 25535              	.LASF505:
 25536 19c3 47555342 		.ascii	"GUSBCFG\000"
 25536      43464700 
 25537              	.LASF56:
 25538 19cb 70726576 		.ascii	"prev\000"
 25538      00
 25539              	.LASF414:
 25540 19d0 74787374 		.ascii	"txstate\000"
 25540      61746500 
 25541              	.LASF243:
 25542 19d8 6F757470 		.ascii	"output_queue_t\000"
 25542      75745F71 
 25542      75657565 
 25542      5F7400
 25543              	.LASF555:
 25544 19e7 73746D33 		.ascii	"stm32_otg_t\000"
 25544      325F6F74 
 25544      675F7400 
 25545              	.LASF334:
 25546 19f3 64757479 		.ascii	"duty_cycle\000"
 25546      5F637963 
 25546      6C6500
 25547              	.LASF473:
 25548 19fe 75645F73 		.ascii	"ud_size\000"
 25548      697A6500 
 25549              	.LASF606:
 25550 1a06 4F4C4544 		.ascii	"OLED_Display_On\000"
 25550      5F446973 
 25550      706C6179 
 25550      5F4F6E00 
 25551              	.LASF47:
 25552 1a16 7265616C 		.ascii	"realprio\000"
 25552      7072696F 
 25552      00
 25553              	.LASF432:
 25554 1a1f 55415254 		.ascii	"UARTD8\000"
 25554      443800
 25555              	.LASF572:
 25556 1a26 696E5F6D 		.ascii	"in_maxsize\000"
ARM GAS  /tmp/ccs3e2Sq.s 			page 472


 25556      61787369 
 25556      7A6500
 25557              	.LASF406:
 25558 1a31 55415254 		.ascii	"UART_TX_COMPLETE\000"
 25558      5F54585F 
 25558      434F4D50 
 25558      4C455445 
 25558      00
 25559              	.LASF41:
 25560 1a42 666C6167 		.ascii	"flags\000"
 25560      7300
 25561              	.LASF52:
 25562 1a48 63685F74 		.ascii	"ch_threads_list\000"
 25562      68726561 
 25562      64735F6C 
 25562      69737400 
 25563              	.LASF602:
 25564 1a58 4F4C4544 		.ascii	"OLED_PAGE_COUNT\000"
 25564      5F504147 
 25564      455F434F 
 25564      554E5400 
 25565              	.LASF127:
 25566 1a68 4F415231 		.ascii	"OAR1\000"
 25566      00
 25567              	.LASF128:
 25568 1a6d 4F415232 		.ascii	"OAR2\000"
 25568      00
 25569              	.LASF369:
 25570 1a72 53445F52 		.ascii	"SD_READY\000"
 25570      45414459 
 25570      00
 25571              	.LASF456:
 25572 1a7b 75736273 		.ascii	"usbstate_t\000"
 25572      74617465 
 25572      5F7400
 25573              		.ident	"GCC: (GNU Tools for Arm Embedded Processors 7-2018-q3-update) 7.3.1 20180622 (release) [AR
ARM GAS  /tmp/ccs3e2Sq.s 			page 473


DEFINED SYMBOLS
                            *ABS*:0000000000000000 SH1106.c
     /tmp/ccs3e2Sq.s:18     .text.OLED_BufferInit:0000000000000000 $t
     /tmp/ccs3e2Sq.s:26     .text.OLED_BufferInit:0000000000000000 OLED_BufferInit
     /tmp/ccs3e2Sq.s:88     .text.OLED_setPos:0000000000000000 $t
     /tmp/ccs3e2Sq.s:96     .text.OLED_setPos:0000000000000000 OLED_setPos
     /tmp/ccs3e2Sq.s:114    .text.OLED_writeData:0000000000000000 $t
     /tmp/ccs3e2Sq.s:122    .text.OLED_writeData:0000000000000000 OLED_writeData
     /tmp/ccs3e2Sq.s:477    .text.OLED_drawChar:0000000000000000 $t
     /tmp/ccs3e2Sq.s:485    .text.OLED_drawChar:0000000000000000 OLED_drawChar
     /tmp/ccs3e2Sq.s:1014   .text.OLED_drawChar:00000000000002c0 $d
     /tmp/ccs3e2Sq.s:1019   .text.OLED_drawChar:00000000000002c4 $t
     /tmp/ccs3e2Sq.s:1703   .text.OLED_drawChar:0000000000000604 $d
     /tmp/ccs3e2Sq.s:1718   .text.OLED_drawChar:0000000000000608 $t
     /tmp/ccs3e2Sq.s:1763   .text.OLED_drawString:0000000000000000 $t
     /tmp/ccs3e2Sq.s:1771   .text.OLED_drawString:0000000000000000 OLED_drawString
     /tmp/ccs3e2Sq.s:2487   .text.OLED_drawString:000000000000036c $d
     /tmp/ccs3e2Sq.s:2490   .text.OLED_drawString:0000000000000370 $t
     /tmp/ccs3e2Sq.s:2936   .text.OLED_drawString:00000000000005b4 $d
     /tmp/ccs3e2Sq.s:2952   .text.OLED_drawString:00000000000005b8 $t
     /tmp/ccs3e2Sq.s:3507   .text.OLED_fill:0000000000000000 $t
     /tmp/ccs3e2Sq.s:3515   .text.OLED_fill:0000000000000000 OLED_fill
     /tmp/ccs3e2Sq.s:4045   .text.OLED_copyFromBuffer:0000000000000000 $t
     /tmp/ccs3e2Sq.s:4053   .text.OLED_copyFromBuffer:0000000000000000 OLED_copyFromBuffer
     /tmp/ccs3e2Sq.s:4705   .text.OLED_toggleMode:0000000000000000 $t
     /tmp/ccs3e2Sq.s:4713   .text.OLED_toggleMode:0000000000000000 OLED_toggleMode
     /tmp/ccs3e2Sq.s:4731   .text.OLED_setMode:0000000000000000 $t
     /tmp/ccs3e2Sq.s:4739   .text.OLED_setMode:0000000000000000 OLED_setMode
     /tmp/ccs3e2Sq.s:4755   .text.OLED_writeToScreen:0000000000000000 $t
     /tmp/ccs3e2Sq.s:4763   .text.OLED_writeToScreen:0000000000000000 OLED_writeToScreen
     /tmp/ccs3e2Sq.s:5077   .text.OLED_writeToScreen:0000000000000164 $d
     /tmp/ccs3e2Sq.s:5086   .text.OLED_Display_On:0000000000000000 $t
     /tmp/ccs3e2Sq.s:5094   .text.OLED_Display_On:0000000000000000 OLED_Display_On
     /tmp/ccs3e2Sq.s:5161   .text.OLED_Display_On:0000000000000044 $d
     /tmp/ccs3e2Sq.s:5167   .text.OLED_Display_Off:0000000000000000 $t
     /tmp/ccs3e2Sq.s:5175   .text.OLED_Display_Off:0000000000000000 OLED_Display_Off
     /tmp/ccs3e2Sq.s:5242   .text.OLED_Display_Off:0000000000000044 $d
     /tmp/ccs3e2Sq.s:5248   .text.OLED_Clear:0000000000000000 $t
     /tmp/ccs3e2Sq.s:5256   .text.OLED_Clear:0000000000000000 OLED_Clear
     /tmp/ccs3e2Sq.s:5367   .text.OLED_Clear:0000000000000070 $d
     /tmp/ccs3e2Sq.s:5373   .text.OLED_Init:0000000000000000 $t
     /tmp/ccs3e2Sq.s:5381   .text.OLED_Init:0000000000000000 OLED_Init
     /tmp/ccs3e2Sq.s:5929   .text.OLED_Init:0000000000000294 $d
     /tmp/ccs3e2Sq.s:8270   .rodata.OLED_COLUMN_COUNT:0000000000000000 OLED_COLUMN_COUNT
     /tmp/ccs3e2Sq.s:8276   .rodata.OLED_PAGE_COUNT:0000000000000000 OLED_PAGE_COUNT
     /tmp/ccs3e2Sq.s:5943   .data.Hzk:0000000000000000 Hzk
     /tmp/ccs3e2Sq.s:6745   .rodata.F8X16:0000000000000000 F8X16
     /tmp/ccs3e2Sq.s:6187   .rodata.F6x8:0000000000000000 F6x8
     /tmp/ccs3e2Sq.s:5940   .data.Hzk:0000000000000000 $d
     /tmp/ccs3e2Sq.s:6183   .rodata.F6x8:0000000000000000 $d
     /tmp/ccs3e2Sq.s:6741   .rodata.F8X16:0000000000000000 $d
     /tmp/ccs3e2Sq.s:8267   .rodata.OLED_COLUMN_COUNT:0000000000000000 $d
     /tmp/ccs3e2Sq.s:8273   .rodata.OLED_PAGE_COUNT:0000000000000000 $d

UNDEFINED SYMBOLS
spiSend
SPID1
ARM GAS  /tmp/ccs3e2Sq.s 			page 474


chThdSleep
