ARM GAS  /tmp/cc04S6rC.s 			page 1


   1              		.cpu cortex-m4
   2              		.eabi_attribute 27, 1
   3              		.eabi_attribute 28, 1
   4              		.eabi_attribute 20, 1
   5              		.eabi_attribute 21, 1
   6              		.eabi_attribute 23, 3
   7              		.eabi_attribute 24, 1
   8              		.eabi_attribute 25, 1
   9              		.eabi_attribute 26, 1
  10              		.eabi_attribute 30, 2
  11              		.eabi_attribute 34, 1
  12              		.eabi_attribute 18, 4
  13              		.file	"SH1106.c"
  14              		.text
  15              	.Ltext0:
  16              		.cfi_sections	.debug_frame
  17              		.section	.text.OLED_BufferInit,"ax",%progbits
  18              		.align	1
  19              		.p2align 2,,3
  20              		.global	OLED_BufferInit
  21              		.syntax unified
  22              		.thumb
  23              		.thumb_func
  24              		.fpu fpv4-sp-d16
  25              		.type	OLED_BufferInit, %function
  26              	OLED_BufferInit:
  27              	.LFB329:
  28              		.file 1 "./RM18A-ChibiOS18-Core/src/ext_hw/SH1106.c"
  29              		.loc 1 52 0
  30              		.cfi_startproc
  31              		@ args = 4, pretend = 0, frame = 0
  32              		@ frame_needed = 0, uses_anonymous_args = 0
  33              		@ link register save eliminated.
  34              	.LVL0:
  35 0000 F0B4     		push	{r4, r5, r6, r7}
  36              		.cfi_def_cfa_offset 16
  37              		.cfi_offset 4, -16
  38              		.cfi_offset 5, -12
  39              		.cfi_offset 6, -8
  40              		.cfi_offset 7, -4
  41              		.loc 1 54 0
  42 0002 11F00F06 		ands	r6, r1, #15
  43 0006 18BF     		it	ne
  44 0008 0126     		movne	r6, #1
  45 000a 12F00705 		ands	r5, r2, #7
  46 000e 06EB1116 		add	r6, r6, r1, lsr #4
  47              		.loc 1 55 0
  48 0012 01F1FF37 		add	r7, r1, #-1
  49              		.loc 1 54 0
  50 0016 18BF     		it	ne
  51 0018 0125     		movne	r5, #1
  52              		.loc 1 56 0
  53 001a 0170     		strb	r1, [r0]
  54              		.loc 1 52 0
  55 001c 0499     		ldr	r1, [sp, #16]
  56              	.LVL1:
  57              		.loc 1 56 0
ARM GAS  /tmp/cc04S6rC.s 			page 2


  58 001e 8670     		strb	r6, [r0, #2]
  59              		.loc 1 54 0
  60 0020 05EBD205 		add	r5, r5, r2, lsr #3
  61              		.loc 1 55 0
  62 0024 561E     		subs	r6, r2, #1
  63              		.loc 1 56 0
  64 0026 4270     		strb	r2, [r0, #1]
  65 0028 0022     		movs	r2, #0
  66              	.LVL2:
  67 002a 0782     		strh	r7, [r0, #16]	@ movhi
  68 002c C570     		strb	r5, [r0, #3]
  69 002e 4682     		strh	r6, [r0, #18]	@ movhi
  70 0030 4360     		str	r3, [r0, #4]
  71 0032 C0E90212 		strd	r1, r2, [r0, #8]
  72 0036 4261     		str	r2, [r0, #20]
  73 0038 0276     		strb	r2, [r0, #24]
  74              	.LVL3:
  75              		.loc 1 57 0
  76 003a F0BC     		pop	{r4, r5, r6, r7}
  77              		.cfi_restore 7
  78              		.cfi_restore 6
  79              		.cfi_restore 5
  80              		.cfi_restore 4
  81              		.cfi_def_cfa_offset 0
  82              	.LVL4:
  83 003c 7047     		bx	lr
  84              		.cfi_endproc
  85              	.LFE329:
  86              		.size	OLED_BufferInit, .-OLED_BufferInit
  87 003e 00BF     		.section	.text.OLED_setPos,"ax",%progbits
  88              		.align	1
  89              		.p2align 2,,3
  90              		.global	OLED_setPos
  91              		.syntax unified
  92              		.thumb
  93              		.thumb_func
  94              		.fpu fpv4-sp-d16
  95              		.type	OLED_setPos, %function
  96              	OLED_setPos:
  97              	.LFB331:
  98              		.loc 1 76 0
  99              		.cfi_startproc
 100              		@ args = 0, pretend = 0, frame = 0
 101              		@ frame_needed = 0, uses_anonymous_args = 0
 102              		@ link register save eliminated.
 103              	.LVL5:
 104              		.loc 1 77 0
 105 0000 8182     		strh	r1, [r0, #20]	@ movhi
 106              		.loc 1 78 0
 107 0002 C282     		strh	r2, [r0, #22]	@ movhi
 108              		.loc 1 79 0
 109 0004 7047     		bx	lr
 110              		.cfi_endproc
 111              	.LFE331:
 112              		.size	OLED_setPos, .-OLED_setPos
 113 0006 00BF     		.section	.text.OLED_writeData,"ax",%progbits
 114              		.align	1
ARM GAS  /tmp/cc04S6rC.s 			page 3


 115              		.p2align 2,,3
 116              		.global	OLED_writeData
 117              		.syntax unified
 118              		.thumb
 119              		.thumb_func
 120              		.fpu fpv4-sp-d16
 121              		.type	OLED_writeData, %function
 122              	OLED_writeData:
 123              	.LFB332:
 124              		.loc 1 82 0
 125              		.cfi_startproc
 126              		@ args = 0, pretend = 0, frame = 0
 127              		@ frame_needed = 0, uses_anonymous_args = 0
 128              	.LVL6:
 129              		.loc 1 83 0
 130 0000 B0F91430 		ldrsh	r3, [r0, #20]
 131 0004 B0F90C20 		ldrsh	r2, [r0, #12]
 132 0008 9A42     		cmp	r2, r3
 133 000a 71DC     		bgt	.L28
 134              		.loc 1 83 0 is_stmt 0 discriminator 1
 135 000c B0F91020 		ldrsh	r2, [r0, #16]
 136 0010 9A42     		cmp	r2, r3
 137 0012 6DDB     		blt	.L28
 138              		.loc 1 83 0 discriminator 2
 139 0014 B0F91620 		ldrsh	r2, [r0, #22]
 140              		.loc 1 82 0 is_stmt 1 discriminator 2
 141 0018 2DE9F041 		push	{r4, r5, r6, r7, r8, lr}
 142              		.cfi_def_cfa_offset 24
 143              		.cfi_offset 4, -24
 144              		.cfi_offset 5, -20
 145              		.cfi_offset 6, -16
 146              		.cfi_offset 7, -12
 147              		.cfi_offset 8, -8
 148              		.cfi_offset 14, -4
 149              		.loc 1 83 0 discriminator 2
 150 001c B0F90E40 		ldrsh	r4, [r0, #14]
 151 0020 D51D     		adds	r5, r2, #7
 152 0022 A542     		cmp	r5, r4
 153 0024 60DB     		blt	.L16
 154              		.loc 1 84 0 discriminator 3
 155 0026 E61F     		subs	r6, r4, #7
 156              		.loc 1 83 0 discriminator 3
 157 0028 B242     		cmp	r2, r6
 158 002a 5DDB     		blt	.L16
 159              		.loc 1 84 0
 160 002c 002B     		cmp	r3, #0
 161 002e 5BDB     		blt	.L16
 162              		.loc 1 84 0 is_stmt 0 discriminator 1
 163 0030 0678     		ldrb	r6, [r0]	@ zero_extendqisi2
 164 0032 B342     		cmp	r3, r6
 165 0034 58DA     		bge	.L16
 166              		.loc 1 84 0 discriminator 2
 167 0036 4778     		ldrb	r7, [r0, #1]	@ zero_extendqisi2
 168 0038 BA42     		cmp	r2, r7
 169 003a 55DA     		bge	.L16
 170              	.LVL7:
 171              		.loc 1 90 0 is_stmt 1
ARM GAS  /tmp/cc04S6rC.s 			page 4


 172 003c A242     		cmp	r2, r4
 173 003e 04DA     		bge	.L9
 174              		.loc 1 91 0
 175 0040 A41A     		subs	r4, r4, r2
 176 0042 FF27     		movs	r7, #255
 177 0044 07FA04F4 		lsl	r4, r7, r4
 178              	.LVL8:
 179 0048 2140     		ands	r1, r1, r4
 180              	.LVL9:
 181              	.L9:
 182              		.loc 1 92 0
 183 004a B0F91240 		ldrsh	r4, [r0, #18]
 184 004e 971D     		adds	r7, r2, #6
 185 0050 A742     		cmp	r7, r4
 186 0052 04DB     		blt	.L10
 187              		.loc 1 93 0
 188 0054 2C1B     		subs	r4, r5, r4
 189 0056 FF27     		movs	r7, #255
 190 0058 47FA04F4 		asr	r4, r7, r4
 191              	.LVL10:
 192 005c 2140     		ands	r1, r1, r4
 193              	.LVL11:
 194              	.L10:
 195              		.loc 1 95 0
 196 005e 15EA2205 		ands	r5, r5, r2, asr #32
 197 0062 38BF     		it	cc
 198 0064 1546     		movcc	r5, r2
 199 0066 D413     		asrs	r4, r2, #15
 200 0068 04EBE505 		add	r5, r4, r5, asr #3
 201 006c 1FFA85F8 		uxth	r8, r5
 202              		.loc 1 98 0
 203 0070 5442     		rsbs	r4, r2, #0
 204 0072 04F00704 		and	r4, r4, #7
 205 0076 02F00702 		and	r2, r2, #7
 206              		.loc 1 95 0
 207 007a 0FFA88F7 		sxth	r7, r8
 208              	.LVL12:
 209              		.loc 1 98 0
 210 007e 1546     		mov	r5, r2
 211 0080 58BF     		it	pl
 212 0082 6542     		rsbpl	r5, r4, #0
 213              	.LBB132:
 214              	.LBB133:
 215              		.loc 1 62 0
 216 0084 002F     		cmp	r7, #0
 217              	.LBE133:
 218              	.LBE132:
 219              		.loc 1 98 0
 220 0086 05F00704 		and	r4, r5, #7
 221              	.LVL13:
 222              	.LBB144:
 223              	.LBB140:
 224              		.loc 1 62 0
 225 008a 34DA     		bge	.L32
 226              	.L12:
 227              	.LVL14:
 228              	.LBE140:
ARM GAS  /tmp/cc04S6rC.s 			page 5


 229              	.LBE144:
 230              		.loc 1 100 0
 231 008c 62B3     		cbz	r2, .L16
 232              		.loc 1 102 0
 233 008e 08F10102 		add	r2, r8, #1
 234 0092 C4F10804 		rsb	r4, r4, #8
 235 0096 12B2     		sxth	r2, r2
 236 0098 2141     		asrs	r1, r1, r4
 237              	.LBB145:
 238              	.LBB146:
 239              		.loc 1 62 0
 240 009a 002A     		cmp	r2, #0
 241              	.LBE146:
 242              	.LBE145:
 243              		.loc 1 102 0
 244 009c CCB2     		uxtb	r4, r1
 245              	.LVL15:
 246              	.LBB163:
 247              	.LBB157:
 248              		.loc 1 62 0
 249 009e 23DB     		blt	.L16
 250              	.LVL16:
 251              	.L22:
 252              	.LBB147:
 253              	.LBB148:
 254 00a0 C578     		ldrb	r5, [r0, #3]	@ zero_extendqisi2
 255 00a2 AA42     		cmp	r2, r5
 256 00a4 20DA     		bge	.L16
 257              		.loc 1 64 0
 258 00a6 06FB0236 		mla	r6, r6, r2, r3
 259 00aa 8768     		ldr	r7, [r0, #8]
 260              		.loc 1 65 0
 261 00ac 90F818C0 		ldrb	ip, [r0, #24]	@ zero_extendqisi2
 262              		.loc 1 64 0
 263 00b0 BD5D     		ldrb	r5, [r7, r6]	@ zero_extendqisi2
 264              	.LVL17:
 265              		.loc 1 65 0
 266 00b2 BCF1000F 		cmp	ip, #0
 267 00b6 62D0     		beq	.L17
 268              		.loc 1 66 0
 269 00b8 25EA0101 		bic	r1, r5, r1
 270              	.L18:
 271 00bc B955     		strb	r1, [r7, r6]
 272              		.loc 1 69 0
 273 00be 0178     		ldrb	r1, [r0]	@ zero_extendqisi2
 274 00c0 8468     		ldr	r4, [r0, #8]
 275              	.LVL18:
 276 00c2 12FB0131 		smlabb	r1, r2, r1, r3
 277 00c6 615C     		ldrb	r1, [r4, r1]	@ zero_extendqisi2
 278 00c8 A942     		cmp	r1, r5
 279 00ca 0BD0     		beq	.L31
 280              		.loc 1 72 0
 281 00cc 8178     		ldrb	r1, [r0, #2]	@ zero_extendqisi2
 282 00ce 4468     		ldr	r4, [r0, #4]
 283 00d0 1D11     		asrs	r5, r3, #4
 284              	.LVL19:
 285 00d2 12FB0152 		smlabb	r2, r2, r1, r5
ARM GAS  /tmp/cc04S6rC.s 			page 6


 286              	.LVL20:
 287 00d6 C3F34205 		ubfx	r5, r3, #1, #3
 288 00da A15C     		ldrb	r1, [r4, r2]	@ zero_extendqisi2
 289 00dc 0123     		movs	r3, #1
 290              	.LVL21:
 291 00de AB40     		lsls	r3, r3, r5
 292 00e0 0B43     		orrs	r3, r3, r1
 293 00e2 A354     		strb	r3, [r4, r2]
 294              	.L31:
 295 00e4 B0F91430 		ldrsh	r3, [r0, #20]
 296              	.LVL22:
 297              	.L16:
 298              	.LBE148:
 299              	.LBE147:
 300              	.LBE157:
 301              	.LBE163:
 302              		.loc 1 104 0
 303 00e8 0133     		adds	r3, r3, #1
 304 00ea 8382     		strh	r3, [r0, #20]	@ movhi
 305              		.loc 1 105 0
 306 00ec BDE8F081 		pop	{r4, r5, r6, r7, r8, pc}
 307              	.LVL23:
 308              	.L28:
 309              		.cfi_def_cfa_offset 0
 310              		.cfi_restore 4
 311              		.cfi_restore 5
 312              		.cfi_restore 6
 313              		.cfi_restore 7
 314              		.cfi_restore 8
 315              		.cfi_restore 14
 316              		.loc 1 86 0
 317 00f0 0133     		adds	r3, r3, #1
 318 00f2 8382     		strh	r3, [r0, #20]	@ movhi
 319 00f4 7047     		bx	lr
 320              	.LVL24:
 321              	.L32:
 322              		.cfi_def_cfa_offset 24
 323              		.cfi_offset 4, -24
 324              		.cfi_offset 5, -20
 325              		.cfi_offset 6, -16
 326              		.cfi_offset 7, -12
 327              		.cfi_offset 8, -8
 328              		.cfi_offset 14, -4
 329              	.LBB164:
 330              	.LBB141:
 331              	.LBB134:
 332              	.LBB135:
 333              		.loc 1 62 0
 334 00f6 90F803C0 		ldrb	ip, [r0, #3]	@ zero_extendqisi2
 335 00fa 6745     		cmp	r7, ip
 336 00fc C6DA     		bge	.L12
 337              		.loc 1 64 0
 338 00fe 17FB0636 		smlabb	r6, r7, r6, r3
 339 0102 D0F808E0 		ldr	lr, [r0, #8]
 340              		.loc 1 65 0
 341 0106 027E     		ldrb	r2, [r0, #24]	@ zero_extendqisi2
 342              		.loc 1 64 0
ARM GAS  /tmp/cc04S6rC.s 			page 7


 343 0108 1EF806C0 		ldrb	ip, [lr, r6]	@ zero_extendqisi2
 344              	.LVL25:
 345              	.LBE135:
 346              	.LBE134:
 347              	.LBE141:
 348              	.LBE164:
 349              		.loc 1 98 0
 350 010c 01FA04F4 		lsl	r4, r1, r4
 351              	.LBB165:
 352              	.LBB142:
 353              	.LBB138:
 354              	.LBB136:
 355              		.loc 1 65 0
 356 0110 8AB3     		cbz	r2, .L13
 357              		.loc 1 66 0
 358 0112 2CEA0402 		bic	r2, ip, r4
 359              	.L14:
 360 0116 0EF80620 		strb	r2, [lr, r6]
 361              		.loc 1 69 0
 362 011a 0278     		ldrb	r2, [r0]	@ zero_extendqisi2
 363 011c 8468     		ldr	r4, [r0, #8]
 364 011e 17FB0232 		smlabb	r2, r7, r2, r3
 365 0122 A25C     		ldrb	r2, [r4, r2]	@ zero_extendqisi2
 366 0124 6245     		cmp	r2, ip
 367 0126 0BD0     		beq	.L15
 368              		.loc 1 72 0
 369 0128 8678     		ldrb	r6, [r0, #2]	@ zero_extendqisi2
 370 012a 4468     		ldr	r4, [r0, #4]
 371 012c 1A11     		asrs	r2, r3, #4
 372 012e 17FB0622 		smlabb	r2, r7, r6, r2
 373 0132 C3F34207 		ubfx	r7, r3, #1, #3
 374              	.LVL26:
 375 0136 A65C     		ldrb	r6, [r4, r2]	@ zero_extendqisi2
 376 0138 0123     		movs	r3, #1
 377              	.LVL27:
 378 013a BB40     		lsls	r3, r3, r7
 379 013c 3343     		orrs	r3, r3, r6
 380 013e A354     		strb	r3, [r4, r2]
 381              	.L15:
 382              	.LVL28:
 383              	.LBE136:
 384              	.LBE138:
 385              	.LBE142:
 386              	.LBE165:
 387              		.loc 1 100 0
 388 0140 B0F91620 		ldrsh	r2, [r0, #22]
 389 0144 B0F91430 		ldrsh	r3, [r0, #20]
 390 0148 12F00704 		ands	r4, r2, #7
 391 014c CCD0     		beq	.L16
 392              	.LVL29:
 393              	.LBB166:
 394              	.LBB158:
 395              		.loc 1 62 0
 396 014e 002B     		cmp	r3, #0
 397 0150 CADB     		blt	.L16
 398              	.LBE158:
 399              	.LBE166:
ARM GAS  /tmp/cc04S6rC.s 			page 8


 400              		.loc 1 102 0
 401 0152 5242     		rsbs	r2, r2, #0
 402              	.LVL30:
 403 0154 02F00702 		and	r2, r2, #7
 404 0158 58BF     		it	pl
 405 015a 5442     		rsbpl	r4, r2, #0
 406 015c 04F00702 		and	r2, r4, #7
 407              	.LBB167:
 408              	.LBB159:
 409              	.LBB153:
 410              	.LBB149:
 411              		.loc 1 62 0
 412 0160 0678     		ldrb	r6, [r0]	@ zero_extendqisi2
 413              	.LBE149:
 414              	.LBE153:
 415              	.LBE159:
 416              	.LBE167:
 417              		.loc 1 102 0
 418 0162 C2F10802 		rsb	r2, r2, #8
 419 0166 1141     		asrs	r1, r1, r2
 420              	.LVL31:
 421              	.LBB168:
 422              	.LBB160:
 423              	.LBB154:
 424              	.LBB150:
 425              		.loc 1 62 0
 426 0168 B342     		cmp	r3, r6
 427              	.LBE150:
 428              	.LBE154:
 429              	.LBE160:
 430              	.LBE168:
 431              		.loc 1 102 0
 432 016a 08F10102 		add	r2, r8, #1
 433 016e 12B2     		sxth	r2, r2
 434 0170 CCB2     		uxtb	r4, r1
 435              	.LVL32:
 436              	.LBB169:
 437              	.LBB161:
 438              	.LBB155:
 439              	.LBB151:
 440              		.loc 1 62 0
 441 0172 B9DA     		bge	.L16
 442 0174 94E7     		b	.L22
 443              	.LVL33:
 444              	.L13:
 445              	.LBE151:
 446              	.LBE155:
 447              	.LBE161:
 448              	.LBE169:
 449              	.LBB170:
 450              	.LBB143:
 451              	.LBB139:
 452              	.LBB137:
 453              		.loc 1 68 0
 454 0176 4CEA0402 		orr	r2, ip, r4
 455 017a D2B2     		uxtb	r2, r2
 456 017c CBE7     		b	.L14
ARM GAS  /tmp/cc04S6rC.s 			page 9


 457              	.LVL34:
 458              	.L17:
 459              	.LBE137:
 460              	.LBE139:
 461              	.LBE143:
 462              	.LBE170:
 463              	.LBB171:
 464              	.LBB162:
 465              	.LBB156:
 466              	.LBB152:
 467 017e 45EA0401 		orr	r1, r5, r4
 468 0182 9BE7     		b	.L18
 469              	.LBE152:
 470              	.LBE156:
 471              	.LBE162:
 472              	.LBE171:
 473              		.cfi_endproc
 474              	.LFE332:
 475              		.size	OLED_writeData, .-OLED_writeData
 476              		.section	.text.OLED_drawChar,"ax",%progbits
 477              		.align	1
 478              		.p2align 2,,3
 479              		.global	OLED_drawChar
 480              		.syntax unified
 481              		.thumb
 482              		.thumb_func
 483              		.fpu fpv4-sp-d16
 484              		.type	OLED_drawChar, %function
 485              	OLED_drawChar:
 486              	.LFB333:
 487              		.loc 1 109 0
 488              		.cfi_startproc
 489              		@ args = 8, pretend = 0, frame = 24
 490              		@ frame_needed = 0, uses_anonymous_args = 0
 491              	.LVL35:
 492 0000 2DE9F04F 		push	{r4, r5, r6, r7, r8, r9, r10, fp, lr}
 493              		.cfi_def_cfa_offset 36
 494              		.cfi_offset 4, -36
 495              		.cfi_offset 5, -32
 496              		.cfi_offset 6, -28
 497              		.cfi_offset 7, -24
 498              		.cfi_offset 8, -20
 499              		.cfi_offset 9, -16
 500              		.cfi_offset 10, -12
 501              		.cfi_offset 11, -8
 502              		.cfi_offset 14, -4
 503 0004 87B0     		sub	sp, sp, #28
 504              		.cfi_def_cfa_offset 64
 505              		.loc 1 111 0
 506 0006 203B     		subs	r3, r3, #32
 507              	.LVL36:
 508              		.loc 1 109 0
 509 0008 9DF84450 		ldrb	r5, [sp, #68]	@ zero_extendqisi2
 510 000c 9DF84040 		ldrb	r4, [sp, #64]	@ zero_extendqisi2
 511              		.loc 1 113 0
 512 0010 072D     		cmp	r5, #7
 513              		.loc 1 111 0
ARM GAS  /tmp/cc04S6rC.s 			page 10


 514 0012 DBB2     		uxtb	r3, r3
 515              	.LVL37:
 516              		.loc 1 113 0
 517 0014 00F25681 		bhi	.L95
 518              		.loc 1 114 0
 519 0018 C5F10807 		rsb	r7, r5, #8
 520 001c FF26     		movs	r6, #255
 521 001e 3E41     		asrs	r6, r6, r7
 522              		.loc 1 115 0
 523 0020 082C     		cmp	r4, #8
 524              		.loc 1 114 0
 525 0022 5FFA86FB 		uxtb	fp, r6
 526              	.LVL38:
 527              		.loc 1 115 0
 528 0026 00F05281 		beq	.L36
 529              	.L117:
 530 002a 102C     		cmp	r4, #16
 531 002c 40F04581 		bne	.L33
 532              	.LVL39:
 533              		.loc 1 120 0
 534 0030 A34C     		ldr	r4, .L119
 535              	.LBB214:
 536              	.LBB215:
 537              		.loc 1 77 0
 538 0032 8182     		strh	r1, [r0, #20]	@ movhi
 539              	.LBE215:
 540              	.LBE214:
 541              		.loc 1 120 0
 542 0034 4FEA031A 		lsl	r10, r3, #4
 543 0038 04EB0A09 		add	r9, r4, r10
 544              	.LBB217:
 545              	.LBB216:
 546              		.loc 1 78 0
 547 003c C282     		strh	r2, [r0, #22]	@ movhi
 548              	.LVL40:
 549              	.LBE216:
 550              	.LBE217:
 551              		.loc 1 120 0
 552 003e 0B46     		mov	r3, r1
 553              	.LVL41:
 554 0040 0024     		movs	r4, #0
 555              	.LBB218:
 556              	.LBB219:
 557              		.loc 1 93 0
 558 0042 4FF0FF08 		mov	r8, #255
 559 0046 0192     		str	r2, [sp, #4]
 560              	.LVL42:
 561              	.L52:
 562              		.loc 1 83 0 discriminator 3
 563 0048 B0F90C60 		ldrsh	r6, [r0, #12]
 564 004c 9E42     		cmp	r6, r3
 565 004e 00F39280 		bgt	.L48
 566              		.loc 1 83 0 is_stmt 0
 567 0052 B0F91060 		ldrsh	r6, [r0, #16]
 568 0056 9E42     		cmp	r6, r3
 569 0058 C0F28D80 		blt	.L48
 570 005c B0F91660 		ldrsh	r6, [r0, #22]
ARM GAS  /tmp/cc04S6rC.s 			page 11


 571 0060 B0F90E70 		ldrsh	r7, [r0, #14]
 572 0064 06F1070C 		add	ip, r6, #7
 573 0068 BC45     		cmp	ip, r7
 574 006a C0F28480 		blt	.L48
 575              		.loc 1 84 0 is_stmt 1
 576 006e A7F1070E 		sub	lr, r7, #7
 577              		.loc 1 83 0
 578 0072 7645     		cmp	r6, lr
 579 0074 7FDB     		blt	.L48
 580              		.loc 1 84 0
 581 0076 002B     		cmp	r3, #0
 582 0078 7DDB     		blt	.L48
 583 007a 0278     		ldrb	r2, [r0]	@ zero_extendqisi2
 584 007c 0292     		str	r2, [sp, #8]
 585 007e 9342     		cmp	r3, r2
 586 0080 79DA     		bge	.L48
 587 0082 90F801E0 		ldrb	lr, [r0, #1]	@ zero_extendqisi2
 588 0086 7645     		cmp	r6, lr
 589 0088 75DA     		bge	.L48
 590              	.LBE219:
 591              	.LBE218:
 592              		.loc 1 120 0
 593 008a 19F804E0 		ldrb	lr, [r9, r4]	@ zero_extendqisi2
 594              	.LBB266:
 595              	.LBB260:
 596              		.loc 1 90 0
 597 008e BE42     		cmp	r6, r7
 598              	.LBE260:
 599              	.LBE266:
 600              		.loc 1 120 0
 601 0090 0BEA0E02 		and	r2, fp, lr
 602 0094 0392     		str	r2, [sp, #12]
 603              	.LVL43:
 604              	.LBB267:
 605              	.LBB261:
 606              		.loc 1 90 0
 607 0096 04DA     		bge	.L41
 608              		.loc 1 91 0
 609 0098 BF1B     		subs	r7, r7, r6
 610 009a 08FA07F7 		lsl	r7, r8, r7
 611 009e 3A40     		ands	r2, r2, r7
 612 00a0 0392     		str	r2, [sp, #12]
 613              	.LVL44:
 614              	.L41:
 615              		.loc 1 92 0
 616 00a2 B0F91270 		ldrsh	r7, [r0, #18]
 617 00a6 06F1060E 		add	lr, r6, #6
 618 00aa BE45     		cmp	lr, r7
 619 00ac 06DB     		blt	.L42
 620              		.loc 1 93 0
 621 00ae 039A     		ldr	r2, [sp, #12]
 622 00b0 ACEB0707 		sub	r7, ip, r7
 623 00b4 48FA07F7 		asr	r7, r8, r7
 624              	.LVL45:
 625 00b8 3A40     		ands	r2, r2, r7
 626              	.LVL46:
 627 00ba 0392     		str	r2, [sp, #12]
ARM GAS  /tmp/cc04S6rC.s 			page 12


 628              	.LVL47:
 629              	.L42:
 630              		.loc 1 95 0
 631 00bc 1CEA260C 		ands	ip, ip, r6, asr #32
 632 00c0 38BF     		it	cc
 633 00c2 B446     		movcc	ip, r6
 634 00c4 F713     		asrs	r7, r6, #15
 635 00c6 07EBEC0C 		add	ip, r7, ip, asr #3
 636 00ca 1FFA8CF2 		uxth	r2, ip
 637              		.loc 1 98 0
 638 00ce 7742     		rsbs	r7, r6, #0
 639 00d0 07F00707 		and	r7, r7, #7
 640 00d4 06F00706 		and	r6, r6, #7
 641              		.loc 1 95 0
 642 00d8 0FFA82FC 		sxth	ip, r2
 643              	.LVL48:
 644              		.loc 1 98 0
 645 00dc B646     		mov	lr, r6
 646 00de 58BF     		it	pl
 647 00e0 C7F1000E 		rsbpl	lr, r7, #0
 648              	.LBB220:
 649              	.LBB221:
 650              		.loc 1 62 0
 651 00e4 BCF1000F 		cmp	ip, #0
 652              	.LBE221:
 653              	.LBE220:
 654              		.loc 1 95 0
 655 00e8 0492     		str	r2, [sp, #16]
 656              		.loc 1 98 0
 657 00ea 0EF0070E 		and	lr, lr, #7
 658              	.LVL49:
 659              	.LBB232:
 660              	.LBB228:
 661              		.loc 1 62 0
 662 00ee 80F28981 		bge	.L115
 663              	.L44:
 664              	.LVL50:
 665              	.LBE228:
 666              	.LBE232:
 667              		.loc 1 100 0
 668 00f2 002E     		cmp	r6, #0
 669 00f4 3FD0     		beq	.L48
 670              		.loc 1 102 0
 671 00f6 049A     		ldr	r2, [sp, #16]
 672 00f8 02F1010C 		add	ip, r2, #1
 673              	.LVL51:
 674 00fc 039A     		ldr	r2, [sp, #12]
 675 00fe CEF1080E 		rsb	lr, lr, #8
 676 0102 42FA0EFE 		asr	lr, r2, lr
 677 0106 0FFA8CFC 		sxth	ip, ip
 678 010a 5FFA8EF2 		uxtb	r2, lr
 679              	.LBB233:
 680              	.LBB234:
 681              		.loc 1 62 0
 682 010e BCF1000F 		cmp	ip, #0
 683              	.LBE234:
 684              	.LBE233:
ARM GAS  /tmp/cc04S6rC.s 			page 13


 685              		.loc 1 102 0
 686 0112 0392     		str	r2, [sp, #12]
 687              	.LVL52:
 688              	.LBB251:
 689              	.LBB245:
 690              		.loc 1 62 0
 691 0114 2FDB     		blt	.L48
 692              	.LVL53:
 693              	.LBB235:
 694              	.LBB236:
 695 0116 029E     		ldr	r6, [sp, #8]
 696              	.L92:
 697              	.LVL54:
 698 0118 C778     		ldrb	r7, [r0, #3]	@ zero_extendqisi2
 699 011a BC45     		cmp	ip, r7
 700 011c 2BDA     		bge	.L48
 701              		.loc 1 64 0
 702 011e 8268     		ldr	r2, [r0, #8]
 703              		.loc 1 65 0
 704 0120 077E     		ldrb	r7, [r0, #24]	@ zero_extendqisi2
 705 0122 0497     		str	r7, [sp, #16]
 706              	.LVL55:
 707              		.loc 1 64 0
 708 0124 06FB0C36 		mla	r6, r6, ip, r3
 709 0128 0292     		str	r2, [sp, #8]
 710 012a 975D     		ldrb	r7, [r2, r6]	@ zero_extendqisi2
 711              	.LVL56:
 712              		.loc 1 65 0
 713 012c 049A     		ldr	r2, [sp, #16]
 714 012e 002A     		cmp	r2, #0
 715 0130 00F06A82 		beq	.L49
 716              		.loc 1 66 0
 717 0134 27EA0E0E 		bic	lr, r7, lr
 718              	.L50:
 719 0138 029A     		ldr	r2, [sp, #8]
 720 013a 02F806E0 		strb	lr, [r2, r6]
 721              		.loc 1 69 0
 722 013e 90F800E0 		ldrb	lr, [r0]	@ zero_extendqisi2
 723 0142 8668     		ldr	r6, [r0, #8]
 724 0144 1CFB0E3E 		smlabb	lr, ip, lr, r3
 725 0148 16F80E60 		ldrb	r6, [r6, lr]	@ zero_extendqisi2
 726 014c BE42     		cmp	r6, r7
 727 014e 10D0     		beq	.L112
 728              		.loc 1 72 0
 729 0150 90F802E0 		ldrb	lr, [r0, #2]	@ zero_extendqisi2
 730 0154 4668     		ldr	r6, [r0, #4]
 731 0156 43F30F17 		sbfx	r7, r3, #4, #16
 732              	.LVL57:
 733 015a 1CFB0E7C 		smlabb	ip, ip, lr, r7
 734              	.LVL58:
 735 015e C3F34203 		ubfx	r3, r3, #1, #3
 736              	.LVL59:
 737 0162 16F80C70 		ldrb	r7, [r6, ip]	@ zero_extendqisi2
 738 0166 0122     		movs	r2, #1
 739 0168 02FA03F3 		lsl	r3, r2, r3
 740 016c 3B43     		orrs	r3, r3, r7
 741 016e 06F80C30 		strb	r3, [r6, ip]
ARM GAS  /tmp/cc04S6rC.s 			page 14


 742              	.L112:
 743 0172 B0F91430 		ldrsh	r3, [r0, #20]
 744              	.LVL60:
 745              	.L48:
 746              	.LBE236:
 747              	.LBE235:
 748              	.LBE245:
 749              	.LBE251:
 750              		.loc 1 104 0
 751 0176 0133     		adds	r3, r3, #1
 752 0178 0134     		adds	r4, r4, #1
 753              	.LVL61:
 754 017a 1BB2     		sxth	r3, r3
 755              	.LBE261:
 756              	.LBE267:
 757              		.loc 1 119 0
 758 017c 082C     		cmp	r4, #8
 759              	.LBB268:
 760              	.LBB262:
 761              		.loc 1 104 0
 762 017e 8382     		strh	r3, [r0, #20]	@ movhi
 763              	.LVL62:
 764              	.LBE262:
 765              	.LBE268:
 766              		.loc 1 119 0
 767 0180 7FF462AF 		bne	.L52
 768              		.loc 1 121 0
 769 0184 082D     		cmp	r5, #8
 770 0186 019A     		ldr	r2, [sp, #4]
 771 0188 40F29780 		bls	.L33
 772              		.loc 1 123 0
 773 018c 0F2D     		cmp	r5, #15
 774 018e 06D8     		bhi	.L54
 775              		.loc 1 124 0
 776 0190 C5F11005 		rsb	r5, r5, #16
 777 0194 FF23     		movs	r3, #255
 778 0196 43FA05F5 		asr	r5, r3, r5
 779 019a 5FFA85FB 		uxtb	fp, r5
 780              	.LVL63:
 781              	.L54:
 782              		.loc 1 125 0
 783 019e 0832     		adds	r2, r2, #8
 784              	.LVL64:
 785              		.loc 1 127 0
 786 01a0 474E     		ldr	r6, .L119
 787              	.LBB269:
 788              	.LBB270:
 789              		.loc 1 78 0
 790 01a2 C282     		strh	r2, [r0, #22]	@ movhi
 791              	.LVL65:
 792              		.loc 1 77 0
 793 01a4 8182     		strh	r1, [r0, #20]	@ movhi
 794              		.loc 1 78 0
 795 01a6 0023     		movs	r3, #0
 796              	.LBE270:
 797              	.LBE269:
 798              	.LBB271:
ARM GAS  /tmp/cc04S6rC.s 			page 15


 799              	.LBB272:
 800              	.LBB273:
 801              	.LBB274:
 802              	.LBB275:
 803              	.LBB276:
 804              		.loc 1 72 0
 805 01a8 4FF0010C 		mov	ip, #1
 806              	.LVL66:
 807              	.L69:
 808              	.LBE276:
 809              	.LBE275:
 810              	.LBE274:
 811              	.LBE273:
 812              		.loc 1 83 0 discriminator 3
 813 01ac B0F90C20 		ldrsh	r2, [r0, #12]
 814 01b0 8A42     		cmp	r2, r1
 815 01b2 7BDC     		bgt	.L65
 816              		.loc 1 83 0 is_stmt 0
 817 01b4 B0F91020 		ldrsh	r2, [r0, #16]
 818 01b8 8A42     		cmp	r2, r1
 819 01ba 77DB     		blt	.L65
 820 01bc B0F91640 		ldrsh	r4, [r0, #22]
 821 01c0 B0F90E70 		ldrsh	r7, [r0, #14]
 822 01c4 04F10708 		add	r8, r4, #7
 823 01c8 B845     		cmp	r8, r7
 824 01ca 6FDB     		blt	.L65
 825              		.loc 1 84 0 is_stmt 1
 826 01cc FA1F     		subs	r2, r7, #7
 827              		.loc 1 83 0
 828 01ce 9442     		cmp	r4, r2
 829 01d0 6CDB     		blt	.L65
 830              		.loc 1 84 0
 831 01d2 0029     		cmp	r1, #0
 832 01d4 6ADB     		blt	.L65
 833 01d6 90F800E0 		ldrb	lr, [r0]	@ zero_extendqisi2
 834 01da 7145     		cmp	r1, lr
 835 01dc 66DA     		bge	.L65
 836 01de 4278     		ldrb	r2, [r0, #1]	@ zero_extendqisi2
 837 01e0 9442     		cmp	r4, r2
 838 01e2 63DA     		bge	.L65
 839              	.LBE272:
 840              	.LBE271:
 841              		.loc 1 127 0
 842 01e4 0AEB0302 		add	r2, r10, r3
 843 01e8 3244     		add	r2, r2, r6
 844              	.LBB323:
 845              	.LBB317:
 846              		.loc 1 90 0
 847 01ea BC42     		cmp	r4, r7
 848              	.LBE317:
 849              	.LBE323:
 850              		.loc 1 127 0
 851 01ec 127A     		ldrb	r2, [r2, #8]	@ zero_extendqisi2
 852 01ee 0BEA0202 		and	r2, fp, r2
 853              	.LVL67:
 854              	.LBB324:
 855              	.LBB318:
ARM GAS  /tmp/cc04S6rC.s 			page 16


 856              		.loc 1 90 0
 857 01f2 04DA     		bge	.L58
 858              		.loc 1 91 0
 859 01f4 3F1B     		subs	r7, r7, r4
 860 01f6 FF25     		movs	r5, #255
 861 01f8 05FA07F7 		lsl	r7, r5, r7
 862 01fc 3A40     		ands	r2, r2, r7
 863              	.LVL68:
 864              	.L58:
 865              		.loc 1 92 0
 866 01fe B0F91270 		ldrsh	r7, [r0, #18]
 867 0202 04F10609 		add	r9, r4, #6
 868 0206 B945     		cmp	r9, r7
 869 0208 05DB     		blt	.L59
 870              		.loc 1 93 0
 871 020a A8EB0707 		sub	r7, r8, r7
 872 020e FF25     		movs	r5, #255
 873 0210 45FA07F7 		asr	r7, r5, r7
 874              	.LVL69:
 875 0214 3A40     		ands	r2, r2, r7
 876              	.LVL70:
 877              	.L59:
 878              		.loc 1 95 0
 879 0216 18EA2408 		ands	r8, r8, r4, asr #32
 880 021a 38BF     		it	cc
 881 021c A046     		movcc	r8, r4
 882 021e E713     		asrs	r7, r4, #15
 883 0220 07EBE808 		add	r8, r7, r8, asr #3
 884 0224 1FFA88F9 		uxth	r9, r8
 885              		.loc 1 98 0
 886 0228 6742     		rsbs	r7, r4, #0
 887 022a 07F00707 		and	r7, r7, #7
 888 022e 04F00704 		and	r4, r4, #7
 889              		.loc 1 95 0
 890 0232 0FFA89F8 		sxth	r8, r9
 891              	.LVL71:
 892              		.loc 1 98 0
 893 0236 2546     		mov	r5, r4
 894 0238 58BF     		it	pl
 895 023a 7D42     		rsbpl	r5, r7, #0
 896              	.LBB294:
 897              	.LBB295:
 898              		.loc 1 62 0
 899 023c B8F1000F 		cmp	r8, #0
 900              	.LBE295:
 901              	.LBE294:
 902              		.loc 1 98 0
 903 0240 05F00707 		and	r7, r5, #7
 904              	.LVL72:
 905              	.LBB306:
 906              	.LBB302:
 907              		.loc 1 62 0
 908 0244 80F28181 		bge	.L116
 909              	.L61:
 910              	.LVL73:
 911              	.LBE302:
 912              	.LBE306:
ARM GAS  /tmp/cc04S6rC.s 			page 17


 913              		.loc 1 100 0
 914 0248 84B3     		cbz	r4, .L65
 915              		.loc 1 102 0
 916 024a 09F10104 		add	r4, r9, #1
 917 024e C7F10807 		rsb	r7, r7, #8
 918 0252 24B2     		sxth	r4, r4
 919 0254 3A41     		asrs	r2, r2, r7
 920              	.LBB307:
 921              	.LBB287:
 922              		.loc 1 62 0
 923 0256 002C     		cmp	r4, #0
 924              	.LBE287:
 925              	.LBE307:
 926              		.loc 1 102 0
 927 0258 D7B2     		uxtb	r7, r2
 928              	.LVL74:
 929              	.LBB308:
 930              	.LBB288:
 931              		.loc 1 62 0
 932 025a 27DB     		blt	.L65
 933              	.LVL75:
 934              	.L93:
 935              	.LBB282:
 936              	.LBB277:
 937 025c 90F80380 		ldrb	r8, [r0, #3]	@ zero_extendqisi2
 938 0260 4445     		cmp	r4, r8
 939 0262 23DA     		bge	.L65
 940              		.loc 1 64 0
 941 0264 0EFB0419 		mla	r9, lr, r4, r1
 942              	.LVL76:
 943 0268 D0F80880 		ldr	r8, [r0, #8]
 944              		.loc 1 65 0
 945 026c 057E     		ldrb	r5, [r0, #24]	@ zero_extendqisi2
 946              		.loc 1 64 0
 947 026e 18F809E0 		ldrb	lr, [r8, r9]	@ zero_extendqisi2
 948              	.LVL77:
 949              		.loc 1 65 0
 950 0272 002D     		cmp	r5, #0
 951 0274 00F0CC81 		beq	.L66
 952              		.loc 1 66 0
 953 0278 2EEA0202 		bic	r2, lr, r2
 954              	.L67:
 955 027c 08F80920 		strb	r2, [r8, r9]
 956              		.loc 1 69 0
 957 0280 0778     		ldrb	r7, [r0]	@ zero_extendqisi2
 958              	.LVL78:
 959 0282 8268     		ldr	r2, [r0, #8]
 960 0284 14FB0717 		smlabb	r7, r4, r7, r1
 961 0288 D25D     		ldrb	r2, [r2, r7]	@ zero_extendqisi2
 962 028a 7245     		cmp	r2, lr
 963 028c 0CD0     		beq	.L113
 964              		.loc 1 72 0
 965 028e 8278     		ldrb	r2, [r0, #2]	@ zero_extendqisi2
 966 0290 4768     		ldr	r7, [r0, #4]
 967 0292 4FEA211E 		asr	lr, r1, #4
 968              	.LVL79:
 969 0296 14FB02E4 		smlabb	r4, r4, r2, lr
ARM GAS  /tmp/cc04S6rC.s 			page 18


 970              	.LVL80:
 971 029a C1F34202 		ubfx	r2, r1, #1, #3
 972 029e 395D     		ldrb	r1, [r7, r4]	@ zero_extendqisi2
 973              	.LVL81:
 974 02a0 0CFA02F2 		lsl	r2, ip, r2
 975 02a4 0A43     		orrs	r2, r2, r1
 976 02a6 3A55     		strb	r2, [r7, r4]
 977              	.L113:
 978 02a8 B0F91410 		ldrsh	r1, [r0, #20]
 979              	.LVL82:
 980              	.L65:
 981              	.LBE277:
 982              	.LBE282:
 983              	.LBE288:
 984              	.LBE308:
 985              		.loc 1 104 0
 986 02ac 0131     		adds	r1, r1, #1
 987 02ae 0133     		adds	r3, r3, #1
 988              	.LVL83:
 989 02b0 09B2     		sxth	r1, r1
 990              	.LBE318:
 991              	.LBE324:
 992              		.loc 1 126 0
 993 02b2 082B     		cmp	r3, #8
 994              	.LBB325:
 995              	.LBB319:
 996              		.loc 1 104 0
 997 02b4 8182     		strh	r1, [r0, #20]	@ movhi
 998              	.LVL84:
 999              	.LBE319:
 1000              	.LBE325:
 1001              		.loc 1 126 0
 1002 02b6 7FF479AF 		bne	.L69
 1003              	.L33:
 1004              		.loc 1 135 0
 1005 02ba 07B0     		add	sp, sp, #28
 1006              		.cfi_remember_state
 1007              		.cfi_def_cfa_offset 36
 1008              		@ sp needed
 1009 02bc BDE8F08F 		pop	{r4, r5, r6, r7, r8, r9, r10, fp, pc}
 1010              	.LVL85:
 1011              	.L120:
 1012              		.align	2
 1013              	.L119:
 1014 02c0 00000000 		.word	.LANCHOR0
 1015              	.LVL86:
 1016              	.L95:
 1017              		.cfi_restore_state
 1018              		.loc 1 115 0
 1019 02c4 082C     		cmp	r4, #8
 1020              		.loc 1 112 0
 1021 02c6 4FF0FF0B 		mov	fp, #255
 1022              	.LVL87:
 1023              		.loc 1 115 0
 1024 02ca 7FF4AEAE 		bne	.L117
 1025              	.L36:
 1026              	.LVL88:
ARM GAS  /tmp/cc04S6rC.s 			page 19


 1027 02ce CD4C     		ldr	r4, .L121
 1028              	.LBB326:
 1029              	.LBB327:
 1030              		.loc 1 77 0
 1031 02d0 8182     		strh	r1, [r0, #20]	@ movhi
 1032 02d2 03EB4303 		add	r3, r3, r3, lsl #1
 1033              	.LVL89:
 1034 02d6 04EB4304 		add	r4, r4, r3, lsl #1
 1035              		.loc 1 78 0
 1036 02da C282     		strh	r2, [r0, #22]	@ movhi
 1037              	.LVL90:
 1038 02dc 0023     		movs	r3, #0
 1039              	.LBE327:
 1040              	.LBE326:
 1041              	.LBB328:
 1042              	.LBB329:
 1043              	.LBB330:
 1044              	.LBB331:
 1045              	.LBB332:
 1046              	.LBB333:
 1047              		.loc 1 72 0
 1048 02de 4FF0010C 		mov	ip, #1
 1049              	.LBE333:
 1050              	.LBE332:
 1051              	.LBE331:
 1052              	.LBE330:
 1053              		.loc 1 93 0
 1054 02e2 FF26     		movs	r6, #255
 1055              	.LVL91:
 1056              	.L85:
 1057              		.loc 1 83 0 discriminator 3
 1058 02e4 B0F90C20 		ldrsh	r2, [r0, #12]
 1059 02e8 8A42     		cmp	r2, r1
 1060 02ea 00F38180 		bgt	.L81
 1061              		.loc 1 83 0 is_stmt 0
 1062 02ee B0F91020 		ldrsh	r2, [r0, #16]
 1063 02f2 8A42     		cmp	r2, r1
 1064 02f4 7CDB     		blt	.L81
 1065 02f6 B0F91670 		ldrsh	r7, [r0, #22]
 1066 02fa B0F90E20 		ldrsh	r2, [r0, #14]
 1067 02fe 07F10708 		add	r8, r7, #7
 1068 0302 9045     		cmp	r8, r2
 1069 0304 74DB     		blt	.L81
 1070              		.loc 1 84 0 is_stmt 1
 1071 0306 D51F     		subs	r5, r2, #7
 1072              		.loc 1 83 0
 1073 0308 AF42     		cmp	r7, r5
 1074 030a 71DB     		blt	.L81
 1075              		.loc 1 84 0
 1076 030c 0029     		cmp	r1, #0
 1077 030e 6FDB     		blt	.L81
 1078 0310 0578     		ldrb	r5, [r0]	@ zero_extendqisi2
 1079 0312 A942     		cmp	r1, r5
 1080 0314 6CDA     		bge	.L81
 1081 0316 90F801E0 		ldrb	lr, [r0, #1]	@ zero_extendqisi2
 1082 031a 7745     		cmp	r7, lr
 1083 031c 68DA     		bge	.L81
ARM GAS  /tmp/cc04S6rC.s 			page 20


 1084              	.LBE329:
 1085              	.LBE328:
 1086              		.loc 1 132 0
 1087 031e 14F803E0 		ldrb	lr, [r4, r3]	@ zero_extendqisi2
 1088              	.LBB380:
 1089              	.LBB374:
 1090              		.loc 1 90 0
 1091 0322 9742     		cmp	r7, r2
 1092              	.LBE374:
 1093              	.LBE380:
 1094              		.loc 1 132 0
 1095 0324 0BEA0E0E 		and	lr, fp, lr
 1096              	.LVL92:
 1097              	.LBB381:
 1098              	.LBB375:
 1099              		.loc 1 90 0
 1100 0328 04DA     		bge	.L74
 1101              		.loc 1 91 0
 1102 032a D21B     		subs	r2, r2, r7
 1103 032c 06FA02F2 		lsl	r2, r6, r2
 1104 0330 02EA0E0E 		and	lr, r2, lr
 1105              	.LVL93:
 1106              	.L74:
 1107              		.loc 1 92 0
 1108 0334 B0F91220 		ldrsh	r2, [r0, #18]
 1109 0338 07F10609 		add	r9, r7, #6
 1110 033c 9145     		cmp	r9, r2
 1111 033e 05DB     		blt	.L75
 1112              		.loc 1 93 0
 1113 0340 A8EB0202 		sub	r2, r8, r2
 1114 0344 46FA02F2 		asr	r2, r6, r2
 1115              	.LVL94:
 1116 0348 02EA0E0E 		and	lr, r2, lr
 1117              	.LVL95:
 1118              	.L75:
 1119              		.loc 1 95 0
 1120 034c 18EA2708 		ands	r8, r8, r7, asr #32
 1121 0350 38BF     		it	cc
 1122 0352 B846     		movcc	r8, r7
 1123 0354 FA13     		asrs	r2, r7, #15
 1124 0356 02EBE808 		add	r8, r2, r8, asr #3
 1125              		.loc 1 98 0
 1126 035a D7F10009 		rsbs	r9, r7, #0
 1127              		.loc 1 95 0
 1128 035e 1FFA88F2 		uxth	r2, r8
 1129              		.loc 1 98 0
 1130 0362 09F00709 		and	r9, r9, #7
 1131 0366 07F0070A 		and	r10, r7, #7
 1132              		.loc 1 95 0
 1133 036a 0FFA82F8 		sxth	r8, r2
 1134              	.LVL96:
 1135              		.loc 1 98 0
 1136 036e 5746     		mov	r7, r10
 1137 0370 58BF     		it	pl
 1138 0372 C9F10007 		rsbpl	r7, r9, #0
 1139              	.LBB351:
 1140              	.LBB352:
ARM GAS  /tmp/cc04S6rC.s 			page 21


 1141              		.loc 1 62 0
 1142 0376 B8F1000F 		cmp	r8, #0
 1143              	.LBE352:
 1144              	.LBE351:
 1145              		.loc 1 98 0
 1146 037a 07F00707 		and	r7, r7, #7
 1147              	.LVL97:
 1148              	.LBB363:
 1149              	.LBB359:
 1150              		.loc 1 62 0
 1151 037e 80F29580 		bge	.L118
 1152              	.L77:
 1153              	.LVL98:
 1154              	.LBE359:
 1155              	.LBE363:
 1156              		.loc 1 100 0
 1157 0382 BAF1000F 		cmp	r10, #0
 1158 0386 33D0     		beq	.L81
 1159              		.loc 1 102 0
 1160 0388 0132     		adds	r2, r2, #1
 1161 038a C7F10807 		rsb	r7, r7, #8
 1162 038e 12B2     		sxth	r2, r2
 1163 0390 4EFA07FE 		asr	lr, lr, r7
 1164              	.LBB364:
 1165              	.LBB344:
 1166              		.loc 1 62 0
 1167 0394 002A     		cmp	r2, #0
 1168              	.LBE344:
 1169              	.LBE364:
 1170              		.loc 1 102 0
 1171 0396 5FFA8EF7 		uxtb	r7, lr
 1172              	.LVL99:
 1173              	.LBB365:
 1174              	.LBB345:
 1175              		.loc 1 62 0
 1176 039a 29DB     		blt	.L81
 1177              	.LVL100:
 1178              	.L94:
 1179              	.LBB339:
 1180              	.LBB334:
 1181 039c 90F80380 		ldrb	r8, [r0, #3]	@ zero_extendqisi2
 1182 03a0 4245     		cmp	r2, r8
 1183 03a2 25DA     		bge	.L81
 1184              		.loc 1 64 0
 1185 03a4 05FB0215 		mla	r5, r5, r2, r1
 1186 03a8 D0F80890 		ldr	r9, [r0, #8]
 1187              		.loc 1 65 0
 1188 03ac 90F818A0 		ldrb	r10, [r0, #24]	@ zero_extendqisi2
 1189              		.loc 1 64 0
 1190 03b0 19F80580 		ldrb	r8, [r9, r5]	@ zero_extendqisi2
 1191              	.LVL101:
 1192              		.loc 1 65 0
 1193 03b4 BAF1000F 		cmp	r10, #0
 1194 03b8 00F02D81 		beq	.L82
 1195              		.loc 1 66 0
 1196 03bc 28EA0E0E 		bic	lr, r8, lr
 1197              	.L83:
ARM GAS  /tmp/cc04S6rC.s 			page 22


 1198 03c0 09F805E0 		strb	lr, [r9, r5]
 1199              		.loc 1 69 0
 1200 03c4 0778     		ldrb	r7, [r0]	@ zero_extendqisi2
 1201              	.LVL102:
 1202 03c6 8568     		ldr	r5, [r0, #8]
 1203 03c8 12FB0717 		smlabb	r7, r2, r7, r1
 1204 03cc ED5D     		ldrb	r5, [r5, r7]	@ zero_extendqisi2
 1205 03ce 4545     		cmp	r5, r8
 1206 03d0 0CD0     		beq	.L114
 1207              		.loc 1 72 0
 1208 03d2 8578     		ldrb	r5, [r0, #2]	@ zero_extendqisi2
 1209 03d4 4768     		ldr	r7, [r0, #4]
 1210 03d6 4FEA211E 		asr	lr, r1, #4
 1211 03da 12FB05E5 		smlabb	r5, r2, r5, lr
 1212 03de C1F34202 		ubfx	r2, r1, #1, #3
 1213              	.LVL103:
 1214 03e2 795D     		ldrb	r1, [r7, r5]	@ zero_extendqisi2
 1215              	.LVL104:
 1216 03e4 0CFA02F2 		lsl	r2, ip, r2
 1217 03e8 0A43     		orrs	r2, r2, r1
 1218 03ea 7A55     		strb	r2, [r7, r5]
 1219              	.L114:
 1220 03ec B0F91410 		ldrsh	r1, [r0, #20]
 1221              	.LVL105:
 1222              	.L81:
 1223              	.LBE334:
 1224              	.LBE339:
 1225              	.LBE345:
 1226              	.LBE365:
 1227              		.loc 1 104 0
 1228 03f0 0131     		adds	r1, r1, #1
 1229 03f2 0133     		adds	r3, r3, #1
 1230              	.LVL106:
 1231 03f4 09B2     		sxth	r1, r1
 1232              	.LBE375:
 1233              	.LBE381:
 1234              		.loc 1 131 0
 1235 03f6 062B     		cmp	r3, #6
 1236              	.LBB382:
 1237              	.LBB376:
 1238              		.loc 1 104 0
 1239 03f8 8182     		strh	r1, [r0, #20]	@ movhi
 1240              	.LVL107:
 1241              	.LBE376:
 1242              	.LBE382:
 1243              		.loc 1 131 0
 1244 03fa 7FF473AF 		bne	.L85
 1245              		.loc 1 135 0
 1246 03fe 07B0     		add	sp, sp, #28
 1247              		.cfi_remember_state
 1248              		.cfi_def_cfa_offset 36
 1249              		@ sp needed
 1250 0400 BDE8F08F 		pop	{r4, r5, r6, r7, r8, r9, r10, fp, pc}
 1251              	.LVL108:
 1252              	.L115:
 1253              		.cfi_restore_state
 1254              	.LBB383:
ARM GAS  /tmp/cc04S6rC.s 			page 23


 1255              	.LBB263:
 1256              	.LBB252:
 1257              	.LBB229:
 1258              	.LBB222:
 1259              	.LBB223:
 1260              		.loc 1 62 0
 1261 0404 C778     		ldrb	r7, [r0, #3]	@ zero_extendqisi2
 1262 0406 BC45     		cmp	ip, r7
 1263 0408 BFF673AE 		bge	.L44
 1264              	.LVL109:
 1265              		.loc 1 64 0
 1266 040c 029A     		ldr	r2, [sp, #8]
 1267 040e 8768     		ldr	r7, [r0, #8]
 1268 0410 1CFB0236 		smlabb	r6, ip, r2, r3
 1269              		.loc 1 65 0
 1270 0414 027E     		ldrb	r2, [r0, #24]	@ zero_extendqisi2
 1271 0416 0592     		str	r2, [sp, #20]
 1272              		.loc 1 64 0
 1273 0418 BA5D     		ldrb	r2, [r7, r6]	@ zero_extendqisi2
 1274 041a 0292     		str	r2, [sp, #8]
 1275              	.LVL110:
 1276              	.LBE223:
 1277              	.LBE222:
 1278              	.LBE229:
 1279              	.LBE252:
 1280              		.loc 1 98 0
 1281 041c 039A     		ldr	r2, [sp, #12]
 1282 041e 02FA0EFE 		lsl	lr, r2, lr
 1283              	.LBB253:
 1284              	.LBB230:
 1285              	.LBB226:
 1286              	.LBB224:
 1287              		.loc 1 65 0
 1288 0422 059A     		ldr	r2, [sp, #20]
 1289 0424 002A     		cmp	r2, #0
 1290 0426 00F0DD80 		beq	.L45
 1291              		.loc 1 66 0
 1292 042a 029A     		ldr	r2, [sp, #8]
 1293 042c 22EA0E0E 		bic	lr, r2, lr
 1294              	.L46:
 1295 0430 07F806E0 		strb	lr, [r7, r6]
 1296              	.LVL111:
 1297              		.loc 1 69 0
 1298 0434 0778     		ldrb	r7, [r0]	@ zero_extendqisi2
 1299 0436 8668     		ldr	r6, [r0, #8]
 1300 0438 1CFB0737 		smlabb	r7, ip, r7, r3
 1301 043c F65D     		ldrb	r6, [r6, r7]	@ zero_extendqisi2
 1302 043e 9642     		cmp	r6, r2
 1303 0440 10D0     		beq	.L47
 1304              		.loc 1 72 0
 1305 0442 8778     		ldrb	r7, [r0, #2]	@ zero_extendqisi2
 1306 0444 D0F804E0 		ldr	lr, [r0, #4]
 1307 0448 43F30F16 		sbfx	r6, r3, #4, #16
 1308 044c 1CFB0766 		smlabb	r6, ip, r7, r6
 1309 0450 C3F34203 		ubfx	r3, r3, #1, #3
 1310 0454 1EF80670 		ldrb	r7, [lr, r6]	@ zero_extendqisi2
 1311 0458 0122     		movs	r2, #1
ARM GAS  /tmp/cc04S6rC.s 			page 24


 1312 045a 02FA03F3 		lsl	r3, r2, r3
 1313 045e 3B43     		orrs	r3, r3, r7
 1314 0460 0EF80630 		strb	r3, [lr, r6]
 1315              	.L47:
 1316              	.LVL112:
 1317              	.LBE224:
 1318              	.LBE226:
 1319              	.LBE230:
 1320              	.LBE253:
 1321              		.loc 1 100 0
 1322 0464 B0F91660 		ldrsh	r6, [r0, #22]
 1323 0468 B0F91430 		ldrsh	r3, [r0, #20]
 1324 046c 16F00707 		ands	r7, r6, #7
 1325 0470 3FF481AE 		beq	.L48
 1326              	.LVL113:
 1327              	.LBB254:
 1328              	.LBB246:
 1329              		.loc 1 62 0
 1330 0474 002B     		cmp	r3, #0
 1331 0476 FFF67EAE 		blt	.L48
 1332              	.LBE246:
 1333              	.LBE254:
 1334              		.loc 1 102 0
 1335 047a 7642     		rsbs	r6, r6, #0
 1336              	.LVL114:
 1337 047c 06F00706 		and	r6, r6, #7
 1338 0480 58BF     		it	pl
 1339 0482 7742     		rsbpl	r7, r6, #0
 1340 0484 039A     		ldr	r2, [sp, #12]
 1341              	.LBB255:
 1342              	.LBB247:
 1343              	.LBB241:
 1344              	.LBB237:
 1345              		.loc 1 62 0
 1346 0486 0678     		ldrb	r6, [r0]	@ zero_extendqisi2
 1347              	.LBE237:
 1348              	.LBE241:
 1349              	.LBE247:
 1350              	.LBE255:
 1351              		.loc 1 102 0
 1352 0488 07F0070E 		and	lr, r7, #7
 1353 048c CEF1080E 		rsb	lr, lr, #8
 1354 0490 42FA0EFE 		asr	lr, r2, lr
 1355 0494 049A     		ldr	r2, [sp, #16]
 1356              	.LBB256:
 1357              	.LBB248:
 1358              	.LBB242:
 1359              	.LBB238:
 1360              		.loc 1 62 0
 1361 0496 B342     		cmp	r3, r6
 1362              	.LBE238:
 1363              	.LBE242:
 1364              	.LBE248:
 1365              	.LBE256:
 1366              		.loc 1 102 0
 1367 0498 02F1010C 		add	ip, r2, #1
 1368              	.LVL115:
ARM GAS  /tmp/cc04S6rC.s 			page 25


 1369 049c 5FFA8EF2 		uxtb	r2, lr
 1370 04a0 0FFA8CFC 		sxth	ip, ip
 1371 04a4 0392     		str	r2, [sp, #12]
 1372              	.LVL116:
 1373              	.LBB257:
 1374              	.LBB249:
 1375              	.LBB243:
 1376              	.LBB239:
 1377              		.loc 1 62 0
 1378 04a6 BFF666AE 		bge	.L48
 1379 04aa 35E6     		b	.L92
 1380              	.LVL117:
 1381              	.L118:
 1382              	.LBE239:
 1383              	.LBE243:
 1384              	.LBE249:
 1385              	.LBE257:
 1386              	.LBE263:
 1387              	.LBE383:
 1388              	.LBB384:
 1389              	.LBB377:
 1390              	.LBB366:
 1391              	.LBB360:
 1392              	.LBB353:
 1393              	.LBB354:
 1394 04ac 90F80390 		ldrb	r9, [r0, #3]	@ zero_extendqisi2
 1395 04b0 C845     		cmp	r8, r9
 1396 04b2 BFF666AF 		bge	.L77
 1397              		.loc 1 64 0
 1398 04b6 18FB0515 		smlabb	r5, r8, r5, r1
 1399 04ba 0195     		str	r5, [sp, #4]
 1400              		.loc 1 65 0
 1401 04bc 057E     		ldrb	r5, [r0, #24]	@ zero_extendqisi2
 1402 04be 0295     		str	r5, [sp, #8]
 1403              		.loc 1 64 0
 1404 04c0 D0F808A0 		ldr	r10, [r0, #8]
 1405 04c4 019D     		ldr	r5, [sp, #4]
 1406 04c6 1AF80590 		ldrb	r9, [r10, r5]	@ zero_extendqisi2
 1407              	.LVL118:
 1408              		.loc 1 65 0
 1409 04ca 029D     		ldr	r5, [sp, #8]
 1410              	.LBE354:
 1411              	.LBE353:
 1412              	.LBE360:
 1413              	.LBE366:
 1414              		.loc 1 98 0
 1415 04cc 0EFA07F7 		lsl	r7, lr, r7
 1416              	.LBB367:
 1417              	.LBB361:
 1418              	.LBB357:
 1419              	.LBB355:
 1420              		.loc 1 65 0
 1421 04d0 002D     		cmp	r5, #0
 1422 04d2 00F08D80 		beq	.L78
 1423              		.loc 1 66 0
 1424 04d6 29EA0707 		bic	r7, r9, r7
 1425              	.L79:
ARM GAS  /tmp/cc04S6rC.s 			page 26


 1426 04da 019D     		ldr	r5, [sp, #4]
 1427 04dc 0AF80570 		strb	r7, [r10, r5]
 1428              	.LVL119:
 1429              		.loc 1 69 0
 1430 04e0 0778     		ldrb	r7, [r0]	@ zero_extendqisi2
 1431 04e2 8568     		ldr	r5, [r0, #8]
 1432 04e4 18FB0717 		smlabb	r7, r8, r7, r1
 1433 04e8 ED5D     		ldrb	r5, [r5, r7]	@ zero_extendqisi2
 1434 04ea 4D45     		cmp	r5, r9
 1435 04ec 0ED0     		beq	.L80
 1436              		.loc 1 72 0
 1437 04ee 90F80290 		ldrb	r9, [r0, #2]	@ zero_extendqisi2
 1438              	.LVL120:
 1439 04f2 4568     		ldr	r5, [r0, #4]
 1440 04f4 0F11     		asrs	r7, r1, #4
 1441 04f6 18FB0978 		smlabb	r8, r8, r9, r7
 1442              	.LVL121:
 1443 04fa C1F34201 		ubfx	r1, r1, #1, #3
 1444 04fe 15F80870 		ldrb	r7, [r5, r8]	@ zero_extendqisi2
 1445 0502 0CFA01F1 		lsl	r1, ip, r1
 1446 0506 3943     		orrs	r1, r1, r7
 1447 0508 05F80810 		strb	r1, [r5, r8]
 1448              	.L80:
 1449              	.LVL122:
 1450              	.LBE355:
 1451              	.LBE357:
 1452              	.LBE361:
 1453              	.LBE367:
 1454              		.loc 1 100 0
 1455 050c B0F91650 		ldrsh	r5, [r0, #22]
 1456 0510 B0F91410 		ldrsh	r1, [r0, #20]
 1457 0514 15F00707 		ands	r7, r5, #7
 1458 0518 3FF46AAF 		beq	.L81
 1459              	.LVL123:
 1460              	.LBB368:
 1461              	.LBB346:
 1462              		.loc 1 62 0
 1463 051c 0029     		cmp	r1, #0
 1464 051e FFF667AF 		blt	.L81
 1465              	.LBE346:
 1466              	.LBE368:
 1467              		.loc 1 102 0
 1468 0522 6D42     		rsbs	r5, r5, #0
 1469              	.LVL124:
 1470 0524 05F00705 		and	r5, r5, #7
 1471 0528 58BF     		it	pl
 1472 052a 6F42     		rsbpl	r7, r5, #0
 1473 052c 07F00707 		and	r7, r7, #7
 1474              	.LBB369:
 1475              	.LBB347:
 1476              	.LBB340:
 1477              	.LBB335:
 1478              		.loc 1 62 0
 1479 0530 0578     		ldrb	r5, [r0]	@ zero_extendqisi2
 1480              	.LBE335:
 1481              	.LBE340:
 1482              	.LBE347:
ARM GAS  /tmp/cc04S6rC.s 			page 27


 1483              	.LBE369:
 1484              		.loc 1 102 0
 1485 0532 C7F10807 		rsb	r7, r7, #8
 1486 0536 4EFA07FE 		asr	lr, lr, r7
 1487              	.LVL125:
 1488 053a 0132     		adds	r2, r2, #1
 1489              	.LVL126:
 1490              	.LBB370:
 1491              	.LBB348:
 1492              	.LBB341:
 1493              	.LBB336:
 1494              		.loc 1 62 0
 1495 053c A942     		cmp	r1, r5
 1496              	.LBE336:
 1497              	.LBE341:
 1498              	.LBE348:
 1499              	.LBE370:
 1500              		.loc 1 102 0
 1501 053e 12B2     		sxth	r2, r2
 1502              	.LVL127:
 1503 0540 5FFA8EF7 		uxtb	r7, lr
 1504              	.LVL128:
 1505              	.LBB371:
 1506              	.LBB349:
 1507              	.LBB342:
 1508              	.LBB337:
 1509              		.loc 1 62 0
 1510 0544 BFF654AF 		bge	.L81
 1511 0548 28E7     		b	.L94
 1512              	.LVL129:
 1513              	.L116:
 1514              	.LBE337:
 1515              	.LBE342:
 1516              	.LBE349:
 1517              	.LBE371:
 1518              	.LBE377:
 1519              	.LBE384:
 1520              	.LBB385:
 1521              	.LBB320:
 1522              	.LBB309:
 1523              	.LBB303:
 1524              	.LBB296:
 1525              	.LBB297:
 1526 054a C578     		ldrb	r5, [r0, #3]	@ zero_extendqisi2
 1527 054c A845     		cmp	r8, r5
 1528 054e BFF67BAE 		bge	.L61
 1529              		.loc 1 64 0
 1530 0552 18FB0E14 		smlabb	r4, r8, lr, r1
 1531 0556 0194     		str	r4, [sp, #4]
 1532              		.loc 1 65 0
 1533 0558 047E     		ldrb	r4, [r0, #24]	@ zero_extendqisi2
 1534              		.loc 1 64 0
 1535 055a 8568     		ldr	r5, [r0, #8]
 1536              		.loc 1 65 0
 1537 055c 0394     		str	r4, [sp, #12]
 1538              		.loc 1 64 0
 1539 055e 019C     		ldr	r4, [sp, #4]
ARM GAS  /tmp/cc04S6rC.s 			page 28


 1540 0560 0295     		str	r5, [sp, #8]
 1541 0562 15F804E0 		ldrb	lr, [r5, r4]	@ zero_extendqisi2
 1542              	.LVL130:
 1543              		.loc 1 65 0
 1544 0566 039C     		ldr	r4, [sp, #12]
 1545              	.LBE297:
 1546              	.LBE296:
 1547              	.LBE303:
 1548              	.LBE309:
 1549              		.loc 1 98 0
 1550 0568 02FA07F7 		lsl	r7, r2, r7
 1551              	.LBB310:
 1552              	.LBB304:
 1553              	.LBB300:
 1554              	.LBB298:
 1555              		.loc 1 65 0
 1556 056c 002C     		cmp	r4, #0
 1557 056e 43D0     		beq	.L62
 1558              		.loc 1 66 0
 1559 0570 2EEA0707 		bic	r7, lr, r7
 1560 0574 2C46     		mov	r4, r5
 1561              	.L63:
 1562 0576 019D     		ldr	r5, [sp, #4]
 1563 0578 6755     		strb	r7, [r4, r5]
 1564              	.LVL131:
 1565              		.loc 1 69 0
 1566 057a 0778     		ldrb	r7, [r0]	@ zero_extendqisi2
 1567 057c 8468     		ldr	r4, [r0, #8]
 1568 057e 18FB0717 		smlabb	r7, r8, r7, r1
 1569 0582 E45D     		ldrb	r4, [r4, r7]	@ zero_extendqisi2
 1570 0584 7445     		cmp	r4, lr
 1571 0586 0ED0     		beq	.L64
 1572              		.loc 1 72 0
 1573 0588 90F802E0 		ldrb	lr, [r0, #2]	@ zero_extendqisi2
 1574              	.LVL132:
 1575 058c 4468     		ldr	r4, [r0, #4]
 1576 058e 0F11     		asrs	r7, r1, #4
 1577 0590 18FB0E78 		smlabb	r8, r8, lr, r7
 1578              	.LVL133:
 1579 0594 C1F34201 		ubfx	r1, r1, #1, #3
 1580 0598 14F80870 		ldrb	r7, [r4, r8]	@ zero_extendqisi2
 1581 059c 0CFA01F1 		lsl	r1, ip, r1
 1582 05a0 3943     		orrs	r1, r1, r7
 1583 05a2 04F80810 		strb	r1, [r4, r8]
 1584              	.L64:
 1585              	.LVL134:
 1586              	.LBE298:
 1587              	.LBE300:
 1588              	.LBE304:
 1589              	.LBE310:
 1590              		.loc 1 100 0
 1591 05a6 B0F91640 		ldrsh	r4, [r0, #22]
 1592 05aa B0F91410 		ldrsh	r1, [r0, #20]
 1593 05ae 14F00707 		ands	r7, r4, #7
 1594 05b2 3FF47BAE 		beq	.L65
 1595              	.LVL135:
 1596              	.LBB311:
ARM GAS  /tmp/cc04S6rC.s 			page 29


 1597              	.LBB289:
 1598              		.loc 1 62 0
 1599 05b6 0029     		cmp	r1, #0
 1600 05b8 FFF678AE 		blt	.L65
 1601              	.LBE289:
 1602              	.LBE311:
 1603              		.loc 1 102 0
 1604 05bc 6442     		rsbs	r4, r4, #0
 1605              	.LVL136:
 1606 05be 04F00704 		and	r4, r4, #7
 1607 05c2 58BF     		it	pl
 1608 05c4 6742     		rsbpl	r7, r4, #0
 1609 05c6 07F00704 		and	r4, r7, #7
 1610              	.LBB312:
 1611              	.LBB290:
 1612              	.LBB283:
 1613              	.LBB278:
 1614              		.loc 1 62 0
 1615 05ca 90F800E0 		ldrb	lr, [r0]	@ zero_extendqisi2
 1616              	.LBE278:
 1617              	.LBE283:
 1618              	.LBE290:
 1619              	.LBE312:
 1620              		.loc 1 102 0
 1621 05ce C4F10804 		rsb	r4, r4, #8
 1622 05d2 2241     		asrs	r2, r2, r4
 1623              	.LVL137:
 1624              	.LBB313:
 1625              	.LBB291:
 1626              	.LBB284:
 1627              	.LBB279:
 1628              		.loc 1 62 0
 1629 05d4 7145     		cmp	r1, lr
 1630              	.LBE279:
 1631              	.LBE284:
 1632              	.LBE291:
 1633              	.LBE313:
 1634              		.loc 1 102 0
 1635 05d6 09F10104 		add	r4, r9, #1
 1636 05da 24B2     		sxth	r4, r4
 1637 05dc D7B2     		uxtb	r7, r2
 1638              	.LVL138:
 1639              	.LBB314:
 1640              	.LBB292:
 1641              	.LBB285:
 1642              	.LBB280:
 1643              		.loc 1 62 0
 1644 05de BFF665AE 		bge	.L65
 1645 05e2 3BE6     		b	.L93
 1646              	.LVL139:
 1647              	.L45:
 1648              	.LBE280:
 1649              	.LBE285:
 1650              	.LBE292:
 1651              	.LBE314:
 1652              	.LBE320:
 1653              	.LBE385:
ARM GAS  /tmp/cc04S6rC.s 			page 30


 1654              	.LBB386:
 1655              	.LBB264:
 1656              	.LBB258:
 1657              	.LBB231:
 1658              	.LBB227:
 1659              	.LBB225:
 1660              		.loc 1 68 0
 1661 05e4 029A     		ldr	r2, [sp, #8]
 1662 05e6 42EA0E0E 		orr	lr, r2, lr
 1663 05ea 5FFA8EFE 		uxtb	lr, lr
 1664 05ee 1FE7     		b	.L46
 1665              	.LVL140:
 1666              	.L78:
 1667              	.LBE225:
 1668              	.LBE227:
 1669              	.LBE231:
 1670              	.LBE258:
 1671              	.LBE264:
 1672              	.LBE386:
 1673              	.LBB387:
 1674              	.LBB378:
 1675              	.LBB372:
 1676              	.LBB362:
 1677              	.LBB358:
 1678              	.LBB356:
 1679 05f0 49EA0707 		orr	r7, r9, r7
 1680 05f4 FFB2     		uxtb	r7, r7
 1681 05f6 70E7     		b	.L79
 1682              	.LVL141:
 1683              	.L62:
 1684              	.LBE356:
 1685              	.LBE358:
 1686              	.LBE362:
 1687              	.LBE372:
 1688              	.LBE378:
 1689              	.LBE387:
 1690              	.LBB388:
 1691              	.LBB321:
 1692              	.LBB315:
 1693              	.LBB305:
 1694              	.LBB301:
 1695              	.LBB299:
 1696 05f8 4EEA0707 		orr	r7, lr, r7
 1697 05fc FFB2     		uxtb	r7, r7
 1698 05fe 2C46     		mov	r4, r5
 1699 0600 B9E7     		b	.L63
 1700              	.L122:
 1701 0602 00BF     		.align	2
 1702              	.L121:
 1703 0604 00000000 		.word	.LANCHOR1
 1704              	.LVL142:
 1705              	.L49:
 1706              	.LBE299:
 1707              	.LBE301:
 1708              	.LBE305:
 1709              	.LBE315:
 1710              	.LBE321:
ARM GAS  /tmp/cc04S6rC.s 			page 31


 1711              	.LBE388:
 1712              	.LBB389:
 1713              	.LBB265:
 1714              	.LBB259:
 1715              	.LBB250:
 1716              	.LBB244:
 1717              	.LBB240:
 1718 0608 039A     		ldr	r2, [sp, #12]
 1719 060a 47EA020E 		orr	lr, r7, r2
 1720 060e 93E5     		b	.L50
 1721              	.LVL143:
 1722              	.L66:
 1723              	.LBE240:
 1724              	.LBE244:
 1725              	.LBE250:
 1726              	.LBE259:
 1727              	.LBE265:
 1728              	.LBE389:
 1729              	.LBB390:
 1730              	.LBB322:
 1731              	.LBB316:
 1732              	.LBB293:
 1733              	.LBB286:
 1734              	.LBB281:
 1735 0610 4EEA0702 		orr	r2, lr, r7
 1736 0614 32E6     		b	.L67
 1737              	.LVL144:
 1738              	.L82:
 1739              	.LBE281:
 1740              	.LBE286:
 1741              	.LBE293:
 1742              	.LBE316:
 1743              	.LBE322:
 1744              	.LBE390:
 1745              	.LBB391:
 1746              	.LBB379:
 1747              	.LBB373:
 1748              	.LBB350:
 1749              	.LBB343:
 1750              	.LBB338:
 1751 0616 48EA070E 		orr	lr, r8, r7
 1752 061a D1E6     		b	.L83
 1753              	.LBE338:
 1754              	.LBE343:
 1755              	.LBE350:
 1756              	.LBE373:
 1757              	.LBE379:
 1758              	.LBE391:
 1759              		.cfi_endproc
 1760              	.LFE333:
 1761              		.size	OLED_drawChar, .-OLED_drawChar
 1762              		.section	.text.OLED_drawString,"ax",%progbits
 1763              		.align	1
 1764              		.p2align 2,,3
 1765              		.global	OLED_drawString
 1766              		.syntax unified
 1767              		.thumb
ARM GAS  /tmp/cc04S6rC.s 			page 32


 1768              		.thumb_func
 1769              		.fpu fpv4-sp-d16
 1770              		.type	OLED_drawString, %function
 1771              	OLED_drawString:
 1772              	.LFB335:
 1773              		.loc 1 144 0
 1774              		.cfi_startproc
 1775              		@ args = 16, pretend = 0, frame = 88
 1776              		@ frame_needed = 0, uses_anonymous_args = 0
 1777              	.LVL145:
 1778 0000 2DE9F04F 		push	{r4, r5, r6, r7, r8, r9, r10, fp, lr}
 1779              		.cfi_def_cfa_offset 36
 1780              		.cfi_offset 4, -36
 1781              		.cfi_offset 5, -32
 1782              		.cfi_offset 6, -28
 1783              		.cfi_offset 7, -24
 1784              		.cfi_offset 8, -20
 1785              		.cfi_offset 9, -16
 1786              		.cfi_offset 10, -12
 1787              		.cfi_offset 11, -8
 1788              		.cfi_offset 14, -4
 1789 0004 99B0     		sub	sp, sp, #100
 1790              		.cfi_def_cfa_offset 136
 1791              		.loc 1 144 0
 1792 0006 1E46     		mov	r6, r3
 1793 0008 9DF89040 		ldrb	r4, [sp, #144]	@ zero_extendqisi2
 1794 000c DDF88C80 		ldr	r8, [sp, #140]
 1795 0010 9DF88850 		ldrb	r5, [sp, #136]	@ zero_extendqisi2
 1796 0014 0995     		str	r5, [sp, #36]
 1797              		.loc 1 146 0
 1798 0016 102C     		cmp	r4, #16
 1799 0018 0CBF     		ite	eq
 1800 001a 0823     		moveq	r3, #8
 1801              	.LVL146:
 1802 001c 0623     		movne	r3, #6
 1803 001e 1093     		str	r3, [sp, #64]
 1804 0020 0393     		str	r3, [sp, #12]
 1805              	.LVL147:
 1806              		.loc 1 145 0
 1807 0022 0023     		movs	r3, #0
 1808 0024 9C46     		mov	ip, r3
 1809              		.loc 1 144 0
 1810 0026 9DF89450 		ldrb	r5, [sp, #148]	@ zero_extendqisi2
 1811              		.loc 1 145 0
 1812 002a 0693     		str	r3, [sp, #24]
 1813 002c 98F80030 		ldrb	r3, [r8]	@ zero_extendqisi2
 1814              		.loc 1 144 0
 1815 0030 0794     		str	r4, [sp, #28]
 1816 0032 0F95     		str	r5, [sp, #60]
 1817 0034 0746     		mov	r7, r0
 1818 0036 0891     		str	r1, [sp, #32]
 1819 0038 0B92     		str	r2, [sp, #44]
 1820 003a E346     		mov	fp, ip
 1821 003c B246     		mov	r10, r6
 1822              	.LVL148:
 1823              	.L125:
 1824              		.loc 1 151 0
ARM GAS  /tmp/cc04S6rC.s 			page 33


 1825 003e 002B     		cmp	r3, #0
 1826 0040 00F08B81 		beq	.L123
 1827              	.LBB435:
 1828              		.loc 1 153 0
 1829 0044 069A     		ldr	r2, [sp, #24]
 1830 0046 0999     		ldr	r1, [sp, #36]
 1831 0048 8A42     		cmp	r2, r1
 1832 004a 00F28681 		bhi	.L123
 1833              	.LVL149:
 1834              		.loc 1 157 0
 1835 004e 109A     		ldr	r2, [sp, #64]
 1836 0050 AAEB0B01 		sub	r1, r10, fp
 1837 0054 91FBF2F1 		sdiv	r1, r1, r2
 1838 0058 0F9A     		ldr	r2, [sp, #60]
 1839 005a CEB2     		uxtb	r6, r1
 1840              	.LVL150:
 1841 005c 02B3     		cbz	r2, .L129
 1842              		.loc 1 156 0
 1843 005e 0022     		movs	r2, #0
 1844              	.LVL151:
 1845              	.L127:
 1846              	.LBB436:
 1847              	.LBB437:
 1848              		.loc 1 139 0
 1849 0060 23F02003 		bic	r3, r3, #32
 1850              	.LVL152:
 1851 0064 413B     		subs	r3, r3, #65
 1852 0066 192B     		cmp	r3, #25
 1853 0068 40F27A81 		bls	.L259
 1854              	.LBE437:
 1855              	.LBE436:
 1856              		.loc 1 163 0
 1857 006c B242     		cmp	r2, r6
 1858 006e 1AD9     		bls	.L128
 1859              		.loc 1 165 0
 1860 0070 032E     		cmp	r6, #3
 1861 0072 0FD8     		bhi	.L132
 1862              	.LVL153:
 1863              		.loc 1 169 0
 1864 0074 DDE90631 		ldrd	r3, r1, [sp, #24]
 1865 0078 0B44     		add	r3, r3, r1
 1866              		.loc 1 170 0
 1867 007a 0999     		ldr	r1, [sp, #36]
 1868              		.loc 1 169 0
 1869 007c DBB2     		uxtb	r3, r3
 1870              		.loc 1 170 0
 1871 007e 9942     		cmp	r1, r3
 1872              		.loc 1 169 0
 1873 0080 0693     		str	r3, [sp, #24]
 1874              	.LVL154:
 1875              		.loc 1 170 0
 1876 0082 C0F06A81 		bcc	.L123
 1877              		.loc 1 172 0
 1878 0086 039B     		ldr	r3, [sp, #12]
 1879              	.LVL155:
 1880 0088 BAFBF3F6 		udiv	r6, r10, r3
 1881              	.LVL156:
ARM GAS  /tmp/cc04S6rC.s 			page 34


 1882              		.loc 1 177 0
 1883 008c B242     		cmp	r2, r6
 1884              		.loc 1 168 0
 1885 008e 4FF0000B 		mov	fp, #0
 1886              		.loc 1 177 0
 1887 0092 08D9     		bls	.L128
 1888              	.LVL157:
 1889              	.L132:
 1890              		.loc 1 179 0
 1891 0094 721E     		subs	r2, r6, #1
 1892              	.LVL158:
 1893 0096 D2B2     		uxtb	r2, r2
 1894              	.LVL159:
 1895 0098 05E0     		b	.L128
 1896              	.L260:
 1897              		.loc 1 161 0
 1898 009a CAB2     		uxtb	r2, r1
 1899              	.LVL160:
 1900 009c 18F80230 		ldrb	r3, [r8, r2]	@ zero_extendqisi2
 1901              	.LVL161:
 1902              	.L129:
 1903 00a0 511C     		adds	r1, r2, #1
 1904              		.loc 1 159 0
 1905 00a2 002B     		cmp	r3, #0
 1906 00a4 F9D1     		bne	.L260
 1907              	.LVL162:
 1908              	.L128:
 1909              		.loc 1 191 0
 1910 00a6 0698     		ldr	r0, [sp, #24]
 1911 00a8 099B     		ldr	r3, [sp, #36]
 1912 00aa 1B1A     		subs	r3, r3, r0
 1913 00ac DDB2     		uxtb	r5, r3
 1914              	.LBB438:
 1915              	.LBB439:
 1916              		.loc 1 124 0
 1917 00ae C5F11001 		rsb	r1, r5, #16
 1918              		.loc 1 114 0
 1919 00b2 FF23     		movs	r3, #255
 1920 00b4 C5F10804 		rsb	r4, r5, #8
 1921              		.loc 1 124 0
 1922 00b8 43FA01FC 		asr	ip, r3, r1
 1923              		.loc 1 114 0
 1924 00bc 43FA04F4 		asr	r4, r3, r4
 1925              	.LBE439:
 1926              	.LBE438:
 1927              		.loc 1 191 0
 1928 00c0 0B9B     		ldr	r3, [sp, #44]
 1929 00c2 0C95     		str	r5, [sp, #48]
 1930 00c4 072D     		cmp	r5, #7
 1931              	.LBB639:
 1932              	.LBB630:
 1933              		.loc 1 114 0
 1934 00c6 E4B2     		uxtb	r4, r4
 1935              	.LBE630:
 1936              	.LBE639:
 1937              		.loc 1 191 0
 1938 00c8 1844     		add	r0, r0, r3
ARM GAS  /tmp/cc04S6rC.s 			page 35


 1939 00ca 88BF     		it	hi
 1940 00cc FF24     		movhi	r4, #255
 1941              	.LBB640:
 1942              	.LBB631:
 1943              		.loc 1 124 0
 1944 00ce 5FFA8CF3 		uxtb	r3, ip
 1945 00d2 0F2D     		cmp	r5, #15
 1946 00d4 88BF     		it	hi
 1947 00d6 2346     		movhi	r3, r4
 1948 00d8 08F1FF31 		add	r1, r8, #-1
 1949 00dc 1144     		add	r1, r1, r2
 1950 00de 1293     		str	r3, [sp, #72]
 1951 00e0 08EB0203 		add	r3, r8, r2
 1952              	.LBE631:
 1953              	.LBE640:
 1954              		.loc 1 191 0
 1955 00e4 80B2     		uxth	r0, r0
 1956 00e6 0493     		str	r3, [sp, #16]
 1957 00e8 CBB2     		uxtb	r3, r1
 1958 00ea 0593     		str	r3, [sp, #20]
 1959 00ec 03B2     		sxth	r3, r0
 1960              	.LBB641:
 1961              	.LBB632:
 1962              		.loc 1 124 0
 1963 00ee C146     		mov	r9, r8
 1964 00f0 1194     		str	r4, [sp, #68]
 1965              	.LBE632:
 1966              	.LBE641:
 1967              		.loc 1 191 0
 1968 00f2 0E90     		str	r0, [sp, #56]
 1969 00f4 0A93     		str	r3, [sp, #40]
 1970              	.LVL163:
 1971              	.L185:
 1972              		.loc 1 182 0
 1973 00f6 049B     		ldr	r3, [sp, #16]
 1974 00f8 4B45     		cmp	r3, r9
 1975 00fa C846     		mov	r8, r9
 1976              	.LVL164:
 1977 00fc 5FFA89FE 		uxtb	lr, r9
 1978 0100 00F0F380 		beq	.L186
 1979              		.loc 1 185 0
 1980 0104 19F8013B 		ldrb	r3, [r9], #1	@ zero_extendqisi2
 1981 0108 0A2B     		cmp	r3, #10
 1982 010a 00F0E180 		beq	.L135
 1983 010e 202B     		cmp	r3, #32
 1984 0110 00F0DE80 		beq	.L135
 1985              	.LBB642:
 1986              	.LBB633:
 1987              		.loc 1 111 0
 1988 0114 A3F12002 		sub	r2, r3, #32
 1989              		.loc 1 115 0
 1990 0118 0799     		ldr	r1, [sp, #28]
 1991              	.LBE633:
 1992              	.LBE642:
 1993              		.loc 1 191 0
 1994 011a 089B     		ldr	r3, [sp, #32]
 1995              	.LBB643:
ARM GAS  /tmp/cc04S6rC.s 			page 36


 1996              	.LBB634:
 1997              		.loc 1 115 0
 1998 011c 0829     		cmp	r1, #8
 1999              	.LBE634:
 2000              	.LBE643:
 2001              		.loc 1 191 0
 2002 011e 5B44     		add	r3, fp, r3
 2003              	.LBB644:
 2004              	.LBB635:
 2005              		.loc 1 111 0
 2006 0120 D2B2     		uxtb	r2, r2
 2007              	.LBE635:
 2008              	.LBE644:
 2009              		.loc 1 191 0
 2010 0122 1BB2     		sxth	r3, r3
 2011              	.LVL165:
 2012              	.LBB645:
 2013              	.LBB636:
 2014              		.loc 1 115 0
 2015 0124 00F02481 		beq	.L136
 2016 0128 1029     		cmp	r1, #16
 2017 012a 40F0D180 		bne	.L135
 2018              	.LVL166:
 2019              		.loc 1 120 0
 2020 012e 4FEA0218 		lsl	r8, r2, #4
 2021              	.LVL167:
 2022              	.LBB440:
 2023              	.LBB441:
 2024              		.loc 1 78 0
 2025 0132 0A9A     		ldr	r2, [sp, #40]
 2026              	.LVL168:
 2027 0134 FA82     		strh	r2, [r7, #22]	@ movhi
 2028              	.LVL169:
 2029              	.LBE441:
 2030              	.LBE440:
 2031              		.loc 1 120 0
 2032 0136 8D4A     		ldr	r2, .L269
 2033              	.LBB443:
 2034              	.LBB442:
 2035              		.loc 1 77 0
 2036 0138 BB82     		strh	r3, [r7, #20]	@ movhi
 2037              	.LBE442:
 2038              	.LBE443:
 2039              		.loc 1 120 0
 2040 013a 4244     		add	r2, r2, r8
 2041 013c 1392     		str	r2, [sp, #76]
 2042 013e 0021     		movs	r1, #0
 2043 0140 1A46     		mov	r2, r3
 2044              	.LBB444:
 2045              	.LBB445:
 2046              		.loc 1 93 0
 2047 0142 0D93     		str	r3, [sp, #52]
 2048              	.LVL170:
 2049              	.L152:
 2050              		.loc 1 83 0
 2051 0144 B7F90C00 		ldrsh	r0, [r7, #12]
 2052 0148 9042     		cmp	r0, r2
ARM GAS  /tmp/cc04S6rC.s 			page 37


 2053 014a 50DC     		bgt	.L148
 2054 014c B7F91000 		ldrsh	r0, [r7, #16]
 2055 0150 9042     		cmp	r0, r2
 2056 0152 4CDB     		blt	.L148
 2057 0154 B7F91600 		ldrsh	r0, [r7, #22]
 2058 0158 B7F90E40 		ldrsh	r4, [r7, #14]
 2059 015c C51D     		adds	r5, r0, #7
 2060 015e A542     		cmp	r5, r4
 2061 0160 45DB     		blt	.L148
 2062              		.loc 1 84 0
 2063 0162 A4F1070C 		sub	ip, r4, #7
 2064              		.loc 1 83 0
 2065 0166 6045     		cmp	r0, ip
 2066 0168 41DB     		blt	.L148
 2067              		.loc 1 84 0
 2068 016a 002A     		cmp	r2, #0
 2069 016c 3FDB     		blt	.L148
 2070 016e 3B78     		ldrb	r3, [r7]	@ zero_extendqisi2
 2071 0170 1493     		str	r3, [sp, #80]
 2072 0172 9A42     		cmp	r2, r3
 2073 0174 3BDA     		bge	.L148
 2074 0176 97F801C0 		ldrb	ip, [r7, #1]	@ zero_extendqisi2
 2075 017a 6045     		cmp	r0, ip
 2076 017c 37DA     		bge	.L148
 2077              	.LBE445:
 2078              	.LBE444:
 2079              		.loc 1 120 0
 2080 017e 139B     		ldr	r3, [sp, #76]
 2081 0180 13F801C0 		ldrb	ip, [r3, r1]	@ zero_extendqisi2
 2082 0184 119B     		ldr	r3, [sp, #68]
 2083              	.LBB493:
 2084              	.LBB486:
 2085              		.loc 1 90 0
 2086 0186 A042     		cmp	r0, r4
 2087              	.LBE486:
 2088              	.LBE493:
 2089              		.loc 1 120 0
 2090 0188 03EA0C03 		and	r3, r3, ip
 2091 018c 1593     		str	r3, [sp, #84]
 2092              	.LVL171:
 2093              	.LBB494:
 2094              	.LBB487:
 2095              		.loc 1 90 0
 2096 018e 06DA     		bge	.L141
 2097              		.loc 1 91 0
 2098 0190 241A     		subs	r4, r4, r0
 2099 0192 4FF0FF0C 		mov	ip, #255
 2100 0196 0CFA04F4 		lsl	r4, ip, r4
 2101 019a 2340     		ands	r3, r3, r4
 2102 019c 1593     		str	r3, [sp, #84]
 2103              	.LVL172:
 2104              	.L141:
 2105              		.loc 1 92 0
 2106 019e B7F91240 		ldrsh	r4, [r7, #18]
 2107 01a2 00F1060C 		add	ip, r0, #6
 2108 01a6 A445     		cmp	ip, r4
 2109 01a8 06DB     		blt	.L142
ARM GAS  /tmp/cc04S6rC.s 			page 38


 2110              		.loc 1 93 0
 2111 01aa FF23     		movs	r3, #255
 2112 01ac 2C1B     		subs	r4, r5, r4
 2113 01ae 43FA04F4 		asr	r4, r3, r4
 2114              	.LVL173:
 2115 01b2 159B     		ldr	r3, [sp, #84]
 2116 01b4 2340     		ands	r3, r3, r4
 2117              	.LVL174:
 2118 01b6 1593     		str	r3, [sp, #84]
 2119              	.LVL175:
 2120              	.L142:
 2121              		.loc 1 95 0
 2122 01b8 15EA2005 		ands	r5, r5, r0, asr #32
 2123 01bc 38BF     		it	cc
 2124 01be 0546     		movcc	r5, r0
 2125 01c0 C413     		asrs	r4, r0, #15
 2126 01c2 04EBE505 		add	r5, r4, r5, asr #3
 2127 01c6 ABB2     		uxth	r3, r5
 2128              		.loc 1 98 0
 2129 01c8 4442     		rsbs	r4, r0, #0
 2130 01ca 04F00704 		and	r4, r4, #7
 2131 01ce 00F00700 		and	r0, r0, #7
 2132              		.loc 1 95 0
 2133 01d2 1DB2     		sxth	r5, r3
 2134              	.LVL176:
 2135              		.loc 1 98 0
 2136 01d4 8446     		mov	ip, r0
 2137 01d6 58BF     		it	pl
 2138 01d8 C4F1000C 		rsbpl	ip, r4, #0
 2139              	.LBB446:
 2140              	.LBB447:
 2141              		.loc 1 62 0
 2142 01dc 002D     		cmp	r5, #0
 2143              	.LBE447:
 2144              	.LBE446:
 2145              		.loc 1 95 0
 2146 01de 1693     		str	r3, [sp, #88]
 2147              		.loc 1 98 0
 2148 01e0 0CF0070C 		and	ip, ip, #7
 2149              	.LVL177:
 2150              	.LBB458:
 2151              	.LBB454:
 2152              		.loc 1 62 0
 2153 01e4 80F26581 		bge	.L261
 2154              	.L144:
 2155              	.LVL178:
 2156              	.LBE454:
 2157              	.LBE458:
 2158              		.loc 1 100 0
 2159 01e8 0028     		cmp	r0, #0
 2160 01ea 40F05F82 		bne	.L262
 2161              	.LVL179:
 2162              	.L148:
 2163              		.loc 1 104 0
 2164 01ee 0132     		adds	r2, r2, #1
 2165 01f0 0131     		adds	r1, r1, #1
 2166              	.LVL180:
ARM GAS  /tmp/cc04S6rC.s 			page 39


 2167 01f2 12B2     		sxth	r2, r2
 2168              	.LBE487:
 2169              	.LBE494:
 2170              		.loc 1 119 0
 2171 01f4 0829     		cmp	r1, #8
 2172              	.LBB495:
 2173              	.LBB488:
 2174              		.loc 1 104 0
 2175 01f6 BA82     		strh	r2, [r7, #20]	@ movhi
 2176              	.LVL181:
 2177              	.LBE488:
 2178              	.LBE495:
 2179              		.loc 1 119 0
 2180 01f8 A4D1     		bne	.L152
 2181              		.loc 1 121 0
 2182 01fa DDE90C23 		ldrd	r2, r3, [sp, #48]
 2183 01fe 082A     		cmp	r2, #8
 2184 0200 66D9     		bls	.L135
 2185              	.LVL182:
 2186              		.loc 1 125 0
 2187 0202 0E9A     		ldr	r2, [sp, #56]
 2188              	.LBB496:
 2189              	.LBB497:
 2190              		.loc 1 77 0
 2191 0204 BB82     		strh	r3, [r7, #20]	@ movhi
 2192              	.LBE497:
 2193              	.LBE496:
 2194              		.loc 1 125 0
 2195 0206 0832     		adds	r2, r2, #8
 2196              	.LBB499:
 2197              	.LBB498:
 2198              		.loc 1 78 0
 2199 0208 FA82     		strh	r2, [r7, #22]	@ movhi
 2200              	.LVL183:
 2201 020a 0022     		movs	r2, #0
 2202              	.LVL184:
 2203              	.L168:
 2204              	.LBE498:
 2205              	.LBE499:
 2206              	.LBB500:
 2207              	.LBB501:
 2208              		.loc 1 83 0
 2209 020c B7F90C10 		ldrsh	r1, [r7, #12]
 2210 0210 9942     		cmp	r1, r3
 2211 0212 57DC     		bgt	.L164
 2212 0214 B7F91010 		ldrsh	r1, [r7, #16]
 2213 0218 9942     		cmp	r1, r3
 2214 021a 53DB     		blt	.L164
 2215 021c B7F91610 		ldrsh	r1, [r7, #22]
 2216 0220 B7F90E50 		ldrsh	r5, [r7, #14]
 2217 0224 C81D     		adds	r0, r1, #7
 2218 0226 A842     		cmp	r0, r5
 2219 0228 4CDB     		blt	.L164
 2220              		.loc 1 84 0
 2221 022a EC1F     		subs	r4, r5, #7
 2222              		.loc 1 83 0
 2223 022c A142     		cmp	r1, r4
ARM GAS  /tmp/cc04S6rC.s 			page 40


 2224 022e 49DB     		blt	.L164
 2225              		.loc 1 84 0
 2226 0230 002B     		cmp	r3, #0
 2227 0232 47DB     		blt	.L164
 2228 0234 3C78     		ldrb	r4, [r7]	@ zero_extendqisi2
 2229 0236 0D94     		str	r4, [sp, #52]
 2230 0238 A342     		cmp	r3, r4
 2231 023a 43DA     		bge	.L164
 2232 023c 97F801C0 		ldrb	ip, [r7, #1]	@ zero_extendqisi2
 2233 0240 6145     		cmp	r1, ip
 2234 0242 3FDA     		bge	.L164
 2235              	.LBE501:
 2236              	.LBE500:
 2237              		.loc 1 127 0
 2238 0244 494C     		ldr	r4, .L269
 2239 0246 08EB020C 		add	ip, r8, r2
 2240 024a A444     		add	ip, ip, r4
 2241 024c 129C     		ldr	r4, [sp, #72]
 2242 024e 9CF808C0 		ldrb	ip, [ip, #8]	@ zero_extendqisi2
 2243              	.LBB551:
 2244              	.LBB544:
 2245              		.loc 1 90 0
 2246 0252 A942     		cmp	r1, r5
 2247              	.LBE544:
 2248              	.LBE551:
 2249              		.loc 1 127 0
 2250 0254 04EA0C0C 		and	ip, r4, ip
 2251              	.LVL185:
 2252              	.LBB552:
 2253              	.LBB545:
 2254              		.loc 1 90 0
 2255 0258 05DA     		bge	.L157
 2256              		.loc 1 91 0
 2257 025a 6D1A     		subs	r5, r5, r1
 2258 025c FF24     		movs	r4, #255
 2259 025e 04FA05F5 		lsl	r5, r4, r5
 2260 0262 05EA0C0C 		and	ip, r5, ip
 2261              	.LVL186:
 2262              	.L157:
 2263              		.loc 1 92 0
 2264 0266 B7F91250 		ldrsh	r5, [r7, #18]
 2265 026a 8C1D     		adds	r4, r1, #6
 2266 026c AC42     		cmp	r4, r5
 2267 026e 05DB     		blt	.L158
 2268              		.loc 1 93 0
 2269 0270 451B     		subs	r5, r0, r5
 2270 0272 FF24     		movs	r4, #255
 2271 0274 44FA05F5 		asr	r5, r4, r5
 2272              	.LVL187:
 2273 0278 05EA0C0C 		and	ip, r5, ip
 2274              	.LVL188:
 2275              	.L158:
 2276              		.loc 1 95 0
 2277 027c 10EA2100 		ands	r0, r0, r1, asr #32
 2278 0280 38BF     		it	cc
 2279 0282 0846     		movcc	r0, r1
 2280 0284 CD13     		asrs	r5, r1, #15
ARM GAS  /tmp/cc04S6rC.s 			page 41


 2281 0286 05EBE005 		add	r5, r5, r0, asr #3
 2282 028a ADB2     		uxth	r5, r5
 2283              		.loc 1 98 0
 2284 028c 4842     		rsbs	r0, r1, #0
 2285 028e 00F00700 		and	r0, r0, #7
 2286              		.loc 1 95 0
 2287 0292 1395     		str	r5, [sp, #76]
 2288              		.loc 1 98 0
 2289 0294 01F00701 		and	r1, r1, #7
 2290              		.loc 1 95 0
 2291 0298 2DB2     		sxth	r5, r5
 2292              	.LVL189:
 2293              		.loc 1 98 0
 2294 029a 0C46     		mov	r4, r1
 2295 029c 58BF     		it	pl
 2296 029e 4442     		rsbpl	r4, r0, #0
 2297              	.LBB502:
 2298              	.LBB503:
 2299              		.loc 1 62 0
 2300 02a0 002D     		cmp	r5, #0
 2301              	.LBE503:
 2302              	.LBE502:
 2303              		.loc 1 98 0
 2304 02a2 04F00700 		and	r0, r4, #7
 2305              	.LVL190:
 2306              	.LBB514:
 2307              	.LBB510:
 2308              		.loc 1 62 0
 2309 02a6 80F21082 		bge	.L263
 2310              	.L160:
 2311              	.LVL191:
 2312              	.LBE510:
 2313              	.LBE514:
 2314              		.loc 1 100 0
 2315 02aa 59B1     		cbz	r1, .L164
 2316              		.loc 1 102 0
 2317 02ac C0F10801 		rsb	r1, r0, #8
 2318 02b0 1398     		ldr	r0, [sp, #76]
 2319 02b2 0130     		adds	r0, r0, #1
 2320 02b4 4CFA01F1 		asr	r1, ip, r1
 2321 02b8 00B2     		sxth	r0, r0
 2322 02ba CCB2     		uxtb	r4, r1
 2323              	.LBB515:
 2324              	.LBB516:
 2325              		.loc 1 62 0
 2326 02bc 0028     		cmp	r0, #0
 2327              	.LBE516:
 2328              	.LBE515:
 2329              		.loc 1 102 0
 2330 02be 1394     		str	r4, [sp, #76]
 2331              	.LVL192:
 2332              	.LBB534:
 2333              	.LBB527:
 2334              		.loc 1 62 0
 2335 02c0 80F27D82 		bge	.L264
 2336              	.LVL193:
 2337              	.L164:
ARM GAS  /tmp/cc04S6rC.s 			page 42


 2338              	.LBE527:
 2339              	.LBE534:
 2340              		.loc 1 104 0
 2341 02c4 0133     		adds	r3, r3, #1
 2342 02c6 0132     		adds	r2, r2, #1
 2343              	.LVL194:
 2344 02c8 1BB2     		sxth	r3, r3
 2345              	.LBE545:
 2346              	.LBE552:
 2347              		.loc 1 126 0
 2348 02ca 082A     		cmp	r2, #8
 2349              	.LBB553:
 2350              	.LBB546:
 2351              		.loc 1 104 0
 2352 02cc BB82     		strh	r3, [r7, #20]	@ movhi
 2353              	.LVL195:
 2354              	.LBE546:
 2355              	.LBE553:
 2356              		.loc 1 126 0
 2357 02ce 9DD1     		bne	.L168
 2358              	.LVL196:
 2359              	.L135:
 2360              	.LBE636:
 2361              	.LBE645:
 2362              		.loc 1 196 0
 2363 02d0 039B     		ldr	r3, [sp, #12]
 2364 02d2 9B44     		add	fp, fp, r3
 2365              	.LVL197:
 2366 02d4 5FFA8BFB 		uxtb	fp, fp
 2367              		.loc 1 195 0
 2368 02d8 013E     		subs	r6, r6, #1
 2369              		.loc 1 197 0
 2370 02da DA45     		cmp	r10, fp
 2371              		.loc 1 195 0
 2372 02dc F6B2     		uxtb	r6, r6
 2373              		.loc 1 194 0
 2374 02de C846     		mov	r8, r9
 2375              	.LVL198:
 2376              		.loc 1 197 0
 2377 02e0 3FF609AF 		bhi	.L185
 2378              		.loc 1 197 0 is_stmt 0 discriminator 1
 2379 02e4 059B     		ldr	r3, [sp, #20]
 2380 02e6 7345     		cmp	r3, lr
 2381 02e8 37D1     		bne	.L123
 2382              	.L186:
 2383              		.loc 1 200 0 is_stmt 1
 2384 02ea 002E     		cmp	r6, #0
 2385 02ec 40F0C480 		bne	.L188
 2386              	.LVL199:
 2387              		.loc 1 204 0
 2388 02f0 DDE90632 		ldrd	r3, r2, [sp, #24]
 2389 02f4 1344     		add	r3, r3, r2
 2390              		.loc 1 205 0
 2391 02f6 099A     		ldr	r2, [sp, #36]
 2392              		.loc 1 204 0
 2393 02f8 DBB2     		uxtb	r3, r3
 2394              		.loc 1 205 0
ARM GAS  /tmp/cc04S6rC.s 			page 43


 2395 02fa 9A42     		cmp	r2, r3
 2396              		.loc 1 204 0
 2397 02fc 0693     		str	r3, [sp, #24]
 2398              	.LVL200:
 2399              		.loc 1 205 0
 2400 02fe 2CD3     		bcc	.L123
 2401              		.loc 1 208 0
 2402 0300 99F80030 		ldrb	r3, [r9]	@ zero_extendqisi2
 2403              	.LVL201:
 2404 0304 202B     		cmp	r3, #32
 2405 0306 17D0     		beq	.L189
 2406              		.loc 1 208 0 is_stmt 0 discriminator 1
 2407 0308 0A2B     		cmp	r3, #10
 2408 030a 1FD0     		beq	.L190
 2409              	.LVL202:
 2410              	.L191:
 2411              		.loc 1 220 0 is_stmt 1
 2412 030c 2BB3     		cbz	r3, .L123
 2413              	.LVL203:
 2414              	.LBB646:
 2415              	.LBB647:
 2416              		.loc 1 139 0
 2417 030e 23F02002 		bic	r2, r3, #32
 2418 0312 413A     		subs	r2, r2, #65
 2419 0314 192A     		cmp	r2, #25
 2420 0316 40F29680 		bls	.L265
 2421              	.LVL204:
 2422              	.LBE647:
 2423              	.LBE646:
 2424              		.loc 1 224 0
 2425 031a 0A2B     		cmp	r3, #10
 2426 031c 00F0C180 		beq	.L195
 2427 0320 202B     		cmp	r3, #32
 2428 0322 40F0AD80 		bne	.L266
 2429              	.L258:
 2430              		.loc 1 235 0
 2431 0326 039B     		ldr	r3, [sp, #12]
 2432 0328 F318     		adds	r3, r6, r3
 2433 032a 5FFA83FB 		uxtb	fp, r3
 2434              	.LVL205:
 2435              	.L196:
 2436 032e 99F80130 		ldrb	r3, [r9, #1]	@ zero_extendqisi2
 2437              		.loc 1 238 0
 2438 0332 09F10108 		add	r8, r9, #1
 2439              	.LVL206:
 2440 0336 82E6     		b	.L125
 2441              	.LVL207:
 2442              	.L189:
 2443              		.loc 1 210 0
 2444 0338 18F8013F 		ldrb	r3, [r8, #1]!	@ zero_extendqisi2
 2445              	.LVL208:
 2446 033c 202B     		cmp	r3, #32
 2447 033e FBD0     		beq	.L189
 2448              		.loc 1 212 0
 2449 0340 0A2B     		cmp	r3, #10
 2450              		.loc 1 203 0
 2451 0342 18BF     		it	ne
ARM GAS  /tmp/cc04S6rC.s 			page 44


 2452 0344 4FF0000B 		movne	fp, #0
 2453              		.loc 1 212 0
 2454 0348 7FF479AE 		bne	.L125
 2455              	.LVL209:
 2456              	.L190:
 2457 034c 98F80130 		ldrb	r3, [r8, #1]	@ zero_extendqisi2
 2458              		.loc 1 203 0
 2459 0350 4FF0000B 		mov	fp, #0
 2460              		.loc 1 213 0
 2461 0354 08F10108 		add	r8, r8, #1
 2462              	.LVL210:
 2463 0358 71E6     		b	.L125
 2464              	.LVL211:
 2465              	.L123:
 2466              	.LBE435:
 2467              		.loc 1 249 0
 2468 035a 19B0     		add	sp, sp, #100
 2469              		.cfi_remember_state
 2470              		.cfi_def_cfa_offset 36
 2471              		@ sp needed
 2472 035c BDE8F08F 		pop	{r4, r5, r6, r7, r8, r9, r10, fp, pc}
 2473              	.LVL212:
 2474              	.L259:
 2475              		.cfi_restore_state
 2476              	.LBB650:
 2477              		.loc 1 161 0
 2478 0360 0132     		adds	r2, r2, #1
 2479              	.LVL213:
 2480 0362 D2B2     		uxtb	r2, r2
 2481              	.LVL214:
 2482 0364 18F80230 		ldrb	r3, [r8, r2]	@ zero_extendqisi2
 2483 0368 7AE6     		b	.L127
 2484              	.L270:
 2485 036a 00BF     		.align	2
 2486              	.L269:
 2487 036c 00000000 		.word	.LANCHOR0
 2488              	.LVL215:
 2489              	.L136:
 2490 0370 9049     		ldr	r1, .L271
 2491              	.LBB648:
 2492              	.LBB637:
 2493              	.LBB554:
 2494              	.LBB555:
 2495              		.loc 1 77 0
 2496 0372 BB82     		strh	r3, [r7, #20]	@ movhi
 2497              	.LVL216:
 2498 0374 02EB4202 		add	r2, r2, r2, lsl #1
 2499              	.LVL217:
 2500 0378 01EB420C 		add	ip, r1, r2, lsl #1
 2501              		.loc 1 78 0
 2502 037c 0A9A     		ldr	r2, [sp, #40]
 2503 037e FA82     		strh	r2, [r7, #22]	@ movhi
 2504              	.LVL218:
 2505              	.LBE555:
 2506              	.LBE554:
 2507              	.LBB557:
 2508              	.LBB558:
ARM GAS  /tmp/cc04S6rC.s 			page 45


 2509              		.loc 1 93 0
 2510 0380 4FF0FF08 		mov	r8, #255
 2511              	.LVL219:
 2512              	.LBE558:
 2513              	.LBE557:
 2514              	.LBB613:
 2515              	.LBB556:
 2516              		.loc 1 78 0
 2517 0384 0022     		movs	r2, #0
 2518              	.LBE556:
 2519              	.LBE613:
 2520              	.LBB614:
 2521              	.LBB605:
 2522              		.loc 1 93 0
 2523 0386 0D96     		str	r6, [sp, #52]
 2524              	.LVL220:
 2525              	.L184:
 2526              		.loc 1 83 0
 2527 0388 B7F90C10 		ldrsh	r1, [r7, #12]
 2528 038c 9942     		cmp	r1, r3
 2529 038e 52DC     		bgt	.L180
 2530 0390 B7F91010 		ldrsh	r1, [r7, #16]
 2531 0394 9942     		cmp	r1, r3
 2532 0396 4EDB     		blt	.L180
 2533 0398 B7F91610 		ldrsh	r1, [r7, #22]
 2534 039c B7F90E00 		ldrsh	r0, [r7, #14]
 2535 03a0 CC1D     		adds	r4, r1, #7
 2536 03a2 8442     		cmp	r4, r0
 2537 03a4 47DB     		blt	.L180
 2538              		.loc 1 84 0
 2539 03a6 C51F     		subs	r5, r0, #7
 2540              		.loc 1 83 0
 2541 03a8 A942     		cmp	r1, r5
 2542 03aa 44DB     		blt	.L180
 2543              		.loc 1 84 0
 2544 03ac 002B     		cmp	r3, #0
 2545 03ae 42DB     		blt	.L180
 2546 03b0 3D78     		ldrb	r5, [r7]	@ zero_extendqisi2
 2547 03b2 1395     		str	r5, [sp, #76]
 2548 03b4 AB42     		cmp	r3, r5
 2549 03b6 3EDA     		bge	.L180
 2550 03b8 7D78     		ldrb	r5, [r7, #1]	@ zero_extendqisi2
 2551 03ba A942     		cmp	r1, r5
 2552 03bc 3BDA     		bge	.L180
 2553              	.LBE605:
 2554              	.LBE614:
 2555              		.loc 1 132 0
 2556 03be 1CF80260 		ldrb	r6, [ip, r2]	@ zero_extendqisi2
 2557 03c2 119D     		ldr	r5, [sp, #68]
 2558              	.LBB615:
 2559              	.LBB606:
 2560              		.loc 1 90 0
 2561 03c4 8142     		cmp	r1, r0
 2562              	.LBE606:
 2563              	.LBE615:
 2564              		.loc 1 132 0
 2565 03c6 05EA0605 		and	r5, r5, r6
ARM GAS  /tmp/cc04S6rC.s 			page 46


 2566 03ca 1495     		str	r5, [sp, #80]
 2567              	.LVL221:
 2568              	.LBB616:
 2569              	.LBB607:
 2570              		.loc 1 90 0
 2571 03cc 04DA     		bge	.L173
 2572              		.loc 1 91 0
 2573 03ce 401A     		subs	r0, r0, r1
 2574 03d0 08FA00F0 		lsl	r0, r8, r0
 2575 03d4 0540     		ands	r5, r5, r0
 2576 03d6 1495     		str	r5, [sp, #80]
 2577              	.LVL222:
 2578              	.L173:
 2579              		.loc 1 92 0
 2580 03d8 B7F91200 		ldrsh	r0, [r7, #18]
 2581 03dc 8D1D     		adds	r5, r1, #6
 2582 03de 8542     		cmp	r5, r0
 2583 03e0 05DB     		blt	.L174
 2584              		.loc 1 93 0
 2585 03e2 149D     		ldr	r5, [sp, #80]
 2586 03e4 201A     		subs	r0, r4, r0
 2587 03e6 48FA00F0 		asr	r0, r8, r0
 2588              	.LVL223:
 2589 03ea 0540     		ands	r5, r5, r0
 2590              	.LVL224:
 2591 03ec 1495     		str	r5, [sp, #80]
 2592              	.LVL225:
 2593              	.L174:
 2594              		.loc 1 95 0
 2595 03ee 14EA2104 		ands	r4, r4, r1, asr #32
 2596 03f2 38BF     		it	cc
 2597 03f4 0C46     		movcc	r4, r1
 2598 03f6 C813     		asrs	r0, r1, #15
 2599 03f8 00EBE404 		add	r4, r0, r4, asr #3
 2600 03fc A4B2     		uxth	r4, r4
 2601              		.loc 1 98 0
 2602 03fe 4842     		rsbs	r0, r1, #0
 2603 0400 00F00700 		and	r0, r0, #7
 2604              		.loc 1 95 0
 2605 0404 25B2     		sxth	r5, r4
 2606              	.LVL226:
 2607              		.loc 1 98 0
 2608 0406 01F00701 		and	r1, r1, #7
 2609              		.loc 1 95 0
 2610 040a 1594     		str	r4, [sp, #84]
 2611              		.loc 1 98 0
 2612 040c 0C46     		mov	r4, r1
 2613 040e 58BF     		it	pl
 2614 0410 4442     		rsbpl	r4, r0, #0
 2615              	.LBB559:
 2616              	.LBB560:
 2617              		.loc 1 62 0
 2618 0412 002D     		cmp	r5, #0
 2619              	.LBE560:
 2620              	.LBE559:
 2621              		.loc 1 98 0
 2622 0414 04F00700 		and	r0, r4, #7
ARM GAS  /tmp/cc04S6rC.s 			page 47


 2623              	.LVL227:
 2624              	.LBB574:
 2625              	.LBB569:
 2626              		.loc 1 62 0
 2627 0418 80F2CE80 		bge	.L267
 2628              	.L176:
 2629              	.LVL228:
 2630              	.LBE569:
 2631              	.LBE574:
 2632              		.loc 1 100 0
 2633 041c 59B1     		cbz	r1, .L180
 2634              		.loc 1 102 0
 2635 041e 159C     		ldr	r4, [sp, #84]
 2636 0420 149D     		ldr	r5, [sp, #80]
 2637              	.LVL229:
 2638 0422 C0F10800 		rsb	r0, r0, #8
 2639 0426 0134     		adds	r4, r4, #1
 2640 0428 0541     		asrs	r5, r5, r0
 2641 042a 24B2     		sxth	r4, r4
 2642 042c E9B2     		uxtb	r1, r5
 2643              	.LBB575:
 2644              	.LBB576:
 2645              		.loc 1 62 0
 2646 042e 002C     		cmp	r4, #0
 2647              	.LBE576:
 2648              	.LBE575:
 2649              		.loc 1 102 0
 2650 0430 1491     		str	r1, [sp, #80]
 2651              	.LVL230:
 2652              	.LBB594:
 2653              	.LBB587:
 2654              		.loc 1 62 0
 2655 0432 80F2C281 		bge	.L268
 2656              	.LVL231:
 2657              	.L180:
 2658              	.LBE587:
 2659              	.LBE594:
 2660              		.loc 1 104 0
 2661 0436 0133     		adds	r3, r3, #1
 2662 0438 0132     		adds	r2, r2, #1
 2663              	.LVL232:
 2664 043a 1BB2     		sxth	r3, r3
 2665              	.LBE607:
 2666              	.LBE616:
 2667              		.loc 1 131 0
 2668 043c 062A     		cmp	r2, #6
 2669              	.LBB617:
 2670              	.LBB608:
 2671              		.loc 1 104 0
 2672 043e BB82     		strh	r3, [r7, #20]	@ movhi
 2673              	.LVL233:
 2674              	.LBE608:
 2675              	.LBE617:
 2676              		.loc 1 131 0
 2677 0440 A2D1     		bne	.L184
 2678 0442 0D9E     		ldr	r6, [sp, #52]
 2679 0444 44E7     		b	.L135
ARM GAS  /tmp/cc04S6rC.s 			page 48


 2680              	.LVL234:
 2681              	.L265:
 2682              	.LBE637:
 2683              	.LBE648:
 2684              		.loc 1 243 0
 2685 0446 069C     		ldr	r4, [sp, #24]
 2686 0448 099B     		ldr	r3, [sp, #36]
 2687 044a 0899     		ldr	r1, [sp, #32]
 2688 044c 0B9A     		ldr	r2, [sp, #44]
 2689 044e 079D     		ldr	r5, [sp, #28]
 2690 0450 1B1B     		subs	r3, r3, r4
 2691 0452 DBB2     		uxtb	r3, r3
 2692 0454 7118     		adds	r1, r6, r1
 2693 0456 A218     		adds	r2, r4, r2
 2694 0458 CDE90053 		strd	r5, r3, [sp]
 2695 045c 09B2     		sxth	r1, r1
 2696 045e 2D23     		movs	r3, #45
 2697 0460 12B2     		sxth	r2, r2
 2698 0462 3846     		mov	r0, r7
 2699 0464 FFF7FEFF 		bl	OLED_drawChar
 2700              	.LVL235:
 2701              		.loc 1 246 0
 2702 0468 6319     		adds	r3, r4, r5
 2703 046a DBB2     		uxtb	r3, r3
 2704 046c 0693     		str	r3, [sp, #24]
 2705              	.LVL236:
 2706              		.loc 1 245 0
 2707 046e 4FF0000B 		mov	fp, #0
 2708 0472 99F80030 		ldrb	r3, [r9]	@ zero_extendqisi2
 2709 0476 E2E5     		b	.L125
 2710              	.LVL237:
 2711              	.L188:
 2712 0478 99F80030 		ldrb	r3, [r9]	@ zero_extendqisi2
 2713              		.loc 1 200 0
 2714 047c 5E46     		mov	r6, fp
 2715              	.LVL238:
 2716 047e 45E7     		b	.L191
 2717              	.LVL239:
 2718              	.L266:
 2719              		.loc 1 234 0
 2720 0480 0999     		ldr	r1, [sp, #36]
 2721 0482 069A     		ldr	r2, [sp, #24]
 2722 0484 079C     		ldr	r4, [sp, #28]
 2723 0486 881A     		subs	r0, r1, r2
 2724 0488 0B99     		ldr	r1, [sp, #44]
 2725 048a 0A44     		add	r2, r2, r1
 2726 048c 0899     		ldr	r1, [sp, #32]
 2727 048e C0B2     		uxtb	r0, r0
 2728 0490 7118     		adds	r1, r6, r1
 2729 0492 CDE90040 		strd	r4, r0, [sp]
 2730 0496 12B2     		sxth	r2, r2
 2731 0498 09B2     		sxth	r1, r1
 2732 049a 3846     		mov	r0, r7
 2733 049c FFF7FEFF 		bl	OLED_drawChar
 2734              	.LVL240:
 2735 04a0 41E7     		b	.L258
 2736              	.L195:
ARM GAS  /tmp/cc04S6rC.s 			page 49


 2737              	.LVL241:
 2738              		.loc 1 228 0
 2739 04a2 DDE90632 		ldrd	r3, r2, [sp, #24]
 2740 04a6 1344     		add	r3, r3, r2
 2741 04a8 DBB2     		uxtb	r3, r3
 2742 04aa 0693     		str	r3, [sp, #24]
 2743              	.LVL242:
 2744              		.loc 1 227 0
 2745 04ac 4FF0000B 		mov	fp, #0
 2746              		.loc 1 229 0
 2747 04b0 3DE7     		b	.L196
 2748              	.LVL243:
 2749              	.L261:
 2750              	.LBB649:
 2751              	.LBB638:
 2752              	.LBB618:
 2753              	.LBB489:
 2754              	.LBB459:
 2755              	.LBB455:
 2756              	.LBB448:
 2757              	.LBB449:
 2758              		.loc 1 62 0
 2759 04b2 FC78     		ldrb	r4, [r7, #3]	@ zero_extendqisi2
 2760 04b4 A542     		cmp	r5, r4
 2761 04b6 BFF697AE 		bge	.L144
 2762              	.LVL244:
 2763              		.loc 1 64 0
 2764 04ba 149B     		ldr	r3, [sp, #80]
 2765 04bc BC68     		ldr	r4, [r7, #8]
 2766 04be 15FB0320 		smlabb	r0, r5, r3, r2
 2767              		.loc 1 65 0
 2768 04c2 3B7E     		ldrb	r3, [r7, #24]	@ zero_extendqisi2
 2769 04c4 1793     		str	r3, [sp, #92]
 2770              		.loc 1 64 0
 2771 04c6 235C     		ldrb	r3, [r4, r0]	@ zero_extendqisi2
 2772 04c8 1493     		str	r3, [sp, #80]
 2773              	.LVL245:
 2774              	.LBE449:
 2775              	.LBE448:
 2776              	.LBE455:
 2777              	.LBE459:
 2778              		.loc 1 98 0
 2779 04ca 159B     		ldr	r3, [sp, #84]
 2780 04cc 03FA0CFC 		lsl	ip, r3, ip
 2781              	.LBB460:
 2782              	.LBB456:
 2783              	.LBB452:
 2784              	.LBB450:
 2785              		.loc 1 65 0
 2786 04d0 179B     		ldr	r3, [sp, #92]
 2787 04d2 002B     		cmp	r3, #0
 2788 04d4 00F07581 		beq	.L145
 2789              		.loc 1 66 0
 2790 04d8 149B     		ldr	r3, [sp, #80]
 2791 04da 23EA0C0C 		bic	ip, r3, ip
 2792              	.L146:
 2793 04de 04F800C0 		strb	ip, [r4, r0]
ARM GAS  /tmp/cc04S6rC.s 			page 50


 2794              	.LVL246:
 2795              		.loc 1 69 0
 2796 04e2 3C78     		ldrb	r4, [r7]	@ zero_extendqisi2
 2797 04e4 B868     		ldr	r0, [r7, #8]
 2798 04e6 15FB0424 		smlabb	r4, r5, r4, r2
 2799 04ea 005D     		ldrb	r0, [r0, r4]	@ zero_extendqisi2
 2800 04ec 9842     		cmp	r0, r3
 2801 04ee 0FD0     		beq	.L147
 2802              		.loc 1 72 0
 2803 04f0 BC78     		ldrb	r4, [r7, #2]	@ zero_extendqisi2
 2804 04f2 D7F804C0 		ldr	ip, [r7, #4]
 2805 04f6 1011     		asrs	r0, r2, #4
 2806 04f8 15FB0400 		smlabb	r0, r5, r4, r0
 2807 04fc C2F34202 		ubfx	r2, r2, #1, #3
 2808 0500 1CF80040 		ldrb	r4, [ip, r0]	@ zero_extendqisi2
 2809 0504 0123     		movs	r3, #1
 2810 0506 03FA02F2 		lsl	r2, r3, r2
 2811 050a 2243     		orrs	r2, r2, r4
 2812 050c 0CF80020 		strb	r2, [ip, r0]
 2813              	.L147:
 2814              	.LVL247:
 2815              	.LBE450:
 2816              	.LBE452:
 2817              	.LBE456:
 2818              	.LBE460:
 2819              		.loc 1 100 0
 2820 0510 B7F91600 		ldrsh	r0, [r7, #22]
 2821 0514 B7F91420 		ldrsh	r2, [r7, #20]
 2822 0518 10F00704 		ands	r4, r0, #7
 2823 051c 3FF467AE 		beq	.L148
 2824              	.LVL248:
 2825              	.LBB461:
 2826              	.LBB462:
 2827              		.loc 1 62 0
 2828 0520 002A     		cmp	r2, #0
 2829 0522 FFF664AE 		blt	.L148
 2830              	.LBE462:
 2831              	.LBE461:
 2832              		.loc 1 102 0
 2833 0526 4042     		rsbs	r0, r0, #0
 2834              	.LVL249:
 2835 0528 00F00700 		and	r0, r0, #7
 2836 052c 58BF     		it	pl
 2837 052e 4442     		rsbpl	r4, r0, #0
 2838 0530 04F0070C 		and	ip, r4, #7
 2839 0534 159B     		ldr	r3, [sp, #84]
 2840              	.LBB479:
 2841              	.LBB473:
 2842              	.LBB463:
 2843              	.LBB464:
 2844              		.loc 1 62 0
 2845 0536 3C78     		ldrb	r4, [r7]	@ zero_extendqisi2
 2846              	.LBE464:
 2847              	.LBE463:
 2848              	.LBE473:
 2849              	.LBE479:
 2850              		.loc 1 102 0
ARM GAS  /tmp/cc04S6rC.s 			page 51


 2851 0538 169D     		ldr	r5, [sp, #88]
 2852              	.LVL250:
 2853 053a CCF1080C 		rsb	ip, ip, #8
 2854 053e 43FA0CFC 		asr	ip, r3, ip
 2855 0542 0135     		adds	r5, r5, #1
 2856              	.LBB480:
 2857              	.LBB474:
 2858              	.LBB469:
 2859              	.LBB465:
 2860              		.loc 1 62 0
 2861 0544 A242     		cmp	r2, r4
 2862              	.LBE465:
 2863              	.LBE469:
 2864              	.LBE474:
 2865              	.LBE480:
 2866              		.loc 1 102 0
 2867 0546 2DB2     		sxth	r5, r5
 2868 0548 5FFA8CF0 		uxtb	r0, ip
 2869              	.LVL251:
 2870              	.LBB481:
 2871              	.LBB475:
 2872              	.LBB470:
 2873              	.LBB466:
 2874              		.loc 1 62 0
 2875 054c BFF64FAE 		bge	.L148
 2876              	.LVL252:
 2877              	.L206:
 2878 0550 FB78     		ldrb	r3, [r7, #3]	@ zero_extendqisi2
 2879 0552 9D42     		cmp	r5, r3
 2880 0554 BFF64BAE 		bge	.L148
 2881              		.loc 1 64 0
 2882 0558 04FB0524 		mla	r4, r4, r5, r2
 2883 055c 1594     		str	r4, [sp, #84]
 2884              		.loc 1 65 0
 2885 055e 3C7E     		ldrb	r4, [r7, #24]	@ zero_extendqisi2
 2886              		.loc 1 64 0
 2887 0560 BB68     		ldr	r3, [r7, #8]
 2888              		.loc 1 65 0
 2889 0562 1794     		str	r4, [sp, #92]
 2890              		.loc 1 64 0
 2891 0564 159C     		ldr	r4, [sp, #84]
 2892 0566 1693     		str	r3, [sp, #88]
 2893              	.LVL253:
 2894 0568 1B5D     		ldrb	r3, [r3, r4]	@ zero_extendqisi2
 2895              		.loc 1 65 0
 2896 056a 179C     		ldr	r4, [sp, #92]
 2897              		.loc 1 64 0
 2898 056c 1493     		str	r3, [sp, #80]
 2899              	.LVL254:
 2900              		.loc 1 65 0
 2901 056e 002C     		cmp	r4, #0
 2902 0570 00F03581 		beq	.L149
 2903              		.loc 1 66 0
 2904 0574 23EA0C0C 		bic	ip, r3, ip
 2905              	.L150:
 2906 0578 DDE91503 		ldrd	r0, r3, [sp, #84]
 2907              	.LVL255:
ARM GAS  /tmp/cc04S6rC.s 			page 52


 2908 057c 03F800C0 		strb	ip, [r3, r0]
 2909              		.loc 1 69 0
 2910 0580 3C78     		ldrb	r4, [r7]	@ zero_extendqisi2
 2911 0582 B868     		ldr	r0, [r7, #8]
 2912 0584 149B     		ldr	r3, [sp, #80]
 2913 0586 15FB0424 		smlabb	r4, r5, r4, r2
 2914 058a 005D     		ldrb	r0, [r0, r4]	@ zero_extendqisi2
 2915 058c 9842     		cmp	r0, r3
 2916 058e 0DD0     		beq	.L255
 2917              		.loc 1 72 0
 2918 0590 97F802C0 		ldrb	ip, [r7, #2]	@ zero_extendqisi2
 2919 0594 7868     		ldr	r0, [r7, #4]
 2920 0596 1411     		asrs	r4, r2, #4
 2921 0598 15FB0C45 		smlabb	r5, r5, ip, r4
 2922              	.LVL256:
 2923 059c C2F34202 		ubfx	r2, r2, #1, #3
 2924              	.LVL257:
 2925 05a0 445D     		ldrb	r4, [r0, r5]	@ zero_extendqisi2
 2926 05a2 0123     		movs	r3, #1
 2927 05a4 03FA02F2 		lsl	r2, r3, r2
 2928 05a8 2243     		orrs	r2, r2, r4
 2929 05aa 4255     		strb	r2, [r0, r5]
 2930              	.L255:
 2931 05ac B7F91420 		ldrsh	r2, [r7, #20]
 2932 05b0 1DE6     		b	.L148
 2933              	.L272:
 2934 05b2 00BF     		.align	2
 2935              	.L271:
 2936 05b4 00000000 		.word	.LANCHOR1
 2937              	.LVL258:
 2938              	.L267:
 2939              	.LBE466:
 2940              	.LBE470:
 2941              	.LBE475:
 2942              	.LBE481:
 2943              	.LBE489:
 2944              	.LBE618:
 2945              	.LBB619:
 2946              	.LBB609:
 2947              	.LBB595:
 2948              	.LBB570:
 2949              	.LBB561:
 2950              	.LBB562:
 2951              		.loc 1 62 0
 2952 05b8 FC78     		ldrb	r4, [r7, #3]	@ zero_extendqisi2
 2953 05ba A542     		cmp	r5, r4
 2954 05bc BFF62EAF 		bge	.L176
 2955              		.loc 1 64 0
 2956 05c0 1399     		ldr	r1, [sp, #76]
 2957 05c2 BC68     		ldr	r4, [r7, #8]
 2958 05c4 1694     		str	r4, [sp, #88]
 2959 05c6 15FB0136 		smlabb	r6, r5, r1, r3
 2960              		.loc 1 65 0
 2961 05ca 397E     		ldrb	r1, [r7, #24]	@ zero_extendqisi2
 2962 05cc 1791     		str	r1, [sp, #92]
 2963              	.LBE562:
 2964              	.LBE561:
ARM GAS  /tmp/cc04S6rC.s 			page 53


 2965              	.LBE570:
 2966              	.LBE595:
 2967              		.loc 1 98 0
 2968 05ce 1499     		ldr	r1, [sp, #80]
 2969              	.LBB596:
 2970              	.LBB571:
 2971              	.LBB566:
 2972              	.LBB563:
 2973              		.loc 1 64 0
 2974 05d0 A45D     		ldrb	r4, [r4, r6]	@ zero_extendqisi2
 2975 05d2 1396     		str	r6, [sp, #76]
 2976              	.LBE563:
 2977              	.LBE566:
 2978              	.LBE571:
 2979              	.LBE596:
 2980              		.loc 1 98 0
 2981 05d4 01FA00F0 		lsl	r0, r1, r0
 2982              	.LBB597:
 2983              	.LBB572:
 2984              	.LBB567:
 2985              	.LBB564:
 2986              		.loc 1 65 0
 2987 05d8 1799     		ldr	r1, [sp, #92]
 2988              		.loc 1 64 0
 2989 05da 2646     		mov	r6, r4
 2990              	.LVL259:
 2991              		.loc 1 65 0
 2992 05dc 0029     		cmp	r1, #0
 2993 05de 00F0F680 		beq	.L177
 2994              		.loc 1 66 0
 2995 05e2 24EA0000 		bic	r0, r4, r0
 2996              	.L178:
 2997 05e6 1699     		ldr	r1, [sp, #88]
 2998 05e8 139C     		ldr	r4, [sp, #76]
 2999              	.LVL260:
 3000 05ea 0855     		strb	r0, [r1, r4]
 3001              	.LVL261:
 3002              		.loc 1 69 0
 3003 05ec 3878     		ldrb	r0, [r7]	@ zero_extendqisi2
 3004 05ee B968     		ldr	r1, [r7, #8]
 3005 05f0 15FB0030 		smlabb	r0, r5, r0, r3
 3006 05f4 095C     		ldrb	r1, [r1, r0]	@ zero_extendqisi2
 3007 05f6 B142     		cmp	r1, r6
 3008 05f8 0DD0     		beq	.L179
 3009              		.loc 1 72 0
 3010 05fa B878     		ldrb	r0, [r7, #2]	@ zero_extendqisi2
 3011 05fc 1911     		asrs	r1, r3, #4
 3012 05fe 15FB0011 		smlabb	r1, r5, r0, r1
 3013 0602 7868     		ldr	r0, [r7, #4]
 3014 0604 C3F34203 		ubfx	r3, r3, #1, #3
 3015 0608 405C     		ldrb	r0, [r0, r1]	@ zero_extendqisi2
 3016 060a 0124     		movs	r4, #1
 3017 060c 04FA03F3 		lsl	r3, r4, r3
 3018 0610 0343     		orrs	r3, r3, r0
 3019 0612 7868     		ldr	r0, [r7, #4]
 3020 0614 4354     		strb	r3, [r0, r1]
 3021              	.L179:
ARM GAS  /tmp/cc04S6rC.s 			page 54


 3022              	.LVL262:
 3023              	.LBE564:
 3024              	.LBE567:
 3025              	.LBE572:
 3026              	.LBE597:
 3027              		.loc 1 100 0
 3028 0616 B7F91610 		ldrsh	r1, [r7, #22]
 3029 061a B7F91430 		ldrsh	r3, [r7, #20]
 3030 061e 11F00700 		ands	r0, r1, #7
 3031 0622 3FF408AF 		beq	.L180
 3032              	.LVL263:
 3033              	.LBB598:
 3034              	.LBB588:
 3035              		.loc 1 62 0
 3036 0626 002B     		cmp	r3, #0
 3037 0628 FFF605AF 		blt	.L180
 3038              	.LBE588:
 3039              	.LBE598:
 3040              		.loc 1 102 0
 3041 062c 4942     		rsbs	r1, r1, #0
 3042              	.LVL264:
 3043 062e 01F00701 		and	r1, r1, #7
 3044 0632 58BF     		it	pl
 3045 0634 4842     		rsbpl	r0, r1, #0
 3046 0636 149D     		ldr	r5, [sp, #80]
 3047              	.LVL265:
 3048              	.LBB599:
 3049              	.LBB589:
 3050              	.LBB577:
 3051              	.LBB578:
 3052              		.loc 1 62 0
 3053 0638 3978     		ldrb	r1, [r7]	@ zero_extendqisi2
 3054              	.LBE578:
 3055              	.LBE577:
 3056              	.LBE589:
 3057              	.LBE599:
 3058              		.loc 1 102 0
 3059 063a 159C     		ldr	r4, [sp, #84]
 3060 063c 00F00700 		and	r0, r0, #7
 3061 0640 C0F10800 		rsb	r0, r0, #8
 3062 0644 0541     		asrs	r5, r5, r0
 3063 0646 0134     		adds	r4, r4, #1
 3064 0648 E8B2     		uxtb	r0, r5
 3065              	.LBB600:
 3066              	.LBB590:
 3067              	.LBB583:
 3068              	.LBB579:
 3069              		.loc 1 62 0
 3070 064a 8B42     		cmp	r3, r1
 3071              	.LBE579:
 3072              	.LBE583:
 3073              	.LBE590:
 3074              	.LBE600:
 3075              		.loc 1 102 0
 3076 064c 24B2     		sxth	r4, r4
 3077 064e 1490     		str	r0, [sp, #80]
 3078              	.LVL266:
ARM GAS  /tmp/cc04S6rC.s 			page 55


 3079              	.LBB601:
 3080              	.LBB591:
 3081              	.LBB584:
 3082              	.LBB580:
 3083              		.loc 1 62 0
 3084 0650 BFF6F1AE 		bge	.L180
 3085              	.LVL267:
 3086              	.L208:
 3087 0654 F878     		ldrb	r0, [r7, #3]	@ zero_extendqisi2
 3088 0656 8442     		cmp	r4, r0
 3089 0658 BFF6EDAE 		bge	.L180
 3090              		.loc 1 64 0
 3091 065c 01FB0436 		mla	r6, r1, r4, r3
 3092 0660 B968     		ldr	r1, [r7, #8]
 3093 0662 1391     		str	r1, [sp, #76]
 3094 0664 1399     		ldr	r1, [sp, #76]
 3095              		.loc 1 65 0
 3096 0666 387E     		ldrb	r0, [r7, #24]	@ zero_extendqisi2
 3097              		.loc 1 64 0
 3098 0668 895D     		ldrb	r1, [r1, r6]	@ zero_extendqisi2
 3099 066a 1596     		str	r6, [sp, #84]
 3100              	.LVL268:
 3101 066c 0E46     		mov	r6, r1
 3102              	.LVL269:
 3103              		.loc 1 65 0
 3104 066e 0028     		cmp	r0, #0
 3105 0670 00F0BB80 		beq	.L181
 3106              		.loc 1 66 0
 3107 0674 21EA0501 		bic	r1, r1, r5
 3108              	.LVL270:
 3109              	.L182:
 3110 0678 1398     		ldr	r0, [sp, #76]
 3111 067a 159D     		ldr	r5, [sp, #84]
 3112 067c 4155     		strb	r1, [r0, r5]
 3113              		.loc 1 69 0
 3114 067e 3878     		ldrb	r0, [r7]	@ zero_extendqisi2
 3115 0680 B968     		ldr	r1, [r7, #8]
 3116 0682 14FB0030 		smlabb	r0, r4, r0, r3
 3117 0686 095C     		ldrb	r1, [r1, r0]	@ zero_extendqisi2
 3118 0688 B142     		cmp	r1, r6
 3119 068a 0CD0     		beq	.L257
 3120              		.loc 1 72 0
 3121 068c BD78     		ldrb	r5, [r7, #2]	@ zero_extendqisi2
 3122 068e 7968     		ldr	r1, [r7, #4]
 3123 0690 1811     		asrs	r0, r3, #4
 3124 0692 14FB0504 		smlabb	r4, r4, r5, r0
 3125              	.LVL271:
 3126 0696 C3F34203 		ubfx	r3, r3, #1, #3
 3127              	.LVL272:
 3128 069a 085D     		ldrb	r0, [r1, r4]	@ zero_extendqisi2
 3129 069c 0125     		movs	r5, #1
 3130 069e 05FA03F3 		lsl	r3, r5, r3
 3131 06a2 0343     		orrs	r3, r3, r0
 3132 06a4 0B55     		strb	r3, [r1, r4]
 3133              	.L257:
 3134 06a6 B7F91430 		ldrsh	r3, [r7, #20]
 3135 06aa C4E6     		b	.L180
ARM GAS  /tmp/cc04S6rC.s 			page 56


 3136              	.LVL273:
 3137              	.L262:
 3138              	.LBE580:
 3139              	.LBE584:
 3140              	.LBE591:
 3141              	.LBE601:
 3142              	.LBE609:
 3143              	.LBE619:
 3144              	.LBB620:
 3145              	.LBB490:
 3146              		.loc 1 102 0
 3147 06ac 169D     		ldr	r5, [sp, #88]
 3148              	.LVL274:
 3149 06ae 159B     		ldr	r3, [sp, #84]
 3150              	.LVL275:
 3151 06b0 0135     		adds	r5, r5, #1
 3152 06b2 CCF1080C 		rsb	ip, ip, #8
 3153 06b6 2DB2     		sxth	r5, r5
 3154 06b8 43FA0CFC 		asr	ip, r3, ip
 3155              	.LBB482:
 3156              	.LBB476:
 3157              		.loc 1 62 0
 3158 06bc 002D     		cmp	r5, #0
 3159              	.LBE476:
 3160              	.LBE482:
 3161              		.loc 1 102 0
 3162 06be 5FFA8CF0 		uxtb	r0, ip
 3163              	.LVL276:
 3164              	.LBB483:
 3165              	.LBB477:
 3166              		.loc 1 62 0
 3167 06c2 FFF694AD 		blt	.L148
 3168              	.LVL277:
 3169              	.LBB471:
 3170              	.LBB467:
 3171 06c6 149C     		ldr	r4, [sp, #80]
 3172 06c8 42E7     		b	.L206
 3173              	.LVL278:
 3174              	.L263:
 3175              	.LBE467:
 3176              	.LBE471:
 3177              	.LBE477:
 3178              	.LBE483:
 3179              	.LBE490:
 3180              	.LBE620:
 3181              	.LBB621:
 3182              	.LBB547:
 3183              	.LBB535:
 3184              	.LBB511:
 3185              	.LBB504:
 3186              	.LBB505:
 3187 06ca FC78     		ldrb	r4, [r7, #3]	@ zero_extendqisi2
 3188 06cc A542     		cmp	r5, r4
 3189 06ce BFF6ECAD 		bge	.L160
 3190              		.loc 1 64 0
 3191 06d2 0D99     		ldr	r1, [sp, #52]
 3192 06d4 BC68     		ldr	r4, [r7, #8]
ARM GAS  /tmp/cc04S6rC.s 			page 57


 3193 06d6 1594     		str	r4, [sp, #84]
 3194 06d8 15FB0131 		smlabb	r1, r5, r1, r3
 3195 06dc 1491     		str	r1, [sp, #80]
 3196              		.loc 1 65 0
 3197 06de 397E     		ldrb	r1, [r7, #24]	@ zero_extendqisi2
 3198 06e0 1691     		str	r1, [sp, #88]
 3199              		.loc 1 64 0
 3200 06e2 1499     		ldr	r1, [sp, #80]
 3201 06e4 615C     		ldrb	r1, [r4, r1]	@ zero_extendqisi2
 3202 06e6 0D91     		str	r1, [sp, #52]
 3203              	.LVL279:
 3204              		.loc 1 65 0
 3205 06e8 1699     		ldr	r1, [sp, #88]
 3206              	.LBE505:
 3207              	.LBE504:
 3208              	.LBE511:
 3209              	.LBE535:
 3210              		.loc 1 98 0
 3211 06ea 0CFA00F0 		lsl	r0, ip, r0
 3212              	.LBB536:
 3213              	.LBB512:
 3214              	.LBB508:
 3215              	.LBB506:
 3216              		.loc 1 65 0
 3217 06ee 0029     		cmp	r1, #0
 3218 06f0 70D0     		beq	.L161
 3219              		.loc 1 66 0
 3220 06f2 0D99     		ldr	r1, [sp, #52]
 3221 06f4 21EA0001 		bic	r1, r1, r0
 3222 06f8 0C46     		mov	r4, r1
 3223              	.L162:
 3224 06fa DDE91401 		ldrd	r0, r1, [sp, #80]
 3225 06fe 0C54     		strb	r4, [r1, r0]
 3226              	.LVL280:
 3227              		.loc 1 69 0
 3228 0700 3878     		ldrb	r0, [r7]	@ zero_extendqisi2
 3229 0702 B968     		ldr	r1, [r7, #8]
 3230 0704 15FB0030 		smlabb	r0, r5, r0, r3
 3231 0708 095C     		ldrb	r1, [r1, r0]	@ zero_extendqisi2
 3232 070a 0D98     		ldr	r0, [sp, #52]
 3233 070c 8142     		cmp	r1, r0
 3234 070e 0CD0     		beq	.L163
 3235              		.loc 1 72 0
 3236 0710 B878     		ldrb	r0, [r7, #2]	@ zero_extendqisi2
 3237 0712 7C68     		ldr	r4, [r7, #4]
 3238 0714 1911     		asrs	r1, r3, #4
 3239 0716 15FB0011 		smlabb	r1, r5, r0, r1
 3240 071a C3F34203 		ubfx	r3, r3, #1, #3
 3241 071e 605C     		ldrb	r0, [r4, r1]	@ zero_extendqisi2
 3242 0720 0125     		movs	r5, #1
 3243              	.LVL281:
 3244 0722 05FA03F3 		lsl	r3, r5, r3
 3245 0726 0343     		orrs	r3, r3, r0
 3246 0728 6354     		strb	r3, [r4, r1]
 3247              	.L163:
 3248              	.LVL282:
 3249              	.LBE506:
ARM GAS  /tmp/cc04S6rC.s 			page 58


 3250              	.LBE508:
 3251              	.LBE512:
 3252              	.LBE536:
 3253              		.loc 1 100 0
 3254 072a B7F91610 		ldrsh	r1, [r7, #22]
 3255 072e B7F91430 		ldrsh	r3, [r7, #20]
 3256 0732 11F00700 		ands	r0, r1, #7
 3257 0736 3FF4C5AD 		beq	.L164
 3258              	.LVL283:
 3259              	.LBB537:
 3260              	.LBB528:
 3261              		.loc 1 62 0
 3262 073a 002B     		cmp	r3, #0
 3263 073c FFF6C2AD 		blt	.L164
 3264              	.LBE528:
 3265              	.LBE537:
 3266              		.loc 1 102 0
 3267 0740 4942     		rsbs	r1, r1, #0
 3268              	.LVL284:
 3269 0742 01F00701 		and	r1, r1, #7
 3270 0746 58BF     		it	pl
 3271 0748 4842     		rsbpl	r0, r1, #0
 3272 074a 00F00701 		and	r1, r0, #7
 3273 074e C1F10801 		rsb	r1, r1, #8
 3274 0752 1398     		ldr	r0, [sp, #76]
 3275              	.LBB538:
 3276              	.LBB529:
 3277              	.LBB517:
 3278              	.LBB518:
 3279              		.loc 1 62 0
 3280 0754 3C78     		ldrb	r4, [r7]	@ zero_extendqisi2
 3281              	.LBE518:
 3282              	.LBE517:
 3283              	.LBE529:
 3284              	.LBE538:
 3285              		.loc 1 102 0
 3286 0756 4CFA01F1 		asr	r1, ip, r1
 3287 075a 0130     		adds	r0, r0, #1
 3288 075c CDB2     		uxtb	r5, r1
 3289              	.LBB539:
 3290              	.LBB530:
 3291              	.LBB523:
 3292              	.LBB519:
 3293              		.loc 1 62 0
 3294 075e A342     		cmp	r3, r4
 3295              	.LBE519:
 3296              	.LBE523:
 3297              	.LBE530:
 3298              	.LBE539:
 3299              		.loc 1 102 0
 3300 0760 00B2     		sxth	r0, r0
 3301 0762 1395     		str	r5, [sp, #76]
 3302              	.LVL285:
 3303              	.LBB540:
 3304              	.LBB531:
 3305              	.LBB524:
 3306              	.LBB520:
ARM GAS  /tmp/cc04S6rC.s 			page 59


 3307              		.loc 1 62 0
 3308 0764 BFF6AEAD 		bge	.L164
 3309              	.LVL286:
 3310              	.L207:
 3311 0768 97F803C0 		ldrb	ip, [r7, #3]	@ zero_extendqisi2
 3312 076c 6045     		cmp	r0, ip
 3313 076e BFF6A9AD 		bge	.L164
 3314              		.loc 1 64 0
 3315 0772 04FB003C 		mla	ip, r4, r0, r3
 3316              		.loc 1 65 0
 3317 0776 3D7E     		ldrb	r5, [r7, #24]	@ zero_extendqisi2
 3318              		.loc 1 64 0
 3319 0778 BC68     		ldr	r4, [r7, #8]
 3320 077a 0D94     		str	r4, [sp, #52]
 3321 077c 14F80C40 		ldrb	r4, [r4, ip]	@ zero_extendqisi2
 3322              	.LVL287:
 3323              		.loc 1 65 0
 3324 0780 85B3     		cbz	r5, .L165
 3325              		.loc 1 66 0
 3326 0782 24EA0101 		bic	r1, r4, r1
 3327              	.L166:
 3328 0786 0D9D     		ldr	r5, [sp, #52]
 3329 0788 05F80C10 		strb	r1, [r5, ip]
 3330              		.loc 1 69 0
 3331 078c 3D78     		ldrb	r5, [r7]	@ zero_extendqisi2
 3332 078e B968     		ldr	r1, [r7, #8]
 3333 0790 10FB0535 		smlabb	r5, r0, r5, r3
 3334 0794 495D     		ldrb	r1, [r1, r5]	@ zero_extendqisi2
 3335 0796 A142     		cmp	r1, r4
 3336 0798 0CD0     		beq	.L256
 3337              		.loc 1 72 0
 3338 079a BD78     		ldrb	r5, [r7, #2]	@ zero_extendqisi2
 3339 079c 7968     		ldr	r1, [r7, #4]
 3340 079e 1C11     		asrs	r4, r3, #4
 3341              	.LVL288:
 3342 07a0 10FB0540 		smlabb	r0, r0, r5, r4
 3343              	.LVL289:
 3344 07a4 C3F34203 		ubfx	r3, r3, #1, #3
 3345              	.LVL290:
 3346 07a8 0C5C     		ldrb	r4, [r1, r0]	@ zero_extendqisi2
 3347 07aa 0125     		movs	r5, #1
 3348 07ac 05FA03F3 		lsl	r3, r5, r3
 3349 07b0 2343     		orrs	r3, r3, r4
 3350 07b2 0B54     		strb	r3, [r1, r0]
 3351              	.L256:
 3352 07b4 B7F91430 		ldrsh	r3, [r7, #20]
 3353 07b8 84E5     		b	.L164
 3354              	.LVL291:
 3355              	.L268:
 3356              	.LBE520:
 3357              	.LBE524:
 3358              	.LBE531:
 3359              	.LBE540:
 3360              	.LBE547:
 3361              	.LBE621:
 3362              	.LBB622:
 3363              	.LBB610:
ARM GAS  /tmp/cc04S6rC.s 			page 60


 3364              	.LBB602:
 3365              	.LBB592:
 3366              	.LBB585:
 3367              	.LBB581:
 3368              		.loc 1 62 0
 3369 07ba 1399     		ldr	r1, [sp, #76]
 3370 07bc 4AE7     		b	.L208
 3371              	.LVL292:
 3372              	.L264:
 3373              	.LBE581:
 3374              	.LBE585:
 3375              	.LBE592:
 3376              	.LBE602:
 3377              	.LBE610:
 3378              	.LBE622:
 3379              	.LBB623:
 3380              	.LBB548:
 3381              	.LBB541:
 3382              	.LBB532:
 3383              	.LBB525:
 3384              	.LBB521:
 3385 07be 0D9C     		ldr	r4, [sp, #52]
 3386 07c0 D2E7     		b	.L207
 3387              	.LVL293:
 3388              	.L145:
 3389              	.LBE521:
 3390              	.LBE525:
 3391              	.LBE532:
 3392              	.LBE541:
 3393              	.LBE548:
 3394              	.LBE623:
 3395              	.LBB624:
 3396              	.LBB491:
 3397              	.LBB484:
 3398              	.LBB457:
 3399              	.LBB453:
 3400              	.LBB451:
 3401              		.loc 1 68 0
 3402 07c2 149B     		ldr	r3, [sp, #80]
 3403 07c4 43EA0C0C 		orr	ip, r3, ip
 3404 07c8 5FFA8CFC 		uxtb	ip, ip
 3405 07cc 87E6     		b	.L146
 3406              	.LVL294:
 3407              	.L177:
 3408              	.LBE451:
 3409              	.LBE453:
 3410              	.LBE457:
 3411              	.LBE484:
 3412              	.LBE491:
 3413              	.LBE624:
 3414              	.LBB625:
 3415              	.LBB611:
 3416              	.LBB603:
 3417              	.LBB573:
 3418              	.LBB568:
 3419              	.LBB565:
 3420 07ce 2043     		orrs	r0, r0, r4
ARM GAS  /tmp/cc04S6rC.s 			page 61


 3421 07d0 C0B2     		uxtb	r0, r0
 3422 07d2 08E7     		b	.L178
 3423              	.LVL295:
 3424              	.L161:
 3425              	.LBE565:
 3426              	.LBE568:
 3427              	.LBE573:
 3428              	.LBE603:
 3429              	.LBE611:
 3430              	.LBE625:
 3431              	.LBB626:
 3432              	.LBB549:
 3433              	.LBB542:
 3434              	.LBB513:
 3435              	.LBB509:
 3436              	.LBB507:
 3437 07d4 0D99     		ldr	r1, [sp, #52]
 3438 07d6 0843     		orrs	r0, r0, r1
 3439 07d8 C1B2     		uxtb	r1, r0
 3440 07da 0C46     		mov	r4, r1
 3441 07dc 8DE7     		b	.L162
 3442              	.LVL296:
 3443              	.L149:
 3444              	.LBE507:
 3445              	.LBE509:
 3446              	.LBE513:
 3447              	.LBE542:
 3448              	.LBE549:
 3449              	.LBE626:
 3450              	.LBB627:
 3451              	.LBB492:
 3452              	.LBB485:
 3453              	.LBB478:
 3454              	.LBB472:
 3455              	.LBB468:
 3456 07de 43EA000C 		orr	ip, r3, r0
 3457 07e2 C9E6     		b	.L150
 3458              	.LVL297:
 3459              	.L165:
 3460              	.LBE468:
 3461              	.LBE472:
 3462              	.LBE478:
 3463              	.LBE485:
 3464              	.LBE492:
 3465              	.LBE627:
 3466              	.LBB628:
 3467              	.LBB550:
 3468              	.LBB543:
 3469              	.LBB533:
 3470              	.LBB526:
 3471              	.LBB522:
 3472 07e4 1399     		ldr	r1, [sp, #76]
 3473 07e6 2143     		orrs	r1, r1, r4
 3474 07e8 CDE7     		b	.L166
 3475              	.LVL298:
 3476              	.L181:
 3477              	.LBE522:
ARM GAS  /tmp/cc04S6rC.s 			page 62


 3478              	.LBE526:
 3479              	.LBE533:
 3480              	.LBE543:
 3481              	.LBE550:
 3482              	.LBE628:
 3483              	.LBB629:
 3484              	.LBB612:
 3485              	.LBB604:
 3486              	.LBB593:
 3487              	.LBB586:
 3488              	.LBB582:
 3489 07ea 1498     		ldr	r0, [sp, #80]
 3490 07ec 0843     		orrs	r0, r0, r1
 3491 07ee 0146     		mov	r1, r0
 3492              	.LVL299:
 3493 07f0 42E7     		b	.L182
 3494              	.LBE582:
 3495              	.LBE586:
 3496              	.LBE593:
 3497              	.LBE604:
 3498              	.LBE612:
 3499              	.LBE629:
 3500              	.LBE638:
 3501              	.LBE649:
 3502              	.LBE650:
 3503              		.cfi_endproc
 3504              	.LFE335:
 3505              		.size	OLED_drawString, .-OLED_drawString
 3506 07f2 00BF     		.section	.text.OLED_fill,"ax",%progbits
 3507              		.align	1
 3508              		.p2align 2,,3
 3509              		.global	OLED_fill
 3510              		.syntax unified
 3511              		.thumb
 3512              		.thumb_func
 3513              		.fpu fpv4-sp-d16
 3514              		.type	OLED_fill, %function
 3515              	OLED_fill:
 3516              	.LFB336:
 3517              		.loc 1 252 0
 3518              		.cfi_startproc
 3519              		@ args = 4, pretend = 0, frame = 24
 3520              		@ frame_needed = 0, uses_anonymous_args = 0
 3521              	.LVL300:
 3522 0000 2DE9F04F 		push	{r4, r5, r6, r7, r8, r9, r10, fp, lr}
 3523              		.cfi_def_cfa_offset 36
 3524              		.cfi_offset 4, -36
 3525              		.cfi_offset 5, -32
 3526              		.cfi_offset 6, -28
 3527              		.cfi_offset 7, -24
 3528              		.cfi_offset 8, -20
 3529              		.cfi_offset 9, -16
 3530              		.cfi_offset 10, -12
 3531              		.cfi_offset 11, -8
 3532              		.cfi_offset 14, -4
 3533 0004 B0F90EC0 		ldrsh	ip, [r0, #14]
 3534 0008 B0F90C70 		ldrsh	r7, [r0, #12]
ARM GAS  /tmp/cc04S6rC.s 			page 63


 3535 000c B0F91060 		ldrsh	r6, [r0, #16]
 3536 0010 B0F91250 		ldrsh	r5, [r0, #18]
 3537 0014 87B0     		sub	sp, sp, #28
 3538              		.cfi_def_cfa_offset 64
 3539 0016 9445     		cmp	ip, r2
 3540 0018 B8BF     		it	lt
 3541 001a 9446     		movlt	ip, r2
 3542              		.loc 1 252 0
 3543 001c BDF94040 		ldrsh	r4, [sp, #64]
 3544 0020 B942     		cmp	r1, r7
 3545 0022 B8BF     		it	lt
 3546 0024 3946     		movlt	r1, r7
 3547              	.LVL301:
 3548 0026 B342     		cmp	r3, r6
 3549 0028 A8BF     		it	ge
 3550 002a 3346     		movge	r3, r6
 3551              	.LVL302:
 3552 002c A542     		cmp	r5, r4
 3553 002e A8BF     		it	ge
 3554 0030 2546     		movge	r5, r4
 3555              	.LBB666:
 3556              		.loc 1 262 0
 3557 0032 DCF10002 		rsbs	r2, ip, #0
 3558 0036 02F00702 		and	r2, r2, #7
 3559 003a AA46     		mov	r10, r5
 3560              	.LVL303:
 3561 003c 0CF00705 		and	r5, ip, #7
 3562 0040 58BF     		it	pl
 3563 0042 5542     		rsbpl	r5, r2, #0
 3564 0044 05F00705 		and	r5, r5, #7
 3565 0048 ACEB0505 		sub	r5, ip, r5
 3566 004c 2DB2     		sxth	r5, r5
 3567              	.LVL304:
 3568 004e 5545     		cmp	r5, r10
 3569 0050 7ADC     		bgt	.L273
 3570              	.LBB667:
 3571              		.loc 1 264 0
 3572 0052 4FF0FF0B 		mov	fp, #255
 3573              	.LBB668:
 3574              	.LBB669:
 3575              	.LBB670:
 3576              	.LBB671:
 3577              	.LBB672:
 3578              	.LBB673:
 3579              	.LBB674:
 3580              		.loc 1 72 0
 3581 0056 CDF804C0 		str	ip, [sp, #4]
 3582              	.LVL305:
 3583              	.L293:
 3584              	.LBE674:
 3585              	.LBE673:
 3586              	.LBE672:
 3587              	.LBE671:
 3588              	.LBE670:
 3589              	.LBE669:
 3590              	.LBE668:
 3591              		.loc 1 266 0
ARM GAS  /tmp/cc04S6rC.s 			page 64


 3592 005a 019A     		ldr	r2, [sp, #4]
 3593              	.LBB723:
 3594              	.LBB724:
 3595              		.loc 1 77 0
 3596 005c 8182     		strh	r1, [r0, #20]	@ movhi
 3597              	.LBE724:
 3598              	.LBE723:
 3599              		.loc 1 266 0
 3600 005e AA42     		cmp	r2, r5
 3601              		.loc 1 267 0
 3602 0060 C2BF     		ittt	gt
 3603 0062 521B     		subgt	r2, r2, r5
 3604 0064 0BFA02F2 		lslgt	r2, fp, r2
 3605 0068 5FFA82F8 		uxtbgt	r8, r2
 3606              		.loc 1 268 0
 3607 006c 05F10602 		add	r2, r5, #6
 3608              		.loc 1 264 0
 3609 0070 D8BF     		it	le
 3610 0072 4FF0FF08 		movle	r8, #255
 3611              		.loc 1 268 0
 3612 0076 5245     		cmp	r2, r10
 3613              	.LBB726:
 3614              	.LBB725:
 3615              		.loc 1 78 0
 3616 0078 C582     		strh	r5, [r0, #22]	@ movhi
 3617              	.LVL306:
 3618              	.LBE725:
 3619              	.LBE726:
 3620              		.loc 1 268 0
 3621 007a 06DB     		blt	.L276
 3622              		.loc 1 269 0
 3623 007c EA1D     		adds	r2, r5, #7
 3624 007e A2EB0A02 		sub	r2, r2, r10
 3625 0082 4BFA02F2 		asr	r2, fp, r2
 3626 0086 02EA0808 		and	r8, r2, r8
 3627              	.LVL307:
 3628              	.L276:
 3629              	.LBB727:
 3630              		.loc 1 270 0
 3631 008a 8B42     		cmp	r3, r1
 3632 008c 58DB     		blt	.L277
 3633 008e 0A46     		mov	r2, r1
 3634 0090 0C46     		mov	r4, r1
 3635              	.LVL308:
 3636              	.L292:
 3637              	.LBB720:
 3638              	.LBB717:
 3639              		.loc 1 83 0
 3640 0092 B0F90C60 		ldrsh	r6, [r0, #12]
 3641 0096 9642     		cmp	r6, r2
 3642 0098 4BDC     		bgt	.L288
 3643 009a B0F91060 		ldrsh	r6, [r0, #16]
 3644 009e 9642     		cmp	r6, r2
 3645 00a0 47DB     		blt	.L288
 3646 00a2 B0F91660 		ldrsh	r6, [r0, #22]
 3647 00a6 B0F90EE0 		ldrsh	lr, [r0, #14]
 3648 00aa 06F1070C 		add	ip, r6, #7
ARM GAS  /tmp/cc04S6rC.s 			page 65


 3649 00ae F445     		cmp	ip, lr
 3650 00b0 3FDB     		blt	.L288
 3651              		.loc 1 84 0
 3652 00b2 AEF10707 		sub	r7, lr, #7
 3653              		.loc 1 83 0
 3654 00b6 BE42     		cmp	r6, r7
 3655 00b8 3BDB     		blt	.L288
 3656              		.loc 1 84 0
 3657 00ba 002A     		cmp	r2, #0
 3658 00bc 39DB     		blt	.L288
 3659 00be 0778     		ldrb	r7, [r0]	@ zero_extendqisi2
 3660 00c0 0297     		str	r7, [sp, #8]
 3661 00c2 BA42     		cmp	r2, r7
 3662 00c4 35DA     		bge	.L288
 3663 00c6 90F80190 		ldrb	r9, [r0, #1]	@ zero_extendqisi2
 3664 00ca 4E45     		cmp	r6, r9
 3665 00cc 31DA     		bge	.L288
 3666              		.loc 1 90 0
 3667 00ce 7645     		cmp	r6, lr
 3668 00d0 3DDB     		blt	.L307
 3669              		.loc 1 89 0
 3670 00d2 CDF80C80 		str	r8, [sp, #12]
 3671              	.L281:
 3672              	.LVL309:
 3673              		.loc 1 92 0
 3674 00d6 B0F912E0 		ldrsh	lr, [r0, #18]
 3675 00da 06F10609 		add	r9, r6, #6
 3676 00de F145     		cmp	r9, lr
 3677 00e0 09DB     		blt	.L282
 3678              		.loc 1 93 0
 3679 00e2 039F     		ldr	r7, [sp, #12]
 3680 00e4 ACEB0E0E 		sub	lr, ip, lr
 3681 00e8 4BFA0EFE 		asr	lr, fp, lr
 3682 00ec 0EEA070E 		and	lr, lr, r7
 3683              	.LVL310:
 3684 00f0 5FFA8EF7 		uxtb	r7, lr
 3685              	.LVL311:
 3686 00f4 0397     		str	r7, [sp, #12]
 3687              	.LVL312:
 3688              	.L282:
 3689              		.loc 1 95 0
 3690 00f6 1CEA260C 		ands	ip, ip, r6, asr #32
 3691 00fa 38BF     		it	cc
 3692 00fc B446     		movcc	ip, r6
 3693 00fe 4FEAE63E 		asr	lr, r6, #15
 3694 0102 0EEBEC0E 		add	lr, lr, ip, asr #3
 3695 0106 1FFA8EF9 		uxth	r9, lr
 3696              		.loc 1 98 0
 3697 010a D6F1000C 		rsbs	ip, r6, #0
 3698 010e 0CF0070C 		and	ip, ip, #7
 3699 0112 06F00706 		and	r6, r6, #7
 3700              		.loc 1 95 0
 3701 0116 0FFA89FE 		sxth	lr, r9
 3702              	.LVL313:
 3703              		.loc 1 98 0
 3704 011a 3746     		mov	r7, r6
 3705 011c 58BF     		it	pl
ARM GAS  /tmp/cc04S6rC.s 			page 66


 3706 011e CCF10007 		rsbpl	r7, ip, #0
 3707              	.LBB693:
 3708              	.LBB694:
 3709              		.loc 1 62 0
 3710 0122 BEF1000F 		cmp	lr, #0
 3711              	.LBE694:
 3712              	.LBE693:
 3713              		.loc 1 98 0
 3714 0126 07F0070C 		and	ip, r7, #7
 3715              	.LVL314:
 3716              	.LBB705:
 3717              	.LBB701:
 3718              		.loc 1 62 0
 3719 012a 18DA     		bge	.L308
 3720              	.L284:
 3721              	.LVL315:
 3722              	.LBE701:
 3723              	.LBE705:
 3724              		.loc 1 100 0
 3725 012c 002E     		cmp	r6, #0
 3726 012e 40F0A080 		bne	.L309
 3727              	.LVL316:
 3728              	.L288:
 3729 0132 0134     		adds	r4, r4, #1
 3730              	.LVL317:
 3731              		.loc 1 104 0
 3732 0134 0132     		adds	r2, r2, #1
 3733 0136 24B2     		sxth	r4, r4
 3734 0138 12B2     		sxth	r2, r2
 3735              	.LBE717:
 3736              	.LBE720:
 3737              		.loc 1 270 0
 3738 013a A342     		cmp	r3, r4
 3739              	.LBB721:
 3740              	.LBB718:
 3741              		.loc 1 104 0
 3742 013c 8282     		strh	r2, [r0, #20]	@ movhi
 3743              	.LVL318:
 3744              	.LBE718:
 3745              	.LBE721:
 3746              		.loc 1 270 0
 3747 013e A8DA     		bge	.L292
 3748              	.LVL319:
 3749              	.L277:
 3750 0140 0135     		adds	r5, r5, #1
 3751              	.LVL320:
 3752 0142 2DB2     		sxth	r5, r5
 3753              	.LVL321:
 3754              	.LBE727:
 3755              	.LBE667:
 3756              		.loc 1 262 0
 3757 0144 AA45     		cmp	r10, r5
 3758 0146 88DA     		bge	.L293
 3759              	.LVL322:
 3760              	.L273:
 3761              	.LBE666:
 3762              		.loc 1 273 0
ARM GAS  /tmp/cc04S6rC.s 			page 67


 3763 0148 07B0     		add	sp, sp, #28
 3764              		.cfi_remember_state
 3765              		.cfi_def_cfa_offset 36
 3766              		@ sp needed
 3767 014a BDE8F08F 		pop	{r4, r5, r6, r7, r8, r9, r10, fp, pc}
 3768              	.LVL323:
 3769              	.L307:
 3770              		.cfi_restore_state
 3771              	.LBB730:
 3772              	.LBB729:
 3773              	.LBB728:
 3774              	.LBB722:
 3775              	.LBB719:
 3776              		.loc 1 91 0
 3777 014e AEEB060E 		sub	lr, lr, r6
 3778 0152 0BFA0EFE 		lsl	lr, fp, lr
 3779 0156 0EEA0807 		and	r7, lr, r8
 3780 015a 0397     		str	r7, [sp, #12]
 3781              	.LVL324:
 3782 015c BBE7     		b	.L281
 3783              	.LVL325:
 3784              	.L308:
 3785              	.LBB706:
 3786              	.LBB702:
 3787              	.LBB695:
 3788              	.LBB696:
 3789              		.loc 1 62 0
 3790 015e C778     		ldrb	r7, [r0, #3]	@ zero_extendqisi2
 3791 0160 BE45     		cmp	lr, r7
 3792 0162 E3DA     		bge	.L284
 3793              	.LVL326:
 3794              		.loc 1 64 0
 3795 0164 029E     		ldr	r6, [sp, #8]
 3796 0166 8768     		ldr	r7, [r0, #8]
 3797 0168 1EFB0626 		smlabb	r6, lr, r6, r2
 3798 016c 0496     		str	r6, [sp, #16]
 3799              		.loc 1 65 0
 3800 016e 067E     		ldrb	r6, [r0, #24]	@ zero_extendqisi2
 3801 0170 0596     		str	r6, [sp, #20]
 3802              		.loc 1 64 0
 3803 0172 049E     		ldr	r6, [sp, #16]
 3804 0174 BE5D     		ldrb	r6, [r7, r6]	@ zero_extendqisi2
 3805 0176 0296     		str	r6, [sp, #8]
 3806              	.LVL327:
 3807              	.LBE696:
 3808              	.LBE695:
 3809              	.LBE702:
 3810              	.LBE706:
 3811              		.loc 1 98 0
 3812 0178 039E     		ldr	r6, [sp, #12]
 3813 017a 06FA0CFC 		lsl	ip, r6, ip
 3814              	.LBB707:
 3815              	.LBB703:
 3816              	.LBB699:
 3817              	.LBB697:
 3818              		.loc 1 65 0
 3819 017e 059E     		ldr	r6, [sp, #20]
ARM GAS  /tmp/cc04S6rC.s 			page 68


 3820 0180 002E     		cmp	r6, #0
 3821 0182 40F08680 		bne	.L310
 3822              		.loc 1 68 0
 3823 0186 029E     		ldr	r6, [sp, #8]
 3824 0188 46EA0C0C 		orr	ip, r6, ip
 3825 018c 5FFA8CFC 		uxtb	ip, ip
 3826              	.L286:
 3827 0190 049E     		ldr	r6, [sp, #16]
 3828 0192 07F806C0 		strb	ip, [r7, r6]
 3829              	.LVL328:
 3830              		.loc 1 69 0
 3831 0196 0778     		ldrb	r7, [r0]	@ zero_extendqisi2
 3832 0198 8668     		ldr	r6, [r0, #8]
 3833 019a 1EFB0727 		smlabb	r7, lr, r7, r2
 3834 019e F65D     		ldrb	r6, [r6, r7]	@ zero_extendqisi2
 3835 01a0 029F     		ldr	r7, [sp, #8]
 3836 01a2 BE42     		cmp	r6, r7
 3837 01a4 10D0     		beq	.L287
 3838              		.loc 1 72 0
 3839 01a6 8778     		ldrb	r7, [r0, #2]	@ zero_extendqisi2
 3840 01a8 D0F804C0 		ldr	ip, [r0, #4]
 3841 01ac 1611     		asrs	r6, r2, #4
 3842 01ae 1EFB0766 		smlabb	r6, lr, r7, r6
 3843 01b2 C2F34202 		ubfx	r2, r2, #1, #3
 3844 01b6 1CF80670 		ldrb	r7, [ip, r6]	@ zero_extendqisi2
 3845 01ba 4FF0010E 		mov	lr, #1
 3846              	.LVL329:
 3847 01be 0EFA02F2 		lsl	r2, lr, r2
 3848 01c2 3A43     		orrs	r2, r2, r7
 3849 01c4 0CF80620 		strb	r2, [ip, r6]
 3850              	.L287:
 3851              	.LVL330:
 3852              	.LBE697:
 3853              	.LBE699:
 3854              	.LBE703:
 3855              	.LBE707:
 3856              		.loc 1 100 0
 3857 01c8 B0F91660 		ldrsh	r6, [r0, #22]
 3858 01cc B0F91420 		ldrsh	r2, [r0, #20]
 3859 01d0 16F00707 		ands	r7, r6, #7
 3860 01d4 ADD0     		beq	.L288
 3861              	.LVL331:
 3862              	.LBB708:
 3863              	.LBB685:
 3864              		.loc 1 62 0
 3865 01d6 002A     		cmp	r2, #0
 3866 01d8 ABDB     		blt	.L288
 3867              	.LBE685:
 3868              	.LBE708:
 3869              		.loc 1 102 0
 3870 01da 7642     		rsbs	r6, r6, #0
 3871              	.LVL332:
 3872 01dc 06F00706 		and	r6, r6, #7
 3873 01e0 58BF     		it	pl
 3874 01e2 7742     		rsbpl	r7, r6, #0
 3875 01e4 07F00706 		and	r6, r7, #7
 3876              	.LBB709:
ARM GAS  /tmp/cc04S6rC.s 			page 69


 3877              	.LBB686:
 3878              	.LBB680:
 3879              	.LBB675:
 3880              		.loc 1 62 0
 3881 01e8 0778     		ldrb	r7, [r0]	@ zero_extendqisi2
 3882 01ea 0297     		str	r7, [sp, #8]
 3883              	.LBE675:
 3884              	.LBE680:
 3885              	.LBE686:
 3886              	.LBE709:
 3887              		.loc 1 102 0
 3888 01ec 039F     		ldr	r7, [sp, #12]
 3889 01ee C6F10806 		rsb	r6, r6, #8
 3890 01f2 3741     		asrs	r7, r7, r6
 3891 01f4 3E46     		mov	r6, r7
 3892 01f6 5FFA87FE 		uxtb	lr, r7
 3893              	.LVL333:
 3894              	.LBB710:
 3895              	.LBB687:
 3896              	.LBB681:
 3897              	.LBB676:
 3898              		.loc 1 62 0
 3899 01fa 029F     		ldr	r7, [sp, #8]
 3900              	.LBE676:
 3901              	.LBE681:
 3902              	.LBE687:
 3903              	.LBE710:
 3904              		.loc 1 102 0
 3905 01fc 09F1010C 		add	ip, r9, #1
 3906              	.LBB711:
 3907              	.LBB688:
 3908              	.LBB682:
 3909              	.LBB677:
 3910              		.loc 1 62 0
 3911 0200 BA42     		cmp	r2, r7
 3912              	.LBE677:
 3913              	.LBE682:
 3914              	.LBE688:
 3915              	.LBE711:
 3916              		.loc 1 102 0
 3917 0202 0FFA8CFC 		sxth	ip, ip
 3918              	.LVL334:
 3919              	.LBB712:
 3920              	.LBB689:
 3921              	.LBB683:
 3922              	.LBB678:
 3923              		.loc 1 62 0
 3924 0206 94DA     		bge	.L288
 3925              	.LVL335:
 3926              	.L296:
 3927 0208 90F80390 		ldrb	r9, [r0, #3]	@ zero_extendqisi2
 3928              	.LVL336:
 3929 020c CC45     		cmp	ip, r9
 3930 020e 90DA     		bge	.L288
 3931              	.LVL337:
 3932              		.loc 1 64 0
 3933 0210 029F     		ldr	r7, [sp, #8]
ARM GAS  /tmp/cc04S6rC.s 			page 70


 3934 0212 07FB0C29 		mla	r9, r7, ip, r2
 3935 0216 8768     		ldr	r7, [r0, #8]
 3936 0218 0397     		str	r7, [sp, #12]
 3937              		.loc 1 65 0
 3938 021a 077E     		ldrb	r7, [r0, #24]	@ zero_extendqisi2
 3939 021c 0497     		str	r7, [sp, #16]
 3940              		.loc 1 64 0
 3941 021e 039F     		ldr	r7, [sp, #12]
 3942 0220 17F80970 		ldrb	r7, [r7, r9]	@ zero_extendqisi2
 3943 0224 0297     		str	r7, [sp, #8]
 3944              	.LVL338:
 3945              		.loc 1 65 0
 3946 0226 049F     		ldr	r7, [sp, #16]
 3947 0228 BFB3     		cbz	r7, .L289
 3948              		.loc 1 66 0
 3949 022a 029F     		ldr	r7, [sp, #8]
 3950 022c 27EA0606 		bic	r6, r7, r6
 3951              	.L290:
 3952 0230 039F     		ldr	r7, [sp, #12]
 3953 0232 07F80960 		strb	r6, [r7, r9]
 3954              		.loc 1 69 0
 3955 0236 90F800E0 		ldrb	lr, [r0]	@ zero_extendqisi2
 3956              	.LVL339:
 3957 023a 8668     		ldr	r6, [r0, #8]
 3958 023c 029F     		ldr	r7, [sp, #8]
 3959 023e 1CFB0E2E 		smlabb	lr, ip, lr, r2
 3960 0242 16F80E60 		ldrb	r6, [r6, lr]	@ zero_extendqisi2
 3961 0246 BE42     		cmp	r6, r7
 3962 0248 10D0     		beq	.L306
 3963              		.loc 1 72 0
 3964 024a 90F802E0 		ldrb	lr, [r0, #2]	@ zero_extendqisi2
 3965 024e 4668     		ldr	r6, [r0, #4]
 3966 0250 1711     		asrs	r7, r2, #4
 3967 0252 1CFB0E7C 		smlabb	ip, ip, lr, r7
 3968              	.LVL340:
 3969 0256 C2F34202 		ubfx	r2, r2, #1, #3
 3970              	.LVL341:
 3971 025a 16F80C70 		ldrb	r7, [r6, ip]	@ zero_extendqisi2
 3972 025e 4FF0010E 		mov	lr, #1
 3973 0262 0EFA02F2 		lsl	r2, lr, r2
 3974 0266 3A43     		orrs	r2, r2, r7
 3975 0268 06F80C20 		strb	r2, [r6, ip]
 3976              	.L306:
 3977 026c B0F91420 		ldrsh	r2, [r0, #20]
 3978 0270 5FE7     		b	.L288
 3979              	.LVL342:
 3980              	.L309:
 3981              	.LBE678:
 3982              	.LBE683:
 3983              	.LBE689:
 3984              	.LBE712:
 3985              		.loc 1 102 0
 3986 0272 CCF10806 		rsb	r6, ip, #8
 3987 0276 039F     		ldr	r7, [sp, #12]
 3988 0278 09F1010C 		add	ip, r9, #1
 3989 027c 0FFA8CFC 		sxth	ip, ip
 3990 0280 3741     		asrs	r7, r7, r6
ARM GAS  /tmp/cc04S6rC.s 			page 71


 3991              	.LBB713:
 3992              	.LBB690:
 3993              		.loc 1 62 0
 3994 0282 BCF1000F 		cmp	ip, #0
 3995              	.LBE690:
 3996              	.LBE713:
 3997              		.loc 1 102 0
 3998 0286 3E46     		mov	r6, r7
 3999 0288 5FFA87FE 		uxtb	lr, r7
 4000              	.LVL343:
 4001              	.LBB714:
 4002              	.LBB691:
 4003              		.loc 1 62 0
 4004 028c FFF651AF 		blt	.L288
 4005 0290 BAE7     		b	.L296
 4006              	.LVL344:
 4007              	.L310:
 4008              	.LBE691:
 4009              	.LBE714:
 4010              	.LBB715:
 4011              	.LBB704:
 4012              	.LBB700:
 4013              	.LBB698:
 4014              		.loc 1 66 0
 4015 0292 029E     		ldr	r6, [sp, #8]
 4016 0294 26EA0C0C 		bic	ip, r6, ip
 4017 0298 7AE7     		b	.L286
 4018              	.LVL345:
 4019              	.L289:
 4020              	.LBE698:
 4021              	.LBE700:
 4022              	.LBE704:
 4023              	.LBE715:
 4024              	.LBB716:
 4025              	.LBB692:
 4026              	.LBB684:
 4027              	.LBB679:
 4028              		.loc 1 68 0
 4029 029a 029E     		ldr	r6, [sp, #8]
 4030 029c 46EA0E06 		orr	r6, r6, lr
 4031 02a0 C6E7     		b	.L290
 4032              	.LBE679:
 4033              	.LBE684:
 4034              	.LBE692:
 4035              	.LBE716:
 4036              	.LBE719:
 4037              	.LBE722:
 4038              	.LBE728:
 4039              	.LBE729:
 4040              	.LBE730:
 4041              		.cfi_endproc
 4042              	.LFE336:
 4043              		.size	OLED_fill, .-OLED_fill
 4044 02a2 00BF     		.section	.text.OLED_copyFromBuffer,"ax",%progbits
 4045              		.align	1
 4046              		.p2align 2,,3
 4047              		.global	OLED_copyFromBuffer
ARM GAS  /tmp/cc04S6rC.s 			page 72


 4048              		.syntax unified
 4049              		.thumb
 4050              		.thumb_func
 4051              		.fpu fpv4-sp-d16
 4052              		.type	OLED_copyFromBuffer, %function
 4053              	OLED_copyFromBuffer:
 4054              	.LFB337:
 4055              		.loc 1 277 0
 4056              		.cfi_startproc
 4057              		@ args = 16, pretend = 0, frame = 40
 4058              		@ frame_needed = 0, uses_anonymous_args = 0
 4059              	.LVL346:
 4060 0000 2DE9F04F 		push	{r4, r5, r6, r7, r8, r9, r10, fp, lr}
 4061              		.cfi_def_cfa_offset 36
 4062              		.cfi_offset 4, -36
 4063              		.cfi_offset 5, -32
 4064              		.cfi_offset 6, -28
 4065              		.cfi_offset 7, -24
 4066              		.cfi_offset 8, -20
 4067              		.cfi_offset 9, -16
 4068              		.cfi_offset 10, -12
 4069              		.cfi_offset 11, -8
 4070              		.cfi_offset 14, -4
 4071 0004 8BB0     		sub	sp, sp, #44
 4072              		.cfi_def_cfa_offset 80
 4073              		.loc 1 281 0
 4074 0006 B0F90CC0 		ldrsh	ip, [r0, #12]
 4075              		.loc 1 277 0
 4076 000a BDF950B0 		ldrsh	fp, [sp, #80]
 4077 000e BDF95440 		ldrsh	r4, [sp, #84]
 4078 0012 0194     		str	r4, [sp, #4]
 4079              		.loc 1 281 0
 4080 0014 9445     		cmp	ip, r2
 4081              		.loc 1 277 0
 4082 0016 9DF85840 		ldrb	r4, [sp, #88]	@ zero_extendqisi2
 4083 001a 9DF85C60 		ldrb	r6, [sp, #92]	@ zero_extendqisi2
 4084 001e 0591     		str	r1, [sp, #20]
 4085 0020 97B2     		uxth	r7, r2
 4086 0022 1FFA8BF5 		uxth	r5, fp
 4087              		.loc 1 281 0
 4088 0026 40F3DE80 		ble	.L347
 4089              		.loc 1 281 0 is_stmt 0 discriminator 1
 4090 002a 1FFA8CF1 		uxth	r1, ip
 4091              	.LVL347:
 4092 002e CA1B     		subs	r2, r1, r7
 4093              	.LVL348:
 4094 0030 92B2     		uxth	r2, r2
 4095 0032 1544     		add	r5, r5, r2
 4096 0034 ADB2     		uxth	r5, r5
 4097 0036 A41A     		subs	r4, r4, r2
 4098 0038 E4B2     		uxtb	r4, r4
 4099 003a 0F46     		mov	r7, r1
 4100              	.LVL349:
 4101 003c E246     		mov	r10, ip
 4102 003e 0FFA85FB 		sxth	fp, r5
 4103              	.L312:
 4104              		.loc 1 282 0 is_stmt 1 discriminator 4
ARM GAS  /tmp/cc04S6rC.s 			page 73


 4105 0042 B0F90EC0 		ldrsh	ip, [r0, #14]
 4106 0046 BDF80410 		ldrh	r1, [sp, #4]
 4107 004a 9C45     		cmp	ip, r3
 4108 004c 1FFA83F8 		uxth	r8, r3
 4109 0050 0CDD     		ble	.L313
 4110              		.loc 1 282 0 is_stmt 0 discriminator 1
 4111 0052 1FFA8CFE 		uxth	lr, ip
 4112 0056 AEEB0803 		sub	r3, lr, r8
 4113              	.LVL350:
 4114 005a 9BB2     		uxth	r3, r3
 4115 005c 1944     		add	r1, r1, r3
 4116 005e 89B2     		uxth	r1, r1
 4117 0060 F61A     		subs	r6, r6, r3
 4118 0062 0AB2     		sxth	r2, r1
 4119 0064 F6B2     		uxtb	r6, r6
 4120 0066 F046     		mov	r8, lr
 4121              	.LVL351:
 4122 0068 6346     		mov	r3, ip
 4123 006a 0192     		str	r2, [sp, #4]
 4124              	.L313:
 4125              	.LVL352:
 4126              		.loc 1 291 0 is_stmt 1 discriminator 4
 4127 006c 0AEB040C 		add	ip, r10, r4
 4128 0070 B0F910E0 		ldrsh	lr, [r0, #16]
 4129 0074 0CF1FF3C 		add	ip, ip, #-1
 4130 0078 F445     		cmp	ip, lr
 4131 007a 03DD     		ble	.L314
 4132 007c AEEB0704 		sub	r4, lr, r7
 4133 0080 0134     		adds	r4, r4, #1
 4134 0082 E4B2     		uxtb	r4, r4
 4135              	.L314:
 4136              		.loc 1 292 0 discriminator 4
 4137 0084 9F19     		adds	r7, r3, r6
 4138 0086 B0F912C0 		ldrsh	ip, [r0, #18]
 4139 008a 013F     		subs	r7, r7, #1
 4140 008c 6745     		cmp	r7, ip
 4141 008e 03DD     		ble	.L315
 4142 0090 ACEB0806 		sub	r6, ip, r8
 4143 0094 0136     		adds	r6, r6, #1
 4144 0096 F6B2     		uxtb	r6, r6
 4145              	.L315:
 4146              	.LBB746:
 4147              		.loc 1 298 0 discriminator 4
 4148 0098 019A     		ldr	r2, [sp, #4]
 4149 009a 5742     		rsbs	r7, r2, #0
 4150 009c 07F00707 		and	r7, r7, #7
 4151 00a0 02F00702 		and	r2, r2, #7
 4152 00a4 58BF     		it	pl
 4153 00a6 7A42     		rsbpl	r2, r7, #0
 4154 00a8 02F00702 		and	r2, r2, #7
 4155 00ac 8A1A     		subs	r2, r1, r2
 4156              	.LBE746:
 4157              		.loc 1 295 0 discriminator 4
 4158 00ae 0139     		subs	r1, r1, #1
 4159              		.loc 1 294 0 discriminator 4
 4160 00b0 013D     		subs	r5, r5, #1
 4161              	.LBB815:
ARM GAS  /tmp/cc04S6rC.s 			page 74


 4162              		.loc 1 298 0 discriminator 4
 4163 00b2 92B2     		uxth	r2, r2
 4164              	.LBE815:
 4165              		.loc 1 295 0 discriminator 4
 4166 00b4 3144     		add	r1, r1, r6
 4167              		.loc 1 294 0 discriminator 4
 4168 00b6 2544     		add	r5, r5, r4
 4169              		.loc 1 295 0 discriminator 4
 4170 00b8 0FFA81FE 		sxth	lr, r1
 4171              	.LBB816:
 4172              		.loc 1 298 0 discriminator 4
 4173 00bc 14B2     		sxth	r4, r2
 4174 00be A645     		cmp	lr, r4
 4175              	.LBE816:
 4176              		.loc 1 294 0 discriminator 4
 4177 00c0 2DB2     		sxth	r5, r5
 4178              	.LVL353:
 4179              	.LBB817:
 4180              		.loc 1 298 0 discriminator 4
 4181 00c2 C0F28B80 		blt	.L311
 4182 00c6 9B1A     		subs	r3, r3, r2
 4183              	.LBB747:
 4184              	.LBB748:
 4185              	.LBB749:
 4186              	.LBB750:
 4187              	.LBB751:
 4188              	.LBB752:
 4189              	.LBB753:
 4190              	.LBB754:
 4191              		.loc 1 72 0
 4192 00c8 DDF80490 		ldr	r9, [sp, #4]
 4193 00cc 0293     		str	r3, [sp, #8]
 4194              	.L336:
 4195              	.LBE754:
 4196              	.LBE753:
 4197              	.LBE752:
 4198              	.LBE751:
 4199              	.LBE750:
 4200              	.LBE749:
 4201              	.LBE748:
 4202              	.LBB807:
 4203              	.LBB808:
 4204              		.loc 1 78 0
 4205 00ce 029B     		ldr	r3, [sp, #8]
 4206              		.loc 1 77 0
 4207 00d0 A0F814A0 		strh	r10, [r0, #20]	@ movhi
 4208 00d4 A1B2     		uxth	r1, r4
 4209              	.LVL354:
 4210              		.loc 1 78 0
 4211 00d6 CB18     		adds	r3, r1, r3
 4212              	.LBE808:
 4213              	.LBE807:
 4214              		.loc 1 304 0
 4215 00d8 4C45     		cmp	r4, r9
 4216              	.LBB810:
 4217              	.LBB809:
 4218              		.loc 1 78 0
ARM GAS  /tmp/cc04S6rC.s 			page 75


 4219 00da C382     		strh	r3, [r0, #22]	@ movhi
 4220              	.LVL355:
 4221              	.LBE809:
 4222              	.LBE810:
 4223              		.loc 1 304 0
 4224 00dc 80F28180 		bge	.L340
 4225              		.loc 1 305 0
 4226 00e0 A9EB0403 		sub	r3, r9, r4
 4227 00e4 FF22     		movs	r2, #255
 4228 00e6 02FA03F3 		lsl	r3, r2, r3
 4229 00ea DFB2     		uxtb	r7, r3
 4230              	.LVL356:
 4231              	.L317:
 4232              		.loc 1 306 0
 4233 00ec A31D     		adds	r3, r4, #6
 4234 00ee 7345     		cmp	r3, lr
 4235 00f0 06DB     		blt	.L318
 4236              		.loc 1 307 0
 4237 00f2 E31D     		adds	r3, r4, #7
 4238 00f4 A3EB0E03 		sub	r3, r3, lr
 4239 00f8 FF22     		movs	r2, #255
 4240 00fa 42FA03F3 		asr	r3, r2, r3
 4241 00fe 1F40     		ands	r7, r7, r3
 4242              	.LVL357:
 4243              	.L318:
 4244              		.loc 1 308 0
 4245 0100 002C     		cmp	r4, #0
 4246              	.LVL358:
 4247 0102 B8BF     		it	lt
 4248 0104 0734     		addlt	r4, r4, #7
 4249 0106 44F3CF03 		sbfx	r3, r4, #3, #16
 4250              	.LBB811:
 4251              		.loc 1 309 0
 4252 010a 5D45     		cmp	r5, fp
 4253              	.LBE811:
 4254              		.loc 1 308 0
 4255 010c 0393     		str	r3, [sp, #12]
 4256              	.LVL359:
 4257              	.LBB812:
 4258              		.loc 1 309 0
 4259 010e 60DB     		blt	.L320
 4260 0110 5346     		mov	r3, r10
 4261 0112 5A46     		mov	r2, fp
 4262 0114 B846     		mov	r8, r7
 4263 0116 0191     		str	r1, [sp, #4]
 4264              	.LVL360:
 4265              	.L335:
 4266              	.LBB802:
 4267              	.LBB797:
 4268              		.loc 1 83 0 discriminator 3
 4269 0118 B0F90C40 		ldrsh	r4, [r0, #12]
 4270 011c 9C42     		cmp	r4, r3
 4271 011e 50DC     		bgt	.L331
 4272              		.loc 1 83 0 is_stmt 0
 4273 0120 B0F91040 		ldrsh	r4, [r0, #16]
 4274 0124 9C42     		cmp	r4, r3
 4275 0126 4CDB     		blt	.L331
ARM GAS  /tmp/cc04S6rC.s 			page 76


 4276 0128 B0F91640 		ldrsh	r4, [r0, #22]
 4277 012c B0F90E60 		ldrsh	r6, [r0, #14]
 4278 0130 04F1070C 		add	ip, r4, #7
 4279 0134 B445     		cmp	ip, r6
 4280 0136 44DB     		blt	.L331
 4281              		.loc 1 84 0 is_stmt 1
 4282 0138 F71F     		subs	r7, r6, #7
 4283              		.loc 1 83 0
 4284 013a BC42     		cmp	r4, r7
 4285 013c 41DB     		blt	.L331
 4286              		.loc 1 84 0
 4287 013e 002B     		cmp	r3, #0
 4288 0140 3FDB     		blt	.L331
 4289 0142 0778     		ldrb	r7, [r0]	@ zero_extendqisi2
 4290 0144 0497     		str	r7, [sp, #16]
 4291 0146 BB42     		cmp	r3, r7
 4292 0148 3BDA     		bge	.L331
 4293 014a 4778     		ldrb	r7, [r0, #1]	@ zero_extendqisi2
 4294 014c BC42     		cmp	r4, r7
 4295 014e 38DA     		bge	.L331
 4296              	.LBE797:
 4297              	.LBE802:
 4298              		.loc 1 310 0
 4299 0150 0599     		ldr	r1, [sp, #20]
 4300 0152 0F78     		ldrb	r7, [r1]	@ zero_extendqisi2
 4301 0154 4968     		ldr	r1, [r1, #4]
 4302 0156 0691     		str	r1, [sp, #24]
 4303 0158 0399     		ldr	r1, [sp, #12]
 4304 015a 11FB0727 		smlabb	r7, r1, r7, r2
 4305 015e 0699     		ldr	r1, [sp, #24]
 4306 0160 CF5D     		ldrb	r7, [r1, r7]	@ zero_extendqisi2
 4307              	.LBB803:
 4308              	.LBB798:
 4309              		.loc 1 90 0
 4310 0162 B442     		cmp	r4, r6
 4311              	.LBE798:
 4312              	.LBE803:
 4313              		.loc 1 310 0
 4314 0164 08EA0707 		and	r7, r8, r7
 4315              	.LVL361:
 4316              	.LBB804:
 4317              	.LBB799:
 4318              		.loc 1 90 0
 4319 0168 04DA     		bge	.L324
 4320              		.loc 1 91 0
 4321 016a 361B     		subs	r6, r6, r4
 4322 016c FF21     		movs	r1, #255
 4323 016e 01FA06F6 		lsl	r6, r1, r6
 4324 0172 3740     		ands	r7, r7, r6
 4325              	.LVL362:
 4326              	.L324:
 4327              		.loc 1 92 0
 4328 0174 B0F91260 		ldrsh	r6, [r0, #18]
 4329 0178 A11D     		adds	r1, r4, #6
 4330 017a B142     		cmp	r1, r6
 4331 017c 05DB     		blt	.L325
 4332              		.loc 1 93 0
ARM GAS  /tmp/cc04S6rC.s 			page 77


 4333 017e ACEB0606 		sub	r6, ip, r6
 4334 0182 FF21     		movs	r1, #255
 4335 0184 41FA06F6 		asr	r6, r1, r6
 4336              	.LVL363:
 4337 0188 3740     		ands	r7, r7, r6
 4338              	.LVL364:
 4339              	.L325:
 4340              		.loc 1 95 0
 4341 018a 1CEA240C 		ands	ip, ip, r4, asr #32
 4342 018e 38BF     		it	cc
 4343 0190 A446     		movcc	ip, r4
 4344 0192 E613     		asrs	r6, r4, #15
 4345 0194 06EBEC0C 		add	ip, r6, ip, asr #3
 4346 0198 1FFA8CF1 		uxth	r1, ip
 4347              		.loc 1 98 0
 4348 019c 6642     		rsbs	r6, r4, #0
 4349 019e 06F00706 		and	r6, r6, #7
 4350              		.loc 1 95 0
 4351 01a2 0FFA81FC 		sxth	ip, r1
 4352              	.LVL365:
 4353              		.loc 1 98 0
 4354 01a6 04F00704 		and	r4, r4, #7
 4355              		.loc 1 95 0
 4356 01aa 0691     		str	r1, [sp, #24]
 4357              		.loc 1 98 0
 4358 01ac 2146     		mov	r1, r4
 4359 01ae 58BF     		it	pl
 4360 01b0 7142     		rsbpl	r1, r6, #0
 4361              	.LBB773:
 4362              	.LBB774:
 4363              		.loc 1 62 0
 4364 01b2 BCF1000F 		cmp	ip, #0
 4365              	.LBE774:
 4366              	.LBE773:
 4367              		.loc 1 98 0
 4368 01b6 01F00706 		and	r6, r1, #7
 4369              	.LVL366:
 4370              	.LBB785:
 4371              	.LBB781:
 4372              		.loc 1 62 0
 4373 01ba 16DA     		bge	.L350
 4374              	.L327:
 4375              	.LVL367:
 4376              	.LBE781:
 4377              	.LBE785:
 4378              		.loc 1 100 0
 4379 01bc 002C     		cmp	r4, #0
 4380 01be 40F09080 		bne	.L351
 4381              	.LVL368:
 4382              	.L331:
 4383 01c2 0132     		adds	r2, r2, #1
 4384              	.LVL369:
 4385              		.loc 1 104 0
 4386 01c4 0133     		adds	r3, r3, #1
 4387 01c6 12B2     		sxth	r2, r2
 4388 01c8 1BB2     		sxth	r3, r3
 4389              	.LBE799:
ARM GAS  /tmp/cc04S6rC.s 			page 78


 4390              	.LBE804:
 4391              		.loc 1 309 0
 4392 01ca AA42     		cmp	r2, r5
 4393              	.LBB805:
 4394              	.LBB800:
 4395              		.loc 1 104 0
 4396 01cc 8382     		strh	r3, [r0, #20]	@ movhi
 4397              	.LVL370:
 4398              	.LBE800:
 4399              	.LBE805:
 4400              		.loc 1 309 0
 4401 01ce A3DD     		ble	.L335
 4402 01d0 0199     		ldr	r1, [sp, #4]
 4403              	.LVL371:
 4404              	.L320:
 4405 01d2 0831     		adds	r1, r1, #8
 4406 01d4 0CB2     		sxth	r4, r1
 4407              	.LVL372:
 4408              	.LBE812:
 4409              	.LBE747:
 4410              		.loc 1 298 0
 4411 01d6 A645     		cmp	lr, r4
 4412 01d8 BFF679AF 		bge	.L336
 4413              	.LVL373:
 4414              	.L311:
 4415              	.LBE817:
 4416              		.loc 1 312 0
 4417 01dc 0BB0     		add	sp, sp, #44
 4418              		.cfi_remember_state
 4419              		.cfi_def_cfa_offset 36
 4420              		@ sp needed
 4421 01de BDE8F08F 		pop	{r4, r5, r6, r7, r8, r9, r10, fp, pc}
 4422              	.LVL374:
 4423              	.L340:
 4424              		.cfi_restore_state
 4425              	.LBB818:
 4426              	.LBB814:
 4427              		.loc 1 303 0
 4428 01e2 FF27     		movs	r7, #255
 4429 01e4 82E7     		b	.L317
 4430              	.LVL375:
 4431              	.L347:
 4432 01e6 9246     		mov	r10, r2
 4433 01e8 2BE7     		b	.L312
 4434              	.LVL376:
 4435              	.L350:
 4436              	.LBB813:
 4437              	.LBB806:
 4438              	.LBB801:
 4439              	.LBB786:
 4440              	.LBB782:
 4441              	.LBB775:
 4442              	.LBB776:
 4443              		.loc 1 62 0
 4444 01ea C178     		ldrb	r1, [r0, #3]	@ zero_extendqisi2
 4445 01ec 8C45     		cmp	ip, r1
 4446 01ee E5DA     		bge	.L327
ARM GAS  /tmp/cc04S6rC.s 			page 79


 4447              		.loc 1 64 0
 4448 01f0 0499     		ldr	r1, [sp, #16]
 4449 01f2 1CFB0134 		smlabb	r4, ip, r1, r3
 4450 01f6 0794     		str	r4, [sp, #28]
 4451              		.loc 1 65 0
 4452 01f8 047E     		ldrb	r4, [r0, #24]	@ zero_extendqisi2
 4453              		.loc 1 64 0
 4454 01fa 8168     		ldr	r1, [r0, #8]
 4455              		.loc 1 65 0
 4456 01fc 0994     		str	r4, [sp, #36]
 4457              		.loc 1 64 0
 4458 01fe 079C     		ldr	r4, [sp, #28]
 4459 0200 0891     		str	r1, [sp, #32]
 4460 0202 095D     		ldrb	r1, [r1, r4]	@ zero_extendqisi2
 4461              		.loc 1 65 0
 4462 0204 099C     		ldr	r4, [sp, #36]
 4463              		.loc 1 64 0
 4464 0206 0491     		str	r1, [sp, #16]
 4465              	.LVL377:
 4466              	.LBE776:
 4467              	.LBE775:
 4468              	.LBE782:
 4469              	.LBE786:
 4470              		.loc 1 98 0
 4471 0208 07FA06F6 		lsl	r6, r7, r6
 4472              	.LBB787:
 4473              	.LBB783:
 4474              	.LBB779:
 4475              	.LBB777:
 4476              		.loc 1 65 0
 4477 020c 002C     		cmp	r4, #0
 4478 020e 76D1     		bne	.L352
 4479              		.loc 1 68 0
 4480 0210 0E43     		orrs	r6, r6, r1
 4481 0212 F6B2     		uxtb	r6, r6
 4482              	.L329:
 4483 0214 DDE90741 		ldrd	r4, r1, [sp, #28]
 4484              	.LVL378:
 4485 0218 0E55     		strb	r6, [r1, r4]
 4486              	.LVL379:
 4487              		.loc 1 69 0
 4488 021a 0678     		ldrb	r6, [r0]	@ zero_extendqisi2
 4489 021c 8468     		ldr	r4, [r0, #8]
 4490 021e 0499     		ldr	r1, [sp, #16]
 4491 0220 1CFB0636 		smlabb	r6, ip, r6, r3
 4492 0224 A45D     		ldrb	r4, [r4, r6]	@ zero_extendqisi2
 4493 0226 8C42     		cmp	r4, r1
 4494 0228 0ED0     		beq	.L330
 4495              		.loc 1 72 0
 4496 022a 8678     		ldrb	r6, [r0, #2]	@ zero_extendqisi2
 4497 022c 4168     		ldr	r1, [r0, #4]
 4498 022e 43F30F14 		sbfx	r4, r3, #4, #16
 4499 0232 1CFB0644 		smlabb	r4, ip, r6, r4
 4500 0236 C3F34203 		ubfx	r3, r3, #1, #3
 4501 023a 0E5D     		ldrb	r6, [r1, r4]	@ zero_extendqisi2
 4502 023c 0121     		movs	r1, #1
 4503 023e 01FA03F3 		lsl	r3, r1, r3
ARM GAS  /tmp/cc04S6rC.s 			page 80


 4504 0242 4168     		ldr	r1, [r0, #4]
 4505 0244 3343     		orrs	r3, r3, r6
 4506 0246 0B55     		strb	r3, [r1, r4]
 4507              	.L330:
 4508              	.LVL380:
 4509              	.LBE777:
 4510              	.LBE779:
 4511              	.LBE783:
 4512              	.LBE787:
 4513              		.loc 1 100 0
 4514 0248 B0F91640 		ldrsh	r4, [r0, #22]
 4515 024c B0F91430 		ldrsh	r3, [r0, #20]
 4516 0250 14F00706 		ands	r6, r4, #7
 4517 0254 B5D0     		beq	.L331
 4518              	.LVL381:
 4519              	.LBB788:
 4520              	.LBB765:
 4521              		.loc 1 62 0
 4522 0256 002B     		cmp	r3, #0
 4523 0258 B3DB     		blt	.L331
 4524              	.LBE765:
 4525              	.LBE788:
 4526              		.loc 1 102 0
 4527 025a 6442     		rsbs	r4, r4, #0
 4528              	.LVL382:
 4529 025c 04F00704 		and	r4, r4, #7
 4530 0260 58BF     		it	pl
 4531 0262 6642     		rsbpl	r6, r4, #0
 4532              	.LBB789:
 4533              	.LBB766:
 4534              	.LBB760:
 4535              	.LBB755:
 4536              		.loc 1 62 0
 4537 0264 0178     		ldrb	r1, [r0]	@ zero_extendqisi2
 4538              	.LBE755:
 4539              	.LBE760:
 4540              	.LBE766:
 4541              	.LBE789:
 4542              		.loc 1 102 0
 4543 0266 069C     		ldr	r4, [sp, #24]
 4544              	.LBB790:
 4545              	.LBB767:
 4546              	.LBB761:
 4547              	.LBB756:
 4548              		.loc 1 62 0
 4549 0268 0491     		str	r1, [sp, #16]
 4550              	.LVL383:
 4551              	.LBE756:
 4552              	.LBE761:
 4553              	.LBE767:
 4554              	.LBE790:
 4555              		.loc 1 102 0
 4556 026a 06F00706 		and	r6, r6, #7
 4557 026e C6F10806 		rsb	r6, r6, #8
 4558 0272 04F1010C 		add	ip, r4, #1
 4559              	.LVL384:
 4560 0276 3741     		asrs	r7, r7, r6
ARM GAS  /tmp/cc04S6rC.s 			page 81


 4561              	.LVL385:
 4562              	.LBB791:
 4563              	.LBB768:
 4564              	.LBB762:
 4565              	.LBB757:
 4566              		.loc 1 62 0
 4567 0278 8B42     		cmp	r3, r1
 4568              	.LBE757:
 4569              	.LBE762:
 4570              	.LBE768:
 4571              	.LBE791:
 4572              		.loc 1 102 0
 4573 027a 0FFA8CFC 		sxth	ip, ip
 4574 027e FCB2     		uxtb	r4, r7
 4575              	.LVL386:
 4576              	.LBB792:
 4577              	.LBB769:
 4578              	.LBB763:
 4579              	.LBB758:
 4580              		.loc 1 62 0
 4581 0280 9FDA     		bge	.L331
 4582              	.LVL387:
 4583              	.L339:
 4584 0282 C678     		ldrb	r6, [r0, #3]	@ zero_extendqisi2
 4585 0284 B445     		cmp	ip, r6
 4586 0286 9CDA     		bge	.L331
 4587              		.loc 1 64 0
 4588 0288 0499     		ldr	r1, [sp, #16]
 4589 028a 01FB0C36 		mla	r6, r1, ip, r3
 4590 028e 0696     		str	r6, [sp, #24]
 4591              	.LVL388:
 4592              		.loc 1 65 0
 4593 0290 067E     		ldrb	r6, [r0, #24]	@ zero_extendqisi2
 4594              		.loc 1 64 0
 4595 0292 8168     		ldr	r1, [r0, #8]
 4596              		.loc 1 65 0
 4597 0294 0896     		str	r6, [sp, #32]
 4598              		.loc 1 64 0
 4599 0296 069E     		ldr	r6, [sp, #24]
 4600 0298 0791     		str	r1, [sp, #28]
 4601 029a 895D     		ldrb	r1, [r1, r6]	@ zero_extendqisi2
 4602              		.loc 1 65 0
 4603 029c 089E     		ldr	r6, [sp, #32]
 4604              		.loc 1 64 0
 4605 029e 0491     		str	r1, [sp, #16]
 4606              	.LVL389:
 4607              		.loc 1 65 0
 4608 02a0 86B3     		cbz	r6, .L332
 4609              		.loc 1 66 0
 4610 02a2 21EA0704 		bic	r4, r1, r7
 4611              	.LVL390:
 4612              	.L333:
 4613 02a6 DDE90661 		ldrd	r6, r1, [sp, #24]
 4614              	.LVL391:
 4615 02aa 8C55     		strb	r4, [r1, r6]
 4616              		.loc 1 69 0
 4617 02ac 0678     		ldrb	r6, [r0]	@ zero_extendqisi2
ARM GAS  /tmp/cc04S6rC.s 			page 82


 4618 02ae 8468     		ldr	r4, [r0, #8]
 4619 02b0 0499     		ldr	r1, [sp, #16]
 4620 02b2 1CFB0636 		smlabb	r6, ip, r6, r3
 4621 02b6 A45D     		ldrb	r4, [r4, r6]	@ zero_extendqisi2
 4622 02b8 8C42     		cmp	r4, r1
 4623 02ba 0FD0     		beq	.L349
 4624              		.loc 1 72 0
 4625 02bc 8778     		ldrb	r7, [r0, #2]	@ zero_extendqisi2
 4626 02be 4468     		ldr	r4, [r0, #4]
 4627 02c0 43F30F16 		sbfx	r6, r3, #4, #16
 4628 02c4 1CFB076C 		smlabb	ip, ip, r7, r6
 4629              	.LVL392:
 4630 02c8 C3F34203 		ubfx	r3, r3, #1, #3
 4631              	.LVL393:
 4632 02cc 14F80C60 		ldrb	r6, [r4, ip]	@ zero_extendqisi2
 4633 02d0 0121     		movs	r1, #1
 4634 02d2 01FA03F3 		lsl	r3, r1, r3
 4635 02d6 3343     		orrs	r3, r3, r6
 4636 02d8 04F80C30 		strb	r3, [r4, ip]
 4637              	.L349:
 4638 02dc B0F91430 		ldrsh	r3, [r0, #20]
 4639 02e0 6FE7     		b	.L331
 4640              	.LVL394:
 4641              	.L351:
 4642              	.LBE758:
 4643              	.LBE763:
 4644              	.LBE769:
 4645              	.LBE792:
 4646              		.loc 1 102 0
 4647 02e2 0699     		ldr	r1, [sp, #24]
 4648 02e4 01F1010C 		add	ip, r1, #1
 4649              	.LVL395:
 4650 02e8 C6F10806 		rsb	r6, r6, #8
 4651 02ec 0FFA8CFC 		sxth	ip, ip
 4652 02f0 3741     		asrs	r7, r7, r6
 4653              	.LBB793:
 4654              	.LBB770:
 4655              		.loc 1 62 0
 4656 02f2 BCF1000F 		cmp	ip, #0
 4657              	.LBE770:
 4658              	.LBE793:
 4659              		.loc 1 102 0
 4660 02f6 FCB2     		uxtb	r4, r7
 4661              	.LVL396:
 4662              	.LBB794:
 4663              	.LBB771:
 4664              		.loc 1 62 0
 4665 02f8 FFF663AF 		blt	.L331
 4666 02fc C1E7     		b	.L339
 4667              	.LVL397:
 4668              	.L352:
 4669              	.LBE771:
 4670              	.LBE794:
 4671              	.LBB795:
 4672              	.LBB784:
 4673              	.LBB780:
 4674              	.LBB778:
ARM GAS  /tmp/cc04S6rC.s 			page 83


 4675              		.loc 1 66 0
 4676 02fe 21EA0606 		bic	r6, r1, r6
 4677 0302 87E7     		b	.L329
 4678              	.LVL398:
 4679              	.L332:
 4680              	.LBE778:
 4681              	.LBE780:
 4682              	.LBE784:
 4683              	.LBE795:
 4684              	.LBB796:
 4685              	.LBB772:
 4686              	.LBB764:
 4687              	.LBB759:
 4688              		.loc 1 68 0
 4689 0304 0C43     		orrs	r4, r4, r1
 4690              	.LVL399:
 4691 0306 CEE7     		b	.L333
 4692              	.LBE759:
 4693              	.LBE764:
 4694              	.LBE772:
 4695              	.LBE796:
 4696              	.LBE801:
 4697              	.LBE806:
 4698              	.LBE813:
 4699              	.LBE814:
 4700              	.LBE818:
 4701              		.cfi_endproc
 4702              	.LFE337:
 4703              		.size	OLED_copyFromBuffer, .-OLED_copyFromBuffer
 4704              		.section	.text.OLED_toggleMode,"ax",%progbits
 4705              		.align	1
 4706              		.p2align 2,,3
 4707              		.global	OLED_toggleMode
 4708              		.syntax unified
 4709              		.thumb
 4710              		.thumb_func
 4711              		.fpu fpv4-sp-d16
 4712              		.type	OLED_toggleMode, %function
 4713              	OLED_toggleMode:
 4714              	.LFB338:
 4715              		.loc 1 315 0
 4716              		.cfi_startproc
 4717              		@ args = 0, pretend = 0, frame = 0
 4718              		@ frame_needed = 0, uses_anonymous_args = 0
 4719              		@ link register save eliminated.
 4720              	.LVL400:
 4721              		.loc 1 316 0
 4722 0000 037E     		ldrb	r3, [r0, #24]	@ zero_extendqisi2
 4723 0002 83F00103 		eor	r3, r3, #1
 4724 0006 0376     		strb	r3, [r0, #24]
 4725              		.loc 1 317 0
 4726 0008 7047     		bx	lr
 4727              		.cfi_endproc
 4728              	.LFE338:
 4729              		.size	OLED_toggleMode, .-OLED_toggleMode
 4730 000a 00BF     		.section	.text.OLED_setMode,"ax",%progbits
 4731              		.align	1
ARM GAS  /tmp/cc04S6rC.s 			page 84


 4732              		.p2align 2,,3
 4733              		.global	OLED_setMode
 4734              		.syntax unified
 4735              		.thumb
 4736              		.thumb_func
 4737              		.fpu fpv4-sp-d16
 4738              		.type	OLED_setMode, %function
 4739              	OLED_setMode:
 4740              	.LFB339:
 4741              		.loc 1 320 0
 4742              		.cfi_startproc
 4743              		@ args = 0, pretend = 0, frame = 0
 4744              		@ frame_needed = 0, uses_anonymous_args = 0
 4745              		@ link register save eliminated.
 4746              	.LVL401:
 4747              		.loc 1 321 0
 4748 0000 0176     		strb	r1, [r0, #24]
 4749              		.loc 1 322 0
 4750 0002 7047     		bx	lr
 4751              		.cfi_endproc
 4752              	.LFE339:
 4753              		.size	OLED_setMode, .-OLED_setMode
 4754              		.section	.text.OLED_writeToScreen,"ax",%progbits
 4755              		.align	1
 4756              		.p2align 2,,3
 4757              		.global	OLED_writeToScreen
 4758              		.syntax unified
 4759              		.thumb
 4760              		.thumb_func
 4761              		.fpu fpv4-sp-d16
 4762              		.type	OLED_writeToScreen, %function
 4763              	OLED_writeToScreen:
 4764              	.LFB340:
 4765              		.loc 1 325 0
 4766              		.cfi_startproc
 4767              		@ args = 0, pretend = 0, frame = 40
 4768              		@ frame_needed = 0, uses_anonymous_args = 0
 4769              	.LVL402:
 4770 0000 2DE9F04F 		push	{r4, r5, r6, r7, r8, r9, r10, fp, lr}
 4771              		.cfi_def_cfa_offset 36
 4772              		.cfi_offset 4, -36
 4773              		.cfi_offset 5, -32
 4774              		.cfi_offset 6, -28
 4775              		.cfi_offset 7, -24
 4776              		.cfi_offset 8, -20
 4777              		.cfi_offset 9, -16
 4778              		.cfi_offset 10, -12
 4779              		.cfi_offset 11, -8
 4780              		.cfi_offset 14, -4
 4781              	.LBB836:
 4782              		.loc 1 326 0
 4783 0004 C478     		ldrb	r4, [r0, #3]	@ zero_extendqisi2
 4784              	.LBE836:
 4785              		.loc 1 325 0
 4786 0006 8BB0     		sub	sp, sp, #44
 4787              		.cfi_def_cfa_offset 80
 4788              	.LBB870:
ARM GAS  /tmp/cc04S6rC.s 			page 85


 4789              		.loc 1 326 0
 4790 0008 002C     		cmp	r4, #0
 4791 000a 00F0A580 		beq	.L355
 4792              		.loc 1 328 0
 4793 000e 072A     		cmp	r2, #7
 4794 0010 00F3A280 		bgt	.L355
 4795 0014 0593     		str	r3, [sp, #20]
 4796 0016 0792     		str	r2, [sp, #28]
 4797 0018 1346     		mov	r3, r2
 4798              	.LVL403:
 4799 001a 503A     		subs	r2, r2, #80
 4800              	.LVL404:
 4801 001c D2B2     		uxtb	r2, r2
 4802 001e 0191     		str	r1, [sp, #4]
 4803 0020 0392     		str	r2, [sp, #12]
 4804 0022 0021     		movs	r1, #0
 4805              	.LVL405:
 4806 0024 C3F15103 		rsb	r3, r3, #81
 4807 0028 8278     		ldrb	r2, [r0, #2]	@ zero_extendqisi2
 4808              	.LBB837:
 4809              	.LBB838:
 4810              	.LBB839:
 4811              	.LBB840:
 4812              	.LBB841:
 4813              	.LBB842:
 4814              	.LBB843:
 4815              	.LBB844:
 4816              		.loc 1 40 0
 4817 002a DFF83CB1 		ldr	fp, .L384+4
 4818              	.LBE844:
 4819              	.LBE843:
 4820              	.LBE842:
 4821              	.LBE841:
 4822              	.LBE840:
 4823              	.LBE839:
 4824              	.LBE838:
 4825              	.LBE837:
 4826              		.loc 1 328 0
 4827 002e 0291     		str	r1, [sp, #8]
 4828 0030 8246     		mov	r10, r0
 4829 0032 0693     		str	r3, [sp, #24]
 4830              	.LVL406:
 4831              	.L358:
 4832              	.LBB868:
 4833              		.loc 1 330 0
 4834 0034 002A     		cmp	r2, #0
 4835 0036 7ED0     		beq	.L359
 4836 0038 4FF00009 		mov	r9, #0
 4837              	.LVL407:
 4838              	.L364:
 4839              	.LBB866:
 4840              		.loc 1 332 0
 4841 003c 029B     		ldr	r3, [sp, #8]
 4842 003e DAF80410 		ldr	r1, [r10, #4]
 4843 0042 03FB0292 		mla	r2, r3, r2, r9
 4844              		.loc 1 334 0
 4845 0046 4FF00003 		mov	r3, #0
ARM GAS  /tmp/cc04S6rC.s 			page 86


 4846              		.loc 1 332 0
 4847 004a 8E5C     		ldrb	r6, [r1, r2]	@ zero_extendqisi2
 4848              	.LVL408:
 4849              		.loc 1 334 0
 4850 004c 8B54     		strb	r3, [r1, r2]
 4851              		.loc 1 336 0
 4852 004e 059B     		ldr	r3, [sp, #20]
 4853 0050 002B     		cmp	r3, #0
 4854 0052 40F08480 		bne	.L366
 4855              		.loc 1 338 0
 4856 0056 002E     		cmp	r6, #0
 4857 0058 63D0     		beq	.L361
 4858              	.LVL409:
 4859              	.L360:
 4860              	.LBB865:
 4861              	.LBB863:
 4862              		.loc 1 342 0
 4863 005a 4FEAC903 		lsl	r3, r9, #3
 4864              	.LBB854:
 4865              	.LBB851:
 4866              		.loc 1 45 0
 4867 005e CDF81090 		str	r9, [sp, #16]
 4868              	.LBE851:
 4869              	.LBE854:
 4870              		.loc 1 342 0
 4871 0062 0025     		movs	r5, #0
 4872              	.LBB855:
 4873              	.LBB852:
 4874              		.loc 1 45 0
 4875 0064 9946     		mov	r9, r3
 4876              	.LVL410:
 4877 0066 01E0     		b	.L363
 4878              	.LVL411:
 4879              	.L362:
 4880              	.LBE852:
 4881              	.LBE855:
 4882              	.LBE863:
 4883              		.loc 1 340 0 discriminator 2
 4884 0068 082D     		cmp	r5, #8
 4885 006a 58D0     		beq	.L382
 4886              	.LVL412:
 4887              	.L363:
 4888 006c 05EB0904 		add	r4, r5, r9
 4889 0070 6400     		lsls	r4, r4, #1
 4890              	.LBB864:
 4891              		.loc 1 343 0
 4892 0072 019B     		ldr	r3, [sp, #4]
 4893 0074 E4B2     		uxtb	r4, r4
 4894              	.LVL413:
 4895 0076 E718     		adds	r7, r4, r3
 4896 0078 812F     		cmp	r7, #129
 4897 007a 05F10105 		add	r5, r5, #1
 4898              	.LVL414:
 4899 007e 4EDC     		bgt	.L382
 4900              		.loc 1 345 0
 4901 0080 16F0010F 		tst	r6, #1
 4902              		.loc 1 354 0
ARM GAS  /tmp/cc04S6rC.s 			page 87


 4903 0084 4FEA5606 		lsr	r6, r6, #1
 4904              	.LVL415:
 4905              		.loc 1 345 0
 4906 0088 EED0     		beq	.L362
 4907              	.LBB856:
 4908              	.LBB853:
 4909              		.loc 1 45 0
 4910 008a 364B     		ldr	r3, .L384
 4911 008c 0AAA     		add	r2, sp, #40
 4912 008e 4FF40071 		mov	r1, #512	@ movhi
 4913 0092 5983     		strh	r1, [r3, #26]	@ movhi
 4914 0094 0399     		ldr	r1, [sp, #12]
 4915 0096 02F8031D 		strb	r1, [r2, #-3]!
 4916              	.LBB846:
 4917              	.LBB845:
 4918              		.loc 1 40 0
 4919 009a 5846     		mov	r0, fp
 4920 009c 0121     		movs	r1, #1
 4921 009e 5FFA87F8 		uxtb	r8, r7
 4922              	.LVL416:
 4923 00a2 FFF7FEFF 		bl	spiSend
 4924              	.LVL417:
 4925 00a6 0AAA     		add	r2, sp, #40
 4926              	.LBE845:
 4927              	.LBE846:
 4928              		.loc 1 47 0
 4929 00a8 4FEA1811 		lsr	r1, r8, #4
 4930 00ac 41F01001 		orr	r1, r1, #16
 4931 00b0 02F8021D 		strb	r1, [r2, #-2]!
 4932              	.LVL418:
 4933              	.LBB847:
 4934              	.LBB848:
 4935              		.loc 1 40 0
 4936 00b4 5846     		mov	r0, fp
 4937 00b6 0121     		movs	r1, #1
 4938 00b8 FFF7FEFF 		bl	spiSend
 4939              	.LVL419:
 4940 00bc 0AAA     		add	r2, sp, #40
 4941              	.LBE848:
 4942              	.LBE847:
 4943              		.loc 1 48 0
 4944 00be 08F00F08 		and	r8, r8, #15
 4945              	.LVL420:
 4946 00c2 02F8018D 		strb	r8, [r2, #-1]!
 4947              	.LVL421:
 4948              	.LBB849:
 4949              	.LBB850:
 4950              		.loc 1 40 0
 4951 00c6 0121     		movs	r1, #1
 4952 00c8 5846     		mov	r0, fp
 4953 00ca FFF7FEFF 		bl	spiSend
 4954              	.LVL422:
 4955              	.LBE850:
 4956              	.LBE849:
 4957              	.LBE853:
 4958              	.LBE856:
 4959              		.loc 1 348 0
ARM GAS  /tmp/cc04S6rC.s 			page 88


 4960 00ce 254B     		ldr	r3, .L384
 4961              		.loc 1 349 0
 4962 00d0 DAF80820 		ldr	r2, [r10, #8]
 4963              		.loc 1 348 0
 4964 00d4 4FF40071 		mov	r1, #512	@ movhi
 4965 00d8 1983     		strh	r1, [r3, #24]	@ movhi
 4966              		.loc 1 349 0
 4967 00da 9AF80010 		ldrb	r1, [r10]	@ zero_extendqisi2
 4968 00de 029B     		ldr	r3, [sp, #8]
 4969 00e0 03FB0121 		mla	r1, r3, r1, r2
 4970 00e4 0AAA     		add	r2, sp, #40
 4971 00e6 095D     		ldrb	r1, [r1, r4]	@ zero_extendqisi2
 4972 00e8 02F8051D 		strb	r1, [r2, #-5]!
 4973              	.LVL423:
 4974              	.LBB857:
 4975              	.LBB858:
 4976              		.loc 1 40 0
 4977 00ec 5846     		mov	r0, fp
 4978 00ee 0121     		movs	r1, #1
 4979 00f0 FFF7FEFF 		bl	spiSend
 4980              	.LVL424:
 4981              	.LBE858:
 4982              	.LBE857:
 4983              		.loc 1 350 0
 4984 00f4 812F     		cmp	r7, #129
 4985 00f6 0AAA     		add	r2, sp, #40
 4986              	.LBB859:
 4987              	.LBB860:
 4988              		.loc 1 40 0
 4989 00f8 4FF00101 		mov	r1, #1
 4990 00fc 5846     		mov	r0, fp
 4991              	.LBE860:
 4992              	.LBE859:
 4993              		.loc 1 350 0
 4994 00fe 0ED0     		beq	.L382
 4995              		.loc 1 352 0
 4996 0100 DAF80870 		ldr	r7, [r10, #8]
 4997 0104 9AF800C0 		ldrb	ip, [r10]	@ zero_extendqisi2
 4998 0108 029B     		ldr	r3, [sp, #8]
 4999 010a 3C44     		add	r4, r4, r7
 5000              	.LVL425:
 5001 010c 03FB0C44 		mla	r4, r3, ip, r4
 5002 0110 6478     		ldrb	r4, [r4, #1]	@ zero_extendqisi2
 5003 0112 02F8044D 		strb	r4, [r2, #-4]!
 5004              	.LVL426:
 5005              	.LBB862:
 5006              	.LBB861:
 5007              		.loc 1 40 0
 5008 0116 FFF7FEFF 		bl	spiSend
 5009              	.LVL427:
 5010              	.LBE861:
 5011              	.LBE862:
 5012              	.LBE864:
 5013              		.loc 1 340 0
 5014 011a 082D     		cmp	r5, #8
 5015 011c A6D1     		bne	.L363
 5016              	.LVL428:
ARM GAS  /tmp/cc04S6rC.s 			page 89


 5017              	.L382:
 5018 011e DDF81090 		ldr	r9, [sp, #16]
 5019              	.LVL429:
 5020              	.L361:
 5021              	.LBE865:
 5022              	.LBE866:
 5023              		.loc 1 330 0
 5024 0122 9AF80220 		ldrb	r2, [r10, #2]	@ zero_extendqisi2
 5025 0126 09F10109 		add	r9, r9, #1
 5026 012a 5FFA89F9 		uxtb	r9, r9
 5027              	.LVL430:
 5028 012e 4A45     		cmp	r2, r9
 5029 0130 84D8     		bhi	.L364
 5030 0132 9AF80340 		ldrb	r4, [r10, #3]	@ zero_extendqisi2
 5031              	.LVL431:
 5032              	.L359:
 5033 0136 039B     		ldr	r3, [sp, #12]
 5034 0138 0699     		ldr	r1, [sp, #24]
 5035 013a 5918     		adds	r1, r3, r1
 5036 013c C9B2     		uxtb	r1, r1
 5037              	.LVL432:
 5038              	.LBE868:
 5039              		.loc 1 326 0 discriminator 2
 5040 013e A142     		cmp	r1, r4
 5041 0140 0AD2     		bcs	.L355
 5042 0142 1846     		mov	r0, r3
 5043              		.loc 1 328 0
 5044 0144 0291     		str	r1, [sp, #8]
 5045 0146 0B46     		mov	r3, r1
 5046 0148 0799     		ldr	r1, [sp, #28]
 5047              	.LVL433:
 5048 014a 0130     		adds	r0, r0, #1
 5049 014c 5918     		adds	r1, r3, r1
 5050 014e 0729     		cmp	r1, #7
 5051 0150 C3B2     		uxtb	r3, r0
 5052              	.LVL434:
 5053 0152 0393     		str	r3, [sp, #12]
 5054 0154 7FF76EAF 		ble	.L358
 5055              	.LVL435:
 5056              	.L355:
 5057              	.LBE870:
 5058              		.loc 1 358 0
 5059 0158 0BB0     		add	sp, sp, #44
 5060              		.cfi_remember_state
 5061              		.cfi_def_cfa_offset 36
 5062              		@ sp needed
 5063 015a BDE8F08F 		pop	{r4, r5, r6, r7, r8, r9, r10, fp, pc}
 5064              	.LVL436:
 5065              	.L366:
 5066              		.cfi_restore_state
 5067              	.LBB871:
 5068              	.LBB869:
 5069              	.LBB867:
 5070              		.loc 1 337 0
 5071 015e FF26     		movs	r6, #255
 5072              	.LVL437:
 5073 0160 7BE7     		b	.L360
ARM GAS  /tmp/cc04S6rC.s 			page 90


 5074              	.L385:
 5075 0162 00BF     		.align	2
 5076              	.L384:
 5077 0164 00040240 		.word	1073873920
 5078 0168 00000000 		.word	SPID1
 5079              	.LBE867:
 5080              	.LBE869:
 5081              	.LBE871:
 5082              		.cfi_endproc
 5083              	.LFE340:
 5084              		.size	OLED_writeToScreen, .-OLED_writeToScreen
 5085              		.section	.text.OLED_Display_On,"ax",%progbits
 5086              		.align	1
 5087              		.p2align 2,,3
 5088              		.global	OLED_Display_On
 5089              		.syntax unified
 5090              		.thumb
 5091              		.thumb_func
 5092              		.fpu fpv4-sp-d16
 5093              		.type	OLED_Display_On, %function
 5094              	OLED_Display_On:
 5095              	.LFB341:
 5096              		.loc 1 362 0
 5097              		.cfi_startproc
 5098              		@ args = 0, pretend = 0, frame = 8
 5099              		@ frame_needed = 0, uses_anonymous_args = 0
 5100 0000 10B5     		push	{r4, lr}
 5101              		.cfi_def_cfa_offset 8
 5102              		.cfi_offset 4, -8
 5103              		.cfi_offset 14, -4
 5104 0002 82B0     		sub	sp, sp, #8
 5105              		.cfi_def_cfa_offset 16
 5106              	.LBB872:
 5107              	.LBB873:
 5108              		.loc 1 40 0
 5109 0004 0F4C     		ldr	r4, .L388
 5110              	.LBE873:
 5111              	.LBE872:
 5112              		.loc 1 363 0
 5113 0006 1049     		ldr	r1, .L388+4
 5114 0008 02AA     		add	r2, sp, #8
 5115 000a 8D23     		movs	r3, #141
 5116 000c 4FF40070 		mov	r0, #512
 5117 0010 4883     		strh	r0, [r1, #26]	@ movhi
 5118 0012 02F8013D 		strb	r3, [r2, #-1]!
 5119              	.LVL438:
 5120              	.LBB875:
 5121              	.LBB874:
 5122              		.loc 1 40 0
 5123 0016 2046     		mov	r0, r4
 5124 0018 0121     		movs	r1, #1
 5125 001a FFF7FEFF 		bl	spiSend
 5126              	.LVL439:
 5127 001e 02AA     		add	r2, sp, #8
 5128 0020 1423     		movs	r3, #20
 5129 0022 02F8023D 		strb	r3, [r2, #-2]!
 5130              	.LVL440:
ARM GAS  /tmp/cc04S6rC.s 			page 91


 5131              	.LBE874:
 5132              	.LBE875:
 5133              	.LBB876:
 5134              	.LBB877:
 5135 0026 2046     		mov	r0, r4
 5136 0028 0121     		movs	r1, #1
 5137 002a FFF7FEFF 		bl	spiSend
 5138              	.LVL441:
 5139 002e 02AA     		add	r2, sp, #8
 5140 0030 AF23     		movs	r3, #175
 5141 0032 02F8033D 		strb	r3, [r2, #-3]!
 5142              	.LVL442:
 5143              	.LBE877:
 5144              	.LBE876:
 5145              	.LBB878:
 5146              	.LBB879:
 5147 0036 2046     		mov	r0, r4
 5148 0038 0121     		movs	r1, #1
 5149 003a FFF7FEFF 		bl	spiSend
 5150              	.LVL443:
 5151              	.LBE879:
 5152              	.LBE878:
 5153              		.loc 1 367 0
 5154 003e 02B0     		add	sp, sp, #8
 5155              		.cfi_def_cfa_offset 8
 5156              		@ sp needed
 5157 0040 10BD     		pop	{r4, pc}
 5158              	.L389:
 5159 0042 00BF     		.align	2
 5160              	.L388:
 5161 0044 00000000 		.word	SPID1
 5162 0048 00040240 		.word	1073873920
 5163              		.cfi_endproc
 5164              	.LFE341:
 5165              		.size	OLED_Display_On, .-OLED_Display_On
 5166              		.section	.text.OLED_Display_Off,"ax",%progbits
 5167              		.align	1
 5168              		.p2align 2,,3
 5169              		.global	OLED_Display_Off
 5170              		.syntax unified
 5171              		.thumb
 5172              		.thumb_func
 5173              		.fpu fpv4-sp-d16
 5174              		.type	OLED_Display_Off, %function
 5175              	OLED_Display_Off:
 5176              	.LFB342:
 5177              		.loc 1 371 0
 5178              		.cfi_startproc
 5179              		@ args = 0, pretend = 0, frame = 8
 5180              		@ frame_needed = 0, uses_anonymous_args = 0
 5181 0000 10B5     		push	{r4, lr}
 5182              		.cfi_def_cfa_offset 8
 5183              		.cfi_offset 4, -8
 5184              		.cfi_offset 14, -4
 5185 0002 82B0     		sub	sp, sp, #8
 5186              		.cfi_def_cfa_offset 16
 5187              	.LBB880:
ARM GAS  /tmp/cc04S6rC.s 			page 92


 5188              	.LBB881:
 5189              		.loc 1 40 0
 5190 0004 0F4C     		ldr	r4, .L392
 5191              	.LBE881:
 5192              	.LBE880:
 5193              		.loc 1 372 0
 5194 0006 1049     		ldr	r1, .L392+4
 5195 0008 02AA     		add	r2, sp, #8
 5196 000a 8D23     		movs	r3, #141
 5197 000c 4FF40070 		mov	r0, #512
 5198 0010 4883     		strh	r0, [r1, #26]	@ movhi
 5199 0012 02F8013D 		strb	r3, [r2, #-1]!
 5200              	.LVL444:
 5201              	.LBB883:
 5202              	.LBB882:
 5203              		.loc 1 40 0
 5204 0016 2046     		mov	r0, r4
 5205 0018 0121     		movs	r1, #1
 5206 001a FFF7FEFF 		bl	spiSend
 5207              	.LVL445:
 5208 001e 02AA     		add	r2, sp, #8
 5209 0020 1023     		movs	r3, #16
 5210 0022 02F8023D 		strb	r3, [r2, #-2]!
 5211              	.LVL446:
 5212              	.LBE882:
 5213              	.LBE883:
 5214              	.LBB884:
 5215              	.LBB885:
 5216 0026 2046     		mov	r0, r4
 5217 0028 0121     		movs	r1, #1
 5218 002a FFF7FEFF 		bl	spiSend
 5219              	.LVL447:
 5220 002e 02AA     		add	r2, sp, #8
 5221 0030 AE23     		movs	r3, #174
 5222 0032 02F8033D 		strb	r3, [r2, #-3]!
 5223              	.LVL448:
 5224              	.LBE885:
 5225              	.LBE884:
 5226              	.LBB886:
 5227              	.LBB887:
 5228 0036 2046     		mov	r0, r4
 5229 0038 0121     		movs	r1, #1
 5230 003a FFF7FEFF 		bl	spiSend
 5231              	.LVL449:
 5232              	.LBE887:
 5233              	.LBE886:
 5234              		.loc 1 376 0
 5235 003e 02B0     		add	sp, sp, #8
 5236              		.cfi_def_cfa_offset 8
 5237              		@ sp needed
 5238 0040 10BD     		pop	{r4, pc}
 5239              	.L393:
 5240 0042 00BF     		.align	2
 5241              	.L392:
 5242 0044 00000000 		.word	SPID1
 5243 0048 00040240 		.word	1073873920
 5244              		.cfi_endproc
ARM GAS  /tmp/cc04S6rC.s 			page 93


 5245              	.LFE342:
 5246              		.size	OLED_Display_Off, .-OLED_Display_Off
 5247              		.section	.text.OLED_Clear,"ax",%progbits
 5248              		.align	1
 5249              		.p2align 2,,3
 5250              		.global	OLED_Clear
 5251              		.syntax unified
 5252              		.thumb
 5253              		.thumb_func
 5254              		.fpu fpv4-sp-d16
 5255              		.type	OLED_Clear, %function
 5256              	OLED_Clear:
 5257              	.LFB343:
 5258              		.loc 1 380 0
 5259              		.cfi_startproc
 5260              		@ args = 0, pretend = 0, frame = 8
 5261              		@ frame_needed = 0, uses_anonymous_args = 0
 5262              	.LVL450:
 5263 0000 2DE9F043 		push	{r4, r5, r6, r7, r8, r9, lr}
 5264              		.cfi_def_cfa_offset 28
 5265              		.cfi_offset 4, -28
 5266              		.cfi_offset 5, -24
 5267              		.cfi_offset 6, -20
 5268              		.cfi_offset 7, -16
 5269              		.cfi_offset 8, -12
 5270              		.cfi_offset 9, -8
 5271              		.cfi_offset 14, -4
 5272              		.loc 1 384 0
 5273 0004 DFF86C90 		ldr	r9, .L400+4
 5274              	.LBB896:
 5275              	.LBB897:
 5276              		.loc 1 40 0
 5277 0008 194E     		ldr	r6, .L400
 5278              	.LBE897:
 5279              	.LBE896:
 5280              		.loc 1 380 0
 5281 000a 83B0     		sub	sp, sp, #12
 5282              		.cfi_def_cfa_offset 40
 5283              		.loc 1 380 0
 5284 000c B027     		movs	r7, #176
 5285              	.LVL451:
 5286              	.L396:
 5287              		.loc 1 384 0
 5288 000e 4FF40078 		mov	r8, #512
 5289 0012 A9F81A80 		strh	r8, [r9, #26]	@ movhi
 5290              	.LBB899:
 5291              	.LBB898:
 5292              		.loc 1 40 0
 5293 0016 0DF10602 		add	r2, sp, #6
 5294 001a 0121     		movs	r1, #1
 5295 001c 3046     		mov	r0, r6
 5296 001e 8DF80670 		strb	r7, [sp, #6]
 5297              	.LVL452:
 5298 0022 0025     		movs	r5, #0
 5299 0024 FFF7FEFF 		bl	spiSend
 5300              	.LVL453:
 5301              	.LBE898:
ARM GAS  /tmp/cc04S6rC.s 			page 94


 5302              	.LBE899:
 5303              	.LBB900:
 5304              	.LBB901:
 5305 0028 0DF10502 		add	r2, sp, #5
 5306 002c 0121     		movs	r1, #1
 5307 002e 3046     		mov	r0, r6
 5308 0030 8DF80550 		strb	r5, [sp, #5]
 5309              	.LVL454:
 5310 0034 FFF7FEFF 		bl	spiSend
 5311              	.LVL455:
 5312 0038 1023     		movs	r3, #16
 5313              	.LBE901:
 5314              	.LBE900:
 5315              	.LBB902:
 5316              	.LBB903:
 5317 003a 01AA     		add	r2, sp, #4
 5318 003c 0121     		movs	r1, #1
 5319 003e 3046     		mov	r0, r6
 5320 0040 8DF80430 		strb	r3, [sp, #4]
 5321              	.LVL456:
 5322              	.LBE903:
 5323              	.LBE902:
 5324              		.loc 1 388 0
 5325 0044 8024     		movs	r4, #128
 5326              	.LBB905:
 5327              	.LBB904:
 5328              		.loc 1 40 0
 5329 0046 FFF7FEFF 		bl	spiSend
 5330              	.LVL457:
 5331              	.LBE904:
 5332              	.LBE905:
 5333              		.loc 1 388 0
 5334 004a A9F81880 		strh	r8, [r9, #24]	@ movhi
 5335              	.LVL458:
 5336              	.L395:
 5337              	.LBB906:
 5338              	.LBB907:
 5339              		.loc 1 40 0 discriminator 3
 5340 004e 0DF10702 		add	r2, sp, #7
 5341 0052 0121     		movs	r1, #1
 5342 0054 3046     		mov	r0, r6
 5343 0056 8DF80750 		strb	r5, [sp, #7]
 5344              	.LVL459:
 5345 005a FFF7FEFF 		bl	spiSend
 5346              	.LVL460:
 5347              	.LBE907:
 5348              	.LBE906:
 5349              		.loc 1 389 0 discriminator 3
 5350 005e 013C     		subs	r4, r4, #1
 5351 0060 F5D1     		bne	.L395
 5352              	.LVL461:
 5353 0062 0137     		adds	r7, r7, #1
 5354              	.LVL462:
 5355 0064 FFB2     		uxtb	r7, r7
 5356              		.loc 1 382 0 discriminator 2
 5357 0066 B82F     		cmp	r7, #184
 5358 0068 D1D1     		bne	.L396
ARM GAS  /tmp/cc04S6rC.s 			page 95


 5359              		.loc 1 392 0
 5360 006a 03B0     		add	sp, sp, #12
 5361              		.cfi_def_cfa_offset 28
 5362              		@ sp needed
 5363 006c BDE8F083 		pop	{r4, r5, r6, r7, r8, r9, pc}
 5364              	.L401:
 5365              		.align	2
 5366              	.L400:
 5367 0070 00000000 		.word	SPID1
 5368 0074 00040240 		.word	1073873920
 5369              		.cfi_endproc
 5370              	.LFE343:
 5371              		.size	OLED_Clear, .-OLED_Clear
 5372              		.section	.text.OLED_Init,"ax",%progbits
 5373              		.align	1
 5374              		.p2align 2,,3
 5375              		.global	OLED_Init
 5376              		.syntax unified
 5377              		.thumb
 5378              		.thumb_func
 5379              		.fpu fpv4-sp-d16
 5380              		.type	OLED_Init, %function
 5381              	OLED_Init:
 5382              	.LFB344:
 5383              		.loc 1 396 0
 5384              		.cfi_startproc
 5385              		@ args = 0, pretend = 0, frame = 40
 5386              		@ frame_needed = 0, uses_anonymous_args = 0
 5387 0000 2DE9F043 		push	{r4, r5, r6, r7, r8, r9, lr}
 5388              		.cfi_def_cfa_offset 28
 5389              		.cfi_offset 4, -28
 5390              		.cfi_offset 5, -24
 5391              		.cfi_offset 6, -20
 5392              		.cfi_offset 7, -16
 5393              		.cfi_offset 8, -12
 5394              		.cfi_offset 9, -8
 5395              		.cfi_offset 14, -4
 5396              		.loc 1 398 0
 5397 0004 A34C     		ldr	r4, .L408
 5398              	.LBB984:
 5399              	.LBB985:
 5400              	.LBB986:
 5401              	.LBB987:
 5402              		.loc 1 40 0
 5403 0006 A44E     		ldr	r6, .L408+4
 5404              	.LBE987:
 5405              	.LBE986:
 5406              	.LBE985:
 5407              	.LBE984:
 5408              		.loc 1 399 0
 5409 0008 4FF48065 		mov	r5, #1024
 5410              		.loc 1 398 0
 5411 000c 4FF40077 		mov	r7, #512
 5412              		.loc 1 396 0
 5413 0010 8BB0     		sub	sp, sp, #44
 5414              		.cfi_def_cfa_offset 72
 5415              		.loc 1 398 0
ARM GAS  /tmp/cc04S6rC.s 			page 96


 5416 0012 2783     		strh	r7, [r4, #24]	@ movhi
 5417              		.loc 1 400 0
 5418 0014 4FF47A70 		mov	r0, #1000
 5419              		.loc 1 399 0
 5420 0018 2583     		strh	r5, [r4, #24]	@ movhi
 5421              		.loc 1 400 0
 5422 001a FFF7FEFF 		bl	chThdSleep
 5423              	.LVL463:
 5424              		.loc 1 401 0
 5425 001e 6583     		strh	r5, [r4, #26]	@ movhi
 5426              		.loc 1 402 0
 5427 0020 4FF4FA60 		mov	r0, #2000
 5428 0024 FFF7FEFF 		bl	chThdSleep
 5429              	.LVL464:
 5430 0028 0AAA     		add	r2, sp, #40
 5431 002a AE23     		movs	r3, #174
 5432              		.loc 1 403 0
 5433 002c 2583     		strh	r5, [r4, #24]	@ movhi
 5434              	.LBB1000:
 5435              	.LBB1001:
 5436              		.loc 1 40 0
 5437 002e 0121     		movs	r1, #1
 5438              	.LBE1001:
 5439              	.LBE1000:
 5440              		.loc 1 405 0
 5441 0030 6783     		strh	r7, [r4, #26]	@ movhi
 5442              	.LBB1003:
 5443              	.LBB1002:
 5444              		.loc 1 40 0
 5445 0032 3046     		mov	r0, r6
 5446 0034 02F8083D 		strb	r3, [r2, #-8]!
 5447              	.LVL465:
 5448 0038 FFF7FEFF 		bl	spiSend
 5449              	.LVL466:
 5450 003c 0AAA     		add	r2, sp, #40
 5451 003e 4FF00008 		mov	r8, #0
 5452 0042 02F8098D 		strb	r8, [r2, #-9]!
 5453              	.LVL467:
 5454              	.LBE1002:
 5455              	.LBE1003:
 5456              	.LBB1004:
 5457              	.LBB1005:
 5458 0046 0121     		movs	r1, #1
 5459 0048 3046     		mov	r0, r6
 5460 004a FFF7FEFF 		bl	spiSend
 5461              	.LVL468:
 5462 004e 0AAA     		add	r2, sp, #40
 5463 0050 1023     		movs	r3, #16
 5464 0052 02F80A3D 		strb	r3, [r2, #-10]!
 5465              	.LVL469:
 5466              	.LBE1005:
 5467              	.LBE1004:
 5468              	.LBB1006:
 5469              	.LBB1007:
 5470 0056 0121     		movs	r1, #1
 5471 0058 3046     		mov	r0, r6
 5472 005a FFF7FEFF 		bl	spiSend
ARM GAS  /tmp/cc04S6rC.s 			page 97


 5473              	.LVL470:
 5474 005e 0AAA     		add	r2, sp, #40
 5475 0060 4027     		movs	r7, #64
 5476 0062 02F80B7D 		strb	r7, [r2, #-11]!
 5477              	.LVL471:
 5478              	.LBE1007:
 5479              	.LBE1006:
 5480              	.LBB1008:
 5481              	.LBB1009:
 5482 0066 0121     		movs	r1, #1
 5483 0068 3046     		mov	r0, r6
 5484 006a FFF7FEFF 		bl	spiSend
 5485              	.LVL472:
 5486 006e 0AAA     		add	r2, sp, #40
 5487 0070 8123     		movs	r3, #129
 5488 0072 02F80C3D 		strb	r3, [r2, #-12]!
 5489              	.LVL473:
 5490              	.LBE1009:
 5491              	.LBE1008:
 5492              	.LBB1010:
 5493              	.LBB1011:
 5494 0076 0121     		movs	r1, #1
 5495 0078 3046     		mov	r0, r6
 5496 007a FFF7FEFF 		bl	spiSend
 5497              	.LVL474:
 5498 007e 0AAA     		add	r2, sp, #40
 5499 0080 FF23     		movs	r3, #255
 5500 0082 02F80D3D 		strb	r3, [r2, #-13]!
 5501              	.LVL475:
 5502              	.LBE1011:
 5503              	.LBE1010:
 5504              	.LBB1012:
 5505              	.LBB1013:
 5506 0086 0121     		movs	r1, #1
 5507 0088 3046     		mov	r0, r6
 5508 008a FFF7FEFF 		bl	spiSend
 5509              	.LVL476:
 5510 008e 0AAA     		add	r2, sp, #40
 5511 0090 A123     		movs	r3, #161
 5512 0092 02F80E3D 		strb	r3, [r2, #-14]!
 5513              	.LVL477:
 5514              	.LBE1013:
 5515              	.LBE1012:
 5516              	.LBB1014:
 5517              	.LBB1015:
 5518 0096 0121     		movs	r1, #1
 5519 0098 3046     		mov	r0, r6
 5520 009a FFF7FEFF 		bl	spiSend
 5521              	.LVL478:
 5522 009e 0AAA     		add	r2, sp, #40
 5523 00a0 C823     		movs	r3, #200
 5524 00a2 02F80F3D 		strb	r3, [r2, #-15]!
 5525              	.LVL479:
 5526              	.LBE1015:
 5527              	.LBE1014:
 5528              	.LBB1016:
 5529              	.LBB1017:
ARM GAS  /tmp/cc04S6rC.s 			page 98


 5530 00a6 0121     		movs	r1, #1
 5531 00a8 3046     		mov	r0, r6
 5532 00aa FFF7FEFF 		bl	spiSend
 5533              	.LVL480:
 5534 00ae 0AAA     		add	r2, sp, #40
 5535 00b0 A625     		movs	r5, #166
 5536 00b2 02F8105D 		strb	r5, [r2, #-16]!
 5537              	.LVL481:
 5538              	.LBE1017:
 5539              	.LBE1016:
 5540              	.LBB1018:
 5541              	.LBB1019:
 5542 00b6 0121     		movs	r1, #1
 5543 00b8 3046     		mov	r0, r6
 5544 00ba FFF7FEFF 		bl	spiSend
 5545              	.LVL482:
 5546 00be 0AAA     		add	r2, sp, #40
 5547 00c0 A823     		movs	r3, #168
 5548 00c2 02F8113D 		strb	r3, [r2, #-17]!
 5549              	.LVL483:
 5550              	.LBE1019:
 5551              	.LBE1018:
 5552              	.LBB1020:
 5553              	.LBB1021:
 5554 00c6 0121     		movs	r1, #1
 5555 00c8 3046     		mov	r0, r6
 5556 00ca FFF7FEFF 		bl	spiSend
 5557              	.LVL484:
 5558 00ce 0AAA     		add	r2, sp, #40
 5559 00d0 3F23     		movs	r3, #63
 5560 00d2 02F8123D 		strb	r3, [r2, #-18]!
 5561              	.LVL485:
 5562              	.LBE1021:
 5563              	.LBE1020:
 5564              	.LBB1022:
 5565              	.LBB1023:
 5566 00d6 0121     		movs	r1, #1
 5567 00d8 3046     		mov	r0, r6
 5568 00da FFF7FEFF 		bl	spiSend
 5569              	.LVL486:
 5570 00de 0AAA     		add	r2, sp, #40
 5571 00e0 D323     		movs	r3, #211
 5572 00e2 02F8133D 		strb	r3, [r2, #-19]!
 5573              	.LVL487:
 5574              	.LBE1023:
 5575              	.LBE1022:
 5576              	.LBB1024:
 5577              	.LBB1025:
 5578 00e6 0121     		movs	r1, #1
 5579 00e8 3046     		mov	r0, r6
 5580 00ea FFF7FEFF 		bl	spiSend
 5581              	.LVL488:
 5582 00ee 0AAA     		add	r2, sp, #40
 5583              	.LBE1025:
 5584              	.LBE1024:
 5585              	.LBB1026:
 5586              	.LBB1027:
ARM GAS  /tmp/cc04S6rC.s 			page 99


 5587 00f0 0121     		movs	r1, #1
 5588 00f2 02F8148D 		strb	r8, [r2, #-20]!
 5589              	.LVL489:
 5590 00f6 3046     		mov	r0, r6
 5591 00f8 FFF7FEFF 		bl	spiSend
 5592              	.LVL490:
 5593 00fc 0AAA     		add	r2, sp, #40
 5594 00fe D523     		movs	r3, #213
 5595 0100 02F8153D 		strb	r3, [r2, #-21]!
 5596              	.LVL491:
 5597              	.LBE1027:
 5598              	.LBE1026:
 5599              	.LBB1028:
 5600              	.LBB1029:
 5601 0104 0121     		movs	r1, #1
 5602 0106 3046     		mov	r0, r6
 5603 0108 FFF7FEFF 		bl	spiSend
 5604              	.LVL492:
 5605 010c 0AAA     		add	r2, sp, #40
 5606 010e 8023     		movs	r3, #128
 5607 0110 02F8163D 		strb	r3, [r2, #-22]!
 5608              	.LVL493:
 5609              	.LBE1029:
 5610              	.LBE1028:
 5611              	.LBB1030:
 5612              	.LBB1031:
 5613 0114 0121     		movs	r1, #1
 5614 0116 3046     		mov	r0, r6
 5615 0118 FFF7FEFF 		bl	spiSend
 5616              	.LVL494:
 5617 011c 0AAA     		add	r2, sp, #40
 5618 011e D923     		movs	r3, #217
 5619 0120 02F8173D 		strb	r3, [r2, #-23]!
 5620              	.LVL495:
 5621              	.LBE1031:
 5622              	.LBE1030:
 5623              	.LBB1032:
 5624              	.LBB1033:
 5625 0124 0121     		movs	r1, #1
 5626 0126 3046     		mov	r0, r6
 5627 0128 FFF7FEFF 		bl	spiSend
 5628              	.LVL496:
 5629 012c 0AAA     		add	r2, sp, #40
 5630 012e F123     		movs	r3, #241
 5631 0130 02F8183D 		strb	r3, [r2, #-24]!
 5632              	.LVL497:
 5633              	.LBE1033:
 5634              	.LBE1032:
 5635              	.LBB1034:
 5636              	.LBB1035:
 5637 0134 0121     		movs	r1, #1
 5638 0136 3046     		mov	r0, r6
 5639 0138 FFF7FEFF 		bl	spiSend
 5640              	.LVL498:
 5641 013c 0AAA     		add	r2, sp, #40
 5642 013e DA23     		movs	r3, #218
 5643 0140 02F8193D 		strb	r3, [r2, #-25]!
ARM GAS  /tmp/cc04S6rC.s 			page 100


 5644              	.LVL499:
 5645              	.LBE1035:
 5646              	.LBE1034:
 5647              	.LBB1036:
 5648              	.LBB1037:
 5649 0144 0121     		movs	r1, #1
 5650 0146 3046     		mov	r0, r6
 5651 0148 FFF7FEFF 		bl	spiSend
 5652              	.LVL500:
 5653 014c 0AAA     		add	r2, sp, #40
 5654 014e 1223     		movs	r3, #18
 5655 0150 02F81A3D 		strb	r3, [r2, #-26]!
 5656              	.LVL501:
 5657              	.LBE1037:
 5658              	.LBE1036:
 5659              	.LBB1038:
 5660              	.LBB1039:
 5661 0154 0121     		movs	r1, #1
 5662 0156 3046     		mov	r0, r6
 5663 0158 FFF7FEFF 		bl	spiSend
 5664              	.LVL502:
 5665 015c 0AAA     		add	r2, sp, #40
 5666 015e DB23     		movs	r3, #219
 5667 0160 02F81B3D 		strb	r3, [r2, #-27]!
 5668              	.LVL503:
 5669              	.LBE1039:
 5670              	.LBE1038:
 5671              	.LBB1040:
 5672              	.LBB1041:
 5673 0164 0121     		movs	r1, #1
 5674 0166 3046     		mov	r0, r6
 5675 0168 FFF7FEFF 		bl	spiSend
 5676              	.LVL504:
 5677 016c 0AAA     		add	r2, sp, #40
 5678              	.LBE1041:
 5679              	.LBE1040:
 5680              	.LBB1042:
 5681              	.LBB1043:
 5682 016e 0121     		movs	r1, #1
 5683 0170 02F81C7D 		strb	r7, [r2, #-28]!
 5684              	.LVL505:
 5685 0174 3046     		mov	r0, r6
 5686 0176 FFF7FEFF 		bl	spiSend
 5687              	.LVL506:
 5688 017a 0AAA     		add	r2, sp, #40
 5689 017c 2023     		movs	r3, #32
 5690 017e 02F81D3D 		strb	r3, [r2, #-29]!
 5691              	.LVL507:
 5692              	.LBE1043:
 5693              	.LBE1042:
 5694              	.LBB1044:
 5695              	.LBB1045:
 5696 0182 0121     		movs	r1, #1
 5697 0184 3046     		mov	r0, r6
 5698 0186 FFF7FEFF 		bl	spiSend
 5699              	.LVL508:
 5700 018a 0AAA     		add	r2, sp, #40
ARM GAS  /tmp/cc04S6rC.s 			page 101


 5701 018c 0223     		movs	r3, #2
 5702 018e 02F81E3D 		strb	r3, [r2, #-30]!
 5703              	.LVL509:
 5704              	.LBE1045:
 5705              	.LBE1044:
 5706              	.LBB1046:
 5707              	.LBB1047:
 5708 0192 0121     		movs	r1, #1
 5709 0194 3046     		mov	r0, r6
 5710 0196 FFF7FEFF 		bl	spiSend
 5711              	.LVL510:
 5712 019a 0AAA     		add	r2, sp, #40
 5713 019c 8D23     		movs	r3, #141
 5714 019e 02F81F3D 		strb	r3, [r2, #-31]!
 5715              	.LVL511:
 5716              	.LBE1047:
 5717              	.LBE1046:
 5718              	.LBB1048:
 5719              	.LBB1049:
 5720 01a2 0121     		movs	r1, #1
 5721 01a4 3046     		mov	r0, r6
 5722 01a6 FFF7FEFF 		bl	spiSend
 5723              	.LVL512:
 5724 01aa 0AAA     		add	r2, sp, #40
 5725 01ac 1423     		movs	r3, #20
 5726 01ae 02F8203D 		strb	r3, [r2, #-32]!
 5727              	.LVL513:
 5728              	.LBE1049:
 5729              	.LBE1048:
 5730              	.LBB1050:
 5731              	.LBB1051:
 5732 01b2 0121     		movs	r1, #1
 5733 01b4 3046     		mov	r0, r6
 5734 01b6 FFF7FEFF 		bl	spiSend
 5735              	.LVL514:
 5736 01ba 0AAA     		add	r2, sp, #40
 5737 01bc A423     		movs	r3, #164
 5738 01be 02F8213D 		strb	r3, [r2, #-33]!
 5739              	.LVL515:
 5740              	.LBE1051:
 5741              	.LBE1050:
 5742              	.LBB1052:
 5743              	.LBB1053:
 5744 01c2 0121     		movs	r1, #1
 5745 01c4 3046     		mov	r0, r6
 5746 01c6 FFF7FEFF 		bl	spiSend
 5747              	.LVL516:
 5748 01ca 0AAA     		add	r2, sp, #40
 5749              	.LBE1053:
 5750              	.LBE1052:
 5751              	.LBB1054:
 5752              	.LBB1055:
 5753 01cc 0121     		movs	r1, #1
 5754 01ce 02F8225D 		strb	r5, [r2, #-34]!
 5755              	.LVL517:
 5756 01d2 3046     		mov	r0, r6
 5757 01d4 FFF7FEFF 		bl	spiSend
ARM GAS  /tmp/cc04S6rC.s 			page 102


 5758              	.LVL518:
 5759 01d8 0AAA     		add	r2, sp, #40
 5760              	.LBE1055:
 5761              	.LBE1054:
 5762              	.LBB1056:
 5763              	.LBB998:
 5764              		.loc 1 384 0
 5765 01da A146     		mov	r9, r4
 5766 01dc AF24     		movs	r4, #175
 5767 01de 02F8234D 		strb	r4, [r2, #-35]!
 5768              	.LVL519:
 5769              	.LBE998:
 5770              	.LBE1056:
 5771              	.LBB1057:
 5772              	.LBB1058:
 5773              		.loc 1 40 0
 5774 01e2 0121     		movs	r1, #1
 5775 01e4 3046     		mov	r0, r6
 5776 01e6 FFF7FEFF 		bl	spiSend
 5777              	.LVL520:
 5778 01ea 0AAA     		add	r2, sp, #40
 5779              	.LBE1058:
 5780              	.LBE1057:
 5781              	.LBB1059:
 5782              	.LBB1060:
 5783 01ec 0121     		movs	r1, #1
 5784 01ee 02F8244D 		strb	r4, [r2, #-36]!
 5785              	.LVL521:
 5786 01f2 3046     		mov	r0, r6
 5787 01f4 FFF7FEFF 		bl	spiSend
 5788              	.LVL522:
 5789 01f8 B027     		movs	r7, #176
 5790              	.LVL523:
 5791              	.L404:
 5792              	.LBE1060:
 5793              	.LBE1059:
 5794              	.LBB1061:
 5795              	.LBB999:
 5796              		.loc 1 384 0
 5797 01fa 4FF40078 		mov	r8, #512
 5798 01fe A9F81A80 		strh	r8, [r9, #26]	@ movhi
 5799              	.LBB989:
 5800              	.LBB988:
 5801              		.loc 1 40 0
 5802 0202 0DF12502 		add	r2, sp, #37
 5803 0206 0121     		movs	r1, #1
 5804 0208 3046     		mov	r0, r6
 5805 020a 8DF82570 		strb	r7, [sp, #37]
 5806              	.LVL524:
 5807 020e 0025     		movs	r5, #0
 5808 0210 FFF7FEFF 		bl	spiSend
 5809              	.LVL525:
 5810              	.LBE988:
 5811              	.LBE989:
 5812              	.LBB990:
 5813              	.LBB991:
 5814 0214 0DF12602 		add	r2, sp, #38
ARM GAS  /tmp/cc04S6rC.s 			page 103


 5815 0218 0121     		movs	r1, #1
 5816 021a 3046     		mov	r0, r6
 5817 021c 8DF82650 		strb	r5, [sp, #38]
 5818              	.LVL526:
 5819 0220 FFF7FEFF 		bl	spiSend
 5820              	.LVL527:
 5821 0224 1023     		movs	r3, #16
 5822              	.LBE991:
 5823              	.LBE990:
 5824              	.LBB992:
 5825              	.LBB993:
 5826 0226 0DF12702 		add	r2, sp, #39
 5827 022a 0121     		movs	r1, #1
 5828 022c 3046     		mov	r0, r6
 5829 022e 8DF82730 		strb	r3, [sp, #39]
 5830              	.LVL528:
 5831              	.LBE993:
 5832              	.LBE992:
 5833              		.loc 1 388 0
 5834 0232 8024     		movs	r4, #128
 5835              	.LBB995:
 5836              	.LBB994:
 5837              		.loc 1 40 0
 5838 0234 FFF7FEFF 		bl	spiSend
 5839              	.LVL529:
 5840              	.LBE994:
 5841              	.LBE995:
 5842              		.loc 1 388 0
 5843 0238 A9F81880 		strh	r8, [r9, #24]	@ movhi
 5844              	.LVL530:
 5845              	.L403:
 5846              	.LBB996:
 5847              	.LBB997:
 5848              		.loc 1 40 0
 5849 023c 09AA     		add	r2, sp, #36
 5850 023e 0121     		movs	r1, #1
 5851 0240 3046     		mov	r0, r6
 5852 0242 8DF82450 		strb	r5, [sp, #36]
 5853              	.LVL531:
 5854 0246 FFF7FEFF 		bl	spiSend
 5855              	.LVL532:
 5856              	.LBE997:
 5857              	.LBE996:
 5858              		.loc 1 389 0
 5859 024a 013C     		subs	r4, r4, #1
 5860 024c F6D1     		bne	.L403
 5861              	.LVL533:
 5862 024e 0137     		adds	r7, r7, #1
 5863              	.LVL534:
 5864 0250 FFB2     		uxtb	r7, r7
 5865              		.loc 1 382 0
 5866 0252 B82F     		cmp	r7, #184
 5867 0254 D1D1     		bne	.L404
 5868              	.LVL535:
 5869 0256 0AAA     		add	r2, sp, #40
 5870              	.LBE999:
 5871              	.LBE1061:
ARM GAS  /tmp/cc04S6rC.s 			page 104


 5872              	.LBB1062:
 5873              	.LBB1063:
 5874              		.loc 1 45 0
 5875 0258 0E49     		ldr	r1, .L408
 5876              	.LBB1064:
 5877              	.LBB1065:
 5878              		.loc 1 40 0
 5879 025a 0F48     		ldr	r0, .L408+4
 5880 025c B023     		movs	r3, #176
 5881              	.LBE1065:
 5882              	.LBE1064:
 5883              		.loc 1 45 0
 5884 025e 4FF40075 		mov	r5, #512
 5885 0262 4D83     		strh	r5, [r1, #26]	@ movhi
 5886 0264 02F8073D 		strb	r3, [r2, #-7]!
 5887              	.LVL536:
 5888              	.LBB1067:
 5889              	.LBB1066:
 5890              		.loc 1 40 0
 5891 0268 0121     		movs	r1, #1
 5892 026a FFF7FEFF 		bl	spiSend
 5893              	.LVL537:
 5894 026e 0AAA     		add	r2, sp, #40
 5895 0270 1023     		movs	r3, #16
 5896 0272 02F8063D 		strb	r3, [r2, #-6]!
 5897              	.LVL538:
 5898              	.LBE1066:
 5899              	.LBE1067:
 5900              	.LBB1068:
 5901              	.LBB1069:
 5902 0276 0121     		movs	r1, #1
 5903 0278 0748     		ldr	r0, .L408+4
 5904 027a FFF7FEFF 		bl	spiSend
 5905              	.LVL539:
 5906 027e 0AAA     		add	r2, sp, #40
 5907              	.LBE1069:
 5908              	.LBE1068:
 5909              	.LBB1070:
 5910              	.LBB1071:
 5911 0280 0121     		movs	r1, #1
 5912 0282 02F8054D 		strb	r4, [r2, #-5]!
 5913              	.LVL540:
 5914 0286 0448     		ldr	r0, .L408+4
 5915 0288 FFF7FEFF 		bl	spiSend
 5916              	.LVL541:
 5917              	.LBE1071:
 5918              	.LBE1070:
 5919              	.LBE1063:
 5920              	.LBE1062:
 5921              		.loc 1 438 0
 5922 028c 0BB0     		add	sp, sp, #44
 5923              		.cfi_def_cfa_offset 28
 5924              		@ sp needed
 5925 028e BDE8F083 		pop	{r4, r5, r6, r7, r8, r9, pc}
 5926              	.L409:
 5927 0292 00BF     		.align	2
 5928              	.L408:
ARM GAS  /tmp/cc04S6rC.s 			page 105


 5929 0294 00040240 		.word	1073873920
 5930 0298 00000000 		.word	SPID1
 5931              		.cfi_endproc
 5932              	.LFE344:
 5933              		.size	OLED_Init, .-OLED_Init
 5934              		.global	OLED_COLUMN_COUNT
 5935              		.global	OLED_PAGE_COUNT
 5936              		.global	Hzk
 5937              		.global	F8X16
 5938              		.global	F6x8
 5939              		.section	.data.Hzk,"aw",%progbits
 5940              		.align	2
 5941              		.type	Hzk, %object
 5942              		.size	Hzk, 448
 5943              	Hzk:
 5944 0000 00       		.byte	0
 5945 0001 00       		.byte	0
 5946 0002 F0       		.byte	-16
 5947 0003 10       		.byte	16
 5948 0004 10       		.byte	16
 5949 0005 10       		.byte	16
 5950 0006 10       		.byte	16
 5951 0007 FF       		.byte	-1
 5952 0008 10       		.byte	16
 5953 0009 10       		.byte	16
 5954 000a 10       		.byte	16
 5955 000b 10       		.byte	16
 5956 000c F0       		.byte	-16
 5957 000d 00       		.byte	0
 5958 000e 00       		.byte	0
 5959 000f 00       		.byte	0
 5960 0010 00000000 		.space	16
 5960      00000000 
 5960      00000000 
 5960      00000000 
 5961 0020 00       		.byte	0
 5962 0021 00       		.byte	0
 5963 0022 0F       		.byte	15
 5964 0023 04       		.byte	4
 5965 0024 04       		.byte	4
 5966 0025 04       		.byte	4
 5967 0026 04       		.byte	4
 5968 0027 FF       		.byte	-1
 5969 0028 04       		.byte	4
 5970 0029 04       		.byte	4
 5971 002a 04       		.byte	4
 5972 002b 04       		.byte	4
 5973 002c 0F       		.byte	15
 5974 002d 00       		.byte	0
 5975 002e 00       		.byte	0
 5976 002f 00       		.byte	0
 5977 0030 00000000 		.space	16
 5977      00000000 
 5977      00000000 
 5977      00000000 
 5978 0040 40       		.byte	64
 5979 0041 40       		.byte	64
ARM GAS  /tmp/cc04S6rC.s 			page 106


 5980 0042 40       		.byte	64
 5981 0043 5F       		.byte	95
 5982 0044 55       		.byte	85
 5983 0045 55       		.byte	85
 5984 0046 55       		.byte	85
 5985 0047 75       		.byte	117
 5986 0048 55       		.byte	85
 5987 0049 55       		.byte	85
 5988 004a 55       		.byte	85
 5989 004b 5F       		.byte	95
 5990 004c 40       		.byte	64
 5991 004d 40       		.byte	64
 5992 004e 40       		.byte	64
 5993 004f 00       		.byte	0
 5994 0050 00000000 		.space	16
 5994      00000000 
 5994      00000000 
 5994      00000000 
 5995 0060 00       		.byte	0
 5996 0061 40       		.byte	64
 5997 0062 20       		.byte	32
 5998 0063 0F       		.byte	15
 5999 0064 09       		.byte	9
 6000 0065 49       		.byte	73
 6001 0066 89       		.byte	-119
 6002 0067 79       		.byte	121
 6003 0068 09       		.byte	9
 6004 0069 09       		.byte	9
 6005 006a 09       		.byte	9
 6006 006b 0F       		.byte	15
 6007 006c 20       		.byte	32
 6008 006d 40       		.byte	64
 6009 006e 00       		.byte	0
 6010 006f 00       		.byte	0
 6011 0070 00000000 		.space	16
 6011      00000000 
 6011      00000000 
 6011      00000000 
 6012 0080 00       		.byte	0
 6013 0081 FE       		.byte	-2
 6014 0082 02       		.byte	2
 6015 0083 42       		.byte	66
 6016 0084 4A       		.byte	74
 6017 0085 CA       		.byte	-54
 6018 0086 4A       		.byte	74
 6019 0087 4A       		.byte	74
 6020 0088 CA       		.byte	-54
 6021 0089 4A       		.byte	74
 6022 008a 4A       		.byte	74
 6023 008b 42       		.byte	66
 6024 008c 02       		.byte	2
 6025 008d FE       		.byte	-2
 6026 008e 00       		.byte	0
 6027 008f 00       		.byte	0
 6028 0090 00000000 		.space	16
 6028      00000000 
 6028      00000000 
ARM GAS  /tmp/cc04S6rC.s 			page 107


 6028      00000000 
 6029 00a0 00       		.byte	0
 6030 00a1 FF       		.byte	-1
 6031 00a2 40       		.byte	64
 6032 00a3 50       		.byte	80
 6033 00a4 4C       		.byte	76
 6034 00a5 43       		.byte	67
 6035 00a6 40       		.byte	64
 6036 00a7 40       		.byte	64
 6037 00a8 4F       		.byte	79
 6038 00a9 50       		.byte	80
 6039 00aa 50       		.byte	80
 6040 00ab 5C       		.byte	92
 6041 00ac 40       		.byte	64
 6042 00ad FF       		.byte	-1
 6043 00ae 00       		.byte	0
 6044 00af 00       		.byte	0
 6045 00b0 00000000 		.space	16
 6045      00000000 
 6045      00000000 
 6045      00000000 
 6046 00c0 00       		.byte	0
 6047 00c1 00       		.byte	0
 6048 00c2 F8       		.byte	-8
 6049 00c3 88       		.byte	-120
 6050 00c4 88       		.byte	-120
 6051 00c5 88       		.byte	-120
 6052 00c6 88       		.byte	-120
 6053 00c7 FF       		.byte	-1
 6054 00c8 88       		.byte	-120
 6055 00c9 88       		.byte	-120
 6056 00ca 88       		.byte	-120
 6057 00cb 88       		.byte	-120
 6058 00cc F8       		.byte	-8
 6059 00cd 00       		.byte	0
 6060 00ce 00       		.byte	0
 6061 00cf 00       		.byte	0
 6062 00d0 00000000 		.space	16
 6062      00000000 
 6062      00000000 
 6062      00000000 
 6063 00e0 00       		.byte	0
 6064 00e1 00       		.byte	0
 6065 00e2 1F       		.byte	31
 6066 00e3 08       		.byte	8
 6067 00e4 08       		.byte	8
 6068 00e5 08       		.byte	8
 6069 00e6 08       		.byte	8
 6070 00e7 7F       		.byte	127
 6071 00e8 88       		.byte	-120
 6072 00e9 88       		.byte	-120
 6073 00ea 88       		.byte	-120
 6074 00eb 88       		.byte	-120
 6075 00ec 9F       		.byte	-97
 6076 00ed 80       		.byte	-128
 6077 00ee F0       		.byte	-16
 6078 00ef 00       		.byte	0
ARM GAS  /tmp/cc04S6rC.s 			page 108


 6079 00f0 00000000 		.space	16
 6079      00000000 
 6079      00000000 
 6079      00000000 
 6080 0100 80       		.byte	-128
 6081 0101 82       		.byte	-126
 6082 0102 82       		.byte	-126
 6083 0103 82       		.byte	-126
 6084 0104 82       		.byte	-126
 6085 0105 82       		.byte	-126
 6086 0106 82       		.byte	-126
 6087 0107 E2       		.byte	-30
 6088 0108 A2       		.byte	-94
 6089 0109 92       		.byte	-110
 6090 010a 8A       		.byte	-118
 6091 010b 86       		.byte	-122
 6092 010c 82       		.byte	-126
 6093 010d 80       		.byte	-128
 6094 010e 80       		.byte	-128
 6095 010f 00       		.byte	0
 6096 0110 00000000 		.space	16
 6096      00000000 
 6096      00000000 
 6096      00000000 
 6097 0120 00       		.byte	0
 6098 0121 00       		.byte	0
 6099 0122 00       		.byte	0
 6100 0123 00       		.byte	0
 6101 0124 00       		.byte	0
 6102 0125 40       		.byte	64
 6103 0126 80       		.byte	-128
 6104 0127 7F       		.byte	127
 6105 0128 00       		.byte	0
 6106 0129 00       		.byte	0
 6107 012a 00       		.byte	0
 6108 012b 00       		.byte	0
 6109 012c 00       		.byte	0
 6110 012d 00       		.byte	0
 6111 012e 00       		.byte	0
 6112 012f 00       		.byte	0
 6113 0130 00000000 		.space	16
 6113      00000000 
 6113      00000000 
 6113      00000000 
 6114 0140 24       		.byte	36
 6115 0141 24       		.byte	36
 6116 0142 A4       		.byte	-92
 6117 0143 FE       		.byte	-2
 6118 0144 A3       		.byte	-93
 6119 0145 22       		.byte	34
 6120 0146 00       		.byte	0
 6121 0147 22       		.byte	34
 6122 0148 CC       		.byte	-52
 6123 0149 00       		.byte	0
 6124 014a 00       		.byte	0
 6125 014b FF       		.byte	-1
 6126 014c 00       		.byte	0
ARM GAS  /tmp/cc04S6rC.s 			page 109


 6127 014d 00       		.byte	0
 6128 014e 00       		.byte	0
 6129 014f 00       		.byte	0
 6130 0150 00000000 		.space	16
 6130      00000000 
 6130      00000000 
 6130      00000000 
 6131 0160 08       		.byte	8
 6132 0161 06       		.byte	6
 6133 0162 01       		.byte	1
 6134 0163 FF       		.byte	-1
 6135 0164 00       		.byte	0
 6136 0165 01       		.byte	1
 6137 0166 04       		.byte	4
 6138 0167 04       		.byte	4
 6139 0168 04       		.byte	4
 6140 0169 04       		.byte	4
 6141 016a 04       		.byte	4
 6142 016b FF       		.byte	-1
 6143 016c 02       		.byte	2
 6144 016d 02       		.byte	2
 6145 016e 02       		.byte	2
 6146 016f 00       		.byte	0
 6147 0170 00000000 		.space	16
 6147      00000000 
 6147      00000000 
 6147      00000000 
 6148 0180 10       		.byte	16
 6149 0181 10       		.byte	16
 6150 0182 10       		.byte	16
 6151 0183 FF       		.byte	-1
 6152 0184 10       		.byte	16
 6153 0185 90       		.byte	-112
 6154 0186 08       		.byte	8
 6155 0187 88       		.byte	-120
 6156 0188 88       		.byte	-120
 6157 0189 88       		.byte	-120
 6158 018a FF       		.byte	-1
 6159 018b 88       		.byte	-120
 6160 018c 88       		.byte	-120
 6161 018d 88       		.byte	-120
 6162 018e 08       		.byte	8
 6163 018f 00       		.byte	0
 6164 0190 00000000 		.space	16
 6164      00000000 
 6164      00000000 
 6164      00000000 
 6165 01a0 04       		.byte	4
 6166 01a1 44       		.byte	68
 6167 01a2 82       		.byte	-126
 6168 01a3 7F       		.byte	127
 6169 01a4 01       		.byte	1
 6170 01a5 80       		.byte	-128
 6171 01a6 80       		.byte	-128
 6172 01a7 40       		.byte	64
 6173 01a8 43       		.byte	67
 6174 01a9 2C       		.byte	44
ARM GAS  /tmp/cc04S6rC.s 			page 110


 6175 01aa 10       		.byte	16
 6176 01ab 28       		.byte	40
 6177 01ac 46       		.byte	70
 6178 01ad 81       		.byte	-127
 6179 01ae 80       		.byte	-128
 6180 01af 00       		.byte	0
 6181 01b0 00000000 		.space	16
 6181      00000000 
 6181      00000000 
 6181      00000000 
 6182              		.section	.rodata.F6x8,"a",%progbits
 6183              		.align	2
 6184              		.set	.LANCHOR1,. + 0
 6185              		.type	F6x8, %object
 6186              		.size	F6x8, 552
 6187              	F6x8:
 6188 0000 00       		.byte	0
 6189 0001 00       		.byte	0
 6190 0002 00       		.byte	0
 6191 0003 00       		.byte	0
 6192 0004 00       		.byte	0
 6193 0005 00       		.byte	0
 6194 0006 00       		.byte	0
 6195 0007 00       		.byte	0
 6196 0008 00       		.byte	0
 6197 0009 2F       		.byte	47
 6198 000a 00       		.byte	0
 6199 000b 00       		.byte	0
 6200 000c 00       		.byte	0
 6201 000d 00       		.byte	0
 6202 000e 07       		.byte	7
 6203 000f 00       		.byte	0
 6204 0010 07       		.byte	7
 6205 0011 00       		.byte	0
 6206 0012 00       		.byte	0
 6207 0013 14       		.byte	20
 6208 0014 7F       		.byte	127
 6209 0015 14       		.byte	20
 6210 0016 7F       		.byte	127
 6211 0017 14       		.byte	20
 6212 0018 00       		.byte	0
 6213 0019 24       		.byte	36
 6214 001a 2A       		.byte	42
 6215 001b 7F       		.byte	127
 6216 001c 2A       		.byte	42
 6217 001d 12       		.byte	18
 6218 001e 00       		.byte	0
 6219 001f 62       		.byte	98
 6220 0020 64       		.byte	100
 6221 0021 08       		.byte	8
 6222 0022 13       		.byte	19
 6223 0023 23       		.byte	35
 6224 0024 00       		.byte	0
 6225 0025 36       		.byte	54
 6226 0026 49       		.byte	73
 6227 0027 55       		.byte	85
 6228 0028 22       		.byte	34
ARM GAS  /tmp/cc04S6rC.s 			page 111


 6229 0029 50       		.byte	80
 6230 002a 00       		.byte	0
 6231 002b 00       		.byte	0
 6232 002c 05       		.byte	5
 6233 002d 03       		.byte	3
 6234 002e 00       		.byte	0
 6235 002f 00       		.byte	0
 6236 0030 00       		.byte	0
 6237 0031 00       		.byte	0
 6238 0032 1C       		.byte	28
 6239 0033 22       		.byte	34
 6240 0034 41       		.byte	65
 6241 0035 00       		.byte	0
 6242 0036 00       		.byte	0
 6243 0037 00       		.byte	0
 6244 0038 41       		.byte	65
 6245 0039 22       		.byte	34
 6246 003a 1C       		.byte	28
 6247 003b 00       		.byte	0
 6248 003c 00       		.byte	0
 6249 003d 14       		.byte	20
 6250 003e 08       		.byte	8
 6251 003f 3E       		.byte	62
 6252 0040 08       		.byte	8
 6253 0041 14       		.byte	20
 6254 0042 00       		.byte	0
 6255 0043 08       		.byte	8
 6256 0044 08       		.byte	8
 6257 0045 3E       		.byte	62
 6258 0046 08       		.byte	8
 6259 0047 08       		.byte	8
 6260 0048 00       		.byte	0
 6261 0049 00       		.byte	0
 6262 004a 00       		.byte	0
 6263 004b A0       		.byte	-96
 6264 004c 60       		.byte	96
 6265 004d 00       		.byte	0
 6266 004e 00       		.byte	0
 6267 004f 08       		.byte	8
 6268 0050 08       		.byte	8
 6269 0051 08       		.byte	8
 6270 0052 08       		.byte	8
 6271 0053 08       		.byte	8
 6272 0054 00       		.byte	0
 6273 0055 00       		.byte	0
 6274 0056 60       		.byte	96
 6275 0057 60       		.byte	96
 6276 0058 00       		.byte	0
 6277 0059 00       		.byte	0
 6278 005a 00       		.byte	0
 6279 005b 20       		.byte	32
 6280 005c 10       		.byte	16
 6281 005d 08       		.byte	8
 6282 005e 04       		.byte	4
 6283 005f 02       		.byte	2
 6284 0060 00       		.byte	0
 6285 0061 3E       		.byte	62
ARM GAS  /tmp/cc04S6rC.s 			page 112


 6286 0062 51       		.byte	81
 6287 0063 49       		.byte	73
 6288 0064 45       		.byte	69
 6289 0065 3E       		.byte	62
 6290 0066 00       		.byte	0
 6291 0067 00       		.byte	0
 6292 0068 42       		.byte	66
 6293 0069 7F       		.byte	127
 6294 006a 40       		.byte	64
 6295 006b 00       		.byte	0
 6296 006c 00       		.byte	0
 6297 006d 42       		.byte	66
 6298 006e 61       		.byte	97
 6299 006f 51       		.byte	81
 6300 0070 49       		.byte	73
 6301 0071 46       		.byte	70
 6302 0072 00       		.byte	0
 6303 0073 21       		.byte	33
 6304 0074 41       		.byte	65
 6305 0075 45       		.byte	69
 6306 0076 4B       		.byte	75
 6307 0077 31       		.byte	49
 6308 0078 00       		.byte	0
 6309 0079 18       		.byte	24
 6310 007a 14       		.byte	20
 6311 007b 12       		.byte	18
 6312 007c 7F       		.byte	127
 6313 007d 10       		.byte	16
 6314 007e 00       		.byte	0
 6315 007f 27       		.byte	39
 6316 0080 45       		.byte	69
 6317 0081 45       		.byte	69
 6318 0082 45       		.byte	69
 6319 0083 39       		.byte	57
 6320 0084 00       		.byte	0
 6321 0085 3C       		.byte	60
 6322 0086 4A       		.byte	74
 6323 0087 49       		.byte	73
 6324 0088 49       		.byte	73
 6325 0089 30       		.byte	48
 6326 008a 00       		.byte	0
 6327 008b 01       		.byte	1
 6328 008c 71       		.byte	113
 6329 008d 09       		.byte	9
 6330 008e 05       		.byte	5
 6331 008f 03       		.byte	3
 6332 0090 00       		.byte	0
 6333 0091 36       		.byte	54
 6334 0092 49       		.byte	73
 6335 0093 49       		.byte	73
 6336 0094 49       		.byte	73
 6337 0095 36       		.byte	54
 6338 0096 00       		.byte	0
 6339 0097 06       		.byte	6
 6340 0098 49       		.byte	73
 6341 0099 49       		.byte	73
 6342 009a 29       		.byte	41
ARM GAS  /tmp/cc04S6rC.s 			page 113


 6343 009b 1E       		.byte	30
 6344 009c 00       		.byte	0
 6345 009d 00       		.byte	0
 6346 009e 36       		.byte	54
 6347 009f 36       		.byte	54
 6348 00a0 00       		.byte	0
 6349 00a1 00       		.byte	0
 6350 00a2 00       		.byte	0
 6351 00a3 00       		.byte	0
 6352 00a4 56       		.byte	86
 6353 00a5 36       		.byte	54
 6354 00a6 00       		.byte	0
 6355 00a7 00       		.byte	0
 6356 00a8 00       		.byte	0
 6357 00a9 08       		.byte	8
 6358 00aa 14       		.byte	20
 6359 00ab 22       		.byte	34
 6360 00ac 41       		.byte	65
 6361 00ad 00       		.byte	0
 6362 00ae 00       		.byte	0
 6363 00af 14       		.byte	20
 6364 00b0 14       		.byte	20
 6365 00b1 14       		.byte	20
 6366 00b2 14       		.byte	20
 6367 00b3 14       		.byte	20
 6368 00b4 00       		.byte	0
 6369 00b5 00       		.byte	0
 6370 00b6 41       		.byte	65
 6371 00b7 22       		.byte	34
 6372 00b8 14       		.byte	20
 6373 00b9 08       		.byte	8
 6374 00ba 00       		.byte	0
 6375 00bb 02       		.byte	2
 6376 00bc 01       		.byte	1
 6377 00bd 51       		.byte	81
 6378 00be 09       		.byte	9
 6379 00bf 06       		.byte	6
 6380 00c0 00       		.byte	0
 6381 00c1 32       		.byte	50
 6382 00c2 49       		.byte	73
 6383 00c3 59       		.byte	89
 6384 00c4 51       		.byte	81
 6385 00c5 3E       		.byte	62
 6386 00c6 00       		.byte	0
 6387 00c7 7C       		.byte	124
 6388 00c8 12       		.byte	18
 6389 00c9 11       		.byte	17
 6390 00ca 12       		.byte	18
 6391 00cb 7C       		.byte	124
 6392 00cc 00       		.byte	0
 6393 00cd 7F       		.byte	127
 6394 00ce 49       		.byte	73
 6395 00cf 49       		.byte	73
 6396 00d0 49       		.byte	73
 6397 00d1 36       		.byte	54
 6398 00d2 00       		.byte	0
 6399 00d3 3E       		.byte	62
ARM GAS  /tmp/cc04S6rC.s 			page 114


 6400 00d4 41       		.byte	65
 6401 00d5 41       		.byte	65
 6402 00d6 41       		.byte	65
 6403 00d7 22       		.byte	34
 6404 00d8 00       		.byte	0
 6405 00d9 7F       		.byte	127
 6406 00da 41       		.byte	65
 6407 00db 41       		.byte	65
 6408 00dc 22       		.byte	34
 6409 00dd 1C       		.byte	28
 6410 00de 00       		.byte	0
 6411 00df 7F       		.byte	127
 6412 00e0 49       		.byte	73
 6413 00e1 49       		.byte	73
 6414 00e2 49       		.byte	73
 6415 00e3 41       		.byte	65
 6416 00e4 00       		.byte	0
 6417 00e5 7F       		.byte	127
 6418 00e6 09       		.byte	9
 6419 00e7 09       		.byte	9
 6420 00e8 09       		.byte	9
 6421 00e9 01       		.byte	1
 6422 00ea 00       		.byte	0
 6423 00eb 3E       		.byte	62
 6424 00ec 41       		.byte	65
 6425 00ed 49       		.byte	73
 6426 00ee 49       		.byte	73
 6427 00ef 7A       		.byte	122
 6428 00f0 00       		.byte	0
 6429 00f1 7F       		.byte	127
 6430 00f2 08       		.byte	8
 6431 00f3 08       		.byte	8
 6432 00f4 08       		.byte	8
 6433 00f5 7F       		.byte	127
 6434 00f6 00       		.byte	0
 6435 00f7 00       		.byte	0
 6436 00f8 41       		.byte	65
 6437 00f9 7F       		.byte	127
 6438 00fa 41       		.byte	65
 6439 00fb 00       		.byte	0
 6440 00fc 00       		.byte	0
 6441 00fd 20       		.byte	32
 6442 00fe 40       		.byte	64
 6443 00ff 41       		.byte	65
 6444 0100 3F       		.byte	63
 6445 0101 01       		.byte	1
 6446 0102 00       		.byte	0
 6447 0103 7F       		.byte	127
 6448 0104 08       		.byte	8
 6449 0105 14       		.byte	20
 6450 0106 22       		.byte	34
 6451 0107 41       		.byte	65
 6452 0108 00       		.byte	0
 6453 0109 7F       		.byte	127
 6454 010a 40       		.byte	64
 6455 010b 40       		.byte	64
 6456 010c 40       		.byte	64
ARM GAS  /tmp/cc04S6rC.s 			page 115


 6457 010d 40       		.byte	64
 6458 010e 00       		.byte	0
 6459 010f 7F       		.byte	127
 6460 0110 02       		.byte	2
 6461 0111 0C       		.byte	12
 6462 0112 02       		.byte	2
 6463 0113 7F       		.byte	127
 6464 0114 00       		.byte	0
 6465 0115 7F       		.byte	127
 6466 0116 04       		.byte	4
 6467 0117 08       		.byte	8
 6468 0118 10       		.byte	16
 6469 0119 7F       		.byte	127
 6470 011a 00       		.byte	0
 6471 011b 3E       		.byte	62
 6472 011c 41       		.byte	65
 6473 011d 41       		.byte	65
 6474 011e 41       		.byte	65
 6475 011f 3E       		.byte	62
 6476 0120 00       		.byte	0
 6477 0121 7F       		.byte	127
 6478 0122 09       		.byte	9
 6479 0123 09       		.byte	9
 6480 0124 09       		.byte	9
 6481 0125 06       		.byte	6
 6482 0126 00       		.byte	0
 6483 0127 3E       		.byte	62
 6484 0128 41       		.byte	65
 6485 0129 51       		.byte	81
 6486 012a 21       		.byte	33
 6487 012b 5E       		.byte	94
 6488 012c 00       		.byte	0
 6489 012d 7F       		.byte	127
 6490 012e 09       		.byte	9
 6491 012f 19       		.byte	25
 6492 0130 29       		.byte	41
 6493 0131 46       		.byte	70
 6494 0132 00       		.byte	0
 6495 0133 46       		.byte	70
 6496 0134 49       		.byte	73
 6497 0135 49       		.byte	73
 6498 0136 49       		.byte	73
 6499 0137 31       		.byte	49
 6500 0138 00       		.byte	0
 6501 0139 01       		.byte	1
 6502 013a 01       		.byte	1
 6503 013b 7F       		.byte	127
 6504 013c 01       		.byte	1
 6505 013d 01       		.byte	1
 6506 013e 00       		.byte	0
 6507 013f 3F       		.byte	63
 6508 0140 40       		.byte	64
 6509 0141 40       		.byte	64
 6510 0142 40       		.byte	64
 6511 0143 3F       		.byte	63
 6512 0144 00       		.byte	0
 6513 0145 1F       		.byte	31
ARM GAS  /tmp/cc04S6rC.s 			page 116


 6514 0146 20       		.byte	32
 6515 0147 40       		.byte	64
 6516 0148 20       		.byte	32
 6517 0149 1F       		.byte	31
 6518 014a 00       		.byte	0
 6519 014b 3F       		.byte	63
 6520 014c 40       		.byte	64
 6521 014d 38       		.byte	56
 6522 014e 40       		.byte	64
 6523 014f 3F       		.byte	63
 6524 0150 00       		.byte	0
 6525 0151 63       		.byte	99
 6526 0152 14       		.byte	20
 6527 0153 08       		.byte	8
 6528 0154 14       		.byte	20
 6529 0155 63       		.byte	99
 6530 0156 00       		.byte	0
 6531 0157 07       		.byte	7
 6532 0158 08       		.byte	8
 6533 0159 70       		.byte	112
 6534 015a 08       		.byte	8
 6535 015b 07       		.byte	7
 6536 015c 00       		.byte	0
 6537 015d 61       		.byte	97
 6538 015e 51       		.byte	81
 6539 015f 49       		.byte	73
 6540 0160 45       		.byte	69
 6541 0161 43       		.byte	67
 6542 0162 00       		.byte	0
 6543 0163 00       		.byte	0
 6544 0164 7F       		.byte	127
 6545 0165 41       		.byte	65
 6546 0166 41       		.byte	65
 6547 0167 00       		.byte	0
 6548 0168 00       		.byte	0
 6549 0169 55       		.byte	85
 6550 016a 2A       		.byte	42
 6551 016b 55       		.byte	85
 6552 016c 2A       		.byte	42
 6553 016d 55       		.byte	85
 6554 016e 00       		.byte	0
 6555 016f 00       		.byte	0
 6556 0170 41       		.byte	65
 6557 0171 41       		.byte	65
 6558 0172 7F       		.byte	127
 6559 0173 00       		.byte	0
 6560 0174 00       		.byte	0
 6561 0175 04       		.byte	4
 6562 0176 02       		.byte	2
 6563 0177 01       		.byte	1
 6564 0178 02       		.byte	2
 6565 0179 04       		.byte	4
 6566 017a 00       		.byte	0
 6567 017b 40       		.byte	64
 6568 017c 40       		.byte	64
 6569 017d 40       		.byte	64
 6570 017e 40       		.byte	64
ARM GAS  /tmp/cc04S6rC.s 			page 117


 6571 017f 40       		.byte	64
 6572 0180 00       		.byte	0
 6573 0181 00       		.byte	0
 6574 0182 01       		.byte	1
 6575 0183 02       		.byte	2
 6576 0184 04       		.byte	4
 6577 0185 00       		.byte	0
 6578 0186 00       		.byte	0
 6579 0187 20       		.byte	32
 6580 0188 54       		.byte	84
 6581 0189 54       		.byte	84
 6582 018a 54       		.byte	84
 6583 018b 78       		.byte	120
 6584 018c 00       		.byte	0
 6585 018d 7F       		.byte	127
 6586 018e 48       		.byte	72
 6587 018f 44       		.byte	68
 6588 0190 44       		.byte	68
 6589 0191 38       		.byte	56
 6590 0192 00       		.byte	0
 6591 0193 38       		.byte	56
 6592 0194 44       		.byte	68
 6593 0195 44       		.byte	68
 6594 0196 44       		.byte	68
 6595 0197 20       		.byte	32
 6596 0198 00       		.byte	0
 6597 0199 38       		.byte	56
 6598 019a 44       		.byte	68
 6599 019b 44       		.byte	68
 6600 019c 48       		.byte	72
 6601 019d 7F       		.byte	127
 6602 019e 00       		.byte	0
 6603 019f 38       		.byte	56
 6604 01a0 54       		.byte	84
 6605 01a1 54       		.byte	84
 6606 01a2 54       		.byte	84
 6607 01a3 18       		.byte	24
 6608 01a4 00       		.byte	0
 6609 01a5 08       		.byte	8
 6610 01a6 7E       		.byte	126
 6611 01a7 09       		.byte	9
 6612 01a8 01       		.byte	1
 6613 01a9 02       		.byte	2
 6614 01aa 00       		.byte	0
 6615 01ab 18       		.byte	24
 6616 01ac A4       		.byte	-92
 6617 01ad A4       		.byte	-92
 6618 01ae A4       		.byte	-92
 6619 01af 7C       		.byte	124
 6620 01b0 00       		.byte	0
 6621 01b1 7F       		.byte	127
 6622 01b2 08       		.byte	8
 6623 01b3 04       		.byte	4
 6624 01b4 04       		.byte	4
 6625 01b5 78       		.byte	120
 6626 01b6 00       		.byte	0
 6627 01b7 00       		.byte	0
ARM GAS  /tmp/cc04S6rC.s 			page 118


 6628 01b8 44       		.byte	68
 6629 01b9 7D       		.byte	125
 6630 01ba 40       		.byte	64
 6631 01bb 00       		.byte	0
 6632 01bc 00       		.byte	0
 6633 01bd 40       		.byte	64
 6634 01be 80       		.byte	-128
 6635 01bf 84       		.byte	-124
 6636 01c0 7D       		.byte	125
 6637 01c1 00       		.byte	0
 6638 01c2 00       		.byte	0
 6639 01c3 7F       		.byte	127
 6640 01c4 10       		.byte	16
 6641 01c5 28       		.byte	40
 6642 01c6 44       		.byte	68
 6643 01c7 00       		.byte	0
 6644 01c8 00       		.byte	0
 6645 01c9 00       		.byte	0
 6646 01ca 41       		.byte	65
 6647 01cb 7F       		.byte	127
 6648 01cc 40       		.byte	64
 6649 01cd 00       		.byte	0
 6650 01ce 00       		.byte	0
 6651 01cf 7C       		.byte	124
 6652 01d0 04       		.byte	4
 6653 01d1 18       		.byte	24
 6654 01d2 04       		.byte	4
 6655 01d3 78       		.byte	120
 6656 01d4 00       		.byte	0
 6657 01d5 7C       		.byte	124
 6658 01d6 08       		.byte	8
 6659 01d7 04       		.byte	4
 6660 01d8 04       		.byte	4
 6661 01d9 78       		.byte	120
 6662 01da 00       		.byte	0
 6663 01db 38       		.byte	56
 6664 01dc 44       		.byte	68
 6665 01dd 44       		.byte	68
 6666 01de 44       		.byte	68
 6667 01df 38       		.byte	56
 6668 01e0 00       		.byte	0
 6669 01e1 FC       		.byte	-4
 6670 01e2 24       		.byte	36
 6671 01e3 24       		.byte	36
 6672 01e4 24       		.byte	36
 6673 01e5 18       		.byte	24
 6674 01e6 00       		.byte	0
 6675 01e7 18       		.byte	24
 6676 01e8 24       		.byte	36
 6677 01e9 24       		.byte	36
 6678 01ea 18       		.byte	24
 6679 01eb FC       		.byte	-4
 6680 01ec 00       		.byte	0
 6681 01ed 7C       		.byte	124
 6682 01ee 08       		.byte	8
 6683 01ef 04       		.byte	4
 6684 01f0 04       		.byte	4
ARM GAS  /tmp/cc04S6rC.s 			page 119


 6685 01f1 08       		.byte	8
 6686 01f2 00       		.byte	0
 6687 01f3 48       		.byte	72
 6688 01f4 54       		.byte	84
 6689 01f5 54       		.byte	84
 6690 01f6 54       		.byte	84
 6691 01f7 20       		.byte	32
 6692 01f8 00       		.byte	0
 6693 01f9 04       		.byte	4
 6694 01fa 3F       		.byte	63
 6695 01fb 44       		.byte	68
 6696 01fc 40       		.byte	64
 6697 01fd 20       		.byte	32
 6698 01fe 00       		.byte	0
 6699 01ff 3C       		.byte	60
 6700 0200 40       		.byte	64
 6701 0201 40       		.byte	64
 6702 0202 20       		.byte	32
 6703 0203 7C       		.byte	124
 6704 0204 00       		.byte	0
 6705 0205 1C       		.byte	28
 6706 0206 20       		.byte	32
 6707 0207 40       		.byte	64
 6708 0208 20       		.byte	32
 6709 0209 1C       		.byte	28
 6710 020a 00       		.byte	0
 6711 020b 3C       		.byte	60
 6712 020c 40       		.byte	64
 6713 020d 30       		.byte	48
 6714 020e 40       		.byte	64
 6715 020f 3C       		.byte	60
 6716 0210 00       		.byte	0
 6717 0211 44       		.byte	68
 6718 0212 28       		.byte	40
 6719 0213 10       		.byte	16
 6720 0214 28       		.byte	40
 6721 0215 44       		.byte	68
 6722 0216 00       		.byte	0
 6723 0217 1C       		.byte	28
 6724 0218 A0       		.byte	-96
 6725 0219 A0       		.byte	-96
 6726 021a A0       		.byte	-96
 6727 021b 7C       		.byte	124
 6728 021c 00       		.byte	0
 6729 021d 44       		.byte	68
 6730 021e 64       		.byte	100
 6731 021f 54       		.byte	84
 6732 0220 4C       		.byte	76
 6733 0221 44       		.byte	68
 6734 0222 14       		.byte	20
 6735 0223 14       		.byte	20
 6736 0224 14       		.byte	20
 6737 0225 14       		.byte	20
 6738 0226 14       		.byte	20
 6739 0227 14       		.byte	20
 6740              		.section	.rodata.F8X16,"a",%progbits
 6741              		.align	2
ARM GAS  /tmp/cc04S6rC.s 			page 120


 6742              		.set	.LANCHOR0,. + 0
 6743              		.type	F8X16, %object
 6744              		.size	F8X16, 1520
 6745              	F8X16:
 6746 0000 00       		.byte	0
 6747 0001 00       		.byte	0
 6748 0002 00       		.byte	0
 6749 0003 00       		.byte	0
 6750 0004 00       		.byte	0
 6751 0005 00       		.byte	0
 6752 0006 00       		.byte	0
 6753 0007 00       		.byte	0
 6754 0008 00       		.byte	0
 6755 0009 00       		.byte	0
 6756 000a 00       		.byte	0
 6757 000b 00       		.byte	0
 6758 000c 00       		.byte	0
 6759 000d 00       		.byte	0
 6760 000e 00       		.byte	0
 6761 000f 00       		.byte	0
 6762 0010 00       		.byte	0
 6763 0011 00       		.byte	0
 6764 0012 00       		.byte	0
 6765 0013 F8       		.byte	-8
 6766 0014 00       		.byte	0
 6767 0015 00       		.byte	0
 6768 0016 00       		.byte	0
 6769 0017 00       		.byte	0
 6770 0018 00       		.byte	0
 6771 0019 00       		.byte	0
 6772 001a 00       		.byte	0
 6773 001b 33       		.byte	51
 6774 001c 30       		.byte	48
 6775 001d 00       		.byte	0
 6776 001e 00       		.byte	0
 6777 001f 00       		.byte	0
 6778 0020 00       		.byte	0
 6779 0021 10       		.byte	16
 6780 0022 0C       		.byte	12
 6781 0023 06       		.byte	6
 6782 0024 10       		.byte	16
 6783 0025 0C       		.byte	12
 6784 0026 06       		.byte	6
 6785 0027 00       		.byte	0
 6786 0028 00       		.byte	0
 6787 0029 00       		.byte	0
 6788 002a 00       		.byte	0
 6789 002b 00       		.byte	0
 6790 002c 00       		.byte	0
 6791 002d 00       		.byte	0
 6792 002e 00       		.byte	0
 6793 002f 00       		.byte	0
 6794 0030 40       		.byte	64
 6795 0031 C0       		.byte	-64
 6796 0032 78       		.byte	120
 6797 0033 40       		.byte	64
 6798 0034 C0       		.byte	-64
ARM GAS  /tmp/cc04S6rC.s 			page 121


 6799 0035 78       		.byte	120
 6800 0036 40       		.byte	64
 6801 0037 00       		.byte	0
 6802 0038 04       		.byte	4
 6803 0039 3F       		.byte	63
 6804 003a 04       		.byte	4
 6805 003b 04       		.byte	4
 6806 003c 3F       		.byte	63
 6807 003d 04       		.byte	4
 6808 003e 04       		.byte	4
 6809 003f 00       		.byte	0
 6810 0040 00       		.byte	0
 6811 0041 70       		.byte	112
 6812 0042 88       		.byte	-120
 6813 0043 FC       		.byte	-4
 6814 0044 08       		.byte	8
 6815 0045 30       		.byte	48
 6816 0046 00       		.byte	0
 6817 0047 00       		.byte	0
 6818 0048 00       		.byte	0
 6819 0049 18       		.byte	24
 6820 004a 20       		.byte	32
 6821 004b FF       		.byte	-1
 6822 004c 21       		.byte	33
 6823 004d 1E       		.byte	30
 6824 004e 00       		.byte	0
 6825 004f 00       		.byte	0
 6826 0050 F0       		.byte	-16
 6827 0051 08       		.byte	8
 6828 0052 F0       		.byte	-16
 6829 0053 00       		.byte	0
 6830 0054 E0       		.byte	-32
 6831 0055 18       		.byte	24
 6832 0056 00       		.byte	0
 6833 0057 00       		.byte	0
 6834 0058 00       		.byte	0
 6835 0059 21       		.byte	33
 6836 005a 1C       		.byte	28
 6837 005b 03       		.byte	3
 6838 005c 1E       		.byte	30
 6839 005d 21       		.byte	33
 6840 005e 1E       		.byte	30
 6841 005f 00       		.byte	0
 6842 0060 00       		.byte	0
 6843 0061 F0       		.byte	-16
 6844 0062 08       		.byte	8
 6845 0063 88       		.byte	-120
 6846 0064 70       		.byte	112
 6847 0065 00       		.byte	0
 6848 0066 00       		.byte	0
 6849 0067 00       		.byte	0
 6850 0068 1E       		.byte	30
 6851 0069 21       		.byte	33
 6852 006a 23       		.byte	35
 6853 006b 24       		.byte	36
 6854 006c 19       		.byte	25
 6855 006d 27       		.byte	39
ARM GAS  /tmp/cc04S6rC.s 			page 122


 6856 006e 21       		.byte	33
 6857 006f 10       		.byte	16
 6858 0070 10       		.byte	16
 6859 0071 16       		.byte	22
 6860 0072 0E       		.byte	14
 6861 0073 00       		.byte	0
 6862 0074 00       		.byte	0
 6863 0075 00       		.byte	0
 6864 0076 00       		.byte	0
 6865 0077 00       		.byte	0
 6866 0078 00       		.byte	0
 6867 0079 00       		.byte	0
 6868 007a 00       		.byte	0
 6869 007b 00       		.byte	0
 6870 007c 00       		.byte	0
 6871 007d 00       		.byte	0
 6872 007e 00       		.byte	0
 6873 007f 00       		.byte	0
 6874 0080 00       		.byte	0
 6875 0081 00       		.byte	0
 6876 0082 00       		.byte	0
 6877 0083 E0       		.byte	-32
 6878 0084 18       		.byte	24
 6879 0085 04       		.byte	4
 6880 0086 02       		.byte	2
 6881 0087 00       		.byte	0
 6882 0088 00       		.byte	0
 6883 0089 00       		.byte	0
 6884 008a 00       		.byte	0
 6885 008b 07       		.byte	7
 6886 008c 18       		.byte	24
 6887 008d 20       		.byte	32
 6888 008e 40       		.byte	64
 6889 008f 00       		.byte	0
 6890 0090 00       		.byte	0
 6891 0091 02       		.byte	2
 6892 0092 04       		.byte	4
 6893 0093 18       		.byte	24
 6894 0094 E0       		.byte	-32
 6895 0095 00       		.byte	0
 6896 0096 00       		.byte	0
 6897 0097 00       		.byte	0
 6898 0098 00       		.byte	0
 6899 0099 40       		.byte	64
 6900 009a 20       		.byte	32
 6901 009b 18       		.byte	24
 6902 009c 07       		.byte	7
 6903 009d 00       		.byte	0
 6904 009e 00       		.byte	0
 6905 009f 00       		.byte	0
 6906 00a0 40       		.byte	64
 6907 00a1 40       		.byte	64
 6908 00a2 80       		.byte	-128
 6909 00a3 F0       		.byte	-16
 6910 00a4 80       		.byte	-128
 6911 00a5 40       		.byte	64
 6912 00a6 40       		.byte	64
ARM GAS  /tmp/cc04S6rC.s 			page 123


 6913 00a7 00       		.byte	0
 6914 00a8 02       		.byte	2
 6915 00a9 02       		.byte	2
 6916 00aa 01       		.byte	1
 6917 00ab 0F       		.byte	15
 6918 00ac 01       		.byte	1
 6919 00ad 02       		.byte	2
 6920 00ae 02       		.byte	2
 6921 00af 00       		.byte	0
 6922 00b0 00       		.byte	0
 6923 00b1 00       		.byte	0
 6924 00b2 00       		.byte	0
 6925 00b3 F0       		.byte	-16
 6926 00b4 00       		.byte	0
 6927 00b5 00       		.byte	0
 6928 00b6 00       		.byte	0
 6929 00b7 00       		.byte	0
 6930 00b8 01       		.byte	1
 6931 00b9 01       		.byte	1
 6932 00ba 01       		.byte	1
 6933 00bb 1F       		.byte	31
 6934 00bc 01       		.byte	1
 6935 00bd 01       		.byte	1
 6936 00be 01       		.byte	1
 6937 00bf 00       		.byte	0
 6938 00c0 00       		.byte	0
 6939 00c1 00       		.byte	0
 6940 00c2 00       		.byte	0
 6941 00c3 00       		.byte	0
 6942 00c4 00       		.byte	0
 6943 00c5 00       		.byte	0
 6944 00c6 00       		.byte	0
 6945 00c7 00       		.byte	0
 6946 00c8 80       		.byte	-128
 6947 00c9 B0       		.byte	-80
 6948 00ca 70       		.byte	112
 6949 00cb 00       		.byte	0
 6950 00cc 00       		.byte	0
 6951 00cd 00       		.byte	0
 6952 00ce 00       		.byte	0
 6953 00cf 00       		.byte	0
 6954 00d0 00       		.byte	0
 6955 00d1 00       		.byte	0
 6956 00d2 00       		.byte	0
 6957 00d3 00       		.byte	0
 6958 00d4 00       		.byte	0
 6959 00d5 00       		.byte	0
 6960 00d6 00       		.byte	0
 6961 00d7 00       		.byte	0
 6962 00d8 00       		.byte	0
 6963 00d9 01       		.byte	1
 6964 00da 01       		.byte	1
 6965 00db 01       		.byte	1
 6966 00dc 01       		.byte	1
 6967 00dd 01       		.byte	1
 6968 00de 01       		.byte	1
 6969 00df 01       		.byte	1
ARM GAS  /tmp/cc04S6rC.s 			page 124


 6970 00e0 00       		.byte	0
 6971 00e1 00       		.byte	0
 6972 00e2 00       		.byte	0
 6973 00e3 00       		.byte	0
 6974 00e4 00       		.byte	0
 6975 00e5 00       		.byte	0
 6976 00e6 00       		.byte	0
 6977 00e7 00       		.byte	0
 6978 00e8 00       		.byte	0
 6979 00e9 30       		.byte	48
 6980 00ea 30       		.byte	48
 6981 00eb 00       		.byte	0
 6982 00ec 00       		.byte	0
 6983 00ed 00       		.byte	0
 6984 00ee 00       		.byte	0
 6985 00ef 00       		.byte	0
 6986 00f0 00       		.byte	0
 6987 00f1 00       		.byte	0
 6988 00f2 00       		.byte	0
 6989 00f3 00       		.byte	0
 6990 00f4 80       		.byte	-128
 6991 00f5 60       		.byte	96
 6992 00f6 18       		.byte	24
 6993 00f7 04       		.byte	4
 6994 00f8 00       		.byte	0
 6995 00f9 60       		.byte	96
 6996 00fa 18       		.byte	24
 6997 00fb 06       		.byte	6
 6998 00fc 01       		.byte	1
 6999 00fd 00       		.byte	0
 7000 00fe 00       		.byte	0
 7001 00ff 00       		.byte	0
 7002 0100 00       		.byte	0
 7003 0101 E0       		.byte	-32
 7004 0102 10       		.byte	16
 7005 0103 08       		.byte	8
 7006 0104 08       		.byte	8
 7007 0105 10       		.byte	16
 7008 0106 E0       		.byte	-32
 7009 0107 00       		.byte	0
 7010 0108 00       		.byte	0
 7011 0109 0F       		.byte	15
 7012 010a 10       		.byte	16
 7013 010b 20       		.byte	32
 7014 010c 20       		.byte	32
 7015 010d 10       		.byte	16
 7016 010e 0F       		.byte	15
 7017 010f 00       		.byte	0
 7018 0110 00       		.byte	0
 7019 0111 10       		.byte	16
 7020 0112 10       		.byte	16
 7021 0113 F8       		.byte	-8
 7022 0114 00       		.byte	0
 7023 0115 00       		.byte	0
 7024 0116 00       		.byte	0
 7025 0117 00       		.byte	0
 7026 0118 00       		.byte	0
ARM GAS  /tmp/cc04S6rC.s 			page 125


 7027 0119 20       		.byte	32
 7028 011a 20       		.byte	32
 7029 011b 3F       		.byte	63
 7030 011c 20       		.byte	32
 7031 011d 20       		.byte	32
 7032 011e 00       		.byte	0
 7033 011f 00       		.byte	0
 7034 0120 00       		.byte	0
 7035 0121 70       		.byte	112
 7036 0122 08       		.byte	8
 7037 0123 08       		.byte	8
 7038 0124 08       		.byte	8
 7039 0125 88       		.byte	-120
 7040 0126 70       		.byte	112
 7041 0127 00       		.byte	0
 7042 0128 00       		.byte	0
 7043 0129 30       		.byte	48
 7044 012a 28       		.byte	40
 7045 012b 24       		.byte	36
 7046 012c 22       		.byte	34
 7047 012d 21       		.byte	33
 7048 012e 30       		.byte	48
 7049 012f 00       		.byte	0
 7050 0130 00       		.byte	0
 7051 0131 30       		.byte	48
 7052 0132 08       		.byte	8
 7053 0133 88       		.byte	-120
 7054 0134 88       		.byte	-120
 7055 0135 48       		.byte	72
 7056 0136 30       		.byte	48
 7057 0137 00       		.byte	0
 7058 0138 00       		.byte	0
 7059 0139 18       		.byte	24
 7060 013a 20       		.byte	32
 7061 013b 20       		.byte	32
 7062 013c 20       		.byte	32
 7063 013d 11       		.byte	17
 7064 013e 0E       		.byte	14
 7065 013f 00       		.byte	0
 7066 0140 00       		.byte	0
 7067 0141 00       		.byte	0
 7068 0142 C0       		.byte	-64
 7069 0143 20       		.byte	32
 7070 0144 10       		.byte	16
 7071 0145 F8       		.byte	-8
 7072 0146 00       		.byte	0
 7073 0147 00       		.byte	0
 7074 0148 00       		.byte	0
 7075 0149 07       		.byte	7
 7076 014a 04       		.byte	4
 7077 014b 24       		.byte	36
 7078 014c 24       		.byte	36
 7079 014d 3F       		.byte	63
 7080 014e 24       		.byte	36
 7081 014f 00       		.byte	0
 7082 0150 00       		.byte	0
 7083 0151 F8       		.byte	-8
ARM GAS  /tmp/cc04S6rC.s 			page 126


 7084 0152 08       		.byte	8
 7085 0153 88       		.byte	-120
 7086 0154 88       		.byte	-120
 7087 0155 08       		.byte	8
 7088 0156 08       		.byte	8
 7089 0157 00       		.byte	0
 7090 0158 00       		.byte	0
 7091 0159 19       		.byte	25
 7092 015a 21       		.byte	33
 7093 015b 20       		.byte	32
 7094 015c 20       		.byte	32
 7095 015d 11       		.byte	17
 7096 015e 0E       		.byte	14
 7097 015f 00       		.byte	0
 7098 0160 00       		.byte	0
 7099 0161 E0       		.byte	-32
 7100 0162 10       		.byte	16
 7101 0163 88       		.byte	-120
 7102 0164 88       		.byte	-120
 7103 0165 18       		.byte	24
 7104 0166 00       		.byte	0
 7105 0167 00       		.byte	0
 7106 0168 00       		.byte	0
 7107 0169 0F       		.byte	15
 7108 016a 11       		.byte	17
 7109 016b 20       		.byte	32
 7110 016c 20       		.byte	32
 7111 016d 11       		.byte	17
 7112 016e 0E       		.byte	14
 7113 016f 00       		.byte	0
 7114 0170 00       		.byte	0
 7115 0171 38       		.byte	56
 7116 0172 08       		.byte	8
 7117 0173 08       		.byte	8
 7118 0174 C8       		.byte	-56
 7119 0175 38       		.byte	56
 7120 0176 08       		.byte	8
 7121 0177 00       		.byte	0
 7122 0178 00       		.byte	0
 7123 0179 00       		.byte	0
 7124 017a 00       		.byte	0
 7125 017b 3F       		.byte	63
 7126 017c 00       		.byte	0
 7127 017d 00       		.byte	0
 7128 017e 00       		.byte	0
 7129 017f 00       		.byte	0
 7130 0180 00       		.byte	0
 7131 0181 70       		.byte	112
 7132 0182 88       		.byte	-120
 7133 0183 08       		.byte	8
 7134 0184 08       		.byte	8
 7135 0185 88       		.byte	-120
 7136 0186 70       		.byte	112
 7137 0187 00       		.byte	0
 7138 0188 00       		.byte	0
 7139 0189 1C       		.byte	28
 7140 018a 22       		.byte	34
ARM GAS  /tmp/cc04S6rC.s 			page 127


 7141 018b 21       		.byte	33
 7142 018c 21       		.byte	33
 7143 018d 22       		.byte	34
 7144 018e 1C       		.byte	28
 7145 018f 00       		.byte	0
 7146 0190 00       		.byte	0
 7147 0191 E0       		.byte	-32
 7148 0192 10       		.byte	16
 7149 0193 08       		.byte	8
 7150 0194 08       		.byte	8
 7151 0195 10       		.byte	16
 7152 0196 E0       		.byte	-32
 7153 0197 00       		.byte	0
 7154 0198 00       		.byte	0
 7155 0199 00       		.byte	0
 7156 019a 31       		.byte	49
 7157 019b 22       		.byte	34
 7158 019c 22       		.byte	34
 7159 019d 11       		.byte	17
 7160 019e 0F       		.byte	15
 7161 019f 00       		.byte	0
 7162 01a0 00       		.byte	0
 7163 01a1 00       		.byte	0
 7164 01a2 00       		.byte	0
 7165 01a3 C0       		.byte	-64
 7166 01a4 C0       		.byte	-64
 7167 01a5 00       		.byte	0
 7168 01a6 00       		.byte	0
 7169 01a7 00       		.byte	0
 7170 01a8 00       		.byte	0
 7171 01a9 00       		.byte	0
 7172 01aa 00       		.byte	0
 7173 01ab 30       		.byte	48
 7174 01ac 30       		.byte	48
 7175 01ad 00       		.byte	0
 7176 01ae 00       		.byte	0
 7177 01af 00       		.byte	0
 7178 01b0 00       		.byte	0
 7179 01b1 00       		.byte	0
 7180 01b2 00       		.byte	0
 7181 01b3 80       		.byte	-128
 7182 01b4 00       		.byte	0
 7183 01b5 00       		.byte	0
 7184 01b6 00       		.byte	0
 7185 01b7 00       		.byte	0
 7186 01b8 00       		.byte	0
 7187 01b9 00       		.byte	0
 7188 01ba 80       		.byte	-128
 7189 01bb 60       		.byte	96
 7190 01bc 00       		.byte	0
 7191 01bd 00       		.byte	0
 7192 01be 00       		.byte	0
 7193 01bf 00       		.byte	0
 7194 01c0 00       		.byte	0
 7195 01c1 00       		.byte	0
 7196 01c2 80       		.byte	-128
 7197 01c3 40       		.byte	64
ARM GAS  /tmp/cc04S6rC.s 			page 128


 7198 01c4 20       		.byte	32
 7199 01c5 10       		.byte	16
 7200 01c6 08       		.byte	8
 7201 01c7 00       		.byte	0
 7202 01c8 00       		.byte	0
 7203 01c9 01       		.byte	1
 7204 01ca 02       		.byte	2
 7205 01cb 04       		.byte	4
 7206 01cc 08       		.byte	8
 7207 01cd 10       		.byte	16
 7208 01ce 20       		.byte	32
 7209 01cf 00       		.byte	0
 7210 01d0 40       		.byte	64
 7211 01d1 40       		.byte	64
 7212 01d2 40       		.byte	64
 7213 01d3 40       		.byte	64
 7214 01d4 40       		.byte	64
 7215 01d5 40       		.byte	64
 7216 01d6 40       		.byte	64
 7217 01d7 00       		.byte	0
 7218 01d8 04       		.byte	4
 7219 01d9 04       		.byte	4
 7220 01da 04       		.byte	4
 7221 01db 04       		.byte	4
 7222 01dc 04       		.byte	4
 7223 01dd 04       		.byte	4
 7224 01de 04       		.byte	4
 7225 01df 00       		.byte	0
 7226 01e0 00       		.byte	0
 7227 01e1 08       		.byte	8
 7228 01e2 10       		.byte	16
 7229 01e3 20       		.byte	32
 7230 01e4 40       		.byte	64
 7231 01e5 80       		.byte	-128
 7232 01e6 00       		.byte	0
 7233 01e7 00       		.byte	0
 7234 01e8 00       		.byte	0
 7235 01e9 20       		.byte	32
 7236 01ea 10       		.byte	16
 7237 01eb 08       		.byte	8
 7238 01ec 04       		.byte	4
 7239 01ed 02       		.byte	2
 7240 01ee 01       		.byte	1
 7241 01ef 00       		.byte	0
 7242 01f0 00       		.byte	0
 7243 01f1 70       		.byte	112
 7244 01f2 48       		.byte	72
 7245 01f3 08       		.byte	8
 7246 01f4 08       		.byte	8
 7247 01f5 08       		.byte	8
 7248 01f6 F0       		.byte	-16
 7249 01f7 00       		.byte	0
 7250 01f8 00       		.byte	0
 7251 01f9 00       		.byte	0
 7252 01fa 00       		.byte	0
 7253 01fb 30       		.byte	48
