ARM GAS  /tmp/ccBMeOhE.s 			page 1


   1              		.cpu cortex-m4
   2              		.eabi_attribute 27, 1
   3              		.eabi_attribute 28, 1
   4              		.eabi_attribute 20, 1
   5              		.eabi_attribute 21, 1
   6              		.eabi_attribute 23, 3
   7              		.eabi_attribute 24, 1
   8              		.eabi_attribute 25, 1
   9              		.eabi_attribute 26, 1
  10              		.eabi_attribute 30, 2
  11              		.eabi_attribute 34, 1
  12              		.eabi_attribute 18, 4
  13              		.file	"shell_cmd.c"
  14              		.text
  15              	.Ltext0:
  16              		.cfi_sections	.debug_frame
  17              		.section	.text.cmd_systime,"ax",%progbits
  18              		.align	1
  19              		.p2align 2,,3
  20              		.syntax unified
  21              		.thumb
  22              		.thumb_func
  23              		.fpu fpv4-sp-d16
  24              		.type	cmd_systime, %function
  25              	cmd_systime:
  26              	.LFB329:
  27              		.file 1 "./RM18A-ChibiOS18-Core/src/shell/shell_cmd.c"
  28              		.loc 1 126 0
  29              		.cfi_startproc
  30              		@ args = 0, pretend = 0, frame = 0
  31              		@ frame_needed = 0, uses_anonymous_args = 0
  32              		@ link register save eliminated.
  33              	.LVL0:
  34              		.loc 1 129 0
  35 0000 0029     		cmp	r1, #0
  36 0002 03DD     		ble	.L2
  37              		.loc 1 131 0
  38 0004 074A     		ldr	r2, .L4
  39              	.LVL1:
  40 0006 0849     		ldr	r1, .L4+4
  41              	.LVL2:
  42 0008 FFF7FEBF 		b	chprintf
  43              	.LVL3:
  44              	.L2:
  45              	.LBB83:
  46              	.LBB84:
  47              	.LBB85:
  48              	.LBB86:
  49              	.LBB87:
  50              	.LBB88:
  51              	.LBB89:
  52              	.LBB90:
  53              		.file 2 "./RM18A-ChibiOS18-Core/chibios/os/common/ext/ARM/CMSIS/Core/Include/cmsis_gcc.h"
  54              		.loc 2 493 0
  55 000c 2023     		movs	r3, #32
  56              		.syntax unified
  57              	@ 493 "./RM18A-ChibiOS18-Core/chibios/os/common/ext/ARM/CMSIS/Core/Include/cmsis_gcc.h" 1
ARM GAS  /tmp/ccBMeOhE.s 			page 2


  58 000e 83F31188 		MSR basepri, r3
  59              	@ 0 "" 2
  60              	.LVL4:
  61              		.thumb
  62              		.syntax unified
  63              	.LBE90:
  64              	.LBE89:
  65              	.LBE88:
  66              	.LBE87:
  67              	.LBB91:
  68              	.LBB92:
  69              	.LBB93:
  70              	.LBB94:
  71              		.file 3 "./RM18A-ChibiOS18-Core/chibios/os/hal/ports/STM32/LLD/TIMv1/hal_st_lld.h"
  72              		.loc 3 147 0
  73 0012 4FF08042 		mov	r2, #1073741824
  74              	.LVL5:
  75              	.LBE94:
  76              	.LBE93:
  77              	.LBE92:
  78              	.LBE91:
  79              	.LBB98:
  80              	.LBB99:
  81              	.LBB100:
  82              	.LBB101:
  83              	.LBB102:
  84              		.loc 2 493 0
  85 0016 0023     		movs	r3, #0
  86              	.LBE102:
  87              	.LBE101:
  88              	.LBE100:
  89              	.LBE99:
  90              	.LBE98:
  91              	.LBB107:
  92              	.LBB97:
  93              	.LBB96:
  94              	.LBB95:
  95              		.loc 3 147 0
  96 0018 526A     		ldr	r2, [r2, #36]
  97              	.LVL6:
  98              	.LBE95:
  99              	.LBE96:
 100              	.LBE97:
 101              	.LBE107:
 102              	.LBB108:
 103              	.LBB106:
 104              	.LBB105:
 105              	.LBB104:
 106              	.LBB103:
 107              		.loc 2 493 0
 108              		.syntax unified
 109              	@ 493 "./RM18A-ChibiOS18-Core/chibios/os/common/ext/ARM/CMSIS/Core/Include/cmsis_gcc.h" 1
 110 001a 83F31188 		MSR basepri, r3
 111              	@ 0 "" 2
 112              	.LVL7:
 113              		.thumb
 114              		.syntax unified
ARM GAS  /tmp/ccBMeOhE.s 			page 3


 115              	.LBE103:
 116              	.LBE104:
 117              	.LBE105:
 118              	.LBE106:
 119              	.LBE108:
 120              	.LBE86:
 121              	.LBE85:
 122              		.loc 1 134 0
 123 001e 0349     		ldr	r1, .L4+8
 124              	.LVL8:
 125 0020 FFF7FEBF 		b	chprintf
 126              	.LVL9:
 127              	.L5:
 128              		.align	2
 129              	.L4:
 130 0024 00000000 		.word	.LC0
 131 0028 08000000 		.word	.LC1
 132 002c 14000000 		.word	.LC2
 133              	.LBE84:
 134              	.LBE83:
 135              		.cfi_endproc
 136              	.LFE329:
 137              		.size	cmd_systime, .-cmd_systime
 138              		.section	.text.cmd_echo,"ax",%progbits
 139              		.align	1
 140              		.p2align 2,,3
 141              		.syntax unified
 142              		.thumb
 143              		.thumb_func
 144              		.fpu fpv4-sp-d16
 145              		.type	cmd_echo, %function
 146              	cmd_echo:
 147              	.LFB328:
 148              		.loc 1 112 0
 149              		.cfi_startproc
 150              		@ args = 0, pretend = 0, frame = 0
 151              		@ frame_needed = 0, uses_anonymous_args = 0
 152              		@ link register save eliminated.
 153              	.LVL10:
 154              		.loc 1 115 0
 155 0000 0129     		cmp	r1, #1
 156 0002 03D0     		beq	.L7
 157              		.loc 1 117 0
 158 0004 034A     		ldr	r2, .L8
 159              	.LVL11:
 160 0006 0449     		ldr	r1, .L8+4
 161              	.LVL12:
 162 0008 FFF7FEBF 		b	chprintf
 163              	.LVL13:
 164              	.L7:
 165              	.LBB111:
 166              	.LBB112:
 167              		.loc 1 120 0
 168 000c 1268     		ldr	r2, [r2]
 169              	.LVL14:
 170 000e 0349     		ldr	r1, .L8+8
 171              	.LVL15:
ARM GAS  /tmp/ccBMeOhE.s 			page 4


 172 0010 FFF7FEBF 		b	chprintf
 173              	.LVL16:
 174              	.L9:
 175              		.align	2
 176              	.L8:
 177 0014 00000000 		.word	.LC3
 178 0018 08000000 		.word	.LC1
 179 001c 10000000 		.word	.LC4
 180              	.LBE112:
 181              	.LBE111:
 182              		.cfi_endproc
 183              	.LFE328:
 184              		.size	cmd_echo, .-cmd_echo
 185              		.section	.text.cmd_info,"ax",%progbits
 186              		.align	1
 187              		.p2align 2,,3
 188              		.syntax unified
 189              		.thumb
 190              		.thumb_func
 191              		.fpu fpv4-sp-d16
 192              		.type	cmd_info, %function
 193              	cmd_info:
 194              	.LFB327:
 195              		.loc 1 76 0
 196              		.cfi_startproc
 197              		@ args = 0, pretend = 0, frame = 0
 198              		@ frame_needed = 0, uses_anonymous_args = 0
 199              	.LVL17:
 200              		.loc 1 79 0
 201 0000 0029     		cmp	r1, #0
 202 0002 03DD     		ble	.L11
 203              		.loc 1 81 0
 204 0004 194A     		ldr	r2, .L14
 205              	.LVL18:
 206 0006 1A49     		ldr	r1, .L14+4
 207              	.LVL19:
 208 0008 FFF7FEBF 		b	chprintf
 209              	.LVL20:
 210              	.L11:
 211              		.loc 1 76 0
 212 000c 10B5     		push	{r4, lr}
 213              		.cfi_def_cfa_offset 8
 214              		.cfi_offset 4, -8
 215              		.cfi_offset 14, -4
 216              	.LBB115:
 217              	.LBB116:
 218              		.loc 1 85 0
 219 000e 194A     		ldr	r2, .L14+8
 220              	.LVL21:
 221 0010 1949     		ldr	r1, .L14+12
 222              	.LVL22:
 223              	.LBE116:
 224              	.LBE115:
 225              		.loc 1 76 0
 226 0012 82B0     		sub	sp, sp, #8
 227              		.cfi_def_cfa_offset 16
 228 0014 0446     		mov	r4, r0
ARM GAS  /tmp/ccBMeOhE.s 			page 5


 229              	.LVL23:
 230              	.LBB118:
 231              	.LBB117:
 232              		.loc 1 85 0
 233 0016 FFF7FEFF 		bl	chprintf
 234              	.LVL24:
 235              		.loc 1 87 0
 236 001a 184A     		ldr	r2, .L14+16
 237 001c 1849     		ldr	r1, .L14+20
 238 001e 2046     		mov	r0, r4
 239 0020 FFF7FEFF 		bl	chprintf
 240              	.LVL25:
 241              		.loc 1 89 0
 242 0024 174A     		ldr	r2, .L14+24
 243 0026 1849     		ldr	r1, .L14+28
 244 0028 2046     		mov	r0, r4
 245 002a FFF7FEFF 		bl	chprintf
 246              	.LVL26:
 247              		.loc 1 91 0
 248 002e 174A     		ldr	r2, .L14+32
 249 0030 1749     		ldr	r1, .L14+36
 250 0032 2046     		mov	r0, r4
 251 0034 FFF7FEFF 		bl	chprintf
 252              	.LVL27:
 253              		.loc 1 94 0
 254 0038 164A     		ldr	r2, .L14+40
 255 003a 1749     		ldr	r1, .L14+44
 256 003c 2046     		mov	r0, r4
 257 003e FFF7FEFF 		bl	chprintf
 258              	.LVL28:
 259              		.loc 1 97 0
 260 0042 164A     		ldr	r2, .L14+48
 261 0044 1649     		ldr	r1, .L14+52
 262 0046 2046     		mov	r0, r4
 263 0048 FFF7FEFF 		bl	chprintf
 264              	.LVL29:
 265              		.loc 1 100 0
 266 004c 154A     		ldr	r2, .L14+56
 267 004e 1649     		ldr	r1, .L14+60
 268 0050 2046     		mov	r0, r4
 269 0052 FFF7FEFF 		bl	chprintf
 270              	.LVL30:
 271              		.loc 1 104 0
 272 0056 154B     		ldr	r3, .L14+64
 273 0058 0093     		str	r3, [sp]
 274 005a 2046     		mov	r0, r4
 275 005c 144B     		ldr	r3, .L14+68
 276 005e 154A     		ldr	r2, .L14+72
 277 0060 1549     		ldr	r1, .L14+76
 278 0062 FFF7FEFF 		bl	chprintf
 279              	.LVL31:
 280              	.LBE117:
 281              	.LBE118:
 282              		.loc 1 107 0
 283 0066 02B0     		add	sp, sp, #8
 284              		.cfi_def_cfa_offset 8
 285              		@ sp needed
ARM GAS  /tmp/ccBMeOhE.s 			page 6


 286 0068 10BD     		pop	{r4, pc}
 287              	.LVL32:
 288              	.L15:
 289 006a 00BF     		.align	2
 290              	.L14:
 291 006c 00000000 		.word	.LC5
 292 0070 08000000 		.word	.LC1
 293 0074 08000000 		.word	.LC6
 294 0078 10000000 		.word	.LC7
 295 007c 24000000 		.word	.LC8
 296 0080 6C000000 		.word	.LC9
 297 0084 80000000 		.word	.LC10
 298 0088 8C000000 		.word	.LC11
 299 008c A0000000 		.word	.LC12
 300 0090 AC000000 		.word	.LC13
 301 0094 C0000000 		.word	.LC14
 302 0098 D8000000 		.word	.LC15
 303 009c EC000000 		.word	.LC16
 304 00a0 18010000 		.word	.LC17
 305 00a4 2C010000 		.word	.LC18
 306 00a8 34010000 		.word	.LC19
 307 00ac 70010000 		.word	.LC23
 308 00b0 48010000 		.word	.LC20
 309 00b4 4C010000 		.word	.LC21
 310 00b8 58010000 		.word	.LC22
 311              		.cfi_endproc
 312              	.LFE327:
 313              		.size	cmd_info, .-cmd_info
 314              		.section	.text.cmd_threads,"ax",%progbits
 315              		.align	1
 316              		.p2align 2,,3
 317              		.syntax unified
 318              		.thumb
 319              		.thumb_func
 320              		.fpu fpv4-sp-d16
 321              		.type	cmd_threads, %function
 322              	cmd_threads:
 323              	.LFB331:
 324              		.loc 1 159 0
 325              		.cfi_startproc
 326              		@ args = 0, pretend = 0, frame = 0
 327              		@ frame_needed = 0, uses_anonymous_args = 0
 328              	.LVL33:
 329              		.loc 1 164 0
 330 0000 0029     		cmp	r1, #0
 331 0002 03DD     		ble	.L17
 332              		.loc 1 166 0
 333 0004 204A     		ldr	r2, .L27
 334              	.LVL34:
 335 0006 2149     		ldr	r1, .L27+4
 336              	.LVL35:
 337 0008 FFF7FEBF 		b	chprintf
 338              	.LVL36:
 339              	.L17:
 340              		.loc 1 159 0
 341 000c 2DE9F04F 		push	{r4, r5, r6, r7, r8, r9, r10, fp, lr}
 342              		.cfi_def_cfa_offset 36
ARM GAS  /tmp/ccBMeOhE.s 			page 7


 343              		.cfi_offset 4, -36
 344              		.cfi_offset 5, -32
 345              		.cfi_offset 6, -28
 346              		.cfi_offset 7, -24
 347              		.cfi_offset 8, -20
 348              		.cfi_offset 9, -16
 349              		.cfi_offset 10, -12
 350              		.cfi_offset 11, -8
 351              		.cfi_offset 14, -4
 352              	.LBB122:
 353              	.LBB123:
 354              		.loc 1 169 0
 355 0010 1F49     		ldr	r1, .L27+8
 356              	.LVL37:
 357 0012 DFF884A0 		ldr	r10, .L27+16
 358              	.LBB124:
 359              		.loc 1 178 0
 360 0016 DFF88490 		ldr	r9, .L27+20
 361              	.LBE124:
 362              	.LBE123:
 363              	.LBE122:
 364              		.loc 1 159 0
 365 001a 87B0     		sub	sp, sp, #28
 366              		.cfi_def_cfa_offset 64
 367 001c 8046     		mov	r8, r0
 368              	.LVL38:
 369              	.LBB128:
 370              	.LBB127:
 371              		.loc 1 169 0
 372 001e FFF7FEFF 		bl	chprintf
 373              	.LVL39:
 374              		.loc 1 170 0
 375 0022 FFF7FEFF 		bl	chRegFirstThread
 376              	.LVL40:
 377 0026 0446     		mov	r4, r0
 378              	.LVL41:
 379 0028 0BE0     		b	.L18
 380              	.LVL42:
 381              	.L26:
 382              	.LBB125:
 383              		.loc 1 178 0
 384 002a CDE9015E 		strd	r5, lr, [sp, #4]
 385 002e 0094     		str	r4, [sp]
 386 0030 CDE903B6 		strd	fp, r6, [sp, #12]
 387 0034 FFF7FEFF 		bl	chprintf
 388              	.LVL43:
 389              		.loc 1 182 0
 390 0038 2046     		mov	r0, r4
 391 003a FFF7FEFF 		bl	chRegNextThread
 392              	.LVL44:
 393              	.LBE125:
 394              		.loc 1 183 0
 395 003e 0446     		mov	r4, r0
 396 0040 F8B1     		cbz	r0, .L25
 397              	.LVL45:
 398              	.L18:
 399              	.LBB126:
ARM GAS  /tmp/ccBMeOhE.s 			page 8


 400              		.loc 1 180 0
 401 0042 D4E902EC 		ldrd	lr, ip, [r4, #8]
 402 0046 94F82030 		ldrb	r3, [r4, #32]	@ zero_extendqisi2
 403 004a 94F82250 		ldrb	r5, [r4, #34]	@ zero_extendqisi2
 404              		.loc 1 174 0
 405 004e E769     		ldr	r7, [r4, #28]
 406              	.LVL46:
 407              		.loc 1 181 0
 408 0050 A669     		ldr	r6, [r4, #24]
 409              		.loc 1 178 0
 410 0052 5AF823B0 		ldr	fp, [r10, r3, lsl #2]
 411 0056 4946     		mov	r1, r9
 412 0058 4046     		mov	r0, r8
 413              	.LVL47:
 414 005a 6346     		mov	r3, ip
 415 005c 3A46     		mov	r2, r7
 416 005e 013D     		subs	r5, r5, #1
 417 0060 002E     		cmp	r6, #0
 418 0062 E2D1     		bne	.L26
 419              	.LVL48:
 420 0064 0B4B     		ldr	r3, .L27+12
 421 0066 0094     		str	r4, [sp]
 422 0068 CDE903B3 		strd	fp, r3, [sp, #12]
 423 006c CDE9015E 		strd	r5, lr, [sp, #4]
 424 0070 6346     		mov	r3, ip
 425 0072 FFF7FEFF 		bl	chprintf
 426              	.LVL49:
 427              		.loc 1 182 0
 428 0076 2046     		mov	r0, r4
 429 0078 FFF7FEFF 		bl	chRegNextThread
 430              	.LVL50:
 431              	.LBE126:
 432              		.loc 1 183 0
 433 007c 0446     		mov	r4, r0
 434 007e 0028     		cmp	r0, #0
 435 0080 DFD1     		bne	.L18
 436              	.L25:
 437              	.LBE127:
 438              	.LBE128:
 439              		.loc 1 184 0
 440 0082 07B0     		add	sp, sp, #28
 441              		.cfi_def_cfa_offset 36
 442              		@ sp needed
 443 0084 BDE8F08F 		pop	{r4, r5, r6, r7, r8, r9, r10, fp, pc}
 444              	.LVL51:
 445              	.L28:
 446              		.align	2
 447              	.L27:
 448 0088 00000000 		.word	.LC24
 449 008c 08000000 		.word	.LC1
 450 0090 08000000 		.word	.LC25
 451 0094 70000000 		.word	.LC27
 452 0098 00000000 		.word	.LANCHOR0
 453 009c 48000000 		.word	.LC26
 454              		.cfi_endproc
 455              	.LFE331:
 456              		.size	cmd_threads, .-cmd_threads
ARM GAS  /tmp/ccBMeOhE.s 			page 9


 457              		.section	.text.cmd_mem,"ax",%progbits
 458              		.align	1
 459              		.p2align 2,,3
 460              		.syntax unified
 461              		.thumb
 462              		.thumb_func
 463              		.fpu fpv4-sp-d16
 464              		.type	cmd_mem, %function
 465              	cmd_mem:
 466              	.LFB330:
 467              		.loc 1 140 0
 468              		.cfi_startproc
 469              		@ args = 0, pretend = 0, frame = 8
 470              		@ frame_needed = 0, uses_anonymous_args = 0
 471              	.LVL52:
 472 0000 30B5     		push	{r4, r5, lr}
 473              		.cfi_def_cfa_offset 12
 474              		.cfi_offset 4, -12
 475              		.cfi_offset 5, -8
 476              		.cfi_offset 14, -4
 477              		.loc 1 144 0
 478 0002 0029     		cmp	r1, #0
 479              		.loc 1 140 0
 480 0004 83B0     		sub	sp, sp, #12
 481              		.cfi_def_cfa_offset 24
 482              		.loc 1 144 0
 483 0006 05DD     		ble	.L30
 484              		.loc 1 146 0
 485 0008 124A     		ldr	r2, .L33
 486              	.LVL53:
 487 000a 1349     		ldr	r1, .L33+4
 488              	.LVL54:
 489 000c FFF7FEFF 		bl	chprintf
 490              	.LVL55:
 491              		.loc 1 154 0
 492 0010 03B0     		add	sp, sp, #12
 493              		.cfi_remember_state
 494              		.cfi_def_cfa_offset 12
 495              		@ sp needed
 496 0012 30BD     		pop	{r4, r5, pc}
 497              	.LVL56:
 498              	.L30:
 499              		.cfi_restore_state
 500 0014 0446     		mov	r4, r0
 501              	.LVL57:
 502              	.LBB131:
 503              	.LBB132:
 504              		.loc 1 149 0
 505 0016 01AA     		add	r2, sp, #4
 506              	.LVL58:
 507 0018 6946     		mov	r1, sp
 508              	.LVL59:
 509 001a 0020     		movs	r0, #0
 510              	.LVL60:
 511 001c FFF7FEFF 		bl	chHeapStatus
 512              	.LVL61:
 513 0020 0546     		mov	r5, r0
ARM GAS  /tmp/ccBMeOhE.s 			page 10


 514              	.LVL62:
 515              		.loc 1 150 0
 516 0022 FFF7FEFF 		bl	chCoreGetStatusX
 517              	.LVL63:
 518 0026 0D49     		ldr	r1, .L33+8
 519 0028 0246     		mov	r2, r0
 520 002a 2046     		mov	r0, r4
 521 002c FFF7FEFF 		bl	chprintf
 522              	.LVL64:
 523              		.loc 1 151 0
 524 0030 2A46     		mov	r2, r5
 525 0032 0B49     		ldr	r1, .L33+12
 526 0034 2046     		mov	r0, r4
 527 0036 FFF7FEFF 		bl	chprintf
 528              	.LVL65:
 529              		.loc 1 152 0
 530 003a 009A     		ldr	r2, [sp]
 531 003c 0949     		ldr	r1, .L33+16
 532 003e 2046     		mov	r0, r4
 533 0040 FFF7FEFF 		bl	chprintf
 534              	.LVL66:
 535              		.loc 1 153 0
 536 0044 2046     		mov	r0, r4
 537 0046 019A     		ldr	r2, [sp, #4]
 538 0048 0749     		ldr	r1, .L33+20
 539 004a FFF7FEFF 		bl	chprintf
 540              	.LVL67:
 541              	.LBE132:
 542              	.LBE131:
 543              		.loc 1 154 0
 544 004e 03B0     		add	sp, sp, #12
 545              		.cfi_def_cfa_offset 12
 546              		@ sp needed
 547 0050 30BD     		pop	{r4, r5, pc}
 548              	.LVL68:
 549              	.L34:
 550 0052 00BF     		.align	2
 551              	.L33:
 552 0054 00000000 		.word	.LC28
 553 0058 08000000 		.word	.LC1
 554 005c 04000000 		.word	.LC29
 555 0060 24000000 		.word	.LC30
 556 0064 3C000000 		.word	.LC31
 557 0068 5C000000 		.word	.LC32
 558              		.cfi_endproc
 559              	.LFE330:
 560              		.size	cmd_mem, .-cmd_mem
 561              		.global	shell_local_commands
 562              		.section	.rodata.cmd_echo.str1.4,"aMS",%progbits,1
 563              		.align	2
 564              	.LC3:
 565 0000 6563686F 		.ascii	"echo \"message\"\000"
 565      20226D65 
 565      73736167 
 565      652200
 566 000f 00       		.space	1
 567              	.LC4:
ARM GAS  /tmp/ccBMeOhE.s 			page 11


 568 0010 25730D0A 		.ascii	"%s\015\012\000"
 568      00
 569              		.section	.rodata.cmd_info.str1.4,"aMS",%progbits,1
 570              		.align	2
 571              	.LC5:
 572 0000 696E666F 		.ascii	"info\000"
 572      00
 573 0005 000000   		.space	3
 574              	.LC6:
 575 0008 362E302E 		.ascii	"6.0.0\000"
 575      3000
 576 000e 0000     		.space	2
 577              	.LC7:
 578 0010 4B65726E 		.ascii	"Kernel:       %s\015\012\000"
 578      656C3A20 
 578      20202020 
 578      20202573 
 578      0D0A00
 579 0023 00       		.space	1
 580              	.LC8:
 581 0024 47434320 		.ascii	"GCC 7.3.1 20180622 (release) [ARM/embedded-7-branch"
 581      372E332E 
 581      31203230 
 581      31383036 
 581      32322028 
 582 0057 20726576 		.ascii	" revision 261907]\000"
 582      6973696F 
 582      6E203236 
 582      31393037 
 582      5D00
 583 0069 000000   		.space	3
 584              	.LC9:
 585 006c 436F6D70 		.ascii	"Compiler:     %s\015\012\000"
 585      696C6572 
 585      3A202020 
 585      20202573 
 585      0D0A00
 586 007f 00       		.space	1
 587              	.LC10:
 588 0080 41524D76 		.ascii	"ARMv7E-M\000"
 588      37452D4D 
 588      00
 589 0089 000000   		.space	3
 590              	.LC11:
 591 008c 41726368 		.ascii	"Architecture: %s\015\012\000"
 591      69746563 
 591      74757265 
 591      3A202573 
 591      0D0A00
 592 009f 00       		.space	1
 593              	.LC12:
 594 00a0 436F7274 		.ascii	"Cortex-M4F\000"
 594      65782D4D 
 594      344600
 595 00ab 00       		.space	1
 596              	.LC13:
 597 00ac 436F7265 		.ascii	"Core Variant: %s\015\012\000"
ARM GAS  /tmp/ccBMeOhE.s 			page 12


 597      20566172 
 597      69616E74 
 597      3A202573 
 597      0D0A00
 598 00bf 00       		.space	1
 599              	.LC14:
 600 00c0 41647661 		.ascii	"Advanced kernel mode\000"
 600      6E636564 
 600      206B6572 
 600      6E656C20 
 600      6D6F6465 
 601 00d5 000000   		.space	3
 602              	.LC15:
 603 00d8 506F7274 		.ascii	"Port Info:    %s\015\012\000"
 603      20496E66 
 603      6F3A2020 
 603      20202573 
 603      0D0A00
 604 00eb 00       		.space	1
 605              	.LC16:
 606 00ec 53544D33 		.ascii	"STM32F427 High Performance with DSP and FPU\000"
 606      32463432 
 606      37204869 
 606      67682050 
 606      6572666F 
 607              	.LC17:
 608 0118 506C6174 		.ascii	"Platform:     %s\015\012\000"
 608      666F726D 
 608      3A202020 
 608      20202573 
 608      0D0A00
 609 012b 00       		.space	1
 610              	.LC18:
 611 012c 524D3138 		.ascii	"RM18A\000"
 611      4100
 612 0132 0000     		.space	2
 613              	.LC19:
 614 0134 426F6172 		.ascii	"Board:        %s\015\012\000"
 614      643A2020 
 614      20202020 
 614      20202573 
 614      0D0A00
 615 0147 00       		.space	1
 616              	.LC20:
 617 0148 202D2000 		.ascii	" - \000"
 618              	.LC21:
 619 014c 4A756C20 		.ascii	"Jul  9 2019\000"
 619      20392032 
 619      30313900 
 620              	.LC22:
 621 0158 4275696C 		.ascii	"Build time:   %s%s%s\015\012\000"
 621      64207469 
 621      6D653A20 
 621      20202573 
 621      25732573 
 622 016f 00       		.space	1
 623              	.LC23:
ARM GAS  /tmp/ccBMeOhE.s 			page 13


 624 0170 31393A32 		.ascii	"19:29:50\000"
 624      393A3530 
 624      00
 625              		.section	.rodata.cmd_mem.str1.4,"aMS",%progbits,1
 626              		.align	2
 627              	.LC28:
 628 0000 6D656D00 		.ascii	"mem\000"
 629              	.LC29:
 630 0004 636F7265 		.ascii	"core free memory : %u bytes\015\012\000"
 630      20667265 
 630      65206D65 
 630      6D6F7279 
 630      203A2025 
 631 0022 0000     		.space	2
 632              	.LC30:
 633 0024 68656170 		.ascii	"heap fragments   : %u\015\012\000"
 633      20667261 
 633      676D656E 
 633      74732020 
 633      203A2025 
 634              	.LC31:
 635 003c 68656170 		.ascii	"heap free total  : %u bytes\015\012\000"
 635      20667265 
 635      6520746F 
 635      74616C20 
 635      203A2025 
 636 005a 0000     		.space	2
 637              	.LC32:
 638 005c 68656170 		.ascii	"heap free largest: %u bytes\015\012\000"
 638      20667265 
 638      65206C61 
 638      72676573 
 638      743A2025 
 639              		.section	.rodata.cmd_systime.str1.4,"aMS",%progbits,1
 640              		.align	2
 641              	.LC0:
 642 0000 73797374 		.ascii	"systime\000"
 642      696D6500 
 643              	.LC1:
 644 0008 55736167 		.ascii	"Usage: %s\015\012\000"
 644      653A2025 
 644      730D0A00 
 645              	.LC2:
 646 0014 256C750D 		.ascii	"%lu\015\012\000"
 646      0A00
 647              		.section	.rodata.cmd_threads.str1.4,"aMS",%progbits,1
 648              		.align	2
 649              	.LC24:
 650 0000 74687265 		.ascii	"threads\000"
 650      61647300 
 651              	.LC25:
 652 0008 73746B6C 		.ascii	"stklimit    stack     addr refs prio     state     "
 652      696D6974 
 652      20202020 
 652      73746163 
 652      6B202020 
 653 003b 20202020 		.ascii	"    name\015\012\015\012\000"
ARM GAS  /tmp/ccBMeOhE.s 			page 14


 653      6E616D65 
 653      0D0A0D0A 
 653      00
 654              	.LC26:
 655 0048 2530386C 		.ascii	"%08lx %08lx %08lx %4lu %4lu %9s %12s\015\012\000"
 655      78202530 
 655      386C7820 
 655      2530386C 
 655      78202534 
 656 006f 00       		.space	1
 657              	.LC27:
 658 0070 00       		.ascii	"\000"
 659              		.section	.rodata.shell_local_commands,"a",%progbits
 660              		.align	2
 661              		.type	shell_local_commands, %object
 662              		.size	shell_local_commands, 48
 663              	shell_local_commands:
 664 0000 00000000 		.word	.LC5
 665 0004 00000000 		.word	cmd_info
 666 0008 8C000000 		.word	.LC49
 667 000c 00000000 		.word	cmd_echo
 668 0010 00000000 		.word	.LC0
 669 0014 00000000 		.word	cmd_systime
 670 0018 00000000 		.word	.LC28
 671 001c 00000000 		.word	cmd_mem
 672 0020 00000000 		.word	.LC24
 673 0024 00000000 		.word	cmd_threads
 674 0028 00000000 		.word	0
 675 002c 00000000 		.word	0
 676              		.section	.rodata.states.10383,"a",%progbits
 677              		.align	2
 678              		.set	.LANCHOR0,. + 0
 679              		.type	states.10383, %object
 680              		.size	states.10383, 64
 681              	states.10383:
 682 0000 00000000 		.word	.LC33
 683 0004 08000000 		.word	.LC34
 684 0008 10000000 		.word	.LC35
 685 000c 18000000 		.word	.LC36
 686 0010 24000000 		.word	.LC37
 687 0014 2C000000 		.word	.LC38
 688 0018 34000000 		.word	.LC39
 689 001c 3C000000 		.word	.LC40
 690 0020 44000000 		.word	.LC41
 691 0024 50000000 		.word	.LC42
 692 0028 58000000 		.word	.LC43
 693 002c 60000000 		.word	.LC44
 694 0030 6C000000 		.word	.LC45
 695 0034 74000000 		.word	.LC46
 696 0038 7C000000 		.word	.LC47
 697 003c 84000000 		.word	.LC48
 698              		.section	.rodata.str1.4,"aMS",%progbits,1
 699              		.align	2
 700              	.LC33:
 701 0000 52454144 		.ascii	"READY\000"
 701      5900
 702 0006 0000     		.space	2
ARM GAS  /tmp/ccBMeOhE.s 			page 15


 703              	.LC34:
 704 0008 43555252 		.ascii	"CURRENT\000"
 704      454E5400 
 705              	.LC35:
 706 0010 57545354 		.ascii	"WTSTART\000"
 706      41525400 
 707              	.LC36:
 708 0018 53555350 		.ascii	"SUSPENDED\000"
 708      454E4445 
 708      4400
 709 0022 0000     		.space	2
 710              	.LC37:
 711 0024 51554555 		.ascii	"QUEUED\000"
 711      454400
 712 002b 00       		.space	1
 713              	.LC38:
 714 002c 57545345 		.ascii	"WTSEM\000"
 714      4D00
 715 0032 0000     		.space	2
 716              	.LC39:
 717 0034 57544D54 		.ascii	"WTMTX\000"
 717      5800
 718 003a 0000     		.space	2
 719              	.LC40:
 720 003c 5754434F 		.ascii	"WTCOND\000"
 720      4E4400
 721 0043 00       		.space	1
 722              	.LC41:
 723 0044 534C4545 		.ascii	"SLEEPING\000"
 723      50494E47 
 723      00
 724 004d 000000   		.space	3
 725              	.LC42:
 726 0050 57544558 		.ascii	"WTEXIT\000"
 726      495400
 727 0057 00       		.space	1
 728              	.LC43:
 729 0058 57544F52 		.ascii	"WTOREVT\000"
 729      45565400 
 730              	.LC44:
 731 0060 5754414E 		.ascii	"WTANDEVT\000"
 731      44455654 
 731      00
 732 0069 000000   		.space	3
 733              	.LC45:
 734 006c 534E444D 		.ascii	"SNDMSGQ\000"
 734      53475100 
 735              	.LC46:
 736 0074 534E444D 		.ascii	"SNDMSG\000"
 736      534700
 737 007b 00       		.space	1
 738              	.LC47:
 739 007c 57544D53 		.ascii	"WTMSG\000"
 739      4700
 740 0082 0000     		.space	2
 741              	.LC48:
 742 0084 46494E41 		.ascii	"FINAL\000"
ARM GAS  /tmp/ccBMeOhE.s 			page 16


 742      4C00
 743 008a 0000     		.space	2
 744              	.LC49:
 745 008c 6563686F 		.ascii	"echo\000"
 745      00
 746              		.text
 747              	.Letext0:
 748              		.file 4 "/usr/lib/gcc/arm-none-eabi/7.3.1/include/stddef.h"
 749              		.file 5 "/usr/arm-none-eabi/include/machine/_default_types.h"
 750              		.file 6 "/usr/arm-none-eabi/include/sys/lock.h"
 751              		.file 7 "/usr/arm-none-eabi/include/sys/_types.h"
 752              		.file 8 "/usr/arm-none-eabi/include/sys/reent.h"
 753              		.file 9 "/usr/arm-none-eabi/include/sys/_stdint.h"
 754              		.file 10 "./RM18A-ChibiOS18-Core/chibios/os/common/ports/ARMCMx/compilers/GCC/chtypes.h"
 755              		.file 11 "./RM18A-ChibiOS18-Core/chibios/os/rt/include/chsystypes.h"
 756              		.file 12 "./RM18A-ChibiOS18-Core/chibios/os/rt/include/chschd.h"
 757              		.file 13 "./RM18A-ChibiOS18-Core/chibios/os/rt/include/chtime.h"
 758              		.file 14 "./RM18A-ChibiOS18-Core/chibios/os/common/ext/ARM/CMSIS/Core/Include/core_cm4.h"
 759              		.file 15 "./RM18A-ChibiOS18-Core/chibios/os/common/ext/ST/STM32F4xx/system_stm32f4xx.h"
 760              		.file 16 "./RM18A-ChibiOS18-Core/chibios/os/common/ext/ST/STM32F4xx/stm32f427xx.h"
 761              		.file 17 "./RM18A-ChibiOS18-Core/chibios/os/common/ports/ARMCMx/chcore.h"
 762              		.file 18 "./RM18A-ChibiOS18-Core/chibios/os/common/ports/ARMCMx/chcore_v7m.h"
 763              		.file 19 "./RM18A-ChibiOS18-Core/chibios/os/hal/ports/STM32/LLD/TIMv1/stm32_tim.h"
 764              		.file 20 "./RM18A-ChibiOS18-Core/chibios/os/rt/include/chtm.h"
 765              		.file 21 "./RM18A-ChibiOS18-Core/chibios/os/rt/include/chsem.h"
 766              		.file 22 "./RM18A-ChibiOS18-Core/chibios/os/rt/include/chmtx.h"
 767              		.file 23 "./RM18A-ChibiOS18-Core/chibios/os/rt/include/chsys.h"
 768              		.file 24 "./RM18A-ChibiOS18-Core/chibios/os/rt/include/chregistry.h"
 769              		.file 25 "./RM18A-ChibiOS18-Core/chibios/os/rt/include/chevents.h"
 770              		.file 26 "./RM18A-ChibiOS18-Core/chibios/os/oslib/include/chmemcore.h"
 771              		.file 27 "./RM18A-ChibiOS18-Core/chibios/os/oslib/include/chmempools.h"
 772              		.file 28 "./RM18A-ChibiOS18-Core/chibios/os/oslib/include/chfactory.h"
 773              		.file 29 "./RM18A-ChibiOS18-Core/chibios/os/hal/ports/STM32/LLD/DMAv2/stm32_dma.h"
 774              		.file 30 "./RM18A-ChibiOS18-Core/chibios/os/hal/include/hal_streams.h"
 775              		.file 31 "./RM18A-ChibiOS18-Core/chibios/os/hal/include/hal_queues.h"
 776              		.file 32 "./RM18A-ChibiOS18-Core/chibios/os/hal/include/hal_pal.h"
 777              		.file 33 "./RM18A-ChibiOS18-Core/chibios/os/hal/ports/STM32/LLD/GPIOv2/hal_pal_lld.h"
 778              		.file 34 "./RM18A-ChibiOS18-Core/chibios/os/hal/include/hal_adc.h"
 779              		.file 35 "./RM18A-ChibiOS18-Core/chibios/os/hal/ports/STM32/LLD/ADCv2/hal_adc_lld.h"
 780              		.file 36 "./RM18A-ChibiOS18-Core/chibios/os/hal/include/hal_can.h"
 781              		.file 37 "./RM18A-ChibiOS18-Core/chibios/os/hal/ports/STM32/LLD/CANv1/hal_can_lld.h"
 782              		.file 38 "./RM18A-ChibiOS18-Core/chibios/os/hal/include/hal_i2c.h"
 783              		.file 39 "./RM18A-ChibiOS18-Core/chibios/os/hal/lib/fallback/I2C/hal_i2c_lld.h"
 784              		.file 40 "./RM18A-ChibiOS18-Core/chibios/os/hal/include/hal_icu.h"
 785              		.file 41 "./RM18A-ChibiOS18-Core/chibios/os/hal/ports/STM32/LLD/TIMv1/hal_icu_lld.h"
 786              		.file 42 "./RM18A-ChibiOS18-Core/chibios/os/hal/include/hal_pwm.h"
 787              		.file 43 "./RM18A-ChibiOS18-Core/chibios/os/hal/ports/STM32/LLD/TIMv1/hal_pwm_lld.h"
 788              		.file 44 "./RM18A-ChibiOS18-Core/chibios/os/hal/include/hal_serial.h"
 789              		.file 45 "./RM18A-ChibiOS18-Core/chibios/os/hal/ports/STM32/LLD/USARTv1/hal_serial_lld.h"
 790              		.file 46 "./RM18A-ChibiOS18-Core/chibios/os/hal/include/hal_spi.h"
 791              		.file 47 "./RM18A-ChibiOS18-Core/chibios/os/hal/ports/STM32/LLD/SPIv1/hal_spi_lld.h"
 792              		.file 48 "./RM18A-ChibiOS18-Core/chibios/os/hal/include/hal_uart.h"
 793              		.file 49 "./RM18A-ChibiOS18-Core/chibios/os/hal/ports/STM32/LLD/USARTv1/hal_uart_lld.h"
 794              		.file 50 "./RM18A-ChibiOS18-Core/chibios/os/hal/include/hal_usb.h"
 795              		.file 51 "./RM18A-ChibiOS18-Core/chibios/os/hal/ports/STM32/LLD/OTGv1/hal_usb_lld.h"
 796              		.file 52 "./RM18A-ChibiOS18-Core/chibios/os/hal/ports/STM32/LLD/OTGv1/stm32_otg.h"
 797              		.file 53 "./RM18A-ChibiOS18-Core/src/shell/shell.h"
ARM GAS  /tmp/ccBMeOhE.s 			page 17


 798              		.file 54 "./RM18A-ChibiOS18-Core/src/shell/shell_cmd.h"
 799              		.file 55 "./RM18A-ChibiOS18-Core/chibios/os/rt/include/chvt.h"
 800              		.file 56 "./RM18A-ChibiOS18-Core/chibios/os/common/ports/ARMCMx/chcore_timer.h"
 801              		.file 57 "./RM18A-ChibiOS18-Core/chibios/os/hal/lib/streams/chprintf.h"
 802              		.file 58 "./RM18A-ChibiOS18-Core/chibios/os/oslib/include/chmemheaps.h"