ARM GAS  /tmp/ccrSYUXO.s 			page 1


   1              		.cpu cortex-m4
   2              		.eabi_attribute 27, 1
   3              		.eabi_attribute 28, 1
   4              		.eabi_attribute 20, 1
   5              		.eabi_attribute 21, 1
   6              		.eabi_attribute 23, 3
   7              		.eabi_attribute 24, 1
   8              		.eabi_attribute 25, 1
   9              		.eabi_attribute 26, 1
  10              		.eabi_attribute 30, 2
  11              		.eabi_attribute 34, 1
  12              		.eabi_attribute 18, 4
  13              		.file	"ShellManager.c"
  14              		.text
  15              	.Ltext0:
  16              		.cfi_sections	.debug_frame
  17              		.section	.text.shellWatchdog,"ax",%progbits
  18              		.align	1
  19              		.p2align 2,,3
  20              		.global	shellWatchdog
  21              		.syntax unified
  22              		.thumb
  23              		.thumb_func
  24              		.fpu fpv4-sp-d16
  25              		.type	shellWatchdog, %function
  26              	shellWatchdog:
  27              	.LFB330:
  28              		.file 1 "./RM18A-ChibiOS18-Core/src/ShellManager.c"
  29              		.loc 1 30 0
  30              		.cfi_startproc
  31              		@ args = 0, pretend = 0, frame = 0
  32              		@ frame_needed = 0, uses_anonymous_args = 0
  33              	.LVL0:
  34 0000 F0B5     		push	{r4, r5, r6, r7, lr}
  35              		.cfi_def_cfa_offset 20
  36              		.cfi_offset 4, -20
  37              		.cfi_offset 5, -16
  38              		.cfi_offset 6, -12
  39              		.cfi_offset 7, -8
  40              		.cfi_offset 14, -4
  41              	.LBB10:
  42              	.LBB11:
  43              		.file 2 "./RM18A-ChibiOS18-Core/chibios/os/rt/include/chregistry.h"
  44              		.loc 2 136 0
  45 0002 0F4C     		ldr	r4, .L8
  46 0004 0F49     		ldr	r1, .L8+4
  47 0006 A369     		ldr	r3, [r4, #24]
  48              	.LBE11:
  49              	.LBE10:
  50              		.loc 1 33 0
  51 0008 93F82120 		ldrb	r2, [r3, #33]	@ zero_extendqisi2
  52              	.LBB13:
  53              	.LBB12:
  54              		.loc 2 136 0
  55 000c 9961     		str	r1, [r3, #24]
  56              	.LBE12:
  57              	.LBE13:
ARM GAS  /tmp/ccrSYUXO.s 			page 2


  58              		.loc 1 33 0
  59 000e 5207     		lsls	r2, r2, #29
  60              		.loc 1 30 0
  61 0010 83B0     		sub	sp, sp, #12
  62              		.cfi_def_cfa_offset 32
  63              		.loc 1 33 0
  64 0012 12D4     		bmi	.L1
  65 0014 0C4F     		ldr	r7, .L8+8
  66 0016 0D4E     		ldr	r6, .L8+12
  67              		.loc 1 35 0
  68 0018 0D4D     		ldr	r5, .L8+16
  69              	.LVL1:
  70              	.L3:
  71 001a 8123     		movs	r3, #129
  72 001c 2A46     		mov	r2, r5
  73 001e 4FF41561 		mov	r1, #2384
  74 0022 CDE90067 		strd	r6, r7, [sp]
  75 0026 0020     		movs	r0, #0
  76 0028 FFF7FEFF 		bl	chThdCreateFromHeap
  77              	.LVL2:
  78 002c FFF7FEFF 		bl	chThdWait
  79              	.LVL3:
  80              	.LBB14:
  81              	.LBB15:
  82              		.file 3 "./RM18A-ChibiOS18-Core/chibios/os/rt/include/chthreads.h"
  83              		.loc 3 347 0
  84 0030 A369     		ldr	r3, [r4, #24]
  85              	.LBE15:
  86              	.LBE14:
  87              		.loc 1 33 0
  88 0032 93F82130 		ldrb	r3, [r3, #33]	@ zero_extendqisi2
  89 0036 5B07     		lsls	r3, r3, #29
  90 0038 EFD5     		bpl	.L3
  91              	.L1:
  92              		.loc 1 41 0
  93 003a 03B0     		add	sp, sp, #12
  94              		.cfi_def_cfa_offset 20
  95              		@ sp needed
  96 003c F0BD     		pop	{r4, r5, r6, r7, pc}
  97              	.L9:
  98 003e 00BF     		.align	2
  99              	.L8:
 100 0040 00000000 		.word	ch
 101 0044 00000000 		.word	.LC0
 102 0048 00000000 		.word	.LANCHOR0
 103 004c 00000000 		.word	shellThread
 104 0050 10000000 		.word	.LC1
 105              		.cfi_endproc
 106              	.LFE330:
 107              		.size	shellWatchdog, .-shellWatchdog
 108              		.section	.text.ShellManager_start,"ax",%progbits
 109              		.align	1
 110              		.p2align 2,,3
 111              		.global	ShellManager_start
 112              		.syntax unified
 113              		.thumb
 114              		.thumb_func
ARM GAS  /tmp/ccrSYUXO.s 			page 3


 115              		.fpu fpv4-sp-d16
 116              		.type	ShellManager_start, %function
 117              	ShellManager_start:
 118              	.LFB331:
 119              		.loc 1 50 0
 120              		.cfi_startproc
 121              		@ args = 0, pretend = 0, frame = 0
 122              		@ frame_needed = 0, uses_anonymous_args = 0
 123              	.LVL4:
 124 0000 10B5     		push	{r4, lr}
 125              		.cfi_def_cfa_offset 8
 126              		.cfi_offset 4, -8
 127              		.cfi_offset 14, -4
 128              		.loc 1 51 0
 129 0002 0A4B     		ldr	r3, .L14
 130              		.loc 1 53 0
 131 0004 0A4C     		ldr	r4, .L14+4
 132              		.loc 1 51 0
 133 0006 5860     		str	r0, [r3, #4]
 134              		.loc 1 50 0
 135 0008 82B0     		sub	sp, sp, #8
 136              		.cfi_def_cfa_offset 16
 137              		.loc 1 52 0
 138 000a FFF7FEFF 		bl	shellInit
 139              	.LVL5:
 140              		.loc 1 53 0
 141 000e 2368     		ldr	r3, [r4]
 142 0010 0BB1     		cbz	r3, .L13
 143              		.loc 1 59 0
 144 0012 02B0     		add	sp, sp, #8
 145              		.cfi_remember_state
 146              		.cfi_def_cfa_offset 8
 147              		@ sp needed
 148 0014 10BD     		pop	{r4, pc}
 149              	.L13:
 150              		.cfi_restore_state
 151              		.loc 1 54 0
 152 0016 0093     		str	r3, [sp]
 153 0018 8022     		movs	r2, #128
 154 001a 064B     		ldr	r3, .L14+8
 155 001c 0648     		ldr	r0, .L14+12
 156 001e 4FF4C871 		mov	r1, #400
 157 0022 FFF7FEFF 		bl	chThdCreateStatic
 158              	.LVL6:
 159 0026 2060     		str	r0, [r4]
 160              		.loc 1 59 0
 161 0028 02B0     		add	sp, sp, #8
 162              		.cfi_def_cfa_offset 8
 163              		@ sp needed
 164 002a 10BD     		pop	{r4, pc}
 165              	.L15:
 166              		.align	2
 167              	.L14:
 168 002c 00000000 		.word	.LANCHOR0
 169 0030 00000000 		.word	.LANCHOR1
 170 0034 00000000 		.word	shellWatchdog
 171 0038 00000000 		.word	.LANCHOR2
ARM GAS  /tmp/ccrSYUXO.s 			page 4


 172              		.cfi_endproc
 173              	.LFE331:
 174              		.size	ShellManager_start, .-ShellManager_start
 175              		.global	shellWatchdog_wa
 176              		.section	.bss.p_shellWatchdogThd,"aw",%nobits
 177              		.align	2
 178              		.set	.LANCHOR1,. + 0
 179              		.type	p_shellWatchdogThd, %object
 180              		.size	p_shellWatchdogThd, 4
 181              	p_shellWatchdogThd:
 182 0000 00000000 		.space	4
 183              		.section	.bss.shellWatchdog_wa,"aw",%nobits
 184              		.align	3
 185              		.set	.LANCHOR2,. + 0
 186              		.type	shellWatchdog_wa, %object
 187              		.size	shellWatchdog_wa, 400
 188              	shellWatchdog_wa:
 189 0000 00000000 		.space	400
 189      00000000 
 189      00000000 
 189      00000000 
 189      00000000 
 190              		.section	.data.shell_cfg,"aw",%progbits
 191              		.align	2
 192              		.set	.LANCHOR0,. + 0
 193              		.type	shell_cfg, %object
 194              		.size	shell_cfg, 8
 195              	shell_cfg:
 196 0000 00000000 		.word	SDU1
 197 0004 00000000 		.word	0
 198              		.section	.rodata.shellWatchdog.str1.4,"aMS",%progbits,1
 199              		.align	2
 200              	.LC0:
 201 0000 7368656C 		.ascii	"shellWatchdog\000"
 201      6C576174 
 201      6368646F 
 201      6700
 202 000e 0000     		.space	2
 203              	.LC1:
 204 0010 7368656C 		.ascii	"shell\000"
 204      6C00
 205              		.text
 206              	.Letext0:
 207              		.file 4 "/usr/lib/gcc/arm-none-eabi/7.3.1/include/stddef.h"
 208              		.file 5 "/usr/arm-none-eabi/include/machine/_default_types.h"
 209              		.file 6 "/usr/arm-none-eabi/include/sys/_stdint.h"
 210              		.file 7 "./RM18A-ChibiOS18-Core/chibios/os/common/ports/ARMCMx/compilers/GCC/chtypes.h"
 211              		.file 8 "./RM18A-ChibiOS18-Core/chibios/os/rt/include/chsystypes.h"
 212              		.file 9 "./RM18A-ChibiOS18-Core/chibios/os/rt/include/chschd.h"
 213              		.file 10 "./RM18A-ChibiOS18-Core/chibios/os/rt/include/chtime.h"
 214              		.file 11 "./RM18A-ChibiOS18-Core/chibios/os/common/ext/ARM/CMSIS/Core/Include/core_cm4.h"
 215              		.file 12 "./RM18A-ChibiOS18-Core/chibios/os/common/ext/ST/STM32F4xx/system_stm32f4xx.h"
 216              		.file 13 "./RM18A-ChibiOS18-Core/chibios/os/common/ext/ST/STM32F4xx/stm32f427xx.h"
 217              		.file 14 "./RM18A-ChibiOS18-Core/chibios/os/common/ports/ARMCMx/chcore.h"
 218              		.file 15 "./RM18A-ChibiOS18-Core/chibios/os/common/ports/ARMCMx/chcore_v7m.h"
 219              		.file 16 "./RM18A-ChibiOS18-Core/chibios/os/hal/ports/STM32/LLD/TIMv1/stm32_tim.h"
 220              		.file 17 "./RM18A-ChibiOS18-Core/chibios/os/rt/include/chtm.h"
ARM GAS  /tmp/ccrSYUXO.s 			page 5


 221              		.file 18 "./RM18A-ChibiOS18-Core/chibios/os/rt/include/chsem.h"
 222              		.file 19 "./RM18A-ChibiOS18-Core/chibios/os/rt/include/chmtx.h"
 223              		.file 20 "./RM18A-ChibiOS18-Core/chibios/os/rt/include/chsys.h"
 224              		.file 21 "./RM18A-ChibiOS18-Core/chibios/os/rt/include/chevents.h"
 225              		.file 22 "./RM18A-ChibiOS18-Core/chibios/os/oslib/include/chmemcore.h"
 226              		.file 23 "./RM18A-ChibiOS18-Core/chibios/os/oslib/include/chmempools.h"
 227              		.file 24 "./RM18A-ChibiOS18-Core/chibios/os/oslib/include/chfactory.h"
 228              		.file 25 "./RM18A-ChibiOS18-Core/chibios/os/hal/ports/STM32/LLD/DMAv2/stm32_dma.h"
 229              		.file 26 "./RM18A-ChibiOS18-Core/chibios/os/hal/include/hal_streams.h"
 230              		.file 27 "./RM18A-ChibiOS18-Core/chibios/os/hal/include/hal_buffers.h"
 231              		.file 28 "./RM18A-ChibiOS18-Core/chibios/os/hal/include/hal_queues.h"
 232              		.file 29 "./RM18A-ChibiOS18-Core/chibios/os/hal/include/hal_pal.h"
 233              		.file 30 "./RM18A-ChibiOS18-Core/chibios/os/hal/ports/STM32/LLD/GPIOv2/hal_pal_lld.h"
 234              		.file 31 "./RM18A-ChibiOS18-Core/chibios/os/hal/include/hal_adc.h"
 235              		.file 32 "./RM18A-ChibiOS18-Core/chibios/os/hal/ports/STM32/LLD/ADCv2/hal_adc_lld.h"
 236              		.file 33 "./RM18A-ChibiOS18-Core/chibios/os/hal/include/hal_can.h"
 237              		.file 34 "./RM18A-ChibiOS18-Core/chibios/os/hal/ports/STM32/LLD/CANv1/hal_can_lld.h"
 238              		.file 35 "./RM18A-ChibiOS18-Core/chibios/os/hal/include/hal_i2c.h"
 239              		.file 36 "./RM18A-ChibiOS18-Core/chibios/os/hal/ports/STM32/LLD/I2Cv1/hal_i2c_lld.h"
 240              		.file 37 "./RM18A-ChibiOS18-Core/chibios/os/hal/include/hal_pwm.h"
 241              		.file 38 "./RM18A-ChibiOS18-Core/chibios/os/hal/ports/STM32/LLD/TIMv1/hal_pwm_lld.h"
 242              		.file 39 "./RM18A-ChibiOS18-Core/chibios/os/hal/include/hal_serial.h"
 243              		.file 40 "./RM18A-ChibiOS18-Core/chibios/os/hal/ports/STM32/LLD/USARTv1/hal_serial_lld.h"
 244              		.file 41 "./RM18A-ChibiOS18-Core/chibios/os/hal/include/hal_spi.h"
 245              		.file 42 "./RM18A-ChibiOS18-Core/chibios/os/hal/ports/STM32/LLD/SPIv1/hal_spi_lld.h"
 246              		.file 43 "./RM18A-ChibiOS18-Core/chibios/os/hal/include/hal_uart.h"
 247              		.file 44 "./RM18A-ChibiOS18-Core/chibios/os/hal/ports/STM32/LLD/USARTv1/hal_uart_lld.h"
 248              		.file 45 "./RM18A-ChibiOS18-Core/chibios/os/hal/include/hal_usb.h"
 249              		.file 46 "./RM18A-ChibiOS18-Core/chibios/os/hal/ports/STM32/LLD/OTGv1/hal_usb_lld.h"
 250              		.file 47 "./RM18A-ChibiOS18-Core/chibios/os/hal/ports/STM32/LLD/OTGv1/stm32_otg.h"
 251              		.file 48 "./RM18A-ChibiOS18-Core/chibios/os/hal/include/hal_serial_usb.h"
 252              		.file 49 "./RM18A-ChibiOS18-Core/src/shell/shell.h"
 253              		.file 50 "./RM18A-ChibiOS18-Core/src/peripherals/usbcfg.h"
 254              		.file 51 "/usr/arm-none-eabi/include/sys/lock.h"
 255              		.file 52 "/usr/arm-none-eabi/include/sys/_types.h"
 256              		.file 53 "/usr/arm-none-eabi/include/sys/reent.h"
 257              		.file 54 "./RM18A-ChibiOS18-Core/src/ext_hw/DR16.h"
 258              		.file 55 "./RM18A-ChibiOS18-Core/chibios/os/rt/include/chdynamic.h"