ARM GAS  /tmp/cczwUSEm.s 			page 1


   1              		.cpu cortex-m4
   2              		.eabi_attribute 27, 1
   3              		.eabi_attribute 28, 1
   4              		.eabi_attribute 20, 1
   5              		.eabi_attribute 21, 1
   6              		.eabi_attribute 23, 3
   7              		.eabi_attribute 24, 1
   8              		.eabi_attribute 25, 1
   9              		.eabi_attribute 26, 1
  10              		.eabi_attribute 30, 2
  11              		.eabi_attribute 34, 1
  12              		.eabi_attribute 18, 4
  13              		.file	"shellApp.cpp"
  14              		.text
  15              	.Ltext0:
  16              		.cfi_sections	.debug_frame
  17              		.section	.text._Z13testCRC_ResetP20BaseSequentialStreamiPPc,"ax",%progbits
  18              		.align	1
  19              		.p2align 2,,3
  20              		.global	_Z13testCRC_ResetP20BaseSequentialStreamiPPc
  21              		.syntax unified
  22              		.thumb
  23              		.thumb_func
  24              		.fpu fpv4-sp-d16
  25              		.type	_Z13testCRC_ResetP20BaseSequentialStreamiPPc, %function
  26              	_Z13testCRC_ResetP20BaseSequentialStreamiPPc:
  27              	.LFB340:
  28              		.file 1 "shellApp.cpp"
  29              		.loc 1 86 0
  30              		.cfi_startproc
  31              		@ args = 0, pretend = 0, frame = 0
  32              		@ frame_needed = 0, uses_anonymous_args = 0
  33              		@ link register save eliminated.
  34              	.LVL0:
  35              	.LBB22:
  36              	.LBB23:
  37              		.file 2 "./RM18A-ChibiOS18-Core/src/peripherals/CRC.h"
  38              		.loc 2 55 0
  39 0000 024A     		ldr	r2, .L3
  40              	.LVL1:
  41 0002 1368     		ldr	r3, [r2]
  42 0004 43F00103 		orr	r3, r3, #1
  43 0008 1360     		str	r3, [r2]
  44              	.LBE23:
  45              	.LBE22:
  46              		.loc 1 88 0
  47 000a 7047     		bx	lr
  48              	.L4:
  49              		.align	2
  50              	.L3:
  51 000c 08300240 		.word	1073885192
  52              		.cfi_endproc
  53              	.LFE340:
  54              		.size	_Z13testCRC_ResetP20BaseSequentialStreamiPPc, .-_Z13testCRC_ResetP20BaseSequentialStreamiPPc
  55              		.section	.text._Z15testFlashAppendP20BaseSequentialStreamiPPc,"ax",%progbits
  56              		.align	1
  57              		.p2align 2,,3
ARM GAS  /tmp/cczwUSEm.s 			page 2


  58              		.global	_Z15testFlashAppendP20BaseSequentialStreamiPPc
  59              		.syntax unified
  60              		.thumb
  61              		.thumb_func
  62              		.fpu fpv4-sp-d16
  63              		.type	_Z15testFlashAppendP20BaseSequentialStreamiPPc, %function
  64              	_Z15testFlashAppendP20BaseSequentialStreamiPPc:
  65              	.LFB338:
  66              		.loc 1 73 0
  67              		.cfi_startproc
  68              		@ args = 0, pretend = 0, frame = 0
  69              		@ frame_needed = 0, uses_anonymous_args = 0
  70              		@ link register save eliminated.
  71              	.LVL2:
  72              		.loc 1 74 0
  73 0000 0029     		cmp	r1, #0
  74 0002 00DD     		ble	.L7
  75              		.loc 1 78 0
  76 0004 7047     		bx	lr
  77              	.L7:
  78              		.loc 1 77 0
  79 0006 0149     		ldr	r1, .L8
  80              	.LVL3:
  81 0008 FFF7FEBF 		b	chprintf
  82              	.LVL4:
  83              	.L9:
  84              		.align	2
  85              	.L8:
  86 000c 00000000 		.word	.LC0
  87              		.cfi_endproc
  88              	.LFE338:
  89              		.size	_Z15testFlashAppendP20BaseSequentialStreamiPPc, .-_Z15testFlashAppendP20BaseSequentialStream
  90              		.section	.text._Z11shellLoggerPv,"ax",%progbits
  91              		.align	1
  92              		.p2align 2,,3
  93              		.global	_Z11shellLoggerPv
  94              		.syntax unified
  95              		.thumb
  96              		.thumb_func
  97              		.fpu fpv4-sp-d16
  98              		.type	_Z11shellLoggerPv, %function
  99              	_Z11shellLoggerPv:
 100              	.LFB335:
 101              		.loc 1 22 0
 102              		.cfi_startproc
 103              		@ args = 0, pretend = 0, frame = 0
 104              		@ frame_needed = 0, uses_anonymous_args = 0
 105              	.LVL5:
 106 0000 2DE9F043 		push	{r4, r5, r6, r7, r8, r9, lr}
 107              		.cfi_def_cfa_offset 28
 108              		.cfi_offset 4, -28
 109              		.cfi_offset 5, -24
 110              		.cfi_offset 6, -20
 111              		.cfi_offset 7, -16
 112              		.cfi_offset 8, -12
 113              		.cfi_offset 9, -8
 114              		.cfi_offset 14, -4
ARM GAS  /tmp/cczwUSEm.s 			page 3


 115              	.LBB24:
 116              	.LBB25:
 117              		.file 3 "./RM18A-ChibiOS18-Core/chibios/os/rt/include/chregistry.h"
 118              		.loc 3 136 0
 119 0004 1A4E     		ldr	r6, .L25
 120 0006 1B49     		ldr	r1, .L25+4
 121 0008 B369     		ldr	r3, [r6, #24]
 122              	.LBE25:
 123              	.LBE24:
 124              		.loc 1 26 0
 125 000a 93F82120 		ldrb	r2, [r3, #33]	@ zero_extendqisi2
 126              	.LBB27:
 127              	.LBB26:
 128              		.loc 3 136 0
 129 000e 9961     		str	r1, [r3, #24]
 130              	.LBE26:
 131              	.LBE27:
 132              		.loc 1 26 0
 133 0010 5207     		lsls	r2, r2, #29
 134              		.loc 1 22 0
 135 0012 85B0     		sub	sp, sp, #20
 136              		.cfi_def_cfa_offset 48
 137              		.loc 1 26 0
 138 0014 29D4     		bmi	.L10
 139 0016 184F     		ldr	r7, .L25+8
 140              		.loc 1 44 0
 141 0018 DFF86C80 		ldr	r8, .L25+24
 142 001c 174D     		ldr	r5, .L25+12
 143              		.loc 1 37 0
 144 001e 184C     		ldr	r4, .L25+16
 145 0020 1AE0     		b	.L11
 146              	.LVL6:
 147              	.L24:
 148 0022 2288     		ldrh	r2, [r4]
 149              		.loc 1 38 0
 150 0024 6388     		ldrh	r3, [r4, #2]
 151              		.loc 1 39 0
 152 0026 B4F804C0 		ldrh	ip, [r4, #4]
 153              		.loc 1 40 0
 154 002a B4F80690 		ldrh	r9, [r4, #6]
 155              		.loc 1 41 0
 156 002e 94F808E0 		ldrb	lr, [r4, #8]	@ zero_extendqisi2
 157              		.loc 1 35 0
 158 0032 CDF800C0 		str	ip, [sp]
 159              		.loc 1 42 0
 160 0036 94F809C0 		ldrb	ip, [r4, #9]	@ zero_extendqisi2
 161              		.loc 1 35 0
 162 003a CDF80CC0 		str	ip, [sp, #12]
 163 003e CDE9019E 		strd	r9, lr, [sp, #4]
 164 0042 FFF7FEFF 		bl	chprintf
 165              	.LVL7:
 166              	.L23:
 167              		.loc 1 47 0
 168 0046 44F62060 		movw	r0, #20000
 169 004a FFF7FEFF 		bl	chThdSleep
 170              	.LVL8:
 171              	.LBB28:
ARM GAS  /tmp/cczwUSEm.s 			page 4


 172              	.LBB29:
 173              		.file 4 "./RM18A-ChibiOS18-Core/chibios/os/rt/include/chthreads.h"
 174              		.loc 4 347 0
 175 004e B369     		ldr	r3, [r6, #24]
 176              	.LBE29:
 177              	.LBE28:
 178              		.loc 1 26 0
 179 0050 93F82130 		ldrb	r3, [r3, #33]	@ zero_extendqisi2
 180 0054 5B07     		lsls	r3, r3, #29
 181 0056 08D4     		bmi	.L10
 182              	.L11:
 183              		.loc 1 34 0
 184 0058 3B78     		ldrb	r3, [r7]	@ zero_extendqisi2
 185              		.loc 1 35 0
 186 005a 0A49     		ldr	r1, .L25+20
 187 005c 2846     		mov	r0, r5
 188              		.loc 1 34 0
 189 005e 002B     		cmp	r3, #0
 190 0060 DFD1     		bne	.L24
 191              		.loc 1 44 0
 192 0062 4146     		mov	r1, r8
 193 0064 FFF7FEFF 		bl	chprintf
 194              	.LVL9:
 195 0068 EDE7     		b	.L23
 196              	.L10:
 197              		.loc 1 49 0
 198 006a 05B0     		add	sp, sp, #20
 199              		.cfi_def_cfa_offset 28
 200              		@ sp needed
 201 006c BDE8F083 		pop	{r4, r5, r6, r7, r8, r9, pc}
 202              	.L26:
 203              		.align	2
 204              	.L25:
 205 0070 00000000 		.word	ch
 206 0074 00000000 		.word	.LC1
 207 0078 00000000 		.word	g_DR16_isConnected
 208 007c 00000000 		.word	SDU1
 209 0080 00000000 		.word	g_DR16_RC_Value
 210 0084 14000000 		.word	.LC2
 211 0088 48000000 		.word	.LC3
 212              		.cfi_endproc
 213              	.LFE335:
 214              		.size	_Z11shellLoggerPv, .-_Z11shellLoggerPv
 215              		.section	.text._Z13testFlashOpenP20BaseSequentialStreamiPPc,"ax",%progbits
 216              		.align	1
 217              		.p2align 2,,3
 218              		.global	_Z13testFlashOpenP20BaseSequentialStreamiPPc
 219              		.syntax unified
 220              		.thumb
 221              		.thumb_func
 222              		.fpu fpv4-sp-d16
 223              		.type	_Z13testFlashOpenP20BaseSequentialStreamiPPc, %function
 224              	_Z13testFlashOpenP20BaseSequentialStreamiPPc:
 225              	.LFB337:
 226              		.loc 1 68 0
 227              		.cfi_startproc
 228              		@ args = 0, pretend = 0, frame = 0
ARM GAS  /tmp/cczwUSEm.s 			page 5


 229              		@ frame_needed = 0, uses_anonymous_args = 0
 230              		@ link register save eliminated.
 231              	.LVL10:
 232              		.loc 1 69 0
 233 0000 1720     		movs	r0, #23
 234              	.LVL11:
 235 0002 FFF7FEBF 		b	Flash_Open
 236              	.LVL12:
 237              		.cfi_endproc
 238              	.LFE337:
 239              		.size	_Z13testFlashOpenP20BaseSequentialStreamiPPc, .-_Z13testFlashOpenP20BaseSequentialStreamiPPc
 240 0006 00BF     		.section	.text._Z14testFlashCloseP20BaseSequentialStreamiPPc,"ax",%progbits
 241              		.align	1
 242              		.p2align 2,,3
 243              		.global	_Z14testFlashCloseP20BaseSequentialStreamiPPc
 244              		.syntax unified
 245              		.thumb
 246              		.thumb_func
 247              		.fpu fpv4-sp-d16
 248              		.type	_Z14testFlashCloseP20BaseSequentialStreamiPPc, %function
 249              	_Z14testFlashCloseP20BaseSequentialStreamiPPc:
 250              	.LFB339:
 251              		.loc 1 81 0
 252              		.cfi_startproc
 253              		@ args = 0, pretend = 0, frame = 0
 254              		@ frame_needed = 0, uses_anonymous_args = 0
 255              		@ link register save eliminated.
 256              	.LVL13:
 257              		.loc 1 82 0
 258 0000 FFF7FEBF 		b	Flash_Close
 259              	.LVL14:
 260              		.cfi_endproc
 261              	.LFE339:
 262              		.size	_Z14testFlashCloseP20BaseSequentialStreamiPPc, .-_Z14testFlashCloseP20BaseSequentialStreamiP
 263              		.section	.text._Z18testCRC_AccumulateP20BaseSequentialStreamiPPc,"ax",%progbits
 264              		.align	1
 265              		.p2align 2,,3
 266              		.global	_Z18testCRC_AccumulateP20BaseSequentialStreamiPPc
 267              		.syntax unified
 268              		.thumb
 269              		.thumb_func
 270              		.fpu fpv4-sp-d16
 271              		.type	_Z18testCRC_AccumulateP20BaseSequentialStreamiPPc, %function
 272              	_Z18testCRC_AccumulateP20BaseSequentialStreamiPPc:
 273              	.LFB341:
 274              		.loc 1 91 0
 275              		.cfi_startproc
 276              		@ args = 0, pretend = 0, frame = 0
 277              		@ frame_needed = 0, uses_anonymous_args = 0
 278              	.LVL15:
 279              		.loc 1 92 0
 280 0000 0029     		cmp	r1, #0
 281 0002 14DD     		ble	.L30
 282              		.loc 1 91 0
 283 0004 38B5     		push	{r3, r4, r5, lr}
 284              		.cfi_def_cfa_offset 16
 285              		.cfi_offset 3, -16
ARM GAS  /tmp/cczwUSEm.s 			page 6


 286              		.cfi_offset 4, -12
 287              		.cfi_offset 5, -8
 288              		.cfi_offset 14, -4
 289              	.LBB36:
 290              	.LBB37:
 291              		.loc 1 94 0
 292 0006 1568     		ldr	r5, [r2]
 293 0008 0446     		mov	r4, r0
 294              	.LVL16:
 295 000a 2846     		mov	r0, r5
 296              	.LVL17:
 297 000c FFF7FEFF 		bl	strlen
 298              	.LVL18:
 299 0010 0146     		mov	r1, r0
 300 0012 2846     		mov	r0, r5
 301 0014 FFF7FEFF 		bl	CRC32_accumulate
 302              	.LVL19:
 303              	.LBB38:
 304              	.LBB39:
 305              		.loc 2 46 0
 306 0018 064B     		ldr	r3, .L34
 307 001a 1A68     		ldr	r2, [r3]
 308              	.LVL20:
 309              	.LBB40:
 310              	.LBB41:
 311              		.file 5 "./RM18A-ChibiOS18-Core/chibios/os/common/ext/ARM/CMSIS/Core/Include/cmsis_gcc.h"
 312              		.loc 5 988 0
 313              		.syntax unified
 314              	@ 988 "./RM18A-ChibiOS18-Core/chibios/os/common/ext/ARM/CMSIS/Core/Include/cmsis_gcc.h" 1
 315 001c 92FAA2F2 		rbit r2, r2
 316              	@ 0 "" 2
 317              	.LVL21:
 318              		.thumb
 319              		.syntax unified
 320              	.LBE41:
 321              	.LBE40:
 322              	.LBE39:
 323              	.LBE38:
 324              		.loc 1 95 0
 325 0020 0549     		ldr	r1, .L34+4
 326 0022 2046     		mov	r0, r4
 327 0024 D243     		mvns	r2, r2
 328              	.LBE37:
 329              	.LBE36:
 330              		.loc 1 99 0
 331 0026 BDE83840 		pop	{r3, r4, r5, lr}
 332              		.cfi_restore 14
 333              		.cfi_restore 5
 334              		.cfi_restore 4
 335              		.cfi_restore 3
 336              		.cfi_def_cfa_offset 0
 337              	.LVL22:
 338              	.LBB43:
 339              	.LBB42:
 340              		.loc 1 95 0
 341 002a FFF7FEBF 		b	chprintf
 342              	.LVL23:
ARM GAS  /tmp/cczwUSEm.s 			page 7


 343              	.L30:
 344              	.LBE42:
 345              	.LBE43:
 346              		.loc 1 98 0
 347 002e 0349     		ldr	r1, .L34+8
 348              	.LVL24:
 349 0030 FFF7FEBF 		b	chprintf
 350              	.LVL25:
 351              	.L35:
 352              		.align	2
 353              	.L34:
 354 0034 00300240 		.word	1073885184
 355 0038 00000000 		.word	.LC4
 356 003c 0C000000 		.word	.LC5
 357              		.cfi_endproc
 358              	.LFE341:
 359              		.size	_Z18testCRC_AccumulateP20BaseSequentialStreamiPPc, .-_Z18testCRC_AccumulateP20BaseSequential
 360              		.section	.text._Z21ShellApp_Logger_Startv,"ax",%progbits
 361              		.align	1
 362              		.p2align 2,,3
 363              		.global	_Z21ShellApp_Logger_Startv
 364              		.syntax unified
 365              		.thumb
 366              		.thumb_func
 367              		.fpu fpv4-sp-d16
 368              		.type	_Z21ShellApp_Logger_Startv, %function
 369              	_Z21ShellApp_Logger_Startv:
 370              	.LFB336:
 371              		.loc 1 56 0
 372              		.cfi_startproc
 373              		@ args = 0, pretend = 0, frame = 0
 374              		@ frame_needed = 0, uses_anonymous_args = 0
 375 0000 10B5     		push	{r4, lr}
 376              		.cfi_def_cfa_offset 8
 377              		.cfi_offset 4, -8
 378              		.cfi_offset 14, -4
 379              		.loc 1 58 0
 380 0002 084C     		ldr	r4, .L40
 381 0004 2368     		ldr	r3, [r4]
 382              		.loc 1 56 0
 383 0006 82B0     		sub	sp, sp, #8
 384              		.cfi_def_cfa_offset 16
 385              		.loc 1 58 0
 386 0008 0BB1     		cbz	r3, .L39
 387              		.loc 1 65 0
 388 000a 02B0     		add	sp, sp, #8
 389              		.cfi_remember_state
 390              		.cfi_def_cfa_offset 8
 391              		@ sp needed
 392 000c 10BD     		pop	{r4, pc}
 393              	.L39:
 394              		.cfi_restore_state
 395              		.loc 1 60 0
 396 000e 0093     		str	r3, [sp]
 397 0010 8022     		movs	r2, #128
 398 0012 054B     		ldr	r3, .L40+4
 399 0014 0548     		ldr	r0, .L40+8
ARM GAS  /tmp/cczwUSEm.s 			page 8


 400 0016 4FF4B871 		mov	r1, #368
 401 001a FFF7FEFF 		bl	chThdCreateStatic
 402              	.LVL26:
 403              		.loc 1 59 0
 404 001e 2060     		str	r0, [r4]
 405              		.loc 1 65 0
 406 0020 02B0     		add	sp, sp, #8
 407              		.cfi_def_cfa_offset 8
 408              		@ sp needed
 409 0022 10BD     		pop	{r4, pc}
 410              	.L41:
 411              		.align	2
 412              	.L40:
 413 0024 00000000 		.word	.LANCHOR0
 414 0028 00000000 		.word	_Z11shellLoggerPv
 415 002c 00000000 		.word	.LANCHOR1
 416              		.cfi_endproc
 417              	.LFE336:
 418              		.size	_Z21ShellApp_Logger_Startv, .-_Z21ShellApp_Logger_Startv
 419              		.global	g_shellCommands
 420              		.global	shellLogger_wa
 421              		.section	.bss._ZZ21ShellApp_Logger_StartvE19p_shellLoggerThread,"aw",%nobits
 422              		.align	2
 423              		.set	.LANCHOR0,. + 0
 424              		.type	_ZZ21ShellApp_Logger_StartvE19p_shellLoggerThread, %object
 425              		.size	_ZZ21ShellApp_Logger_StartvE19p_shellLoggerThread, 4
 426              	_ZZ21ShellApp_Logger_StartvE19p_shellLoggerThread:
 427 0000 00000000 		.space	4
 428              		.section	.bss.shellLogger_wa,"aw",%nobits
 429              		.align	3
 430              		.set	.LANCHOR1,. + 0
 431              		.type	shellLogger_wa, %object
 432              		.size	shellLogger_wa, 368
 433              	shellLogger_wa:
 434 0000 00000000 		.space	368
 434      00000000 
 434      00000000 
 434      00000000 
 434      00000000 
 435              		.section	.data.g_shellCommands,"aw",%progbits
 436              		.align	2
 437              		.type	g_shellCommands, %object
 438              		.size	g_shellCommands, 48
 439              	g_shellCommands:
 440 0000 00000000 		.word	.LC6
 441 0004 00000000 		.word	_Z13testFlashOpenP20BaseSequentialStreamiPPc
 442 0008 04000000 		.word	.LC7
 443 000c 00000000 		.word	_Z15testFlashAppendP20BaseSequentialStreamiPPc
 444 0010 08000000 		.word	.LC8
 445 0014 00000000 		.word	_Z14testFlashCloseP20BaseSequentialStreamiPPc
 446 0018 0C000000 		.word	.LC9
 447 001c 00000000 		.word	_Z13testCRC_ResetP20BaseSequentialStreamiPPc
 448 0020 10000000 		.word	.LC10
 449 0024 00000000 		.word	_Z18testCRC_AccumulateP20BaseSequentialStreamiPPc
 450 0028 00000000 		.word	0
 451 002c 00000000 		.word	0
 452              		.section	.rodata._Z11shellLoggerPv.str1.4,"aMS",%progbits,1
ARM GAS  /tmp/cczwUSEm.s 			page 9


 453              		.align	2
 454              	.LC1:
 455 0000 7573625F 		.ascii	"usb_shell_logger\000"
 455      7368656C 
 455      6C5F6C6F 
 455      67676572 
 455      00
 456 0011 000000   		.space	3
 457              	.LC2:
 458 0014 0A445231 		.ascii	"\012DR16:\012ch0 %d\012ch1 %d\012ch2 %d\012ch3 %d\012"
 458      363A0A63 
 458      68302025 
 458      640A6368 
 458      31202564 
 459 0037 73312025 		.ascii	"s1 %d\012s2 %d\012\012\000"
 459      640A7332 
 459      2025640A 
 459      0A00
 460 0045 000000   		.space	3
 461              	.LC3:
 462 0048 0A445231 		.ascii	"\012DR16: remote not connected\012\012\000"
 462      363A2072 
 462      656D6F74 
 462      65206E6F 
 462      7420636F 
 463              		.section	.rodata._Z15testFlashAppendP20BaseSequentialStreamiPPc.str1.4,"aMS",%progbits,1
 464              		.align	2
 465              	.LC0:
 466 0000 77726974 		.ascii	"write something to Flash_Append\012\000"
 466      6520736F 
 466      6D657468 
 466      696E6720 
 466      746F2046 
 467              		.section	.rodata._Z18testCRC_AccumulateP20BaseSequentialStreamiPPc.str1.4,"aMS",%progbits,1
 468              		.align	2
 469              	.LC4:
 470 0000 4352433A 		.ascii	"CRC: %X\012\000"
 470      2025580A 
 470      00
 471 0009 000000   		.space	3
 472              	.LC5:
 473 000c 77726974 		.ascii	"write something to CRC32_accumulate\012\000"
 473      6520736F 
 473      6D657468 
 473      696E6720 
 473      746F2043 
 474              		.section	.rodata.str1.4,"aMS",%progbits,1
 475              		.align	2
 476              	.LC6:
 477 0000 666F00   		.ascii	"fo\000"
 478 0003 00       		.space	1
 479              	.LC7:
 480 0004 666100   		.ascii	"fa\000"
 481 0007 00       		.space	1
 482              	.LC8:
 483 0008 666300   		.ascii	"fc\000"
 484 000b 00       		.space	1
ARM GAS  /tmp/cczwUSEm.s 			page 10


 485              	.LC9:
 486 000c 637200   		.ascii	"cr\000"
 487 000f 00       		.space	1
 488              	.LC10:
 489 0010 636100   		.ascii	"ca\000"
 490              		.text
 491              	.Letext0:
 492              		.file 6 "/usr/arm-none-eabi/include/c++/7.3.1/cstring"
 493              		.file 7 "/usr/arm-none-eabi/include/c++/7.3.1/arm-none-eabi/thumb/v7e-m/fpv4-sp/hard/bits/c++confi
 494              		.file 8 "/usr/lib/gcc/arm-none-eabi/7.3.1/include/stddef.h"
 495              		.file 9 "/usr/arm-none-eabi/include/machine/_default_types.h"
 496              		.file 10 "/usr/arm-none-eabi/include/sys/lock.h"
 497              		.file 11 "/usr/arm-none-eabi/include/sys/_types.h"
 498              		.file 12 "/usr/arm-none-eabi/include/sys/reent.h"
 499              		.file 13 "/usr/arm-none-eabi/include/string.h"
 500              		.file 14 "/usr/arm-none-eabi/include/sys/_stdint.h"
 501              		.file 15 "./RM18A-ChibiOS18-Core/chibios/os/common/ports/ARMCMx/compilers/GCC/chtypes.h"
 502              		.file 16 "./RM18A-ChibiOS18-Core/chibios/os/rt/include/chsystypes.h"
 503              		.file 17 "./RM18A-ChibiOS18-Core/chibios/os/rt/include/chschd.h"
 504              		.file 18 "./RM18A-ChibiOS18-Core/chibios/os/rt/include/chtime.h"
 505              		.file 19 "./RM18A-ChibiOS18-Core/chibios/os/common/ext/ARM/CMSIS/Core/Include/core_cm4.h"
 506              		.file 20 "./RM18A-ChibiOS18-Core/chibios/os/common/ext/ST/STM32F4xx/system_stm32f4xx.h"
 507              		.file 21 "./RM18A-ChibiOS18-Core/chibios/os/common/ext/ST/STM32F4xx/stm32f427xx.h"
 508              		.file 22 "./RM18A-ChibiOS18-Core/chibios/os/common/ext/ST/STM32F4xx/stm32f4xx.h"
 509              		.file 23 "./RM18A-ChibiOS18-Core/chibios/os/common/ports/ARMCMx/chcore.h"
 510              		.file 24 "./RM18A-ChibiOS18-Core/chibios/os/common/ports/ARMCMx/chcore_v7m.h"
 511              		.file 25 "./RM18A-ChibiOS18-Core/chibios/os/hal/ports/STM32/LLD/TIMv1/stm32_tim.h"
 512              		.file 26 "./RM18A-ChibiOS18-Core/chibios/os/rt/include/chtm.h"
 513              		.file 27 "./RM18A-ChibiOS18-Core/chibios/os/rt/include/chsem.h"
 514              		.file 28 "./RM18A-ChibiOS18-Core/chibios/os/rt/include/chmtx.h"
 515              		.file 29 "./RM18A-ChibiOS18-Core/chibios/os/rt/include/chsys.h"
 516              		.file 30 "./RM18A-ChibiOS18-Core/chibios/os/rt/include/chevents.h"
 517              		.file 31 "./RM18A-ChibiOS18-Core/chibios/os/oslib/include/chmemcore.h"
 518              		.file 32 "./RM18A-ChibiOS18-Core/chibios/os/oslib/include/chmempools.h"
 519              		.file 33 "./RM18A-ChibiOS18-Core/chibios/os/oslib/include/chfactory.h"
 520              		.file 34 "./RM18A-ChibiOS18-Core/chibios/os/hal/ports/STM32/LLD/DMAv2/stm32_dma.h"
 521              		.file 35 "./RM18A-ChibiOS18-Core/chibios/os/hal/include/hal_streams.h"
 522              		.file 36 "./RM18A-ChibiOS18-Core/chibios/os/hal/include/hal_buffers.h"
 523              		.file 37 "./RM18A-ChibiOS18-Core/chibios/os/hal/include/hal_queues.h"
 524              		.file 38 "./RM18A-ChibiOS18-Core/chibios/os/hal/include/hal_pal.h"
 525              		.file 39 "./RM18A-ChibiOS18-Core/chibios/os/hal/ports/STM32/LLD/GPIOv2/hal_pal_lld.h"
 526              		.file 40 "./RM18A-ChibiOS18-Core/chibios/os/hal/include/hal_adc.h"
 527              		.file 41 "./RM18A-ChibiOS18-Core/chibios/os/hal/ports/STM32/LLD/ADCv2/hal_adc_lld.h"
 528              		.file 42 "./RM18A-ChibiOS18-Core/chibios/os/hal/include/hal_can.h"
 529              		.file 43 "./RM18A-ChibiOS18-Core/chibios/os/hal/ports/STM32/LLD/CANv1/hal_can_lld.h"
 530              		.file 44 "./RM18A-ChibiOS18-Core/chibios/os/hal/include/hal_i2c.h"
 531              		.file 45 "./RM18A-ChibiOS18-Core/chibios/os/hal/lib/fallback/I2C/hal_i2c_lld.h"
 532              		.file 46 "./RM18A-ChibiOS18-Core/chibios/os/hal/include/hal_icu.h"
 533              		.file 47 "./RM18A-ChibiOS18-Core/chibios/os/hal/ports/STM32/LLD/TIMv1/hal_icu_lld.h"
 534              		.file 48 "./RM18A-ChibiOS18-Core/chibios/os/hal/include/hal_pwm.h"
 535              		.file 49 "./RM18A-ChibiOS18-Core/chibios/os/hal/ports/STM32/LLD/TIMv1/hal_pwm_lld.h"
 536              		.file 50 "./RM18A-ChibiOS18-Core/chibios/os/hal/include/hal_serial.h"
 537              		.file 51 "./RM18A-ChibiOS18-Core/chibios/os/hal/ports/STM32/LLD/USARTv1/hal_serial_lld.h"
 538              		.file 52 "./RM18A-ChibiOS18-Core/chibios/os/hal/include/hal_spi.h"
 539              		.file 53 "./RM18A-ChibiOS18-Core/chibios/os/hal/ports/STM32/LLD/SPIv1/hal_spi_lld.h"
 540              		.file 54 "./RM18A-ChibiOS18-Core/chibios/os/hal/include/hal_uart.h"
 541              		.file 55 "./RM18A-ChibiOS18-Core/chibios/os/hal/ports/STM32/LLD/USARTv1/hal_uart_lld.h"
ARM GAS  /tmp/cczwUSEm.s 			page 11


 542              		.file 56 "./RM18A-ChibiOS18-Core/chibios/os/hal/include/hal_usb.h"
 543              		.file 57 "./RM18A-ChibiOS18-Core/chibios/os/hal/ports/STM32/LLD/OTGv1/hal_usb_lld.h"
 544              		.file 58 "./RM18A-ChibiOS18-Core/chibios/os/hal/ports/STM32/LLD/OTGv1/stm32_otg.h"
 545              		.file 59 "./RM18A-ChibiOS18-Core/chibios/os/hal/include/hal_serial_usb.h"
 546              		.file 60 "./RM18A-ChibiOS18-Core/src/shell/shell.h"
 547              		.file 61 "./RM18A-ChibiOS18-Core/src/peripherals/usbcfg.h"
 548              		.file 62 "./RM18A-ChibiOS18-Core/src/ext_hw/DR16.h"
 549              		.file 63 "./RM18A-ChibiOS18-Core/src/peripherals/flash.h"
 550              		.file 64 "./RM18A-ChibiOS18-Core/chibios/os/hal/lib/streams/chprintf.h"
 551              		.file 65 "<built-in>"