ARM GAS  /tmp/cclgUERs.s 			page 1


   1              		.cpu cortex-m4
   2              		.eabi_attribute 27, 1
   3              		.eabi_attribute 28, 1
   4              		.eabi_attribute 20, 1
   5              		.eabi_attribute 21, 1
   6              		.eabi_attribute 23, 3
   7              		.eabi_attribute 24, 1
   8              		.eabi_attribute 25, 1
   9              		.eabi_attribute 26, 1
  10              		.eabi_attribute 30, 2
  11              		.eabi_attribute 34, 1
  12              		.eabi_attribute 18, 4
  13              		.file	"shell.c"
  14              		.text
  15              	.Ltext0:
  16              		.cfi_sections	.debug_frame
  17              		.section	.text.shellThread,"ax",%progbits
  18              		.align	1
  19              		.p2align 2,,3
  20              		.global	shellThread
  21              		.syntax unified
  22              		.thumb
  23              		.thumb_func
  24              		.fpu fpv4-sp-d16
  25              		.type	shellThread, %function
  26              	shellThread:
  27              	.LFB330:
  28              		.file 1 "./RM18A-ChibiOS18-Core/src/shell/shell.c"
  29              		.loc 1 383 0
  30              		.cfi_startproc
  31              		@ args = 0, pretend = 0, frame = 96
  32              		@ frame_needed = 0, uses_anonymous_args = 0
  33              	.LVL0:
  34 0000 2DE9F04F 		push	{r4, r5, r6, r7, r8, r9, r10, fp, lr}
  35              		.cfi_def_cfa_offset 36
  36              		.cfi_offset 4, -36
  37              		.cfi_offset 5, -32
  38              		.cfi_offset 6, -28
  39              		.cfi_offset 7, -24
  40              		.cfi_offset 8, -20
  41              		.cfi_offset 9, -16
  42              		.cfi_offset 10, -12
  43              		.cfi_offset 11, -8
  44              		.cfi_offset 14, -4
  45              		.loc 1 387 0
  46 0004 D0E90093 		ldrd	r9, r3, [r0]
  47              		.loc 1 383 0
  48 0008 99B0     		sub	sp, sp, #100
  49              		.cfi_def_cfa_offset 136
  50              		.loc 1 404 0
  51 000a B949     		ldr	r1, .L134
  52              		.loc 1 387 0
  53 000c 0193     		str	r3, [sp, #4]
  54              		.loc 1 383 0
  55 000e 8246     		mov	r10, r0
  56              	.LVL1:
  57              		.loc 1 404 0
ARM GAS  /tmp/cclgUERs.s 			page 2


  58 0010 4846     		mov	r0, r9
  59              	.LVL2:
  60 0012 FFF7FEFF 		bl	chprintf
  61              	.LVL3:
  62              		.loc 1 405 0
  63 0016 4846     		mov	r0, r9
  64 0018 B649     		ldr	r1, .L134+4
  65              	.LBB41:
  66              	.LBB42:
  67              		.loc 1 75 0
  68 001a B74D     		ldr	r5, .L134+8
  69              	.LBE42:
  70              	.LBE41:
  71              		.loc 1 405 0
  72 001c FFF7FEFF 		bl	chprintf
  73              	.LVL4:
  74 0020 08AE     		add	r6, sp, #32
  75 0022 0DF15F08 		add	r8, sp, #95
  76              	.L2:
  77              		.loc 1 408 0
  78 0026 B549     		ldr	r1, .L134+12
  79 0028 4846     		mov	r0, r9
  80 002a FFF7FEFF 		bl	chprintf
  81              	.LVL5:
  82              	.LBB46:
  83              	.LBB47:
  84              		.loc 1 517 0
  85 002e DAF80040 		ldr	r4, [r10]
  86              	.LVL6:
  87 0032 2268     		ldr	r2, [r4]
  88              		.loc 1 516 0
  89 0034 3746     		mov	r7, r6
  90              	.LVL7:
  91              	.L3:
  92              	.LBB48:
  93              		.loc 1 531 0
  94 0036 9368     		ldr	r3, [r2, #8]
  95 0038 0DF10B01 		add	r1, sp, #11
  96 003c 0122     		movs	r2, #1
  97 003e 2046     		mov	r0, r4
  98 0040 9847     		blx	r3
  99              	.LVL8:
 100 0042 0028     		cmp	r0, #0
 101 0044 00F0DE80 		beq	.L4
 102              		.loc 1 593 0
 103 0048 9DF80B30 		ldrb	r3, [sp, #11]	@ zero_extendqisi2
 104 004c 082B     		cmp	r3, #8
 105 004e 14D0     		beq	.L5
 106 0050 7F2B     		cmp	r3, #127
 107              		.loc 1 666 0
 108 0052 1946     		mov	r1, r3
 109 0054 2046     		mov	r0, r4
 110              		.loc 1 593 0
 111 0056 10D0     		beq	.L5
 112              	.LVL9:
 113              		.loc 1 604 0
 114 0058 0A2B     		cmp	r3, #10
ARM GAS  /tmp/cclgUERs.s 			page 3


 115 005a 23D0     		beq	.L8
 116 005c 0D2B     		cmp	r3, #13
 117 005e 21D0     		beq	.L8
 118              		.loc 1 662 0
 119 0060 1F2B     		cmp	r3, #31
 120 0062 2268     		ldr	r2, [r4]
 121 0064 E7D9     		bls	.L3
 122              		.loc 1 664 0
 123 0066 4745     		cmp	r7, r8
 124 0068 E5D2     		bcs	.L3
 125              		.loc 1 666 0
 126 006a D368     		ldr	r3, [r2, #12]
 127 006c 9847     		blx	r3
 128              	.LVL10:
 129              		.loc 1 667 0
 130 006e 9DF80B30 		ldrb	r3, [sp, #11]	@ zero_extendqisi2
 131 0072 3B70     		strb	r3, [r7]
 132 0074 2268     		ldr	r2, [r4]
 133 0076 0137     		adds	r7, r7, #1
 134              	.LVL11:
 135 0078 DDE7     		b	.L3
 136              	.L5:
 137              		.loc 1 595 0
 138 007a B742     		cmp	r7, r6
 139              		.loc 1 597 0
 140 007c 4FF00801 		mov	r1, #8
 141 0080 2046     		mov	r0, r4
 142 0082 2268     		ldr	r2, [r4]
 143              		.loc 1 595 0
 144 0084 D7D0     		beq	.L3
 145              	.LVL12:
 146              		.loc 1 597 0
 147 0086 D368     		ldr	r3, [r2, #12]
 148 0088 9847     		blx	r3
 149              	.LVL13:
 150              		.loc 1 598 0
 151 008a 2368     		ldr	r3, [r4]
 152 008c 2021     		movs	r1, #32
 153 008e DB68     		ldr	r3, [r3, #12]
 154 0090 2046     		mov	r0, r4
 155 0092 9847     		blx	r3
 156              	.LVL14:
 157              		.loc 1 599 0
 158 0094 2368     		ldr	r3, [r4]
 159 0096 0821     		movs	r1, #8
 160 0098 DB68     		ldr	r3, [r3, #12]
 161 009a 2046     		mov	r0, r4
 162 009c 9847     		blx	r3
 163              	.LVL15:
 164              		.loc 1 600 0
 165 009e 013F     		subs	r7, r7, #1
 166              	.LVL16:
 167 00a0 2268     		ldr	r2, [r4]
 168 00a2 C8E7     		b	.L3
 169              	.LVL17:
 170              	.L8:
 171              		.loc 1 606 0
ARM GAS  /tmp/cclgUERs.s 			page 4


 172 00a4 2046     		mov	r0, r4
 173              	.LVL18:
 174 00a6 9249     		ldr	r1, .L134
 175 00a8 FFF7FEFF 		bl	chprintf
 176              	.LVL19:
 177              		.loc 1 610 0
 178 00ac 0023     		movs	r3, #0
 179 00ae 3B70     		strb	r3, [r7]
 180              	.LVL20:
 181              	.L10:
 182              	.LBE48:
 183              	.LBE47:
 184              	.LBE46:
 185              	.LBB49:
 186              	.LBB43:
 187              		.loc 1 75 0
 188 00b0 2946     		mov	r1, r5
 189 00b2 3046     		mov	r0, r6
 190 00b4 FFF7FEFF 		bl	strspn
 191              	.LVL21:
 192              		.loc 1 77 0
 193 00b8 315C     		ldrb	r1, [r6, r0]	@ zero_extendqisi2
 194 00ba 2229     		cmp	r1, #34
 195              		.loc 1 75 0
 196 00bc 06EB0007 		add	r7, r6, r0
 197              	.LVL22:
 198              		.loc 1 77 0
 199 00c0 00F0CC80 		beq	.L122
 200              		.loc 1 87 0
 201 00c4 2946     		mov	r1, r5
 202 00c6 3846     		mov	r0, r7
 203 00c8 FFF7FEFF 		bl	strpbrk
 204              	.LVL23:
 205              		.loc 1 91 0
 206 00cc 0028     		cmp	r0, #0
 207 00ce 00F0CC80 		beq	.L15
 208              	.L131:
 209              		.loc 1 93 0
 210 00d2 0023     		movs	r3, #0
 211 00d4 0370     		strb	r3, [r0]
 212              		.loc 1 96 0
 213 00d6 3B78     		ldrb	r3, [r7]	@ zero_extendqisi2
 214              		.loc 1 93 0
 215 00d8 441C     		adds	r4, r0, #1
 216              	.LVL24:
 217              		.loc 1 96 0
 218 00da 002B     		cmp	r3, #0
 219 00dc 00F07181 		beq	.L123
 220              	.LVL25:
 221              	.LBE43:
 222              	.LBE49:
 223              	.LBB50:
 224              	.LBB51:
 225              		.loc 1 69 0
 226 00e0 002C     		cmp	r4, #0
 227 00e2 00F05081 		beq	.L19
 228              	.L17:
ARM GAS  /tmp/cclgUERs.s 			page 5


 229              		.loc 1 75 0
 230 00e6 2946     		mov	r1, r5
 231 00e8 2046     		mov	r0, r4
 232 00ea FFF7FEFF 		bl	strspn
 233              	.LVL26:
 234              		.loc 1 77 0
 235 00ee 215C     		ldrb	r1, [r4, r0]	@ zero_extendqisi2
 236 00f0 2229     		cmp	r1, #34
 237              		.loc 1 75 0
 238 00f2 04EB000B 		add	fp, r4, r0
 239              	.LVL27:
 240              		.loc 1 77 0
 241 00f6 00F0BF80 		beq	.L124
 242              		.loc 1 87 0
 243 00fa 2946     		mov	r1, r5
 244 00fc 5846     		mov	r0, fp
 245 00fe FFF7FEFF 		bl	strpbrk
 246              	.LVL28:
 247              	.L25:
 248              		.loc 1 91 0
 249 0102 0028     		cmp	r0, #0
 250 0104 00F08380 		beq	.L22
 251              		.loc 1 93 0
 252 0108 0023     		movs	r3, #0
 253 010a 0370     		strb	r3, [r0]
 254              		.loc 1 96 0
 255 010c 9BF80030 		ldrb	r3, [fp]	@ zero_extendqisi2
 256              		.loc 1 93 0
 257 0110 441C     		adds	r4, r0, #1
 258              	.LVL29:
 259              		.loc 1 96 0
 260 0112 002B     		cmp	r3, #0
 261 0114 00F01281 		beq	.L125
 262              	.LVL30:
 263              	.LBE51:
 264              	.LBE50:
 265              		.loc 1 432 0
 266 0118 CDF80CB0 		str	fp, [sp, #12]
 267              	.LVL31:
 268              	.LBB62:
 269              	.LBB52:
 270              		.loc 1 69 0
 271 011c 002C     		cmp	r4, #0
 272 011e 7DD0     		beq	.L118
 273              		.loc 1 75 0
 274 0120 2946     		mov	r1, r5
 275 0122 2046     		mov	r0, r4
 276 0124 FFF7FEFF 		bl	strspn
 277              	.LVL32:
 278              		.loc 1 77 0
 279 0128 215C     		ldrb	r1, [r4, r0]	@ zero_extendqisi2
 280 012a 2229     		cmp	r1, #34
 281              		.loc 1 75 0
 282 012c 04EB000B 		add	fp, r4, r0
 283              	.LVL33:
 284              		.loc 1 77 0
 285 0130 00F0A880 		beq	.L126
ARM GAS  /tmp/cclgUERs.s 			page 6


 286              		.loc 1 87 0
 287 0134 2946     		mov	r1, r5
 288 0136 5846     		mov	r0, fp
 289 0138 FFF7FEFF 		bl	strpbrk
 290              	.LVL34:
 291              	.L30:
 292              		.loc 1 91 0
 293 013c 0028     		cmp	r0, #0
 294 013e 00F08580 		beq	.L28
 295              		.loc 1 93 0
 296 0142 0023     		movs	r3, #0
 297 0144 0370     		strb	r3, [r0]
 298              		.loc 1 96 0
 299 0146 9BF80030 		ldrb	r3, [fp]	@ zero_extendqisi2
 300              		.loc 1 93 0
 301 014a 441C     		adds	r4, r0, #1
 302              	.LVL35:
 303              		.loc 1 96 0
 304 014c 002B     		cmp	r3, #0
 305 014e 65D0     		beq	.L118
 306              	.LVL36:
 307              	.LBE52:
 308              	.LBE62:
 309              		.loc 1 432 0
 310 0150 CDF810B0 		str	fp, [sp, #16]
 311              	.LVL37:
 312              	.LBB63:
 313              	.LBB53:
 314              		.loc 1 69 0
 315 0154 002C     		cmp	r4, #0
 316 0156 7FD0     		beq	.L119
 317              		.loc 1 75 0
 318 0158 2946     		mov	r1, r5
 319 015a 2046     		mov	r0, r4
 320 015c FFF7FEFF 		bl	strspn
 321              	.LVL38:
 322              		.loc 1 77 0
 323 0160 215C     		ldrb	r1, [r4, r0]	@ zero_extendqisi2
 324 0162 2229     		cmp	r1, #34
 325              		.loc 1 75 0
 326 0164 04EB000B 		add	fp, r4, r0
 327              	.LVL39:
 328              		.loc 1 77 0
 329 0168 00F09280 		beq	.L127
 330              		.loc 1 87 0
 331 016c 2946     		mov	r1, r5
 332 016e 5846     		mov	r0, fp
 333 0170 FFF7FEFF 		bl	strpbrk
 334              	.LVL40:
 335              		.loc 1 91 0
 336 0174 0028     		cmp	r0, #0
 337 0176 00F09380 		beq	.L33
 338              	.L132:
 339              		.loc 1 93 0
 340 017a 0023     		movs	r3, #0
 341 017c 0370     		strb	r3, [r0]
 342              		.loc 1 96 0
ARM GAS  /tmp/cclgUERs.s 			page 7


 343 017e 9BF80030 		ldrb	r3, [fp]	@ zero_extendqisi2
 344              		.loc 1 93 0
 345 0182 441C     		adds	r4, r0, #1
 346              	.LVL41:
 347              		.loc 1 96 0
 348 0184 002B     		cmp	r3, #0
 349 0186 67D0     		beq	.L119
 350              	.LVL42:
 351              	.LBE53:
 352              	.LBE63:
 353              		.loc 1 432 0
 354 0188 CDF814B0 		str	fp, [sp, #20]
 355              	.LVL43:
 356              	.LBB64:
 357              	.LBB54:
 358              		.loc 1 69 0
 359 018c 002C     		cmp	r4, #0
 360 018e 00F0A480 		beq	.L73
 361              		.loc 1 75 0
 362 0192 2946     		mov	r1, r5
 363 0194 2046     		mov	r0, r4
 364 0196 FFF7FEFF 		bl	strspn
 365              	.LVL44:
 366              		.loc 1 77 0
 367 019a 215C     		ldrb	r1, [r4, r0]	@ zero_extendqisi2
 368 019c 2229     		cmp	r1, #34
 369              		.loc 1 75 0
 370 019e 04EB000B 		add	fp, r4, r0
 371              	.LVL45:
 372              		.loc 1 77 0
 373 01a2 00F08580 		beq	.L128
 374              		.loc 1 87 0
 375 01a6 2946     		mov	r1, r5
 376 01a8 5846     		mov	r0, fp
 377 01aa FFF7FEFF 		bl	strpbrk
 378              	.LVL46:
 379              		.loc 1 91 0
 380 01ae 0028     		cmp	r0, #0
 381 01b0 00F08680 		beq	.L38
 382              	.L133:
 383              		.loc 1 93 0
 384 01b4 0023     		movs	r3, #0
 385 01b6 0370     		strb	r3, [r0]
 386              		.loc 1 96 0
 387 01b8 9BF80030 		ldrb	r3, [fp]	@ zero_extendqisi2
 388              		.loc 1 93 0
 389 01bc 441C     		adds	r4, r0, #1
 390              	.LVL47:
 391              		.loc 1 96 0
 392 01be 002B     		cmp	r3, #0
 393 01c0 00F08B80 		beq	.L73
 394              	.LVL48:
 395              	.LBE54:
 396              	.LBE64:
 397              		.loc 1 432 0
 398 01c4 CDF818B0 		str	fp, [sp, #24]
 399              	.LVL49:
ARM GAS  /tmp/cclgUERs.s 			page 8


 400              	.LBB65:
 401              	.LBB55:
 402              		.loc 1 69 0
 403 01c8 002C     		cmp	r4, #0
 404 01ca 00F08880 		beq	.L120
 405              		.loc 1 75 0
 406 01ce 2946     		mov	r1, r5
 407 01d0 2046     		mov	r0, r4
 408 01d2 FFF7FEFF 		bl	strspn
 409              	.LVL50:
 410              		.loc 1 77 0
 411 01d6 215C     		ldrb	r1, [r4, r0]	@ zero_extendqisi2
 412 01d8 2229     		cmp	r1, #34
 413              		.loc 1 75 0
 414 01da 04EB000B 		add	fp, r4, r0
 415              	.LVL51:
 416              		.loc 1 77 0
 417 01de 76D0     		beq	.L129
 418              		.loc 1 87 0
 419 01e0 2946     		mov	r1, r5
 420 01e2 5846     		mov	r0, fp
 421 01e4 FFF7FEFF 		bl	strpbrk
 422              	.LVL52:
 423              	.L42:
 424              		.loc 1 91 0
 425 01e8 08B1     		cbz	r0, .L43
 426              	.LVL53:
 427              		.loc 1 93 0
 428 01ea 0023     		movs	r3, #0
 429 01ec 0370     		strb	r3, [r0]
 430              	.LVL54:
 431              	.L43:
 432              		.loc 1 96 0
 433 01ee 9BF80030 		ldrb	r3, [fp]	@ zero_extendqisi2
 434 01f2 002B     		cmp	r3, #0
 435 01f4 73D0     		beq	.L120
 436              	.LVL55:
 437              	.LBE55:
 438              	.LBE65:
 439              		.loc 1 428 0
 440 01f6 4249     		ldr	r1, .L134+16
 441 01f8 4846     		mov	r0, r9
 442 01fa FFF7FEFF 		bl	chprintf
 443              	.LVL56:
 444              		.loc 1 434 0
 445 01fe 0023     		movs	r3, #0
 446 0200 0793     		str	r3, [sp, #28]
 447 0202 10E7     		b	.L2
 448              	.LVL57:
 449              	.L4:
 450              	.LBB66:
 451              	.LBB67:
 452              		.file 2 "./RM18A-ChibiOS18-Core/chibios/os/hal/osal/rt/osal.h"
 453              		.loc 2 720 0
 454 0204 4FF47A70 		mov	r0, #1000
 455 0208 FFF7FEFF 		bl	chThdSleep
 456              	.LVL58:
ARM GAS  /tmp/cclgUERs.s 			page 9


 457 020c 50E7     		b	.L10
 458              	.LVL59:
 459              	.L22:
 460              	.LBE67:
 461              	.LBE66:
 462              	.LBB68:
 463              	.LBB56:
 464              		.loc 1 96 0
 465 020e 9BF80030 		ldrb	r3, [fp]	@ zero_extendqisi2
 466 0212 002B     		cmp	r3, #0
 467 0214 00F0C980 		beq	.L67
 468              	.LVL60:
 469              	.LBE56:
 470              	.LBE68:
 471              		.loc 1 432 0
 472 0218 CDF80CB0 		str	fp, [sp, #12]
 473              	.LVL61:
 474              	.L118:
 475 021c 0124     		movs	r4, #1
 476              	.LVL62:
 477              	.L24:
 478              		.loc 1 434 0
 479 021e 18AB     		add	r3, sp, #96
 480 0220 03EB8403 		add	r3, r3, r4, lsl #2
 481 0224 0022     		movs	r2, #0
 482 0226 43F8542C 		str	r2, [r3, #-84]
 483              		.loc 1 435 0
 484 022a 002F     		cmp	r7, #0
 485 022c 3FF4FBAE 		beq	.L2
 486              	.LVL63:
 487              	.L63:
 488              		.loc 1 437 0
 489 0230 3449     		ldr	r1, .L134+20
 490 0232 3846     		mov	r0, r7
 491 0234 FFF7FEFF 		bl	strcmp
 492              	.LVL64:
 493 0238 0028     		cmp	r0, #0
 494 023a 52D1     		bne	.L130
 495              		.loc 1 439 0
 496 023c 002C     		cmp	r4, #0
 497 023e 7FD0     		beq	.L47
 498              		.loc 1 441 0
 499 0240 304A     		ldr	r2, .L134+20
 500 0242 3149     		ldr	r1, .L134+24
 501 0244 4846     		mov	r0, r9
 502 0246 FFF7FEFF 		bl	chprintf
 503              	.LVL65:
 504              		.loc 1 442 0
 505 024a ECE6     		b	.L2
 506              	.LVL66:
 507              	.L28:
 508              	.LBB69:
 509              	.LBB57:
 510              		.loc 1 96 0
 511 024c 9BF80030 		ldrb	r3, [fp]	@ zero_extendqisi2
 512 0250 002B     		cmp	r3, #0
 513 0252 E3D0     		beq	.L118
ARM GAS  /tmp/cclgUERs.s 			page 10


 514              	.LVL67:
 515              	.LBE57:
 516              	.LBE69:
 517              		.loc 1 432 0
 518 0254 CDF810B0 		str	fp, [sp, #16]
 519              	.LVL68:
 520              	.L119:
 521 0258 0224     		movs	r4, #2
 522 025a E0E7     		b	.L24
 523              	.LVL69:
 524              	.L122:
 525              	.LBB70:
 526              	.LBB44:
 527              		.loc 1 81 0
 528 025c 0137     		adds	r7, r7, #1
 529              	.LVL70:
 530              		.loc 1 82 0
 531 025e 3846     		mov	r0, r7
 532 0260 FFF7FEFF 		bl	strchr
 533              	.LVL71:
 534              		.loc 1 91 0
 535 0264 0028     		cmp	r0, #0
 536 0266 7FF434AF 		bne	.L131
 537              	.L15:
 538              	.LVL72:
 539              		.loc 1 96 0
 540 026a 3B78     		ldrb	r3, [r7]	@ zero_extendqisi2
 541 026c 002B     		cmp	r3, #0
 542 026e 40F08A80 		bne	.L19
 543              	.LVL73:
 544              	.L57:
 545              	.LBE44:
 546              	.LBE70:
 547              		.loc 1 434 0
 548 0272 0023     		movs	r3, #0
 549 0274 0393     		str	r3, [sp, #12]
 550 0276 D6E6     		b	.L2
 551              	.LVL74:
 552              	.L124:
 553              	.LBB71:
 554              	.LBB58:
 555              		.loc 1 81 0
 556 0278 0BF1010B 		add	fp, fp, #1
 557              	.LVL75:
 558              		.loc 1 82 0
 559 027c 5846     		mov	r0, fp
 560 027e FFF7FEFF 		bl	strchr
 561              	.LVL76:
 562 0282 3EE7     		b	.L25
 563              	.LVL77:
 564              	.L126:
 565              		.loc 1 81 0
 566 0284 0BF1010B 		add	fp, fp, #1
 567              	.LVL78:
 568              		.loc 1 82 0
 569 0288 5846     		mov	r0, fp
 570 028a FFF7FEFF 		bl	strchr
ARM GAS  /tmp/cclgUERs.s 			page 11


 571              	.LVL79:
 572 028e 55E7     		b	.L30
 573              	.LVL80:
 574              	.L127:
 575              		.loc 1 81 0
 576 0290 0BF1010B 		add	fp, fp, #1
 577              	.LVL81:
 578              		.loc 1 82 0
 579 0294 5846     		mov	r0, fp
 580 0296 FFF7FEFF 		bl	strchr
 581              	.LVL82:
 582              		.loc 1 91 0
 583 029a 0028     		cmp	r0, #0
 584 029c 7FF46DAF 		bne	.L132
 585              	.L33:
 586              	.LVL83:
 587              		.loc 1 96 0
 588 02a0 9BF80030 		ldrb	r3, [fp]	@ zero_extendqisi2
 589 02a4 002B     		cmp	r3, #0
 590 02a6 D7D0     		beq	.L119
 591              	.LVL84:
 592              	.LBE58:
 593              	.LBE71:
 594              		.loc 1 432 0
 595 02a8 CDF814B0 		str	fp, [sp, #20]
 596              	.LVL85:
 597 02ac 0324     		movs	r4, #3
 598 02ae B6E7     		b	.L24
 599              	.LVL86:
 600              	.L128:
 601              	.LBB72:
 602              	.LBB59:
 603              		.loc 1 81 0
 604 02b0 0BF1010B 		add	fp, fp, #1
 605              	.LVL87:
 606              		.loc 1 82 0
 607 02b4 5846     		mov	r0, fp
 608 02b6 FFF7FEFF 		bl	strchr
 609              	.LVL88:
 610              		.loc 1 91 0
 611 02ba 0028     		cmp	r0, #0
 612 02bc 7FF47AAF 		bne	.L133
 613              	.L38:
 614              	.LVL89:
 615              		.loc 1 96 0
 616 02c0 9BF80030 		ldrb	r3, [fp]	@ zero_extendqisi2
 617 02c4 4BB1     		cbz	r3, .L73
 618              	.LVL90:
 619              	.LBE59:
 620              	.LBE72:
 621              		.loc 1 432 0
 622 02c6 CDF818B0 		str	fp, [sp, #24]
 623              	.LVL91:
 624 02ca 0424     		movs	r4, #4
 625 02cc A7E7     		b	.L24
 626              	.LVL92:
 627              	.L129:
ARM GAS  /tmp/cclgUERs.s 			page 12


 628              	.LBB73:
 629              	.LBB60:
 630              		.loc 1 81 0
 631 02ce 0BF1010B 		add	fp, fp, #1
 632              	.LVL93:
 633              		.loc 1 82 0
 634 02d2 5846     		mov	r0, fp
 635 02d4 FFF7FEFF 		bl	strchr
 636              	.LVL94:
 637 02d8 86E7     		b	.L42
 638              	.LVL95:
 639              	.L73:
 640              	.LBE60:
 641              	.LBE73:
 642              		.loc 1 432 0
 643 02da 0324     		movs	r4, #3
 644 02dc 9FE7     		b	.L24
 645              	.LVL96:
 646              	.L120:
 647 02de 0424     		movs	r4, #4
 648 02e0 9DE7     		b	.L24
 649              	.LVL97:
 650              	.L130:
 651              	.LBB74:
 652              	.LBB75:
 653              		.loc 1 113 0
 654 02e2 0A4B     		ldr	r3, .L134+28
 655 02e4 1868     		ldr	r0, [r3]
 656 02e6 0028     		cmp	r0, #0
 657 02e8 50D0     		beq	.L46
 658 02ea DFF820B0 		ldr	fp, .L134+28
 659 02ee 13E0     		b	.L53
 660              	.L135:
 661              		.align	2
 662              	.L134:
 663 02f0 00000000 		.word	.LC0
 664 02f4 04000000 		.word	.LC1
 665 02f8 20000000 		.word	.LC3
 666 02fc 18000000 		.word	.LC2
 667 0300 58000000 		.word	.LC10
 668 0304 24000000 		.word	.LC4
 669 0308 2C000000 		.word	.LC5
 670 030c 00000000 		.word	shell_local_commands
 671              	.LVL98:
 672              	.L52:
 673 0310 5BF8080F 		ldr	r0, [fp, #8]!
 674              	.LVL99:
 675 0314 0028     		cmp	r0, #0
 676 0316 39D0     		beq	.L46
 677              	.LVL100:
 678              	.L53:
 679              		.loc 1 115 0
 680 0318 3946     		mov	r1, r7
 681 031a FFF7FEFF 		bl	strcmp
 682              	.LVL101:
 683 031e 0028     		cmp	r0, #0
 684 0320 F6D1     		bne	.L52
ARM GAS  /tmp/cclgUERs.s 			page 13


 685              	.LVL102:
 686              	.L117:
 687              	.LBE75:
 688              	.LBE74:
 689              	.LBB76:
 690              	.LBB77:
 691              		.loc 1 117 0
 692 0322 2A48     		ldr	r0, .L136
 693 0324 FFF7FEFF 		bl	chMtxLock
 694              	.LVL103:
 695              		.loc 1 118 0
 696 0328 4846     		mov	r0, r9
 697 032a DBF80430 		ldr	r3, [fp, #4]
 698 032e 2146     		mov	r1, r4
 699 0330 03AA     		add	r2, sp, #12
 700 0332 9847     		blx	r3
 701              	.LVL104:
 702              		.loc 1 119 0
 703 0334 2548     		ldr	r0, .L136
 704 0336 FFF7FEFF 		bl	chMtxUnlock
 705              	.LVL105:
 706 033a 74E6     		b	.L2
 707              	.LVL106:
 708              	.L125:
 709              	.LBE77:
 710              	.LBE76:
 711              		.loc 1 423 0
 712 033c 1C46     		mov	r4, r3
 713              	.LVL107:
 714 033e 6EE7     		b	.L24
 715              	.LVL108:
 716              	.L47:
 717              		.loc 1 444 0
 718 0340 2349     		ldr	r1, .L136+4
 719 0342 4846     		mov	r0, r9
 720 0344 FFF7FEFF 		bl	chprintf
 721              	.LVL109:
 722              	.LBB79:
 723              	.LBB80:
 724              		.loc 1 102 0
 725 0348 224B     		ldr	r3, .L136+8
 726 034a 1A68     		ldr	r2, [r3]
 727 034c 4AB1     		cbz	r2, .L48
 728              		.loc 1 104 0
 729 034e 224F     		ldr	r7, .L136+12
 730 0350 1C46     		mov	r4, r3
 731              	.LVL110:
 732              	.L49:
 733 0352 3946     		mov	r1, r7
 734 0354 4846     		mov	r0, r9
 735 0356 FFF7FEFF 		bl	chprintf
 736              	.LVL111:
 737              		.loc 1 102 0
 738 035a 54F8082F 		ldr	r2, [r4, #8]!
 739              	.LVL112:
 740 035e 002A     		cmp	r2, #0
 741 0360 F7D1     		bne	.L49
ARM GAS  /tmp/cclgUERs.s 			page 14


 742              	.LVL113:
 743              	.L48:
 744              	.LBE80:
 745              	.LBE79:
 746              		.loc 1 446 0
 747 0362 019C     		ldr	r4, [sp, #4]
 748 0364 54B1     		cbz	r4, .L50
 749              	.LVL114:
 750              	.LBB81:
 751              	.LBB82:
 752              		.loc 1 102 0
 753 0366 2268     		ldr	r2, [r4]
 754 0368 42B1     		cbz	r2, .L50
 755              		.loc 1 104 0
 756 036a 1B4F     		ldr	r7, .L136+12
 757              	.LVL115:
 758              	.L51:
 759 036c 3946     		mov	r1, r7
 760 036e 4846     		mov	r0, r9
 761 0370 FFF7FEFF 		bl	chprintf
 762              	.LVL116:
 763              		.loc 1 102 0
 764 0374 54F8082F 		ldr	r2, [r4, #8]!
 765              	.LVL117:
 766 0378 002A     		cmp	r2, #0
 767 037a F7D1     		bne	.L51
 768              	.LVL118:
 769              	.L50:
 770              	.LBE82:
 771              	.LBE81:
 772              		.loc 1 448 0
 773 037c 1749     		ldr	r1, .L136+16
 774 037e 4846     		mov	r0, r9
 775 0380 FFF7FEFF 		bl	chprintf
 776              	.LVL119:
 777 0384 4FE6     		b	.L2
 778              	.L19:
 779              		.loc 1 434 0
 780 0386 0024     		movs	r4, #0
 781 0388 0394     		str	r4, [sp, #12]
 782 038a 51E7     		b	.L63
 783              	.L46:
 784              		.loc 1 450 0
 785 038c 019B     		ldr	r3, [sp, #4]
 786 038e 73B1     		cbz	r3, .L54
 787              	.LVL120:
 788              	.LBB83:
 789              	.LBB78:
 790              		.loc 1 113 0
 791 0390 1868     		ldr	r0, [r3]
 792 0392 60B1     		cbz	r0, .L54
 793 0394 9B46     		mov	fp, r3
 794 0396 02E0     		b	.L56
 795              	.LVL121:
 796              	.L55:
 797 0398 5BF8080F 		ldr	r0, [fp, #8]!
 798              	.LVL122:
ARM GAS  /tmp/cclgUERs.s 			page 15


 799 039c 38B1     		cbz	r0, .L54
 800              	.LVL123:
 801              	.L56:
 802              		.loc 1 115 0
 803 039e 3946     		mov	r1, r7
 804 03a0 FFF7FEFF 		bl	strcmp
 805              	.LVL124:
 806 03a4 0028     		cmp	r0, #0
 807 03a6 F7D1     		bne	.L55
 808 03a8 BBE7     		b	.L117
 809              	.LVL125:
 810              	.L67:
 811              	.LBE78:
 812              	.LBE83:
 813              		.loc 1 423 0
 814 03aa 0446     		mov	r4, r0
 815 03ac 37E7     		b	.L24
 816              	.LVL126:
 817              	.L54:
 818              		.loc 1 453 0
 819 03ae 3A46     		mov	r2, r7
 820 03b0 0B49     		ldr	r1, .L136+20
 821 03b2 4846     		mov	r0, r9
 822 03b4 FFF7FEFF 		bl	chprintf
 823              	.LVL127:
 824              		.loc 1 454 0
 825 03b8 0A49     		ldr	r1, .L136+24
 826 03ba 4846     		mov	r0, r9
 827 03bc FFF7FEFF 		bl	chprintf
 828              	.LVL128:
 829 03c0 31E6     		b	.L2
 830              	.LVL129:
 831              	.L123:
 832              	.LBB84:
 833              	.LBB45:
 834              		.loc 1 96 0
 835 03c2 1F46     		mov	r7, r3
 836              	.LBE45:
 837              	.LBE84:
 838              	.LBB85:
 839              	.LBB61:
 840              		.loc 1 69 0
 841 03c4 002C     		cmp	r4, #0
 842 03c6 7FF48EAE 		bne	.L17
 843 03ca 52E7     		b	.L57
 844              	.L137:
 845              		.align	2
 846              	.L136:
 847 03cc 00000000 		.word	.LANCHOR0
 848 03d0 38000000 		.word	.LC6
 849 03d4 00000000 		.word	shell_local_commands
 850 03d8 48000000 		.word	.LC7
 851 03dc 00000000 		.word	.LC0
 852 03e0 4C000000 		.word	.LC8
 853 03e4 50000000 		.word	.LC9
 854              	.LBE61:
 855              	.LBE85:
ARM GAS  /tmp/cclgUERs.s 			page 16


 856              		.cfi_endproc
 857              	.LFE330:
 858              		.size	shellThread, .-shellThread
 859              		.section	.text.shellInit,"ax",%progbits
 860              		.align	1
 861              		.p2align 2,,3
 862              		.global	shellInit
 863              		.syntax unified
 864              		.thumb
 865              		.thumb_func
 866              		.fpu fpv4-sp-d16
 867              		.type	shellInit, %function
 868              	shellInit:
 869              	.LFB331:
 870              		.loc 1 467 0
 871              		.cfi_startproc
 872              		@ args = 0, pretend = 0, frame = 0
 873              		@ frame_needed = 0, uses_anonymous_args = 0
 874 0000 08B5     		push	{r3, lr}
 875              		.cfi_def_cfa_offset 8
 876              		.cfi_offset 3, -8
 877              		.cfi_offset 14, -4
 878              		.loc 1 468 0
 879 0002 0448     		ldr	r0, .L140
 880 0004 FFF7FEFF 		bl	chMtxObjectInit
 881              	.LVL130:
 882              	.LBB86:
 883              	.LBB87:
 884              		.file 3 "./RM18A-ChibiOS18-Core/chibios/os/rt/include/chevents.h"
 885              		.loc 3 173 0
 886 0008 034B     		ldr	r3, .L140+4
 887              	.LBE87:
 888              	.LBE86:
 889              		.loc 1 470 0
 890 000a 044A     		ldr	r2, .L140+8
 891              	.LBB89:
 892              	.LBB88:
 893              		.loc 3 173 0
 894 000c 1B60     		str	r3, [r3]
 895              	.LVL131:
 896              	.LBE88:
 897              	.LBE89:
 898              		.loc 1 470 0
 899 000e 0123     		movs	r3, #1
 900 0010 1370     		strb	r3, [r2]
 901              		.loc 1 471 0
 902 0012 08BD     		pop	{r3, pc}
 903              	.L141:
 904              		.align	2
 905              	.L140:
 906 0014 00000000 		.word	.LANCHOR0
 907 0018 00000000 		.word	.LANCHOR1
 908 001c 00000000 		.word	.LANCHOR2
 909              		.cfi_endproc
 910              	.LFE331:
 911              		.size	shellInit, .-shellInit
 912              		.section	.text.shellExit,"ax",%progbits
ARM GAS  /tmp/cclgUERs.s 			page 17


 913              		.align	1
 914              		.p2align 2,,3
 915              		.global	shellExit
 916              		.syntax unified
 917              		.thumb
 918              		.thumb_func
 919              		.fpu fpv4-sp-d16
 920              		.type	shellExit, %function
 921              	shellExit:
 922              	.LFB332:
 923              		.loc 1 484 0
 924              		.cfi_startproc
 925              		@ args = 0, pretend = 0, frame = 0
 926              		@ frame_needed = 0, uses_anonymous_args = 0
 927              	.LVL132:
 928 0000 10B5     		push	{r4, lr}
 929              		.cfi_def_cfa_offset 8
 930              		.cfi_offset 4, -8
 931              		.cfi_offset 14, -4
 932              	.LBB90:
 933              	.LBB91:
 934              	.LBB92:
 935              	.LBB93:
 936              		.file 4 "./RM18A-ChibiOS18-Core/chibios/os/common/ext/ARM/CMSIS/Core/Include/cmsis_gcc.h"
 937              		.loc 4 493 0
 938 0002 2023     		movs	r3, #32
 939              	.LBE93:
 940              	.LBE92:
 941              	.LBE91:
 942              	.LBE90:
 943              		.loc 1 484 0
 944 0004 0446     		mov	r4, r0
 945              	.LBB97:
 946              	.LBB96:
 947              	.LBB95:
 948              	.LBB94:
 949              		.loc 4 493 0
 950              		.syntax unified
 951              	@ 493 "./RM18A-ChibiOS18-Core/chibios/os/common/ext/ARM/CMSIS/Core/Include/cmsis_gcc.h" 1
 952 0006 83F31188 		MSR basepri, r3
 953              	@ 0 "" 2
 954              	.LVL133:
 955              		.thumb
 956              		.syntax unified
 957              	.LBE94:
 958              	.LBE95:
 959              	.LBE96:
 960              	.LBE97:
 961              	.LBB98:
 962              	.LBB99:
 963              		.loc 3 257 0
 964 000a 0448     		ldr	r0, .L144
 965              	.LVL134:
 966 000c 0021     		movs	r1, #0
 967 000e FFF7FEFF 		bl	chEvtBroadcastFlagsI
 968              	.LVL135:
 969              	.LBE99:
ARM GAS  /tmp/cclgUERs.s 			page 18


 970              	.LBE98:
 971              		.loc 1 490 0
 972 0012 2046     		mov	r0, r4
 973              		.loc 1 491 0
 974 0014 BDE81040 		pop	{r4, lr}
 975              		.cfi_restore 14
 976              		.cfi_restore 4
 977              		.cfi_def_cfa_offset 0
 978              	.LVL136:
 979              		.loc 1 490 0
 980 0018 FFF7FEBF 		b	chThdExitS
 981              	.LVL137:
 982              	.L145:
 983              		.align	2
 984              	.L144:
 985 001c 00000000 		.word	.LANCHOR1
 986              		.cfi_endproc
 987              	.LFE332:
 988              		.size	shellExit, .-shellExit
 989              		.section	.text.shellGetLine,"ax",%progbits
 990              		.align	1
 991              		.p2align 2,,3
 992              		.global	shellGetLine
 993              		.syntax unified
 994              		.thumb
 995              		.thumb_func
 996              		.fpu fpv4-sp-d16
 997              		.type	shellGetLine, %function
 998              	shellGetLine:
 999              	.LFB333:
 1000              		.loc 1 515 0
 1001              		.cfi_startproc
 1002              		@ args = 0, pretend = 0, frame = 8
 1003              		@ frame_needed = 0, uses_anonymous_args = 0
 1004              	.LVL138:
 1005 0000 2DE9F041 		push	{r4, r5, r6, r7, r8, lr}
 1006              		.cfi_def_cfa_offset 24
 1007              		.cfi_offset 4, -24
 1008              		.cfi_offset 5, -20
 1009              		.cfi_offset 6, -16
 1010              		.cfi_offset 7, -12
 1011              		.cfi_offset 8, -8
 1012              		.cfi_offset 14, -4
 1013              		.loc 1 517 0
 1014 0004 0468     		ldr	r4, [r0]
 1015              	.LBB100:
 1016              		.loc 1 664 0
 1017 0006 013A     		subs	r2, r2, #1
 1018              	.LVL139:
 1019 0008 2568     		ldr	r5, [r4]
 1020              	.LBE100:
 1021              		.loc 1 515 0
 1022 000a 82B0     		sub	sp, sp, #8
 1023              		.cfi_def_cfa_offset 32
 1024              		.loc 1 515 0
 1025 000c 8846     		mov	r8, r1
 1026              	.LVL140:
ARM GAS  /tmp/cclgUERs.s 			page 19


 1027              	.LBB101:
 1028              		.loc 1 664 0
 1029 000e 8F18     		adds	r7, r1, r2
 1030              	.LBE101:
 1031              		.loc 1 517 0
 1032 0010 0E46     		mov	r6, r1
 1033              	.LVL141:
 1034              	.L147:
 1035              	.LBB102:
 1036              		.loc 1 531 0
 1037 0012 AB68     		ldr	r3, [r5, #8]
 1038 0014 0122     		movs	r2, #1
 1039 0016 0DF10701 		add	r1, sp, #7
 1040 001a 2046     		mov	r0, r4
 1041 001c 9847     		blx	r3
 1042              	.LVL142:
 1043 001e 0028     		cmp	r0, #0
 1044 0020 36D0     		beq	.L156
 1045              		.loc 1 593 0
 1046 0022 9DF80730 		ldrb	r3, [sp, #7]	@ zero_extendqisi2
 1047 0026 082B     		cmp	r3, #8
 1048 0028 14D0     		beq	.L149
 1049              		.loc 1 593 0 is_stmt 0 discriminator 1
 1050 002a 7F2B     		cmp	r3, #127
 1051              		.loc 1 666 0 is_stmt 1 discriminator 1
 1052 002c 1946     		mov	r1, r3
 1053 002e 2046     		mov	r0, r4
 1054              		.loc 1 593 0 discriminator 1
 1055 0030 10D0     		beq	.L149
 1056              	.LVL143:
 1057              		.loc 1 604 0
 1058 0032 0A2B     		cmp	r3, #10
 1059 0034 23D0     		beq	.L152
 1060              		.loc 1 604 0 is_stmt 0 discriminator 1
 1061 0036 0D2B     		cmp	r3, #13
 1062 0038 21D0     		beq	.L152
 1063              		.loc 1 662 0 is_stmt 1
 1064 003a 1F2B     		cmp	r3, #31
 1065 003c 2568     		ldr	r5, [r4]
 1066 003e E8D9     		bls	.L147
 1067              		.loc 1 664 0
 1068 0040 BE42     		cmp	r6, r7
 1069 0042 E6D2     		bcs	.L147
 1070              		.loc 1 666 0
 1071 0044 EB68     		ldr	r3, [r5, #12]
 1072 0046 9847     		blx	r3
 1073              	.LVL144:
 1074              		.loc 1 667 0
 1075 0048 9DF80730 		ldrb	r3, [sp, #7]	@ zero_extendqisi2
 1076 004c 3370     		strb	r3, [r6]
 1077 004e 2568     		ldr	r5, [r4]
 1078 0050 0136     		adds	r6, r6, #1
 1079              	.LVL145:
 1080 0052 DEE7     		b	.L147
 1081              	.L149:
 1082              		.loc 1 595 0
 1083 0054 4645     		cmp	r6, r8
ARM GAS  /tmp/cclgUERs.s 			page 20


 1084              		.loc 1 597 0
 1085 0056 4FF00801 		mov	r1, #8
 1086 005a 2046     		mov	r0, r4
 1087 005c 2568     		ldr	r5, [r4]
 1088              		.loc 1 595 0
 1089 005e D8D0     		beq	.L147
 1090              	.LVL146:
 1091              		.loc 1 597 0
 1092 0060 EB68     		ldr	r3, [r5, #12]
 1093 0062 9847     		blx	r3
 1094              	.LVL147:
 1095              		.loc 1 598 0
 1096 0064 2368     		ldr	r3, [r4]
 1097 0066 2021     		movs	r1, #32
 1098 0068 DB68     		ldr	r3, [r3, #12]
 1099 006a 2046     		mov	r0, r4
 1100 006c 9847     		blx	r3
 1101              	.LVL148:
 1102              		.loc 1 599 0
 1103 006e 2368     		ldr	r3, [r4]
 1104 0070 0821     		movs	r1, #8
 1105 0072 DB68     		ldr	r3, [r3, #12]
 1106 0074 2046     		mov	r0, r4
 1107 0076 9847     		blx	r3
 1108              	.LVL149:
 1109              		.loc 1 600 0
 1110 0078 013E     		subs	r6, r6, #1
 1111              	.LVL150:
 1112 007a 2568     		ldr	r5, [r4]
 1113 007c C9E7     		b	.L147
 1114              	.LVL151:
 1115              	.L152:
 1116              		.loc 1 606 0
 1117 007e 2046     		mov	r0, r4
 1118              	.LVL152:
 1119 0080 0549     		ldr	r1, .L166
 1120 0082 FFF7FEFF 		bl	chprintf
 1121              	.LVL153:
 1122              		.loc 1 610 0
 1123 0086 0020     		movs	r0, #0
 1124 0088 3070     		strb	r0, [r6]
 1125              	.LBE102:
 1126              		.loc 1 670 0
 1127 008a 02B0     		add	sp, sp, #8
 1128              		.cfi_remember_state
 1129              		.cfi_def_cfa_offset 24
 1130              		@ sp needed
 1131 008c BDE8F081 		pop	{r4, r5, r6, r7, r8, pc}
 1132              	.LVL154:
 1133              	.L156:
 1134              		.cfi_restore_state
 1135              	.LBB103:
 1136              		.loc 1 532 0
 1137 0090 0120     		movs	r0, #1
 1138              	.LBE103:
 1139              		.loc 1 670 0
 1140 0092 02B0     		add	sp, sp, #8
ARM GAS  /tmp/cclgUERs.s 			page 21


 1141              		.cfi_def_cfa_offset 24
 1142              		@ sp needed
 1143 0094 BDE8F081 		pop	{r4, r5, r6, r7, r8, pc}
 1144              	.LVL155:
 1145              	.L167:
 1146              		.align	2
 1147              	.L166:
 1148 0098 00000000 		.word	.LC0
 1149              		.cfi_endproc
 1150              	.LFE333:
 1151              		.size	shellGetLine, .-shellGetLine
 1152              		.global	shell_initialized
 1153              		.global	shell_cmd_mutex
 1154              		.global	shell_terminated
 1155              		.section	.bss.shell_cmd_mutex,"aw",%nobits
 1156              		.align	2
 1157              		.set	.LANCHOR0,. + 0
 1158              		.type	shell_cmd_mutex, %object
 1159              		.size	shell_cmd_mutex, 16
 1160              	shell_cmd_mutex:
 1161 0000 00000000 		.space	16
 1161      00000000 
 1161      00000000 
 1161      00000000 
 1162              		.section	.bss.shell_initialized,"aw",%nobits
 1163              		.set	.LANCHOR2,. + 0
 1164              		.type	shell_initialized, %object
 1165              		.size	shell_initialized, 1
 1166              	shell_initialized:
 1167 0000 00       		.space	1
 1168              		.section	.bss.shell_terminated,"aw",%nobits
 1169              		.align	2
 1170              		.set	.LANCHOR1,. + 0
 1171              		.type	shell_terminated, %object
 1172              		.size	shell_terminated, 4
 1173              	shell_terminated:
 1174 0000 00000000 		.space	4
 1175              		.section	.rodata.shellThread.str1.4,"aMS",%progbits,1
 1176              		.align	2
 1177              	.LC0:
 1178 0000 0D0A00   		.ascii	"\015\012\000"
 1179 0003 00       		.space	1
 1180              	.LC1:
 1181 0004 43686962 		.ascii	"ChibiOS/RT Shell\015\012\000"
 1181      694F532F 
 1181      52542053 
 1181      68656C6C 
 1181      0D0A00
 1182 0017 00       		.space	1
 1183              	.LC2:
 1184 0018 524D3138 		.ascii	"RM18A>\000"
 1184      413E00
 1185 001f 00       		.space	1
 1186              	.LC3:
 1187 0020 200900   		.ascii	" \011\000"
 1188 0023 00       		.space	1
 1189              	.LC4:
ARM GAS  /tmp/cclgUERs.s 			page 22


 1190 0024 68656C70 		.ascii	"help\000"
 1190      00
 1191 0029 000000   		.space	3
 1192              	.LC5:
 1193 002c 55736167 		.ascii	"Usage: %s\015\012\000"
 1193      653A2025 
 1193      730D0A00 
 1194              	.LC6:
 1195 0038 436F6D6D 		.ascii	"Commands: help \000"
 1195      616E6473 
 1195      3A206865 
 1195      6C702000 
 1196              	.LC7:
 1197 0048 25732000 		.ascii	"%s \000"
 1198              	.LC8:
 1199 004c 257300   		.ascii	"%s\000"
 1200 004f 00       		.space	1
 1201              	.LC9:
 1202 0050 203F0D0A 		.ascii	" ?\015\012\000"
 1202      00
 1203 0055 000000   		.space	3
 1204              	.LC10:
 1205 0058 746F6F20 		.ascii	"too many arguments\015\012\000"
 1205      6D616E79 
 1205      20617267 
 1205      756D656E 
 1205      74730D0A 
 1206              		.text
 1207              	.Letext0:
 1208              		.file 5 "/usr/lib/gcc/arm-none-eabi/7.3.1/include/stddef.h"
 1209              		.file 6 "/usr/arm-none-eabi/include/machine/_default_types.h"
 1210              		.file 7 "/usr/arm-none-eabi/include/sys/lock.h"
 1211              		.file 8 "/usr/arm-none-eabi/include/sys/_types.h"
 1212              		.file 9 "/usr/arm-none-eabi/include/sys/reent.h"
 1213              		.file 10 "/usr/arm-none-eabi/include/sys/_stdint.h"
 1214              		.file 11 "./RM18A-ChibiOS18-Core/chibios/os/common/ports/ARMCMx/compilers/GCC/chtypes.h"
 1215              		.file 12 "./RM18A-ChibiOS18-Core/chibios/os/rt/include/chsystypes.h"
 1216              		.file 13 "./RM18A-ChibiOS18-Core/chibios/os/rt/include/chschd.h"
 1217              		.file 14 "./RM18A-ChibiOS18-Core/chibios/os/rt/include/chtime.h"
 1218              		.file 15 "./RM18A-ChibiOS18-Core/chibios/os/common/ext/ARM/CMSIS/Core/Include/core_cm4.h"
 1219              		.file 16 "./RM18A-ChibiOS18-Core/chibios/os/common/ext/ST/STM32F4xx/system_stm32f4xx.h"
 1220              		.file 17 "./RM18A-ChibiOS18-Core/chibios/os/common/ext/ST/STM32F4xx/stm32f427xx.h"
 1221              		.file 18 "./RM18A-ChibiOS18-Core/chibios/os/common/ports/ARMCMx/chcore.h"
 1222              		.file 19 "./RM18A-ChibiOS18-Core/chibios/os/common/ports/ARMCMx/chcore_v7m.h"
 1223              		.file 20 "./RM18A-ChibiOS18-Core/chibios/os/hal/ports/STM32/LLD/TIMv1/stm32_tim.h"
 1224              		.file 21 "./RM18A-ChibiOS18-Core/chibios/os/rt/include/chtm.h"
 1225              		.file 22 "./RM18A-ChibiOS18-Core/chibios/os/rt/include/chsem.h"
 1226              		.file 23 "./RM18A-ChibiOS18-Core/chibios/os/rt/include/chmtx.h"
 1227              		.file 24 "./RM18A-ChibiOS18-Core/chibios/os/rt/include/chsys.h"
 1228              		.file 25 "./RM18A-ChibiOS18-Core/chibios/os/rt/include/chregistry.h"
 1229              		.file 26 "./RM18A-ChibiOS18-Core/chibios/os/oslib/include/chmemcore.h"
 1230              		.file 27 "./RM18A-ChibiOS18-Core/chibios/os/oslib/include/chmempools.h"
 1231              		.file 28 "./RM18A-ChibiOS18-Core/chibios/os/oslib/include/chfactory.h"
 1232              		.file 29 "./RM18A-ChibiOS18-Core/chibios/os/hal/ports/STM32/LLD/DMAv2/stm32_dma.h"
 1233              		.file 30 "./RM18A-ChibiOS18-Core/chibios/os/hal/include/hal_streams.h"
 1234              		.file 31 "./RM18A-ChibiOS18-Core/chibios/os/hal/include/hal_queues.h"
 1235              		.file 32 "./RM18A-ChibiOS18-Core/chibios/os/hal/include/hal_pal.h"
ARM GAS  /tmp/cclgUERs.s 			page 23


 1236              		.file 33 "./RM18A-ChibiOS18-Core/chibios/os/hal/ports/STM32/LLD/GPIOv2/hal_pal_lld.h"
 1237              		.file 34 "./RM18A-ChibiOS18-Core/chibios/os/hal/include/hal_adc.h"
 1238              		.file 35 "./RM18A-ChibiOS18-Core/chibios/os/hal/ports/STM32/LLD/ADCv2/hal_adc_lld.h"
 1239              		.file 36 "./RM18A-ChibiOS18-Core/chibios/os/hal/include/hal_can.h"
 1240              		.file 37 "./RM18A-ChibiOS18-Core/chibios/os/hal/ports/STM32/LLD/CANv1/hal_can_lld.h"
 1241              		.file 38 "./RM18A-ChibiOS18-Core/chibios/os/hal/include/hal_i2c.h"
 1242              		.file 39 "./RM18A-ChibiOS18-Core/chibios/os/hal/lib/fallback/I2C/hal_i2c_lld.h"
 1243              		.file 40 "./RM18A-ChibiOS18-Core/chibios/os/hal/include/hal_icu.h"
 1244              		.file 41 "./RM18A-ChibiOS18-Core/chibios/os/hal/ports/STM32/LLD/TIMv1/hal_icu_lld.h"
 1245              		.file 42 "./RM18A-ChibiOS18-Core/chibios/os/hal/include/hal_pwm.h"
 1246              		.file 43 "./RM18A-ChibiOS18-Core/chibios/os/hal/ports/STM32/LLD/TIMv1/hal_pwm_lld.h"
 1247              		.file 44 "./RM18A-ChibiOS18-Core/chibios/os/hal/include/hal_serial.h"
 1248              		.file 45 "./RM18A-ChibiOS18-Core/chibios/os/hal/ports/STM32/LLD/USARTv1/hal_serial_lld.h"
 1249              		.file 46 "./RM18A-ChibiOS18-Core/chibios/os/hal/include/hal_spi.h"
 1250              		.file 47 "./RM18A-ChibiOS18-Core/chibios/os/hal/ports/STM32/LLD/SPIv1/hal_spi_lld.h"
 1251              		.file 48 "./RM18A-ChibiOS18-Core/chibios/os/hal/include/hal_uart.h"
 1252              		.file 49 "./RM18A-ChibiOS18-Core/chibios/os/hal/ports/STM32/LLD/USARTv1/hal_uart_lld.h"
 1253              		.file 50 "./RM18A-ChibiOS18-Core/chibios/os/hal/include/hal_usb.h"
 1254              		.file 51 "./RM18A-ChibiOS18-Core/chibios/os/hal/ports/STM32/LLD/OTGv1/hal_usb_lld.h"
 1255              		.file 52 "./RM18A-ChibiOS18-Core/chibios/os/hal/ports/STM32/LLD/OTGv1/stm32_otg.h"
 1256              		.file 53 "./RM18A-ChibiOS18-Core/src/shell/shell.h"
 1257              		.file 54 "./RM18A-ChibiOS18-Core/src/shell/shell_cmd.h"
 1258              		.file 55 "./RM18A-ChibiOS18-Core/chibios/os/rt/include/chthreads.h"
 1259              		.file 56 "/usr/arm-none-eabi/include/string.h"
 1260              		.file 57 "./RM18A-ChibiOS18-Core/chibios/os/hal/lib/streams/chprintf.h"
 1261              		.file 58 "<built-in>"