ARM GAS  /tmp/ccYA4cxa.s 			page 1


   1              		.cpu cortex-m4
   2              		.eabi_attribute 27, 1
   3              		.eabi_attribute 28, 1
   4              		.eabi_attribute 20, 1
   5              		.eabi_attribute 21, 1
   6              		.eabi_attribute 23, 3
   7              		.eabi_attribute 24, 1
   8              		.eabi_attribute 25, 1
   9              		.eabi_attribute 26, 1
  10              		.eabi_attribute 30, 2
  11              		.eabi_attribute 34, 1
  12              		.eabi_attribute 18, 4
  13              		.file	"SimplePid.cpp"
  14              		.text
  15              	.Ltext0:
  16              		.cfi_sections	.debug_frame
  17              		.section	.text._ZN12MotorControl14SimplePidParamC2EPKcfffff,"ax",%progbits
  18              		.align	1
  19              		.p2align 2,,3
  20              		.global	_ZN12MotorControl14SimplePidParamC2EPKcfffff
  21              		.syntax unified
  22              		.thumb
  23              		.thumb_func
  24              		.fpu fpv4-sp-d16
  25              		.type	_ZN12MotorControl14SimplePidParamC2EPKcfffff, %function
  26              	_ZN12MotorControl14SimplePidParamC2EPKcfffff:
  27              	.LFB331:
  28              		.file 1 "./RM18A-ChibiOS18-Core/src/controller/SimplePid.cpp"
  29              		.loc 1 7 0
  30              		.cfi_startproc
  31              		@ args = 0, pretend = 0, frame = 0
  32              		@ frame_needed = 0, uses_anonymous_args = 0
  33              		@ link register save eliminated.
  34              	.LVL0:
  35 0000 0346     		mov	r3, r0
  36 0002 30B4     		push	{r4, r5}
  37              		.cfi_def_cfa_offset 8
  38              		.cfi_offset 4, -8
  39              		.cfi_offset 5, -4
  40              	.LBB67:
  41              		.loc 1 18 0
  42 0004 204A     		ldr	r2, .L4
  43 0006 214C     		ldr	r4, .L4+4
  44 0008 80ED000A 		vstr.32	s0, [r0]
  45 000c C0ED010A 		vstr.32	s1, [r0, #4]
  46 0010 80ED021A 		vstr.32	s2, [r0, #8]
  47 0014 C0ED031A 		vstr.32	s3, [r0, #12]
  48 0018 80ED042A 		vstr.32	s4, [r0, #16]
  49 001c 5861     		str	r0, [r3, #20]
  50 001e C262     		str	r2, [r0, #44]
  51              		.loc 1 15 0
  52 0020 021D     		adds	r2, r0, #4
  53              		.loc 1 18 0
  54 0022 1B4D     		ldr	r5, .L4+8
  55 0024 0263     		str	r2, [r0, #48]
  56 0026 4466     		str	r4, [r0, #100]
  57              		.loc 1 16 0
ARM GAS  /tmp/ccYA4cxa.s 			page 2


  58 0028 00F10802 		add	r2, r0, #8
  59              		.loc 1 18 0
  60 002c 194C     		ldr	r4, .L4+12
  61 002e 8564     		str	r5, [r0, #72]
  62 0030 C264     		str	r2, [r0, #76]
  63              		.loc 1 17 0
  64 0032 00F10C05 		add	r5, r0, #12
  65              		.loc 1 18 0
  66 0036 0022     		movs	r2, #0
  67 0038 8566     		str	r5, [r0, #104]
  68 003a C161     		str	r1, [r0, #28]
  69 003c 00F11005 		add	r5, r0, #16
  70 0040 8163     		str	r1, [r0, #56]
  71 0042 4165     		str	r1, [r0, #84]
  72 0044 0167     		str	r1, [r0, #112]
  73 0046 0276     		strb	r2, [r0, #24]
  74 0048 C0E90822 		strd	r2, r2, [r0, #32]
  75 004c 8262     		str	r2, [r0, #40]
  76 004e 80F83420 		strb	r2, [r0, #52]
  77 0052 C0E90F22 		strd	r2, r2, [r0, #60]
  78 0056 4264     		str	r2, [r0, #68]
  79 0058 80F85020 		strb	r2, [r0, #80]
  80 005c C0E91622 		strd	r2, r2, [r0, #88]
  81 0060 0266     		str	r2, [r0, #96]
  82 0062 80F86C20 		strb	r2, [r0, #108]
  83 0066 C0E91D22 		strd	r2, r2, [r0, #116]
  84 006a C0E91F24 		strd	r2, r4, [r0, #124]
  85 006e 0A4C     		ldr	r4, .L4+16
  86 0070 C0F88450 		str	r5, [r0, #132]
  87 0074 C0F89C40 		str	r4, [r0, #156]
  88 0078 80F88820 		strb	r2, [r0, #136]
  89 007c C0E92312 		strd	r1, r2, [r0, #140]
  90 0080 C0E92522 		strd	r2, r2, [r0, #148]
  91              	.LBE67:
  92              		.loc 1 20 0
  93 0084 30BC     		pop	{r4, r5}
  94              		.cfi_restore 5
  95              		.cfi_restore 4
  96              		.cfi_def_cfa_offset 0
  97 0086 7047     		bx	lr
  98              	.L5:
  99              		.align	2
 100              	.L4:
 101 0088 00000000 		.word	.LC0
 102 008c 08000000 		.word	.LC2
 103 0090 04000000 		.word	.LC1
 104 0094 0C000000 		.word	.LC3
 105 0098 1C000000 		.word	.LC4
 106              		.cfi_endproc
 107              	.LFE331:
 108              		.size	_ZN12MotorControl14SimplePidParamC2EPKcfffff, .-_ZN12MotorControl14SimplePidParamC2EPKcfffff
 109              		.global	_ZN12MotorControl14SimplePidParamC1EPKcfffff
 110              		.thumb_set _ZN12MotorControl14SimplePidParamC1EPKcfffff,_ZN12MotorControl14SimplePidParamC2EPKcfff
 111              		.section	.text._ZN12MotorControl14SimplePidParam9addParamsEv,"ax",%progbits
 112              		.align	1
 113              		.p2align 2,,3
 114              		.global	_ZN12MotorControl14SimplePidParam9addParamsEv
ARM GAS  /tmp/ccYA4cxa.s 			page 3


 115              		.syntax unified
 116              		.thumb
 117              		.thumb_func
 118              		.fpu fpv4-sp-d16
 119              		.type	_ZN12MotorControl14SimplePidParam9addParamsEv, %function
 120              	_ZN12MotorControl14SimplePidParam9addParamsEv:
 121              	.LFB333:
 122              		.loc 1 23 0
 123              		.cfi_startproc
 124              		@ args = 0, pretend = 0, frame = 0
 125              		@ frame_needed = 0, uses_anonymous_args = 0
 126              	.LVL1:
 127 0000 10B5     		push	{r4, lr}
 128              		.cfi_def_cfa_offset 8
 129              		.cfi_offset 4, -8
 130              		.cfi_offset 14, -4
 131              		.loc 1 23 0
 132 0002 0446     		mov	r4, r0
 133              		.loc 1 24 0
 134 0004 1430     		adds	r0, r0, #20
 135              	.LVL2:
 136 0006 FFF7FEFF 		bl	_Z9Param_addRK16Param_Definition
 137              	.LVL3:
 138              		.loc 1 25 0
 139 000a 04F13000 		add	r0, r4, #48
 140 000e FFF7FEFF 		bl	_Z9Param_addRK16Param_Definition
 141              	.LVL4:
 142              		.loc 1 26 0
 143 0012 04F14C00 		add	r0, r4, #76
 144 0016 FFF7FEFF 		bl	_Z9Param_addRK16Param_Definition
 145              	.LVL5:
 146              		.loc 1 27 0
 147 001a 04F16800 		add	r0, r4, #104
 148 001e FFF7FEFF 		bl	_Z9Param_addRK16Param_Definition
 149              	.LVL6:
 150              		.loc 1 28 0
 151 0022 04F18400 		add	r0, r4, #132
 152              		.loc 1 29 0
 153 0026 BDE81040 		pop	{r4, lr}
 154              		.cfi_restore 14
 155              		.cfi_restore 4
 156              		.cfi_def_cfa_offset 0
 157              	.LVL7:
 158              		.loc 1 28 0
 159 002a FFF7FEBF 		b	_Z9Param_addRK16Param_Definition
 160              	.LVL8:
 161              		.cfi_endproc
 162              	.LFE333:
 163              		.size	_ZN12MotorControl14SimplePidParam9addParamsEv, .-_ZN12MotorControl14SimplePidParam9addParams
 164 002e 00BF     		.section	.text._ZN12MotorControl9SimplePid5resetEv,"ax",%progbits
 165              		.align	1
 166              		.p2align 2,,3
 167              		.global	_ZN12MotorControl9SimplePid5resetEv
 168              		.syntax unified
 169              		.thumb
 170              		.thumb_func
 171              		.fpu fpv4-sp-d16
ARM GAS  /tmp/ccYA4cxa.s 			page 4


 172              		.type	_ZN12MotorControl9SimplePid5resetEv, %function
 173              	_ZN12MotorControl9SimplePid5resetEv:
 174              	.LFB334:
 175              		.loc 1 32 0
 176              		.cfi_startproc
 177              		@ args = 0, pretend = 0, frame = 0
 178              		@ frame_needed = 0, uses_anonymous_args = 0
 179              		@ link register save eliminated.
 180              	.LVL9:
 181              		.loc 1 33 0
 182 0000 0023     		movs	r3, #0
 183 0002 8360     		str	r3, [r0, #8]	@ float
 184              		.loc 1 34 0
 185 0004 C360     		str	r3, [r0, #12]	@ float
 186              		.loc 1 35 0
 187 0006 0361     		str	r3, [r0, #16]	@ float
 188              		.loc 1 36 0
 189 0008 4360     		str	r3, [r0, #4]	@ float
 190              	.LVL10:
 191              	.LBB68:
 192              	.LBB69:
 193              	.LBB70:
 194              	.LBB71:
 195              	.LBB72:
 196              	.LBB73:
 197              		.file 2 "./RM18A-ChibiOS18-Core/chibios/os/common/ext/ARM/CMSIS/Core/Include/cmsis_gcc.h"
 198              		.loc 2 493 0
 199 000a 2023     		movs	r3, #32
 200              		.syntax unified
 201              	@ 493 "./RM18A-ChibiOS18-Core/chibios/os/common/ext/ARM/CMSIS/Core/Include/cmsis_gcc.h" 1
 202 000c 83F31188 		MSR basepri, r3
 203              	@ 0 "" 2
 204              	.LVL11:
 205              		.thumb
 206              		.syntax unified
 207              	.LBE73:
 208              	.LBE72:
 209              	.LBE71:
 210              	.LBE70:
 211              	.LBB74:
 212              	.LBB75:
 213              	.LBB76:
 214              	.LBB77:
 215              		.file 3 "./RM18A-ChibiOS18-Core/chibios/os/hal/ports/STM32/LLD/TIMv1/hal_st_lld.h"
 216              		.loc 3 147 0
 217 0010 4FF08043 		mov	r3, #1073741824
 218              	.LBE77:
 219              	.LBE76:
 220              	.LBE75:
 221              	.LBE74:
 222              	.LBB81:
 223              	.LBB82:
 224              	.LBB83:
 225              	.LBB84:
 226              	.LBB85:
 227              		.loc 2 493 0
 228 0014 0022     		movs	r2, #0
ARM GAS  /tmp/ccYA4cxa.s 			page 5


 229              	.LBE85:
 230              	.LBE84:
 231              	.LBE83:
 232              	.LBE82:
 233              	.LBE81:
 234              	.LBB90:
 235              	.LBB80:
 236              	.LBB79:
 237              	.LBB78:
 238              		.loc 3 147 0
 239 0016 5B6A     		ldr	r3, [r3, #36]
 240              	.LVL12:
 241              	.LBE78:
 242              	.LBE79:
 243              	.LBE80:
 244              	.LBE90:
 245              	.LBB91:
 246              	.LBB89:
 247              	.LBB88:
 248              	.LBB87:
 249              	.LBB86:
 250              		.loc 2 493 0
 251              		.syntax unified
 252              	@ 493 "./RM18A-ChibiOS18-Core/chibios/os/common/ext/ARM/CMSIS/Core/Include/cmsis_gcc.h" 1
 253 0018 82F31188 		MSR basepri, r2
 254              	@ 0 "" 2
 255              	.LVL13:
 256              		.thumb
 257              		.syntax unified
 258              	.LBE86:
 259              	.LBE87:
 260              	.LBE88:
 261              	.LBE89:
 262              	.LBE91:
 263              	.LBE69:
 264              	.LBE68:
 265              		.loc 1 37 0
 266 001c 4361     		str	r3, [r0, #20]
 267              		.loc 1 38 0
 268 001e 7047     		bx	lr
 269              		.cfi_endproc
 270              	.LFE334:
 271              		.size	_ZN12MotorControl9SimplePid5resetEv, .-_ZN12MotorControl9SimplePid5resetEv
 272              		.global	__aeabi_uldivmod
 273              		.global	__aeabi_ldivmod
 274              		.section	.text._ZN12MotorControl9SimplePid6updateERKfS2_,"ax",%progbits
 275              		.align	1
 276              		.p2align 2,,3
 277              		.global	_ZN12MotorControl9SimplePid6updateERKfS2_
 278              		.syntax unified
 279              		.thumb
 280              		.thumb_func
 281              		.fpu fpv4-sp-d16
 282              		.type	_ZN12MotorControl9SimplePid6updateERKfS2_, %function
 283              	_ZN12MotorControl9SimplePid6updateERKfS2_:
 284              	.LFB335:
 285              		.loc 1 41 0
ARM GAS  /tmp/ccYA4cxa.s 			page 6


 286              		.cfi_startproc
 287              		@ args = 0, pretend = 0, frame = 0
 288              		@ frame_needed = 0, uses_anonymous_args = 0
 289              	.LVL14:
 290 0000 70B5     		push	{r4, r5, r6, lr}
 291              		.cfi_def_cfa_offset 16
 292              		.cfi_offset 4, -16
 293              		.cfi_offset 5, -12
 294              		.cfi_offset 6, -8
 295              		.cfi_offset 14, -4
 296              		.loc 1 42 0
 297 0002 D0ED017A 		vldr.32	s15, [r0, #4]
 298              		.loc 1 41 0
 299 0006 2DED028B 		vpush.64	{d8}
 300              		.cfi_def_cfa_offset 24
 301              		.cfi_offset 80, -24
 302              		.cfi_offset 81, -20
 303              		.loc 1 42 0
 304 000a 91ED008A 		vldr.32	s16, [r1]
 305              		.loc 1 41 0
 306 000e 0446     		mov	r4, r0
 307 0010 0D46     		mov	r5, r1
 308              	.LBB111:
 309              	.LBB112:
 310              	.LBB113:
 311              	.LBB114:
 312              	.LBB115:
 313              	.LBB116:
 314              	.LBB117:
 315              	.LBB118:
 316              		.loc 2 493 0
 317 0012 2023     		movs	r3, #32
 318              	.LBE118:
 319              	.LBE117:
 320              	.LBE116:
 321              	.LBE115:
 322              	.LBE114:
 323              	.LBE113:
 324              	.LBE112:
 325              	.LBE111:
 326              		.loc 1 42 0
 327 0014 38EE678A 		vsub.f32	s16, s16, s15
 328              	.LVL15:
 329              	.LBB148:
 330              	.LBB147:
 331              	.LBB142:
 332              	.LBB141:
 333              	.LBB122:
 334              	.LBB121:
 335              	.LBB120:
 336              	.LBB119:
 337              		.loc 2 493 0
 338              		.syntax unified
 339              	@ 493 "./RM18A-ChibiOS18-Core/chibios/os/common/ext/ARM/CMSIS/Core/Include/cmsis_gcc.h" 1
 340 0018 83F31188 		MSR basepri, r3
 341              	@ 0 "" 2
 342              	.LVL16:
ARM GAS  /tmp/ccYA4cxa.s 			page 7


 343              		.thumb
 344              		.syntax unified
 345              	.LBE119:
 346              	.LBE120:
 347              	.LBE121:
 348              	.LBE122:
 349              	.LBB123:
 350              	.LBB124:
 351              	.LBB125:
 352              	.LBB126:
 353              		.loc 3 147 0
 354 001c 4FF08042 		mov	r2, #1073741824
 355              	.LVL17:
 356              	.LBE126:
 357              	.LBE125:
 358              	.LBE124:
 359              	.LBE123:
 360              	.LBB130:
 361              	.LBB131:
 362              	.LBB132:
 363              	.LBB133:
 364              	.LBB134:
 365              		.loc 2 493 0
 366 0020 0023     		movs	r3, #0
 367              	.LBE134:
 368              	.LBE133:
 369              	.LBE132:
 370              	.LBE131:
 371              	.LBE130:
 372              	.LBB139:
 373              	.LBB129:
 374              	.LBB128:
 375              	.LBB127:
 376              		.loc 3 147 0
 377 0022 566A     		ldr	r6, [r2, #36]
 378              	.LVL18:
 379              	.LBE127:
 380              	.LBE128:
 381              	.LBE129:
 382              	.LBE139:
 383              	.LBB140:
 384              	.LBB138:
 385              	.LBB137:
 386              	.LBB136:
 387              	.LBB135:
 388              		.loc 2 493 0
 389              		.syntax unified
 390              	@ 493 "./RM18A-ChibiOS18-Core/chibios/os/common/ext/ARM/CMSIS/Core/Include/cmsis_gcc.h" 1
 391 0024 83F31188 		MSR basepri, r3
 392              	@ 0 "" 2
 393              	.LVL19:
 394              		.thumb
 395              		.syntax unified
 396              	.LBE135:
 397              	.LBE136:
 398              	.LBE137:
 399              	.LBE138:
ARM GAS  /tmp/ccYA4cxa.s 			page 8


 400              	.LBE140:
 401              	.LBE141:
 402              	.LBE142:
 403              	.LBB143:
 404              	.LBB144:
 405              		.file 4 "./RM18A-ChibiOS18-Core/chibios/os/rt/include/chtime.h"
 406              		.loc 4 464 0
 407 0028 4369     		ldr	r3, [r0, #20]
 408              	.LBE144:
 409              	.LBE143:
 410              		.loc 1 50 0
 411 002a 42F21072 		movw	r2, #10000
 412              	.LBB146:
 413              	.LBB145:
 414              		.loc 4 464 0
 415 002e F31A     		subs	r3, r6, r3
 416              	.LBE145:
 417              	.LBE146:
 418              		.loc 1 50 0
 419 0030 40F2E730 		movw	r0, #999
 420              	.LVL20:
 421 0034 0021     		movs	r1, #0
 422              	.LVL21:
 423 0036 E2FB0301 		umlal	r0, r1, r2, r3
 424 003a 4FF47A72 		mov	r2, #1000
 425 003e 0023     		movs	r3, #0
 426 0040 FFF7FEFF 		bl	__aeabi_uldivmod
 427              	.LVL22:
 428              		.loc 1 52 0
 429 0044 2A68     		ldr	r2, [r5]	@ float
 430              		.loc 1 54 0
 431 0046 2368     		ldr	r3, [r4]
 432              		.loc 1 53 0
 433 0048 84ED038A 		vstr.32	s16, [r4, #12]
 434              		.loc 1 52 0
 435 004c 6260     		str	r2, [r4, #4]	@ float
 436              		.loc 1 54 0
 437 004e D5ED005A 		vldr.32	s11, [r5]
 438 0052 93ED017A 		vldr.32	s14, [r3, #4]
 439 0056 D4ED027A 		vldr.32	s15, [r4, #8]
 440              		.loc 1 55 0
 441 005a D3ED046A 		vldr.32	s13, [r3, #16]
 442              		.loc 1 51 0
 443 005e 6661     		str	r6, [r4, #20]
 444              		.loc 1 50 0
 445 0060 06EE100A 		vmov	s12, r0	@ int
 446              		.loc 1 54 0
 447 0064 27EE257A 		vmul.f32	s14, s14, s11
 448              		.loc 1 50 0
 449 0068 B8EE466A 		vcvt.f32.u32	s12, s12
 450              	.LVL23:
 451              		.loc 1 54 0
 452 006c E6EE077A 		vfma.f32	s15, s12, s14
 453              		.loc 1 57 0
 454 0070 93ED037A 		vldr.32	s14, [r3, #12]
 455              		.loc 1 54 0
 456 0074 C4ED027A 		vstr.32	s15, [r4, #8]
ARM GAS  /tmp/ccYA4cxa.s 			page 9


 457              		.loc 1 55 0
 458 0078 F4EEE67A 		vcmpe.f32	s15, s13
 459 007c F1EE10FA 		vmrs	APSR_nzcv, FPSCR
 460              		.loc 1 56 0
 461 0080 C8BF     		it	gt
 462 0082 F0EE667A 		vmovgt.f32	s15, s13
 463              		.loc 1 57 0
 464 0086 B4EEE77A 		vcmpe.f32	s14, s15
 465              		.loc 1 56 0
 466 008a C8BF     		it	gt
 467 008c C4ED026A 		vstrgt.32	s13, [r4, #8]
 468              		.loc 1 59 0
 469 0090 93ED026A 		vldr.32	s12, [r3, #8]
 470              	.LVL24:
 471              		.loc 1 57 0
 472 0094 F1EE10FA 		vmrs	APSR_nzcv, FPSCR
 473              		.loc 1 58 0
 474 0098 C4BF     		itt	gt
 475 009a 84ED027A 		vstrgt.32	s14, [r4, #8]
 476 009e F0EE477A 		vmovgt.f32	s15, s14
 477              		.loc 1 59 0
 478 00a2 D5ED006A 		vldr.32	s13, [r5]
 479 00a6 93ED007A 		vldr.32	s14, [r3]
 480 00aa 28EE068A 		vmul.f32	s16, s16, s12
 481 00ae A6EE878A 		vfma.f32	s16, s13, s14
 482 00b2 38EE278A 		vadd.f32	s16, s16, s15
 483 00b6 84ED048A 		vstr.32	s16, [r4, #16]
 484              	.LVL25:
 485              	.LBE147:
 486              	.LBE148:
 487              		.loc 1 43 0
 488 00ba BDEC028B 		vldm	sp!, {d8}
 489              		.cfi_restore 80
 490              		.cfi_restore 81
 491              		.cfi_def_cfa_offset 16
 492 00be 70BD     		pop	{r4, r5, r6, pc}
 493              		.cfi_endproc
 494              	.LFE335:
 495              		.size	_ZN12MotorControl9SimplePid6updateERKfS2_, .-_ZN12MotorControl9SimplePid6updateERKfS2_
 496              		.section	.text._ZN12MotorControl9SimplePid6updateERKfS2_S2_,"ax",%progbits
 497              		.align	1
 498              		.p2align 2,,3
 499              		.global	_ZN12MotorControl9SimplePid6updateERKfS2_S2_
 500              		.syntax unified
 501              		.thumb
 502              		.thumb_func
 503              		.fpu fpv4-sp-d16
 504              		.type	_ZN12MotorControl9SimplePid6updateERKfS2_S2_, %function
 505              	_ZN12MotorControl9SimplePid6updateERKfS2_S2_:
 506              	.LFB336:
 507              		.loc 1 46 0
 508              		.cfi_startproc
 509              		@ args = 0, pretend = 0, frame = 0
 510              		@ frame_needed = 0, uses_anonymous_args = 0
 511              	.LVL26:
 512 0000 F8B5     		push	{r3, r4, r5, r6, r7, lr}
 513              		.cfi_def_cfa_offset 24
ARM GAS  /tmp/ccYA4cxa.s 			page 10


 514              		.cfi_offset 3, -24
 515              		.cfi_offset 4, -20
 516              		.cfi_offset 5, -16
 517              		.cfi_offset 6, -12
 518              		.cfi_offset 7, -8
 519              		.cfi_offset 14, -4
 520              		.loc 1 46 0
 521 0002 1E46     		mov	r6, r3
 522 0004 0446     		mov	r4, r0
 523 0006 0D46     		mov	r5, r1
 524              	.LBB149:
 525              	.LBB150:
 526              	.LBB151:
 527              	.LBB152:
 528              	.LBB153:
 529              	.LBB154:
 530              		.loc 2 493 0
 531 0008 2023     		movs	r3, #32
 532              	.LVL27:
 533              		.syntax unified
 534              	@ 493 "./RM18A-ChibiOS18-Core/chibios/os/common/ext/ARM/CMSIS/Core/Include/cmsis_gcc.h" 1
 535 000a 83F31188 		MSR basepri, r3
 536              	@ 0 "" 2
 537              	.LVL28:
 538              		.thumb
 539              		.syntax unified
 540              	.LBE154:
 541              	.LBE153:
 542              	.LBE152:
 543              	.LBE151:
 544              	.LBB155:
 545              	.LBB156:
 546              	.LBB157:
 547              	.LBB158:
 548              		.loc 3 147 0
 549 000e 4FF08042 		mov	r2, #1073741824
 550              	.LVL29:
 551              	.LBE158:
 552              	.LBE157:
 553              	.LBE156:
 554              	.LBE155:
 555              	.LBB162:
 556              	.LBB163:
 557              	.LBB164:
 558              	.LBB165:
 559              	.LBB166:
 560              		.loc 2 493 0
 561 0012 0023     		movs	r3, #0
 562              	.LBE166:
 563              	.LBE165:
 564              	.LBE164:
 565              	.LBE163:
 566              	.LBE162:
 567              	.LBB171:
 568              	.LBB161:
 569              	.LBB160:
 570              	.LBB159:
ARM GAS  /tmp/ccYA4cxa.s 			page 11


 571              		.loc 3 147 0
 572 0014 576A     		ldr	r7, [r2, #36]
 573              	.LVL30:
 574              	.LBE159:
 575              	.LBE160:
 576              	.LBE161:
 577              	.LBE171:
 578              	.LBB172:
 579              	.LBB170:
 580              	.LBB169:
 581              	.LBB168:
 582              	.LBB167:
 583              		.loc 2 493 0
 584              		.syntax unified
 585              	@ 493 "./RM18A-ChibiOS18-Core/chibios/os/common/ext/ARM/CMSIS/Core/Include/cmsis_gcc.h" 1
 586 0016 83F31188 		MSR basepri, r3
 587              	@ 0 "" 2
 588              	.LVL31:
 589              		.thumb
 590              		.syntax unified
 591              	.LBE167:
 592              	.LBE168:
 593              	.LBE169:
 594              	.LBE170:
 595              	.LBE172:
 596              	.LBE150:
 597              	.LBE149:
 598              	.LBB173:
 599              	.LBB174:
 600              		.loc 4 464 0
 601 001a 4369     		ldr	r3, [r0, #20]
 602              	.LBE174:
 603              	.LBE173:
 604              		.loc 1 50 0
 605 001c 42F21072 		movw	r2, #10000
 606              	.LBB176:
 607              	.LBB175:
 608              		.loc 4 464 0
 609 0020 FB1A     		subs	r3, r7, r3
 610              	.LBE175:
 611              	.LBE176:
 612              		.loc 1 50 0
 613 0022 40F2E730 		movw	r0, #999
 614              	.LVL32:
 615 0026 0021     		movs	r1, #0
 616              	.LVL33:
 617 0028 E2FB0301 		umlal	r0, r1, r2, r3
 618 002c 4FF47A72 		mov	r2, #1000
 619 0030 0023     		movs	r3, #0
 620 0032 FFF7FEFF 		bl	__aeabi_uldivmod
 621              	.LVL34:
 622              		.loc 1 52 0
 623 0036 2A68     		ldr	r2, [r5]	@ float
 624              		.loc 1 54 0
 625 0038 2368     		ldr	r3, [r4]
 626              		.loc 1 52 0
 627 003a 6260     		str	r2, [r4, #4]	@ float
ARM GAS  /tmp/ccYA4cxa.s 			page 12


 628              		.loc 1 53 0
 629 003c 3268     		ldr	r2, [r6]	@ float
 630              		.loc 1 54 0
 631 003e 93ED017A 		vldr.32	s14, [r3, #4]
 632              		.loc 1 53 0
 633 0042 E260     		str	r2, [r4, #12]	@ float
 634              		.loc 1 54 0
 635 0044 95ED006A 		vldr.32	s12, [r5]
 636 0048 D4ED027A 		vldr.32	s15, [r4, #8]
 637              		.loc 1 55 0
 638 004c D3ED046A 		vldr.32	s13, [r3, #16]
 639              		.loc 1 59 0
 640 0050 D3ED025A 		vldr.32	s11, [r3, #8]
 641              		.loc 1 51 0
 642 0054 6761     		str	r7, [r4, #20]
 643              		.loc 1 54 0
 644 0056 27EE067A 		vmul.f32	s14, s14, s12
 645              		.loc 1 50 0
 646 005a 06EE100A 		vmov	s12, r0	@ int
 647 005e B8EE466A 		vcvt.f32.u32	s12, s12
 648              	.LVL35:
 649              		.loc 1 54 0
 650 0062 E7EE067A 		vfma.f32	s15, s14, s12
 651              		.loc 1 57 0
 652 0066 93ED037A 		vldr.32	s14, [r3, #12]
 653              		.loc 1 54 0
 654 006a C4ED027A 		vstr.32	s15, [r4, #8]
 655              		.loc 1 55 0
 656 006e F4EEE67A 		vcmpe.f32	s15, s13
 657 0072 F1EE10FA 		vmrs	APSR_nzcv, FPSCR
 658 0076 C8BF     		it	gt
 659 0078 F0EE667A 		vmovgt.f32	s15, s13
 660              		.loc 1 57 0
 661 007c B4EEE77A 		vcmpe.f32	s14, s15
 662              		.loc 1 56 0
 663 0080 C8BF     		it	gt
 664 0082 C4ED026A 		vstrgt.32	s13, [r4, #8]
 665              		.loc 1 57 0
 666 0086 F1EE10FA 		vmrs	APSR_nzcv, FPSCR
 667              		.loc 1 58 0
 668 008a C4BF     		itt	gt
 669 008c 84ED027A 		vstrgt.32	s14, [r4, #8]
 670 0090 F0EE477A 		vmovgt.f32	s15, s14
 671              		.loc 1 59 0
 672 0094 96ED007A 		vldr.32	s14, [r6]
 673 0098 95ED006A 		vldr.32	s12, [r5]
 674              	.LVL36:
 675 009c D3ED006A 		vldr.32	s13, [r3]
 676 00a0 27EE257A 		vmul.f32	s14, s14, s11
 677 00a4 A6EE267A 		vfma.f32	s14, s12, s13
 678 00a8 77EE277A 		vadd.f32	s15, s14, s15
 679 00ac C4ED047A 		vstr.32	s15, [r4, #16]
 680              		.loc 1 60 0
 681 00b0 F8BD     		pop	{r3, r4, r5, r6, r7, pc}
 682              		.cfi_endproc
 683              	.LFE336:
 684              		.size	_ZN12MotorControl9SimplePid6updateERKfS2_S2_, .-_ZN12MotorControl9SimplePid6updateERKfS2_S2_
ARM GAS  /tmp/ccYA4cxa.s 			page 13


 685 00b2 00BF     		.section	.text._ZNK12MotorControl9SimplePid9getOutputEv,"ax",%progbits
 686              		.align	1
 687              		.p2align 2,,3
 688              		.global	_ZNK12MotorControl9SimplePid9getOutputEv
 689              		.syntax unified
 690              		.thumb
 691              		.thumb_func
 692              		.fpu fpv4-sp-d16
 693              		.type	_ZNK12MotorControl9SimplePid9getOutputEv, %function
 694              	_ZNK12MotorControl9SimplePid9getOutputEv:
 695              	.LFB337:
 696              		.loc 1 62 0
 697              		.cfi_startproc
 698              		@ args = 0, pretend = 0, frame = 0
 699              		@ frame_needed = 0, uses_anonymous_args = 0
 700              		@ link register save eliminated.
 701              	.LVL37:
 702              		.loc 1 62 0
 703 0000 90ED040A 		vldr.32	s0, [r0, #16]
 704 0004 7047     		bx	lr
 705              		.cfi_endproc
 706              	.LFE337:
 707              		.size	_ZNK12MotorControl9SimplePid9getOutputEv, .-_ZNK12MotorControl9SimplePid9getOutputEv
 708 0006 00BF     		.section	.text._ZNK12MotorControl9SimplePid16getOutputBoundedERKfS2_,"ax",%progbits
 709              		.align	1
 710              		.p2align 2,,3
 711              		.global	_ZNK12MotorControl9SimplePid16getOutputBoundedERKfS2_
 712              		.syntax unified
 713              		.thumb
 714              		.thumb_func
 715              		.fpu fpv4-sp-d16
 716              		.type	_ZNK12MotorControl9SimplePid16getOutputBoundedERKfS2_, %function
 717              	_ZNK12MotorControl9SimplePid16getOutputBoundedERKfS2_:
 718              	.LFB338:
 719              		.loc 1 65 0
 720              		.cfi_startproc
 721              		@ args = 0, pretend = 0, frame = 0
 722              		@ frame_needed = 0, uses_anonymous_args = 0
 723              		@ link register save eliminated.
 724              	.LVL38:
 725              		.loc 1 66 0
 726 0000 D0ED047A 		vldr.32	s15, [r0, #16]
 727 0004 92ED000A 		vldr.32	s0, [r2]
 728 0008 F4EEC07A 		vcmpe.f32	s15, s0
 729 000c F1EE10FA 		vmrs	APSR_nzcv, FPSCR
 730 0010 08DC     		bgt	.L26
 731              		.loc 1 68 0
 732 0012 91ED000A 		vldr.32	s0, [r1]
 733 0016 F4EEC07A 		vcmpe.f32	s15, s0
 734 001a F1EE10FA 		vmrs	APSR_nzcv, FPSCR
 735              		.loc 1 70 0
 736 001e 58BF     		it	pl
 737 0020 B0EE670A 		vmovpl.f32	s0, s15
 738              	.L26:
 739              		.loc 1 71 0
 740 0024 7047     		bx	lr
 741              		.cfi_endproc
ARM GAS  /tmp/ccYA4cxa.s 			page 14


 742              	.LFE338:
 743              		.size	_ZNK12MotorControl9SimplePid16getOutputBoundedERKfS2_, .-_ZNK12MotorControl9SimplePid16getOu
 744 0026 00BF     		.section	.rodata._ZN12MotorControl14SimplePidParamC2EPKcfffff.str1.4,"aMS",%progbits,1
 745              		.align	2
 746              	.LC0:
 747 0000 5F6B7000 		.ascii	"_kp\000"
 748              	.LC1:
 749 0004 5F6B6900 		.ascii	"_ki\000"
 750              	.LC2:
 751 0008 5F6B6400 		.ascii	"_kd\000"
 752              	.LC3:
 753 000c 5F696E74 		.ascii	"_integralMin\000"
 753      65677261 
 753      6C4D696E 
 753      00
 754 0019 000000   		.space	3
 755              	.LC4:
 756 001c 5F696E74 		.ascii	"_integralMax\000"
 756      65677261 
 756      6C4D6178 
 756      00
 757              		.text
 758              	.Letext0:
 759              		.file 5 "/usr/lib/gcc/arm-none-eabi/7.3.1/include/stddef.h"
 760              		.file 6 "/usr/arm-none-eabi/include/machine/_default_types.h"
 761              		.file 7 "/usr/arm-none-eabi/include/sys/_stdint.h"
 762              		.file 8 "./RM18A-ChibiOS18-Core/chibios/os/common/ports/ARMCMx/compilers/GCC/chtypes.h"
 763              		.file 9 "./RM18A-ChibiOS18-Core/chibios/os/rt/include/chsystypes.h"
 764              		.file 10 "./RM18A-ChibiOS18-Core/chibios/os/rt/include/chschd.h"
 765              		.file 11 "./RM18A-ChibiOS18-Core/chibios/os/common/ext/ARM/CMSIS/Core/Include/core_cm4.h"
 766              		.file 12 "./RM18A-ChibiOS18-Core/chibios/os/common/ext/ST/STM32F4xx/system_stm32f4xx.h"
 767              		.file 13 "./RM18A-ChibiOS18-Core/chibios/os/common/ext/ST/STM32F4xx/stm32f427xx.h"
 768              		.file 14 "./RM18A-ChibiOS18-Core/chibios/os/common/ports/ARMCMx/chcore.h"
 769              		.file 15 "./RM18A-ChibiOS18-Core/chibios/os/common/ports/ARMCMx/chcore_v7m.h"
 770              		.file 16 "./RM18A-ChibiOS18-Core/chibios/os/hal/ports/STM32/LLD/TIMv1/stm32_tim.h"
 771              		.file 17 "./RM18A-ChibiOS18-Core/chibios/os/rt/include/chtm.h"
 772              		.file 18 "./RM18A-ChibiOS18-Core/chibios/os/rt/include/chsem.h"
 773              		.file 19 "./RM18A-ChibiOS18-Core/chibios/os/rt/include/chmtx.h"
 774              		.file 20 "./RM18A-ChibiOS18-Core/chibios/os/rt/include/chsys.h"
 775              		.file 21 "./RM18A-ChibiOS18-Core/chibios/os/rt/include/chregistry.h"
 776              		.file 22 "./RM18A-ChibiOS18-Core/chibios/os/rt/include/chevents.h"
 777              		.file 23 "./RM18A-ChibiOS18-Core/chibios/os/oslib/include/chmemcore.h"
 778              		.file 24 "./RM18A-ChibiOS18-Core/chibios/os/oslib/include/chmempools.h"
 779              		.file 25 "./RM18A-ChibiOS18-Core/chibios/os/oslib/include/chfactory.h"
 780              		.file 26 "./RM18A-ChibiOS18-Core/chibios/os/hal/ports/STM32/LLD/DMAv2/stm32_dma.h"
 781              		.file 27 "./RM18A-ChibiOS18-Core/chibios/os/hal/include/hal_streams.h"
 782              		.file 28 "./RM18A-ChibiOS18-Core/chibios/os/hal/include/hal_queues.h"
 783              		.file 29 "./RM18A-ChibiOS18-Core/chibios/os/hal/include/hal_pal.h"
 784              		.file 30 "./RM18A-ChibiOS18-Core/chibios/os/hal/ports/STM32/LLD/GPIOv2/hal_pal_lld.h"
 785              		.file 31 "./RM18A-ChibiOS18-Core/chibios/os/hal/include/hal_adc.h"
 786              		.file 32 "./RM18A-ChibiOS18-Core/chibios/os/hal/ports/STM32/LLD/ADCv2/hal_adc_lld.h"
 787              		.file 33 "./RM18A-ChibiOS18-Core/chibios/os/hal/include/hal_can.h"
 788              		.file 34 "./RM18A-ChibiOS18-Core/chibios/os/hal/ports/STM32/LLD/CANv1/hal_can_lld.h"
 789              		.file 35 "./RM18A-ChibiOS18-Core/chibios/os/hal/include/hal_icu.h"
 790              		.file 36 "./RM18A-ChibiOS18-Core/chibios/os/hal/ports/STM32/LLD/TIMv1/hal_icu_lld.h"
 791              		.file 37 "./RM18A-ChibiOS18-Core/chibios/os/hal/include/hal_pwm.h"
 792              		.file 38 "./RM18A-ChibiOS18-Core/chibios/os/hal/ports/STM32/LLD/TIMv1/hal_pwm_lld.h"
ARM GAS  /tmp/ccYA4cxa.s 			page 15


 793              		.file 39 "./RM18A-ChibiOS18-Core/chibios/os/hal/include/hal_serial.h"
 794              		.file 40 "./RM18A-ChibiOS18-Core/chibios/os/hal/ports/STM32/LLD/USARTv1/hal_serial_lld.h"
 795              		.file 41 "./RM18A-ChibiOS18-Core/chibios/os/hal/include/hal_spi.h"
 796              		.file 42 "./RM18A-ChibiOS18-Core/chibios/os/hal/ports/STM32/LLD/SPIv1/hal_spi_lld.h"
 797              		.file 43 "./RM18A-ChibiOS18-Core/chibios/os/hal/include/hal_uart.h"
 798              		.file 44 "./RM18A-ChibiOS18-Core/chibios/os/hal/ports/STM32/LLD/USARTv1/hal_uart_lld.h"
 799              		.file 45 "./RM18A-ChibiOS18-Core/chibios/os/hal/include/hal_usb.h"
 800              		.file 46 "./RM18A-ChibiOS18-Core/chibios/os/hal/ports/STM32/LLD/OTGv1/hal_usb_lld.h"
 801              		.file 47 "./RM18A-ChibiOS18-Core/chibios/os/hal/ports/STM32/LLD/OTGv1/stm32_otg.h"
 802              		.file 48 "./RM18A-ChibiOS18-Core/src/peripherals/flash.h"
 803              		.file 49 "./RM18A-ChibiOS18-Core/src/shell/shell.h"
 804              		.file 50 "./RM18A-ChibiOS18-Core/src/Persistence.hpp"
 805              		.file 51 "./RM18A-ChibiOS18-Core/src/controller/SimplePid.hpp"
 806              		.file 52 "/usr/arm-none-eabi/include/sys/lock.h"
 807              		.file 53 "/usr/arm-none-eabi/include/sys/_types.h"
 808              		.file 54 "/usr/arm-none-eabi/include/sys/reent.h"
 809              		.file 55 "./RM18A-ChibiOS18-Core/chibios/os/rt/include/chvt.h"
 810              		.file 56 "./RM18A-ChibiOS18-Core/chibios/os/common/ports/ARMCMx/chcore_timer.h"