ARM GAS  /tmp/ccav555Y.s 			page 1


   1              		.cpu cortex-m4
   2              		.eabi_attribute 27, 1
   3              		.eabi_attribute 28, 1
   4              		.eabi_attribute 20, 1
   5              		.eabi_attribute 21, 1
   6              		.eabi_attribute 23, 3
   7              		.eabi_attribute 24, 1
   8              		.eabi_attribute 25, 1
   9              		.eabi_attribute 26, 1
  10              		.eabi_attribute 30, 2
  11              		.eabi_attribute 34, 1
  12              		.eabi_attribute 18, 4
  13              		.file	"Snail_Sentry.cpp"
  14              		.text
  15              	.Ltext0:
  16              		.cfi_sections	.debug_frame
  17              		.section	.text._ZN10chibios_rt16BaseStaticThreadILi64EE5startEm,"axG",%progbits,_ZN10chibios_rt16B
  18              		.align	1
  19              		.p2align 2,,3
  20              		.weak	_ZN10chibios_rt16BaseStaticThreadILi64EE5startEm
  21              		.syntax unified
  22              		.thumb
  23              		.thumb_func
  24              		.fpu fpv4-sp-d16
  25              		.type	_ZN10chibios_rt16BaseStaticThreadILi64EE5startEm, %function
  26              	_ZN10chibios_rt16BaseStaticThreadILi64EE5startEm:
  27              	.LFB533:
  28              		.file 1 "./RM18A-ChibiOS18-Core/chibios/os/various/cpp_wrappers/ch.hpp"
  29              		.loc 1 1335 0
  30              		.cfi_startproc
  31              		@ args = 0, pretend = 0, frame = 0
  32              		@ frame_needed = 0, uses_anonymous_args = 0
  33              	.LVL0:
  34 0000 00B5     		push	{lr}
  35              		.cfi_def_cfa_offset 4
  36              		.cfi_offset 14, -4
  37 0002 83B0     		sub	sp, sp, #12
  38              		.cfi_def_cfa_offset 16
  39              		.loc 1 1339 0
  40 0004 0A46     		mov	r2, r1
  41 0006 0090     		str	r0, [sp]
  42 0008 044B     		ldr	r3, .L4
  43 000a 4FF4C871 		mov	r1, #400
  44              	.LVL1:
  45 000e 0830     		adds	r0, r0, #8
  46              	.LVL2:
  47 0010 FFF7FEFF 		bl	chThdCreateStatic
  48              	.LVL3:
  49              		.loc 1 1340 0
  50 0014 03B0     		add	sp, sp, #12
  51              		.cfi_def_cfa_offset 4
  52              		@ sp needed
  53 0016 5DF804FB 		ldr	pc, [sp], #4
  54              	.L5:
  55 001a 00BF     		.align	2
  56              	.L4:
  57 001c 00000000 		.word	_ZN10chibios_rt10_thd_startEPv
ARM GAS  /tmp/ccav555Y.s 			page 2


  58              		.cfi_endproc
  59              	.LFE533:
  60              		.size	_ZN10chibios_rt16BaseStaticThreadILi64EE5startEm, .-_ZN10chibios_rt16BaseStaticThreadILi64EE
  61              		.section	.text.startup._ZN5Snail4mainEv,"ax",%progbits
  62              		.align	1
  63              		.p2align 2,,3
  64              		.global	_ZN5Snail4mainEv
  65              		.syntax unified
  66              		.thumb
  67              		.thumb_func
  68              		.fpu fpv4-sp-d16
  69              		.type	_ZN5Snail4mainEv, %function
  70              	_ZN5Snail4mainEv:
  71              	.LFB531:
  72              		.file 2 "./RM18A-ChibiOS18-Core/src/ext_hw/Snail_Sentry.cpp"
  73              		.loc 2 110 0
  74              		.cfi_startproc
  75              		@ args = 0, pretend = 0, frame = 0
  76              		@ frame_needed = 0, uses_anonymous_args = 0
  77              	.LVL4:
  78 0000 2DE9F047 		push	{r4, r5, r6, r7, r8, r9, r10, lr}
  79              		.cfi_def_cfa_offset 32
  80              		.cfi_offset 4, -32
  81              		.cfi_offset 5, -28
  82              		.cfi_offset 6, -24
  83              		.cfi_offset 7, -20
  84              		.cfi_offset 8, -16
  85              		.cfi_offset 9, -12
  86              		.cfi_offset 10, -8
  87              		.cfi_offset 14, -4
  88              		.loc 2 112 0
  89 0004 D0F8B421 		ldr	r2, [r0, #436]
  90 0008 90F89C11 		ldrb	r1, [r0, #412]	@ zero_extendqisi2
  91 000c DFF8B890 		ldr	r9, .L15+8
  92              		.loc 2 128 0
  93 0010 2B4E     		ldr	r6, .L15
  94              		.loc 2 130 0
  95 0012 2C4F     		ldr	r7, .L15+4
  96              		.loc 2 110 0
  97 0014 0446     		mov	r4, r0
  98              		.loc 2 112 0
  99 0016 D0F89801 		ldr	r0, [r0, #408]
 100              	.LVL5:
 101 001a FFF7FEFF 		bl	pwmEnableChannel
 102              	.LVL6:
 103              		.loc 2 129 0
 104 001e 4FF00108 		mov	r8, #1
 105              	.L7:
 106              	.LBB54:
 107              	.LBB55:
 108              	.LBB56:
 109              		.file 3 "./RM18A-ChibiOS18-Core/chibios/os/rt/include/chthreads.h"
 110              		.loc 3 347 0
 111 0022 D9F81830 		ldr	r3, [r9, #24]
 112              	.LBE56:
 113              	.LBE55:
 114              	.LBE54:
ARM GAS  /tmp/ccav555Y.s 			page 3


 115              		.loc 2 113 0
 116 0026 93F82130 		ldrb	r3, [r3, #33]	@ zero_extendqisi2
 117 002a 5B07     		lsls	r3, r3, #29
 118              		.loc 2 128 0
 119 002c 3046     		mov	r0, r6
 120              		.loc 2 113 0
 121 002e 38D4     		bmi	.L6
 122              	.L14:
 123              		.loc 2 116 0
 124 0030 D4F898C1 		ldr	ip, [r4, #408]
 125 0034 94F89C11 		ldrb	r1, [r4, #412]	@ zero_extendqisi2
 126 0038 DCF81820 		ldr	r2, [ip, #24]
 127 003c D4F8B431 		ldr	r3, [r4, #436]
 128              		.loc 2 115 0
 129 0040 D4F8AC51 		ldr	r5, [r4, #428]
 130              	.LVL7:
 131 0044 02EB8102 		add	r2, r2, r1, lsl #2
 132              	.LBB59:
 133              	.LBB60:
 134              		.loc 2 148 0
 135 0048 C5F1000A 		rsb	r10, r5, #0
 136              	.LBE60:
 137              	.LBE59:
 138              		.loc 2 116 0
 139 004c D2F834E0 		ldr	lr, [r2, #52]
 140              	.LVL8:
 141              	.LBB62:
 142              	.LBB61:
 143              		.loc 2 144 0
 144 0050 A3EB0E03 		sub	r3, r3, lr
 145              	.LVL9:
 146              		.loc 2 145 0
 147 0054 9D42     		cmp	r5, r3
 148 0056 03DB     		blt	.L9
 149 0058 9A45     		cmp	r10, r3
 150 005a 5546     		mov	r5, r10
 151              	.LVL10:
 152 005c B8BF     		it	lt
 153 005e 1D46     		movlt	r5, r3
 154              	.L9:
 155              	.LBE61:
 156              	.LBE62:
 157              		.loc 2 115 0
 158 0060 0DBB     		cbnz	r5, .L13
 159              		.loc 2 128 0
 160 0062 FFF7FEFF 		bl	chMtxLock
 161              	.LVL11:
 162              		.loc 2 130 0
 163 0066 3846     		mov	r0, r7
 164              		.loc 2 129 0
 165 0068 84F8B081 		strb	r8, [r4, #432]
 166              		.loc 2 130 0
 167 006c FFF7FEFF 		bl	chCondBroadcast
 168              	.LVL12:
 169              		.loc 2 131 0
 170 0070 3046     		mov	r0, r6
 171 0072 FFF7FEFF 		bl	chMtxUnlock
ARM GAS  /tmp/ccav555Y.s 			page 4


 172              	.LVL13:
 173              	.LBB63:
 174              	.LBB64:
 175              	.LBB65:
 176              		.file 4 "./RM18A-ChibiOS18-Core/chibios/os/oslib/include/chbsem.h"
 177              		.loc 4 143 0
 178 0076 04F5D070 		add	r0, r4, #416
 179              	.LVL14:
 180 007a FFF7FEFF 		bl	chSemWait
 181              	.LVL15:
 182              	.LBE65:
 183              	.LBE64:
 184              	.LBE63:
 185              		.loc 2 135 0
 186 007e 3046     		mov	r0, r6
 187 0080 FFF7FEFF 		bl	chMtxLock
 188              	.LVL16:
 189              		.loc 2 137 0
 190 0084 3846     		mov	r0, r7
 191              		.loc 2 136 0
 192 0086 84F8B051 		strb	r5, [r4, #432]
 193              		.loc 2 137 0
 194 008a FFF7FEFF 		bl	chCondBroadcast
 195              	.LVL17:
 196              		.loc 2 138 0
 197 008e 3046     		mov	r0, r6
 198 0090 FFF7FEFF 		bl	chMtxUnlock
 199              	.LVL18:
 200              	.LBB66:
 201              	.LBB58:
 202              	.LBB57:
 203              		.loc 3 347 0
 204 0094 D9F81830 		ldr	r3, [r9, #24]
 205              	.LBE57:
 206              	.LBE58:
 207              	.LBE66:
 208              		.loc 2 113 0
 209 0098 93F82130 		ldrb	r3, [r3, #33]	@ zero_extendqisi2
 210 009c 5B07     		lsls	r3, r3, #29
 211              		.loc 2 128 0
 212 009e 3046     		mov	r0, r6
 213              		.loc 2 113 0
 214 00a0 C6D5     		bpl	.L14
 215              	.L6:
 216              		.loc 2 140 0
 217 00a2 BDE8F087 		pop	{r4, r5, r6, r7, r8, r9, r10, pc}
 218              	.LVL19:
 219              	.L13:
 220              		.loc 2 120 0 discriminator 1
 221 00a6 0023     		movs	r3, #0
 222              	.LVL20:
 223 00a8 84F8B031 		strb	r3, [r4, #432]
 224              		.loc 2 123 0 discriminator 1
 225 00ac 526B     		ldr	r2, [r2, #52]
 226              		.loc 2 121 0 discriminator 1
 227 00ae 6046     		mov	r0, ip
 228 00b0 2A44     		add	r2, r2, r5
ARM GAS  /tmp/ccav555Y.s 			page 5


 229 00b2 FFF7FEFF 		bl	pwmEnableChannel
 230              	.LVL21:
 231              		.loc 2 124 0 discriminator 1
 232 00b6 0A20     		movs	r0, #10
 233 00b8 FFF7FEFF 		bl	chThdSleep
 234              	.LVL22:
 235              		.loc 2 125 0 discriminator 1
 236 00bc B1E7     		b	.L7
 237              	.L16:
 238 00be 00BF     		.align	2
 239              	.L15:
 240 00c0 00000000 		.word	.LANCHOR0
 241 00c4 00000000 		.word	.LANCHOR1
 242 00c8 00000000 		.word	ch
 243              		.cfi_endproc
 244              	.LFE531:
 245              		.size	_ZN5Snail4mainEv, .-_ZN5Snail4mainEv
 246              		.section	.text._ZN5Snail14setupPWMDriverER9PWMDriver,"ax",%progbits
 247              		.align	1
 248              		.p2align 2,,3
 249              		.global	_ZN5Snail14setupPWMDriverER9PWMDriver
 250              		.syntax unified
 251              		.thumb
 252              		.thumb_func
 253              		.fpu fpv4-sp-d16
 254              		.type	_ZN5Snail14setupPWMDriverER9PWMDriver, %function
 255              	_ZN5Snail14setupPWMDriverER9PWMDriver:
 256              	.LFB520:
 257              		.loc 2 48 0
 258              		.cfi_startproc
 259              		@ args = 0, pretend = 0, frame = 0
 260              		@ frame_needed = 0, uses_anonymous_args = 0
 261              		@ link register save eliminated.
 262              	.LVL23:
 263              		.loc 2 60 0
 264 0000 0149     		ldr	r1, .L18
 265 0002 FFF7FEBF 		b	pwmStart
 266              	.LVL24:
 267              	.L19:
 268 0006 00BF     		.align	2
 269              	.L18:
 270 0008 00000000 		.word	.LANCHOR2
 271              		.cfi_endproc
 272              	.LFE520:
 273              		.size	_ZN5Snail14setupPWMDriverER9PWMDriver, .-_ZN5Snail14setupPWMDriverER9PWMDriver
 274              		.section	.text._ZN5Snail9addParamsEv,"ax",%progbits
 275              		.align	1
 276              		.p2align 2,,3
 277              		.global	_ZN5Snail9addParamsEv
 278              		.syntax unified
 279              		.thumb
 280              		.thumb_func
 281              		.fpu fpv4-sp-d16
 282              		.type	_ZN5Snail9addParamsEv, %function
 283              	_ZN5Snail9addParamsEv:
 284              	.LFB521:
 285              		.loc 2 64 0
ARM GAS  /tmp/ccav555Y.s 			page 6


 286              		.cfi_startproc
 287              		@ args = 0, pretend = 0, frame = 0
 288              		@ frame_needed = 0, uses_anonymous_args = 0
 289 0000 08B5     		push	{r3, lr}
 290              		.cfi_def_cfa_offset 8
 291              		.cfi_offset 3, -8
 292              		.cfi_offset 14, -4
 293              		.loc 2 65 0
 294 0002 0448     		ldr	r0, .L22
 295 0004 FFF7FEFF 		bl	_Z9Param_addRK16Param_Definition
 296              	.LVL25:
 297              		.loc 2 66 0
 298 0008 0348     		ldr	r0, .L22+4
 299              		.loc 2 67 0
 300 000a BDE80840 		pop	{r3, lr}
 301              		.cfi_restore 14
 302              		.cfi_restore 3
 303              		.cfi_def_cfa_offset 0
 304              		.loc 2 66 0
 305 000e FFF7FEBF 		b	_Z9Param_addRK16Param_Definition
 306              	.LVL26:
 307              	.L23:
 308 0012 00BF     		.align	2
 309              	.L22:
 310 0014 00000000 		.word	.LANCHOR3
 311 0018 00000000 		.word	.LANCHOR4
 312              		.cfi_endproc
 313              	.LFE521:
 314              		.size	_ZN5Snail9addParamsEv, .-_ZN5Snail9addParamsEv
 315              		.section	.text._ZN5SnailC2ER9PWMDriverRKh,"ax",%progbits
 316              		.align	1
 317              		.p2align 2,,3
 318              		.global	_ZN5SnailC2ER9PWMDriverRKh
 319              		.syntax unified
 320              		.thumb
 321              		.thumb_func
 322              		.fpu fpv4-sp-d16
 323              		.type	_ZN5SnailC2ER9PWMDriverRKh, %function
 324              	_ZN5SnailC2ER9PWMDriverRKh:
 325              	.LFB526:
 326              		.loc 2 69 0
 327              		.cfi_startproc
 328              		@ args = 0, pretend = 0, frame = 0
 329              		@ frame_needed = 0, uses_anonymous_args = 0
 330              	.LVL27:
 331 0000 38B5     		push	{r3, r4, r5, lr}
 332              		.cfi_def_cfa_offset 16
 333              		.cfi_offset 3, -16
 334              		.cfi_offset 4, -12
 335              		.cfi_offset 5, -8
 336              		.cfi_offset 14, -4
 337              	.LBB67:
 338              		.loc 2 78 0
 339 0002 114B     		ldr	r3, .L28
 340 0004 C0F89811 		str	r1, [r0, #408]
 341 0008 0360     		str	r3, [r0]
 342              		.loc 2 71 0
ARM GAS  /tmp/ccav555Y.s 			page 7


 343 000a 1378     		ldrb	r3, [r2]	@ zero_extendqisi2
 344              		.loc 2 78 0
 345 000c 80F89C31 		strb	r3, [r0, #412]
 346              	.LBE67:
 347              		.loc 2 69 0
 348 0010 0D46     		mov	r5, r1
 349 0012 0446     		mov	r4, r0
 350              	.LVL28:
 351              	.LBB73:
 352              	.LBB68:
 353              	.LBB69:
 354              	.LBB70:
 355              		.loc 4 126 0
 356 0014 0121     		movs	r1, #1
 357              	.LVL29:
 358 0016 00F5D070 		add	r0, r0, #416
 359              	.LVL30:
 360 001a FFF7FEFF 		bl	chSemObjectInit
 361              	.LVL31:
 362              	.LBE70:
 363              	.LBE69:
 364              	.LBE68:
 365              		.loc 2 74 0
 366 001e AB68     		ldr	r3, [r5, #8]
 367              		.loc 2 76 0
 368 0020 42F20F72 		movw	r2, #9999
 369 0024 9342     		cmp	r3, r2
 370 0026 82BF     		ittt	hi
 371 0028 084A     		ldrhi	r2, .L28+4
 372 002a A2FB0323 		umullhi	r2, r3, r2, r3
 373 002e 5B0B     		lsrhi	r3, r3, #13
 374              		.loc 2 78 0
 375 0030 4FF00002 		mov	r2, #0
 376              		.loc 2 76 0
 377 0034 98BF     		it	ls
 378 0036 0123     		movls	r3, #1
 379              		.loc 2 78 0
 380 0038 C4F8AC31 		str	r3, [r4, #428]
 381 003c 84F8B021 		strb	r2, [r4, #432]
 382              	.LVL32:
 383              	.LBB71:
 384              	.LBB72:
 385              		.loc 1 622 0
 386 0040 C4F8B821 		str	r2, [r4, #440]
 387              	.LVL33:
 388              	.LBE72:
 389              	.LBE71:
 390              	.LBE73:
 391              		.loc 2 80 0
 392 0044 2046     		mov	r0, r4
 393 0046 38BD     		pop	{r3, r4, r5, pc}
 394              	.LVL34:
 395              	.L29:
 396              		.align	2
 397              	.L28:
 398 0048 08000000 		.word	.LANCHOR5+8
 399 004c 5917B7D1 		.word	-776530087
ARM GAS  /tmp/ccav555Y.s 			page 8


 400              		.cfi_endproc
 401              	.LFE526:
 402              		.size	_ZN5SnailC2ER9PWMDriverRKh, .-_ZN5SnailC2ER9PWMDriverRKh
 403              		.global	_ZN5SnailC1ER9PWMDriverRKh
 404              		.thumb_set _ZN5SnailC1ER9PWMDriverRKh,_ZN5SnailC2ER9PWMDriverRKh
 405              		.section	.text._ZN5Snail4initEm,"ax",%progbits
 406              		.align	1
 407              		.p2align 2,,3
 408              		.global	_ZN5Snail4initEm
 409              		.syntax unified
 410              		.thumb
 411              		.thumb_func
 412              		.fpu fpv4-sp-d16
 413              		.type	_ZN5Snail4initEm, %function
 414              	_ZN5Snail4initEm:
 415              	.LFB528:
 416              		.loc 2 83 0
 417              		.cfi_startproc
 418              		@ args = 0, pretend = 0, frame = 0
 419              		@ frame_needed = 0, uses_anonymous_args = 0
 420              	.LVL35:
 421              	.LBB84:
 422              	.LBB85:
 423              		.loc 2 98 0
 424 0000 D0F89821 		ldr	r2, [r0, #408]
 425 0004 1E4B     		ldr	r3, .L39
 426              	.LBE85:
 427              	.LBE84:
 428              		.loc 2 83 0
 429 0006 30B5     		push	{r4, r5, lr}
 430              		.cfi_def_cfa_offset 12
 431              		.cfi_offset 4, -12
 432              		.cfi_offset 5, -8
 433              		.cfi_offset 14, -4
 434              	.LBB95:
 435              	.LBB92:
 436              		.loc 2 98 0
 437 0008 1B68     		ldr	r3, [r3]
 438              	.LBE92:
 439              	.LBE95:
 440              		.loc 2 83 0
 441 000a 0446     		mov	r4, r0
 442              	.LVL36:
 443              	.LBB96:
 444              	.LBB93:
 445              		.loc 2 98 0
 446 000c 9068     		ldr	r0, [r2, #8]
 447              	.LVL37:
 448 000e 1D4A     		ldr	r2, .L39+4
 449 0010 03FB00F3 		mul	r3, r3, r0
 450 0014 A2FB0323 		umull	r2, r3, r2, r3
 451 0018 5B0B     		lsrs	r3, r3, #13
 452 001a C4F8B431 		str	r3, [r4, #436]
 453              	.LVL38:
 454              	.LBB86:
 455              	.LBB87:
 456              	.LBB88:
ARM GAS  /tmp/ccav555Y.s 			page 9


 457              		.loc 4 255 0
 458 001e 04F5D070 		add	r0, r4, #416
 459              	.LVL39:
 460              	.LBE88:
 461              	.LBE87:
 462              	.LBE86:
 463              	.LBE93:
 464              	.LBE96:
 465              		.loc 2 83 0
 466 0022 83B0     		sub	sp, sp, #12
 467              		.cfi_def_cfa_offset 24
 468              		.loc 2 83 0
 469 0024 0D46     		mov	r5, r1
 470              	.LBB97:
 471              	.LBB94:
 472              	.LBB91:
 473              	.LBB90:
 474              	.LBB89:
 475              		.loc 4 255 0
 476 0026 0121     		movs	r1, #1
 477              	.LVL40:
 478 0028 FFF7FEFF 		bl	chSemReset
 479              	.LVL41:
 480              	.LBE89:
 481              	.LBE90:
 482              	.LBE91:
 483              	.LBE94:
 484              	.LBE97:
 485              		.loc 2 85 0
 486 002c 1648     		ldr	r0, .L39+8
 487 002e 0368     		ldr	r3, [r0]
 488 0030 E3B1     		cbz	r3, .L36
 489              	.L31:
 490              		.loc 2 87 0
 491 0032 1648     		ldr	r0, .L39+12
 492 0034 0368     		ldr	r3, [r0]
 493 0036 B3B1     		cbz	r3, .L37
 494              	.L32:
 495              		.loc 2 89 0
 496 0038 D4F8B831 		ldr	r3, [r4, #440]
 497 003c 0BB1     		cbz	r3, .L38
 498              	.L30:
 499              		.loc 2 93 0
 500 003e 03B0     		add	sp, sp, #12
 501              		.cfi_remember_state
 502              		.cfi_def_cfa_offset 12
 503              		@ sp needed
 504 0040 30BD     		pop	{r4, r5, pc}
 505              	.LVL42:
 506              	.L38:
 507              		.cfi_restore_state
 508              		.loc 2 91 0
 509 0042 2368     		ldr	r3, [r4]
 510 0044 124A     		ldr	r2, .L39+16
 511 0046 5B68     		ldr	r3, [r3, #4]
 512 0048 9342     		cmp	r3, r2
 513 004a 12D1     		bne	.L34
ARM GAS  /tmp/ccav555Y.s 			page 10


 514              	.LVL43:
 515              	.LBB98:
 516              	.LBB99:
 517              		.loc 1 1339 0
 518 004c 0094     		str	r4, [sp]
 519 004e 2A46     		mov	r2, r5
 520 0050 104B     		ldr	r3, .L39+20
 521 0052 4FF4C871 		mov	r1, #400
 522 0056 04F10800 		add	r0, r4, #8
 523 005a FFF7FEFF 		bl	chThdCreateStatic
 524              	.LVL44:
 525              	.LBE99:
 526              	.LBE98:
 527              		.loc 2 91 0
 528 005e C4F8B801 		str	r0, [r4, #440]
 529              		.loc 2 93 0
 530 0062 03B0     		add	sp, sp, #12
 531              		.cfi_remember_state
 532              		.cfi_def_cfa_offset 12
 533              		@ sp needed
 534 0064 30BD     		pop	{r4, r5, pc}
 535              	.LVL45:
 536              	.L37:
 537              		.cfi_restore_state
 538              		.loc 2 88 0
 539 0066 FFF7FEFF 		bl	chMtxObjectInit
 540              	.LVL46:
 541 006a E5E7     		b	.L32
 542              	.L36:
 543              		.loc 2 86 0
 544 006c FFF7FEFF 		bl	chCondObjectInit
 545              	.LVL47:
 546 0070 DFE7     		b	.L31
 547              	.L34:
 548              		.loc 2 91 0
 549 0072 2946     		mov	r1, r5
 550 0074 2046     		mov	r0, r4
 551 0076 9847     		blx	r3
 552              	.LVL48:
 553 0078 C4F8B801 		str	r0, [r4, #440]
 554              		.loc 2 93 0
 555 007c DFE7     		b	.L30
 556              	.L40:
 557 007e 00BF     		.align	2
 558              	.L39:
 559 0080 00000000 		.word	.LANCHOR6
 560 0084 5917B7D1 		.word	-776530087
 561 0088 00000000 		.word	.LANCHOR1
 562 008c 00000000 		.word	.LANCHOR0
 563 0090 00000000 		.word	_ZN10chibios_rt16BaseStaticThreadILi64EE5startEm
 564 0094 00000000 		.word	_ZN10chibios_rt10_thd_startEPv
 565              		.cfi_endproc
 566              	.LFE528:
 567              		.size	_ZN5Snail4initEm, .-_ZN5Snail4initEm
 568              		.section	.text._ZN5Snail18setVelocityPercentEj,"ax",%progbits
 569              		.align	1
 570              		.p2align 2,,3
ARM GAS  /tmp/ccav555Y.s 			page 11


 571              		.global	_ZN5Snail18setVelocityPercentEj
 572              		.syntax unified
 573              		.thumb
 574              		.thumb_func
 575              		.fpu fpv4-sp-d16
 576              		.type	_ZN5Snail18setVelocityPercentEj, %function
 577              	_ZN5Snail18setVelocityPercentEj:
 578              	.LFB529:
 579              		.loc 2 96 0
 580              		.cfi_startproc
 581              		@ args = 0, pretend = 0, frame = 0
 582              		@ frame_needed = 0, uses_anonymous_args = 0
 583              		@ link register save eliminated.
 584              	.LVL49:
 585              		.loc 2 98 0
 586 0000 104B     		ldr	r3, .L43
 587 0002 114A     		ldr	r2, .L43+4
 588              		.loc 2 96 0
 589 0004 30B4     		push	{r4, r5}
 590              		.cfi_def_cfa_offset 8
 591              		.cfi_offset 4, -8
 592              		.cfi_offset 5, -4
 593              		.loc 2 98 0
 594 0006 1268     		ldr	r2, [r2]
 595 0008 1C68     		ldr	r4, [r3]
 596 000a 104B     		ldr	r3, .L43+8
 597 000c 104D     		ldr	r5, .L43+12
 598 000e 6429     		cmp	r1, #100
 599 0010 A4EB0204 		sub	r4, r4, r2
 600 0014 28BF     		it	cs
 601 0016 6421     		movcs	r1, #100
 602              	.LVL50:
 603 0018 01FB04F1 		mul	r1, r1, r4
 604 001c D0F89841 		ldr	r4, [r0, #408]
 605 0020 A3FB0131 		umull	r3, r1, r3, r1
 606 0024 A368     		ldr	r3, [r4, #8]
 607 0026 02EB5111 		add	r1, r2, r1, lsr #5
 608 002a 03FB01F3 		mul	r3, r3, r1
 609 002e A5FB0323 		umull	r2, r3, r5, r3
 610 0032 5B0B     		lsrs	r3, r3, #13
 611 0034 C0F8B431 		str	r3, [r0, #436]
 612              	.LVL51:
 613              	.LBB100:
 614              	.LBB101:
 615              	.LBB102:
 616              		.loc 4 255 0
 617 0038 0121     		movs	r1, #1
 618 003a 00F5D070 		add	r0, r0, #416
 619              	.LVL52:
 620              	.LBE102:
 621              	.LBE101:
 622              	.LBE100:
 623              		.loc 2 105 0
 624 003e 30BC     		pop	{r4, r5}
 625              		.cfi_restore 5
 626              		.cfi_restore 4
 627              		.cfi_def_cfa_offset 0
ARM GAS  /tmp/ccav555Y.s 			page 12


 628              	.LBB105:
 629              	.LBB104:
 630              	.LBB103:
 631              		.loc 4 255 0
 632 0040 FFF7FEBF 		b	chSemReset
 633              	.LVL53:
 634              	.L44:
 635              		.align	2
 636              	.L43:
 637 0044 00000000 		.word	.LANCHOR7
 638 0048 00000000 		.word	.LANCHOR6
 639 004c 1F85EB51 		.word	1374389535
 640 0050 5917B7D1 		.word	-776530087
 641              	.LBE103:
 642              	.LBE104:
 643              	.LBE105:
 644              		.cfi_endproc
 645              	.LFE529:
 646              		.size	_ZN5Snail18setVelocityPercentEj, .-_ZN5Snail18setVelocityPercentEj
 647              		.section	.text._ZN5Snail14isSpeedReachedEv,"ax",%progbits
 648              		.align	1
 649              		.p2align 2,,3
 650              		.global	_ZN5Snail14isSpeedReachedEv
 651              		.syntax unified
 652              		.thumb
 653              		.thumb_func
 654              		.fpu fpv4-sp-d16
 655              		.type	_ZN5Snail14isSpeedReachedEv, %function
 656              	_ZN5Snail14isSpeedReachedEv:
 657              	.LFB530:
 658              		.loc 2 107 0
 659              		.cfi_startproc
 660              		@ args = 0, pretend = 0, frame = 0
 661              		@ frame_needed = 0, uses_anonymous_args = 0
 662              		@ link register save eliminated.
 663              	.LVL54:
 664              		.loc 2 107 0
 665 0000 90F8B001 		ldrb	r0, [r0, #432]	@ zero_extendqisi2
 666              	.LVL55:
 667 0004 7047     		bx	lr
 668              		.cfi_endproc
 669              	.LFE530:
 670              		.size	_ZN5Snail14isSpeedReachedEv, .-_ZN5Snail14isSpeedReachedEv
 671              		.global	_ZTV5Snail
 672              		.global	_ZN5Snail13speedStateMtxE
 673              		.global	_ZN5Snail17speedStateCondVarE
 674              		.global	_ZN5Snail22SnailParamMaxDutyCycleE
 675              		.global	_ZN5Snail22SnailParamMinDutyCycleE
 676 0006 00BF     		.section	.bss._ZN5Snail13speedStateMtxE,"aw",%nobits
 677              		.align	2
 678              		.set	.LANCHOR0,. + 0
 679              		.type	_ZN5Snail13speedStateMtxE, %object
 680              		.size	_ZN5Snail13speedStateMtxE, 16
 681              	_ZN5Snail13speedStateMtxE:
 682 0000 00000000 		.space	16
 682      00000000 
 682      00000000 
ARM GAS  /tmp/ccav555Y.s 			page 13


 682      00000000 
 683              		.section	.bss._ZN5Snail17speedStateCondVarE,"aw",%nobits
 684              		.align	2
 685              		.set	.LANCHOR1,. + 0
 686              		.type	_ZN5Snail17speedStateCondVarE, %object
 687              		.size	_ZN5Snail17speedStateCondVarE, 8
 688              	_ZN5Snail17speedStateCondVarE:
 689 0000 00000000 		.space	8
 689      00000000 
 690              		.section	.data._ZL19maxDutyCycleOver10k,"aw",%progbits
 691              		.align	2
 692              		.set	.LANCHOR7,. + 0
 693              		.type	_ZL19maxDutyCycleOver10k, %object
 694              		.size	_ZL19maxDutyCycleOver10k, 4
 695              	_ZL19maxDutyCycleOver10k:
 696 0000 40060000 		.word	1600
 697              		.section	.data._ZL19minDutyCycleOver10k,"aw",%progbits
 698              		.align	2
 699              		.set	.LANCHOR6,. + 0
 700              		.type	_ZL19minDutyCycleOver10k, %object
 701              		.size	_ZL19minDutyCycleOver10k, 4
 702              	_ZL19minDutyCycleOver10k:
 703 0000 E8030000 		.word	1000
 704              		.section	.rodata._ZN5Snail22SnailParamMaxDutyCycleE,"a",%progbits
 705              		.align	2
 706              		.set	.LANCHOR3,. + 0
 707              		.type	_ZN5Snail22SnailParamMaxDutyCycleE, %object
 708              		.size	_ZN5Snail22SnailParamMaxDutyCycleE, 28
 709              	_ZN5Snail22SnailParamMaxDutyCycleE:
 710 0000 00000000 		.word	_ZL19maxDutyCycleOver10k
 711 0004 07       		.byte	7
 712 0005 000000   		.space	3
 713 0008 00000000 		.word	.LC0
 714 000c 00000000 		.word	0
 715 0010 00000000 		.word	0
 716 0014 10000000 		.word	.LC1
 717 0018 4C000000 		.word	.LC2
 718              		.section	.rodata._ZN5Snail22SnailParamMinDutyCycleE,"a",%progbits
 719              		.align	2
 720              		.set	.LANCHOR4,. + 0
 721              		.type	_ZN5Snail22SnailParamMinDutyCycleE, %object
 722              		.size	_ZN5Snail22SnailParamMinDutyCycleE, 28
 723              	_ZN5Snail22SnailParamMinDutyCycleE:
 724 0000 00000000 		.word	_ZL19minDutyCycleOver10k
 725 0004 07       		.byte	7
 726 0005 000000   		.space	3
 727 0008 00000000 		.word	.LC0
 728 000c 00000000 		.word	0
 729 0010 00000000 		.word	0
 730 0014 50000000 		.word	.LC3
 731 0018 9C000000 		.word	.LC4
 732              		.section	.rodata._ZTV5Snail,"a",%progbits
 733              		.align	2
 734              		.set	.LANCHOR5,. + 0
 735              		.type	_ZTV5Snail, %object
 736              		.size	_ZTV5Snail, 16
 737              	_ZTV5Snail:
ARM GAS  /tmp/ccav555Y.s 			page 14


 738 0000 00000000 		.word	0
 739 0004 00000000 		.word	0
 740 0008 00000000 		.word	_ZN5Snail4mainEv
 741 000c 00000000 		.word	_ZN10chibios_rt16BaseStaticThreadILi64EE5startEm
 742              		.section	.rodata._ZZN5Snail14setupPWMDriverER9PWMDriverE11snailPWMCfg,"a",%progbits
 743              		.align	2
 744              		.set	.LANCHOR2,. + 0
 745              		.type	_ZZN5Snail14setupPWMDriverER9PWMDriverE11snailPWMCfg, %object
 746              		.size	_ZZN5Snail14setupPWMDriverER9PWMDriverE11snailPWMCfg, 52
 747              	_ZZN5Snail14setupPWMDriverER9PWMDriverE11snailPWMCfg:
 748 0000 40420F00 		.word	1000000
 749 0004 10270000 		.word	10000
 750 0008 00000000 		.word	0
 751 000c 01000000 		.word	1
 752 0010 00000000 		.word	0
 753 0014 01000000 		.word	1
 754 0018 00000000 		.word	0
 755 001c 01000000 		.word	1
 756 0020 00000000 		.word	0
 757 0024 01000000 		.word	1
 758 0028 00000000 		.word	0
 759 002c 00000000 		.word	0
 760 0030 00000000 		.word	0
 761              		.section	.rodata.str1.4,"aMS",%progbits,1
 762              		.align	2
 763              	.LC0:
 764 0000 536E6169 		.ascii	"SnailDutyCycle\000"
 764      6C447574 
 764      79437963 
 764      6C6500
 765 000f 00       		.space	1
 766              	.LC1:
 767 0010 44757479 		.ascii	"Duty cycle for the snail to attain its max speed (x"
 767      20637963 
 767      6C652066 
 767      6F722074 
 767      68652073 
 768 0043 2F313030 		.ascii	"/10000)\000"
 768      30302900 
 769 004b 00       		.space	1
 770              	.LC2:
 771 004c 4D617800 		.ascii	"Max\000"
 772              	.LC3:
 773 0050 4D696E69 		.ascii	"Minimum duty cycle for the snail to attain some spe"
 773      6D756D20 
 773      64757479 
 773      20637963 
 773      6C652066 
 774 0083 65642028 		.ascii	"ed (not idle) (x/10000)\000"
 774      6E6F7420 
 774      69646C65 
 774      29202878 
 774      2F313030 
 775 009b 00       		.space	1
 776              	.LC4:
 777 009c 4D696E00 		.ascii	"Min\000"
 778              		.text
ARM GAS  /tmp/ccav555Y.s 			page 15


 779              	.Letext0:
 780              		.file 5 "/usr/lib/gcc/arm-none-eabi/7.3.1/include/stddef.h"
 781              		.file 6 "/usr/arm-none-eabi/include/machine/_default_types.h"
 782              		.file 7 "/usr/arm-none-eabi/include/sys/_stdint.h"
 783              		.file 8 "./RM18A-ChibiOS18-Core/chibios/os/common/ports/ARMCMx/compilers/GCC/chtypes.h"
 784              		.file 9 "./RM18A-ChibiOS18-Core/chibios/os/rt/include/chsystypes.h"
 785              		.file 10 "./RM18A-ChibiOS18-Core/chibios/os/rt/include/chschd.h"
 786              		.file 11 "./RM18A-ChibiOS18-Core/chibios/os/rt/include/chtime.h"
 787              		.file 12 "./RM18A-ChibiOS18-Core/chibios/os/common/ext/ARM/CMSIS/Core/Include/core_cm4.h"
 788              		.file 13 "./RM18A-ChibiOS18-Core/chibios/os/common/ext/ST/STM32F4xx/system_stm32f4xx.h"
 789              		.file 14 "./RM18A-ChibiOS18-Core/chibios/os/common/ext/ST/STM32F4xx/stm32f427xx.h"
 790              		.file 15 "./RM18A-ChibiOS18-Core/chibios/os/common/ports/ARMCMx/chcore.h"
 791              		.file 16 "./RM18A-ChibiOS18-Core/chibios/os/common/ports/ARMCMx/chcore_v7m.h"
 792              		.file 17 "./RM18A-ChibiOS18-Core/chibios/os/hal/ports/STM32/LLD/TIMv1/stm32_tim.h"
 793              		.file 18 "./RM18A-ChibiOS18-Core/chibios/os/rt/include/chtm.h"
 794              		.file 19 "./RM18A-ChibiOS18-Core/chibios/os/rt/include/chsem.h"
 795              		.file 20 "./RM18A-ChibiOS18-Core/chibios/os/rt/include/chmtx.h"
 796              		.file 21 "./RM18A-ChibiOS18-Core/chibios/os/rt/include/chsys.h"
 797              		.file 22 "./RM18A-ChibiOS18-Core/chibios/os/rt/include/chregistry.h"
 798              		.file 23 "./RM18A-ChibiOS18-Core/chibios/os/rt/include/chcond.h"
 799              		.file 24 "./RM18A-ChibiOS18-Core/chibios/os/rt/include/chevents.h"
 800              		.file 25 "./RM18A-ChibiOS18-Core/chibios/os/oslib/include/chmemcore.h"
 801              		.file 26 "./RM18A-ChibiOS18-Core/chibios/os/oslib/include/chmempools.h"
 802              		.file 27 "./RM18A-ChibiOS18-Core/chibios/os/oslib/include/chfactory.h"
 803              		.file 28 "./RM18A-ChibiOS18-Core/chibios/os/hal/ports/STM32/LLD/DMAv2/stm32_dma.h"
 804              		.file 29 "./RM18A-ChibiOS18-Core/chibios/os/hal/include/hal_streams.h"
 805              		.file 30 "./RM18A-ChibiOS18-Core/chibios/os/hal/include/hal_queues.h"
 806              		.file 31 "./RM18A-ChibiOS18-Core/chibios/os/hal/include/hal_pal.h"
 807              		.file 32 "./RM18A-ChibiOS18-Core/chibios/os/hal/ports/STM32/LLD/GPIOv2/hal_pal_lld.h"
 808              		.file 33 "./RM18A-ChibiOS18-Core/chibios/os/hal/include/hal_adc.h"
 809              		.file 34 "./RM18A-ChibiOS18-Core/chibios/os/hal/ports/STM32/LLD/ADCv2/hal_adc_lld.h"
 810              		.file 35 "./RM18A-ChibiOS18-Core/chibios/os/hal/include/hal_can.h"
 811              		.file 36 "./RM18A-ChibiOS18-Core/chibios/os/hal/ports/STM32/LLD/CANv1/hal_can_lld.h"
 812              		.file 37 "./RM18A-ChibiOS18-Core/chibios/os/hal/include/hal_icu.h"
 813              		.file 38 "./RM18A-ChibiOS18-Core/chibios/os/hal/ports/STM32/LLD/TIMv1/hal_icu_lld.h"
 814              		.file 39 "./RM18A-ChibiOS18-Core/chibios/os/hal/include/hal_pwm.h"
 815              		.file 40 "./RM18A-ChibiOS18-Core/chibios/os/hal/ports/STM32/LLD/TIMv1/hal_pwm_lld.h"
 816              		.file 41 "./RM18A-ChibiOS18-Core/chibios/os/hal/include/hal_serial.h"
 817              		.file 42 "./RM18A-ChibiOS18-Core/chibios/os/hal/ports/STM32/LLD/USARTv1/hal_serial_lld.h"
 818              		.file 43 "./RM18A-ChibiOS18-Core/chibios/os/hal/include/hal_spi.h"
 819              		.file 44 "./RM18A-ChibiOS18-Core/chibios/os/hal/ports/STM32/LLD/SPIv1/hal_spi_lld.h"
 820              		.file 45 "./RM18A-ChibiOS18-Core/chibios/os/hal/include/hal_uart.h"
 821              		.file 46 "./RM18A-ChibiOS18-Core/chibios/os/hal/ports/STM32/LLD/USARTv1/hal_uart_lld.h"
 822              		.file 47 "./RM18A-ChibiOS18-Core/chibios/os/hal/include/hal_usb.h"
 823              		.file 48 "./RM18A-ChibiOS18-Core/chibios/os/hal/ports/STM32/LLD/OTGv1/hal_usb_lld.h"
 824              		.file 49 "./RM18A-ChibiOS18-Core/chibios/os/hal/ports/STM32/LLD/OTGv1/stm32_otg.h"
 825              		.file 50 "./RM18A-ChibiOS18-Core/src/peripherals/flash.h"
 826              		.file 51 "./RM18A-ChibiOS18-Core/src/shell/shell.h"
 827              		.file 52 "./RM18A-ChibiOS18-Core/src/Persistence.hpp"
 828              		.file 53 "./RM18A-ChibiOS18-Core/src/ext_hw/Snail_Sentry.hpp"