ARM GAS  /tmp/ccx4zhwt.s 			page 1


   1              		.cpu cortex-m4
   2              		.eabi_attribute 27, 1
   3              		.eabi_attribute 28, 1
   4              		.eabi_attribute 20, 1
   5              		.eabi_attribute 21, 1
   6              		.eabi_attribute 23, 3
   7              		.eabi_attribute 24, 1
   8              		.eabi_attribute 25, 1
   9              		.eabi_attribute 26, 1
  10              		.eabi_attribute 30, 2
  11              		.eabi_attribute 34, 1
  12              		.eabi_attribute 18, 4
  13              		.file	"snake.c"
  14              		.text
  15              	.Ltext0:
  16              		.cfi_sections	.debug_frame
  17              		.section	.text.snake_btn_handler,"ax",%progbits
  18              		.align	1
  19              		.p2align 2,,3
  20              		.syntax unified
  21              		.thumb
  22              		.thumb_func
  23              		.fpu fpv4-sp-d16
  24              		.type	snake_btn_handler, %function
  25              	snake_btn_handler:
  26              	.LFB330:
  27              		.file 1 "./RM18A-ChibiOS18-Core/src/diagnostics/snake.c"
  28              		.loc 1 41 0
  29              		.cfi_startproc
  30              		@ args = 0, pretend = 0, frame = 0
  31              		@ frame_needed = 0, uses_anonymous_args = 0
  32              		@ link register save eliminated.
  33              	.LVL0:
  34              		.loc 1 42 0
  35 0000 244B     		ldr	r3, .L17
  36 0002 1B88     		ldrh	r3, [r3]
  37              		.loc 1 41 0
  38 0004 10B4     		push	{r4}
  39              		.cfi_def_cfa_offset 4
  40              		.cfi_offset 4, -4
  41              		.loc 1 42 0
  42 0006 03F01F01 		and	r1, r3, #31
  43              	.LVL1:
  44              		.loc 1 43 0
  45 000a C3F34713 		ubfx	r3, r3, #5, #8
  46              	.LVL2:
  47              		.loc 1 44 0
  48 000e 0528     		cmp	r0, #5
  49 0010 18D8     		bhi	.L2
  50 0012 DFE800F0 		tbb	[pc, r0]
  51              	.L4:
  52 0016 08       		.byte	(.L3-.L4)/2
  53 0017 03       		.byte	(.L5-.L4)/2
  54 0018 0B       		.byte	(.L6-.L4)/2
  55 0019 27       		.byte	(.L7-.L4)/2
  56 001a 29       		.byte	(.L8-.L4)/2
  57 001b 34       		.byte	(.L9-.L4)/2
ARM GAS  /tmp/ccx4zhwt.s 			page 2


  58              		.p2align 1
  59              	.L5:
  60              	.LVL3:
  61              	.LBB74:
  62              	.LBB75:
  63              		.loc 1 49 0
  64 001c 1E4B     		ldr	r3, .L17+4
  65              	.LVL4:
  66 001e 1A78     		ldrb	r2, [r3]	@ zero_extendqisi2
  67 0020 E2B1     		cbz	r2, .L12
  68              		.loc 1 50 0
  69 0022 0020     		movs	r0, #0
  70              	.LVL5:
  71 0024 1870     		strb	r0, [r3]
  72              	.LVL6:
  73              	.L3:
  74              	.LBE75:
  75              	.LBE74:
  76              		.loc 1 69 0
  77 0026 5DF8044B 		ldr	r4, [sp], #4
  78              		.cfi_remember_state
  79              		.cfi_restore 4
  80              		.cfi_def_cfa_offset 0
  81 002a 7047     		bx	lr
  82              	.LVL7:
  83              	.L6:
  84              		.cfi_restore_state
  85              		.loc 1 62 0
  86 002c 03F10D02 		add	r2, r3, #13
  87              	.L14:
  88 0030 1A4C     		ldr	r4, .L17+8
  89 0032 5308     		lsrs	r3, r2, #1
  90              	.LVL8:
  91 0034 A4FB0343 		umull	r4, r3, r4, r3
  92 0038 9B08     		lsrs	r3, r3, #2
  93 003a C3EBC303 		rsb	r3, r3, r3, lsl #3
  94 003e A2EB4303 		sub	r3, r2, r3, lsl #1
  95 0042 DBB2     		uxtb	r3, r3
  96              	.LVL9:
  97              	.L2:
  98              		.loc 1 64 0
  99 0044 41EA4313 		orr	r3, r1, r3, lsl #5
 100              	.LVL10:
 101 0048 154A     		ldr	r2, .L17+12
 102 004a 32F81330 		ldrh	r3, [r2, r3, lsl #1]
 103 004e 0BB9     		cbnz	r3, .L11
 104              	.L16:
 105              		.loc 1 65 0
 106 0050 144B     		ldr	r3, .L17+16
 107 0052 1870     		strb	r0, [r3]
 108              	.L11:
 109              		.loc 1 66 0
 110 0054 104B     		ldr	r3, .L17+4
 111 0056 1B78     		ldrb	r3, [r3]	@ zero_extendqisi2
 112 0058 002B     		cmp	r3, #0
 113 005a E4D0     		beq	.L3
 114              	.L12:
ARM GAS  /tmp/ccx4zhwt.s 			page 3


 115              	.LBB77:
 116              	.LBB76:
 117              		.loc 1 50 0
 118 005c 0020     		movs	r0, #0
 119              	.LVL11:
 120              	.LBE76:
 121              	.LBE77:
 122              		.loc 1 69 0
 123 005e 5DF8044B 		ldr	r4, [sp], #4
 124              		.cfi_remember_state
 125              		.cfi_restore 4
 126              		.cfi_def_cfa_offset 0
 127 0062 7047     		bx	lr
 128              	.LVL12:
 129              	.L7:
 130              		.cfi_restore_state
 131              		.loc 1 59 0
 132 0064 5A1C     		adds	r2, r3, #1
 133 0066 E3E7     		b	.L14
 134              	.L8:
 135              		.loc 1 53 0
 136 0068 1F31     		adds	r1, r1, #31
 137              	.LVL13:
 138 006a 01F01F01 		and	r1, r1, #31
 139              	.LVL14:
 140              		.loc 1 64 0
 141 006e 41EA4313 		orr	r3, r1, r3, lsl #5
 142              	.LVL15:
 143 0072 0B4A     		ldr	r2, .L17+12
 144 0074 32F81330 		ldrh	r3, [r2, r3, lsl #1]
 145 0078 002B     		cmp	r3, #0
 146 007a EBD1     		bne	.L11
 147 007c E8E7     		b	.L16
 148              	.LVL16:
 149              	.L9:
 150              		.loc 1 56 0
 151 007e 0131     		adds	r1, r1, #1
 152              	.LVL17:
 153 0080 01F01F01 		and	r1, r1, #31
 154              	.LVL18:
 155              		.loc 1 64 0
 156 0084 41EA4313 		orr	r3, r1, r3, lsl #5
 157              	.LVL19:
 158 0088 054A     		ldr	r2, .L17+12
 159 008a 32F81330 		ldrh	r3, [r2, r3, lsl #1]
 160 008e 002B     		cmp	r3, #0
 161 0090 E0D1     		bne	.L11
 162 0092 DDE7     		b	.L16
 163              	.L18:
 164              		.align	2
 165              	.L17:
 166 0094 00000000 		.word	.LANCHOR0
 167 0098 00000000 		.word	.LANCHOR1
 168 009c 93244992 		.word	-1840700269
 169 00a0 00000000 		.word	.LANCHOR2
 170 00a4 00000000 		.word	.LANCHOR3
 171              		.cfi_endproc
ARM GAS  /tmp/ccx4zhwt.s 			page 4


 172              	.LFE330:
 173              		.size	snake_btn_handler, .-snake_btn_handler
 174              		.section	.text.snake_renderer,"ax",%progbits
 175              		.align	1
 176              		.p2align 2,,3
 177              		.syntax unified
 178              		.thumb
 179              		.thumb_func
 180              		.fpu fpv4-sp-d16
 181              		.type	snake_renderer, %function
 182              	snake_renderer:
 183              	.LFB333:
 184              		.loc 1 98 0
 185              		.cfi_startproc
 186              		@ args = 0, pretend = 0, frame = 0
 187              		@ frame_needed = 0, uses_anonymous_args = 0
 188              	.LVL20:
 189 0000 2DE9F043 		push	{r4, r5, r6, r7, r8, r9, lr}
 190              		.cfi_def_cfa_offset 28
 191              		.cfi_offset 4, -28
 192              		.cfi_offset 5, -24
 193              		.cfi_offset 6, -20
 194              		.cfi_offset 7, -16
 195              		.cfi_offset 8, -12
 196              		.cfi_offset 9, -8
 197              		.cfi_offset 14, -4
 198 0004 0446     		mov	r4, r0
 199 0006 85B0     		sub	sp, sp, #20
 200              		.cfi_def_cfa_offset 48
 201              		.loc 1 100 0
 202 0008 0029     		cmp	r1, #0
 203 000a 61D1     		bne	.L37
 204 000c 794E     		ldr	r6, .L42
 205              	.LVL21:
 206              	.L20:
 207              		.loc 1 102 0
 208 000e 3378     		ldrb	r3, [r6]	@ zero_extendqisi2
 209 0010 002B     		cmp	r3, #0
 210 0012 5AD0     		beq	.L19
 211              	.LVL22:
 212              	.LBB109:
 213              	.LBB110:
 214              		.loc 1 107 0
 215 0014 784B     		ldr	r3, .L42+4
 216              		.loc 1 105 0
 217 0016 DFF8F0C1 		ldr	ip, .L42+20
 218              		.loc 1 107 0
 219 001a 1B78     		ldrb	r3, [r3]	@ zero_extendqisi2
 220              		.loc 1 105 0
 221 001c BCF80000 		ldrh	r0, [ip]
 222              		.loc 1 107 0
 223 0020 023B     		subs	r3, r3, #2
 224              		.loc 1 105 0
 225 0022 00F01F01 		and	r1, r0, #31
 226              	.LVL23:
 227              		.loc 1 106 0
 228 0026 4209     		lsrs	r2, r0, #5
ARM GAS  /tmp/ccx4zhwt.s 			page 5


 229              	.LVL24:
 230              		.loc 1 107 0
 231 0028 032B     		cmp	r3, #3
 232 002a 0ED8     		bhi	.L22
 233 002c DFE803F0 		tbb	[pc, r3]
 234              	.L24:
 235 0030 02       		.byte	(.L23-.L24)/2
 236 0031 AC       		.byte	(.L25-.L24)/2
 237 0032 AE       		.byte	(.L26-.L24)/2
 238 0033 A8       		.byte	(.L27-.L24)/2
 239              		.p2align 1
 240              	.L23:
 241              		.loc 1 119 0
 242 0034 0D32     		adds	r2, r2, #13
 243              	.LVL25:
 244              	.L39:
 245 0036 714D     		ldr	r5, .L42+8
 246 0038 5308     		lsrs	r3, r2, #1
 247 003a A5FB0353 		umull	r5, r3, r5, r3
 248 003e 9B08     		lsrs	r3, r3, #2
 249 0040 C3EBC303 		rsb	r3, r3, r3, lsl #3
 250 0044 A2EB4303 		sub	r3, r2, r3, lsl #1
 251 0048 9AB2     		uxth	r2, r3
 252              	.LVL26:
 253              	.L22:
 254              	.LBB111:
 255              	.LBB112:
 256              		.loc 1 37 0
 257 004a D3B2     		uxtb	r3, r2
 258 004c 41EA4313 		orr	r3, r1, r3, lsl #5
 259              	.LVL27:
 260              	.LBE112:
 261              	.LBE111:
 262              		.loc 1 127 0
 263 0050 6B4F     		ldr	r7, .L42+12
 264              		.loc 1 125 0
 265 0052 6C4D     		ldr	r5, .L42+16
 266              		.loc 1 126 0
 267 0054 ACF80030 		strh	r3, [ip]	@ movhi
 268              		.loc 1 125 0
 269 0058 03F1010C 		add	ip, r3, #1
 270 005c 25F810C0 		strh	ip, [r5, r0, lsl #1]	@ movhi
 271              		.loc 1 127 0
 272 0060 3888     		ldrh	r0, [r7]
 273 0062 9842     		cmp	r0, r3
 274 0064 00F09680 		beq	.L40
 275              		.loc 1 134 0
 276 0068 35F81370 		ldrh	r7, [r5, r3, lsl #1]
 277 006c 002F     		cmp	r7, #0
 278 006e 65D1     		bne	.L41
 279              		.loc 1 144 0
 280 0070 9200     		lsls	r2, r2, #2
 281              	.LVL28:
 282 0072 92B2     		uxth	r2, r2
 283 0074 8900     		lsls	r1, r1, #2
 284              	.LVL29:
 285 0076 D01C     		adds	r0, r2, #3
ARM GAS  /tmp/ccx4zhwt.s 			page 6


 286              		.loc 1 146 0
 287 0078 DFF89081 		ldr	r8, .L42+24
 288              		.loc 1 144 0
 289 007c 00B2     		sxth	r0, r0
 290 007e CB1C     		adds	r3, r1, #3
 291 0080 12B2     		sxth	r2, r2
 292 0082 1BB2     		sxth	r3, r3
 293 0084 0090     		str	r0, [sp]
 294 0086 09B2     		sxth	r1, r1
 295 0088 2046     		mov	r0, r4
 296 008a FFF7FEFF 		bl	OLED_fill
 297              	.LVL30:
 298              		.loc 1 146 0
 299 008e B8F80060 		ldrh	r6, [r8]
 300              	.LVL31:
 301              		.loc 1 148 0
 302 0092 0121     		movs	r1, #1
 303 0094 2046     		mov	r0, r4
 304 0096 FFF7FEFF 		bl	OLED_setMode
 305              	.LVL32:
 306              		.loc 1 147 0
 307 009a 7209     		lsrs	r2, r6, #5
 308              		.loc 1 149 0
 309 009c 9200     		lsls	r2, r2, #2
 310              		.loc 1 146 0
 311 009e 06F01F01 		and	r1, r6, #31
 312              		.loc 1 149 0
 313 00a2 D31C     		adds	r3, r2, #3
 314 00a4 8900     		lsls	r1, r1, #2
 315 00a6 0093     		str	r3, [sp]
 316 00a8 2046     		mov	r0, r4
 317 00aa CB1C     		adds	r3, r1, #3
 318 00ac FFF7FEFF 		bl	OLED_fill
 319              	.LVL33:
 320              		.loc 1 150 0
 321 00b0 3946     		mov	r1, r7
 322 00b2 2046     		mov	r0, r4
 323 00b4 FFF7FEFF 		bl	OLED_setMode
 324              	.LVL34:
 325              		.loc 1 152 0
 326 00b8 B8F80020 		ldrh	r2, [r8]
 327 00bc 35F81230 		ldrh	r3, [r5, r2, lsl #1]
 328              		.loc 1 153 0
 329 00c0 25F81270 		strh	r7, [r5, r2, lsl #1]	@ movhi
 330              		.loc 1 152 0
 331 00c4 013B     		subs	r3, r3, #1
 332 00c6 A8F80030 		strh	r3, [r8]	@ movhi
 333              	.LVL35:
 334              	.L19:
 335              	.LBE110:
 336              	.LBE109:
 337              		.loc 1 155 0
 338 00ca 05B0     		add	sp, sp, #20
 339              		.cfi_remember_state
 340              		.cfi_def_cfa_offset 28
 341              		@ sp needed
 342 00cc BDE8F083 		pop	{r4, r5, r6, r7, r8, r9, pc}
ARM GAS  /tmp/ccx4zhwt.s 			page 7


 343              	.LVL36:
 344              	.L37:
 345              		.cfi_restore_state
 346              	.LBB123:
 347              	.LBB124:
 348              		.loc 1 85 0
 349 00d0 4FF46072 		mov	r2, #896
 350 00d4 0021     		movs	r1, #0
 351              	.LVL37:
 352 00d6 4B48     		ldr	r0, .L42+16
 353              	.LVL38:
 354              		.loc 1 88 0
 355 00d8 464E     		ldr	r6, .L42
 356              		.loc 1 86 0
 357 00da 4B4F     		ldr	r7, .L42+20
 358              		.loc 1 85 0
 359 00dc FFF7FEFF 		bl	memset
 360              	.LVL39:
 361              		.loc 1 86 0
 362 00e0 4A4A     		ldr	r2, .L42+24
 363              		.loc 1 87 0
 364 00e2 4748     		ldr	r0, .L42+12
 365              		.loc 1 89 0
 366 00e4 444B     		ldr	r3, .L42+4
 367              		.loc 1 86 0
 368 00e6 0025     		movs	r5, #0
 369              		.loc 1 87 0
 370 00e8 0121     		movs	r1, #1
 371              		.loc 1 86 0
 372 00ea 1580     		strh	r5, [r2]	@ movhi
 373              		.loc 1 89 0
 374 00ec 0522     		movs	r2, #5
 375 00ee 1A70     		strb	r2, [r3]
 376              	.LVL40:
 377              		.loc 1 86 0
 378 00f0 3D80     		strh	r5, [r7]	@ movhi
 379              		.loc 1 87 0
 380 00f2 0180     		strh	r1, [r0]	@ movhi
 381              		.loc 1 88 0
 382 00f4 3170     		strb	r1, [r6]
 383              	.LBB125:
 384              	.LBB126:
 385              	.LBB127:
 386              	.LBB128:
 387              	.LBB129:
 388              	.LBB130:
 389              		.file 2 "./RM18A-ChibiOS18-Core/chibios/os/common/ext/ARM/CMSIS/Core/Include/cmsis_gcc.h"
 390              		.loc 2 493 0
 391 00f6 2023     		movs	r3, #32
 392              		.syntax unified
 393              	@ 493 "./RM18A-ChibiOS18-Core/chibios/os/common/ext/ARM/CMSIS/Core/Include/cmsis_gcc.h" 1
 394 00f8 83F31188 		MSR basepri, r3
 395              	@ 0 "" 2
 396              	.LVL41:
 397              		.thumb
 398              		.syntax unified
 399              	.LBE130:
ARM GAS  /tmp/ccx4zhwt.s 			page 8


 400              	.LBE129:
 401              	.LBE128:
 402              	.LBE127:
 403              	.LBB131:
 404              	.LBB132:
 405              	.LBB133:
 406              	.LBB134:
 407              		.file 3 "./RM18A-ChibiOS18-Core/chibios/os/hal/ports/STM32/LLD/TIMv1/hal_st_lld.h"
 408              		.loc 3 147 0
 409 00fc 4FF08043 		mov	r3, #1073741824
 410 0100 5B6A     		ldr	r3, [r3, #36]
 411              	.LVL42:
 412              	.LBE134:
 413              	.LBE133:
 414              	.LBE132:
 415              	.LBE131:
 416              	.LBB135:
 417              	.LBB136:
 418              	.LBB137:
 419              	.LBB138:
 420              	.LBB139:
 421              		.loc 2 493 0
 422              		.syntax unified
 423              	@ 493 "./RM18A-ChibiOS18-Core/chibios/os/common/ext/ARM/CMSIS/Core/Include/cmsis_gcc.h" 1
 424 0102 85F31188 		MSR basepri, r5
 425              	@ 0 "" 2
 426              	.LVL43:
 427              		.thumb
 428              		.syntax unified
 429              	.LBE139:
 430              	.LBE138:
 431              	.LBE137:
 432              	.LBE136:
 433              	.LBE135:
 434              	.LBE126:
 435              	.LBE125:
 436              	.LBB140:
 437              	.LBB141:
 438              		.loc 1 32 0
 439 0106 424A     		ldr	r2, .L42+28
 440 0108 9BB2     		uxth	r3, r3
 441              	.LBE141:
 442              	.LBE140:
 443              		.loc 1 91 0
 444 010a 2046     		mov	r0, r4
 445              	.LBB143:
 446              	.LBB142:
 447              		.loc 1 32 0
 448 010c 1360     		str	r3, [r2]
 449              	.LVL44:
 450              	.LBE142:
 451              	.LBE143:
 452              		.loc 1 91 0
 453 010e FFF7FEFF 		bl	OLED_setMode
 454              	.LVL45:
 455              		.loc 1 92 0
 456 0112 3623     		movs	r3, #54
ARM GAS  /tmp/ccx4zhwt.s 			page 9


 457 0114 2A46     		mov	r2, r5
 458 0116 0093     		str	r3, [sp]
 459 0118 2946     		mov	r1, r5
 460 011a 2046     		mov	r0, r4
 461 011c 7F23     		movs	r3, #127
 462 011e FFF7FEFF 		bl	OLED_fill
 463              	.LVL46:
 464              		.loc 1 93 0
 465 0122 2946     		mov	r1, r5
 466 0124 2046     		mov	r0, r4
 467 0126 FFF7FEFF 		bl	OLED_setMode
 468              	.LVL47:
 469              		.loc 1 94 0
 470 012a 0323     		movs	r3, #3
 471 012c 0093     		str	r3, [sp]
 472 012e 2A46     		mov	r2, r5
 473 0130 2946     		mov	r1, r5
 474 0132 2046     		mov	r0, r4
 475 0134 0723     		movs	r3, #7
 476 0136 FFF7FEFF 		bl	OLED_fill
 477              	.LVL48:
 478 013a 68E7     		b	.L20
 479              	.LVL49:
 480              	.L41:
 481              	.LBE124:
 482              	.LBE123:
 483              	.LBB144:
 484              	.LBB121:
 485              		.loc 1 136 0
 486 013c 0025     		movs	r5, #0
 487              		.loc 1 137 0
 488 013e 3623     		movs	r3, #54
 489 0140 2A46     		mov	r2, r5
 490              	.LVL50:
 491 0142 0093     		str	r3, [sp]
 492 0144 2946     		mov	r1, r5
 493              	.LVL51:
 494 0146 7F23     		movs	r3, #127
 495 0148 2046     		mov	r0, r4
 496              		.loc 1 136 0
 497 014a 3570     		strb	r5, [r6]
 498              		.loc 1 137 0
 499 014c FFF7FEFF 		bl	OLED_fill
 500              	.LVL52:
 501              		.loc 1 138 0
 502 0150 2046     		mov	r0, r4
 503 0152 0121     		movs	r1, #1
 504 0154 FFF7FEFF 		bl	OLED_setMode
 505              	.LVL53:
 506              		.loc 1 139 0
 507 0158 2E49     		ldr	r1, .L42+32
 508 015a 0395     		str	r5, [sp, #12]
 509 015c 0A22     		movs	r2, #10
 510 015e 1020     		movs	r0, #16
 511 0160 3223     		movs	r3, #50
 512 0162 CDE90110 		strd	r1, r0, [sp, #4]
 513 0166 0093     		str	r3, [sp]
ARM GAS  /tmp/ccx4zhwt.s 			page 10


 514 0168 1146     		mov	r1, r2
 515 016a 2046     		mov	r0, r4
 516 016c 6423     		movs	r3, #100
 517 016e FFF7FEFF 		bl	OLED_drawString
 518              	.LVL54:
 519              		.loc 1 140 0
 520 0172 2946     		mov	r1, r5
 521 0174 2046     		mov	r0, r4
 522              	.LBE121:
 523              	.LBE144:
 524              		.loc 1 155 0
 525 0176 05B0     		add	sp, sp, #20
 526              		.cfi_remember_state
 527              		.cfi_def_cfa_offset 28
 528              		@ sp needed
 529 0178 BDE8F043 		pop	{r4, r5, r6, r7, r8, r9, lr}
 530              		.cfi_restore 14
 531              		.cfi_restore 9
 532              		.cfi_restore 8
 533              		.cfi_restore 7
 534              		.cfi_restore 6
 535              		.cfi_restore 5
 536              		.cfi_restore 4
 537              		.cfi_def_cfa_offset 0
 538              	.LVL55:
 539              	.LBB145:
 540              	.LBB122:
 541              		.loc 1 140 0
 542 017c FFF7FEBF 		b	OLED_setMode
 543              	.LVL56:
 544              	.L27:
 545              		.cfi_restore_state
 546              		.loc 1 113 0
 547 0180 0131     		adds	r1, r1, #1
 548              	.LVL57:
 549 0182 01F01F01 		and	r1, r1, #31
 550              	.LVL58:
 551 0186 60E7     		b	.L22
 552              	.L25:
 553              		.loc 1 116 0
 554 0188 0132     		adds	r2, r2, #1
 555              	.LVL59:
 556 018a 54E7     		b	.L39
 557              	.LVL60:
 558              	.L26:
 559              		.loc 1 110 0
 560 018c 1F31     		adds	r1, r1, #31
 561              	.LVL61:
 562 018e 01F01F01 		and	r1, r1, #31
 563              	.LVL62:
 564 0192 5AE7     		b	.L22
 565              	.L40:
 566 0194 DFF878C0 		ldr	ip, .L42+28
 567              	.LBB113:
 568              	.LBB114:
 569              		.loc 1 77 0
 570 0198 DFF860E0 		ldr	lr, .L42+8
ARM GAS  /tmp/ccx4zhwt.s 			page 11


 571 019c DCF80060 		ldr	r6, [ip]
 572              	.LBB115:
 573              	.LBB116:
 574              		.loc 1 26 0
 575 01a0 41F6B970 		movw	r0, #8121
 576 01a4 46F6FB63 		movw	r3, #28411
 577              	.LVL63:
 578              	.L29:
 579 01a8 00FB0631 		mla	r1, r0, r6, r3
 580              	.LBE116:
 581              	.LBE115:
 582              	.LBB117:
 583              	.LBB118:
 584 01ac 00FB0136 		mla	r6, r0, r1, r3
 585              	.LBE118:
 586              	.LBE117:
 587              		.loc 1 77 0
 588 01b0 5FFA86F8 		uxtb	r8, r6
 589 01b4 4FEA5802 		lsr	r2, r8, #1
 590 01b8 AEFB0292 		umull	r9, r2, lr, r2
 591 01bc 9208     		lsrs	r2, r2, #2
 592 01be C2EBC202 		rsb	r2, r2, r2, lsl #3
 593 01c2 A8EB4202 		sub	r2, r8, r2, lsl #1
 594              		.loc 1 76 0
 595 01c6 01F01F01 		and	r1, r1, #31
 596              	.LVL64:
 597              		.loc 1 77 0
 598 01ca D2B2     		uxtb	r2, r2
 599              	.LVL65:
 600              	.LBB119:
 601              	.LBB120:
 602              		.loc 1 37 0
 603 01cc 41EA4218 		orr	r8, r1, r2, lsl #5
 604              	.LVL66:
 605              	.LBE120:
 606              	.LBE119:
 607              		.loc 1 78 0
 608 01d0 35F81890 		ldrh	r9, [r5, r8, lsl #1]
 609 01d4 B9F1000F 		cmp	r9, #0
 610 01d8 E6D1     		bne	.L29
 611              		.loc 1 80 0
 612 01da 9200     		lsls	r2, r2, #2
 613              	.LVL67:
 614 01dc D31C     		adds	r3, r2, #3
 615 01de 8900     		lsls	r1, r1, #2
 616              	.LVL68:
 617 01e0 0093     		str	r3, [sp]
 618 01e2 2046     		mov	r0, r4
 619 01e4 CB1C     		adds	r3, r1, #3
 620 01e6 CCF80060 		str	r6, [ip]
 621              		.loc 1 79 0
 622 01ea A7F80080 		strh	r8, [r7]	@ movhi
 623              		.loc 1 80 0
 624 01ee FFF7FEFF 		bl	OLED_fill
 625              	.LVL69:
 626 01f2 6AE7     		b	.L19
 627              	.L43:
ARM GAS  /tmp/ccx4zhwt.s 			page 12


 628              		.align	2
 629              	.L42:
 630 01f4 00000000 		.word	.LANCHOR1
 631 01f8 00000000 		.word	.LANCHOR3
 632 01fc 93244992 		.word	-1840700269
 633 0200 00000000 		.word	.LANCHOR5
 634 0204 00000000 		.word	.LANCHOR2
 635 0208 00000000 		.word	.LANCHOR0
 636 020c 00000000 		.word	.LANCHOR4
 637 0210 00000000 		.word	.LANCHOR6
 638 0214 00000000 		.word	.LC0
 639              	.LBE114:
 640              	.LBE113:
 641              	.LBE122:
 642              	.LBE145:
 643              		.cfi_endproc
 644              	.LFE333:
 645              		.size	snake_renderer, .-snake_renderer
 646              		.global	snake_tab
 647              		.section	.bss.fruit,"aw",%nobits
 648              		.align	1
 649              		.set	.LANCHOR5,. + 0
 650              		.type	fruit, %object
 651              		.size	fruit, 2
 652              	fruit:
 653 0000 0000     		.space	2
 654              		.section	.bss.game_begin,"aw",%nobits
 655              		.set	.LANCHOR1,. + 0
 656              		.type	game_begin, %object
 657              		.size	game_begin, 1
 658              	game_begin:
 659 0000 00       		.space	1
 660              		.section	.bss.head,"aw",%nobits
 661              		.align	1
 662              		.set	.LANCHOR0,. + 0
 663              		.type	head, %object
 664              		.size	head, 2
 665              	head:
 666 0000 0000     		.space	2
 667              		.section	.bss.map,"aw",%nobits
 668              		.align	2
 669              		.set	.LANCHOR2,. + 0
 670              		.type	map, %object
 671              		.size	map, 896
 672              	map:
 673 0000 00000000 		.space	896
 673      00000000 
 673      00000000 
 673      00000000 
 673      00000000 
 674              		.section	.bss.tail,"aw",%nobits
 675              		.align	1
 676              		.set	.LANCHOR4,. + 0
 677              		.type	tail, %object
 678              		.size	tail, 2
 679              	tail:
 680 0000 0000     		.space	2
ARM GAS  /tmp/ccx4zhwt.s 			page 13


 681              		.section	.data.current_direction,"aw",%progbits
 682              		.set	.LANCHOR3,. + 0
 683              		.type	current_direction, %object
 684              		.size	current_direction, 1
 685              	current_direction:
 686 0000 03       		.byte	3
 687              		.section	.data.next,"aw",%progbits
 688              		.align	2
 689              		.set	.LANCHOR6,. + 0
 690              		.type	next, %object
 691              		.size	next, 4
 692              	next:
 693 0000 01000000 		.word	1
 694              		.section	.data.tab_name,"aw",%progbits
 695              		.align	2
 696              		.type	tab_name, %object
 697              		.size	tab_name, 6
 698              	tab_name:
 699 0000 736E616B 		.ascii	"snake\000"
 699      6500
 700              		.section	.rodata.snake_renderer.str1.4,"aMS",%progbits,1
 701              		.align	2
 702              	.LC0:
 703 0000 4641494C 		.ascii	"FAILED\000"
 703      454400
 704              		.section	.rodata.snake_tab,"a",%progbits
 705              		.align	2
 706              		.type	snake_tab, %object
 707              		.size	snake_tab, 12
 708              	snake_tab:
 709 0000 00000000 		.word	tab_name
 710 0004 00000000 		.word	snake_renderer
 711 0008 00000000 		.word	snake_btn_handler
 712              		.text
 713              	.Letext0:
 714              		.file 4 "/usr/lib/gcc/arm-none-eabi/7.3.1/include/stddef.h"
 715              		.file 5 "/usr/arm-none-eabi/include/machine/_default_types.h"
 716              		.file 6 "/usr/arm-none-eabi/include/sys/_stdint.h"
 717              		.file 7 "./RM18A-ChibiOS18-Core/chibios/os/common/ports/ARMCMx/compilers/GCC/chtypes.h"
 718              		.file 8 "./RM18A-ChibiOS18-Core/chibios/os/rt/include/chsystypes.h"
 719              		.file 9 "./RM18A-ChibiOS18-Core/chibios/os/rt/include/chschd.h"
 720              		.file 10 "./RM18A-ChibiOS18-Core/chibios/os/rt/include/chtime.h"
 721              		.file 11 "./RM18A-ChibiOS18-Core/chibios/os/common/ext/ARM/CMSIS/Core/Include/core_cm4.h"
 722              		.file 12 "./RM18A-ChibiOS18-Core/chibios/os/common/ext/ST/STM32F4xx/system_stm32f4xx.h"
 723              		.file 13 "./RM18A-ChibiOS18-Core/chibios/os/common/ext/ST/STM32F4xx/stm32f427xx.h"
 724              		.file 14 "./RM18A-ChibiOS18-Core/chibios/os/common/ports/ARMCMx/chcore.h"
 725              		.file 15 "./RM18A-ChibiOS18-Core/chibios/os/common/ports/ARMCMx/chcore_v7m.h"
 726              		.file 16 "./RM18A-ChibiOS18-Core/chibios/os/hal/ports/STM32/LLD/TIMv1/stm32_tim.h"
 727              		.file 17 "./RM18A-ChibiOS18-Core/chibios/os/rt/include/chtm.h"
 728              		.file 18 "./RM18A-ChibiOS18-Core/chibios/os/rt/include/chsem.h"
 729              		.file 19 "./RM18A-ChibiOS18-Core/chibios/os/rt/include/chmtx.h"
 730              		.file 20 "./RM18A-ChibiOS18-Core/chibios/os/rt/include/chsys.h"
 731              		.file 21 "./RM18A-ChibiOS18-Core/chibios/os/rt/include/chregistry.h"
 732              		.file 22 "./RM18A-ChibiOS18-Core/chibios/os/rt/include/chevents.h"
 733              		.file 23 "./RM18A-ChibiOS18-Core/chibios/os/oslib/include/chmemcore.h"
 734              		.file 24 "./RM18A-ChibiOS18-Core/chibios/os/oslib/include/chmempools.h"
 735              		.file 25 "./RM18A-ChibiOS18-Core/chibios/os/oslib/include/chfactory.h"
ARM GAS  /tmp/ccx4zhwt.s 			page 14


 736              		.file 26 "./RM18A-ChibiOS18-Core/chibios/os/hal/ports/STM32/LLD/DMAv2/stm32_dma.h"
 737              		.file 27 "./RM18A-ChibiOS18-Core/chibios/os/hal/include/hal_queues.h"
 738              		.file 28 "./RM18A-ChibiOS18-Core/chibios/os/hal/include/hal_pal.h"
 739              		.file 29 "./RM18A-ChibiOS18-Core/chibios/os/hal/ports/STM32/LLD/GPIOv2/hal_pal_lld.h"
 740              		.file 30 "./RM18A-ChibiOS18-Core/chibios/os/hal/include/hal_adc.h"
 741              		.file 31 "./RM18A-ChibiOS18-Core/chibios/os/hal/ports/STM32/LLD/ADCv2/hal_adc_lld.h"
 742              		.file 32 "./RM18A-ChibiOS18-Core/chibios/os/hal/include/hal_can.h"
 743              		.file 33 "./RM18A-ChibiOS18-Core/chibios/os/hal/ports/STM32/LLD/CANv1/hal_can_lld.h"
 744              		.file 34 "./RM18A-ChibiOS18-Core/chibios/os/hal/include/hal_icu.h"
 745              		.file 35 "./RM18A-ChibiOS18-Core/chibios/os/hal/ports/STM32/LLD/TIMv1/hal_icu_lld.h"
 746              		.file 36 "./RM18A-ChibiOS18-Core/chibios/os/hal/include/hal_pwm.h"
 747              		.file 37 "./RM18A-ChibiOS18-Core/chibios/os/hal/ports/STM32/LLD/TIMv1/hal_pwm_lld.h"
 748              		.file 38 "./RM18A-ChibiOS18-Core/chibios/os/hal/include/hal_serial.h"
 749              		.file 39 "./RM18A-ChibiOS18-Core/chibios/os/hal/ports/STM32/LLD/USARTv1/hal_serial_lld.h"
 750              		.file 40 "./RM18A-ChibiOS18-Core/chibios/os/hal/include/hal_spi.h"
 751              		.file 41 "./RM18A-ChibiOS18-Core/chibios/os/hal/ports/STM32/LLD/SPIv1/hal_spi_lld.h"
 752              		.file 42 "./RM18A-ChibiOS18-Core/chibios/os/hal/include/hal_uart.h"
 753              		.file 43 "./RM18A-ChibiOS18-Core/chibios/os/hal/ports/STM32/LLD/USARTv1/hal_uart_lld.h"
 754              		.file 44 "./RM18A-ChibiOS18-Core/chibios/os/hal/include/hal_usb.h"
 755              		.file 45 "./RM18A-ChibiOS18-Core/chibios/os/hal/ports/STM32/LLD/OTGv1/hal_usb_lld.h"
 756              		.file 46 "./RM18A-ChibiOS18-Core/chibios/os/hal/ports/STM32/LLD/OTGv1/stm32_otg.h"
 757              		.file 47 "./RM18A-ChibiOS18-Core/src/ext_hw/SH1106.h"
 758              		.file 48 "./RM18A-ChibiOS18-Core/src/diagnostics/MonitorManager.h"
 759              		.file 49 "/usr/arm-none-eabi/include/sys/lock.h"
 760              		.file 50 "/usr/arm-none-eabi/include/sys/_types.h"
 761              		.file 51 "/usr/arm-none-eabi/include/sys/reent.h"
 762              		.file 52 "./RM18A-ChibiOS18-Core/chibios/os/rt/include/chvt.h"
 763              		.file 53 "./RM18A-ChibiOS18-Core/chibios/os/common/ports/ARMCMx/chcore_timer.h"
 764              		.file 54 "<built-in>"