ARM GAS  /tmp/ccz3Igsc.s 			page 1


   1              		.cpu cortex-m4
   2              		.eabi_attribute 27, 1
   3              		.eabi_attribute 28, 1
   4              		.eabi_attribute 20, 1
   5              		.eabi_attribute 21, 1
   6              		.eabi_attribute 23, 3
   7              		.eabi_attribute 24, 1
   8              		.eabi_attribute 25, 1
   9              		.eabi_attribute 26, 1
  10              		.eabi_attribute 30, 2
  11              		.eabi_attribute 34, 1
  12              		.eabi_attribute 18, 4
  13              		.file	"software_i2c.cpp"
  14              		.text
  15              	.Ltext0:
  16              		.cfi_sections	.debug_frame
  17              		.section	.text._Z17swi2c_readByte_A8hhPh.constprop.1,"ax",%progbits
  18              		.align	1
  19              		.p2align 2,,3
  20              		.syntax unified
  21              		.thumb
  22              		.thumb_func
  23              		.fpu fpv4-sp-d16
  24              		.type	_Z17swi2c_readByte_A8hhPh.constprop.1, %function
  25              	_Z17swi2c_readByte_A8hhPh.constprop.1:
  26              	.LFB799:
  27              		.file 1 "software_i2c.cpp"
  28              		.loc 1 161 0
  29              		.cfi_startproc
  30              		@ args = 0, pretend = 0, frame = 0
  31              		@ frame_needed = 0, uses_anonymous_args = 0
  32              	.LVL0:
  33 0000 2DE9F84F 		push	{r3, r4, r5, r6, r7, r8, r9, r10, fp, lr}
  34              		.cfi_def_cfa_offset 40
  35              		.cfi_offset 3, -40
  36              		.cfi_offset 4, -36
  37              		.cfi_offset 5, -32
  38              		.cfi_offset 6, -28
  39              		.cfi_offset 7, -24
  40              		.cfi_offset 8, -20
  41              		.cfi_offset 9, -16
  42              		.cfi_offset 10, -12
  43              		.cfi_offset 11, -8
  44              		.cfi_offset 14, -4
  45              	.LBB194:
  46              	.LBB195:
  47              		.loc 1 44 0
  48 0004 B44D     		ldr	r5, .L31
  49              		.loc 1 46 0
  50 0006 B54C     		ldr	r4, .L31+4
  51              		.loc 1 44 0
  52 0008 4FF48053 		mov	r3, #4096
  53 000c 6B83     		strh	r3, [r5, #26]	@ movhi
  54              	.LBE195:
  55              	.LBE194:
  56              		.loc 1 161 0
  57 000e 0746     		mov	r7, r0
ARM GAS  /tmp/ccz3Igsc.s 			page 2


  58              	.LBB207:
  59              	.LBB204:
  60              	.LBB196:
  61              	.LBB197:
  62              		.loc 1 28 0
  63 0010 0120     		movs	r0, #1
  64              	.LVL1:
  65              	.LBE197:
  66              	.LBE196:
  67              	.LBE204:
  68              	.LBE207:
  69              		.loc 1 161 0
  70 0012 8846     		mov	r8, r1
  71              	.LBB208:
  72              	.LBB205:
  73              	.LBB199:
  74              	.LBB198:
  75              		.loc 1 28 0
  76 0014 FFF7FEFF 		bl	chThdSleep
  77              	.LVL2:
  78              	.LBE198:
  79              	.LBE199:
  80              		.loc 1 46 0
  81 0018 0120     		movs	r0, #1
  82 001a 6083     		strh	r0, [r4, #26]	@ movhi
  83              	.LBB200:
  84              	.LBB201:
  85              		.loc 1 28 0
  86 001c FFF7FEFF 		bl	chThdSleep
  87              	.LVL3:
  88              	.LBE201:
  89              	.LBE200:
  90              	.LBE205:
  91              	.LBE208:
  92              	.LBB209:
  93              	.LBB210:
  94              		.loc 1 138 0
  95 0020 A146     		mov	r9, r4
  96              		.loc 1 136 0
  97 0022 AA46     		mov	r10, r5
  98              	.LBE210:
  99              	.LBE209:
 100              	.LBB235:
 101              	.LBB206:
 102              	.LBB203:
 103              	.LBB202:
 104              		.loc 1 28 0
 105 0024 0724     		movs	r4, #7
 106              	.LBE202:
 107              	.LBE203:
 108              	.LBE206:
 109              	.LBE235:
 110              	.LBB236:
 111              	.LBB233:
 112              		.loc 1 133 0
 113 0026 4FF0800B 		mov	fp, #128
 114              	.LVL4:
ARM GAS  /tmp/ccz3Igsc.s 			page 3


 115              	.L2:
 116 002a 4BFA04F3 		asr	r3, fp, r4
 117              		.loc 1 138 0
 118 002e 0126     		movs	r6, #1
 119              		.loc 1 133 0
 120 0030 DB07     		lsls	r3, r3, #31
 121              		.loc 1 134 0
 122 0032 4FF48051 		mov	r1, #4096
 123              	.LBB211:
 124              	.LBB212:
 125              		.loc 1 28 0
 126 0036 3046     		mov	r0, r6
 127              	.LBE212:
 128              	.LBE211:
 129              		.loc 1 133 0
 130 0038 40F13681 		bpl	.L3
 131              		.loc 1 134 0
 132 003c AAF81810 		strh	r1, [r10, #24]	@ movhi
 133              	.LBB215:
 134              	.LBB213:
 135              		.loc 1 28 0
 136 0040 FFF7FEFF 		bl	chThdSleep
 137              	.LVL5:
 138              	.LBE213:
 139              	.LBE215:
 140              	.LBB216:
 141              	.LBB217:
 142 0044 3046     		mov	r0, r6
 143              	.LBE217:
 144              	.LBE216:
 145              		.loc 1 138 0
 146 0046 A9F81860 		strh	r6, [r9, #24]	@ movhi
 147              	.LBB221:
 148              	.LBB218:
 149              		.loc 1 28 0
 150 004a FFF7FEFF 		bl	chThdSleep
 151              	.LVL6:
 152              	.LBE218:
 153              	.LBE221:
 154              	.LBB222:
 155              	.LBB223:
 156 004e 3046     		mov	r0, r6
 157 0050 FFF7FEFF 		bl	chThdSleep
 158              	.LVL7:
 159 0054 013C     		subs	r4, r4, #1
 160              	.LVL8:
 161              	.LBE223:
 162              	.LBE222:
 163              		.loc 1 141 0
 164 0056 A9F81A60 		strh	r6, [r9, #26]	@ movhi
 165              	.LBB225:
 166              	.LBB226:
 167              		.loc 1 28 0
 168 005a 3046     		mov	r0, r6
 169 005c FFF7FEFF 		bl	chThdSleep
 170              	.LVL9:
 171              	.LBE226:
ARM GAS  /tmp/ccz3Igsc.s 			page 4


 172              	.LBE225:
 173              		.loc 1 131 0
 174 0060 611C     		adds	r1, r4, #1
 175 0062 E2D1     		bne	.L2
 176              	.L4:
 177              	.LVL10:
 178              	.LBE233:
 179              	.LBE236:
 180              	.LBB237:
 181              	.LBB238:
 182              		.loc 1 60 0
 183 0064 9C4C     		ldr	r4, .L31
 184              		.loc 1 62 0
 185 0066 9D4E     		ldr	r6, .L31+4
 186              		.loc 1 60 0
 187 0068 4FF4805B 		mov	fp, #4096
 188              	.LBB239:
 189              	.LBB240:
 190              		.loc 1 28 0
 191 006c 0120     		movs	r0, #1
 192              	.LBE240:
 193              	.LBE239:
 194              		.loc 1 62 0
 195 006e 0546     		mov	r5, r0
 196              		.loc 1 60 0
 197 0070 A4F818B0 		strh	fp, [r4, #24]	@ movhi
 198              	.LBB242:
 199              	.LBB241:
 200              		.loc 1 28 0
 201 0074 FFF7FEFF 		bl	chThdSleep
 202              	.LVL11:
 203              	.LBE241:
 204              	.LBE242:
 205              	.LBB243:
 206              	.LBB244:
 207 0078 2846     		mov	r0, r5
 208              	.LBE244:
 209              	.LBE243:
 210              		.loc 1 62 0
 211 007a 3583     		strh	r5, [r6, #24]	@ movhi
 212              	.LBB246:
 213              	.LBB245:
 214              		.loc 1 28 0
 215 007c FFF7FEFF 		bl	chThdSleep
 216              	.LVL12:
 217              	.LBE245:
 218              	.LBE246:
 219              		.loc 1 67 0
 220 0080 5946     		mov	r1, fp
 221 0082 2046     		mov	r0, r4
 222 0084 0522     		movs	r2, #5
 223              		.loc 1 64 0
 224 0086 7583     		strh	r5, [r6, #26]	@ movhi
 225              		.loc 1 66 0
 226 0088 A4F818B0 		strh	fp, [r4, #24]	@ movhi
 227              		.loc 1 67 0
 228 008c FFF7FEFF 		bl	_pal_lld_setgroupmode
ARM GAS  /tmp/ccz3Igsc.s 			page 5


 229              	.LVL13:
 230              	.LBB247:
 231              	.LBB248:
 232              		.loc 1 28 0
 233 0090 2846     		mov	r0, r5
 234 0092 FFF7FEFF 		bl	chThdSleep
 235              	.LVL14:
 236              	.LBE248:
 237              	.LBE247:
 238              		.loc 1 69 0
 239 0096 2046     		mov	r0, r4
 240 0098 5946     		mov	r1, fp
 241 009a 0522     		movs	r2, #5
 242 009c FFF7FEFF 		bl	_pal_lld_setgroupmode
 243              	.LVL15:
 244              	.LBE238:
 245              	.LBE237:
 246              	.LBB250:
 247              	.LBB251:
 248              		.loc 1 136 0
 249 00a0 A246     		mov	r10, r4
 250              		.loc 1 138 0
 251 00a2 B146     		mov	r9, r6
 252              	.LBE251:
 253              	.LBE250:
 254              	.LBB278:
 255              	.LBB249:
 256              		.loc 1 69 0
 257 00a4 0724     		movs	r4, #7
 258              	.LVL16:
 259              	.L6:
 260              	.LBE249:
 261              	.LBE278:
 262              	.LBB279:
 263              	.LBB276:
 264              		.loc 1 133 0
 265 00a6 47FA04F3 		asr	r3, r7, r4
 266              		.loc 1 138 0
 267 00aa 0126     		movs	r6, #1
 268              		.loc 1 133 0
 269 00ac DB07     		lsls	r3, r3, #31
 270              	.LBB252:
 271              	.LBB253:
 272              		.loc 1 28 0
 273 00ae 3046     		mov	r0, r6
 274              	.LBE253:
 275              	.LBE252:
 276              		.loc 1 133 0
 277 00b0 40F1E380 		bpl	.L7
 278              		.loc 1 134 0
 279 00b4 AAF818B0 		strh	fp, [r10, #24]	@ movhi
 280              	.LBB257:
 281              	.LBB254:
 282              		.loc 1 28 0
 283 00b8 FFF7FEFF 		bl	chThdSleep
 284              	.LVL17:
 285              	.LBE254:
ARM GAS  /tmp/ccz3Igsc.s 			page 6


 286              	.LBE257:
 287              	.LBB258:
 288              	.LBB259:
 289 00bc 3046     		mov	r0, r6
 290              	.LBE259:
 291              	.LBE258:
 292              		.loc 1 138 0
 293 00be A9F81860 		strh	r6, [r9, #24]	@ movhi
 294              	.LBB263:
 295              	.LBB260:
 296              		.loc 1 28 0
 297 00c2 FFF7FEFF 		bl	chThdSleep
 298              	.LVL18:
 299              	.LBE260:
 300              	.LBE263:
 301              	.LBB264:
 302              	.LBB265:
 303 00c6 3046     		mov	r0, r6
 304 00c8 FFF7FEFF 		bl	chThdSleep
 305              	.LVL19:
 306 00cc 013C     		subs	r4, r4, #1
 307              	.LVL20:
 308              	.LBE265:
 309              	.LBE264:
 310              		.loc 1 141 0
 311 00ce A9F81A60 		strh	r6, [r9, #26]	@ movhi
 312              	.LBB267:
 313              	.LBB268:
 314              		.loc 1 28 0
 315 00d2 3046     		mov	r0, r6
 316 00d4 FFF7FEFF 		bl	chThdSleep
 317              	.LVL21:
 318              	.LBE268:
 319              	.LBE267:
 320              		.loc 1 131 0
 321 00d8 611C     		adds	r1, r4, #1
 322 00da E4D1     		bne	.L6
 323              	.L8:
 324              	.LBE276:
 325              	.LBE279:
 326              	.LBB280:
 327              	.LBB281:
 328              		.loc 1 60 0
 329 00dc 7E4D     		ldr	r5, .L31
 330              		.loc 1 62 0
 331 00de 7F4F     		ldr	r7, .L31+4
 332              		.loc 1 60 0
 333 00e0 4FF48056 		mov	r6, #4096
 334              	.LBB282:
 335              	.LBB283:
 336              		.loc 1 28 0
 337 00e4 0120     		movs	r0, #1
 338              	.LBE283:
 339              	.LBE282:
 340              		.loc 1 62 0
 341 00e6 0446     		mov	r4, r0
 342              		.loc 1 60 0
ARM GAS  /tmp/ccz3Igsc.s 			page 7


 343 00e8 2E83     		strh	r6, [r5, #24]	@ movhi
 344              	.LBB285:
 345              	.LBB284:
 346              		.loc 1 28 0
 347 00ea FFF7FEFF 		bl	chThdSleep
 348              	.LVL22:
 349              	.LBE284:
 350              	.LBE285:
 351              	.LBB286:
 352              	.LBB287:
 353 00ee 2046     		mov	r0, r4
 354              	.LBE287:
 355              	.LBE286:
 356              		.loc 1 62 0
 357 00f0 3C83     		strh	r4, [r7, #24]	@ movhi
 358              	.LBB289:
 359              	.LBB288:
 360              		.loc 1 28 0
 361 00f2 FFF7FEFF 		bl	chThdSleep
 362              	.LVL23:
 363              	.LBE288:
 364              	.LBE289:
 365              		.loc 1 64 0
 366 00f6 7C83     		strh	r4, [r7, #26]	@ movhi
 367              		.loc 1 67 0
 368 00f8 3146     		mov	r1, r6
 369 00fa 0522     		movs	r2, #5
 370 00fc 2846     		mov	r0, r5
 371              		.loc 1 66 0
 372 00fe 2E83     		strh	r6, [r5, #24]	@ movhi
 373              		.loc 1 67 0
 374 0100 FFF7FEFF 		bl	_pal_lld_setgroupmode
 375              	.LVL24:
 376              	.LBB290:
 377              	.LBB291:
 378              		.loc 1 28 0
 379 0104 2046     		mov	r0, r4
 380 0106 FFF7FEFF 		bl	chThdSleep
 381              	.LVL25:
 382              	.LBE291:
 383              	.LBE290:
 384              		.loc 1 69 0
 385 010a 3146     		mov	r1, r6
 386 010c 0522     		movs	r2, #5
 387 010e 2846     		mov	r0, r5
 388 0110 FFF7FEFF 		bl	_pal_lld_setgroupmode
 389              	.LVL26:
 390              	.LBE281:
 391              	.LBE280:
 392              	.LBB292:
 393              	.LBB293:
 394              	.LBB294:
 395              	.LBB295:
 396              		.loc 1 28 0
 397 0114 2046     		mov	r0, r4
 398              	.LBE295:
 399              	.LBE294:
ARM GAS  /tmp/ccz3Igsc.s 			page 8


 400              		.loc 1 52 0
 401 0116 3C83     		strh	r4, [r7, #24]	@ movhi
 402              	.LBB297:
 403              	.LBB296:
 404              		.loc 1 28 0
 405 0118 FFF7FEFF 		bl	chThdSleep
 406              	.LVL27:
 407              	.LBE296:
 408              	.LBE297:
 409              	.LBB298:
 410              	.LBB299:
 411 011c 2046     		mov	r0, r4
 412              	.LBE299:
 413              	.LBE298:
 414              		.loc 1 54 0
 415 011e 2E83     		strh	r6, [r5, #24]	@ movhi
 416              	.LBB301:
 417              	.LBB300:
 418              		.loc 1 28 0
 419 0120 FFF7FEFF 		bl	chThdSleep
 420              	.LVL28:
 421              	.LBE300:
 422              	.LBE301:
 423              	.LBE293:
 424              	.LBE292:
 425              	.LBB302:
 426              	.LBB303:
 427              	.LBB304:
 428              	.LBB305:
 429 0124 2046     		mov	r0, r4
 430              	.LBE305:
 431              	.LBE304:
 432              		.loc 1 44 0
 433 0126 6E83     		strh	r6, [r5, #26]	@ movhi
 434              	.LBB307:
 435              	.LBB306:
 436              		.loc 1 28 0
 437 0128 FFF7FEFF 		bl	chThdSleep
 438              	.LVL29:
 439              	.LBE306:
 440              	.LBE307:
 441              		.loc 1 46 0
 442 012c 7C83     		strh	r4, [r7, #26]	@ movhi
 443              	.LBB308:
 444              	.LBB309:
 445              		.loc 1 28 0
 446 012e 2046     		mov	r0, r4
 447 0130 FFF7FEFF 		bl	chThdSleep
 448              	.LVL30:
 449              	.LBE309:
 450              	.LBE308:
 451              	.LBE303:
 452              	.LBE302:
 453              	.LBB313:
 454              	.LBB314:
 455              		.loc 1 136 0
 456 0134 A946     		mov	r9, r5
ARM GAS  /tmp/ccz3Igsc.s 			page 9


 457              	.LBE314:
 458              	.LBE313:
 459              	.LBB339:
 460              	.LBB312:
 461              	.LBB311:
 462              	.LBB310:
 463              		.loc 1 28 0
 464 0136 0724     		movs	r4, #7
 465              	.LBE310:
 466              	.LBE311:
 467              	.LBE312:
 468              	.LBE339:
 469              	.LBB340:
 470              	.LBB337:
 471              		.loc 1 133 0
 472 0138 4FF0810A 		mov	r10, #129
 473              	.LVL31:
 474              	.L10:
 475 013c 4AFA04F3 		asr	r3, r10, r4
 476              		.loc 1 138 0
 477 0140 0126     		movs	r6, #1
 478              		.loc 1 133 0
 479 0142 DB07     		lsls	r3, r3, #31
 480              		.loc 1 134 0
 481 0144 4FF48051 		mov	r1, #4096
 482              	.LBB315:
 483              	.LBB316:
 484              		.loc 1 28 0
 485 0148 3046     		mov	r0, r6
 486              	.LBE316:
 487              	.LBE315:
 488              		.loc 1 133 0
 489 014a 40F18180 		bpl	.L11
 490              		.loc 1 134 0
 491 014e A9F81810 		strh	r1, [r9, #24]	@ movhi
 492              	.LBB319:
 493              	.LBB317:
 494              		.loc 1 28 0
 495 0152 FFF7FEFF 		bl	chThdSleep
 496              	.LVL32:
 497              	.LBE317:
 498              	.LBE319:
 499              	.LBB320:
 500              	.LBB321:
 501 0156 3046     		mov	r0, r6
 502              	.LBE321:
 503              	.LBE320:
 504              		.loc 1 138 0
 505 0158 3E83     		strh	r6, [r7, #24]	@ movhi
 506              	.LBB325:
 507              	.LBB322:
 508              		.loc 1 28 0
 509 015a FFF7FEFF 		bl	chThdSleep
 510              	.LVL33:
 511              	.LBE322:
 512              	.LBE325:
 513              	.LBB326:
ARM GAS  /tmp/ccz3Igsc.s 			page 10


 514              	.LBB327:
 515 015e 3046     		mov	r0, r6
 516 0160 FFF7FEFF 		bl	chThdSleep
 517              	.LVL34:
 518 0164 013C     		subs	r4, r4, #1
 519              	.LVL35:
 520              	.LBE327:
 521              	.LBE326:
 522              		.loc 1 141 0
 523 0166 7E83     		strh	r6, [r7, #26]	@ movhi
 524              	.LBB329:
 525              	.LBB330:
 526              		.loc 1 28 0
 527 0168 3046     		mov	r0, r6
 528 016a FFF7FEFF 		bl	chThdSleep
 529              	.LVL36:
 530              	.LBE330:
 531              	.LBE329:
 532              		.loc 1 131 0
 533 016e 621C     		adds	r2, r4, #1
 534 0170 E4D1     		bne	.L10
 535              	.L12:
 536              	.LVL37:
 537              	.LBE337:
 538              	.LBE340:
 539              	.LBB341:
 540              	.LBB342:
 541              		.loc 1 60 0
 542 0172 594E     		ldr	r6, .L31
 543              		.loc 1 62 0
 544 0174 594C     		ldr	r4, .L31+4
 545              		.loc 1 60 0
 546 0176 4FF48057 		mov	r7, #4096
 547              	.LBB343:
 548              	.LBB344:
 549              		.loc 1 28 0
 550 017a 0120     		movs	r0, #1
 551              	.LBE344:
 552              	.LBE343:
 553              		.loc 1 62 0
 554 017c 0546     		mov	r5, r0
 555              		.loc 1 60 0
 556 017e 3783     		strh	r7, [r6, #24]	@ movhi
 557              	.LBB346:
 558              	.LBB345:
 559              		.loc 1 28 0
 560 0180 FFF7FEFF 		bl	chThdSleep
 561              	.LVL38:
 562              	.LBE345:
 563              	.LBE346:
 564              	.LBB347:
 565              	.LBB348:
 566 0184 2846     		mov	r0, r5
 567              	.LBE348:
 568              	.LBE347:
 569              		.loc 1 62 0
 570 0186 2583     		strh	r5, [r4, #24]	@ movhi
ARM GAS  /tmp/ccz3Igsc.s 			page 11


 571              	.LBB350:
 572              	.LBB349:
 573              		.loc 1 28 0
 574 0188 FFF7FEFF 		bl	chThdSleep
 575              	.LVL39:
 576              	.LBE349:
 577              	.LBE350:
 578              		.loc 1 67 0
 579 018c 3946     		mov	r1, r7
 580 018e 0522     		movs	r2, #5
 581              		.loc 1 64 0
 582 0190 6583     		strh	r5, [r4, #26]	@ movhi
 583              		.loc 1 67 0
 584 0192 3046     		mov	r0, r6
 585              		.loc 1 66 0
 586 0194 3783     		strh	r7, [r6, #24]	@ movhi
 587              		.loc 1 67 0
 588 0196 FFF7FEFF 		bl	_pal_lld_setgroupmode
 589              	.LVL40:
 590              	.LBB351:
 591              	.LBB352:
 592              		.loc 1 28 0
 593 019a 2846     		mov	r0, r5
 594 019c FFF7FEFF 		bl	chThdSleep
 595              	.LVL41:
 596              	.LBE352:
 597              	.LBE351:
 598              		.loc 1 69 0
 599 01a0 3946     		mov	r1, r7
 600 01a2 3046     		mov	r0, r6
 601 01a4 0522     		movs	r2, #5
 602 01a6 FFF7FEFF 		bl	_pal_lld_setgroupmode
 603              	.LVL42:
 604              	.LBE342:
 605              	.LBE341:
 606              	.LBB353:
 607              	.LBB354:
 608              		.loc 1 108 0
 609 01aa 3783     		strh	r7, [r6, #24]	@ movhi
 610              		.loc 1 110 0
 611 01ac 3946     		mov	r1, r7
 612 01ae 3046     		mov	r0, r6
 613 01b0 0022     		movs	r2, #0
 614 01b2 FFF7FEFF 		bl	_pal_lld_setgroupmode
 615              	.LVL43:
 616              		.loc 1 115 0
 617 01b6 2F46     		mov	r7, r5	@ movhi
 618              		.loc 1 110 0
 619 01b8 4FF0070A 		mov	r10, #7
 620              		.loc 1 111 0
 621 01bc 4FF00009 		mov	r9, #0
 622              	.LVL44:
 623              	.L14:
 624              	.LBB355:
 625              	.LBB356:
 626              		.loc 1 28 0
 627 01c0 0120     		movs	r0, #1
ARM GAS  /tmp/ccz3Igsc.s 			page 12


 628              	.LBE356:
 629              	.LBE355:
 630              		.loc 1 115 0
 631 01c2 6783     		strh	r7, [r4, #26]	@ movhi
 632              		.loc 1 119 0
 633 01c4 444E     		ldr	r6, .L31
 634              	.LBB358:
 635              	.LBB357:
 636              		.loc 1 28 0
 637 01c6 FFF7FEFF 		bl	chThdSleep
 638              	.LVL45:
 639              	.LBE357:
 640              	.LBE358:
 641              	.LBB359:
 642              	.LBB360:
 643 01ca 0120     		movs	r0, #1
 644              	.LBE360:
 645              	.LBE359:
 646              		.loc 1 117 0
 647 01cc 2583     		strh	r5, [r4, #24]	@ movhi
 648              	.LBB362:
 649              	.LBB361:
 650              		.loc 1 28 0
 651 01ce FFF7FEFF 		bl	chThdSleep
 652              	.LVL46:
 653              	.LBE361:
 654              	.LBE362:
 655              		.loc 1 119 0
 656 01d2 3369     		ldr	r3, [r6, #16]
 657 01d4 C3F30033 		ubfx	r3, r3, #12, #1
 658 01d8 03FA0AF3 		lsl	r3, r3, r10
 659 01dc 43EA0903 		orr	r3, r3, r9
 660              	.LBB363:
 661              	.LBB364:
 662              		.loc 1 28 0
 663 01e0 0120     		movs	r0, #1
 664              	.LBE364:
 665              	.LBE363:
 666              		.loc 1 119 0
 667 01e2 5FFA83F9 		uxtb	r9, r3
 668              	.LVL47:
 669 01e6 0AF1FF3A 		add	r10, r10, #-1
 670              	.LVL48:
 671              	.LBB366:
 672              	.LBB365:
 673              		.loc 1 28 0
 674 01ea FFF7FEFF 		bl	chThdSleep
 675              	.LVL49:
 676              	.LBE365:
 677              	.LBE366:
 678              		.loc 1 121 0
 679 01ee 6583     		strh	r5, [r4, #26]	@ movhi
 680              	.LBB367:
 681              	.LBB368:
 682              		.loc 1 28 0
 683 01f0 0120     		movs	r0, #1
 684 01f2 FFF7FEFF 		bl	chThdSleep
ARM GAS  /tmp/ccz3Igsc.s 			page 13


 685              	.LVL50:
 686              	.LBE368:
 687              	.LBE367:
 688              		.loc 1 113 0
 689 01f6 BAF1FF3F 		cmp	r10, #-1
 690 01fa E1D1     		bne	.L14
 691              		.loc 1 124 0
 692 01fc 4FF48051 		mov	r1, #4096
 693              	.LBE354:
 694              	.LBE353:
 695              	.LBB370:
 696              	.LBB371:
 697              		.loc 1 74 0
 698 0200 0F46     		mov	r7, r1
 699              	.LBE371:
 700              	.LBE370:
 701              	.LBB391:
 702              	.LBB369:
 703              		.loc 1 124 0
 704 0202 0522     		movs	r2, #5
 705 0204 3046     		mov	r0, r6
 706 0206 FFF7FEFF 		bl	_pal_lld_setgroupmode
 707              	.LVL51:
 708              	.LBE369:
 709              	.LBE391:
 710              	.LBB392:
 711              	.LBB390:
 712              	.LBB372:
 713              	.LBB373:
 714              		.loc 1 28 0
 715 020a 0120     		movs	r0, #1
 716              	.LBE373:
 717              	.LBE372:
 718              		.loc 1 74 0
 719 020c 3783     		strh	r7, [r6, #24]	@ movhi
 720              	.LBB375:
 721              	.LBB374:
 722              		.loc 1 28 0
 723 020e FFF7FEFF 		bl	chThdSleep
 724              	.LVL52:
 725              	.LBE374:
 726              	.LBE375:
 727              	.LBB376:
 728              	.LBB377:
 729 0212 0120     		movs	r0, #1
 730              	.LBE377:
 731              	.LBE376:
 732              		.loc 1 76 0
 733 0214 2583     		strh	r5, [r4, #24]	@ movhi
 734              	.LBB379:
 735              	.LBB378:
 736              		.loc 1 28 0
 737 0216 FFF7FEFF 		bl	chThdSleep
 738              	.LVL53:
 739              	.LBE378:
 740              	.LBE379:
 741              	.LBB380:
ARM GAS  /tmp/ccz3Igsc.s 			page 14


 742              	.LBB381:
 743 021a 0120     		movs	r0, #1
 744 021c FFF7FEFF 		bl	chThdSleep
 745              	.LVL54:
 746              	.LBE381:
 747              	.LBE380:
 748              	.LBB382:
 749              	.LBB383:
 750 0220 0120     		movs	r0, #1
 751              	.LBE383:
 752              	.LBE382:
 753              		.loc 1 79 0
 754 0222 6583     		strh	r5, [r4, #26]	@ movhi
 755              	.LBB385:
 756              	.LBB384:
 757              		.loc 1 28 0
 758 0224 FFF7FEFF 		bl	chThdSleep
 759              	.LVL55:
 760              	.LBE384:
 761              	.LBE385:
 762              	.LBB386:
 763              	.LBB387:
 764 0228 0120     		movs	r0, #1
 765              	.LBE387:
 766              	.LBE386:
 767              		.loc 1 81 0
 768 022a 7783     		strh	r7, [r6, #26]	@ movhi
 769              	.LBB389:
 770              	.LBB388:
 771              		.loc 1 28 0
 772 022c FFF7FEFF 		bl	chThdSleep
 773              	.LVL56:
 774              	.LBE388:
 775              	.LBE389:
 776              	.LBE390:
 777              	.LBE392:
 778              	.LBB393:
 779              	.LBB394:
 780              	.LBB395:
 781              	.LBB396:
 782 0230 0120     		movs	r0, #1
 783              	.LBE396:
 784              	.LBE395:
 785              		.loc 1 52 0
 786 0232 2583     		strh	r5, [r4, #24]	@ movhi
 787              	.LBB398:
 788              	.LBB397:
 789              		.loc 1 28 0
 790 0234 FFF7FEFF 		bl	chThdSleep
 791              	.LVL57:
 792              	.LBE397:
 793              	.LBE398:
 794              		.loc 1 54 0
 795 0238 3783     		strh	r7, [r6, #24]	@ movhi
 796              	.LBB399:
 797              	.LBB400:
 798              		.loc 1 28 0
ARM GAS  /tmp/ccz3Igsc.s 			page 15


 799 023a 0120     		movs	r0, #1
 800 023c FFF7FEFF 		bl	chThdSleep
 801              	.LVL58:
 802              	.LBE400:
 803              	.LBE399:
 804              	.LBE394:
 805              	.LBE393:
 806              		.loc 1 179 0
 807 0240 B8F1000F 		cmp	r8, #0
 808 0244 01D0     		beq	.L15
 809              		.loc 1 180 0
 810 0246 88F80090 		strb	r9, [r8]
 811              	.L15:
 812              		.loc 1 182 0
 813 024a 0120     		movs	r0, #1
 814 024c BDE8F88F 		pop	{r3, r4, r5, r6, r7, r8, r9, r10, fp, pc}
 815              	.LVL59:
 816              	.L11:
 817              	.LBB401:
 818              	.LBB338:
 819              		.loc 1 136 0
 820 0250 A9F81A10 		strh	r1, [r9, #26]	@ movhi
 821              	.LBB332:
 822              	.LBB318:
 823              		.loc 1 28 0
 824 0254 0120     		movs	r0, #1
 825 0256 FFF7FEFF 		bl	chThdSleep
 826              	.LVL60:
 827              	.LBE318:
 828              	.LBE332:
 829              	.LBB333:
 830              	.LBB323:
 831 025a 3046     		mov	r0, r6
 832              	.LBE323:
 833              	.LBE333:
 834              		.loc 1 138 0
 835 025c 3E83     		strh	r6, [r7, #24]	@ movhi
 836              	.LBB334:
 837              	.LBB324:
 838              		.loc 1 28 0
 839 025e FFF7FEFF 		bl	chThdSleep
 840              	.LVL61:
 841              	.LBE324:
 842              	.LBE334:
 843              	.LBB335:
 844              	.LBB328:
 845 0262 3046     		mov	r0, r6
 846 0264 FFF7FEFF 		bl	chThdSleep
 847              	.LVL62:
 848 0268 013C     		subs	r4, r4, #1
 849              	.LVL63:
 850              	.LBE328:
 851              	.LBE335:
 852              		.loc 1 141 0
 853 026a 7E83     		strh	r6, [r7, #26]	@ movhi
 854              	.LBB336:
 855              	.LBB331:
ARM GAS  /tmp/ccz3Igsc.s 			page 16


 856              		.loc 1 28 0
 857 026c 3046     		mov	r0, r6
 858 026e FFF7FEFF 		bl	chThdSleep
 859              	.LVL64:
 860              	.LBE331:
 861              	.LBE336:
 862              		.loc 1 131 0
 863 0272 631C     		adds	r3, r4, #1
 864 0274 7FF462AF 		bne	.L10
 865 0278 7BE7     		b	.L12
 866              	.LVL65:
 867              	.L7:
 868              	.LBE338:
 869              	.LBE401:
 870              	.LBB402:
 871              	.LBB277:
 872              	.LBB270:
 873              	.LBB255:
 874              		.loc 1 28 0
 875 027a 0120     		movs	r0, #1
 876              	.LBE255:
 877              	.LBE270:
 878              		.loc 1 136 0
 879 027c AAF81AB0 		strh	fp, [r10, #26]	@ movhi
 880              	.LBB271:
 881              	.LBB256:
 882              		.loc 1 28 0
 883 0280 FFF7FEFF 		bl	chThdSleep
 884              	.LVL66:
 885              	.LBE256:
 886              	.LBE271:
 887              	.LBB272:
 888              	.LBB261:
 889 0284 3046     		mov	r0, r6
 890              	.LBE261:
 891              	.LBE272:
 892              		.loc 1 138 0
 893 0286 A9F81860 		strh	r6, [r9, #24]	@ movhi
 894              	.LBB273:
 895              	.LBB262:
 896              		.loc 1 28 0
 897 028a FFF7FEFF 		bl	chThdSleep
 898              	.LVL67:
 899              	.LBE262:
 900              	.LBE273:
 901              	.LBB274:
 902              	.LBB266:
 903 028e 3046     		mov	r0, r6
 904 0290 FFF7FEFF 		bl	chThdSleep
 905              	.LVL68:
 906 0294 013C     		subs	r4, r4, #1
 907              	.LVL69:
 908              	.LBE266:
 909              	.LBE274:
 910              		.loc 1 141 0
 911 0296 A9F81A60 		strh	r6, [r9, #26]	@ movhi
 912              	.LBB275:
ARM GAS  /tmp/ccz3Igsc.s 			page 17


 913              	.LBB269:
 914              		.loc 1 28 0
 915 029a 3046     		mov	r0, r6
 916 029c FFF7FEFF 		bl	chThdSleep
 917              	.LVL70:
 918              	.LBE269:
 919              	.LBE275:
 920              		.loc 1 131 0
 921 02a0 621C     		adds	r2, r4, #1
 922 02a2 7FF400AF 		bne	.L6
 923 02a6 19E7     		b	.L8
 924              	.LVL71:
 925              	.L3:
 926              	.LBE277:
 927              	.LBE402:
 928              	.LBB403:
 929              	.LBB234:
 930              		.loc 1 136 0
 931 02a8 AAF81A10 		strh	r1, [r10, #26]	@ movhi
 932              	.LBB228:
 933              	.LBB214:
 934              		.loc 1 28 0
 935 02ac 0120     		movs	r0, #1
 936 02ae FFF7FEFF 		bl	chThdSleep
 937              	.LVL72:
 938              	.LBE214:
 939              	.LBE228:
 940              	.LBB229:
 941              	.LBB219:
 942 02b2 3046     		mov	r0, r6
 943              	.LBE219:
 944              	.LBE229:
 945              		.loc 1 138 0
 946 02b4 A9F81860 		strh	r6, [r9, #24]	@ movhi
 947              	.LBB230:
 948              	.LBB220:
 949              		.loc 1 28 0
 950 02b8 FFF7FEFF 		bl	chThdSleep
 951              	.LVL73:
 952              	.LBE220:
 953              	.LBE230:
 954              	.LBB231:
 955              	.LBB224:
 956 02bc 3046     		mov	r0, r6
 957 02be FFF7FEFF 		bl	chThdSleep
 958              	.LVL74:
 959 02c2 013C     		subs	r4, r4, #1
 960              	.LVL75:
 961              	.LBE224:
 962              	.LBE231:
 963              		.loc 1 141 0
 964 02c4 A9F81A60 		strh	r6, [r9, #26]	@ movhi
 965              	.LBB232:
 966              	.LBB227:
 967              		.loc 1 28 0
 968 02c8 3046     		mov	r0, r6
 969 02ca FFF7FEFF 		bl	chThdSleep
ARM GAS  /tmp/ccz3Igsc.s 			page 18


 970              	.LVL76:
 971              	.LBE227:
 972              	.LBE232:
 973              		.loc 1 131 0
 974 02ce 621C     		adds	r2, r4, #1
 975 02d0 7FF4ABAE 		bne	.L2
 976 02d4 C6E6     		b	.L4
 977              	.L32:
 978 02d6 00BF     		.align	2
 979              	.L31:
 980 02d8 001C0240 		.word	1073880064
 981 02dc 00200240 		.word	1073881088
 982              	.LBE234:
 983              	.LBE403:
 984              		.cfi_endproc
 985              	.LFE799:
 986              		.size	_Z17swi2c_readByte_A8hhPh.constprop.1, .-_Z17swi2c_readByte_A8hhPh.constprop.1
 987              		.section	.text._Z7__delayv,"ax",%progbits
 988              		.align	1
 989              		.p2align 2,,3
 990              		.global	_Z7__delayv
 991              		.syntax unified
 992              		.thumb
 993              		.thumb_func
 994              		.fpu fpv4-sp-d16
 995              		.type	_Z7__delayv, %function
 996              	_Z7__delayv:
 997              	.LFB780:
 998              		.loc 1 27 0
 999              		.cfi_startproc
 1000              		@ args = 0, pretend = 0, frame = 0
 1001              		@ frame_needed = 0, uses_anonymous_args = 0
 1002              		@ link register save eliminated.
 1003              		.loc 1 28 0
 1004 0000 0120     		movs	r0, #1
 1005 0002 FFF7FEBF 		b	chThdSleep
 1006              	.LVL77:
 1007              		.cfi_endproc
 1008              	.LFE780:
 1009              		.size	_Z7__delayv, .-_Z7__delayv
 1010 0006 00BF     		.section	.text._Z10swi2c_initv,"ax",%progbits
 1011              		.align	1
 1012              		.p2align 2,,3
 1013              		.global	_Z10swi2c_initv
 1014              		.syntax unified
 1015              		.thumb
 1016              		.thumb_func
 1017              		.fpu fpv4-sp-d16
 1018              		.type	_Z10swi2c_initv, %function
 1019              	_Z10swi2c_initv:
 1020              	.LFB781:
 1021              		.loc 1 32 0
 1022              		.cfi_startproc
 1023              		@ args = 0, pretend = 0, frame = 0
 1024              		@ frame_needed = 0, uses_anonymous_args = 0
 1025 0000 38B5     		push	{r3, r4, r5, lr}
 1026              		.cfi_def_cfa_offset 16
ARM GAS  /tmp/ccz3Igsc.s 			page 19


 1027              		.cfi_offset 3, -16
 1028              		.cfi_offset 4, -12
 1029              		.cfi_offset 5, -8
 1030              		.cfi_offset 14, -4
 1031              		.loc 1 33 0
 1032 0002 0D4C     		ldr	r4, .L38
 1033              		.loc 1 34 0
 1034 0004 0D4D     		ldr	r5, .L38+4
 1035              		.loc 1 33 0
 1036 0006 2046     		mov	r0, r4
 1037 0008 0522     		movs	r2, #5
 1038 000a 4FF48051 		mov	r1, #4096
 1039 000e FFF7FEFF 		bl	_pal_lld_setgroupmode
 1040              	.LVL78:
 1041              		.loc 1 34 0
 1042 0012 0522     		movs	r2, #5
 1043 0014 2846     		mov	r0, r5
 1044 0016 0121     		movs	r1, #1
 1045 0018 FFF7FEFF 		bl	_pal_lld_setgroupmode
 1046              	.LVL79:
 1047              		.loc 1 35 0
 1048 001c 4FF48052 		mov	r2, #4096
 1049              		.loc 1 36 0
 1050 0020 0123     		movs	r3, #1
 1051              		.loc 1 35 0
 1052 0022 2283     		strh	r2, [r4, #24]	@ movhi
 1053              		.loc 1 36 0
 1054 0024 6424     		movs	r4, #100
 1055 0026 2B83     		strh	r3, [r5, #24]	@ movhi
 1056              	.LVL80:
 1057              	.L35:
 1058              	.LBB404:
 1059              	.LBB405:
 1060              		.loc 1 28 0
 1061 0028 0120     		movs	r0, #1
 1062 002a FFF7FEFF 		bl	chThdSleep
 1063              	.LVL81:
 1064 002e 631E     		subs	r3, r4, #1
 1065              	.LBE405:
 1066              	.LBE404:
 1067              		.loc 1 38 0
 1068 0030 13F0FF04 		ands	r4, r3, #255
 1069 0034 F8D1     		bne	.L35
 1070              		.loc 1 40 0
 1071 0036 38BD     		pop	{r3, r4, r5, pc}
 1072              	.L39:
 1073              		.align	2
 1074              	.L38:
 1075 0038 001C0240 		.word	1073880064
 1076 003c 00200240 		.word	1073881088
 1077              		.cfi_endproc
 1078              	.LFE781:
 1079              		.size	_Z10swi2c_initv, .-_Z10swi2c_initv
 1080              		.section	.text._Z11swi2c_startv,"ax",%progbits
 1081              		.align	1
 1082              		.p2align 2,,3
 1083              		.global	_Z11swi2c_startv
ARM GAS  /tmp/ccz3Igsc.s 			page 20


 1084              		.syntax unified
 1085              		.thumb
 1086              		.thumb_func
 1087              		.fpu fpv4-sp-d16
 1088              		.type	_Z11swi2c_startv, %function
 1089              	_Z11swi2c_startv:
 1090              	.LFB782:
 1091              		.loc 1 43 0
 1092              		.cfi_startproc
 1093              		@ args = 0, pretend = 0, frame = 0
 1094              		@ frame_needed = 0, uses_anonymous_args = 0
 1095 0000 08B5     		push	{r3, lr}
 1096              		.cfi_def_cfa_offset 8
 1097              		.cfi_offset 3, -8
 1098              		.cfi_offset 14, -4
 1099              		.loc 1 44 0
 1100 0002 074B     		ldr	r3, .L42
 1101 0004 4FF48052 		mov	r2, #4096
 1102 0008 5A83     		strh	r2, [r3, #26]	@ movhi
 1103              	.LBB410:
 1104              	.LBB411:
 1105              		.loc 1 28 0
 1106 000a 0120     		movs	r0, #1
 1107 000c FFF7FEFF 		bl	chThdSleep
 1108              	.LVL82:
 1109              	.LBE411:
 1110              	.LBE410:
 1111              		.loc 1 46 0
 1112 0010 044B     		ldr	r3, .L42+4
 1113 0012 0120     		movs	r0, #1
 1114 0014 5883     		strh	r0, [r3, #26]	@ movhi
 1115              		.loc 1 48 0
 1116 0016 BDE80840 		pop	{r3, lr}
 1117              		.cfi_restore 14
 1118              		.cfi_restore 3
 1119              		.cfi_def_cfa_offset 0
 1120              	.LBB412:
 1121              	.LBB413:
 1122              		.loc 1 28 0
 1123 001a FFF7FEBF 		b	chThdSleep
 1124              	.LVL83:
 1125              	.L43:
 1126 001e 00BF     		.align	2
 1127              	.L42:
 1128 0020 001C0240 		.word	1073880064
 1129 0024 00200240 		.word	1073881088
 1130              	.LBE413:
 1131              	.LBE412:
 1132              		.cfi_endproc
 1133              	.LFE782:
 1134              		.size	_Z11swi2c_startv, .-_Z11swi2c_startv
 1135              		.section	.text._Z10swi2c_stopv,"ax",%progbits
 1136              		.align	1
 1137              		.p2align 2,,3
 1138              		.global	_Z10swi2c_stopv
 1139              		.syntax unified
 1140              		.thumb
ARM GAS  /tmp/ccz3Igsc.s 			page 21


 1141              		.thumb_func
 1142              		.fpu fpv4-sp-d16
 1143              		.type	_Z10swi2c_stopv, %function
 1144              	_Z10swi2c_stopv:
 1145              	.LFB783:
 1146              		.loc 1 51 0
 1147              		.cfi_startproc
 1148              		@ args = 0, pretend = 0, frame = 0
 1149              		@ frame_needed = 0, uses_anonymous_args = 0
 1150 0000 10B5     		push	{r4, lr}
 1151              		.cfi_def_cfa_offset 8
 1152              		.cfi_offset 4, -8
 1153              		.cfi_offset 14, -4
 1154              		.loc 1 52 0
 1155 0002 074B     		ldr	r3, .L46
 1156 0004 0124     		movs	r4, #1
 1157 0006 1C83     		strh	r4, [r3, #24]	@ movhi
 1158              	.LBB418:
 1159              	.LBB419:
 1160              		.loc 1 28 0
 1161 0008 2046     		mov	r0, r4
 1162 000a FFF7FEFF 		bl	chThdSleep
 1163              	.LVL84:
 1164              	.LBE419:
 1165              	.LBE418:
 1166              		.loc 1 54 0
 1167 000e 054B     		ldr	r3, .L46+4
 1168 0010 4FF48052 		mov	r2, #4096
 1169              	.LBB420:
 1170              	.LBB421:
 1171              		.loc 1 28 0
 1172 0014 2046     		mov	r0, r4
 1173              	.LBE421:
 1174              	.LBE420:
 1175              		.loc 1 54 0
 1176 0016 1A83     		strh	r2, [r3, #24]	@ movhi
 1177              		.loc 1 56 0
 1178 0018 BDE81040 		pop	{r4, lr}
 1179              		.cfi_restore 14
 1180              		.cfi_restore 4
 1181              		.cfi_def_cfa_offset 0
 1182              	.LBB423:
 1183              	.LBB422:
 1184              		.loc 1 28 0
 1185 001c FFF7FEBF 		b	chThdSleep
 1186              	.LVL85:
 1187              	.L47:
 1188              		.align	2
 1189              	.L46:
 1190 0020 00200240 		.word	1073881088
 1191 0024 001C0240 		.word	1073880064
 1192              	.LBE422:
 1193              	.LBE423:
 1194              		.cfi_endproc
 1195              	.LFE783:
 1196              		.size	_Z10swi2c_stopv, .-_Z10swi2c_stopv
 1197              		.section	.text._Z9swi2c_ackv,"ax",%progbits
ARM GAS  /tmp/ccz3Igsc.s 			page 22


 1198              		.align	1
 1199              		.p2align 2,,3
 1200              		.global	_Z9swi2c_ackv
 1201              		.syntax unified
 1202              		.thumb
 1203              		.thumb_func
 1204              		.fpu fpv4-sp-d16
 1205              		.type	_Z9swi2c_ackv, %function
 1206              	_Z9swi2c_ackv:
 1207              	.LFB784:
 1208              		.loc 1 59 0
 1209              		.cfi_startproc
 1210              		@ args = 0, pretend = 0, frame = 0
 1211              		@ frame_needed = 0, uses_anonymous_args = 0
 1212 0000 F8B5     		push	{r3, r4, r5, r6, r7, lr}
 1213              		.cfi_def_cfa_offset 24
 1214              		.cfi_offset 3, -24
 1215              		.cfi_offset 4, -20
 1216              		.cfi_offset 5, -16
 1217              		.cfi_offset 6, -12
 1218              		.cfi_offset 7, -8
 1219              		.cfi_offset 14, -4
 1220              		.loc 1 60 0
 1221 0002 0F4C     		ldr	r4, .L50
 1222              		.loc 1 62 0
 1223 0004 0F4F     		ldr	r7, .L50+4
 1224              		.loc 1 60 0
 1225 0006 4FF48055 		mov	r5, #4096
 1226              	.LBB430:
 1227              	.LBB431:
 1228              		.loc 1 28 0
 1229 000a 0120     		movs	r0, #1
 1230              	.LBE431:
 1231              	.LBE430:
 1232              		.loc 1 62 0
 1233 000c 0646     		mov	r6, r0
 1234              		.loc 1 60 0
 1235 000e 2583     		strh	r5, [r4, #24]	@ movhi
 1236              	.LBB433:
 1237              	.LBB432:
 1238              		.loc 1 28 0
 1239 0010 FFF7FEFF 		bl	chThdSleep
 1240              	.LVL86:
 1241              	.LBE432:
 1242              	.LBE433:
 1243              	.LBB434:
 1244              	.LBB435:
 1245 0014 3046     		mov	r0, r6
 1246              	.LBE435:
 1247              	.LBE434:
 1248              		.loc 1 62 0
 1249 0016 3E83     		strh	r6, [r7, #24]	@ movhi
 1250              	.LBB437:
 1251              	.LBB436:
 1252              		.loc 1 28 0
 1253 0018 FFF7FEFF 		bl	chThdSleep
 1254              	.LVL87:
ARM GAS  /tmp/ccz3Igsc.s 			page 23


 1255              	.LBE436:
 1256              	.LBE437:
 1257              		.loc 1 67 0
 1258 001c 2946     		mov	r1, r5
 1259              		.loc 1 64 0
 1260 001e 7E83     		strh	r6, [r7, #26]	@ movhi
 1261              		.loc 1 67 0
 1262 0020 2046     		mov	r0, r4
 1263 0022 0522     		movs	r2, #5
 1264              		.loc 1 66 0
 1265 0024 2583     		strh	r5, [r4, #24]	@ movhi
 1266              		.loc 1 67 0
 1267 0026 FFF7FEFF 		bl	_pal_lld_setgroupmode
 1268              	.LVL88:
 1269              	.LBB438:
 1270              	.LBB439:
 1271              		.loc 1 28 0
 1272 002a 3046     		mov	r0, r6
 1273 002c FFF7FEFF 		bl	chThdSleep
 1274              	.LVL89:
 1275              	.LBE439:
 1276              	.LBE438:
 1277              		.loc 1 69 0
 1278 0030 2946     		mov	r1, r5
 1279 0032 2046     		mov	r0, r4
 1280 0034 0522     		movs	r2, #5
 1281              		.loc 1 70 0
 1282 0036 BDE8F840 		pop	{r3, r4, r5, r6, r7, lr}
 1283              		.cfi_restore 14
 1284              		.cfi_restore 7
 1285              		.cfi_restore 6
 1286              		.cfi_restore 5
 1287              		.cfi_restore 4
 1288              		.cfi_restore 3
 1289              		.cfi_def_cfa_offset 0
 1290              		.loc 1 69 0
 1291 003a FFF7FEBF 		b	_pal_lld_setgroupmode
 1292              	.LVL90:
 1293              	.L51:
 1294 003e 00BF     		.align	2
 1295              	.L50:
 1296 0040 001C0240 		.word	1073880064
 1297 0044 00200240 		.word	1073881088
 1298              		.cfi_endproc
 1299              	.LFE784:
 1300              		.size	_Z9swi2c_ackv, .-_Z9swi2c_ackv
 1301              		.section	.text._Z10swi2c_nackv,"ax",%progbits
 1302              		.align	1
 1303              		.p2align 2,,3
 1304              		.global	_Z10swi2c_nackv
 1305              		.syntax unified
 1306              		.thumb
 1307              		.thumb_func
 1308              		.fpu fpv4-sp-d16
 1309              		.type	_Z10swi2c_nackv, %function
 1310              	_Z10swi2c_nackv:
 1311              	.LFB785:
ARM GAS  /tmp/ccz3Igsc.s 			page 24


 1312              		.loc 1 73 0
 1313              		.cfi_startproc
 1314              		@ args = 0, pretend = 0, frame = 0
 1315              		@ frame_needed = 0, uses_anonymous_args = 0
 1316 0000 F8B5     		push	{r3, r4, r5, r6, r7, lr}
 1317              		.cfi_def_cfa_offset 24
 1318              		.cfi_offset 3, -24
 1319              		.cfi_offset 4, -20
 1320              		.cfi_offset 5, -16
 1321              		.cfi_offset 6, -12
 1322              		.cfi_offset 7, -8
 1323              		.cfi_offset 14, -4
 1324              		.loc 1 74 0
 1325 0002 0D4D     		ldr	r5, .L54
 1326              		.loc 1 76 0
 1327 0004 0D4F     		ldr	r7, .L54+4
 1328              		.loc 1 74 0
 1329 0006 4FF48056 		mov	r6, #4096
 1330              	.LBB450:
 1331              	.LBB451:
 1332              		.loc 1 28 0
 1333 000a 0120     		movs	r0, #1
 1334              	.LBE451:
 1335              	.LBE450:
 1336              		.loc 1 76 0
 1337 000c 0446     		mov	r4, r0
 1338              		.loc 1 74 0
 1339 000e 2E83     		strh	r6, [r5, #24]	@ movhi
 1340              	.LBB453:
 1341              	.LBB452:
 1342              		.loc 1 28 0
 1343 0010 FFF7FEFF 		bl	chThdSleep
 1344              	.LVL91:
 1345              	.LBE452:
 1346              	.LBE453:
 1347              	.LBB454:
 1348              	.LBB455:
 1349 0014 2046     		mov	r0, r4
 1350              	.LBE455:
 1351              	.LBE454:
 1352              		.loc 1 76 0
 1353 0016 3C83     		strh	r4, [r7, #24]	@ movhi
 1354              	.LBB457:
 1355              	.LBB456:
 1356              		.loc 1 28 0
 1357 0018 FFF7FEFF 		bl	chThdSleep
 1358              	.LVL92:
 1359              	.LBE456:
 1360              	.LBE457:
 1361              	.LBB458:
 1362              	.LBB459:
 1363 001c 2046     		mov	r0, r4
 1364 001e FFF7FEFF 		bl	chThdSleep
 1365              	.LVL93:
 1366              	.LBE459:
 1367              	.LBE458:
 1368              	.LBB460:
ARM GAS  /tmp/ccz3Igsc.s 			page 25


 1369              	.LBB461:
 1370 0022 2046     		mov	r0, r4
 1371              	.LBE461:
 1372              	.LBE460:
 1373              		.loc 1 79 0
 1374 0024 7C83     		strh	r4, [r7, #26]	@ movhi
 1375              	.LBB463:
 1376              	.LBB462:
 1377              		.loc 1 28 0
 1378 0026 FFF7FEFF 		bl	chThdSleep
 1379              	.LVL94:
 1380              	.LBE462:
 1381              	.LBE463:
 1382              		.loc 1 81 0
 1383 002a 6E83     		strh	r6, [r5, #26]	@ movhi
 1384              	.LBB464:
 1385              	.LBB465:
 1386              		.loc 1 28 0
 1387 002c 2046     		mov	r0, r4
 1388              	.LBE465:
 1389              	.LBE464:
 1390              		.loc 1 83 0
 1391 002e BDE8F840 		pop	{r3, r4, r5, r6, r7, lr}
 1392              		.cfi_restore 14
 1393              		.cfi_restore 7
 1394              		.cfi_restore 6
 1395              		.cfi_restore 5
 1396              		.cfi_restore 4
 1397              		.cfi_restore 3
 1398              		.cfi_def_cfa_offset 0
 1399              	.LBB467:
 1400              	.LBB466:
 1401              		.loc 1 28 0
 1402 0032 FFF7FEBF 		b	chThdSleep
 1403              	.LVL95:
 1404              	.L55:
 1405 0036 00BF     		.align	2
 1406              	.L54:
 1407 0038 001C0240 		.word	1073880064
 1408 003c 00200240 		.word	1073881088
 1409              	.LBE466:
 1410              	.LBE467:
 1411              		.cfi_endproc
 1412              	.LFE785:
 1413              		.size	_Z10swi2c_nackv, .-_Z10swi2c_nackv
 1414              		.section	.text._Z14swi2c_wait_ackv,"ax",%progbits
 1415              		.align	1
 1416              		.p2align 2,,3
 1417              		.global	_Z14swi2c_wait_ackv
 1418              		.syntax unified
 1419              		.thumb
 1420              		.thumb_func
 1421              		.fpu fpv4-sp-d16
 1422              		.type	_Z14swi2c_wait_ackv, %function
 1423              	_Z14swi2c_wait_ackv:
 1424              	.LFB786:
 1425              		.loc 1 86 0
ARM GAS  /tmp/ccz3Igsc.s 			page 26


 1426              		.cfi_startproc
 1427              		@ args = 0, pretend = 0, frame = 0
 1428              		@ frame_needed = 0, uses_anonymous_args = 0
 1429 0000 70B5     		push	{r4, r5, r6, lr}
 1430              		.cfi_def_cfa_offset 16
 1431              		.cfi_offset 4, -16
 1432              		.cfi_offset 5, -12
 1433              		.cfi_offset 6, -8
 1434              		.cfi_offset 14, -4
 1435              		.loc 1 87 0
 1436 0002 214E     		ldr	r6, .L66
 1437 0004 0022     		movs	r2, #0
 1438 0006 4FF48051 		mov	r1, #4096
 1439 000a 3046     		mov	r0, r6
 1440 000c FFF7FEFF 		bl	_pal_lld_setgroupmode
 1441              	.LVL96:
 1442              	.LBB480:
 1443              	.LBB481:
 1444              		.loc 1 28 0
 1445 0010 0120     		movs	r0, #1
 1446 0012 FFF7FEFF 		bl	chThdSleep
 1447              	.LVL97:
 1448              	.LBE481:
 1449              	.LBE480:
 1450              	.LBB482:
 1451              	.LBB483:
 1452 0016 0120     		movs	r0, #1
 1453 0018 FFF7FEFF 		bl	chThdSleep
 1454              	.LVL98:
 1455              	.LBE483:
 1456              	.LBE482:
 1457              		.loc 1 91 0
 1458 001c 1B4B     		ldr	r3, .L66+4
 1459 001e 0122     		movs	r2, #1
 1460 0020 1A83     		strh	r2, [r3, #24]	@ movhi
 1461              	.LVL99:
 1462              		.loc 1 95 0
 1463 0022 3369     		ldr	r3, [r6, #16]
 1464 0024 1B0B     		lsrs	r3, r3, #12
 1465              	.LVL100:
 1466 0026 D907     		lsls	r1, r3, #31
 1467 0028 48BF     		it	mi
 1468 002a 4FF40064 		movmi	r4, #2048
 1469 002e 01D4     		bmi	.L57
 1470 0030 25E0     		b	.L65
 1471              	.LVL101:
 1472              	.L59:
 1473              		.loc 1 95 0 is_stmt 0 discriminator 1
 1474 0032 64B1     		cbz	r4, .L58
 1475              	.LVL102:
 1476              	.L57:
 1477              	.LBB484:
 1478              	.LBB485:
 1479              		.loc 1 28 0 is_stmt 1
 1480 0034 0120     		movs	r0, #1
 1481 0036 FFF7FEFF 		bl	chThdSleep
 1482              	.LVL103:
ARM GAS  /tmp/ccz3Igsc.s 			page 27


 1483              	.LBE485:
 1484              	.LBE484:
 1485              		.loc 1 95 0
 1486 003a 3369     		ldr	r3, [r6, #16]
 1487 003c 1B0B     		lsrs	r3, r3, #12
 1488 003e DA43     		mvns	r2, r3
 1489 0040 013C     		subs	r4, r4, #1
 1490 0042 13F0010F 		tst	r3, #1
 1491 0046 02F00105 		and	r5, r2, #1
 1492              	.LVL104:
 1493 004a A4B2     		uxth	r4, r4
 1494 004c F1D1     		bne	.L59
 1495              	.LVL105:
 1496              	.L58:
 1497              		.loc 1 97 0 discriminator 4
 1498 004e 0F4B     		ldr	r3, .L66+4
 1499              		.loc 1 99 0 discriminator 4
 1500 0050 0D4E     		ldr	r6, .L66
 1501              		.loc 1 97 0 discriminator 4
 1502 0052 0124     		movs	r4, #1
 1503 0054 5C83     		strh	r4, [r3, #26]	@ movhi
 1504              	.LBB486:
 1505              	.LBB487:
 1506              		.loc 1 28 0 discriminator 4
 1507 0056 2046     		mov	r0, r4
 1508 0058 FFF7FEFF 		bl	chThdSleep
 1509              	.LVL106:
 1510              	.LBE487:
 1511              	.LBE486:
 1512              		.loc 1 99 0 discriminator 4
 1513 005c 0522     		movs	r2, #5
 1514 005e 4FF48051 		mov	r1, #4096
 1515 0062 3046     		mov	r0, r6
 1516 0064 FFF7FEFF 		bl	_pal_lld_setgroupmode
 1517              	.LVL107:
 1518              	.LBB488:
 1519              	.LBB489:
 1520              		.loc 1 28 0 discriminator 4
 1521 0068 2046     		mov	r0, r4
 1522 006a FFF7FEFF 		bl	chThdSleep
 1523              	.LVL108:
 1524              	.LBE489:
 1525              	.LBE488:
 1526              		.loc 1 101 0 discriminator 4
 1527 006e 4FF48053 		mov	r3, #4096
 1528              	.LBB490:
 1529              	.LBB491:
 1530              		.loc 1 28 0 discriminator 4
 1531 0072 2046     		mov	r0, r4
 1532              	.LBE491:
 1533              	.LBE490:
 1534              		.loc 1 101 0 discriminator 4
 1535 0074 7383     		strh	r3, [r6, #26]	@ movhi
 1536              	.LBB493:
 1537              	.LBB492:
 1538              		.loc 1 28 0 discriminator 4
 1539 0076 FFF7FEFF 		bl	chThdSleep
ARM GAS  /tmp/ccz3Igsc.s 			page 28


 1540              	.LVL109:
 1541              	.LBE492:
 1542              	.LBE493:
 1543              		.loc 1 104 0 discriminator 4
 1544 007a 2846     		mov	r0, r5
 1545 007c 70BD     		pop	{r4, r5, r6, pc}
 1546              	.LVL110:
 1547              	.L65:
 1548              		.loc 1 95 0
 1549 007e DB43     		mvns	r3, r3
 1550              	.LVL111:
 1551 0080 03EA0205 		and	r5, r3, r2
 1552 0084 E3E7     		b	.L58
 1553              	.L67:
 1554 0086 00BF     		.align	2
 1555              	.L66:
 1556 0088 001C0240 		.word	1073880064
 1557 008c 00200240 		.word	1073881088
 1558              		.cfi_endproc
 1559              	.LFE786:
 1560              		.size	_Z14swi2c_wait_ackv, .-_Z14swi2c_wait_ackv
 1561              		.section	.text._Z10swi2c_readv,"ax",%progbits
 1562              		.align	1
 1563              		.p2align 2,,3
 1564              		.global	_Z10swi2c_readv
 1565              		.syntax unified
 1566              		.thumb
 1567              		.thumb_func
 1568              		.fpu fpv4-sp-d16
 1569              		.type	_Z10swi2c_readv, %function
 1570              	_Z10swi2c_readv:
 1571              	.LFB787:
 1572              		.loc 1 107 0
 1573              		.cfi_startproc
 1574              		@ args = 0, pretend = 0, frame = 0
 1575              		@ frame_needed = 0, uses_anonymous_args = 0
 1576              		.loc 1 108 0
 1577 0000 1B48     		ldr	r0, .L72
 1578 0002 4FF48051 		mov	r1, #4096
 1579              		.loc 1 107 0
 1580 0006 2DE9F843 		push	{r3, r4, r5, r6, r7, r8, r9, lr}
 1581              		.cfi_def_cfa_offset 32
 1582              		.cfi_offset 3, -32
 1583              		.cfi_offset 4, -28
 1584              		.cfi_offset 5, -24
 1585              		.cfi_offset 6, -20
 1586              		.cfi_offset 7, -16
 1587              		.cfi_offset 8, -12
 1588              		.cfi_offset 9, -8
 1589              		.cfi_offset 14, -4
 1590              		.loc 1 110 0
 1591 000a 0022     		movs	r2, #0
 1592              		.loc 1 108 0
 1593 000c 0183     		strh	r1, [r0, #24]	@ movhi
 1594              		.loc 1 110 0
 1595 000e FFF7FEFF 		bl	_pal_lld_setgroupmode
 1596              	.LVL112:
ARM GAS  /tmp/ccz3Igsc.s 			page 29


 1597              		.loc 1 115 0
 1598 0012 0125     		movs	r5, #1
 1599 0014 174C     		ldr	r4, .L72+4
 1600 0016 2F46     		mov	r7, r5	@ movhi
 1601              		.loc 1 110 0
 1602 0018 4FF00709 		mov	r9, #7
 1603              		.loc 1 111 0
 1604 001c 4FF00008 		mov	r8, #0
 1605              	.LVL113:
 1606              	.L69:
 1607              	.LBB502:
 1608              	.LBB503:
 1609              		.loc 1 28 0
 1610 0020 0120     		movs	r0, #1
 1611              	.LBE503:
 1612              	.LBE502:
 1613              		.loc 1 115 0
 1614 0022 6783     		strh	r7, [r4, #26]	@ movhi
 1615              		.loc 1 119 0
 1616 0024 124E     		ldr	r6, .L72
 1617              	.LBB505:
 1618              	.LBB504:
 1619              		.loc 1 28 0
 1620 0026 FFF7FEFF 		bl	chThdSleep
 1621              	.LVL114:
 1622              	.LBE504:
 1623              	.LBE505:
 1624              	.LBB506:
 1625              	.LBB507:
 1626 002a 0120     		movs	r0, #1
 1627              	.LBE507:
 1628              	.LBE506:
 1629              		.loc 1 117 0
 1630 002c 2583     		strh	r5, [r4, #24]	@ movhi
 1631              	.LBB509:
 1632              	.LBB508:
 1633              		.loc 1 28 0
 1634 002e FFF7FEFF 		bl	chThdSleep
 1635              	.LVL115:
 1636              	.LBE508:
 1637              	.LBE509:
 1638              		.loc 1 119 0
 1639 0032 3369     		ldr	r3, [r6, #16]
 1640 0034 C3F30033 		ubfx	r3, r3, #12, #1
 1641 0038 03FA09F3 		lsl	r3, r3, r9
 1642 003c 43EA0803 		orr	r3, r3, r8
 1643              	.LBB510:
 1644              	.LBB511:
 1645              		.loc 1 28 0
 1646 0040 0120     		movs	r0, #1
 1647              	.LBE511:
 1648              	.LBE510:
 1649              		.loc 1 119 0
 1650 0042 5FFA83F8 		uxtb	r8, r3
 1651              	.LVL116:
 1652 0046 09F1FF39 		add	r9, r9, #-1
 1653              	.LVL117:
ARM GAS  /tmp/ccz3Igsc.s 			page 30


 1654              	.LBB513:
 1655              	.LBB512:
 1656              		.loc 1 28 0
 1657 004a FFF7FEFF 		bl	chThdSleep
 1658              	.LVL118:
 1659              	.LBE512:
 1660              	.LBE513:
 1661              		.loc 1 121 0
 1662 004e 6583     		strh	r5, [r4, #26]	@ movhi
 1663              	.LBB514:
 1664              	.LBB515:
 1665              		.loc 1 28 0
 1666 0050 0120     		movs	r0, #1
 1667 0052 FFF7FEFF 		bl	chThdSleep
 1668              	.LVL119:
 1669              	.LBE515:
 1670              	.LBE514:
 1671              		.loc 1 113 0
 1672 0056 B9F1FF3F 		cmp	r9, #-1
 1673 005a E1D1     		bne	.L69
 1674              		.loc 1 124 0
 1675 005c 3046     		mov	r0, r6
 1676 005e 0522     		movs	r2, #5
 1677 0060 4FF48051 		mov	r1, #4096
 1678 0064 FFF7FEFF 		bl	_pal_lld_setgroupmode
 1679              	.LVL120:
 1680              		.loc 1 126 0
 1681 0068 4046     		mov	r0, r8
 1682 006a BDE8F883 		pop	{r3, r4, r5, r6, r7, r8, r9, pc}
 1683              	.LVL121:
 1684              	.L73:
 1685 006e 00BF     		.align	2
 1686              	.L72:
 1687 0070 001C0240 		.word	1073880064
 1688 0074 00200240 		.word	1073881088
 1689              		.cfi_endproc
 1690              	.LFE787:
 1691              		.size	_Z10swi2c_readv, .-_Z10swi2c_readv
 1692              		.section	.text._Z11swi2c_writeh,"ax",%progbits
 1693              		.align	1
 1694              		.p2align 2,,3
 1695              		.global	_Z11swi2c_writeh
 1696              		.syntax unified
 1697              		.thumb
 1698              		.thumb_func
 1699              		.fpu fpv4-sp-d16
 1700              		.type	_Z11swi2c_writeh, %function
 1701              	_Z11swi2c_writeh:
 1702              	.LFB788:
 1703              		.loc 1 129 0
 1704              		.cfi_startproc
 1705              		@ args = 0, pretend = 0, frame = 0
 1706              		@ frame_needed = 0, uses_anonymous_args = 0
 1707              	.LVL122:
 1708 0000 2DE9F047 		push	{r4, r5, r6, r7, r8, r9, r10, lr}
 1709              		.cfi_def_cfa_offset 32
 1710              		.cfi_offset 4, -32
ARM GAS  /tmp/ccz3Igsc.s 			page 31


 1711              		.cfi_offset 5, -28
 1712              		.cfi_offset 6, -24
 1713              		.cfi_offset 7, -20
 1714              		.cfi_offset 8, -16
 1715              		.cfi_offset 9, -12
 1716              		.cfi_offset 10, -8
 1717              		.cfi_offset 14, -4
 1718              		.loc 1 136 0
 1719 0004 DFF86CA0 		ldr	r10, .L83+4
 1720              		.loc 1 138 0
 1721 0008 194F     		ldr	r7, .L83
 1722              		.loc 1 129 0
 1723 000a 8146     		mov	r9, r0
 1724 000c 0724     		movs	r4, #7
 1725              		.loc 1 136 0
 1726 000e 4FF48058 		mov	r8, #4096
 1727              	.LVL123:
 1728              	.L75:
 1729              		.loc 1 133 0
 1730 0012 49FA04F3 		asr	r3, r9, r4
 1731              		.loc 1 138 0
 1732 0016 0126     		movs	r6, #1
 1733              		.loc 1 133 0
 1734 0018 D907     		lsls	r1, r3, #31
 1735              	.LBB524:
 1736              	.LBB525:
 1737              		.loc 1 28 0
 1738 001a 3046     		mov	r0, r6
 1739              	.LBE525:
 1740              	.LBE524:
 1741              		.loc 1 133 0
 1742 001c 13D5     		bpl	.L76
 1743              		.loc 1 134 0
 1744 001e AAF81880 		strh	r8, [r10, #24]	@ movhi
 1745              	.LBB529:
 1746              	.LBB526:
 1747              		.loc 1 28 0
 1748 0022 FFF7FEFF 		bl	chThdSleep
 1749              	.LVL124:
 1750              	.LBE526:
 1751              	.LBE529:
 1752              	.LBB530:
 1753              	.LBB531:
 1754 0026 3046     		mov	r0, r6
 1755              	.LBE531:
 1756              	.LBE530:
 1757              		.loc 1 138 0
 1758 0028 3E83     		strh	r6, [r7, #24]	@ movhi
 1759              	.LBB535:
 1760              	.LBB532:
 1761              		.loc 1 28 0
 1762 002a FFF7FEFF 		bl	chThdSleep
 1763              	.LVL125:
 1764              	.LBE532:
 1765              	.LBE535:
 1766              	.LBB536:
 1767              	.LBB537:
ARM GAS  /tmp/ccz3Igsc.s 			page 32


 1768 002e 3046     		mov	r0, r6
 1769 0030 FFF7FEFF 		bl	chThdSleep
 1770              	.LVL126:
 1771 0034 013C     		subs	r4, r4, #1
 1772              	.LVL127:
 1773              	.LBE537:
 1774              	.LBE536:
 1775              		.loc 1 141 0
 1776 0036 7E83     		strh	r6, [r7, #26]	@ movhi
 1777              	.LBB539:
 1778              	.LBB540:
 1779              		.loc 1 28 0
 1780 0038 3046     		mov	r0, r6
 1781 003a FFF7FEFF 		bl	chThdSleep
 1782              	.LVL128:
 1783              	.LBE540:
 1784              	.LBE539:
 1785              		.loc 1 131 0
 1786 003e 621C     		adds	r2, r4, #1
 1787 0040 E7D1     		bne	.L75
 1788              		.loc 1 144 0
 1789 0042 BDE8F087 		pop	{r4, r5, r6, r7, r8, r9, r10, pc}
 1790              	.LVL129:
 1791              	.L76:
 1792              	.LBB542:
 1793              	.LBB527:
 1794              		.loc 1 28 0
 1795 0046 0120     		movs	r0, #1
 1796              	.LBE527:
 1797              	.LBE542:
 1798              		.loc 1 136 0
 1799 0048 AAF81A80 		strh	r8, [r10, #26]	@ movhi
 1800              	.LBB543:
 1801              	.LBB528:
 1802              		.loc 1 28 0
 1803 004c FFF7FEFF 		bl	chThdSleep
 1804              	.LVL130:
 1805              	.LBE528:
 1806              	.LBE543:
 1807              	.LBB544:
 1808              	.LBB533:
 1809 0050 3046     		mov	r0, r6
 1810              	.LBE533:
 1811              	.LBE544:
 1812              		.loc 1 138 0
 1813 0052 3E83     		strh	r6, [r7, #24]	@ movhi
 1814              	.LBB545:
 1815              	.LBB534:
 1816              		.loc 1 28 0
 1817 0054 FFF7FEFF 		bl	chThdSleep
 1818              	.LVL131:
 1819              	.LBE534:
 1820              	.LBE545:
 1821              	.LBB546:
 1822              	.LBB538:
 1823 0058 3046     		mov	r0, r6
 1824 005a FFF7FEFF 		bl	chThdSleep
ARM GAS  /tmp/ccz3Igsc.s 			page 33


 1825              	.LVL132:
 1826 005e 013C     		subs	r4, r4, #1
 1827              	.LVL133:
 1828              	.LBE538:
 1829              	.LBE546:
 1830              		.loc 1 141 0
 1831 0060 7E83     		strh	r6, [r7, #26]	@ movhi
 1832              	.LBB547:
 1833              	.LBB541:
 1834              		.loc 1 28 0
 1835 0062 3046     		mov	r0, r6
 1836 0064 FFF7FEFF 		bl	chThdSleep
 1837              	.LVL134:
 1838              	.LBE541:
 1839              	.LBE547:
 1840              		.loc 1 131 0
 1841 0068 631C     		adds	r3, r4, #1
 1842 006a D2D1     		bne	.L75
 1843              		.loc 1 144 0
 1844 006c BDE8F087 		pop	{r4, r5, r6, r7, r8, r9, r10, pc}
 1845              	.L84:
 1846              		.align	2
 1847              	.L83:
 1848 0070 00200240 		.word	1073881088
 1849 0074 001C0240 		.word	1073880064
 1850              		.cfi_endproc
 1851              	.LFE788:
 1852              		.size	_Z11swi2c_writeh, .-_Z11swi2c_writeh
 1853              		.section	.text._Z11swi2c_checkh,"ax",%progbits
 1854              		.align	1
 1855              		.p2align 2,,3
 1856              		.global	_Z11swi2c_checkh
 1857              		.syntax unified
 1858              		.thumb
 1859              		.thumb_func
 1860              		.fpu fpv4-sp-d16
 1861              		.type	_Z11swi2c_checkh, %function
 1862              	_Z11swi2c_checkh:
 1863              	.LFB789:
 1864              		.loc 1 147 0
 1865              		.cfi_startproc
 1866              		@ args = 0, pretend = 0, frame = 0
 1867              		@ frame_needed = 0, uses_anonymous_args = 0
 1868              	.LVL135:
 1869 0000 2DE9F047 		push	{r4, r5, r6, r7, r8, r9, r10, lr}
 1870              		.cfi_def_cfa_offset 32
 1871              		.cfi_offset 4, -32
 1872              		.cfi_offset 5, -28
 1873              		.cfi_offset 6, -24
 1874              		.cfi_offset 7, -20
 1875              		.cfi_offset 8, -16
 1876              		.cfi_offset 9, -12
 1877              		.cfi_offset 10, -8
 1878              		.cfi_offset 14, -4
 1879              	.LBB590:
 1880              	.LBB591:
 1881              		.loc 1 44 0
ARM GAS  /tmp/ccz3Igsc.s 			page 34


 1882 0004 524C     		ldr	r4, .L102
 1883              		.loc 1 46 0
 1884 0006 534F     		ldr	r7, .L102+4
 1885              		.loc 1 44 0
 1886 0008 4FF48059 		mov	r9, #4096
 1887              	.LBE591:
 1888              	.LBE590:
 1889              		.loc 1 147 0
 1890 000c 8046     		mov	r8, r0
 1891              	.LBB597:
 1892              	.LBB596:
 1893              		.loc 1 44 0
 1894 000e A4F81A90 		strh	r9, [r4, #26]	@ movhi
 1895              	.LBB592:
 1896              	.LBB593:
 1897              		.loc 1 28 0
 1898 0012 0120     		movs	r0, #1
 1899              	.LVL136:
 1900 0014 FFF7FEFF 		bl	chThdSleep
 1901              	.LVL137:
 1902              	.LBE593:
 1903              	.LBE592:
 1904              		.loc 1 46 0
 1905 0018 0120     		movs	r0, #1
 1906 001a 7883     		strh	r0, [r7, #26]	@ movhi
 1907              	.LBB594:
 1908              	.LBB595:
 1909              		.loc 1 28 0
 1910 001c FFF7FEFF 		bl	chThdSleep
 1911              	.LVL138:
 1912              	.LBE595:
 1913              	.LBE594:
 1914              	.LBE596:
 1915              	.LBE597:
 1916              		.loc 1 149 0
 1917 0020 4FEA4808 		lsl	r8, r8, #1
 1918              	.LVL139:
 1919              	.LBB598:
 1920              	.LBB599:
 1921              		.loc 1 136 0
 1922 0024 A246     		mov	r10, r4
 1923 0026 5FFA88F8 		uxtb	r8, r8
 1924              	.LBE599:
 1925              	.LBE598:
 1926              		.loc 1 149 0
 1927 002a 0724     		movs	r4, #7
 1928              	.LVL140:
 1929              	.L86:
 1930              	.LBB626:
 1931              	.LBB624:
 1932              		.loc 1 133 0
 1933 002c 48FA04F3 		asr	r3, r8, r4
 1934              		.loc 1 138 0
 1935 0030 0126     		movs	r6, #1
 1936              		.loc 1 133 0
 1937 0032 DB07     		lsls	r3, r3, #31
 1938              	.LBB600:
ARM GAS  /tmp/ccz3Igsc.s 			page 35


 1939              	.LBB601:
 1940              		.loc 1 28 0
 1941 0034 3046     		mov	r0, r6
 1942              	.LBE601:
 1943              	.LBE600:
 1944              		.loc 1 133 0
 1945 0036 54D5     		bpl	.L87
 1946              		.loc 1 134 0
 1947 0038 AAF81890 		strh	r9, [r10, #24]	@ movhi
 1948              	.LBB605:
 1949              	.LBB602:
 1950              		.loc 1 28 0
 1951 003c FFF7FEFF 		bl	chThdSleep
 1952              	.LVL141:
 1953              	.LBE602:
 1954              	.LBE605:
 1955              	.LBB606:
 1956              	.LBB607:
 1957 0040 3046     		mov	r0, r6
 1958              	.LBE607:
 1959              	.LBE606:
 1960              		.loc 1 138 0
 1961 0042 3E83     		strh	r6, [r7, #24]	@ movhi
 1962              	.LBB611:
 1963              	.LBB608:
 1964              		.loc 1 28 0
 1965 0044 FFF7FEFF 		bl	chThdSleep
 1966              	.LVL142:
 1967              	.LBE608:
 1968              	.LBE611:
 1969              	.LBB612:
 1970              	.LBB613:
 1971 0048 3046     		mov	r0, r6
 1972 004a FFF7FEFF 		bl	chThdSleep
 1973              	.LVL143:
 1974 004e 013C     		subs	r4, r4, #1
 1975              	.LVL144:
 1976              	.LBE613:
 1977              	.LBE612:
 1978              		.loc 1 141 0
 1979 0050 7E83     		strh	r6, [r7, #26]	@ movhi
 1980              	.LBB615:
 1981              	.LBB616:
 1982              		.loc 1 28 0
 1983 0052 3046     		mov	r0, r6
 1984 0054 FFF7FEFF 		bl	chThdSleep
 1985              	.LVL145:
 1986              	.LBE616:
 1987              	.LBE615:
 1988              		.loc 1 131 0
 1989 0058 611C     		adds	r1, r4, #1
 1990 005a E7D1     		bne	.L86
 1991              	.L88:
 1992              	.LBE624:
 1993              	.LBE626:
 1994              	.LBB627:
 1995              	.LBB628:
ARM GAS  /tmp/ccz3Igsc.s 			page 36


 1996              		.loc 1 87 0
 1997 005c 3C4D     		ldr	r5, .L102
 1998 005e 0022     		movs	r2, #0
 1999 0060 4FF48051 		mov	r1, #4096
 2000 0064 2846     		mov	r0, r5
 2001 0066 FFF7FEFF 		bl	_pal_lld_setgroupmode
 2002              	.LVL146:
 2003              	.LBB629:
 2004              	.LBB630:
 2005              		.loc 1 28 0
 2006 006a 0120     		movs	r0, #1
 2007 006c FFF7FEFF 		bl	chThdSleep
 2008              	.LVL147:
 2009              	.LBE630:
 2010              	.LBE629:
 2011              	.LBB631:
 2012              	.LBB632:
 2013 0070 0120     		movs	r0, #1
 2014 0072 FFF7FEFF 		bl	chThdSleep
 2015              	.LVL148:
 2016              	.LBE632:
 2017              	.LBE631:
 2018              		.loc 1 91 0
 2019 0076 374B     		ldr	r3, .L102+4
 2020 0078 0122     		movs	r2, #1
 2021 007a 1A83     		strh	r2, [r3, #24]	@ movhi
 2022              	.LVL149:
 2023              		.loc 1 95 0
 2024 007c 2B69     		ldr	r3, [r5, #16]
 2025              	.LVL150:
 2026 007e DB04     		lsls	r3, r3, #19
 2027              	.LVL151:
 2028 0080 48BF     		it	mi
 2029 0082 4FF40064 		movmi	r4, #2048
 2030 0086 02D4     		bmi	.L90
 2031 0088 0AE0     		b	.L91
 2032              	.LVL152:
 2033              	.L93:
 2034 008a 002C     		cmp	r4, #0
 2035 008c 3DD0     		beq	.L101
 2036              	.LVL153:
 2037              	.L90:
 2038              	.LBB633:
 2039              	.LBB634:
 2040              		.loc 1 28 0
 2041 008e 0120     		movs	r0, #1
 2042 0090 FFF7FEFF 		bl	chThdSleep
 2043              	.LVL154:
 2044              	.LBE634:
 2045              	.LBE633:
 2046              		.loc 1 95 0
 2047 0094 2B69     		ldr	r3, [r5, #16]
 2048              	.LVL155:
 2049 0096 013C     		subs	r4, r4, #1
 2050 0098 13F4805F 		tst	r3, #4096
 2051 009c A4B2     		uxth	r4, r4
 2052 009e F4D1     		bne	.L93
ARM GAS  /tmp/ccz3Igsc.s 			page 37


 2053              	.LVL156:
 2054              	.L91:
 2055              		.loc 1 97 0
 2056 00a0 2C4F     		ldr	r7, .L102+4
 2057              		.loc 1 99 0
 2058 00a2 2B4D     		ldr	r5, .L102
 2059              		.loc 1 97 0
 2060 00a4 0124     		movs	r4, #1
 2061              	.LBB635:
 2062              	.LBB636:
 2063              		.loc 1 28 0
 2064 00a6 2046     		mov	r0, r4
 2065              	.LBE636:
 2066              	.LBE635:
 2067              		.loc 1 97 0
 2068 00a8 7C83     		strh	r4, [r7, #26]	@ movhi
 2069              	.LBB640:
 2070              	.LBB637:
 2071              		.loc 1 28 0
 2072 00aa FFF7FEFF 		bl	chThdSleep
 2073              	.LVL157:
 2074              	.LBE637:
 2075              	.LBE640:
 2076              		.loc 1 99 0
 2077 00ae 0522     		movs	r2, #5
 2078 00b0 4FF48051 		mov	r1, #4096
 2079 00b4 2846     		mov	r0, r5
 2080 00b6 FFF7FEFF 		bl	_pal_lld_setgroupmode
 2081              	.LVL158:
 2082              		.loc 1 101 0
 2083 00ba 4FF48056 		mov	r6, #4096
 2084              	.LBB641:
 2085              	.LBB642:
 2086              		.loc 1 28 0
 2087 00be 2046     		mov	r0, r4
 2088 00c0 FFF7FEFF 		bl	chThdSleep
 2089              	.LVL159:
 2090              	.LBE642:
 2091              	.LBE641:
 2092              	.LBB644:
 2093              	.LBB645:
 2094 00c4 2046     		mov	r0, r4
 2095              	.LBE645:
 2096              	.LBE644:
 2097              		.loc 1 101 0
 2098 00c6 6E83     		strh	r6, [r5, #26]	@ movhi
 2099              	.LBB649:
 2100              	.LBB646:
 2101              		.loc 1 28 0
 2102 00c8 FFF7FEFF 		bl	chThdSleep
 2103              	.LVL160:
 2104              	.LBE646:
 2105              	.LBE649:
 2106              	.LBE628:
 2107              	.LBE627:
 2108              	.LBB656:
 2109              	.LBB657:
ARM GAS  /tmp/ccz3Igsc.s 			page 38


 2110              	.LBB658:
 2111              	.LBB659:
 2112 00cc 2046     		mov	r0, r4
 2113              	.LBE659:
 2114              	.LBE658:
 2115              		.loc 1 52 0
 2116 00ce 3C83     		strh	r4, [r7, #24]	@ movhi
 2117              	.LBB661:
 2118              	.LBB660:
 2119              		.loc 1 28 0
 2120 00d0 FFF7FEFF 		bl	chThdSleep
 2121              	.LVL161:
 2122              	.LBE660:
 2123              	.LBE661:
 2124              	.LBB662:
 2125              	.LBB663:
 2126 00d4 2046     		mov	r0, r4
 2127              	.LBE663:
 2128              	.LBE662:
 2129              		.loc 1 54 0
 2130 00d6 2E83     		strh	r6, [r5, #24]	@ movhi
 2131              	.LBB665:
 2132              	.LBB664:
 2133              		.loc 1 28 0
 2134 00d8 FFF7FEFF 		bl	chThdSleep
 2135              	.LVL162:
 2136              	.LBE664:
 2137              	.LBE665:
 2138              	.LBE657:
 2139              	.LBE656:
 2140              		.loc 1 156 0
 2141 00dc 2046     		mov	r0, r4
 2142              		.loc 1 157 0
 2143 00de BDE8F087 		pop	{r4, r5, r6, r7, r8, r9, r10, pc}
 2144              	.LVL163:
 2145              	.L87:
 2146              	.LBB666:
 2147              	.LBB625:
 2148              	.LBB618:
 2149              	.LBB603:
 2150              		.loc 1 28 0
 2151 00e2 0120     		movs	r0, #1
 2152              	.LBE603:
 2153              	.LBE618:
 2154              		.loc 1 136 0
 2155 00e4 AAF81A90 		strh	r9, [r10, #26]	@ movhi
 2156              	.LBB619:
 2157              	.LBB604:
 2158              		.loc 1 28 0
 2159 00e8 FFF7FEFF 		bl	chThdSleep
 2160              	.LVL164:
 2161              	.LBE604:
 2162              	.LBE619:
 2163              	.LBB620:
 2164              	.LBB609:
 2165 00ec 3046     		mov	r0, r6
 2166              	.LBE609:
ARM GAS  /tmp/ccz3Igsc.s 			page 39


 2167              	.LBE620:
 2168              		.loc 1 138 0
 2169 00ee 3E83     		strh	r6, [r7, #24]	@ movhi
 2170              	.LBB621:
 2171              	.LBB610:
 2172              		.loc 1 28 0
 2173 00f0 FFF7FEFF 		bl	chThdSleep
 2174              	.LVL165:
 2175              	.LBE610:
 2176              	.LBE621:
 2177              	.LBB622:
 2178              	.LBB614:
 2179 00f4 3046     		mov	r0, r6
 2180 00f6 FFF7FEFF 		bl	chThdSleep
 2181              	.LVL166:
 2182 00fa 013C     		subs	r4, r4, #1
 2183              	.LVL167:
 2184              	.LBE614:
 2185              	.LBE622:
 2186              		.loc 1 141 0
 2187 00fc 7E83     		strh	r6, [r7, #26]	@ movhi
 2188              	.LBB623:
 2189              	.LBB617:
 2190              		.loc 1 28 0
 2191 00fe 3046     		mov	r0, r6
 2192 0100 FFF7FEFF 		bl	chThdSleep
 2193              	.LVL168:
 2194              	.LBE617:
 2195              	.LBE623:
 2196              		.loc 1 131 0
 2197 0104 621C     		adds	r2, r4, #1
 2198 0106 91D1     		bne	.L86
 2199 0108 A8E7     		b	.L88
 2200              	.LVL169:
 2201              	.L101:
 2202              	.LBE625:
 2203              	.LBE666:
 2204              	.LBB667:
 2205              	.LBB655:
 2206              		.loc 1 97 0
 2207 010a DFF84880 		ldr	r8, .L102+4
 2208 010e 0126     		movs	r6, #1
 2209              	.LBB650:
 2210              	.LBB638:
 2211              		.loc 1 28 0
 2212 0110 3046     		mov	r0, r6
 2213              	.LBE638:
 2214              	.LBE650:
 2215              		.loc 1 97 0
 2216 0112 A8F81A60 		strh	r6, [r8, #26]	@ movhi
 2217              	.LBB651:
 2218              	.LBB639:
 2219              		.loc 1 28 0
 2220 0116 FFF7FEFF 		bl	chThdSleep
 2221              	.LVL170:
 2222              	.LBE639:
 2223              	.LBE651:
ARM GAS  /tmp/ccz3Igsc.s 			page 40


 2224              		.loc 1 99 0
 2225 011a 0522     		movs	r2, #5
 2226 011c 4FF48051 		mov	r1, #4096
 2227 0120 0B48     		ldr	r0, .L102
 2228 0122 FFF7FEFF 		bl	_pal_lld_setgroupmode
 2229              	.LVL171:
 2230              		.loc 1 101 0
 2231 0126 4FF48057 		mov	r7, #4096
 2232              	.LBB652:
 2233              	.LBB643:
 2234              		.loc 1 28 0
 2235 012a 3046     		mov	r0, r6
 2236 012c FFF7FEFF 		bl	chThdSleep
 2237              	.LVL172:
 2238              	.LBE643:
 2239              	.LBE652:
 2240              	.LBB653:
 2241              	.LBB647:
 2242 0130 3046     		mov	r0, r6
 2243              	.LBE647:
 2244              	.LBE653:
 2245              		.loc 1 101 0
 2246 0132 6F83     		strh	r7, [r5, #26]	@ movhi
 2247              	.LBB654:
 2248              	.LBB648:
 2249              		.loc 1 28 0
 2250 0134 FFF7FEFF 		bl	chThdSleep
 2251              	.LVL173:
 2252              	.LBE648:
 2253              	.LBE654:
 2254              	.LBE655:
 2255              	.LBE667:
 2256              	.LBB668:
 2257              	.LBB669:
 2258              	.LBB670:
 2259              	.LBB671:
 2260 0138 3046     		mov	r0, r6
 2261              	.LBE671:
 2262              	.LBE670:
 2263              		.loc 1 52 0
 2264 013a A8F81860 		strh	r6, [r8, #24]	@ movhi
 2265              	.LBB673:
 2266              	.LBB672:
 2267              		.loc 1 28 0
 2268 013e FFF7FEFF 		bl	chThdSleep
 2269              	.LVL174:
 2270              	.LBE672:
 2271              	.LBE673:
 2272              	.LBB674:
 2273              	.LBB675:
 2274 0142 3046     		mov	r0, r6
 2275              	.LBE675:
 2276              	.LBE674:
 2277              		.loc 1 54 0
 2278 0144 2F83     		strh	r7, [r5, #24]	@ movhi
 2279              	.LBB677:
 2280              	.LBB676:
ARM GAS  /tmp/ccz3Igsc.s 			page 41


 2281              		.loc 1 28 0
 2282 0146 FFF7FEFF 		bl	chThdSleep
 2283              	.LVL175:
 2284              	.LBE676:
 2285              	.LBE677:
 2286              	.LBE669:
 2287              	.LBE668:
 2288              		.loc 1 153 0
 2289 014a 2046     		mov	r0, r4
 2290              		.loc 1 157 0
 2291 014c BDE8F087 		pop	{r4, r5, r6, r7, r8, r9, r10, pc}
 2292              	.L103:
 2293              		.align	2
 2294              	.L102:
 2295 0150 001C0240 		.word	1073880064
 2296 0154 00200240 		.word	1073881088
 2297              		.cfi_endproc
 2298              	.LFE789:
 2299              		.size	_Z11swi2c_checkh, .-_Z11swi2c_checkh
 2300              		.section	.text._Z17swi2c_readByte_A8hhPh,"ax",%progbits
 2301              		.align	1
 2302              		.p2align 2,,3
 2303              		.global	_Z17swi2c_readByte_A8hhPh
 2304              		.syntax unified
 2305              		.thumb
 2306              		.thumb_func
 2307              		.fpu fpv4-sp-d16
 2308              		.type	_Z17swi2c_readByte_A8hhPh, %function
 2309              	_Z17swi2c_readByte_A8hhPh:
 2310              	.LFB790:
 2311              		.loc 1 162 0
 2312              		.cfi_startproc
 2313              		@ args = 0, pretend = 0, frame = 8
 2314              		@ frame_needed = 0, uses_anonymous_args = 0
 2315              	.LVL176:
 2316 0000 2DE9F04F 		push	{r4, r5, r6, r7, r8, r9, r10, fp, lr}
 2317              		.cfi_def_cfa_offset 36
 2318              		.cfi_offset 4, -36
 2319              		.cfi_offset 5, -32
 2320              		.cfi_offset 6, -28
 2321              		.cfi_offset 7, -24
 2322              		.cfi_offset 8, -20
 2323              		.cfi_offset 9, -16
 2324              		.cfi_offset 10, -12
 2325              		.cfi_offset 11, -8
 2326              		.cfi_offset 14, -4
 2327              	.LBB778:
 2328              	.LBB779:
 2329              		.loc 1 44 0
 2330 0004 B74C     		ldr	r4, .L133
 2331              		.loc 1 46 0
 2332 0006 B84D     		ldr	r5, .L133+4
 2333              	.LBE779:
 2334              	.LBE778:
 2335              		.loc 1 162 0
 2336 0008 83B0     		sub	sp, sp, #12
 2337              		.cfi_def_cfa_offset 48
ARM GAS  /tmp/ccz3Igsc.s 			page 42


 2338              	.LBB789:
 2339              	.LBB786:
 2340              		.loc 1 44 0
 2341 000a 4FF48056 		mov	r6, #4096
 2342 000e 6683     		strh	r6, [r4, #26]	@ movhi
 2343              	.LBE786:
 2344              	.LBE789:
 2345              		.loc 1 162 0
 2346 0010 0746     		mov	r7, r0
 2347              	.LBB790:
 2348              	.LBB787:
 2349              	.LBB780:
 2350              	.LBB781:
 2351              		.loc 1 28 0
 2352 0012 0120     		movs	r0, #1
 2353              	.LVL177:
 2354              	.LBE781:
 2355              	.LBE780:
 2356              	.LBE787:
 2357              	.LBE790:
 2358              		.loc 1 162 0
 2359 0014 8A46     		mov	r10, r1
 2360 0016 0192     		str	r2, [sp, #4]
 2361              	.LBB791:
 2362              	.LBB788:
 2363              	.LBB783:
 2364              	.LBB782:
 2365              		.loc 1 28 0
 2366 0018 FFF7FEFF 		bl	chThdSleep
 2367              	.LVL178:
 2368              	.LBE782:
 2369              	.LBE783:
 2370              		.loc 1 46 0
 2371 001c 0120     		movs	r0, #1
 2372 001e 6883     		strh	r0, [r5, #26]	@ movhi
 2373              	.LBB784:
 2374              	.LBB785:
 2375              		.loc 1 28 0
 2376 0020 FFF7FEFF 		bl	chThdSleep
 2377              	.LVL179:
 2378              	.LBE785:
 2379              	.LBE784:
 2380              	.LBE788:
 2381              	.LBE791:
 2382              		.loc 1 164 0
 2383 0024 7B00     		lsls	r3, r7, #1
 2384              	.LBB792:
 2385              	.LBB793:
 2386              		.loc 1 136 0
 2387 0026 A146     		mov	r9, r4
 2388              	.LBE793:
 2389              	.LBE792:
 2390              		.loc 1 164 0
 2391 0028 0093     		str	r3, [sp]
 2392              	.LVL180:
 2393 002a 5FFA83FB 		uxtb	fp, r3
 2394 002e 0724     		movs	r4, #7
ARM GAS  /tmp/ccz3Igsc.s 			page 43


 2395              	.LVL181:
 2396              	.L105:
 2397              	.LBB820:
 2398              	.LBB818:
 2399              		.loc 1 133 0
 2400 0030 4BFA04F1 		asr	r1, fp, r4
 2401              		.loc 1 138 0
 2402 0034 0127     		movs	r7, #1
 2403              		.loc 1 133 0
 2404 0036 C907     		lsls	r1, r1, #31
 2405              	.LBB794:
 2406              	.LBB795:
 2407              		.loc 1 28 0
 2408 0038 3846     		mov	r0, r7
 2409              	.LBE795:
 2410              	.LBE794:
 2411              		.loc 1 133 0
 2412 003a 40F13D81 		bpl	.L106
 2413              		.loc 1 134 0
 2414 003e A9F81860 		strh	r6, [r9, #24]	@ movhi
 2415              	.LBB799:
 2416              	.LBB796:
 2417              		.loc 1 28 0
 2418 0042 FFF7FEFF 		bl	chThdSleep
 2419              	.LVL182:
 2420              	.LBE796:
 2421              	.LBE799:
 2422              	.LBB800:
 2423              	.LBB801:
 2424 0046 3846     		mov	r0, r7
 2425              	.LBE801:
 2426              	.LBE800:
 2427              		.loc 1 138 0
 2428 0048 2F83     		strh	r7, [r5, #24]	@ movhi
 2429              	.LBB805:
 2430              	.LBB802:
 2431              		.loc 1 28 0
 2432 004a FFF7FEFF 		bl	chThdSleep
 2433              	.LVL183:
 2434              	.LBE802:
 2435              	.LBE805:
 2436              	.LBB806:
 2437              	.LBB807:
 2438 004e 3846     		mov	r0, r7
 2439 0050 FFF7FEFF 		bl	chThdSleep
 2440              	.LVL184:
 2441 0054 013C     		subs	r4, r4, #1
 2442              	.LVL185:
 2443              	.LBE807:
 2444              	.LBE806:
 2445              		.loc 1 141 0
 2446 0056 6F83     		strh	r7, [r5, #26]	@ movhi
 2447              	.LBB809:
 2448              	.LBB810:
 2449              		.loc 1 28 0
 2450 0058 3846     		mov	r0, r7
 2451 005a FFF7FEFF 		bl	chThdSleep
ARM GAS  /tmp/ccz3Igsc.s 			page 44


 2452              	.LVL186:
 2453              	.LBE810:
 2454              	.LBE809:
 2455              		.loc 1 131 0
 2456 005e 621C     		adds	r2, r4, #1
 2457 0060 E6D1     		bne	.L105
 2458              	.L107:
 2459              	.LVL187:
 2460              	.LBE818:
 2461              	.LBE820:
 2462              	.LBB821:
 2463              	.LBB822:
 2464              		.loc 1 60 0
 2465 0062 A04C     		ldr	r4, .L133
 2466              		.loc 1 62 0
 2467 0064 A04E     		ldr	r6, .L133+4
 2468              		.loc 1 60 0
 2469 0066 4FF4805B 		mov	fp, #4096
 2470              	.LBB823:
 2471              	.LBB824:
 2472              		.loc 1 28 0
 2473 006a 0120     		movs	r0, #1
 2474              	.LBE824:
 2475              	.LBE823:
 2476              		.loc 1 62 0
 2477 006c 0546     		mov	r5, r0
 2478              		.loc 1 60 0
 2479 006e A4F818B0 		strh	fp, [r4, #24]	@ movhi
 2480              	.LBB826:
 2481              	.LBB825:
 2482              		.loc 1 28 0
 2483 0072 FFF7FEFF 		bl	chThdSleep
 2484              	.LVL188:
 2485              	.LBE825:
 2486              	.LBE826:
 2487              	.LBB827:
 2488              	.LBB828:
 2489 0076 2846     		mov	r0, r5
 2490              	.LBE828:
 2491              	.LBE827:
 2492              		.loc 1 62 0
 2493 0078 3583     		strh	r5, [r6, #24]	@ movhi
 2494              	.LBB830:
 2495              	.LBB829:
 2496              		.loc 1 28 0
 2497 007a FFF7FEFF 		bl	chThdSleep
 2498              	.LVL189:
 2499              	.LBE829:
 2500              	.LBE830:
 2501              		.loc 1 67 0
 2502 007e 5946     		mov	r1, fp
 2503 0080 2046     		mov	r0, r4
 2504 0082 0522     		movs	r2, #5
 2505              		.loc 1 64 0
 2506 0084 7583     		strh	r5, [r6, #26]	@ movhi
 2507              		.loc 1 66 0
 2508 0086 A4F818B0 		strh	fp, [r4, #24]	@ movhi
ARM GAS  /tmp/ccz3Igsc.s 			page 45


 2509              		.loc 1 67 0
 2510 008a FFF7FEFF 		bl	_pal_lld_setgroupmode
 2511              	.LVL190:
 2512              	.LBB831:
 2513              	.LBB832:
 2514              		.loc 1 28 0
 2515 008e 2846     		mov	r0, r5
 2516 0090 FFF7FEFF 		bl	chThdSleep
 2517              	.LVL191:
 2518              	.LBE832:
 2519              	.LBE831:
 2520              		.loc 1 69 0
 2521 0094 2046     		mov	r0, r4
 2522 0096 5946     		mov	r1, fp
 2523 0098 0522     		movs	r2, #5
 2524 009a FFF7FEFF 		bl	_pal_lld_setgroupmode
 2525              	.LVL192:
 2526              	.LBE822:
 2527              	.LBE821:
 2528              	.LBB834:
 2529              	.LBB835:
 2530              		.loc 1 136 0
 2531 009e A146     		mov	r9, r4
 2532              	.LBE835:
 2533              	.LBE834:
 2534              	.LBB864:
 2535              	.LBB833:
 2536              		.loc 1 69 0
 2537 00a0 0724     		movs	r4, #7
 2538              	.LVL193:
 2539              	.L109:
 2540              	.LBE833:
 2541              	.LBE864:
 2542              	.LBB865:
 2543              	.LBB862:
 2544              		.loc 1 133 0
 2545 00a2 4AFA04F2 		asr	r2, r10, r4
 2546              		.loc 1 138 0
 2547 00a6 4FF00108 		mov	r8, #1
 2548              		.loc 1 133 0
 2549 00aa D707     		lsls	r7, r2, #31
 2550              	.LBB836:
 2551              	.LBB837:
 2552              		.loc 1 28 0
 2553 00ac 4046     		mov	r0, r8
 2554              	.LBE837:
 2555              	.LBE836:
 2556              		.loc 1 133 0
 2557 00ae 40F1EC80 		bpl	.L110
 2558              		.loc 1 134 0
 2559 00b2 A9F818B0 		strh	fp, [r9, #24]	@ movhi
 2560              	.LBB841:
 2561              	.LBB838:
 2562              		.loc 1 28 0
 2563 00b6 FFF7FEFF 		bl	chThdSleep
 2564              	.LVL194:
 2565              	.LBE838:
ARM GAS  /tmp/ccz3Igsc.s 			page 46


 2566              	.LBE841:
 2567              	.LBB842:
 2568              	.LBB843:
 2569 00ba 4046     		mov	r0, r8
 2570              	.LBE843:
 2571              	.LBE842:
 2572              		.loc 1 138 0
 2573 00bc A6F81880 		strh	r8, [r6, #24]	@ movhi
 2574              	.LBB847:
 2575              	.LBB844:
 2576              		.loc 1 28 0
 2577 00c0 FFF7FEFF 		bl	chThdSleep
 2578              	.LVL195:
 2579              	.LBE844:
 2580              	.LBE847:
 2581              	.LBB848:
 2582              	.LBB849:
 2583 00c4 4046     		mov	r0, r8
 2584 00c6 FFF7FEFF 		bl	chThdSleep
 2585              	.LVL196:
 2586 00ca 013C     		subs	r4, r4, #1
 2587              	.LVL197:
 2588              	.LBE849:
 2589              	.LBE848:
 2590              		.loc 1 141 0
 2591 00cc A6F81A80 		strh	r8, [r6, #26]	@ movhi
 2592              	.LBB851:
 2593              	.LBB852:
 2594              		.loc 1 28 0
 2595 00d0 4046     		mov	r0, r8
 2596 00d2 FFF7FEFF 		bl	chThdSleep
 2597              	.LVL198:
 2598              	.LBE852:
 2599              	.LBE851:
 2600              		.loc 1 131 0
 2601 00d6 651C     		adds	r5, r4, #1
 2602 00d8 E3D1     		bne	.L109
 2603              	.L111:
 2604              	.LBE862:
 2605              	.LBE865:
 2606              	.LBB866:
 2607              	.LBB867:
 2608              		.loc 1 60 0
 2609 00da 824D     		ldr	r5, .L133
 2610              		.loc 1 62 0
 2611 00dc 824E     		ldr	r6, .L133+4
 2612              		.loc 1 60 0
 2613 00de 4FF4805A 		mov	r10, #4096
 2614              	.LBB868:
 2615              	.LBB869:
 2616              		.loc 1 28 0
 2617 00e2 0120     		movs	r0, #1
 2618              	.LBE869:
 2619              	.LBE868:
 2620              		.loc 1 62 0
 2621 00e4 0446     		mov	r4, r0
 2622              		.loc 1 60 0
ARM GAS  /tmp/ccz3Igsc.s 			page 47


 2623 00e6 A5F818A0 		strh	r10, [r5, #24]	@ movhi
 2624              	.LBB871:
 2625              	.LBB870:
 2626              		.loc 1 28 0
 2627 00ea FFF7FEFF 		bl	chThdSleep
 2628              	.LVL199:
 2629              	.LBE870:
 2630              	.LBE871:
 2631              	.LBB872:
 2632              	.LBB873:
 2633 00ee 2046     		mov	r0, r4
 2634              	.LBE873:
 2635              	.LBE872:
 2636              		.loc 1 62 0
 2637 00f0 3483     		strh	r4, [r6, #24]	@ movhi
 2638              	.LBB875:
 2639              	.LBB874:
 2640              		.loc 1 28 0
 2641 00f2 FFF7FEFF 		bl	chThdSleep
 2642              	.LVL200:
 2643              	.LBE874:
 2644              	.LBE875:
 2645              		.loc 1 64 0
 2646 00f6 7483     		strh	r4, [r6, #26]	@ movhi
 2647              		.loc 1 67 0
 2648 00f8 5146     		mov	r1, r10
 2649 00fa 0522     		movs	r2, #5
 2650 00fc 2846     		mov	r0, r5
 2651              		.loc 1 66 0
 2652 00fe A5F818A0 		strh	r10, [r5, #24]	@ movhi
 2653              		.loc 1 67 0
 2654 0102 FFF7FEFF 		bl	_pal_lld_setgroupmode
 2655              	.LVL201:
 2656              	.LBB876:
 2657              	.LBB877:
 2658              		.loc 1 28 0
 2659 0106 2046     		mov	r0, r4
 2660 0108 FFF7FEFF 		bl	chThdSleep
 2661              	.LVL202:
 2662              	.LBE877:
 2663              	.LBE876:
 2664              		.loc 1 69 0
 2665 010c 5146     		mov	r1, r10
 2666 010e 0522     		movs	r2, #5
 2667 0110 2846     		mov	r0, r5
 2668 0112 FFF7FEFF 		bl	_pal_lld_setgroupmode
 2669              	.LVL203:
 2670              	.LBE867:
 2671              	.LBE866:
 2672              	.LBB878:
 2673              	.LBB879:
 2674              	.LBB880:
 2675              	.LBB881:
 2676              		.loc 1 28 0
 2677 0116 2046     		mov	r0, r4
 2678              	.LBE881:
 2679              	.LBE880:
ARM GAS  /tmp/ccz3Igsc.s 			page 48


 2680              		.loc 1 52 0
 2681 0118 3483     		strh	r4, [r6, #24]	@ movhi
 2682              	.LBB883:
 2683              	.LBB882:
 2684              		.loc 1 28 0
 2685 011a FFF7FEFF 		bl	chThdSleep
 2686              	.LVL204:
 2687              	.LBE882:
 2688              	.LBE883:
 2689              	.LBB884:
 2690              	.LBB885:
 2691 011e 2046     		mov	r0, r4
 2692              	.LBE885:
 2693              	.LBE884:
 2694              		.loc 1 54 0
 2695 0120 A5F818A0 		strh	r10, [r5, #24]	@ movhi
 2696              	.LBB887:
 2697              	.LBB886:
 2698              		.loc 1 28 0
 2699 0124 FFF7FEFF 		bl	chThdSleep
 2700              	.LVL205:
 2701              	.LBE886:
 2702              	.LBE887:
 2703              	.LBE879:
 2704              	.LBE878:
 2705              	.LBB888:
 2706              	.LBB889:
 2707              	.LBB890:
 2708              	.LBB891:
 2709 0128 2046     		mov	r0, r4
 2710              	.LBE891:
 2711              	.LBE890:
 2712              		.loc 1 44 0
 2713 012a A5F81AA0 		strh	r10, [r5, #26]	@ movhi
 2714              	.LBB893:
 2715              	.LBB892:
 2716              		.loc 1 28 0
 2717 012e FFF7FEFF 		bl	chThdSleep
 2718              	.LVL206:
 2719              	.LBE892:
 2720              	.LBE893:
 2721              		.loc 1 46 0
 2722 0132 7483     		strh	r4, [r6, #26]	@ movhi
 2723              	.LBB894:
 2724              	.LBB895:
 2725              		.loc 1 28 0
 2726 0134 2046     		mov	r0, r4
 2727 0136 FFF7FEFF 		bl	chThdSleep
 2728              	.LVL207:
 2729              	.LBE895:
 2730              	.LBE894:
 2731              	.LBE889:
 2732              	.LBE888:
 2733              		.loc 1 173 0
 2734 013a 009B     		ldr	r3, [sp]
 2735 013c 43EA0407 		orr	r7, r3, r4
 2736              	.LBB896:
ARM GAS  /tmp/ccz3Igsc.s 			page 49


 2737              	.LBB897:
 2738              		.loc 1 136 0
 2739 0140 AB46     		mov	fp, r5
 2740              		.loc 1 138 0
 2741 0142 B146     		mov	r9, r6
 2742 0144 FFB2     		uxtb	r7, r7
 2743              	.LBE897:
 2744              	.LBE896:
 2745              		.loc 1 173 0
 2746 0146 0724     		movs	r4, #7
 2747              	.LVL208:
 2748              	.L113:
 2749              	.LBB924:
 2750              	.LBB922:
 2751              		.loc 1 133 0
 2752 0148 47FA04F3 		asr	r3, r7, r4
 2753              		.loc 1 138 0
 2754 014c 0126     		movs	r6, #1
 2755              		.loc 1 133 0
 2756 014e D907     		lsls	r1, r3, #31
 2757              	.LBB898:
 2758              	.LBB899:
 2759              		.loc 1 28 0
 2760 0150 3046     		mov	r0, r6
 2761              	.LBE899:
 2762              	.LBE898:
 2763              		.loc 1 133 0
 2764 0152 40F18380 		bpl	.L114
 2765              		.loc 1 134 0
 2766 0156 ABF818A0 		strh	r10, [fp, #24]	@ movhi
 2767              	.LBB903:
 2768              	.LBB900:
 2769              		.loc 1 28 0
 2770 015a FFF7FEFF 		bl	chThdSleep
 2771              	.LVL209:
 2772              	.LBE900:
 2773              	.LBE903:
 2774              	.LBB904:
 2775              	.LBB905:
 2776 015e 3046     		mov	r0, r6
 2777              	.LBE905:
 2778              	.LBE904:
 2779              		.loc 1 138 0
 2780 0160 A9F81860 		strh	r6, [r9, #24]	@ movhi
 2781              	.LBB909:
 2782              	.LBB906:
 2783              		.loc 1 28 0
 2784 0164 FFF7FEFF 		bl	chThdSleep
 2785              	.LVL210:
 2786              	.LBE906:
 2787              	.LBE909:
 2788              	.LBB910:
 2789              	.LBB911:
 2790 0168 3046     		mov	r0, r6
 2791 016a FFF7FEFF 		bl	chThdSleep
 2792              	.LVL211:
 2793 016e 013C     		subs	r4, r4, #1
ARM GAS  /tmp/ccz3Igsc.s 			page 50


 2794              	.LVL212:
 2795              	.LBE911:
 2796              	.LBE910:
 2797              		.loc 1 141 0
 2798 0170 A9F81A60 		strh	r6, [r9, #26]	@ movhi
 2799              	.LBB913:
 2800              	.LBB914:
 2801              		.loc 1 28 0
 2802 0174 3046     		mov	r0, r6
 2803 0176 FFF7FEFF 		bl	chThdSleep
 2804              	.LVL213:
 2805              	.LBE914:
 2806              	.LBE913:
 2807              		.loc 1 131 0
 2808 017a 621C     		adds	r2, r4, #1
 2809 017c E4D1     		bne	.L113
 2810              	.L115:
 2811              	.LVL214:
 2812              	.LBE922:
 2813              	.LBE924:
 2814              	.LBB925:
 2815              	.LBB926:
 2816              		.loc 1 60 0
 2817 017e 594E     		ldr	r6, .L133
 2818              		.loc 1 62 0
 2819 0180 594C     		ldr	r4, .L133+4
 2820              		.loc 1 60 0
 2821 0182 4FF48057 		mov	r7, #4096
 2822              	.LBB927:
 2823              	.LBB928:
 2824              		.loc 1 28 0
 2825 0186 0120     		movs	r0, #1
 2826              	.LBE928:
 2827              	.LBE927:
 2828              		.loc 1 62 0
 2829 0188 0546     		mov	r5, r0
 2830              		.loc 1 60 0
 2831 018a 3783     		strh	r7, [r6, #24]	@ movhi
 2832              	.LBB930:
 2833              	.LBB929:
 2834              		.loc 1 28 0
 2835 018c FFF7FEFF 		bl	chThdSleep
 2836              	.LVL215:
 2837              	.LBE929:
 2838              	.LBE930:
 2839              	.LBB931:
 2840              	.LBB932:
 2841 0190 2846     		mov	r0, r5
 2842              	.LBE932:
 2843              	.LBE931:
 2844              		.loc 1 62 0
 2845 0192 2583     		strh	r5, [r4, #24]	@ movhi
 2846              	.LBB934:
 2847              	.LBB933:
 2848              		.loc 1 28 0
 2849 0194 FFF7FEFF 		bl	chThdSleep
 2850              	.LVL216:
ARM GAS  /tmp/ccz3Igsc.s 			page 51


 2851              	.LBE933:
 2852              	.LBE934:
 2853              		.loc 1 67 0
 2854 0198 3946     		mov	r1, r7
 2855 019a 0522     		movs	r2, #5
 2856              		.loc 1 64 0
 2857 019c 6583     		strh	r5, [r4, #26]	@ movhi
 2858              		.loc 1 67 0
 2859 019e 3046     		mov	r0, r6
 2860              		.loc 1 66 0
 2861 01a0 3783     		strh	r7, [r6, #24]	@ movhi
 2862              		.loc 1 67 0
 2863 01a2 FFF7FEFF 		bl	_pal_lld_setgroupmode
 2864              	.LVL217:
 2865              	.LBB935:
 2866              	.LBB936:
 2867              		.loc 1 28 0
 2868 01a6 2846     		mov	r0, r5
 2869 01a8 FFF7FEFF 		bl	chThdSleep
 2870              	.LVL218:
 2871              	.LBE936:
 2872              	.LBE935:
 2873              		.loc 1 69 0
 2874 01ac 3946     		mov	r1, r7
 2875 01ae 3046     		mov	r0, r6
 2876 01b0 0522     		movs	r2, #5
 2877 01b2 FFF7FEFF 		bl	_pal_lld_setgroupmode
 2878              	.LVL219:
 2879              	.LBE926:
 2880              	.LBE925:
 2881              	.LBB937:
 2882              	.LBB938:
 2883              		.loc 1 108 0
 2884 01b6 3783     		strh	r7, [r6, #24]	@ movhi
 2885              		.loc 1 110 0
 2886 01b8 3946     		mov	r1, r7
 2887 01ba 3046     		mov	r0, r6
 2888 01bc 0022     		movs	r2, #0
 2889 01be FFF7FEFF 		bl	_pal_lld_setgroupmode
 2890              	.LVL220:
 2891              		.loc 1 115 0
 2892 01c2 2F46     		mov	r7, r5	@ movhi
 2893              		.loc 1 110 0
 2894 01c4 4FF0070A 		mov	r10, #7
 2895              		.loc 1 111 0
 2896 01c8 4FF00009 		mov	r9, #0
 2897              	.LVL221:
 2898              	.L117:
 2899              	.LBB939:
 2900              	.LBB940:
 2901              		.loc 1 28 0
 2902 01cc 0120     		movs	r0, #1
 2903              	.LBE940:
 2904              	.LBE939:
 2905              		.loc 1 115 0
 2906 01ce 6783     		strh	r7, [r4, #26]	@ movhi
 2907              		.loc 1 119 0
ARM GAS  /tmp/ccz3Igsc.s 			page 52


 2908 01d0 444E     		ldr	r6, .L133
 2909              	.LBB942:
 2910              	.LBB941:
 2911              		.loc 1 28 0
 2912 01d2 FFF7FEFF 		bl	chThdSleep
 2913              	.LVL222:
 2914              	.LBE941:
 2915              	.LBE942:
 2916              	.LBB943:
 2917              	.LBB944:
 2918 01d6 0120     		movs	r0, #1
 2919              	.LBE944:
 2920              	.LBE943:
 2921              		.loc 1 117 0
 2922 01d8 2583     		strh	r5, [r4, #24]	@ movhi
 2923              	.LBB946:
 2924              	.LBB945:
 2925              		.loc 1 28 0
 2926 01da FFF7FEFF 		bl	chThdSleep
 2927              	.LVL223:
 2928              	.LBE945:
 2929              	.LBE946:
 2930              		.loc 1 119 0
 2931 01de 3369     		ldr	r3, [r6, #16]
 2932 01e0 C3F30033 		ubfx	r3, r3, #12, #1
 2933 01e4 03FA0AF3 		lsl	r3, r3, r10
 2934 01e8 43EA0903 		orr	r3, r3, r9
 2935              	.LBB947:
 2936              	.LBB948:
 2937              		.loc 1 28 0
 2938 01ec 0120     		movs	r0, #1
 2939              	.LBE948:
 2940              	.LBE947:
 2941              		.loc 1 119 0
 2942 01ee 5FFA83F9 		uxtb	r9, r3
 2943              	.LVL224:
 2944 01f2 0AF1FF3A 		add	r10, r10, #-1
 2945              	.LVL225:
 2946              	.LBB950:
 2947              	.LBB949:
 2948              		.loc 1 28 0
 2949 01f6 FFF7FEFF 		bl	chThdSleep
 2950              	.LVL226:
 2951              	.LBE949:
 2952              	.LBE950:
 2953              		.loc 1 121 0
 2954 01fa 6583     		strh	r5, [r4, #26]	@ movhi
 2955              	.LBB951:
 2956              	.LBB952:
 2957              		.loc 1 28 0
 2958 01fc 0120     		movs	r0, #1
 2959 01fe FFF7FEFF 		bl	chThdSleep
 2960              	.LVL227:
 2961              	.LBE952:
 2962              	.LBE951:
 2963              		.loc 1 113 0
 2964 0202 BAF1FF3F 		cmp	r10, #-1
ARM GAS  /tmp/ccz3Igsc.s 			page 53


 2965 0206 E1D1     		bne	.L117
 2966              		.loc 1 124 0
 2967 0208 4FF48051 		mov	r1, #4096
 2968              	.LBE938:
 2969              	.LBE937:
 2970              	.LBB954:
 2971              	.LBB955:
 2972              		.loc 1 74 0
 2973 020c 0F46     		mov	r7, r1
 2974              	.LBE955:
 2975              	.LBE954:
 2976              	.LBB975:
 2977              	.LBB953:
 2978              		.loc 1 124 0
 2979 020e 0522     		movs	r2, #5
 2980 0210 3046     		mov	r0, r6
 2981 0212 FFF7FEFF 		bl	_pal_lld_setgroupmode
 2982              	.LVL228:
 2983              	.LBE953:
 2984              	.LBE975:
 2985              	.LBB976:
 2986              	.LBB974:
 2987              	.LBB956:
 2988              	.LBB957:
 2989              		.loc 1 28 0
 2990 0216 0120     		movs	r0, #1
 2991              	.LBE957:
 2992              	.LBE956:
 2993              		.loc 1 74 0
 2994 0218 3783     		strh	r7, [r6, #24]	@ movhi
 2995              	.LBB959:
 2996              	.LBB958:
 2997              		.loc 1 28 0
 2998 021a FFF7FEFF 		bl	chThdSleep
 2999              	.LVL229:
 3000              	.LBE958:
 3001              	.LBE959:
 3002              	.LBB960:
 3003              	.LBB961:
 3004 021e 0120     		movs	r0, #1
 3005              	.LBE961:
 3006              	.LBE960:
 3007              		.loc 1 76 0
 3008 0220 2583     		strh	r5, [r4, #24]	@ movhi
 3009              	.LBB963:
 3010              	.LBB962:
 3011              		.loc 1 28 0
 3012 0222 FFF7FEFF 		bl	chThdSleep
 3013              	.LVL230:
 3014              	.LBE962:
 3015              	.LBE963:
 3016              	.LBB964:
 3017              	.LBB965:
 3018 0226 0120     		movs	r0, #1
 3019 0228 FFF7FEFF 		bl	chThdSleep
 3020              	.LVL231:
 3021              	.LBE965:
ARM GAS  /tmp/ccz3Igsc.s 			page 54


 3022              	.LBE964:
 3023              	.LBB966:
 3024              	.LBB967:
 3025 022c 0120     		movs	r0, #1
 3026              	.LBE967:
 3027              	.LBE966:
 3028              		.loc 1 79 0
 3029 022e 6583     		strh	r5, [r4, #26]	@ movhi
 3030              	.LBB969:
 3031              	.LBB968:
 3032              		.loc 1 28 0
 3033 0230 FFF7FEFF 		bl	chThdSleep
 3034              	.LVL232:
 3035              	.LBE968:
 3036              	.LBE969:
 3037              	.LBB970:
 3038              	.LBB971:
 3039 0234 0120     		movs	r0, #1
 3040              	.LBE971:
 3041              	.LBE970:
 3042              		.loc 1 81 0
 3043 0236 7783     		strh	r7, [r6, #26]	@ movhi
 3044              	.LBB973:
 3045              	.LBB972:
 3046              		.loc 1 28 0
 3047 0238 FFF7FEFF 		bl	chThdSleep
 3048              	.LVL233:
 3049              	.LBE972:
 3050              	.LBE973:
 3051              	.LBE974:
 3052              	.LBE976:
 3053              	.LBB977:
 3054              	.LBB978:
 3055              	.LBB979:
 3056              	.LBB980:
 3057 023c 0120     		movs	r0, #1
 3058              	.LBE980:
 3059              	.LBE979:
 3060              		.loc 1 52 0
 3061 023e 2583     		strh	r5, [r4, #24]	@ movhi
 3062              	.LBB982:
 3063              	.LBB981:
 3064              		.loc 1 28 0
 3065 0240 FFF7FEFF 		bl	chThdSleep
 3066              	.LVL234:
 3067              	.LBE981:
 3068              	.LBE982:
 3069              		.loc 1 54 0
 3070 0244 3783     		strh	r7, [r6, #24]	@ movhi
 3071              	.LBB983:
 3072              	.LBB984:
 3073              		.loc 1 28 0
 3074 0246 0120     		movs	r0, #1
 3075 0248 FFF7FEFF 		bl	chThdSleep
 3076              	.LVL235:
 3077              	.LBE984:
 3078              	.LBE983:
ARM GAS  /tmp/ccz3Igsc.s 			page 55


 3079              	.LBE978:
 3080              	.LBE977:
 3081              		.loc 1 179 0
 3082 024c 019B     		ldr	r3, [sp, #4]
 3083 024e 0BB1     		cbz	r3, .L118
 3084              		.loc 1 180 0
 3085 0250 83F80090 		strb	r9, [r3]
 3086              	.L118:
 3087              		.loc 1 182 0
 3088 0254 0120     		movs	r0, #1
 3089 0256 03B0     		add	sp, sp, #12
 3090              		.cfi_remember_state
 3091              		.cfi_def_cfa_offset 36
 3092              		@ sp needed
 3093 0258 BDE8F08F 		pop	{r4, r5, r6, r7, r8, r9, r10, fp, pc}
 3094              	.LVL236:
 3095              	.L114:
 3096              		.cfi_restore_state
 3097              	.LBB985:
 3098              	.LBB923:
 3099              	.LBB916:
 3100              	.LBB901:
 3101              		.loc 1 28 0
 3102 025c 0120     		movs	r0, #1
 3103              	.LBE901:
 3104              	.LBE916:
 3105              		.loc 1 136 0
 3106 025e ABF81AA0 		strh	r10, [fp, #26]	@ movhi
 3107              	.LBB917:
 3108              	.LBB902:
 3109              		.loc 1 28 0
 3110 0262 FFF7FEFF 		bl	chThdSleep
 3111              	.LVL237:
 3112              	.LBE902:
 3113              	.LBE917:
 3114              	.LBB918:
 3115              	.LBB907:
 3116 0266 3046     		mov	r0, r6
 3117              	.LBE907:
 3118              	.LBE918:
 3119              		.loc 1 138 0
 3120 0268 A9F81860 		strh	r6, [r9, #24]	@ movhi
 3121              	.LBB919:
 3122              	.LBB908:
 3123              		.loc 1 28 0
 3124 026c FFF7FEFF 		bl	chThdSleep
 3125              	.LVL238:
 3126              	.LBE908:
 3127              	.LBE919:
 3128              	.LBB920:
 3129              	.LBB912:
 3130 0270 3046     		mov	r0, r6
 3131 0272 FFF7FEFF 		bl	chThdSleep
 3132              	.LVL239:
 3133 0276 013C     		subs	r4, r4, #1
 3134              	.LVL240:
 3135              	.LBE912:
ARM GAS  /tmp/ccz3Igsc.s 			page 56


 3136              	.LBE920:
 3137              		.loc 1 141 0
 3138 0278 A9F81A60 		strh	r6, [r9, #26]	@ movhi
 3139              	.LBB921:
 3140              	.LBB915:
 3141              		.loc 1 28 0
 3142 027c 3046     		mov	r0, r6
 3143 027e FFF7FEFF 		bl	chThdSleep
 3144              	.LVL241:
 3145              	.LBE915:
 3146              	.LBE921:
 3147              		.loc 1 131 0
 3148 0282 631C     		adds	r3, r4, #1
 3149 0284 7FF460AF 		bne	.L113
 3150 0288 79E7     		b	.L115
 3151              	.LVL242:
 3152              	.L110:
 3153              	.LBE923:
 3154              	.LBE985:
 3155              	.LBB986:
 3156              	.LBB863:
 3157              	.LBB855:
 3158              	.LBB839:
 3159              		.loc 1 28 0
 3160 028a 0120     		movs	r0, #1
 3161              	.LBE839:
 3162              	.LBE855:
 3163              		.loc 1 136 0
 3164 028c A9F81AB0 		strh	fp, [r9, #26]	@ movhi
 3165              	.LBB856:
 3166              	.LBB840:
 3167              		.loc 1 28 0
 3168 0290 FFF7FEFF 		bl	chThdSleep
 3169              	.LVL243:
 3170              	.LBE840:
 3171              	.LBE856:
 3172              	.LBB857:
 3173              	.LBB845:
 3174 0294 4046     		mov	r0, r8
 3175              	.LBE845:
 3176              	.LBE857:
 3177              		.loc 1 138 0
 3178 0296 A6F81880 		strh	r8, [r6, #24]	@ movhi
 3179              	.LBB858:
 3180              	.LBB846:
 3181              		.loc 1 28 0
 3182 029a FFF7FEFF 		bl	chThdSleep
 3183              	.LVL244:
 3184              	.LBE846:
 3185              	.LBE858:
 3186              	.LBB859:
 3187              	.LBB850:
 3188 029e 4046     		mov	r0, r8
 3189 02a0 FFF7FEFF 		bl	chThdSleep
 3190              	.LVL245:
 3191 02a4 013C     		subs	r4, r4, #1
 3192              	.LVL246:
ARM GAS  /tmp/ccz3Igsc.s 			page 57


 3193              	.LBE850:
 3194              	.LBE859:
 3195              	.LBB860:
 3196              	.LBB853:
 3197 02a6 4046     		mov	r0, r8
 3198              	.LBE853:
 3199              	.LBE860:
 3200              		.loc 1 141 0
 3201 02a8 A6F81A80 		strh	r8, [r6, #26]	@ movhi
 3202              	.LBB861:
 3203              	.LBB854:
 3204              		.loc 1 28 0
 3205 02ac FFF7FEFF 		bl	chThdSleep
 3206              	.LVL247:
 3207              	.LBE854:
 3208              	.LBE861:
 3209              		.loc 1 131 0
 3210 02b0 601C     		adds	r0, r4, #1
 3211 02b2 7FF4F6AE 		bne	.L109
 3212 02b6 10E7     		b	.L111
 3213              	.LVL248:
 3214              	.L106:
 3215              	.LBE863:
 3216              	.LBE986:
 3217              	.LBB987:
 3218              	.LBB819:
 3219              	.LBB812:
 3220              	.LBB797:
 3221              		.loc 1 28 0
 3222 02b8 0120     		movs	r0, #1
 3223              	.LBE797:
 3224              	.LBE812:
 3225              		.loc 1 136 0
 3226 02ba A9F81A60 		strh	r6, [r9, #26]	@ movhi
 3227              	.LBB813:
 3228              	.LBB798:
 3229              		.loc 1 28 0
 3230 02be FFF7FEFF 		bl	chThdSleep
 3231              	.LVL249:
 3232              	.LBE798:
 3233              	.LBE813:
 3234              	.LBB814:
 3235              	.LBB803:
 3236 02c2 3846     		mov	r0, r7
 3237              	.LBE803:
 3238              	.LBE814:
 3239              		.loc 1 138 0
 3240 02c4 2F83     		strh	r7, [r5, #24]	@ movhi
 3241              	.LBB815:
 3242              	.LBB804:
 3243              		.loc 1 28 0
 3244 02c6 FFF7FEFF 		bl	chThdSleep
 3245              	.LVL250:
 3246              	.LBE804:
 3247              	.LBE815:
 3248              	.LBB816:
 3249              	.LBB808:
ARM GAS  /tmp/ccz3Igsc.s 			page 58


 3250 02ca 3846     		mov	r0, r7
 3251 02cc FFF7FEFF 		bl	chThdSleep
 3252              	.LVL251:
 3253 02d0 013C     		subs	r4, r4, #1
 3254              	.LVL252:
 3255              	.LBE808:
 3256              	.LBE816:
 3257              		.loc 1 141 0
 3258 02d2 6F83     		strh	r7, [r5, #26]	@ movhi
 3259              	.LBB817:
 3260              	.LBB811:
 3261              		.loc 1 28 0
 3262 02d4 3846     		mov	r0, r7
 3263 02d6 FFF7FEFF 		bl	chThdSleep
 3264              	.LVL253:
 3265              	.LBE811:
 3266              	.LBE817:
 3267              		.loc 1 131 0
 3268 02da 631C     		adds	r3, r4, #1
 3269 02dc 7FF4A8AE 		bne	.L105
 3270 02e0 BFE6     		b	.L107
 3271              	.L134:
 3272 02e2 00BF     		.align	2
 3273              	.L133:
 3274 02e4 001C0240 		.word	1073880064
 3275 02e8 00200240 		.word	1073881088
 3276              	.LBE819:
 3277              	.LBE987:
 3278              		.cfi_endproc
 3279              	.LFE790:
 3280              		.size	_Z17swi2c_readByte_A8hhPh, .-_Z17swi2c_readByte_A8hhPh
 3281              		.section	.text._Z18swi2c_writeByte_A8hhPh,"ax",%progbits
 3282              		.align	1
 3283              		.p2align 2,,3
 3284              		.global	_Z18swi2c_writeByte_A8hhPh
 3285              		.syntax unified
 3286              		.thumb
 3287              		.thumb_func
 3288              		.fpu fpv4-sp-d16
 3289              		.type	_Z18swi2c_writeByte_A8hhPh, %function
 3290              	_Z18swi2c_writeByte_A8hhPh:
 3291              	.LFB791:
 3292              		.loc 1 185 0
 3293              		.cfi_startproc
 3294              		@ args = 0, pretend = 0, frame = 8
 3295              		@ frame_needed = 0, uses_anonymous_args = 0
 3296              	.LVL254:
 3297 0000 2DE9F04F 		push	{r4, r5, r6, r7, r8, r9, r10, fp, lr}
 3298              		.cfi_def_cfa_offset 36
 3299              		.cfi_offset 4, -36
 3300              		.cfi_offset 5, -32
 3301              		.cfi_offset 6, -28
 3302              		.cfi_offset 7, -24
 3303              		.cfi_offset 8, -20
 3304              		.cfi_offset 9, -16
 3305              		.cfi_offset 10, -12
 3306              		.cfi_offset 11, -8
ARM GAS  /tmp/ccz3Igsc.s 			page 59


 3307              		.cfi_offset 14, -4
 3308              	.LBB1054:
 3309              	.LBB1055:
 3310              		.loc 1 44 0
 3311 0004 894C     		ldr	r4, .L158
 3312              		.loc 1 46 0
 3313 0006 8A4E     		ldr	r6, .L158+4
 3314              	.LBE1055:
 3315              	.LBE1054:
 3316              		.loc 1 185 0
 3317 0008 83B0     		sub	sp, sp, #12
 3318              		.cfi_def_cfa_offset 48
 3319              	.LBB1065:
 3320              	.LBB1062:
 3321              		.loc 1 44 0
 3322 000a 4FF4805A 		mov	r10, #4096
 3323 000e A4F81AA0 		strh	r10, [r4, #26]	@ movhi
 3324              	.LBE1062:
 3325              	.LBE1065:
 3326              		.loc 1 185 0
 3327 0012 8146     		mov	r9, r0
 3328              	.LBB1066:
 3329              	.LBB1063:
 3330              	.LBB1056:
 3331              	.LBB1057:
 3332              		.loc 1 28 0
 3333 0014 0120     		movs	r0, #1
 3334              	.LVL255:
 3335              	.LBE1057:
 3336              	.LBE1056:
 3337              	.LBE1063:
 3338              	.LBE1066:
 3339              		.loc 1 185 0
 3340 0016 0F46     		mov	r7, r1
 3341 0018 0192     		str	r2, [sp, #4]
 3342              	.LBB1067:
 3343              	.LBB1064:
 3344              	.LBB1059:
 3345              	.LBB1058:
 3346              		.loc 1 28 0
 3347 001a FFF7FEFF 		bl	chThdSleep
 3348              	.LVL256:
 3349              	.LBE1058:
 3350              	.LBE1059:
 3351              		.loc 1 46 0
 3352 001e 0120     		movs	r0, #1
 3353 0020 7083     		strh	r0, [r6, #26]	@ movhi
 3354              	.LBB1060:
 3355              	.LBB1061:
 3356              		.loc 1 28 0
 3357 0022 FFF7FEFF 		bl	chThdSleep
 3358              	.LVL257:
 3359              	.LBE1061:
 3360              	.LBE1060:
 3361              	.LBE1064:
 3362              	.LBE1067:
 3363              		.loc 1 187 0
ARM GAS  /tmp/ccz3Igsc.s 			page 60


 3364 0026 4FEA4909 		lsl	r9, r9, #1
 3365              	.LVL258:
 3366              	.LBB1068:
 3367              	.LBB1069:
 3368              		.loc 1 136 0
 3369 002a A346     		mov	fp, r4
 3370 002c 5FFA89F9 		uxtb	r9, r9
 3371              	.LBE1069:
 3372              	.LBE1068:
 3373              		.loc 1 187 0
 3374 0030 0724     		movs	r4, #7
 3375              	.LVL259:
 3376              	.L136:
 3377              	.LBB1096:
 3378              	.LBB1094:
 3379              		.loc 1 133 0
 3380 0032 49FA04F2 		asr	r2, r9, r4
 3381              		.loc 1 138 0
 3382 0036 4FF00108 		mov	r8, #1
 3383              		.loc 1 133 0
 3384 003a D307     		lsls	r3, r2, #31
 3385              	.LBB1070:
 3386              	.LBB1071:
 3387              		.loc 1 28 0
 3388 003c 4046     		mov	r0, r8
 3389              	.LBE1071:
 3390              	.LBE1070:
 3391              		.loc 1 133 0
 3392 003e 40F1DE80 		bpl	.L137
 3393              		.loc 1 134 0
 3394 0042 ABF818A0 		strh	r10, [fp, #24]	@ movhi
 3395              	.LBB1075:
 3396              	.LBB1072:
 3397              		.loc 1 28 0
 3398 0046 FFF7FEFF 		bl	chThdSleep
 3399              	.LVL260:
 3400              	.LBE1072:
 3401              	.LBE1075:
 3402              	.LBB1076:
 3403              	.LBB1077:
 3404 004a 4046     		mov	r0, r8
 3405              	.LBE1077:
 3406              	.LBE1076:
 3407              		.loc 1 138 0
 3408 004c A6F81880 		strh	r8, [r6, #24]	@ movhi
 3409              	.LBB1081:
 3410              	.LBB1078:
 3411              		.loc 1 28 0
 3412 0050 FFF7FEFF 		bl	chThdSleep
 3413              	.LVL261:
 3414              	.LBE1078:
 3415              	.LBE1081:
 3416              	.LBB1082:
 3417              	.LBB1083:
 3418 0054 4046     		mov	r0, r8
 3419 0056 FFF7FEFF 		bl	chThdSleep
 3420              	.LVL262:
ARM GAS  /tmp/ccz3Igsc.s 			page 61


 3421 005a 013C     		subs	r4, r4, #1
 3422              	.LVL263:
 3423              	.LBE1083:
 3424              	.LBE1082:
 3425              		.loc 1 141 0
 3426 005c A6F81A80 		strh	r8, [r6, #26]	@ movhi
 3427              	.LBB1085:
 3428              	.LBB1086:
 3429              		.loc 1 28 0
 3430 0060 4046     		mov	r0, r8
 3431 0062 FFF7FEFF 		bl	chThdSleep
 3432              	.LVL264:
 3433              	.LBE1086:
 3434              	.LBE1085:
 3435              		.loc 1 131 0
 3436 0066 611C     		adds	r1, r4, #1
 3437 0068 E3D1     		bne	.L136
 3438              	.L138:
 3439              	.LBE1094:
 3440              	.LBE1096:
 3441              	.LBB1097:
 3442              	.LBB1098:
 3443              		.loc 1 60 0
 3444 006a 704C     		ldr	r4, .L158
 3445              		.loc 1 62 0
 3446 006c 704E     		ldr	r6, .L158+4
 3447              		.loc 1 60 0
 3448 006e 4FF4805B 		mov	fp, #4096
 3449              	.LBB1099:
 3450              	.LBB1100:
 3451              		.loc 1 28 0
 3452 0072 0120     		movs	r0, #1
 3453              	.LBE1100:
 3454              	.LBE1099:
 3455              		.loc 1 62 0
 3456 0074 0546     		mov	r5, r0
 3457              		.loc 1 60 0
 3458 0076 A4F818B0 		strh	fp, [r4, #24]	@ movhi
 3459              	.LBB1102:
 3460              	.LBB1101:
 3461              		.loc 1 28 0
 3462 007a FFF7FEFF 		bl	chThdSleep
 3463              	.LVL265:
 3464              	.LBE1101:
 3465              	.LBE1102:
 3466              	.LBB1103:
 3467              	.LBB1104:
 3468 007e 2846     		mov	r0, r5
 3469              	.LBE1104:
 3470              	.LBE1103:
 3471              		.loc 1 62 0
 3472 0080 3583     		strh	r5, [r6, #24]	@ movhi
 3473              	.LBB1106:
 3474              	.LBB1105:
 3475              		.loc 1 28 0
 3476 0082 FFF7FEFF 		bl	chThdSleep
 3477              	.LVL266:
ARM GAS  /tmp/ccz3Igsc.s 			page 62


 3478              	.LBE1105:
 3479              	.LBE1106:
 3480              		.loc 1 67 0
 3481 0086 5946     		mov	r1, fp
 3482 0088 2046     		mov	r0, r4
 3483 008a 0522     		movs	r2, #5
 3484              		.loc 1 64 0
 3485 008c 7583     		strh	r5, [r6, #26]	@ movhi
 3486              		.loc 1 66 0
 3487 008e A4F818B0 		strh	fp, [r4, #24]	@ movhi
 3488              		.loc 1 67 0
 3489 0092 FFF7FEFF 		bl	_pal_lld_setgroupmode
 3490              	.LVL267:
 3491              	.LBB1107:
 3492              	.LBB1108:
 3493              		.loc 1 28 0
 3494 0096 2846     		mov	r0, r5
 3495 0098 FFF7FEFF 		bl	chThdSleep
 3496              	.LVL268:
 3497              	.LBE1108:
 3498              	.LBE1107:
 3499              		.loc 1 69 0
 3500 009c 2046     		mov	r0, r4
 3501 009e 5946     		mov	r1, fp
 3502 00a0 0522     		movs	r2, #5
 3503 00a2 FFF7FEFF 		bl	_pal_lld_setgroupmode
 3504              	.LVL269:
 3505              	.LBE1098:
 3506              	.LBE1097:
 3507              	.LBB1110:
 3508              	.LBB1111:
 3509              		.loc 1 136 0
 3510 00a6 A246     		mov	r10, r4
 3511              		.loc 1 138 0
 3512 00a8 B146     		mov	r9, r6
 3513              	.LBE1111:
 3514              	.LBE1110:
 3515              	.LBB1140:
 3516              	.LBB1109:
 3517              		.loc 1 69 0
 3518 00aa 0724     		movs	r4, #7
 3519              	.LVL270:
 3520              	.L140:
 3521              	.LBE1109:
 3522              	.LBE1140:
 3523              	.LBB1141:
 3524              	.LBB1138:
 3525              		.loc 1 133 0
 3526 00ac 47FA04F3 		asr	r3, r7, r4
 3527              		.loc 1 138 0
 3528 00b0 0126     		movs	r6, #1
 3529              		.loc 1 133 0
 3530 00b2 DB07     		lsls	r3, r3, #31
 3531              	.LBB1112:
 3532              	.LBB1113:
 3533              		.loc 1 28 0
 3534 00b4 3046     		mov	r0, r6
ARM GAS  /tmp/ccz3Igsc.s 			page 63


 3535              	.LBE1113:
 3536              	.LBE1112:
 3537              		.loc 1 133 0
 3538 00b6 40F18B80 		bpl	.L141
 3539              		.loc 1 134 0
 3540 00ba AAF818B0 		strh	fp, [r10, #24]	@ movhi
 3541              	.LBB1117:
 3542              	.LBB1114:
 3543              		.loc 1 28 0
 3544 00be FFF7FEFF 		bl	chThdSleep
 3545              	.LVL271:
 3546              	.LBE1114:
 3547              	.LBE1117:
 3548              	.LBB1118:
 3549              	.LBB1119:
 3550 00c2 3046     		mov	r0, r6
 3551              	.LBE1119:
 3552              	.LBE1118:
 3553              		.loc 1 138 0
 3554 00c4 A9F81860 		strh	r6, [r9, #24]	@ movhi
 3555              	.LBB1123:
 3556              	.LBB1120:
 3557              		.loc 1 28 0
 3558 00c8 FFF7FEFF 		bl	chThdSleep
 3559              	.LVL272:
 3560              	.LBE1120:
 3561              	.LBE1123:
 3562              	.LBB1124:
 3563              	.LBB1125:
 3564 00cc 3046     		mov	r0, r6
 3565 00ce FFF7FEFF 		bl	chThdSleep
 3566              	.LVL273:
 3567 00d2 013C     		subs	r4, r4, #1
 3568              	.LVL274:
 3569              	.LBE1125:
 3570              	.LBE1124:
 3571              		.loc 1 141 0
 3572 00d4 A9F81A60 		strh	r6, [r9, #26]	@ movhi
 3573              	.LBB1127:
 3574              	.LBB1128:
 3575              		.loc 1 28 0
 3576 00d8 3046     		mov	r0, r6
 3577 00da FFF7FEFF 		bl	chThdSleep
 3578              	.LVL275:
 3579              	.LBE1128:
 3580              	.LBE1127:
 3581              		.loc 1 131 0
 3582 00de 651C     		adds	r5, r4, #1
 3583 00e0 E4D1     		bne	.L140
 3584              	.L142:
 3585              	.LBE1138:
 3586              	.LBE1141:
 3587              	.LBB1142:
 3588              	.LBB1143:
 3589              		.loc 1 60 0
 3590 00e2 524C     		ldr	r4, .L158
 3591              		.loc 1 62 0
ARM GAS  /tmp/ccz3Igsc.s 			page 64


 3592 00e4 524F     		ldr	r7, .L158+4
 3593              		.loc 1 60 0
 3594 00e6 4FF48059 		mov	r9, #4096
 3595              	.LBB1144:
 3596              	.LBB1145:
 3597              		.loc 1 28 0
 3598 00ea 0120     		movs	r0, #1
 3599              	.LBE1145:
 3600              	.LBE1144:
 3601              		.loc 1 62 0
 3602 00ec 0546     		mov	r5, r0
 3603              		.loc 1 60 0
 3604 00ee A4F81890 		strh	r9, [r4, #24]	@ movhi
 3605              	.LBB1147:
 3606              	.LBB1146:
 3607              		.loc 1 28 0
 3608 00f2 FFF7FEFF 		bl	chThdSleep
 3609              	.LVL276:
 3610              	.LBE1146:
 3611              	.LBE1147:
 3612              	.LBB1148:
 3613              	.LBB1149:
 3614 00f6 2846     		mov	r0, r5
 3615              	.LBE1149:
 3616              	.LBE1148:
 3617              		.loc 1 62 0
 3618 00f8 3D83     		strh	r5, [r7, #24]	@ movhi
 3619              	.LBB1151:
 3620              	.LBB1150:
 3621              		.loc 1 28 0
 3622 00fa FFF7FEFF 		bl	chThdSleep
 3623              	.LVL277:
 3624              	.LBE1150:
 3625              	.LBE1151:
 3626              		.loc 1 67 0
 3627 00fe 4946     		mov	r1, r9
 3628 0100 2046     		mov	r0, r4
 3629 0102 0522     		movs	r2, #5
 3630              		.loc 1 64 0
 3631 0104 7D83     		strh	r5, [r7, #26]	@ movhi
 3632              		.loc 1 66 0
 3633 0106 A4F81890 		strh	r9, [r4, #24]	@ movhi
 3634              		.loc 1 67 0
 3635 010a FFF7FEFF 		bl	_pal_lld_setgroupmode
 3636              	.LVL278:
 3637              	.LBB1152:
 3638              	.LBB1153:
 3639              		.loc 1 28 0
 3640 010e 2846     		mov	r0, r5
 3641 0110 FFF7FEFF 		bl	chThdSleep
 3642              	.LVL279:
 3643              	.LBE1153:
 3644              	.LBE1152:
 3645              		.loc 1 69 0
 3646 0114 2046     		mov	r0, r4
 3647 0116 4946     		mov	r1, r9
 3648 0118 0522     		movs	r2, #5
ARM GAS  /tmp/ccz3Igsc.s 			page 65


 3649 011a FFF7FEFF 		bl	_pal_lld_setgroupmode
 3650              	.LVL280:
 3651 011e 019B     		ldr	r3, [sp, #4]
 3652 0120 93F800A0 		ldrb	r10, [r3]	@ zero_extendqisi2
 3653              	.LBE1143:
 3654              	.LBE1142:
 3655              	.LBB1154:
 3656              	.LBB1155:
 3657              		.loc 1 136 0
 3658 0124 A046     		mov	r8, r4
 3659              	.LBE1155:
 3660              	.LBE1154:
 3661              		.loc 1 193 0
 3662 0126 0724     		movs	r4, #7
 3663              	.LVL281:
 3664              	.L144:
 3665              	.LBB1182:
 3666              	.LBB1180:
 3667              		.loc 1 133 0
 3668 0128 4AFA04F3 		asr	r3, r10, r4
 3669              		.loc 1 138 0
 3670 012c 0126     		movs	r6, #1
 3671              		.loc 1 133 0
 3672 012e D907     		lsls	r1, r3, #31
 3673              	.LBB1156:
 3674              	.LBB1157:
 3675              		.loc 1 28 0
 3676 0130 3046     		mov	r0, r6
 3677              	.LBE1157:
 3678              	.LBE1156:
 3679              		.loc 1 133 0
 3680 0132 39D5     		bpl	.L145
 3681              		.loc 1 134 0
 3682 0134 A8F81890 		strh	r9, [r8, #24]	@ movhi
 3683              	.LBB1161:
 3684              	.LBB1158:
 3685              		.loc 1 28 0
 3686 0138 FFF7FEFF 		bl	chThdSleep
 3687              	.LVL282:
 3688              	.LBE1158:
 3689              	.LBE1161:
 3690              	.LBB1162:
 3691              	.LBB1163:
 3692 013c 3046     		mov	r0, r6
 3693              	.LBE1163:
 3694              	.LBE1162:
 3695              		.loc 1 138 0
 3696 013e 3E83     		strh	r6, [r7, #24]	@ movhi
 3697              	.LBB1167:
 3698              	.LBB1164:
 3699              		.loc 1 28 0
 3700 0140 FFF7FEFF 		bl	chThdSleep
 3701              	.LVL283:
 3702              	.LBE1164:
 3703              	.LBE1167:
 3704              	.LBB1168:
 3705              	.LBB1169:
ARM GAS  /tmp/ccz3Igsc.s 			page 66


 3706 0144 3046     		mov	r0, r6
 3707 0146 FFF7FEFF 		bl	chThdSleep
 3708              	.LVL284:
 3709 014a 013C     		subs	r4, r4, #1
 3710              	.LVL285:
 3711              	.LBE1169:
 3712              	.LBE1168:
 3713              		.loc 1 141 0
 3714 014c 7E83     		strh	r6, [r7, #26]	@ movhi
 3715              	.LBB1171:
 3716              	.LBB1172:
 3717              		.loc 1 28 0
 3718 014e 3046     		mov	r0, r6
 3719 0150 FFF7FEFF 		bl	chThdSleep
 3720              	.LVL286:
 3721              	.LBE1172:
 3722              	.LBE1171:
 3723              		.loc 1 131 0
 3724 0154 621C     		adds	r2, r4, #1
 3725 0156 E7D1     		bne	.L144
 3726              	.L146:
 3727              	.LVL287:
 3728              	.LBE1180:
 3729              	.LBE1182:
 3730              	.LBB1183:
 3731              	.LBB1184:
 3732              		.loc 1 60 0
 3733 0158 344D     		ldr	r5, .L158
 3734              		.loc 1 62 0
 3735 015a 354F     		ldr	r7, .L158+4
 3736              		.loc 1 60 0
 3737 015c 4FF48056 		mov	r6, #4096
 3738              	.LBB1185:
 3739              	.LBB1186:
 3740              		.loc 1 28 0
 3741 0160 0120     		movs	r0, #1
 3742              	.LBE1186:
 3743              	.LBE1185:
 3744              		.loc 1 62 0
 3745 0162 0446     		mov	r4, r0
 3746              		.loc 1 60 0
 3747 0164 2E83     		strh	r6, [r5, #24]	@ movhi
 3748              	.LBB1188:
 3749              	.LBB1187:
 3750              		.loc 1 28 0
 3751 0166 FFF7FEFF 		bl	chThdSleep
 3752              	.LVL288:
 3753              	.LBE1187:
 3754              	.LBE1188:
 3755              	.LBB1189:
 3756              	.LBB1190:
 3757 016a 2046     		mov	r0, r4
 3758              	.LBE1190:
 3759              	.LBE1189:
 3760              		.loc 1 62 0
 3761 016c 3C83     		strh	r4, [r7, #24]	@ movhi
 3762              	.LBB1192:
ARM GAS  /tmp/ccz3Igsc.s 			page 67


 3763              	.LBB1191:
 3764              		.loc 1 28 0
 3765 016e FFF7FEFF 		bl	chThdSleep
 3766              	.LVL289:
 3767              	.LBE1191:
 3768              	.LBE1192:
 3769              		.loc 1 67 0
 3770 0172 3146     		mov	r1, r6
 3771              		.loc 1 64 0
 3772 0174 7C83     		strh	r4, [r7, #26]	@ movhi
 3773              		.loc 1 67 0
 3774 0176 2846     		mov	r0, r5
 3775 0178 0522     		movs	r2, #5
 3776              		.loc 1 66 0
 3777 017a 2E83     		strh	r6, [r5, #24]	@ movhi
 3778              		.loc 1 67 0
 3779 017c FFF7FEFF 		bl	_pal_lld_setgroupmode
 3780              	.LVL290:
 3781              	.LBB1193:
 3782              	.LBB1194:
 3783              		.loc 1 28 0
 3784 0180 2046     		mov	r0, r4
 3785 0182 FFF7FEFF 		bl	chThdSleep
 3786              	.LVL291:
 3787              	.LBE1194:
 3788              	.LBE1193:
 3789              		.loc 1 69 0
 3790 0186 3146     		mov	r1, r6
 3791 0188 0522     		movs	r2, #5
 3792 018a 2846     		mov	r0, r5
 3793 018c FFF7FEFF 		bl	_pal_lld_setgroupmode
 3794              	.LVL292:
 3795              	.LBE1184:
 3796              	.LBE1183:
 3797              	.LBB1195:
 3798              	.LBB1196:
 3799              	.LBB1197:
 3800              	.LBB1198:
 3801              		.loc 1 28 0
 3802 0190 2046     		mov	r0, r4
 3803              	.LBE1198:
 3804              	.LBE1197:
 3805              		.loc 1 52 0
 3806 0192 3C83     		strh	r4, [r7, #24]	@ movhi
 3807              	.LBB1200:
 3808              	.LBB1199:
 3809              		.loc 1 28 0
 3810 0194 FFF7FEFF 		bl	chThdSleep
 3811              	.LVL293:
 3812              	.LBE1199:
 3813              	.LBE1200:
 3814              	.LBB1201:
 3815              	.LBB1202:
 3816 0198 2046     		mov	r0, r4
 3817              	.LBE1202:
 3818              	.LBE1201:
 3819              		.loc 1 54 0
ARM GAS  /tmp/ccz3Igsc.s 			page 68


 3820 019a 2E83     		strh	r6, [r5, #24]	@ movhi
 3821              	.LBB1204:
 3822              	.LBB1203:
 3823              		.loc 1 28 0
 3824 019c FFF7FEFF 		bl	chThdSleep
 3825              	.LVL294:
 3826              	.LBE1203:
 3827              	.LBE1204:
 3828              	.LBE1196:
 3829              	.LBE1195:
 3830              		.loc 1 198 0
 3831 01a0 2046     		mov	r0, r4
 3832 01a2 03B0     		add	sp, sp, #12
 3833              		.cfi_remember_state
 3834              		.cfi_def_cfa_offset 36
 3835              		@ sp needed
 3836 01a4 BDE8F08F 		pop	{r4, r5, r6, r7, r8, r9, r10, fp, pc}
 3837              	.LVL295:
 3838              	.L145:
 3839              		.cfi_restore_state
 3840              	.LBB1205:
 3841              	.LBB1181:
 3842              	.LBB1174:
 3843              	.LBB1159:
 3844              		.loc 1 28 0
 3845 01a8 0120     		movs	r0, #1
 3846              	.LBE1159:
 3847              	.LBE1174:
 3848              		.loc 1 136 0
 3849 01aa A8F81A90 		strh	r9, [r8, #26]	@ movhi
 3850              	.LBB1175:
 3851              	.LBB1160:
 3852              		.loc 1 28 0
 3853 01ae FFF7FEFF 		bl	chThdSleep
 3854              	.LVL296:
 3855              	.LBE1160:
 3856              	.LBE1175:
 3857              	.LBB1176:
 3858              	.LBB1165:
 3859 01b2 3046     		mov	r0, r6
 3860              	.LBE1165:
 3861              	.LBE1176:
 3862              		.loc 1 138 0
 3863 01b4 3E83     		strh	r6, [r7, #24]	@ movhi
 3864              	.LBB1177:
 3865              	.LBB1166:
 3866              		.loc 1 28 0
 3867 01b6 FFF7FEFF 		bl	chThdSleep
 3868              	.LVL297:
 3869              	.LBE1166:
 3870              	.LBE1177:
 3871              	.LBB1178:
 3872              	.LBB1170:
 3873 01ba 3046     		mov	r0, r6
 3874 01bc FFF7FEFF 		bl	chThdSleep
 3875              	.LVL298:
 3876 01c0 013C     		subs	r4, r4, #1
ARM GAS  /tmp/ccz3Igsc.s 			page 69


 3877              	.LVL299:
 3878              	.LBE1170:
 3879              	.LBE1178:
 3880              		.loc 1 141 0
 3881 01c2 7E83     		strh	r6, [r7, #26]	@ movhi
 3882              	.LBB1179:
 3883              	.LBB1173:
 3884              		.loc 1 28 0
 3885 01c4 3046     		mov	r0, r6
 3886 01c6 FFF7FEFF 		bl	chThdSleep
 3887              	.LVL300:
 3888              	.LBE1173:
 3889              	.LBE1179:
 3890              		.loc 1 131 0
 3891 01ca 631C     		adds	r3, r4, #1
 3892 01cc ACD1     		bne	.L144
 3893 01ce C3E7     		b	.L146
 3894              	.LVL301:
 3895              	.L141:
 3896              	.LBE1181:
 3897              	.LBE1205:
 3898              	.LBB1206:
 3899              	.LBB1139:
 3900              	.LBB1131:
 3901              	.LBB1115:
 3902              		.loc 1 28 0
 3903 01d0 0120     		movs	r0, #1
 3904              	.LBE1115:
 3905              	.LBE1131:
 3906              		.loc 1 136 0
 3907 01d2 AAF81AB0 		strh	fp, [r10, #26]	@ movhi
 3908              	.LBB1132:
 3909              	.LBB1116:
 3910              		.loc 1 28 0
 3911 01d6 FFF7FEFF 		bl	chThdSleep
 3912              	.LVL302:
 3913              	.LBE1116:
 3914              	.LBE1132:
 3915              	.LBB1133:
 3916              	.LBB1121:
 3917 01da 3046     		mov	r0, r6
 3918              	.LBE1121:
 3919              	.LBE1133:
 3920              		.loc 1 138 0
 3921 01dc A9F81860 		strh	r6, [r9, #24]	@ movhi
 3922              	.LBB1134:
 3923              	.LBB1122:
 3924              		.loc 1 28 0
 3925 01e0 FFF7FEFF 		bl	chThdSleep
 3926              	.LVL303:
 3927              	.LBE1122:
 3928              	.LBE1134:
 3929              	.LBB1135:
 3930              	.LBB1126:
 3931 01e4 3046     		mov	r0, r6
 3932 01e6 FFF7FEFF 		bl	chThdSleep
 3933              	.LVL304:
ARM GAS  /tmp/ccz3Igsc.s 			page 70


 3934 01ea 013C     		subs	r4, r4, #1
 3935              	.LVL305:
 3936              	.LBE1126:
 3937              	.LBE1135:
 3938              	.LBB1136:
 3939              	.LBB1129:
 3940 01ec 3046     		mov	r0, r6
 3941              	.LBE1129:
 3942              	.LBE1136:
 3943              		.loc 1 141 0
 3944 01ee A9F81A60 		strh	r6, [r9, #26]	@ movhi
 3945              	.LBB1137:
 3946              	.LBB1130:
 3947              		.loc 1 28 0
 3948 01f2 FFF7FEFF 		bl	chThdSleep
 3949              	.LVL306:
 3950              	.LBE1130:
 3951              	.LBE1137:
 3952              		.loc 1 131 0
 3953 01f6 601C     		adds	r0, r4, #1
 3954 01f8 7FF458AF 		bne	.L140
 3955 01fc 71E7     		b	.L142
 3956              	.LVL307:
 3957              	.L137:
 3958              	.LBE1139:
 3959              	.LBE1206:
 3960              	.LBB1207:
 3961              	.LBB1095:
 3962              	.LBB1088:
 3963              	.LBB1073:
 3964              		.loc 1 28 0
 3965 01fe 0120     		movs	r0, #1
 3966              	.LBE1073:
 3967              	.LBE1088:
 3968              		.loc 1 136 0
 3969 0200 ABF81AA0 		strh	r10, [fp, #26]	@ movhi
 3970              	.LBB1089:
 3971              	.LBB1074:
 3972              		.loc 1 28 0
 3973 0204 FFF7FEFF 		bl	chThdSleep
 3974              	.LVL308:
 3975              	.LBE1074:
 3976              	.LBE1089:
 3977              	.LBB1090:
 3978              	.LBB1079:
 3979 0208 4046     		mov	r0, r8
 3980              	.LBE1079:
 3981              	.LBE1090:
 3982              		.loc 1 138 0
 3983 020a A6F81880 		strh	r8, [r6, #24]	@ movhi
 3984              	.LBB1091:
 3985              	.LBB1080:
 3986              		.loc 1 28 0
 3987 020e FFF7FEFF 		bl	chThdSleep
 3988              	.LVL309:
 3989              	.LBE1080:
 3990              	.LBE1091:
ARM GAS  /tmp/ccz3Igsc.s 			page 71


 3991              	.LBB1092:
 3992              	.LBB1084:
 3993 0212 4046     		mov	r0, r8
 3994 0214 FFF7FEFF 		bl	chThdSleep
 3995              	.LVL310:
 3996 0218 013C     		subs	r4, r4, #1
 3997              	.LVL311:
 3998              	.LBE1084:
 3999              	.LBE1092:
 4000              		.loc 1 141 0
 4001 021a A6F81A80 		strh	r8, [r6, #26]	@ movhi
 4002              	.LBB1093:
 4003              	.LBB1087:
 4004              		.loc 1 28 0
 4005 021e 4046     		mov	r0, r8
 4006 0220 FFF7FEFF 		bl	chThdSleep
 4007              	.LVL312:
 4008              	.LBE1087:
 4009              	.LBE1093:
 4010              		.loc 1 131 0
 4011 0224 621C     		adds	r2, r4, #1
 4012 0226 7FF404AF 		bne	.L136
 4013 022a 1EE7     		b	.L138
 4014              	.L159:
 4015              		.align	2
 4016              	.L158:
 4017 022c 001C0240 		.word	1073880064
 4018 0230 00200240 		.word	1073881088
 4019              	.LBE1095:
 4020              	.LBE1207:
 4021              		.cfi_endproc
 4022              	.LFE791:
 4023              		.size	_Z18swi2c_writeByte_A8hhPh, .-_Z18swi2c_writeByte_A8hhPh
 4024              		.section	.text._Z14pat9125_rd_regh,"ax",%progbits
 4025              		.align	1
 4026              		.p2align 2,,3
 4027              		.global	_Z14pat9125_rd_regh
 4028              		.syntax unified
 4029              		.thumb
 4030              		.thumb_func
 4031              		.fpu fpv4-sp-d16
 4032              		.type	_Z14pat9125_rd_regh, %function
 4033              	_Z14pat9125_rd_regh:
 4034              	.LFB793:
 4035              		.loc 1 268 0
 4036              		.cfi_startproc
 4037              		@ args = 0, pretend = 0, frame = 8
 4038              		@ frame_needed = 0, uses_anonymous_args = 0
 4039              	.LVL313:
 4040 0000 00B5     		push	{lr}
 4041              		.cfi_def_cfa_offset 4
 4042              		.cfi_offset 14, -4
 4043 0002 83B0     		sub	sp, sp, #12
 4044              		.cfi_def_cfa_offset 16
 4045              		.loc 1 269 0
 4046 0004 02A9     		add	r1, sp, #8
 4047 0006 0023     		movs	r3, #0
ARM GAS  /tmp/ccz3Igsc.s 			page 72


 4048 0008 01F8013D 		strb	r3, [r1, #-1]!
 4049              		.loc 1 270 0
 4050 000c FFF7FEFF 		bl	_Z17swi2c_readByte_A8hhPh.constprop.1
 4051              	.LVL314:
 4052              		.loc 1 272 0
 4053 0010 9DF80700 		ldrb	r0, [sp, #7]	@ zero_extendqisi2
 4054 0014 03B0     		add	sp, sp, #12
 4055              		.cfi_def_cfa_offset 4
 4056              		@ sp needed
 4057 0016 5DF804FB 		ldr	pc, [sp], #4
 4058              		.cfi_endproc
 4059              	.LFE793:
 4060              		.size	_Z14pat9125_rd_regh, .-_Z14pat9125_rd_regh
 4061 001a 00BF     		.section	.text._Z14pat9125_wr_reghh,"ax",%progbits
 4062              		.align	1
 4063              		.p2align 2,,3
 4064              		.global	_Z14pat9125_wr_reghh
 4065              		.syntax unified
 4066              		.thumb
 4067              		.thumb_func
 4068              		.fpu fpv4-sp-d16
 4069              		.type	_Z14pat9125_wr_reghh, %function
 4070              	_Z14pat9125_wr_reghh:
 4071              	.LFB794:
 4072              		.loc 1 274 0
 4073              		.cfi_startproc
 4074              		@ args = 0, pretend = 0, frame = 0
 4075              		@ frame_needed = 0, uses_anonymous_args = 0
 4076              	.LVL315:
 4077 0000 2DE9F84F 		push	{r3, r4, r5, r6, r7, r8, r9, r10, fp, lr}
 4078              		.cfi_def_cfa_offset 40
 4079              		.cfi_offset 3, -40
 4080              		.cfi_offset 4, -36
 4081              		.cfi_offset 5, -32
 4082              		.cfi_offset 6, -28
 4083              		.cfi_offset 7, -24
 4084              		.cfi_offset 8, -20
 4085              		.cfi_offset 9, -16
 4086              		.cfi_offset 10, -12
 4087              		.cfi_offset 11, -8
 4088              		.cfi_offset 14, -4
 4089              	.LBB1276:
 4090              	.LBB1277:
 4091              	.LBB1278:
 4092              		.loc 1 44 0
 4093 0004 884D     		ldr	r5, .L185
 4094              		.loc 1 46 0
 4095 0006 894C     		ldr	r4, .L185+4
 4096              		.loc 1 44 0
 4097 0008 4FF48053 		mov	r3, #4096
 4098 000c 6B83     		strh	r3, [r5, #26]	@ movhi
 4099              	.LBE1278:
 4100              	.LBE1277:
 4101              	.LBE1276:
 4102              		.loc 1 274 0
 4103 000e 8046     		mov	r8, r0
 4104              	.LVL316:
ARM GAS  /tmp/ccz3Igsc.s 			page 73


 4105              	.LBB1435:
 4106              	.LBB1290:
 4107              	.LBB1287:
 4108              	.LBB1279:
 4109              	.LBB1280:
 4110              		.loc 1 28 0
 4111 0010 0120     		movs	r0, #1
 4112              	.LVL317:
 4113              	.LBE1280:
 4114              	.LBE1279:
 4115              	.LBE1287:
 4116              	.LBE1290:
 4117              	.LBE1435:
 4118              		.loc 1 274 0
 4119 0012 0F46     		mov	r7, r1
 4120              	.LBB1436:
 4121              	.LBB1291:
 4122              	.LBB1288:
 4123              	.LBB1282:
 4124              	.LBB1281:
 4125              		.loc 1 28 0
 4126 0014 FFF7FEFF 		bl	chThdSleep
 4127              	.LVL318:
 4128              	.LBE1281:
 4129              	.LBE1282:
 4130              		.loc 1 46 0
 4131 0018 0120     		movs	r0, #1
 4132 001a 6083     		strh	r0, [r4, #26]	@ movhi
 4133              	.LBB1283:
 4134              	.LBB1284:
 4135              		.loc 1 28 0
 4136 001c FFF7FEFF 		bl	chThdSleep
 4137              	.LVL319:
 4138              	.LBE1284:
 4139              	.LBE1283:
 4140              	.LBE1288:
 4141              	.LBE1291:
 4142              	.LBB1292:
 4143              	.LBB1293:
 4144              		.loc 1 138 0
 4145 0020 A146     		mov	r9, r4
 4146              		.loc 1 136 0
 4147 0022 AA46     		mov	r10, r5
 4148              	.LBE1293:
 4149              	.LBE1292:
 4150              	.LBB1318:
 4151              	.LBB1289:
 4152              	.LBB1286:
 4153              	.LBB1285:
 4154              		.loc 1 28 0
 4155 0024 0724     		movs	r4, #7
 4156              	.LBE1285:
 4157              	.LBE1286:
 4158              	.LBE1289:
 4159              	.LBE1318:
 4160              	.LBB1319:
 4161              	.LBB1316:
ARM GAS  /tmp/ccz3Igsc.s 			page 74


 4162              		.loc 1 133 0
 4163 0026 4FF0800B 		mov	fp, #128
 4164              	.LVL320:
 4165              	.L163:
 4166 002a 4BFA04F3 		asr	r3, fp, r4
 4167              		.loc 1 138 0
 4168 002e 0126     		movs	r6, #1
 4169              		.loc 1 133 0
 4170 0030 DB07     		lsls	r3, r3, #31
 4171              		.loc 1 134 0
 4172 0032 4FF48051 		mov	r1, #4096
 4173              	.LBB1294:
 4174              	.LBB1295:
 4175              		.loc 1 28 0
 4176 0036 3046     		mov	r0, r6
 4177              	.LBE1295:
 4178              	.LBE1294:
 4179              		.loc 1 133 0
 4180 0038 40F1DE80 		bpl	.L164
 4181              		.loc 1 134 0
 4182 003c AAF81810 		strh	r1, [r10, #24]	@ movhi
 4183              	.LBB1298:
 4184              	.LBB1296:
 4185              		.loc 1 28 0
 4186 0040 FFF7FEFF 		bl	chThdSleep
 4187              	.LVL321:
 4188              	.LBE1296:
 4189              	.LBE1298:
 4190              	.LBB1299:
 4191              	.LBB1300:
 4192 0044 3046     		mov	r0, r6
 4193              	.LBE1300:
 4194              	.LBE1299:
 4195              		.loc 1 138 0
 4196 0046 A9F81860 		strh	r6, [r9, #24]	@ movhi
 4197              	.LBB1304:
 4198              	.LBB1301:
 4199              		.loc 1 28 0
 4200 004a FFF7FEFF 		bl	chThdSleep
 4201              	.LVL322:
 4202              	.LBE1301:
 4203              	.LBE1304:
 4204              	.LBB1305:
 4205              	.LBB1306:
 4206 004e 3046     		mov	r0, r6
 4207 0050 FFF7FEFF 		bl	chThdSleep
 4208              	.LVL323:
 4209 0054 013C     		subs	r4, r4, #1
 4210              	.LVL324:
 4211              	.LBE1306:
 4212              	.LBE1305:
 4213              		.loc 1 141 0
 4214 0056 A9F81A60 		strh	r6, [r9, #26]	@ movhi
 4215              	.LBB1308:
 4216              	.LBB1309:
 4217              		.loc 1 28 0
 4218 005a 3046     		mov	r0, r6
ARM GAS  /tmp/ccz3Igsc.s 			page 75


 4219 005c FFF7FEFF 		bl	chThdSleep
 4220              	.LVL325:
 4221              	.LBE1309:
 4222              	.LBE1308:
 4223              		.loc 1 131 0
 4224 0060 611C     		adds	r1, r4, #1
 4225 0062 E2D1     		bne	.L163
 4226              	.L165:
 4227              	.LVL326:
 4228              	.LBE1316:
 4229              	.LBE1319:
 4230              	.LBB1320:
 4231              	.LBB1321:
 4232              		.loc 1 60 0
 4233 0064 704C     		ldr	r4, .L185
 4234              		.loc 1 62 0
 4235 0066 714E     		ldr	r6, .L185+4
 4236              		.loc 1 60 0
 4237 0068 4FF4805B 		mov	fp, #4096
 4238              	.LBB1322:
 4239              	.LBB1323:
 4240              		.loc 1 28 0
 4241 006c 0120     		movs	r0, #1
 4242              	.LBE1323:
 4243              	.LBE1322:
 4244              		.loc 1 62 0
 4245 006e 0546     		mov	r5, r0
 4246              		.loc 1 60 0
 4247 0070 A4F818B0 		strh	fp, [r4, #24]	@ movhi
 4248              	.LBB1325:
 4249              	.LBB1324:
 4250              		.loc 1 28 0
 4251 0074 FFF7FEFF 		bl	chThdSleep
 4252              	.LVL327:
 4253              	.LBE1324:
 4254              	.LBE1325:
 4255              	.LBB1326:
 4256              	.LBB1327:
 4257 0078 2846     		mov	r0, r5
 4258              	.LBE1327:
 4259              	.LBE1326:
 4260              		.loc 1 62 0
 4261 007a 3583     		strh	r5, [r6, #24]	@ movhi
 4262              	.LBB1329:
 4263              	.LBB1328:
 4264              		.loc 1 28 0
 4265 007c FFF7FEFF 		bl	chThdSleep
 4266              	.LVL328:
 4267              	.LBE1328:
 4268              	.LBE1329:
 4269              		.loc 1 67 0
 4270 0080 5946     		mov	r1, fp
 4271 0082 2046     		mov	r0, r4
 4272 0084 0522     		movs	r2, #5
 4273              		.loc 1 64 0
 4274 0086 7583     		strh	r5, [r6, #26]	@ movhi
 4275              		.loc 1 66 0
ARM GAS  /tmp/ccz3Igsc.s 			page 76


 4276 0088 A4F818B0 		strh	fp, [r4, #24]	@ movhi
 4277              		.loc 1 67 0
 4278 008c FFF7FEFF 		bl	_pal_lld_setgroupmode
 4279              	.LVL329:
 4280              	.LBB1330:
 4281              	.LBB1331:
 4282              		.loc 1 28 0
 4283 0090 2846     		mov	r0, r5
 4284 0092 FFF7FEFF 		bl	chThdSleep
 4285              	.LVL330:
 4286              	.LBE1331:
 4287              	.LBE1330:
 4288              		.loc 1 69 0
 4289 0096 2046     		mov	r0, r4
 4290 0098 5946     		mov	r1, fp
 4291 009a 0522     		movs	r2, #5
 4292 009c FFF7FEFF 		bl	_pal_lld_setgroupmode
 4293              	.LVL331:
 4294              	.LBE1321:
 4295              	.LBE1320:
 4296              	.LBB1333:
 4297              	.LBB1334:
 4298              		.loc 1 136 0
 4299 00a0 A246     		mov	r10, r4
 4300              		.loc 1 138 0
 4301 00a2 B146     		mov	r9, r6
 4302              	.LBE1334:
 4303              	.LBE1333:
 4304              	.LBB1363:
 4305              	.LBB1332:
 4306              		.loc 1 69 0
 4307 00a4 0724     		movs	r4, #7
 4308              	.LVL332:
 4309              	.L167:
 4310              	.LBE1332:
 4311              	.LBE1363:
 4312              	.LBB1364:
 4313              	.LBB1361:
 4314              		.loc 1 133 0
 4315 00a6 48FA04F3 		asr	r3, r8, r4
 4316              		.loc 1 138 0
 4317 00aa 0126     		movs	r6, #1
 4318              		.loc 1 133 0
 4319 00ac DB07     		lsls	r3, r3, #31
 4320              	.LBB1335:
 4321              	.LBB1336:
 4322              		.loc 1 28 0
 4323 00ae 3046     		mov	r0, r6
 4324              	.LBE1336:
 4325              	.LBE1335:
 4326              		.loc 1 133 0
 4327 00b0 40F18B80 		bpl	.L168
 4328              		.loc 1 134 0
 4329 00b4 AAF818B0 		strh	fp, [r10, #24]	@ movhi
 4330              	.LBB1340:
 4331              	.LBB1337:
 4332              		.loc 1 28 0
ARM GAS  /tmp/ccz3Igsc.s 			page 77


 4333 00b8 FFF7FEFF 		bl	chThdSleep
 4334              	.LVL333:
 4335              	.LBE1337:
 4336              	.LBE1340:
 4337              	.LBB1341:
 4338              	.LBB1342:
 4339 00bc 3046     		mov	r0, r6
 4340              	.LBE1342:
 4341              	.LBE1341:
 4342              		.loc 1 138 0
 4343 00be A9F81860 		strh	r6, [r9, #24]	@ movhi
 4344              	.LBB1346:
 4345              	.LBB1343:
 4346              		.loc 1 28 0
 4347 00c2 FFF7FEFF 		bl	chThdSleep
 4348              	.LVL334:
 4349              	.LBE1343:
 4350              	.LBE1346:
 4351              	.LBB1347:
 4352              	.LBB1348:
 4353 00c6 3046     		mov	r0, r6
 4354 00c8 FFF7FEFF 		bl	chThdSleep
 4355              	.LVL335:
 4356 00cc 013C     		subs	r4, r4, #1
 4357              	.LVL336:
 4358              	.LBE1348:
 4359              	.LBE1347:
 4360              		.loc 1 141 0
 4361 00ce A9F81A60 		strh	r6, [r9, #26]	@ movhi
 4362              	.LBB1350:
 4363              	.LBB1351:
 4364              		.loc 1 28 0
 4365 00d2 3046     		mov	r0, r6
 4366 00d4 FFF7FEFF 		bl	chThdSleep
 4367              	.LVL337:
 4368              	.LBE1351:
 4369              	.LBE1350:
 4370              		.loc 1 131 0
 4371 00d8 651C     		adds	r5, r4, #1
 4372 00da E4D1     		bne	.L167
 4373              	.L169:
 4374              	.LBE1361:
 4375              	.LBE1364:
 4376              	.LBB1365:
 4377              	.LBB1366:
 4378              		.loc 1 60 0
 4379 00dc 524C     		ldr	r4, .L185
 4380              		.loc 1 62 0
 4381 00de 534E     		ldr	r6, .L185+4
 4382              		.loc 1 60 0
 4383 00e0 4FF4805A 		mov	r10, #4096
 4384              	.LBB1367:
 4385              	.LBB1368:
 4386              		.loc 1 28 0
 4387 00e4 0120     		movs	r0, #1
 4388              	.LBE1368:
 4389              	.LBE1367:
ARM GAS  /tmp/ccz3Igsc.s 			page 78


 4390              		.loc 1 62 0
 4391 00e6 0546     		mov	r5, r0
 4392              		.loc 1 60 0
 4393 00e8 A4F818A0 		strh	r10, [r4, #24]	@ movhi
 4394              	.LBB1370:
 4395              	.LBB1369:
 4396              		.loc 1 28 0
 4397 00ec FFF7FEFF 		bl	chThdSleep
 4398              	.LVL338:
 4399              	.LBE1369:
 4400              	.LBE1370:
 4401              	.LBB1371:
 4402              	.LBB1372:
 4403 00f0 2846     		mov	r0, r5
 4404              	.LBE1372:
 4405              	.LBE1371:
 4406              		.loc 1 62 0
 4407 00f2 3583     		strh	r5, [r6, #24]	@ movhi
 4408              	.LBB1374:
 4409              	.LBB1373:
 4410              		.loc 1 28 0
 4411 00f4 FFF7FEFF 		bl	chThdSleep
 4412              	.LVL339:
 4413              	.LBE1373:
 4414              	.LBE1374:
 4415              		.loc 1 67 0
 4416 00f8 5146     		mov	r1, r10
 4417 00fa 2046     		mov	r0, r4
 4418 00fc 0522     		movs	r2, #5
 4419              		.loc 1 64 0
 4420 00fe 7583     		strh	r5, [r6, #26]	@ movhi
 4421              		.loc 1 66 0
 4422 0100 A4F818A0 		strh	r10, [r4, #24]	@ movhi
 4423              		.loc 1 67 0
 4424 0104 FFF7FEFF 		bl	_pal_lld_setgroupmode
 4425              	.LVL340:
 4426              	.LBB1375:
 4427              	.LBB1376:
 4428              		.loc 1 28 0
 4429 0108 2846     		mov	r0, r5
 4430 010a FFF7FEFF 		bl	chThdSleep
 4431              	.LVL341:
 4432              	.LBE1376:
 4433              	.LBE1375:
 4434              		.loc 1 69 0
 4435 010e 2046     		mov	r0, r4
 4436 0110 5146     		mov	r1, r10
 4437 0112 0522     		movs	r2, #5
 4438 0114 FFF7FEFF 		bl	_pal_lld_setgroupmode
 4439              	.LVL342:
 4440              	.LBE1366:
 4441              	.LBE1365:
 4442              	.LBB1378:
 4443              	.LBB1379:
 4444              		.loc 1 136 0
 4445 0118 A146     		mov	r9, r4
 4446              		.loc 1 138 0
ARM GAS  /tmp/ccz3Igsc.s 			page 79


 4447 011a B046     		mov	r8, r6
 4448              	.LVL343:
 4449              	.LBE1379:
 4450              	.LBE1378:
 4451              	.LBB1406:
 4452              	.LBB1377:
 4453              		.loc 1 69 0
 4454 011c 0724     		movs	r4, #7
 4455              	.LVL344:
 4456              	.L171:
 4457              	.LBE1377:
 4458              	.LBE1406:
 4459              	.LBB1407:
 4460              	.LBB1404:
 4461              		.loc 1 133 0
 4462 011e 47FA04F3 		asr	r3, r7, r4
 4463              		.loc 1 138 0
 4464 0122 0126     		movs	r6, #1
 4465              		.loc 1 133 0
 4466 0124 D907     		lsls	r1, r3, #31
 4467              	.LBB1380:
 4468              	.LBB1381:
 4469              		.loc 1 28 0
 4470 0126 3046     		mov	r0, r6
 4471              	.LBE1381:
 4472              	.LBE1380:
 4473              		.loc 1 133 0
 4474 0128 39D5     		bpl	.L172
 4475              		.loc 1 134 0
 4476 012a A9F818A0 		strh	r10, [r9, #24]	@ movhi
 4477              	.LBB1385:
 4478              	.LBB1382:
 4479              		.loc 1 28 0
 4480 012e FFF7FEFF 		bl	chThdSleep
 4481              	.LVL345:
 4482              	.LBE1382:
 4483              	.LBE1385:
 4484              	.LBB1386:
 4485              	.LBB1387:
 4486 0132 3046     		mov	r0, r6
 4487              	.LBE1387:
 4488              	.LBE1386:
 4489              		.loc 1 138 0
 4490 0134 A8F81860 		strh	r6, [r8, #24]	@ movhi
 4491              	.LBB1391:
 4492              	.LBB1388:
 4493              		.loc 1 28 0
 4494 0138 FFF7FEFF 		bl	chThdSleep
 4495              	.LVL346:
 4496              	.LBE1388:
 4497              	.LBE1391:
 4498              	.LBB1392:
 4499              	.LBB1393:
 4500 013c 3046     		mov	r0, r6
 4501 013e FFF7FEFF 		bl	chThdSleep
 4502              	.LVL347:
 4503 0142 013C     		subs	r4, r4, #1
ARM GAS  /tmp/ccz3Igsc.s 			page 80


 4504              	.LVL348:
 4505              	.LBE1393:
 4506              	.LBE1392:
 4507              		.loc 1 141 0
 4508 0144 A8F81A60 		strh	r6, [r8, #26]	@ movhi
 4509              	.LBB1395:
 4510              	.LBB1396:
 4511              		.loc 1 28 0
 4512 0148 3046     		mov	r0, r6
 4513 014a FFF7FEFF 		bl	chThdSleep
 4514              	.LVL349:
 4515              	.LBE1396:
 4516              	.LBE1395:
 4517              		.loc 1 131 0
 4518 014e 621C     		adds	r2, r4, #1
 4519 0150 E5D1     		bne	.L171
 4520              	.L173:
 4521              	.LVL350:
 4522              	.LBE1404:
 4523              	.LBE1407:
 4524              	.LBB1408:
 4525              	.LBB1409:
 4526              		.loc 1 60 0
 4527 0152 354D     		ldr	r5, .L185
 4528              		.loc 1 62 0
 4529 0154 354F     		ldr	r7, .L185+4
 4530              		.loc 1 60 0
 4531 0156 4FF48056 		mov	r6, #4096
 4532              	.LBB1410:
 4533              	.LBB1411:
 4534              		.loc 1 28 0
 4535 015a 0120     		movs	r0, #1
 4536              	.LBE1411:
 4537              	.LBE1410:
 4538              		.loc 1 62 0
 4539 015c 0446     		mov	r4, r0
 4540              		.loc 1 60 0
 4541 015e 2E83     		strh	r6, [r5, #24]	@ movhi
 4542              	.LBB1413:
 4543              	.LBB1412:
 4544              		.loc 1 28 0
 4545 0160 FFF7FEFF 		bl	chThdSleep
 4546              	.LVL351:
 4547              	.LBE1412:
 4548              	.LBE1413:
 4549              	.LBB1414:
 4550              	.LBB1415:
 4551 0164 2046     		mov	r0, r4
 4552              	.LBE1415:
 4553              	.LBE1414:
 4554              		.loc 1 62 0
 4555 0166 3C83     		strh	r4, [r7, #24]	@ movhi
 4556              	.LBB1417:
 4557              	.LBB1416:
 4558              		.loc 1 28 0
 4559 0168 FFF7FEFF 		bl	chThdSleep
 4560              	.LVL352:
ARM GAS  /tmp/ccz3Igsc.s 			page 81


 4561              	.LBE1416:
 4562              	.LBE1417:
 4563              		.loc 1 67 0
 4564 016c 3146     		mov	r1, r6
 4565              		.loc 1 64 0
 4566 016e 7C83     		strh	r4, [r7, #26]	@ movhi
 4567              		.loc 1 67 0
 4568 0170 2846     		mov	r0, r5
 4569 0172 0522     		movs	r2, #5
 4570              		.loc 1 66 0
 4571 0174 2E83     		strh	r6, [r5, #24]	@ movhi
 4572              		.loc 1 67 0
 4573 0176 FFF7FEFF 		bl	_pal_lld_setgroupmode
 4574              	.LVL353:
 4575              	.LBB1418:
 4576              	.LBB1419:
 4577              		.loc 1 28 0
 4578 017a 2046     		mov	r0, r4
 4579 017c FFF7FEFF 		bl	chThdSleep
 4580              	.LVL354:
 4581              	.LBE1419:
 4582              	.LBE1418:
 4583              		.loc 1 69 0
 4584 0180 3146     		mov	r1, r6
 4585 0182 2846     		mov	r0, r5
 4586 0184 0522     		movs	r2, #5
 4587 0186 FFF7FEFF 		bl	_pal_lld_setgroupmode
 4588              	.LVL355:
 4589              	.LBE1409:
 4590              	.LBE1408:
 4591              	.LBB1420:
 4592              	.LBB1421:
 4593              	.LBB1422:
 4594              	.LBB1423:
 4595              		.loc 1 28 0
 4596 018a 2046     		mov	r0, r4
 4597              	.LBE1423:
 4598              	.LBE1422:
 4599              		.loc 1 52 0
 4600 018c 3C83     		strh	r4, [r7, #24]	@ movhi
 4601              	.LBB1425:
 4602              	.LBB1424:
 4603              		.loc 1 28 0
 4604 018e FFF7FEFF 		bl	chThdSleep
 4605              	.LVL356:
 4606              	.LBE1424:
 4607              	.LBE1425:
 4608              		.loc 1 54 0
 4609 0192 2E83     		strh	r6, [r5, #24]	@ movhi
 4610              	.LBB1426:
 4611              	.LBB1427:
 4612              		.loc 1 28 0
 4613 0194 2046     		mov	r0, r4
 4614              	.LBE1427:
 4615              	.LBE1426:
 4616              	.LBE1421:
 4617              	.LBE1420:
ARM GAS  /tmp/ccz3Igsc.s 			page 82


 4618              	.LBE1436:
 4619              		.loc 1 276 0
 4620 0196 BDE8F84F 		pop	{r3, r4, r5, r6, r7, r8, r9, r10, fp, lr}
 4621              		.cfi_remember_state
 4622              		.cfi_restore 14
 4623              		.cfi_restore 11
 4624              		.cfi_restore 10
 4625              		.cfi_restore 9
 4626              		.cfi_restore 8
 4627              		.cfi_restore 7
 4628              		.cfi_restore 6
 4629              		.cfi_restore 5
 4630              		.cfi_restore 4
 4631              		.cfi_restore 3
 4632              		.cfi_def_cfa_offset 0
 4633              	.LBB1437:
 4634              	.LBB1431:
 4635              	.LBB1430:
 4636              	.LBB1429:
 4637              	.LBB1428:
 4638              		.loc 1 28 0
 4639 019a FFF7FEBF 		b	chThdSleep
 4640              	.LVL357:
 4641              	.L172:
 4642              		.cfi_restore_state
 4643              	.LBE1428:
 4644              	.LBE1429:
 4645              	.LBE1430:
 4646              	.LBE1431:
 4647              	.LBB1432:
 4648              	.LBB1405:
 4649              	.LBB1398:
 4650              	.LBB1383:
 4651 019e 0120     		movs	r0, #1
 4652              	.LBE1383:
 4653              	.LBE1398:
 4654              		.loc 1 136 0
 4655 01a0 A9F81AA0 		strh	r10, [r9, #26]	@ movhi
 4656              	.LBB1399:
 4657              	.LBB1384:
 4658              		.loc 1 28 0
 4659 01a4 FFF7FEFF 		bl	chThdSleep
 4660              	.LVL358:
 4661              	.LBE1384:
 4662              	.LBE1399:
 4663              	.LBB1400:
 4664              	.LBB1389:
 4665 01a8 3046     		mov	r0, r6
 4666              	.LBE1389:
 4667              	.LBE1400:
 4668              		.loc 1 138 0
 4669 01aa A8F81860 		strh	r6, [r8, #24]	@ movhi
 4670              	.LBB1401:
 4671              	.LBB1390:
 4672              		.loc 1 28 0
 4673 01ae FFF7FEFF 		bl	chThdSleep
 4674              	.LVL359:
ARM GAS  /tmp/ccz3Igsc.s 			page 83


 4675              	.LBE1390:
 4676              	.LBE1401:
 4677              	.LBB1402:
 4678              	.LBB1394:
 4679 01b2 3046     		mov	r0, r6
 4680 01b4 FFF7FEFF 		bl	chThdSleep
 4681              	.LVL360:
 4682 01b8 013C     		subs	r4, r4, #1
 4683              	.LVL361:
 4684              	.LBE1394:
 4685              	.LBE1402:
 4686              		.loc 1 141 0
 4687 01ba A8F81A60 		strh	r6, [r8, #26]	@ movhi
 4688              	.LBB1403:
 4689              	.LBB1397:
 4690              		.loc 1 28 0
 4691 01be 3046     		mov	r0, r6
 4692 01c0 FFF7FEFF 		bl	chThdSleep
 4693              	.LVL362:
 4694              	.LBE1397:
 4695              	.LBE1403:
 4696              		.loc 1 131 0
 4697 01c4 631C     		adds	r3, r4, #1
 4698 01c6 AAD1     		bne	.L171
 4699 01c8 C3E7     		b	.L173
 4700              	.LVL363:
 4701              	.L168:
 4702              	.LBE1405:
 4703              	.LBE1432:
 4704              	.LBB1433:
 4705              	.LBB1362:
 4706              	.LBB1354:
 4707              	.LBB1338:
 4708              		.loc 1 28 0
 4709 01ca 0120     		movs	r0, #1
 4710              	.LBE1338:
 4711              	.LBE1354:
 4712              		.loc 1 136 0
 4713 01cc AAF81AB0 		strh	fp, [r10, #26]	@ movhi
 4714              	.LBB1355:
 4715              	.LBB1339:
 4716              		.loc 1 28 0
 4717 01d0 FFF7FEFF 		bl	chThdSleep
 4718              	.LVL364:
 4719              	.LBE1339:
 4720              	.LBE1355:
 4721              	.LBB1356:
 4722              	.LBB1344:
 4723 01d4 3046     		mov	r0, r6
 4724              	.LBE1344:
 4725              	.LBE1356:
 4726              		.loc 1 138 0
 4727 01d6 A9F81860 		strh	r6, [r9, #24]	@ movhi
 4728              	.LBB1357:
 4729              	.LBB1345:
 4730              		.loc 1 28 0
 4731 01da FFF7FEFF 		bl	chThdSleep
ARM GAS  /tmp/ccz3Igsc.s 			page 84


 4732              	.LVL365:
 4733              	.LBE1345:
 4734              	.LBE1357:
 4735              	.LBB1358:
 4736              	.LBB1349:
 4737 01de 3046     		mov	r0, r6
 4738 01e0 FFF7FEFF 		bl	chThdSleep
 4739              	.LVL366:
 4740 01e4 013C     		subs	r4, r4, #1
 4741              	.LVL367:
 4742              	.LBE1349:
 4743              	.LBE1358:
 4744              	.LBB1359:
 4745              	.LBB1352:
 4746 01e6 3046     		mov	r0, r6
 4747              	.LBE1352:
 4748              	.LBE1359:
 4749              		.loc 1 141 0
 4750 01e8 A9F81A60 		strh	r6, [r9, #26]	@ movhi
 4751              	.LBB1360:
 4752              	.LBB1353:
 4753              		.loc 1 28 0
 4754 01ec FFF7FEFF 		bl	chThdSleep
 4755              	.LVL368:
 4756              	.LBE1353:
 4757              	.LBE1360:
 4758              		.loc 1 131 0
 4759 01f0 601C     		adds	r0, r4, #1
 4760 01f2 7FF458AF 		bne	.L167
 4761 01f6 71E7     		b	.L169
 4762              	.LVL369:
 4763              	.L164:
 4764              	.LBE1362:
 4765              	.LBE1433:
 4766              	.LBB1434:
 4767              	.LBB1317:
 4768              		.loc 1 136 0
 4769 01f8 AAF81A10 		strh	r1, [r10, #26]	@ movhi
 4770              	.LBB1311:
 4771              	.LBB1297:
 4772              		.loc 1 28 0
 4773 01fc 0120     		movs	r0, #1
 4774 01fe FFF7FEFF 		bl	chThdSleep
 4775              	.LVL370:
 4776              	.LBE1297:
 4777              	.LBE1311:
 4778              	.LBB1312:
 4779              	.LBB1302:
 4780 0202 3046     		mov	r0, r6
 4781              	.LBE1302:
 4782              	.LBE1312:
 4783              		.loc 1 138 0
 4784 0204 A9F81860 		strh	r6, [r9, #24]	@ movhi
 4785              	.LBB1313:
 4786              	.LBB1303:
 4787              		.loc 1 28 0
 4788 0208 FFF7FEFF 		bl	chThdSleep
ARM GAS  /tmp/ccz3Igsc.s 			page 85


 4789              	.LVL371:
 4790              	.LBE1303:
 4791              	.LBE1313:
 4792              	.LBB1314:
 4793              	.LBB1307:
 4794 020c 3046     		mov	r0, r6
 4795 020e FFF7FEFF 		bl	chThdSleep
 4796              	.LVL372:
 4797 0212 013C     		subs	r4, r4, #1
 4798              	.LVL373:
 4799              	.LBE1307:
 4800              	.LBE1314:
 4801              		.loc 1 141 0
 4802 0214 A9F81A60 		strh	r6, [r9, #26]	@ movhi
 4803              	.LBB1315:
 4804              	.LBB1310:
 4805              		.loc 1 28 0
 4806 0218 3046     		mov	r0, r6
 4807 021a FFF7FEFF 		bl	chThdSleep
 4808              	.LVL374:
 4809              	.LBE1310:
 4810              	.LBE1315:
 4811              		.loc 1 131 0
 4812 021e 621C     		adds	r2, r4, #1
 4813 0220 7FF403AF 		bne	.L163
 4814 0224 1EE7     		b	.L165
 4815              	.L186:
 4816 0226 00BF     		.align	2
 4817              	.L185:
 4818 0228 001C0240 		.word	1073880064
 4819 022c 00200240 		.word	1073881088
 4820              	.LBE1317:
 4821              	.LBE1434:
 4822              	.LBE1437:
 4823              		.cfi_endproc
 4824              	.LFE794:
 4825              		.size	_Z14pat9125_wr_reghh, .-_Z14pat9125_wr_reghh
 4826              		.section	.text._Z11PAT9125initv,"ax",%progbits
 4827              		.align	1
 4828              		.p2align 2,,3
 4829              		.global	_Z11PAT9125initv
 4830              		.syntax unified
 4831              		.thumb
 4832              		.thumb_func
 4833              		.fpu fpv4-sp-d16
 4834              		.type	_Z11PAT9125initv, %function
 4835              	_Z11PAT9125initv:
 4836              	.LFB795:
 4837              		.loc 1 278 0
 4838              		.cfi_startproc
 4839              		@ args = 0, pretend = 0, frame = 16
 4840              		@ frame_needed = 0, uses_anonymous_args = 0
 4841              	.LVL375:
 4842 0000 2DE9F04F 		push	{r4, r5, r6, r7, r8, r9, r10, fp, lr}
 4843              		.cfi_def_cfa_offset 36
 4844              		.cfi_offset 4, -36
 4845              		.cfi_offset 5, -32
ARM GAS  /tmp/ccz3Igsc.s 			page 86


 4846              		.cfi_offset 6, -28
 4847              		.cfi_offset 7, -24
 4848              		.cfi_offset 8, -20
 4849              		.cfi_offset 9, -16
 4850              		.cfi_offset 10, -12
 4851              		.cfi_offset 11, -8
 4852              		.cfi_offset 14, -4
 4853              	.LBB2082:
 4854              	.LBB2083:
 4855              	.LBB2084:
 4856              	.LBB2085:
 4857              		.loc 1 44 0
 4858 0004 CE4C     		ldr	r4, .L369
 4859              		.loc 1 46 0
 4860 0006 CF4F     		ldr	r7, .L369+4
 4861              		.loc 1 44 0
 4862 0008 4FF48053 		mov	r3, #4096
 4863 000c 6383     		strh	r3, [r4, #26]	@ movhi
 4864              	.LBE2085:
 4865              	.LBE2084:
 4866              	.LBE2083:
 4867              	.LBE2082:
 4868              		.loc 1 278 0
 4869 000e 85B0     		sub	sp, sp, #20
 4870              		.cfi_def_cfa_offset 56
 4871              	.LBB2219:
 4872              	.LBB2216:
 4873              	.LBB2094:
 4874              	.LBB2092:
 4875              	.LBB2086:
 4876              	.LBB2087:
 4877              		.loc 1 28 0
 4878 0010 0120     		movs	r0, #1
 4879 0012 FFF7FEFF 		bl	chThdSleep
 4880              	.LVL376:
 4881              	.LBE2087:
 4882              	.LBE2086:
 4883              		.loc 1 46 0
 4884 0016 0120     		movs	r0, #1
 4885 0018 7883     		strh	r0, [r7, #26]	@ movhi
 4886              	.LBB2088:
 4887              	.LBB2089:
 4888              		.loc 1 28 0
 4889 001a FFF7FEFF 		bl	chThdSleep
 4890              	.LVL377:
 4891              	.LBE2089:
 4892              	.LBE2088:
 4893              	.LBE2092:
 4894              	.LBE2094:
 4895              	.LBB2095:
 4896              	.LBB2096:
 4897              		.loc 1 136 0
 4898 001e A046     		mov	r8, r4
 4899              		.loc 1 133 0
 4900 0020 4FF08009 		mov	r9, #128
 4901              	.LBE2096:
 4902              	.LBE2095:
ARM GAS  /tmp/ccz3Igsc.s 			page 87


 4903              	.LBB2121:
 4904              	.LBB2093:
 4905              	.LBB2091:
 4906              	.LBB2090:
 4907              		.loc 1 28 0
 4908 0024 0724     		movs	r4, #7
 4909              	.LVL378:
 4910              	.L188:
 4911              	.LBE2090:
 4912              	.LBE2091:
 4913              	.LBE2093:
 4914              	.LBE2121:
 4915              	.LBB2122:
 4916              	.LBB2119:
 4917              		.loc 1 133 0
 4918 0026 49FA04F3 		asr	r3, r9, r4
 4919              		.loc 1 138 0
 4920 002a 0126     		movs	r6, #1
 4921              		.loc 1 133 0
 4922 002c DB07     		lsls	r3, r3, #31
 4923              		.loc 1 134 0
 4924 002e 4FF48051 		mov	r1, #4096
 4925              	.LBB2097:
 4926              	.LBB2098:
 4927              		.loc 1 28 0
 4928 0032 3046     		mov	r0, r6
 4929              	.LBE2098:
 4930              	.LBE2097:
 4931              		.loc 1 133 0
 4932 0034 40F1E982 		bpl	.L189
 4933              		.loc 1 134 0
 4934 0038 A8F81810 		strh	r1, [r8, #24]	@ movhi
 4935              	.LBB2101:
 4936              	.LBB2099:
 4937              		.loc 1 28 0
 4938 003c FFF7FEFF 		bl	chThdSleep
 4939              	.LVL379:
 4940              	.LBE2099:
 4941              	.LBE2101:
 4942              	.LBB2102:
 4943              	.LBB2103:
 4944 0040 3046     		mov	r0, r6
 4945              	.LBE2103:
 4946              	.LBE2102:
 4947              		.loc 1 138 0
 4948 0042 3E83     		strh	r6, [r7, #24]	@ movhi
 4949              	.LBB2107:
 4950              	.LBB2104:
 4951              		.loc 1 28 0
 4952 0044 FFF7FEFF 		bl	chThdSleep
 4953              	.LVL380:
 4954              	.LBE2104:
 4955              	.LBE2107:
 4956              	.LBB2108:
 4957              	.LBB2109:
 4958 0048 3046     		mov	r0, r6
 4959 004a FFF7FEFF 		bl	chThdSleep
ARM GAS  /tmp/ccz3Igsc.s 			page 88


 4960              	.LVL381:
 4961 004e 013C     		subs	r4, r4, #1
 4962              	.LVL382:
 4963              	.LBE2109:
 4964              	.LBE2108:
 4965              		.loc 1 141 0
 4966 0050 7E83     		strh	r6, [r7, #26]	@ movhi
 4967              	.LBB2111:
 4968              	.LBB2112:
 4969              		.loc 1 28 0
 4970 0052 3046     		mov	r0, r6
 4971 0054 FFF7FEFF 		bl	chThdSleep
 4972              	.LVL383:
 4973              	.LBE2112:
 4974              	.LBE2111:
 4975              		.loc 1 131 0
 4976 0058 611C     		adds	r1, r4, #1
 4977 005a E4D1     		bne	.L188
 4978              	.L190:
 4979              	.LVL384:
 4980              	.LBE2119:
 4981              	.LBE2122:
 4982              	.LBB2123:
 4983              	.LBB2124:
 4984              		.loc 1 60 0
 4985 005c B84C     		ldr	r4, .L369
 4986              		.loc 1 62 0
 4987 005e B94F     		ldr	r7, .L369+4
 4988              		.loc 1 60 0
 4989 0060 4FF48055 		mov	r5, #4096
 4990              	.LBB2125:
 4991              	.LBB2126:
 4992              		.loc 1 28 0
 4993 0064 0120     		movs	r0, #1
 4994              	.LBE2126:
 4995              	.LBE2125:
 4996              		.loc 1 62 0
 4997 0066 0646     		mov	r6, r0
 4998              		.loc 1 60 0
 4999 0068 2583     		strh	r5, [r4, #24]	@ movhi
 5000              	.LBB2128:
 5001              	.LBB2127:
 5002              		.loc 1 28 0
 5003 006a FFF7FEFF 		bl	chThdSleep
 5004              	.LVL385:
 5005              	.LBE2127:
 5006              	.LBE2128:
 5007              	.LBB2129:
 5008              	.LBB2130:
 5009 006e 3046     		mov	r0, r6
 5010              	.LBE2130:
 5011              	.LBE2129:
 5012              		.loc 1 62 0
 5013 0070 3E83     		strh	r6, [r7, #24]	@ movhi
 5014              	.LBB2132:
 5015              	.LBB2131:
 5016              		.loc 1 28 0
ARM GAS  /tmp/ccz3Igsc.s 			page 89


 5017 0072 FFF7FEFF 		bl	chThdSleep
 5018              	.LVL386:
 5019              	.LBE2131:
 5020              	.LBE2132:
 5021              		.loc 1 67 0
 5022 0076 2946     		mov	r1, r5
 5023 0078 2046     		mov	r0, r4
 5024 007a 0522     		movs	r2, #5
 5025              		.loc 1 64 0
 5026 007c 7E83     		strh	r6, [r7, #26]	@ movhi
 5027              		.loc 1 66 0
 5028 007e 2583     		strh	r5, [r4, #24]	@ movhi
 5029              		.loc 1 67 0
 5030 0080 FFF7FEFF 		bl	_pal_lld_setgroupmode
 5031              	.LVL387:
 5032              	.LBB2133:
 5033              	.LBB2134:
 5034              		.loc 1 28 0
 5035 0084 3046     		mov	r0, r6
 5036 0086 FFF7FEFF 		bl	chThdSleep
 5037              	.LVL388:
 5038              	.LBE2134:
 5039              	.LBE2133:
 5040              		.loc 1 69 0
 5041 008a 2046     		mov	r0, r4
 5042 008c 2946     		mov	r1, r5
 5043 008e 0522     		movs	r2, #5
 5044 0090 FFF7FEFF 		bl	_pal_lld_setgroupmode
 5045              	.LVL389:
 5046              	.LBE2124:
 5047              	.LBE2123:
 5048              	.LBB2136:
 5049              	.LBB2137:
 5050              		.loc 1 136 0
 5051 0094 A046     		mov	r8, r4
 5052              		.loc 1 133 0
 5053 0096 4FF07F09 		mov	r9, #127
 5054              	.LBE2137:
 5055              	.LBE2136:
 5056              	.LBB2162:
 5057              	.LBB2135:
 5058              		.loc 1 69 0
 5059 009a 0724     		movs	r4, #7
 5060              	.LVL390:
 5061              	.L192:
 5062              	.LBE2135:
 5063              	.LBE2162:
 5064              	.LBB2163:
 5065              	.LBB2160:
 5066              		.loc 1 133 0
 5067 009c 49FA04F3 		asr	r3, r9, r4
 5068              		.loc 1 138 0
 5069 00a0 0126     		movs	r6, #1
 5070              		.loc 1 133 0
 5071 00a2 DB07     		lsls	r3, r3, #31
 5072              		.loc 1 134 0
 5073 00a4 4FF48051 		mov	r1, #4096
ARM GAS  /tmp/ccz3Igsc.s 			page 90


 5074              	.LBB2138:
 5075              	.LBB2139:
 5076              		.loc 1 28 0
 5077 00a8 3046     		mov	r0, r6
 5078              	.LBE2139:
 5079              	.LBE2138:
 5080              		.loc 1 133 0
 5081 00aa 40F19982 		bpl	.L193
 5082              		.loc 1 134 0
 5083 00ae A8F81810 		strh	r1, [r8, #24]	@ movhi
 5084              	.LBB2142:
 5085              	.LBB2140:
 5086              		.loc 1 28 0
 5087 00b2 FFF7FEFF 		bl	chThdSleep
 5088              	.LVL391:
 5089              	.LBE2140:
 5090              	.LBE2142:
 5091              	.LBB2143:
 5092              	.LBB2144:
 5093 00b6 3046     		mov	r0, r6
 5094              	.LBE2144:
 5095              	.LBE2143:
 5096              		.loc 1 138 0
 5097 00b8 3E83     		strh	r6, [r7, #24]	@ movhi
 5098              	.LBB2148:
 5099              	.LBB2145:
 5100              		.loc 1 28 0
 5101 00ba FFF7FEFF 		bl	chThdSleep
 5102              	.LVL392:
 5103              	.LBE2145:
 5104              	.LBE2148:
 5105              	.LBB2149:
 5106              	.LBB2150:
 5107 00be 3046     		mov	r0, r6
 5108 00c0 FFF7FEFF 		bl	chThdSleep
 5109              	.LVL393:
 5110 00c4 013C     		subs	r4, r4, #1
 5111              	.LVL394:
 5112              	.LBE2150:
 5113              	.LBE2149:
 5114              		.loc 1 141 0
 5115 00c6 7E83     		strh	r6, [r7, #26]	@ movhi
 5116              	.LBB2152:
 5117              	.LBB2153:
 5118              		.loc 1 28 0
 5119 00c8 3046     		mov	r0, r6
 5120 00ca FFF7FEFF 		bl	chThdSleep
 5121              	.LVL395:
 5122              	.LBE2153:
 5123              	.LBE2152:
 5124              		.loc 1 131 0
 5125 00ce 611C     		adds	r1, r4, #1
 5126 00d0 E4D1     		bne	.L192
 5127              	.L194:
 5128              	.LBE2160:
 5129              	.LBE2163:
 5130              	.LBB2164:
ARM GAS  /tmp/ccz3Igsc.s 			page 91


 5131              	.LBB2165:
 5132              		.loc 1 60 0
 5133 00d2 9B4F     		ldr	r7, .L369
 5134              		.loc 1 62 0
 5135 00d4 9B4E     		ldr	r6, .L369+4
 5136              		.loc 1 60 0
 5137 00d6 4FF48059 		mov	r9, #4096
 5138              	.LBB2166:
 5139              	.LBB2167:
 5140              		.loc 1 28 0
 5141 00da 0120     		movs	r0, #1
 5142              	.LBE2167:
 5143              	.LBE2166:
 5144              		.loc 1 62 0
 5145 00dc 0546     		mov	r5, r0
 5146              		.loc 1 60 0
 5147 00de A7F81890 		strh	r9, [r7, #24]	@ movhi
 5148              	.LBB2169:
 5149              	.LBB2168:
 5150              		.loc 1 28 0
 5151 00e2 FFF7FEFF 		bl	chThdSleep
 5152              	.LVL396:
 5153              	.LBE2168:
 5154              	.LBE2169:
 5155              	.LBB2170:
 5156              	.LBB2171:
 5157 00e6 2846     		mov	r0, r5
 5158              	.LBE2171:
 5159              	.LBE2170:
 5160              		.loc 1 62 0
 5161 00e8 3583     		strh	r5, [r6, #24]	@ movhi
 5162              	.LBB2173:
 5163              	.LBB2172:
 5164              		.loc 1 28 0
 5165 00ea FFF7FEFF 		bl	chThdSleep
 5166              	.LVL397:
 5167              	.LBE2172:
 5168              	.LBE2173:
 5169              		.loc 1 67 0
 5170 00ee 4946     		mov	r1, r9
 5171 00f0 0522     		movs	r2, #5
 5172              		.loc 1 64 0
 5173 00f2 7583     		strh	r5, [r6, #26]	@ movhi
 5174              		.loc 1 67 0
 5175 00f4 3846     		mov	r0, r7
 5176              		.loc 1 66 0
 5177 00f6 A7F81890 		strh	r9, [r7, #24]	@ movhi
 5178              		.loc 1 67 0
 5179 00fa FFF7FEFF 		bl	_pal_lld_setgroupmode
 5180              	.LVL398:
 5181              	.LBB2174:
 5182              	.LBB2175:
 5183              		.loc 1 28 0
 5184 00fe 2846     		mov	r0, r5
 5185 0100 FFF7FEFF 		bl	chThdSleep
 5186              	.LVL399:
 5187              	.LBE2175:
ARM GAS  /tmp/ccz3Igsc.s 			page 92


 5188              	.LBE2174:
 5189              		.loc 1 69 0
 5190 0104 4946     		mov	r1, r9
 5191 0106 3846     		mov	r0, r7
 5192 0108 0522     		movs	r2, #5
 5193 010a FFF7FEFF 		bl	_pal_lld_setgroupmode
 5194              	.LVL400:
 5195              	.LBE2165:
 5196              	.LBE2164:
 5197              	.LBB2177:
 5198              	.LBB2178:
 5199              		.loc 1 136 0
 5200 010e C846     		mov	r8, r9	@ movhi
 5201              	.LBE2178:
 5202              	.LBE2177:
 5203              	.LBB2192:
 5204              	.LBB2176:
 5205              		.loc 1 69 0
 5206 0110 0824     		movs	r4, #8
 5207              	.LVL401:
 5208              	.L196:
 5209              	.LBE2176:
 5210              	.LBE2192:
 5211              	.LBB2193:
 5212              	.LBB2191:
 5213              	.LBB2179:
 5214              	.LBB2180:
 5215              		.loc 1 28 0
 5216 0112 0120     		movs	r0, #1
 5217              	.LBE2180:
 5218              	.LBE2179:
 5219              		.loc 1 136 0
 5220 0114 A7F81A80 		strh	r8, [r7, #26]	@ movhi
 5221              	.LBB2182:
 5222              	.LBB2181:
 5223              		.loc 1 28 0
 5224 0118 FFF7FEFF 		bl	chThdSleep
 5225              	.LVL402:
 5226              	.LBE2181:
 5227              	.LBE2182:
 5228              	.LBB2183:
 5229              	.LBB2184:
 5230 011c 0120     		movs	r0, #1
 5231              	.LBE2184:
 5232              	.LBE2183:
 5233              		.loc 1 138 0
 5234 011e 3583     		strh	r5, [r6, #24]	@ movhi
 5235              	.LBB2186:
 5236              	.LBB2185:
 5237              		.loc 1 28 0
 5238 0120 FFF7FEFF 		bl	chThdSleep
 5239              	.LVL403:
 5240              	.LBE2185:
 5241              	.LBE2186:
 5242              	.LBB2187:
 5243              	.LBB2188:
 5244 0124 0120     		movs	r0, #1
ARM GAS  /tmp/ccz3Igsc.s 			page 93


 5245 0126 FFF7FEFF 		bl	chThdSleep
 5246              	.LVL404:
 5247              	.LBE2188:
 5248              	.LBE2187:
 5249              		.loc 1 141 0
 5250 012a 7583     		strh	r5, [r6, #26]	@ movhi
 5251              	.LBB2189:
 5252              	.LBB2190:
 5253              		.loc 1 28 0
 5254 012c 0120     		movs	r0, #1
 5255 012e FFF7FEFF 		bl	chThdSleep
 5256              	.LVL405:
 5257 0132 631E     		subs	r3, r4, #1
 5258              	.LBE2190:
 5259              	.LBE2189:
 5260              		.loc 1 131 0
 5261 0134 13F0FF04 		ands	r4, r3, #255
 5262 0138 EBD1     		bne	.L196
 5263              	.LVL406:
 5264              	.LBE2191:
 5265              	.LBE2193:
 5266              	.LBB2194:
 5267              	.LBB2195:
 5268              		.loc 1 60 0
 5269 013a A7F81890 		strh	r9, [r7, #24]	@ movhi
 5270              	.LBB2196:
 5271              	.LBB2197:
 5272              		.loc 1 28 0
 5273 013e 0120     		movs	r0, #1
 5274 0140 FFF7FEFF 		bl	chThdSleep
 5275              	.LVL407:
 5276              	.LBE2197:
 5277              	.LBE2196:
 5278              	.LBB2198:
 5279              	.LBB2199:
 5280 0144 0120     		movs	r0, #1
 5281              	.LBE2199:
 5282              	.LBE2198:
 5283              		.loc 1 62 0
 5284 0146 3583     		strh	r5, [r6, #24]	@ movhi
 5285              	.LBB2201:
 5286              	.LBB2200:
 5287              		.loc 1 28 0
 5288 0148 FFF7FEFF 		bl	chThdSleep
 5289              	.LVL408:
 5290              	.LBE2200:
 5291              	.LBE2201:
 5292              		.loc 1 67 0
 5293 014c 7C48     		ldr	r0, .L369
 5294              		.loc 1 64 0
 5295 014e 7583     		strh	r5, [r6, #26]	@ movhi
 5296              		.loc 1 67 0
 5297 0150 0522     		movs	r2, #5
 5298              		.loc 1 66 0
 5299 0152 A7F81890 		strh	r9, [r7, #24]	@ movhi
 5300              		.loc 1 67 0
 5301 0156 4FF48051 		mov	r1, #4096
ARM GAS  /tmp/ccz3Igsc.s 			page 94


 5302              	.LBE2195:
 5303              	.LBE2194:
 5304              	.LBE2216:
 5305              	.LBE2219:
 5306              	.LBB2220:
 5307              	.LBB2221:
 5308              	.LBB2222:
 5309              	.LBB2223:
 5310              		.loc 1 136 0
 5311 015a 8046     		mov	r8, r0
 5312              	.LBE2223:
 5313              	.LBE2222:
 5314              	.LBE2221:
 5315              	.LBE2220:
 5316              	.LBB2368:
 5317              	.LBB2217:
 5318              	.LBB2205:
 5319              	.LBB2204:
 5320              		.loc 1 67 0
 5321 015c FFF7FEFF 		bl	_pal_lld_setgroupmode
 5322              	.LVL409:
 5323              	.LBB2202:
 5324              	.LBB2203:
 5325              		.loc 1 28 0
 5326 0160 0120     		movs	r0, #1
 5327 0162 FFF7FEFF 		bl	chThdSleep
 5328              	.LVL410:
 5329              	.LBE2203:
 5330              	.LBE2202:
 5331              		.loc 1 69 0
 5332 0166 0522     		movs	r2, #5
 5333 0168 4FF48051 		mov	r1, #4096
 5334 016c 4046     		mov	r0, r8
 5335 016e FFF7FEFF 		bl	_pal_lld_setgroupmode
 5336              	.LVL411:
 5337              	.LBE2204:
 5338              	.LBE2205:
 5339              	.LBB2206:
 5340              	.LBB2207:
 5341              	.LBB2208:
 5342              	.LBB2209:
 5343              		.loc 1 28 0
 5344 0172 0120     		movs	r0, #1
 5345              	.LBE2209:
 5346              	.LBE2208:
 5347              		.loc 1 52 0
 5348 0174 3583     		strh	r5, [r6, #24]	@ movhi
 5349              	.LBB2211:
 5350              	.LBB2210:
 5351              		.loc 1 28 0
 5352 0176 FFF7FEFF 		bl	chThdSleep
 5353              	.LVL412:
 5354              	.LBE2210:
 5355              	.LBE2211:
 5356              		.loc 1 54 0
 5357 017a A7F81890 		strh	r9, [r7, #24]	@ movhi
 5358              	.LBB2212:
ARM GAS  /tmp/ccz3Igsc.s 			page 95


 5359              	.LBB2213:
 5360              		.loc 1 28 0
 5361 017e 0120     		movs	r0, #1
 5362 0180 FFF7FEFF 		bl	chThdSleep
 5363              	.LVL413:
 5364              	.LBE2213:
 5365              	.LBE2212:
 5366              	.LBE2207:
 5367              	.LBE2206:
 5368              	.LBE2217:
 5369              	.LBE2368:
 5370              	.LBB2369:
 5371              	.LBB2366:
 5372              	.LBB2249:
 5373              	.LBB2250:
 5374              		.loc 1 44 0
 5375 0184 A7F81A90 		strh	r9, [r7, #26]	@ movhi
 5376              	.LBB2251:
 5377              	.LBB2252:
 5378              		.loc 1 28 0
 5379 0188 0120     		movs	r0, #1
 5380 018a FFF7FEFF 		bl	chThdSleep
 5381              	.LVL414:
 5382              	.LBE2252:
 5383              	.LBE2251:
 5384              		.loc 1 46 0
 5385 018e 7583     		strh	r5, [r6, #26]	@ movhi
 5386              	.LBB2253:
 5387              	.LBB2254:
 5388              		.loc 1 28 0
 5389 0190 0120     		movs	r0, #1
 5390 0192 FFF7FEFF 		bl	chThdSleep
 5391              	.LVL415:
 5392              	.LBE2254:
 5393              	.LBE2253:
 5394              	.LBE2250:
 5395              	.LBE2249:
 5396              	.LBB2258:
 5397              	.LBB2246:
 5398              		.loc 1 138 0
 5399 0196 6B4F     		ldr	r7, .L369+4
 5400              	.LBE2246:
 5401              	.LBE2258:
 5402              	.LBB2259:
 5403              	.LBB2257:
 5404              	.LBB2256:
 5405              	.LBB2255:
 5406              		.loc 1 28 0
 5407 0198 0724     		movs	r4, #7
 5408              	.LBE2255:
 5409              	.LBE2256:
 5410              	.LBE2257:
 5411              	.LBE2259:
 5412              	.LBB2260:
 5413              	.LBB2247:
 5414              		.loc 1 133 0
 5415 019a 4FF08009 		mov	r9, #128
ARM GAS  /tmp/ccz3Igsc.s 			page 96


 5416              	.LVL416:
 5417              	.L197:
 5418 019e 49FA04F3 		asr	r3, r9, r4
 5419              		.loc 1 138 0
 5420 01a2 0126     		movs	r6, #1
 5421              		.loc 1 133 0
 5422 01a4 DB07     		lsls	r3, r3, #31
 5423              		.loc 1 134 0
 5424 01a6 4FF48051 		mov	r1, #4096
 5425              	.LBB2224:
 5426              	.LBB2225:
 5427              		.loc 1 28 0
 5428 01aa 3046     		mov	r0, r6
 5429              	.LBE2225:
 5430              	.LBE2224:
 5431              		.loc 1 133 0
 5432 01ac 40F10382 		bpl	.L198
 5433              		.loc 1 134 0
 5434 01b0 A8F81810 		strh	r1, [r8, #24]	@ movhi
 5435              	.LBB2228:
 5436              	.LBB2226:
 5437              		.loc 1 28 0
 5438 01b4 FFF7FEFF 		bl	chThdSleep
 5439              	.LVL417:
 5440              	.LBE2226:
 5441              	.LBE2228:
 5442              	.LBB2229:
 5443              	.LBB2230:
 5444 01b8 3046     		mov	r0, r6
 5445              	.LBE2230:
 5446              	.LBE2229:
 5447              		.loc 1 138 0
 5448 01ba 3E83     		strh	r6, [r7, #24]	@ movhi
 5449              	.LBB2234:
 5450              	.LBB2231:
 5451              		.loc 1 28 0
 5452 01bc FFF7FEFF 		bl	chThdSleep
 5453              	.LVL418:
 5454              	.LBE2231:
 5455              	.LBE2234:
 5456              	.LBB2235:
 5457              	.LBB2236:
 5458 01c0 3046     		mov	r0, r6
 5459 01c2 FFF7FEFF 		bl	chThdSleep
 5460              	.LVL419:
 5461 01c6 013C     		subs	r4, r4, #1
 5462              	.LVL420:
 5463              	.LBE2236:
 5464              	.LBE2235:
 5465              		.loc 1 141 0
 5466 01c8 7E83     		strh	r6, [r7, #26]	@ movhi
 5467              	.LBB2238:
 5468              	.LBB2239:
 5469              		.loc 1 28 0
 5470 01ca 3046     		mov	r0, r6
 5471 01cc FFF7FEFF 		bl	chThdSleep
 5472              	.LVL421:
ARM GAS  /tmp/ccz3Igsc.s 			page 97


 5473              	.LBE2239:
 5474              	.LBE2238:
 5475              		.loc 1 131 0
 5476 01d0 611C     		adds	r1, r4, #1
 5477 01d2 E4D1     		bne	.L197
 5478              	.L199:
 5479              	.LVL422:
 5480              	.LBE2247:
 5481              	.LBE2260:
 5482              	.LBB2261:
 5483              	.LBB2262:
 5484              		.loc 1 60 0
 5485 01d4 5A4C     		ldr	r4, .L369
 5486              		.loc 1 62 0
 5487 01d6 5B4F     		ldr	r7, .L369+4
 5488              		.loc 1 60 0
 5489 01d8 4FF48055 		mov	r5, #4096
 5490              	.LBB2263:
 5491              	.LBB2264:
 5492              		.loc 1 28 0
 5493 01dc 0120     		movs	r0, #1
 5494              	.LBE2264:
 5495              	.LBE2263:
 5496              		.loc 1 62 0
 5497 01de 0646     		mov	r6, r0
 5498              		.loc 1 60 0
 5499 01e0 2583     		strh	r5, [r4, #24]	@ movhi
 5500              	.LBB2266:
 5501              	.LBB2265:
 5502              		.loc 1 28 0
 5503 01e2 FFF7FEFF 		bl	chThdSleep
 5504              	.LVL423:
 5505              	.LBE2265:
 5506              	.LBE2266:
 5507              	.LBB2267:
 5508              	.LBB2268:
 5509 01e6 3046     		mov	r0, r6
 5510              	.LBE2268:
 5511              	.LBE2267:
 5512              		.loc 1 62 0
 5513 01e8 3E83     		strh	r6, [r7, #24]	@ movhi
 5514              	.LBB2270:
 5515              	.LBB2269:
 5516              		.loc 1 28 0
 5517 01ea FFF7FEFF 		bl	chThdSleep
 5518              	.LVL424:
 5519              	.LBE2269:
 5520              	.LBE2270:
 5521              		.loc 1 67 0
 5522 01ee 2946     		mov	r1, r5
 5523 01f0 2046     		mov	r0, r4
 5524 01f2 0522     		movs	r2, #5
 5525              		.loc 1 64 0
 5526 01f4 7E83     		strh	r6, [r7, #26]	@ movhi
 5527              		.loc 1 66 0
 5528 01f6 2583     		strh	r5, [r4, #24]	@ movhi
 5529              		.loc 1 67 0
ARM GAS  /tmp/ccz3Igsc.s 			page 98


 5530 01f8 FFF7FEFF 		bl	_pal_lld_setgroupmode
 5531              	.LVL425:
 5532              	.LBB2271:
 5533              	.LBB2272:
 5534              		.loc 1 28 0
 5535 01fc 3046     		mov	r0, r6
 5536 01fe FFF7FEFF 		bl	chThdSleep
 5537              	.LVL426:
 5538              	.LBE2272:
 5539              	.LBE2271:
 5540              		.loc 1 69 0
 5541 0202 2046     		mov	r0, r4
 5542 0204 2946     		mov	r1, r5
 5543 0206 0522     		movs	r2, #5
 5544 0208 FFF7FEFF 		bl	_pal_lld_setgroupmode
 5545              	.LVL427:
 5546              	.LBE2262:
 5547              	.LBE2261:
 5548              	.LBB2274:
 5549              	.LBB2275:
 5550              		.loc 1 136 0
 5551 020c A046     		mov	r8, r4
 5552              		.loc 1 133 0
 5553 020e 4FF00609 		mov	r9, #6
 5554              	.LBE2275:
 5555              	.LBE2274:
 5556              	.LBB2300:
 5557              	.LBB2273:
 5558              		.loc 1 69 0
 5559 0212 0724     		movs	r4, #7
 5560              	.LVL428:
 5561              	.L201:
 5562              	.LBE2273:
 5563              	.LBE2300:
 5564              	.LBB2301:
 5565              	.LBB2298:
 5566              		.loc 1 133 0
 5567 0214 49FA04F3 		asr	r3, r9, r4
 5568              		.loc 1 138 0
 5569 0218 0126     		movs	r6, #1
 5570              		.loc 1 133 0
 5571 021a DB07     		lsls	r3, r3, #31
 5572              		.loc 1 134 0
 5573 021c 4FF48051 		mov	r1, #4096
 5574              	.LBB2276:
 5575              	.LBB2277:
 5576              		.loc 1 28 0
 5577 0220 3046     		mov	r0, r6
 5578              	.LBE2277:
 5579              	.LBE2276:
 5580              		.loc 1 133 0
 5581 0222 40F1B381 		bpl	.L202
 5582              		.loc 1 134 0
 5583 0226 A8F81810 		strh	r1, [r8, #24]	@ movhi
 5584              	.LBB2280:
 5585              	.LBB2278:
 5586              		.loc 1 28 0
ARM GAS  /tmp/ccz3Igsc.s 			page 99


 5587 022a FFF7FEFF 		bl	chThdSleep
 5588              	.LVL429:
 5589              	.LBE2278:
 5590              	.LBE2280:
 5591              	.LBB2281:
 5592              	.LBB2282:
 5593 022e 3046     		mov	r0, r6
 5594              	.LBE2282:
 5595              	.LBE2281:
 5596              		.loc 1 138 0
 5597 0230 3E83     		strh	r6, [r7, #24]	@ movhi
 5598              	.LBB2286:
 5599              	.LBB2283:
 5600              		.loc 1 28 0
 5601 0232 FFF7FEFF 		bl	chThdSleep
 5602              	.LVL430:
 5603              	.LBE2283:
 5604              	.LBE2286:
 5605              	.LBB2287:
 5606              	.LBB2288:
 5607 0236 3046     		mov	r0, r6
 5608 0238 FFF7FEFF 		bl	chThdSleep
 5609              	.LVL431:
 5610 023c 013C     		subs	r4, r4, #1
 5611              	.LVL432:
 5612              	.LBE2288:
 5613              	.LBE2287:
 5614              		.loc 1 141 0
 5615 023e 7E83     		strh	r6, [r7, #26]	@ movhi
 5616              	.LBB2290:
 5617              	.LBB2291:
 5618              		.loc 1 28 0
 5619 0240 3046     		mov	r0, r6
 5620 0242 FFF7FEFF 		bl	chThdSleep
 5621              	.LVL433:
 5622              	.LBE2291:
 5623              	.LBE2290:
 5624              		.loc 1 131 0
 5625 0246 611C     		adds	r1, r4, #1
 5626 0248 E4D1     		bne	.L201
 5627              	.L203:
 5628              	.LBE2298:
 5629              	.LBE2301:
 5630              	.LBB2302:
 5631              	.LBB2303:
 5632              		.loc 1 60 0
 5633 024a 3D4C     		ldr	r4, .L369
 5634              		.loc 1 62 0
 5635 024c 3D4F     		ldr	r7, .L369+4
 5636              		.loc 1 60 0
 5637 024e 4FF48055 		mov	r5, #4096
 5638              	.LBB2304:
 5639              	.LBB2305:
 5640              		.loc 1 28 0
 5641 0252 0120     		movs	r0, #1
 5642              	.LBE2305:
 5643              	.LBE2304:
ARM GAS  /tmp/ccz3Igsc.s 			page 100


 5644              		.loc 1 62 0
 5645 0254 0646     		mov	r6, r0
 5646              		.loc 1 60 0
 5647 0256 2583     		strh	r5, [r4, #24]	@ movhi
 5648              	.LBB2307:
 5649              	.LBB2306:
 5650              		.loc 1 28 0
 5651 0258 FFF7FEFF 		bl	chThdSleep
 5652              	.LVL434:
 5653              	.LBE2306:
 5654              	.LBE2307:
 5655              	.LBB2308:
 5656              	.LBB2309:
 5657 025c 3046     		mov	r0, r6
 5658              	.LBE2309:
 5659              	.LBE2308:
 5660              		.loc 1 62 0
 5661 025e 3E83     		strh	r6, [r7, #24]	@ movhi
 5662              	.LBB2311:
 5663              	.LBB2310:
 5664              		.loc 1 28 0
 5665 0260 FFF7FEFF 		bl	chThdSleep
 5666              	.LVL435:
 5667              	.LBE2310:
 5668              	.LBE2311:
 5669              		.loc 1 67 0
 5670 0264 2946     		mov	r1, r5
 5671 0266 2046     		mov	r0, r4
 5672 0268 0522     		movs	r2, #5
 5673              		.loc 1 64 0
 5674 026a 7E83     		strh	r6, [r7, #26]	@ movhi
 5675              		.loc 1 66 0
 5676 026c 2583     		strh	r5, [r4, #24]	@ movhi
 5677              		.loc 1 67 0
 5678 026e FFF7FEFF 		bl	_pal_lld_setgroupmode
 5679              	.LVL436:
 5680              	.LBB2312:
 5681              	.LBB2313:
 5682              		.loc 1 28 0
 5683 0272 3046     		mov	r0, r6
 5684 0274 FFF7FEFF 		bl	chThdSleep
 5685              	.LVL437:
 5686              	.LBE2313:
 5687              	.LBE2312:
 5688              		.loc 1 69 0
 5689 0278 2046     		mov	r0, r4
 5690 027a 2946     		mov	r1, r5
 5691 027c 0522     		movs	r2, #5
 5692 027e FFF7FEFF 		bl	_pal_lld_setgroupmode
 5693              	.LVL438:
 5694              	.LBE2303:
 5695              	.LBE2302:
 5696              	.LBB2315:
 5697              	.LBB2316:
 5698              		.loc 1 136 0
 5699 0282 A046     		mov	r8, r4
 5700              		.loc 1 133 0
ARM GAS  /tmp/ccz3Igsc.s 			page 101


 5701 0284 4FF09709 		mov	r9, #151
 5702              	.LBE2316:
 5703              	.LBE2315:
 5704              	.LBB2341:
 5705              	.LBB2314:
 5706              		.loc 1 69 0
 5707 0288 0724     		movs	r4, #7
 5708              	.LVL439:
 5709              	.L205:
 5710              	.LBE2314:
 5711              	.LBE2341:
 5712              	.LBB2342:
 5713              	.LBB2339:
 5714              		.loc 1 133 0
 5715 028a 49FA04F3 		asr	r3, r9, r4
 5716              		.loc 1 138 0
 5717 028e 0126     		movs	r6, #1
 5718              		.loc 1 133 0
 5719 0290 DB07     		lsls	r3, r3, #31
 5720              		.loc 1 134 0
 5721 0292 4FF48051 		mov	r1, #4096
 5722              	.LBB2317:
 5723              	.LBB2318:
 5724              		.loc 1 28 0
 5725 0296 3046     		mov	r0, r6
 5726              	.LBE2318:
 5727              	.LBE2317:
 5728              		.loc 1 133 0
 5729 0298 40F16381 		bpl	.L206
 5730              		.loc 1 134 0
 5731 029c A8F81810 		strh	r1, [r8, #24]	@ movhi
 5732              	.LBB2321:
 5733              	.LBB2319:
 5734              		.loc 1 28 0
 5735 02a0 FFF7FEFF 		bl	chThdSleep
 5736              	.LVL440:
 5737              	.LBE2319:
 5738              	.LBE2321:
 5739              	.LBB2322:
 5740              	.LBB2323:
 5741 02a4 3046     		mov	r0, r6
 5742              	.LBE2323:
 5743              	.LBE2322:
 5744              		.loc 1 138 0
 5745 02a6 3E83     		strh	r6, [r7, #24]	@ movhi
 5746              	.LBB2327:
 5747              	.LBB2324:
 5748              		.loc 1 28 0
 5749 02a8 FFF7FEFF 		bl	chThdSleep
 5750              	.LVL441:
 5751              	.LBE2324:
 5752              	.LBE2327:
 5753              	.LBB2328:
 5754              	.LBB2329:
 5755 02ac 3046     		mov	r0, r6
 5756 02ae FFF7FEFF 		bl	chThdSleep
 5757              	.LVL442:
ARM GAS  /tmp/ccz3Igsc.s 			page 102


 5758 02b2 013C     		subs	r4, r4, #1
 5759              	.LVL443:
 5760              	.LBE2329:
 5761              	.LBE2328:
 5762              		.loc 1 141 0
 5763 02b4 7E83     		strh	r6, [r7, #26]	@ movhi
 5764              	.LBB2331:
 5765              	.LBB2332:
 5766              		.loc 1 28 0
 5767 02b6 3046     		mov	r0, r6
 5768 02b8 FFF7FEFF 		bl	chThdSleep
 5769              	.LVL444:
 5770              	.LBE2332:
 5771              	.LBE2331:
 5772              		.loc 1 131 0
 5773 02bc 611C     		adds	r1, r4, #1
 5774 02be E4D1     		bne	.L205
 5775              	.L207:
 5776              	.LVL445:
 5777              	.LBE2339:
 5778              	.LBE2342:
 5779              	.LBB2343:
 5780              	.LBB2344:
 5781              		.loc 1 60 0
 5782 02c0 1F4F     		ldr	r7, .L369
 5783 02c2 214B     		ldr	r3, .L369+8
 5784              		.loc 1 62 0
 5785 02c4 1F4C     		ldr	r4, .L369+4
 5786 02c6 0193     		str	r3, [sp, #4]
 5787              		.loc 1 60 0
 5788 02c8 4FF48056 		mov	r6, #4096
 5789              	.LBB2345:
 5790              	.LBB2346:
 5791              		.loc 1 28 0
 5792 02cc 0120     		movs	r0, #1
 5793              	.LBE2346:
 5794              	.LBE2345:
 5795              		.loc 1 62 0
 5796 02ce 0546     		mov	r5, r0
 5797              		.loc 1 60 0
 5798 02d0 3E83     		strh	r6, [r7, #24]	@ movhi
 5799              	.LBB2348:
 5800              	.LBB2347:
 5801              		.loc 1 28 0
 5802 02d2 FFF7FEFF 		bl	chThdSleep
 5803              	.LVL446:
 5804              	.LBE2347:
 5805              	.LBE2348:
 5806              	.LBB2349:
 5807              	.LBB2350:
 5808 02d6 2846     		mov	r0, r5
 5809              	.LBE2350:
 5810              	.LBE2349:
 5811              		.loc 1 62 0
 5812 02d8 2583     		strh	r5, [r4, #24]	@ movhi
 5813              	.LBB2352:
 5814              	.LBB2351:
ARM GAS  /tmp/ccz3Igsc.s 			page 103


 5815              		.loc 1 28 0
 5816 02da FFF7FEFF 		bl	chThdSleep
 5817              	.LVL447:
 5818              	.LBE2351:
 5819              	.LBE2352:
 5820              		.loc 1 67 0
 5821 02de 3146     		mov	r1, r6
 5822 02e0 0522     		movs	r2, #5
 5823              		.loc 1 64 0
 5824 02e2 6583     		strh	r5, [r4, #26]	@ movhi
 5825              		.loc 1 67 0
 5826 02e4 3846     		mov	r0, r7
 5827              		.loc 1 66 0
 5828 02e6 3E83     		strh	r6, [r7, #24]	@ movhi
 5829              		.loc 1 67 0
 5830 02e8 FFF7FEFF 		bl	_pal_lld_setgroupmode
 5831              	.LVL448:
 5832              	.LBB2353:
 5833              	.LBB2354:
 5834              		.loc 1 28 0
 5835 02ec 2846     		mov	r0, r5
 5836 02ee FFF7FEFF 		bl	chThdSleep
 5837              	.LVL449:
 5838              	.LBE2354:
 5839              	.LBE2353:
 5840              		.loc 1 69 0
 5841 02f2 3146     		mov	r1, r6
 5842 02f4 0522     		movs	r2, #5
 5843 02f6 3846     		mov	r0, r7
 5844 02f8 FFF7FEFF 		bl	_pal_lld_setgroupmode
 5845              	.LVL450:
 5846              	.LBE2344:
 5847              	.LBE2343:
 5848              	.LBB2355:
 5849              	.LBB2356:
 5850              	.LBB2357:
 5851              	.LBB2358:
 5852              		.loc 1 28 0
 5853 02fc 2846     		mov	r0, r5
 5854              	.LBE2358:
 5855              	.LBE2357:
 5856              		.loc 1 52 0
 5857 02fe 2583     		strh	r5, [r4, #24]	@ movhi
 5858              	.LBB2360:
 5859              	.LBB2359:
 5860              		.loc 1 28 0
 5861 0300 FFF7FEFF 		bl	chThdSleep
 5862              	.LVL451:
 5863              	.LBE2359:
 5864              	.LBE2360:
 5865              		.loc 1 54 0
 5866 0304 3E83     		strh	r6, [r7, #24]	@ movhi
 5867              	.LBB2361:
 5868              	.LBB2362:
 5869              		.loc 1 28 0
 5870 0306 2846     		mov	r0, r5
 5871 0308 FFF7FEFF 		bl	chThdSleep
ARM GAS  /tmp/ccz3Igsc.s 			page 104


 5872              	.LVL452:
 5873              	.LBE2362:
 5874              	.LBE2361:
 5875              	.LBE2356:
 5876              	.LBE2355:
 5877              	.LBE2366:
 5878              	.LBE2369:
 5879              		.loc 1 287 0
 5880 030c 0A20     		movs	r0, #10
 5881 030e FFF7FEFF 		bl	chThdSleep
 5882              	.LVL453:
 5883 0312 019A     		ldr	r2, [sp, #4]
 5884              	.LBB2370:
 5885              	.LBB2371:
 5886              	.LBB2372:
 5887              	.LBB2373:
 5888              	.LBB2374:
 5889              	.LBB2375:
 5890              	.LBB2376:
 5891              	.LBB2377:
 5892              		.loc 1 44 0
 5893 0314 3E46     		mov	r6, r7
 5894              	.LVL454:
 5895              	.L222:
 5896              	.LBE2377:
 5897              	.LBE2376:
 5898              	.LBE2375:
 5899              	.LBE2374:
 5900              	.LBE2373:
 5901              		.loc 1 293 0
 5902 0316 1778     		ldrb	r7, [r2]	@ zero_extendqisi2
 5903              	.LVL455:
 5904              		.loc 1 294 0
 5905 0318 FF2F     		cmp	r7, #255
 5906 031a 00F08D81 		beq	.L209
 5907              	.LVL456:
 5908              	.LBB2522:
 5909              	.LBB2517:
 5910              	.LBB2514:
 5911              	.LBB2384:
 5912              	.LBB2382:
 5913              		.loc 1 44 0
 5914 031e 4FF48053 		mov	r3, #4096
 5915              	.LBE2382:
 5916              	.LBE2384:
 5917              	.LBE2514:
 5918              	.LBE2517:
 5919              	.LBE2522:
 5920              		.loc 1 296 0
 5921 0322 92F80180 		ldrb	r8, [r2, #1]	@ zero_extendqisi2
 5922              	.LVL457:
 5923              	.LBB2523:
 5924              	.LBB2518:
 5925              	.LBB2515:
 5926              	.LBB2385:
 5927              	.LBB2383:
 5928              		.loc 1 44 0
ARM GAS  /tmp/ccz3Igsc.s 			page 105


 5929 0326 7383     		strh	r3, [r6, #26]	@ movhi
 5930              	.LBB2378:
 5931              	.LBB2379:
 5932              		.loc 1 28 0
 5933 0328 0120     		movs	r0, #1
 5934 032a FFF7FEFF 		bl	chThdSleep
 5935              	.LVL458:
 5936              	.LBE2379:
 5937              	.LBE2378:
 5938              		.loc 1 46 0
 5939 032e 0120     		movs	r0, #1
 5940 0330 6083     		strh	r0, [r4, #26]	@ movhi
 5941              	.LBB2380:
 5942              	.LBB2381:
 5943              		.loc 1 28 0
 5944 0332 FFF7FEFF 		bl	chThdSleep
 5945              	.LVL459:
 5946 0336 0725     		movs	r5, #7
 5947              	.LBE2381:
 5948              	.LBE2380:
 5949              	.LBE2383:
 5950              	.LBE2385:
 5951              	.LBB2386:
 5952              	.LBB2387:
 5953              		.loc 1 133 0
 5954 0338 4FF0800B 		mov	fp, #128
 5955 033c 06E0     		b	.L370
 5956              	.L371:
 5957 033e 00BF     		.align	2
 5958              	.L369:
 5959 0340 001C0240 		.word	1073880064
 5960 0344 00200240 		.word	1073881088
 5961 0348 00000000 		.word	.LANCHOR0
 5962              	.L370:
 5963              	.LVL460:
 5964              	.L210:
 5965 034c 4BFA05F1 		asr	r1, fp, r5
 5966              		.loc 1 138 0
 5967 0350 4FF0010A 		mov	r10, #1
 5968              		.loc 1 133 0
 5969 0354 CB07     		lsls	r3, r1, #31
 5970              		.loc 1 134 0
 5971 0356 4FF4805E 		mov	lr, #4096
 5972              	.LBB2388:
 5973              	.LBB2389:
 5974              		.loc 1 28 0
 5975 035a 5046     		mov	r0, r10
 5976              	.LBE2389:
 5977              	.LBE2388:
 5978              		.loc 1 133 0
 5979 035c 40F1EA80 		bpl	.L211
 5980              		.loc 1 134 0
 5981 0360 A6F818E0 		strh	lr, [r6, #24]	@ movhi
 5982              	.LBB2392:
 5983              	.LBB2390:
 5984              		.loc 1 28 0
 5985 0364 FFF7FEFF 		bl	chThdSleep
ARM GAS  /tmp/ccz3Igsc.s 			page 106


 5986              	.LVL461:
 5987              	.LBE2390:
 5988              	.LBE2392:
 5989              	.LBB2393:
 5990              	.LBB2394:
 5991 0368 5046     		mov	r0, r10
 5992              	.LBE2394:
 5993              	.LBE2393:
 5994              		.loc 1 138 0
 5995 036a A4F818A0 		strh	r10, [r4, #24]	@ movhi
 5996              	.LBB2398:
 5997              	.LBB2395:
 5998              		.loc 1 28 0
 5999 036e FFF7FEFF 		bl	chThdSleep
 6000              	.LVL462:
 6001              	.LBE2395:
 6002              	.LBE2398:
 6003              	.LBB2399:
 6004              	.LBB2400:
 6005 0372 5046     		mov	r0, r10
 6006 0374 FFF7FEFF 		bl	chThdSleep
 6007              	.LVL463:
 6008 0378 013D     		subs	r5, r5, #1
 6009              	.LVL464:
 6010              	.LBE2400:
 6011              	.LBE2399:
 6012              		.loc 1 141 0
 6013 037a A4F81AA0 		strh	r10, [r4, #26]	@ movhi
 6014              	.LBB2402:
 6015              	.LBB2403:
 6016              		.loc 1 28 0
 6017 037e 5046     		mov	r0, r10
 6018 0380 FFF7FEFF 		bl	chThdSleep
 6019              	.LVL465:
 6020              	.LBE2403:
 6021              	.LBE2402:
 6022              		.loc 1 131 0
 6023 0384 691C     		adds	r1, r5, #1
 6024 0386 E1D1     		bne	.L210
 6025              	.L212:
 6026              	.LVL466:
 6027              	.LBE2387:
 6028              	.LBE2386:
 6029              	.LBB2411:
 6030              	.LBB2412:
 6031              		.loc 1 60 0
 6032 0388 4FF4805B 		mov	fp, #4096
 6033              	.LBB2413:
 6034              	.LBB2414:
 6035              		.loc 1 28 0
 6036 038c 0120     		movs	r0, #1
 6037              	.LBE2414:
 6038              	.LBE2413:
 6039              		.loc 1 62 0
 6040 038e 0546     		mov	r5, r0
 6041              		.loc 1 60 0
 6042 0390 A6F818B0 		strh	fp, [r6, #24]	@ movhi
ARM GAS  /tmp/ccz3Igsc.s 			page 107


 6043              	.LBB2416:
 6044              	.LBB2415:
 6045              		.loc 1 28 0
 6046 0394 FFF7FEFF 		bl	chThdSleep
 6047              	.LVL467:
 6048              	.LBE2415:
 6049              	.LBE2416:
 6050              	.LBB2417:
 6051              	.LBB2418:
 6052 0398 2846     		mov	r0, r5
 6053              	.LBE2418:
 6054              	.LBE2417:
 6055              		.loc 1 62 0
 6056 039a 2583     		strh	r5, [r4, #24]	@ movhi
 6057              	.LBB2420:
 6058              	.LBB2419:
 6059              		.loc 1 28 0
 6060 039c FFF7FEFF 		bl	chThdSleep
 6061              	.LVL468:
 6062              	.LBE2419:
 6063              	.LBE2420:
 6064              		.loc 1 64 0
 6065 03a0 6583     		strh	r5, [r4, #26]	@ movhi
 6066              		.loc 1 67 0
 6067 03a2 5946     		mov	r1, fp
 6068 03a4 0522     		movs	r2, #5
 6069 03a6 A348     		ldr	r0, .L372
 6070              		.loc 1 66 0
 6071 03a8 A6F818B0 		strh	fp, [r6, #24]	@ movhi
 6072              		.loc 1 67 0
 6073 03ac FFF7FEFF 		bl	_pal_lld_setgroupmode
 6074              	.LVL469:
 6075              	.LBB2421:
 6076              	.LBB2422:
 6077              		.loc 1 28 0
 6078 03b0 2846     		mov	r0, r5
 6079 03b2 FFF7FEFF 		bl	chThdSleep
 6080              	.LVL470:
 6081              	.LBE2422:
 6082              	.LBE2421:
 6083              		.loc 1 69 0
 6084 03b6 5946     		mov	r1, fp
 6085 03b8 0522     		movs	r2, #5
 6086 03ba 9E48     		ldr	r0, .L372
 6087 03bc FFF7FEFF 		bl	_pal_lld_setgroupmode
 6088              	.LVL471:
 6089 03c0 0725     		movs	r5, #7
 6090              	.LVL472:
 6091              	.L214:
 6092              	.LBE2412:
 6093              	.LBE2411:
 6094              	.LBB2423:
 6095              	.LBB2424:
 6096              		.loc 1 133 0
 6097 03c2 47FA05F1 		asr	r1, r7, r5
 6098              		.loc 1 138 0
 6099 03c6 4FF0010A 		mov	r10, #1
ARM GAS  /tmp/ccz3Igsc.s 			page 108


 6100              		.loc 1 133 0
 6101 03ca CB07     		lsls	r3, r1, #31
 6102              	.LBB2425:
 6103              	.LBB2426:
 6104              		.loc 1 28 0
 6105 03cc 5046     		mov	r0, r10
 6106              	.LBE2426:
 6107              	.LBE2425:
 6108              		.loc 1 133 0
 6109 03ce 40F19A80 		bpl	.L215
 6110              		.loc 1 134 0
 6111 03d2 A6F818B0 		strh	fp, [r6, #24]	@ movhi
 6112              	.LBB2430:
 6113              	.LBB2427:
 6114              		.loc 1 28 0
 6115 03d6 FFF7FEFF 		bl	chThdSleep
 6116              	.LVL473:
 6117              	.LBE2427:
 6118              	.LBE2430:
 6119              	.LBB2431:
 6120              	.LBB2432:
 6121 03da 5046     		mov	r0, r10
 6122              	.LBE2432:
 6123              	.LBE2431:
 6124              		.loc 1 138 0
 6125 03dc A4F818A0 		strh	r10, [r4, #24]	@ movhi
 6126              	.LBB2436:
 6127              	.LBB2433:
 6128              		.loc 1 28 0
 6129 03e0 FFF7FEFF 		bl	chThdSleep
 6130              	.LVL474:
 6131              	.LBE2433:
 6132              	.LBE2436:
 6133              	.LBB2437:
 6134              	.LBB2438:
 6135 03e4 5046     		mov	r0, r10
 6136 03e6 FFF7FEFF 		bl	chThdSleep
 6137              	.LVL475:
 6138 03ea 013D     		subs	r5, r5, #1
 6139              	.LVL476:
 6140              	.LBE2438:
 6141              	.LBE2437:
 6142              		.loc 1 141 0
 6143 03ec A4F81AA0 		strh	r10, [r4, #26]	@ movhi
 6144              	.LBB2440:
 6145              	.LBB2441:
 6146              		.loc 1 28 0
 6147 03f0 5046     		mov	r0, r10
 6148 03f2 FFF7FEFF 		bl	chThdSleep
 6149              	.LVL477:
 6150              	.LBE2441:
 6151              	.LBE2440:
 6152              		.loc 1 131 0
 6153 03f6 691C     		adds	r1, r5, #1
 6154 03f8 E3D1     		bne	.L214
 6155              	.L216:
 6156              	.LBE2424:
ARM GAS  /tmp/ccz3Igsc.s 			page 109


 6157              	.LBE2423:
 6158              	.LBB2450:
 6159              	.LBB2451:
 6160              		.loc 1 60 0
 6161 03fa 4FF4805B 		mov	fp, #4096
 6162              	.LBB2452:
 6163              	.LBB2453:
 6164              		.loc 1 28 0
 6165 03fe 0120     		movs	r0, #1
 6166              	.LBE2453:
 6167              	.LBE2452:
 6168              		.loc 1 62 0
 6169 0400 0546     		mov	r5, r0
 6170              		.loc 1 60 0
 6171 0402 A6F818B0 		strh	fp, [r6, #24]	@ movhi
 6172              	.LBB2455:
 6173              	.LBB2454:
 6174              		.loc 1 28 0
 6175 0406 FFF7FEFF 		bl	chThdSleep
 6176              	.LVL478:
 6177              	.LBE2454:
 6178              	.LBE2455:
 6179              	.LBB2456:
 6180              	.LBB2457:
 6181 040a 2846     		mov	r0, r5
 6182              	.LBE2457:
 6183              	.LBE2456:
 6184              		.loc 1 62 0
 6185 040c 2583     		strh	r5, [r4, #24]	@ movhi
 6186              	.LBB2459:
 6187              	.LBB2458:
 6188              		.loc 1 28 0
 6189 040e FFF7FEFF 		bl	chThdSleep
 6190              	.LVL479:
 6191              	.LBE2458:
 6192              	.LBE2459:
 6193              		.loc 1 64 0
 6194 0412 6583     		strh	r5, [r4, #26]	@ movhi
 6195              		.loc 1 67 0
 6196 0414 5946     		mov	r1, fp
 6197 0416 0522     		movs	r2, #5
 6198 0418 8648     		ldr	r0, .L372
 6199              		.loc 1 66 0
 6200 041a A6F818B0 		strh	fp, [r6, #24]	@ movhi
 6201              		.loc 1 67 0
 6202 041e FFF7FEFF 		bl	_pal_lld_setgroupmode
 6203              	.LVL480:
 6204              	.LBB2460:
 6205              	.LBB2461:
 6206              		.loc 1 28 0
 6207 0422 2846     		mov	r0, r5
 6208 0424 FFF7FEFF 		bl	chThdSleep
 6209              	.LVL481:
 6210              	.LBE2461:
 6211              	.LBE2460:
 6212              		.loc 1 69 0
 6213 0428 5946     		mov	r1, fp
ARM GAS  /tmp/ccz3Igsc.s 			page 110


 6214 042a 0522     		movs	r2, #5
 6215 042c 8148     		ldr	r0, .L372
 6216 042e FFF7FEFF 		bl	_pal_lld_setgroupmode
 6217              	.LVL482:
 6218 0432 0725     		movs	r5, #7
 6219              	.LVL483:
 6220              	.L218:
 6221              	.LBE2451:
 6222              	.LBE2450:
 6223              	.LBB2462:
 6224              	.LBB2463:
 6225              		.loc 1 133 0
 6226 0434 48FA05F1 		asr	r1, r8, r5
 6227              		.loc 1 138 0
 6228 0438 4FF00109 		mov	r9, #1
 6229              		.loc 1 133 0
 6230 043c CB07     		lsls	r3, r1, #31
 6231              	.LBB2464:
 6232              	.LBB2465:
 6233              		.loc 1 28 0
 6234 043e 4846     		mov	r0, r9
 6235              	.LBE2465:
 6236              	.LBE2464:
 6237              		.loc 1 133 0
 6238 0440 4BD5     		bpl	.L219
 6239              		.loc 1 134 0
 6240 0442 A6F818B0 		strh	fp, [r6, #24]	@ movhi
 6241              	.LBB2469:
 6242              	.LBB2466:
 6243              		.loc 1 28 0
 6244 0446 FFF7FEFF 		bl	chThdSleep
 6245              	.LVL484:
 6246              	.LBE2466:
 6247              	.LBE2469:
 6248              	.LBB2470:
 6249              	.LBB2471:
 6250 044a 4846     		mov	r0, r9
 6251              	.LBE2471:
 6252              	.LBE2470:
 6253              		.loc 1 138 0
 6254 044c A4F81890 		strh	r9, [r4, #24]	@ movhi
 6255              	.LBB2475:
 6256              	.LBB2472:
 6257              		.loc 1 28 0
 6258 0450 FFF7FEFF 		bl	chThdSleep
 6259              	.LVL485:
 6260              	.LBE2472:
 6261              	.LBE2475:
 6262              	.LBB2476:
 6263              	.LBB2477:
 6264 0454 4846     		mov	r0, r9
 6265 0456 FFF7FEFF 		bl	chThdSleep
 6266              	.LVL486:
 6267 045a 013D     		subs	r5, r5, #1
 6268              	.LVL487:
 6269              	.LBE2477:
 6270              	.LBE2476:
ARM GAS  /tmp/ccz3Igsc.s 			page 111


 6271              		.loc 1 141 0
 6272 045c A4F81A90 		strh	r9, [r4, #26]	@ movhi
 6273              	.LBB2479:
 6274              	.LBB2480:
 6275              		.loc 1 28 0
 6276 0460 4846     		mov	r0, r9
 6277 0462 FFF7FEFF 		bl	chThdSleep
 6278              	.LVL488:
 6279              	.LBE2480:
 6280              	.LBE2479:
 6281              		.loc 1 131 0
 6282 0466 691C     		adds	r1, r5, #1
 6283 0468 E4D1     		bne	.L218
 6284              	.L220:
 6285              	.LVL489:
 6286              	.LBE2463:
 6287              	.LBE2462:
 6288              	.LBB2489:
 6289              	.LBB2490:
 6290              		.loc 1 60 0
 6291 046a 4FF4805B 		mov	fp, #4096
 6292              	.LBB2491:
 6293              	.LBB2492:
 6294              		.loc 1 28 0
 6295 046e 0120     		movs	r0, #1
 6296              	.LBE2492:
 6297              	.LBE2491:
 6298              		.loc 1 62 0
 6299 0470 0546     		mov	r5, r0
 6300              		.loc 1 60 0
 6301 0472 A6F818B0 		strh	fp, [r6, #24]	@ movhi
 6302              	.LBB2494:
 6303              	.LBB2493:
 6304              		.loc 1 28 0
 6305 0476 FFF7FEFF 		bl	chThdSleep
 6306              	.LVL490:
 6307              	.LBE2493:
 6308              	.LBE2494:
 6309              	.LBB2495:
 6310              	.LBB2496:
 6311 047a 2846     		mov	r0, r5
 6312              	.LBE2496:
 6313              	.LBE2495:
 6314              		.loc 1 62 0
 6315 047c 2583     		strh	r5, [r4, #24]	@ movhi
 6316              	.LBB2498:
 6317              	.LBB2497:
 6318              		.loc 1 28 0
 6319 047e FFF7FEFF 		bl	chThdSleep
 6320              	.LVL491:
 6321              	.LBE2497:
 6322              	.LBE2498:
 6323              		.loc 1 67 0
 6324 0482 5946     		mov	r1, fp
 6325 0484 0522     		movs	r2, #5
 6326              		.loc 1 64 0
 6327 0486 6583     		strh	r5, [r4, #26]	@ movhi
ARM GAS  /tmp/ccz3Igsc.s 			page 112


 6328              		.loc 1 67 0
 6329 0488 6A48     		ldr	r0, .L372
 6330              		.loc 1 66 0
 6331 048a A6F818B0 		strh	fp, [r6, #24]	@ movhi
 6332              		.loc 1 67 0
 6333 048e FFF7FEFF 		bl	_pal_lld_setgroupmode
 6334              	.LVL492:
 6335              	.LBB2499:
 6336              	.LBB2500:
 6337              		.loc 1 28 0
 6338 0492 2846     		mov	r0, r5
 6339 0494 FFF7FEFF 		bl	chThdSleep
 6340              	.LVL493:
 6341              	.LBE2500:
 6342              	.LBE2499:
 6343              		.loc 1 69 0
 6344 0498 0522     		movs	r2, #5
 6345 049a 5946     		mov	r1, fp
 6346 049c 6548     		ldr	r0, .L372
 6347 049e FFF7FEFF 		bl	_pal_lld_setgroupmode
 6348              	.LVL494:
 6349              	.LBE2490:
 6350              	.LBE2489:
 6351              	.LBB2501:
 6352              	.LBB2502:
 6353              	.LBB2503:
 6354              	.LBB2504:
 6355              		.loc 1 28 0
 6356 04a2 2846     		mov	r0, r5
 6357              	.LBE2504:
 6358              	.LBE2503:
 6359              		.loc 1 52 0
 6360 04a4 2583     		strh	r5, [r4, #24]	@ movhi
 6361              	.LBB2506:
 6362              	.LBB2505:
 6363              		.loc 1 28 0
 6364 04a6 FFF7FEFF 		bl	chThdSleep
 6365              	.LVL495:
 6366              	.LBE2505:
 6367              	.LBE2506:
 6368              	.LBB2507:
 6369              	.LBB2508:
 6370 04aa 2846     		mov	r0, r5
 6371              	.LBE2508:
 6372              	.LBE2507:
 6373              		.loc 1 54 0
 6374 04ac A6F818B0 		strh	fp, [r6, #24]	@ movhi
 6375              	.LBB2510:
 6376              	.LBB2509:
 6377              		.loc 1 28 0
 6378 04b0 FFF7FEFF 		bl	chThdSleep
 6379              	.LVL496:
 6380              	.LBE2509:
 6381              	.LBE2510:
 6382              	.LBE2502:
 6383              	.LBE2501:
 6384              	.LBE2515:
ARM GAS  /tmp/ccz3Igsc.s 			page 113


 6385              	.LBE2518:
 6386              	.LBB2519:
 6387              	.LBB2520:
 6388              		.loc 1 269 0
 6389 04b4 04A9     		add	r1, sp, #16
 6390 04b6 0023     		movs	r3, #0
 6391 04b8 01F8013D 		strb	r3, [r1, #-1]!
 6392              		.loc 1 270 0
 6393 04bc 3846     		mov	r0, r7
 6394 04be FFF7FEFF 		bl	_Z17swi2c_readByte_A8hhPh.constprop.1
 6395              	.LVL497:
 6396 04c2 019A     		ldr	r2, [sp, #4]
 6397              		.loc 1 271 0
 6398 04c4 9DF80F30 		ldrb	r3, [sp, #15]	@ zero_extendqisi2
 6399              	.LVL498:
 6400 04c8 0232     		adds	r2, r2, #2
 6401              	.LBE2520:
 6402              	.LBE2519:
 6403              	.LBE2523:
 6404              		.loc 1 296 0
 6405 04ca 9845     		cmp	r8, r3
 6406 04cc 0192     		str	r2, [sp, #4]
 6407 04ce 3FF422AF 		beq	.L222
 6408              	.LVL499:
 6409              	.L249:
 6410              		.loc 1 298 0
 6411 04d2 0020     		movs	r0, #0
 6412              	.LBE2372:
 6413              	.LBE2371:
 6414              	.LBE2370:
 6415              		.loc 1 325 0
 6416 04d4 05B0     		add	sp, sp, #20
 6417              		.cfi_remember_state
 6418              		.cfi_def_cfa_offset 36
 6419              		@ sp needed
 6420 04d6 BDE8F08F 		pop	{r4, r5, r6, r7, r8, r9, r10, fp, pc}
 6421              	.LVL500:
 6422              	.L219:
 6423              		.cfi_restore_state
 6424              	.LBB2527:
 6425              	.LBB2526:
 6426              	.LBB2525:
 6427              	.LBB2524:
 6428              	.LBB2521:
 6429              	.LBB2516:
 6430              	.LBB2511:
 6431              	.LBB2488:
 6432              	.LBB2482:
 6433              	.LBB2467:
 6434              		.loc 1 28 0
 6435 04da 0120     		movs	r0, #1
 6436              	.LBE2467:
 6437              	.LBE2482:
 6438              		.loc 1 136 0
 6439 04dc A6F81AB0 		strh	fp, [r6, #26]	@ movhi
 6440              	.LBB2483:
 6441              	.LBB2468:
ARM GAS  /tmp/ccz3Igsc.s 			page 114


 6442              		.loc 1 28 0
 6443 04e0 FFF7FEFF 		bl	chThdSleep
 6444              	.LVL501:
 6445              	.LBE2468:
 6446              	.LBE2483:
 6447              	.LBB2484:
 6448              	.LBB2473:
 6449 04e4 4846     		mov	r0, r9
 6450              	.LBE2473:
 6451              	.LBE2484:
 6452              		.loc 1 138 0
 6453 04e6 A4F81890 		strh	r9, [r4, #24]	@ movhi
 6454              	.LBB2485:
 6455              	.LBB2474:
 6456              		.loc 1 28 0
 6457 04ea FFF7FEFF 		bl	chThdSleep
 6458              	.LVL502:
 6459              	.LBE2474:
 6460              	.LBE2485:
 6461              	.LBB2486:
 6462              	.LBB2478:
 6463 04ee 4846     		mov	r0, r9
 6464 04f0 FFF7FEFF 		bl	chThdSleep
 6465              	.LVL503:
 6466 04f4 013D     		subs	r5, r5, #1
 6467              	.LVL504:
 6468              	.LBE2478:
 6469              	.LBE2486:
 6470              		.loc 1 141 0
 6471 04f6 A4F81A90 		strh	r9, [r4, #26]	@ movhi
 6472              	.LBB2487:
 6473              	.LBB2481:
 6474              		.loc 1 28 0
 6475 04fa 4846     		mov	r0, r9
 6476 04fc FFF7FEFF 		bl	chThdSleep
 6477              	.LVL505:
 6478              	.LBE2481:
 6479              	.LBE2487:
 6480              		.loc 1 131 0
 6481 0500 6A1C     		adds	r2, r5, #1
 6482 0502 97D1     		bne	.L218
 6483 0504 B1E7     		b	.L220
 6484              	.LVL506:
 6485              	.L215:
 6486              	.LBE2488:
 6487              	.LBE2511:
 6488              	.LBB2512:
 6489              	.LBB2449:
 6490              	.LBB2443:
 6491              	.LBB2428:
 6492              		.loc 1 28 0
 6493 0506 0120     		movs	r0, #1
 6494              	.LBE2428:
 6495              	.LBE2443:
 6496              		.loc 1 136 0
 6497 0508 A6F81AB0 		strh	fp, [r6, #26]	@ movhi
 6498              	.LBB2444:
ARM GAS  /tmp/ccz3Igsc.s 			page 115


 6499              	.LBB2429:
 6500              		.loc 1 28 0
 6501 050c FFF7FEFF 		bl	chThdSleep
 6502              	.LVL507:
 6503              	.LBE2429:
 6504              	.LBE2444:
 6505              	.LBB2445:
 6506              	.LBB2434:
 6507 0510 5046     		mov	r0, r10
 6508              	.LBE2434:
 6509              	.LBE2445:
 6510              		.loc 1 138 0
 6511 0512 A4F818A0 		strh	r10, [r4, #24]	@ movhi
 6512              	.LBB2446:
 6513              	.LBB2435:
 6514              		.loc 1 28 0
 6515 0516 FFF7FEFF 		bl	chThdSleep
 6516              	.LVL508:
 6517              	.LBE2435:
 6518              	.LBE2446:
 6519              	.LBB2447:
 6520              	.LBB2439:
 6521 051a 5046     		mov	r0, r10
 6522 051c FFF7FEFF 		bl	chThdSleep
 6523              	.LVL509:
 6524 0520 013D     		subs	r5, r5, #1
 6525              	.LVL510:
 6526              	.LBE2439:
 6527              	.LBE2447:
 6528              		.loc 1 141 0
 6529 0522 A4F81AA0 		strh	r10, [r4, #26]	@ movhi
 6530              	.LBB2448:
 6531              	.LBB2442:
 6532              		.loc 1 28 0
 6533 0526 5046     		mov	r0, r10
 6534 0528 FFF7FEFF 		bl	chThdSleep
 6535              	.LVL511:
 6536              	.LBE2442:
 6537              	.LBE2448:
 6538              		.loc 1 131 0
 6539 052c 6A1C     		adds	r2, r5, #1
 6540 052e 7FF448AF 		bne	.L214
 6541 0532 62E7     		b	.L216
 6542              	.LVL512:
 6543              	.L211:
 6544              	.LBE2449:
 6545              	.LBE2512:
 6546              	.LBB2513:
 6547              	.LBB2410:
 6548              		.loc 1 136 0
 6549 0534 A6F81AE0 		strh	lr, [r6, #26]	@ movhi
 6550              	.LBB2405:
 6551              	.LBB2391:
 6552              		.loc 1 28 0
 6553 0538 0120     		movs	r0, #1
 6554 053a FFF7FEFF 		bl	chThdSleep
 6555              	.LVL513:
ARM GAS  /tmp/ccz3Igsc.s 			page 116


 6556              	.LBE2391:
 6557              	.LBE2405:
 6558              	.LBB2406:
 6559              	.LBB2396:
 6560 053e 5046     		mov	r0, r10
 6561              	.LBE2396:
 6562              	.LBE2406:
 6563              		.loc 1 138 0
 6564 0540 A4F818A0 		strh	r10, [r4, #24]	@ movhi
 6565              	.LBB2407:
 6566              	.LBB2397:
 6567              		.loc 1 28 0
 6568 0544 FFF7FEFF 		bl	chThdSleep
 6569              	.LVL514:
 6570              	.LBE2397:
 6571              	.LBE2407:
 6572              	.LBB2408:
 6573              	.LBB2401:
 6574 0548 5046     		mov	r0, r10
 6575 054a FFF7FEFF 		bl	chThdSleep
 6576              	.LVL515:
 6577 054e 013D     		subs	r5, r5, #1
 6578              	.LVL516:
 6579              	.LBE2401:
 6580              	.LBE2408:
 6581              		.loc 1 141 0
 6582 0550 A4F81AA0 		strh	r10, [r4, #26]	@ movhi
 6583              	.LBB2409:
 6584              	.LBB2404:
 6585              		.loc 1 28 0
 6586 0554 5046     		mov	r0, r10
 6587 0556 FFF7FEFF 		bl	chThdSleep
 6588              	.LVL517:
 6589              	.LBE2404:
 6590              	.LBE2409:
 6591              		.loc 1 131 0
 6592 055a 6A1C     		adds	r2, r5, #1
 6593 055c 7FF4F6AE 		bne	.L210
 6594 0560 12E7     		b	.L212
 6595              	.LVL518:
 6596              	.L206:
 6597              	.LBE2410:
 6598              	.LBE2513:
 6599              	.LBE2516:
 6600              	.LBE2521:
 6601              	.LBE2524:
 6602              	.LBE2525:
 6603              	.LBE2526:
 6604              	.LBE2527:
 6605              	.LBB2528:
 6606              	.LBB2367:
 6607              	.LBB2363:
 6608              	.LBB2340:
 6609              		.loc 1 136 0
 6610 0562 A8F81A10 		strh	r1, [r8, #26]	@ movhi
 6611              	.LBB2334:
 6612              	.LBB2320:
ARM GAS  /tmp/ccz3Igsc.s 			page 117


 6613              		.loc 1 28 0
 6614 0566 0120     		movs	r0, #1
 6615 0568 FFF7FEFF 		bl	chThdSleep
 6616              	.LVL519:
 6617              	.LBE2320:
 6618              	.LBE2334:
 6619              	.LBB2335:
 6620              	.LBB2325:
 6621 056c 3046     		mov	r0, r6
 6622              	.LBE2325:
 6623              	.LBE2335:
 6624              		.loc 1 138 0
 6625 056e 3E83     		strh	r6, [r7, #24]	@ movhi
 6626              	.LBB2336:
 6627              	.LBB2326:
 6628              		.loc 1 28 0
 6629 0570 FFF7FEFF 		bl	chThdSleep
 6630              	.LVL520:
 6631              	.LBE2326:
 6632              	.LBE2336:
 6633              	.LBB2337:
 6634              	.LBB2330:
 6635 0574 3046     		mov	r0, r6
 6636 0576 FFF7FEFF 		bl	chThdSleep
 6637              	.LVL521:
 6638 057a 013C     		subs	r4, r4, #1
 6639              	.LVL522:
 6640              	.LBE2330:
 6641              	.LBE2337:
 6642              		.loc 1 141 0
 6643 057c 7E83     		strh	r6, [r7, #26]	@ movhi
 6644              	.LBB2338:
 6645              	.LBB2333:
 6646              		.loc 1 28 0
 6647 057e 3046     		mov	r0, r6
 6648 0580 FFF7FEFF 		bl	chThdSleep
 6649              	.LVL523:
 6650              	.LBE2333:
 6651              	.LBE2338:
 6652              		.loc 1 131 0
 6653 0584 621C     		adds	r2, r4, #1
 6654 0586 7FF480AE 		bne	.L205
 6655 058a 99E6     		b	.L207
 6656              	.LVL524:
 6657              	.L202:
 6658              	.LBE2340:
 6659              	.LBE2363:
 6660              	.LBB2364:
 6661              	.LBB2299:
 6662              		.loc 1 136 0
 6663 058c A8F81A10 		strh	r1, [r8, #26]	@ movhi
 6664              	.LBB2293:
 6665              	.LBB2279:
 6666              		.loc 1 28 0
 6667 0590 0120     		movs	r0, #1
 6668 0592 FFF7FEFF 		bl	chThdSleep
 6669              	.LVL525:
ARM GAS  /tmp/ccz3Igsc.s 			page 118


 6670              	.LBE2279:
 6671              	.LBE2293:
 6672              	.LBB2294:
 6673              	.LBB2284:
 6674 0596 3046     		mov	r0, r6
 6675              	.LBE2284:
 6676              	.LBE2294:
 6677              		.loc 1 138 0
 6678 0598 3E83     		strh	r6, [r7, #24]	@ movhi
 6679              	.LBB2295:
 6680              	.LBB2285:
 6681              		.loc 1 28 0
 6682 059a FFF7FEFF 		bl	chThdSleep
 6683              	.LVL526:
 6684              	.LBE2285:
 6685              	.LBE2295:
 6686              	.LBB2296:
 6687              	.LBB2289:
 6688 059e 3046     		mov	r0, r6
 6689 05a0 FFF7FEFF 		bl	chThdSleep
 6690              	.LVL527:
 6691 05a4 013C     		subs	r4, r4, #1
 6692              	.LVL528:
 6693              	.LBE2289:
 6694              	.LBE2296:
 6695              		.loc 1 141 0
 6696 05a6 7E83     		strh	r6, [r7, #26]	@ movhi
 6697              	.LBB2297:
 6698              	.LBB2292:
 6699              		.loc 1 28 0
 6700 05a8 3046     		mov	r0, r6
 6701 05aa FFF7FEFF 		bl	chThdSleep
 6702              	.LVL529:
 6703              	.LBE2292:
 6704              	.LBE2297:
 6705              		.loc 1 131 0
 6706 05ae 621C     		adds	r2, r4, #1
 6707 05b0 7FF430AE 		bne	.L201
 6708 05b4 49E6     		b	.L203
 6709              	.LVL530:
 6710              	.L198:
 6711              	.LBE2299:
 6712              	.LBE2364:
 6713              	.LBB2365:
 6714              	.LBB2248:
 6715              		.loc 1 136 0
 6716 05b6 A8F81A10 		strh	r1, [r8, #26]	@ movhi
 6717              	.LBB2241:
 6718              	.LBB2227:
 6719              		.loc 1 28 0
 6720 05ba 0120     		movs	r0, #1
 6721 05bc FFF7FEFF 		bl	chThdSleep
 6722              	.LVL531:
 6723              	.LBE2227:
 6724              	.LBE2241:
 6725              	.LBB2242:
 6726              	.LBB2232:
ARM GAS  /tmp/ccz3Igsc.s 			page 119


 6727 05c0 3046     		mov	r0, r6
 6728              	.LBE2232:
 6729              	.LBE2242:
 6730              		.loc 1 138 0
 6731 05c2 3E83     		strh	r6, [r7, #24]	@ movhi
 6732              	.LBB2243:
 6733              	.LBB2233:
 6734              		.loc 1 28 0
 6735 05c4 FFF7FEFF 		bl	chThdSleep
 6736              	.LVL532:
 6737              	.LBE2233:
 6738              	.LBE2243:
 6739              	.LBB2244:
 6740              	.LBB2237:
 6741 05c8 3046     		mov	r0, r6
 6742 05ca FFF7FEFF 		bl	chThdSleep
 6743              	.LVL533:
 6744 05ce 013C     		subs	r4, r4, #1
 6745              	.LVL534:
 6746              	.LBE2237:
 6747              	.LBE2244:
 6748              		.loc 1 141 0
 6749 05d0 7E83     		strh	r6, [r7, #26]	@ movhi
 6750              	.LBB2245:
 6751              	.LBB2240:
 6752              		.loc 1 28 0
 6753 05d2 3046     		mov	r0, r6
 6754 05d4 FFF7FEFF 		bl	chThdSleep
 6755              	.LVL535:
 6756              	.LBE2240:
 6757              	.LBE2245:
 6758              		.loc 1 131 0
 6759 05d8 621C     		adds	r2, r4, #1
 6760 05da 7FF4E0AD 		bne	.L197
 6761 05de F9E5     		b	.L199
 6762              	.LVL536:
 6763              	.L193:
 6764              	.LBE2248:
 6765              	.LBE2365:
 6766              	.LBE2367:
 6767              	.LBE2528:
 6768              	.LBB2529:
 6769              	.LBB2218:
 6770              	.LBB2214:
 6771              	.LBB2161:
 6772              		.loc 1 136 0
 6773 05e0 A8F81A10 		strh	r1, [r8, #26]	@ movhi
 6774              	.LBB2155:
 6775              	.LBB2141:
 6776              		.loc 1 28 0
 6777 05e4 0120     		movs	r0, #1
 6778 05e6 FFF7FEFF 		bl	chThdSleep
 6779              	.LVL537:
 6780              	.LBE2141:
 6781              	.LBE2155:
 6782              	.LBB2156:
 6783              	.LBB2146:
ARM GAS  /tmp/ccz3Igsc.s 			page 120


 6784 05ea 3046     		mov	r0, r6
 6785              	.LBE2146:
 6786              	.LBE2156:
 6787              		.loc 1 138 0
 6788 05ec 3E83     		strh	r6, [r7, #24]	@ movhi
 6789              	.LBB2157:
 6790              	.LBB2147:
 6791              		.loc 1 28 0
 6792 05ee FFF7FEFF 		bl	chThdSleep
 6793              	.LVL538:
 6794              	.LBE2147:
 6795              	.LBE2157:
 6796              	.LBB2158:
 6797              	.LBB2151:
 6798 05f2 3046     		mov	r0, r6
 6799 05f4 FFF7FEFF 		bl	chThdSleep
 6800              	.LVL539:
 6801 05f8 013C     		subs	r4, r4, #1
 6802              	.LVL540:
 6803              	.LBE2151:
 6804              	.LBE2158:
 6805              		.loc 1 141 0
 6806 05fa 7E83     		strh	r6, [r7, #26]	@ movhi
 6807              	.LBB2159:
 6808              	.LBB2154:
 6809              		.loc 1 28 0
 6810 05fc 3046     		mov	r0, r6
 6811 05fe FFF7FEFF 		bl	chThdSleep
 6812              	.LVL541:
 6813              	.LBE2154:
 6814              	.LBE2159:
 6815              		.loc 1 131 0
 6816 0602 621C     		adds	r2, r4, #1
 6817 0604 7FF44AAD 		bne	.L192
 6818 0608 63E5     		b	.L194
 6819              	.LVL542:
 6820              	.L189:
 6821              	.LBE2161:
 6822              	.LBE2214:
 6823              	.LBB2215:
 6824              	.LBB2120:
 6825              		.loc 1 136 0
 6826 060a A8F81A10 		strh	r1, [r8, #26]	@ movhi
 6827              	.LBB2114:
 6828              	.LBB2100:
 6829              		.loc 1 28 0
 6830 060e 0120     		movs	r0, #1
 6831 0610 FFF7FEFF 		bl	chThdSleep
 6832              	.LVL543:
 6833              	.LBE2100:
 6834              	.LBE2114:
 6835              	.LBB2115:
 6836              	.LBB2105:
 6837 0614 3046     		mov	r0, r6
 6838              	.LBE2105:
 6839              	.LBE2115:
 6840              		.loc 1 138 0
ARM GAS  /tmp/ccz3Igsc.s 			page 121


 6841 0616 3E83     		strh	r6, [r7, #24]	@ movhi
 6842              	.LBB2116:
 6843              	.LBB2106:
 6844              		.loc 1 28 0
 6845 0618 FFF7FEFF 		bl	chThdSleep
 6846              	.LVL544:
 6847              	.LBE2106:
 6848              	.LBE2116:
 6849              	.LBB2117:
 6850              	.LBB2110:
 6851 061c 3046     		mov	r0, r6
 6852 061e FFF7FEFF 		bl	chThdSleep
 6853              	.LVL545:
 6854 0622 013C     		subs	r4, r4, #1
 6855              	.LVL546:
 6856              	.LBE2110:
 6857              	.LBE2117:
 6858              		.loc 1 141 0
 6859 0624 7E83     		strh	r6, [r7, #26]	@ movhi
 6860              	.LBB2118:
 6861              	.LBB2113:
 6862              		.loc 1 28 0
 6863 0626 3046     		mov	r0, r6
 6864 0628 FFF7FEFF 		bl	chThdSleep
 6865              	.LVL547:
 6866              	.LBE2113:
 6867              	.LBE2118:
 6868              		.loc 1 131 0
 6869 062c 621C     		adds	r2, r4, #1
 6870 062e 7FF4FAAC 		bne	.L188
 6871 0632 13E5     		b	.L190
 6872              	.L373:
 6873              		.align	2
 6874              	.L372:
 6875 0634 001C0240 		.word	1073880064
 6876              	.LVL548:
 6877              	.L209:
 6878              	.LBE2120:
 6879              	.LBE2215:
 6880              	.LBE2218:
 6881              	.LBE2529:
 6882              	.LBB2530:
 6883              	.LBB2531:
 6884              	.LBB2532:
 6885              	.LBB2533:
 6886              		.loc 1 44 0
 6887 0638 D74C     		ldr	r4, .L374
 6888              		.loc 1 46 0
 6889 063a D84F     		ldr	r7, .L374+4
 6890              	.LVL549:
 6891              	.LBE2533:
 6892              	.LBE2532:
 6893              	.LBE2531:
 6894              	.LBE2530:
 6895              		.loc 1 301 0
 6896 063c 6420     		movs	r0, #100
 6897 063e FFF7FEFF 		bl	chThdSleep
ARM GAS  /tmp/ccz3Igsc.s 			page 122


 6898              	.LVL550:
 6899              	.LBB2662:
 6900              	.LBB2660:
 6901              	.LBB2542:
 6902              	.LBB2540:
 6903              		.loc 1 44 0
 6904 0642 4FF48053 		mov	r3, #4096
 6905 0646 6383     		strh	r3, [r4, #26]	@ movhi
 6906              	.LBB2534:
 6907              	.LBB2535:
 6908              		.loc 1 28 0
 6909 0648 0120     		movs	r0, #1
 6910 064a FFF7FEFF 		bl	chThdSleep
 6911              	.LVL551:
 6912              	.LBE2535:
 6913              	.LBE2534:
 6914              		.loc 1 46 0
 6915 064e 0120     		movs	r0, #1
 6916 0650 7883     		strh	r0, [r7, #26]	@ movhi
 6917              	.LBB2536:
 6918              	.LBB2537:
 6919              		.loc 1 28 0
 6920 0652 FFF7FEFF 		bl	chThdSleep
 6921              	.LVL552:
 6922              	.LBE2537:
 6923              	.LBE2536:
 6924              	.LBE2540:
 6925              	.LBE2542:
 6926              	.LBB2543:
 6927              	.LBB2544:
 6928              		.loc 1 136 0
 6929 0656 A046     		mov	r8, r4
 6930              		.loc 1 133 0
 6931 0658 4FF08009 		mov	r9, #128
 6932              	.LBE2544:
 6933              	.LBE2543:
 6934              	.LBB2569:
 6935              	.LBB2541:
 6936              	.LBB2539:
 6937              	.LBB2538:
 6938              		.loc 1 28 0
 6939 065c 0724     		movs	r4, #7
 6940              	.LVL553:
 6941              	.L224:
 6942              	.LBE2538:
 6943              	.LBE2539:
 6944              	.LBE2541:
 6945              	.LBE2569:
 6946              	.LBB2570:
 6947              	.LBB2567:
 6948              		.loc 1 133 0
 6949 065e 49FA04F3 		asr	r3, r9, r4
 6950              		.loc 1 138 0
 6951 0662 0126     		movs	r6, #1
 6952              		.loc 1 133 0
 6953 0664 DB07     		lsls	r3, r3, #31
 6954              		.loc 1 134 0
ARM GAS  /tmp/ccz3Igsc.s 			page 123


 6955 0666 4FF48051 		mov	r1, #4096
 6956              	.LBB2545:
 6957              	.LBB2546:
 6958              		.loc 1 28 0
 6959 066a 3046     		mov	r0, r6
 6960              	.LBE2546:
 6961              	.LBE2545:
 6962              		.loc 1 133 0
 6963 066c 40F1ED84 		bpl	.L225
 6964              		.loc 1 134 0
 6965 0670 A8F81810 		strh	r1, [r8, #24]	@ movhi
 6966              	.LBB2549:
 6967              	.LBB2547:
 6968              		.loc 1 28 0
 6969 0674 FFF7FEFF 		bl	chThdSleep
 6970              	.LVL554:
 6971              	.LBE2547:
 6972              	.LBE2549:
 6973              	.LBB2550:
 6974              	.LBB2551:
 6975 0678 3046     		mov	r0, r6
 6976              	.LBE2551:
 6977              	.LBE2550:
 6978              		.loc 1 138 0
 6979 067a 3E83     		strh	r6, [r7, #24]	@ movhi
 6980              	.LBB2555:
 6981              	.LBB2552:
 6982              		.loc 1 28 0
 6983 067c FFF7FEFF 		bl	chThdSleep
 6984              	.LVL555:
 6985              	.LBE2552:
 6986              	.LBE2555:
 6987              	.LBB2556:
 6988              	.LBB2557:
 6989 0680 3046     		mov	r0, r6
 6990 0682 FFF7FEFF 		bl	chThdSleep
 6991              	.LVL556:
 6992 0686 013C     		subs	r4, r4, #1
 6993              	.LVL557:
 6994              	.LBE2557:
 6995              	.LBE2556:
 6996              		.loc 1 141 0
 6997 0688 7E83     		strh	r6, [r7, #26]	@ movhi
 6998              	.LBB2559:
 6999              	.LBB2560:
 7000              		.loc 1 28 0
 7001 068a 3046     		mov	r0, r6
 7002 068c FFF7FEFF 		bl	chThdSleep
 7003              	.LVL558:
 7004              	.LBE2560:
 7005              	.LBE2559:
 7006              		.loc 1 131 0
 7007 0690 611C     		adds	r1, r4, #1
 7008 0692 E4D1     		bne	.L224
 7009              	.L226:
 7010              	.LVL559:
 7011              	.LBE2567:
ARM GAS  /tmp/ccz3Igsc.s 			page 124


 7012              	.LBE2570:
 7013              	.LBB2571:
 7014              	.LBB2572:
 7015              		.loc 1 60 0
 7016 0694 C04C     		ldr	r4, .L374
 7017              		.loc 1 62 0
 7018 0696 C14F     		ldr	r7, .L374+4
 7019              		.loc 1 60 0
 7020 0698 4FF48055 		mov	r5, #4096
 7021              	.LBB2573:
 7022              	.LBB2574:
 7023              		.loc 1 28 0
 7024 069c 0120     		movs	r0, #1
 7025              	.LBE2574:
 7026              	.LBE2573:
 7027              		.loc 1 62 0
 7028 069e 0646     		mov	r6, r0
 7029              		.loc 1 60 0
 7030 06a0 2583     		strh	r5, [r4, #24]	@ movhi
 7031              	.LBB2576:
 7032              	.LBB2575:
 7033              		.loc 1 28 0
 7034 06a2 FFF7FEFF 		bl	chThdSleep
 7035              	.LVL560:
 7036              	.LBE2575:
 7037              	.LBE2576:
 7038              	.LBB2577:
 7039              	.LBB2578:
 7040 06a6 3046     		mov	r0, r6
 7041              	.LBE2578:
 7042              	.LBE2577:
 7043              		.loc 1 62 0
 7044 06a8 3E83     		strh	r6, [r7, #24]	@ movhi
 7045              	.LBB2580:
 7046              	.LBB2579:
 7047              		.loc 1 28 0
 7048 06aa FFF7FEFF 		bl	chThdSleep
 7049              	.LVL561:
 7050              	.LBE2579:
 7051              	.LBE2580:
 7052              		.loc 1 67 0
 7053 06ae 2946     		mov	r1, r5
 7054 06b0 2046     		mov	r0, r4
 7055 06b2 0522     		movs	r2, #5
 7056              		.loc 1 64 0
 7057 06b4 7E83     		strh	r6, [r7, #26]	@ movhi
 7058              		.loc 1 66 0
 7059 06b6 2583     		strh	r5, [r4, #24]	@ movhi
 7060              		.loc 1 67 0
 7061 06b8 FFF7FEFF 		bl	_pal_lld_setgroupmode
 7062              	.LVL562:
 7063              	.LBB2581:
 7064              	.LBB2582:
 7065              		.loc 1 28 0
 7066 06bc 3046     		mov	r0, r6
 7067 06be FFF7FEFF 		bl	chThdSleep
 7068              	.LVL563:
ARM GAS  /tmp/ccz3Igsc.s 			page 125


 7069              	.LBE2582:
 7070              	.LBE2581:
 7071              		.loc 1 69 0
 7072 06c2 2046     		mov	r0, r4
 7073 06c4 2946     		mov	r1, r5
 7074 06c6 0522     		movs	r2, #5
 7075 06c8 FFF7FEFF 		bl	_pal_lld_setgroupmode
 7076              	.LVL564:
 7077              	.LBE2572:
 7078              	.LBE2571:
 7079              	.LBB2584:
 7080              	.LBB2585:
 7081              		.loc 1 136 0
 7082 06cc A046     		mov	r8, r4
 7083              		.loc 1 133 0
 7084 06ce 4FF07F09 		mov	r9, #127
 7085              	.LBE2585:
 7086              	.LBE2584:
 7087              	.LBB2612:
 7088              	.LBB2583:
 7089              		.loc 1 69 0
 7090 06d2 0724     		movs	r4, #7
 7091              	.LVL565:
 7092              	.L228:
 7093              	.LBE2583:
 7094              	.LBE2612:
 7095              	.LBB2613:
 7096              	.LBB2610:
 7097              		.loc 1 133 0
 7098 06d4 49FA04F3 		asr	r3, r9, r4
 7099              		.loc 1 138 0
 7100 06d8 0126     		movs	r6, #1
 7101              		.loc 1 133 0
 7102 06da DB07     		lsls	r3, r3, #31
 7103              		.loc 1 134 0
 7104 06dc 4FF48051 		mov	r1, #4096
 7105              	.LBB2586:
 7106              	.LBB2587:
 7107              		.loc 1 28 0
 7108 06e0 3046     		mov	r0, r6
 7109              	.LBE2587:
 7110              	.LBE2586:
 7111              		.loc 1 133 0
 7112 06e2 40F19C84 		bpl	.L229
 7113              		.loc 1 134 0
 7114 06e6 A8F81810 		strh	r1, [r8, #24]	@ movhi
 7115              	.LBB2590:
 7116              	.LBB2588:
 7117              		.loc 1 28 0
 7118 06ea FFF7FEFF 		bl	chThdSleep
 7119              	.LVL566:
 7120              	.LBE2588:
 7121              	.LBE2590:
 7122              	.LBB2591:
 7123              	.LBB2592:
 7124 06ee 3046     		mov	r0, r6
 7125              	.LBE2592:
ARM GAS  /tmp/ccz3Igsc.s 			page 126


 7126              	.LBE2591:
 7127              		.loc 1 138 0
 7128 06f0 3E83     		strh	r6, [r7, #24]	@ movhi
 7129              	.LBB2596:
 7130              	.LBB2593:
 7131              		.loc 1 28 0
 7132 06f2 FFF7FEFF 		bl	chThdSleep
 7133              	.LVL567:
 7134              	.LBE2593:
 7135              	.LBE2596:
 7136              	.LBB2597:
 7137              	.LBB2598:
 7138 06f6 3046     		mov	r0, r6
 7139 06f8 FFF7FEFF 		bl	chThdSleep
 7140              	.LVL568:
 7141 06fc 013C     		subs	r4, r4, #1
 7142              	.LVL569:
 7143              	.LBE2598:
 7144              	.LBE2597:
 7145              	.LBB2600:
 7146              	.LBB2601:
 7147 06fe 3046     		mov	r0, r6
 7148              	.LBE2601:
 7149              	.LBE2600:
 7150              		.loc 1 141 0
 7151 0700 7E83     		strh	r6, [r7, #26]	@ movhi
 7152              	.LBB2604:
 7153              	.LBB2602:
 7154              		.loc 1 28 0
 7155 0702 FFF7FEFF 		bl	chThdSleep
 7156              	.LVL570:
 7157              	.LBE2602:
 7158              	.LBE2604:
 7159              		.loc 1 131 0
 7160 0706 601C     		adds	r0, r4, #1
 7161 0708 E4D1     		bne	.L228
 7162              	.L230:
 7163              	.LBE2610:
 7164              	.LBE2613:
 7165              	.LBB2614:
 7166              	.LBB2615:
 7167              		.loc 1 60 0
 7168 070a A34F     		ldr	r7, .L374
 7169              		.loc 1 62 0
 7170 070c A34E     		ldr	r6, .L374+4
 7171              		.loc 1 60 0
 7172 070e 4FF48054 		mov	r4, #4096
 7173              	.LBB2616:
 7174              	.LBB2617:
 7175              		.loc 1 28 0
 7176 0712 0120     		movs	r0, #1
 7177              	.LBE2617:
 7178              	.LBE2616:
 7179              		.loc 1 62 0
 7180 0714 0546     		mov	r5, r0
 7181              		.loc 1 60 0
 7182 0716 3C83     		strh	r4, [r7, #24]	@ movhi
ARM GAS  /tmp/ccz3Igsc.s 			page 127


 7183              	.LBB2619:
 7184              	.LBB2618:
 7185              		.loc 1 28 0
 7186 0718 FFF7FEFF 		bl	chThdSleep
 7187              	.LVL571:
 7188              	.LBE2618:
 7189              	.LBE2619:
 7190              	.LBB2620:
 7191              	.LBB2621:
 7192 071c 2846     		mov	r0, r5
 7193              	.LBE2621:
 7194              	.LBE2620:
 7195              		.loc 1 62 0
 7196 071e 3583     		strh	r5, [r6, #24]	@ movhi
 7197              	.LBB2623:
 7198              	.LBB2622:
 7199              		.loc 1 28 0
 7200 0720 FFF7FEFF 		bl	chThdSleep
 7201              	.LVL572:
 7202              	.LBE2622:
 7203              	.LBE2623:
 7204              		.loc 1 67 0
 7205 0724 2146     		mov	r1, r4
 7206 0726 0522     		movs	r2, #5
 7207              		.loc 1 64 0
 7208 0728 7583     		strh	r5, [r6, #26]	@ movhi
 7209              		.loc 1 67 0
 7210 072a 3846     		mov	r0, r7
 7211              		.loc 1 66 0
 7212 072c 3C83     		strh	r4, [r7, #24]	@ movhi
 7213              		.loc 1 67 0
 7214 072e FFF7FEFF 		bl	_pal_lld_setgroupmode
 7215              	.LVL573:
 7216              	.LBB2624:
 7217              	.LBB2625:
 7218              		.loc 1 28 0
 7219 0732 2846     		mov	r0, r5
 7220 0734 FFF7FEFF 		bl	chThdSleep
 7221              	.LVL574:
 7222              	.LBE2625:
 7223              	.LBE2624:
 7224              		.loc 1 69 0
 7225 0738 2146     		mov	r1, r4
 7226 073a 3846     		mov	r0, r7
 7227 073c 0522     		movs	r2, #5
 7228 073e FFF7FEFF 		bl	_pal_lld_setgroupmode
 7229              	.LVL575:
 7230 0742 0724     		movs	r4, #7
 7231              	.LVL576:
 7232              	.L232:
 7233              	.LBE2615:
 7234              	.LBE2614:
 7235              	.LBB2626:
 7236              	.LBB2627:
 7237              		.loc 1 133 0
 7238 0744 55FA04F1 		asrs	r1, r5, r4
 7239              		.loc 1 134 0
ARM GAS  /tmp/ccz3Igsc.s 			page 128


 7240 0748 4FF48052 		mov	r2, #4096
 7241 074c 14BF     		ite	ne
 7242 074e 3A83     		strhne	r2, [r7, #24]	@ movhi
 7243              		.loc 1 136 0
 7244 0750 7A83     		strheq	r2, [r7, #26]	@ movhi
 7245              	.LBB2628:
 7246              	.LBB2629:
 7247              		.loc 1 28 0
 7248 0752 4FF00100 		mov	r0, #1
 7249 0756 08BF     		it	eq
 7250 0758 0120     		moveq	r0, #1
 7251 075a FFF7FEFF 		bl	chThdSleep
 7252              	.LVL577:
 7253              	.LBE2629:
 7254              	.LBE2628:
 7255              	.LBB2630:
 7256              	.LBB2631:
 7257 075e 0120     		movs	r0, #1
 7258              	.LBE2631:
 7259              	.LBE2630:
 7260              		.loc 1 138 0
 7261 0760 3583     		strh	r5, [r6, #24]	@ movhi
 7262              	.LBB2633:
 7263              	.LBB2632:
 7264              		.loc 1 28 0
 7265 0762 FFF7FEFF 		bl	chThdSleep
 7266              	.LVL578:
 7267              	.LBE2632:
 7268              	.LBE2633:
 7269              	.LBB2634:
 7270              	.LBB2635:
 7271 0766 0120     		movs	r0, #1
 7272 0768 FFF7FEFF 		bl	chThdSleep
 7273              	.LVL579:
 7274 076c 013C     		subs	r4, r4, #1
 7275              	.LVL580:
 7276              	.LBE2635:
 7277              	.LBE2634:
 7278              		.loc 1 141 0
 7279 076e 7583     		strh	r5, [r6, #26]	@ movhi
 7280              	.LBB2636:
 7281              	.LBB2637:
 7282              		.loc 1 28 0
 7283 0770 0120     		movs	r0, #1
 7284 0772 FFF7FEFF 		bl	chThdSleep
 7285              	.LVL581:
 7286              	.LBE2637:
 7287              	.LBE2636:
 7288              		.loc 1 131 0
 7289 0776 621C     		adds	r2, r4, #1
 7290 0778 E4D1     		bne	.L232
 7291              	.LVL582:
 7292              	.LBE2627:
 7293              	.LBE2626:
 7294              	.LBB2638:
 7295              	.LBB2639:
 7296              		.loc 1 60 0
ARM GAS  /tmp/ccz3Igsc.s 			page 129


 7297 077a 874F     		ldr	r7, .L374
 7298 077c 884B     		ldr	r3, .L374+8
 7299              		.loc 1 62 0
 7300 077e 874C     		ldr	r4, .L374+4
 7301 0780 0193     		str	r3, [sp, #4]
 7302              	.LVL583:
 7303              		.loc 1 60 0
 7304 0782 4FF48056 		mov	r6, #4096
 7305              	.LBB2640:
 7306              	.LBB2641:
 7307              		.loc 1 28 0
 7308 0786 0120     		movs	r0, #1
 7309              	.LBE2641:
 7310              	.LBE2640:
 7311              		.loc 1 62 0
 7312 0788 0546     		mov	r5, r0
 7313              		.loc 1 60 0
 7314 078a 3E83     		strh	r6, [r7, #24]	@ movhi
 7315              	.LBB2643:
 7316              	.LBB2642:
 7317              		.loc 1 28 0
 7318 078c FFF7FEFF 		bl	chThdSleep
 7319              	.LVL584:
 7320              	.LBE2642:
 7321              	.LBE2643:
 7322              	.LBB2644:
 7323              	.LBB2645:
 7324 0790 2846     		mov	r0, r5
 7325              	.LBE2645:
 7326              	.LBE2644:
 7327              		.loc 1 62 0
 7328 0792 2583     		strh	r5, [r4, #24]	@ movhi
 7329              	.LBB2647:
 7330              	.LBB2646:
 7331              		.loc 1 28 0
 7332 0794 FFF7FEFF 		bl	chThdSleep
 7333              	.LVL585:
 7334              	.LBE2646:
 7335              	.LBE2647:
 7336              		.loc 1 67 0
 7337 0798 3146     		mov	r1, r6
 7338 079a 3846     		mov	r0, r7
 7339 079c 0522     		movs	r2, #5
 7340              		.loc 1 64 0
 7341 079e 6583     		strh	r5, [r4, #26]	@ movhi
 7342              		.loc 1 66 0
 7343 07a0 3E83     		strh	r6, [r7, #24]	@ movhi
 7344              		.loc 1 67 0
 7345 07a2 FFF7FEFF 		bl	_pal_lld_setgroupmode
 7346              	.LVL586:
 7347              	.LBB2648:
 7348              	.LBB2649:
 7349              		.loc 1 28 0
 7350 07a6 2846     		mov	r0, r5
 7351 07a8 FFF7FEFF 		bl	chThdSleep
 7352              	.LVL587:
 7353              	.LBE2649:
ARM GAS  /tmp/ccz3Igsc.s 			page 130


 7354              	.LBE2648:
 7355              		.loc 1 69 0
 7356 07ac 3146     		mov	r1, r6
 7357 07ae 0522     		movs	r2, #5
 7358 07b0 3846     		mov	r0, r7
 7359 07b2 FFF7FEFF 		bl	_pal_lld_setgroupmode
 7360              	.LVL588:
 7361              	.LBE2639:
 7362              	.LBE2638:
 7363              	.LBB2650:
 7364              	.LBB2651:
 7365              	.LBB2652:
 7366              	.LBB2653:
 7367              		.loc 1 28 0
 7368 07b6 2846     		mov	r0, r5
 7369              	.LBE2653:
 7370              	.LBE2652:
 7371              		.loc 1 52 0
 7372 07b8 2583     		strh	r5, [r4, #24]	@ movhi
 7373              	.LBB2655:
 7374              	.LBB2654:
 7375              		.loc 1 28 0
 7376 07ba FFF7FEFF 		bl	chThdSleep
 7377              	.LVL589:
 7378              	.LBE2654:
 7379              	.LBE2655:
 7380              		.loc 1 54 0
 7381 07be 3E83     		strh	r6, [r7, #24]	@ movhi
 7382              	.LBB2656:
 7383              	.LBB2657:
 7384              		.loc 1 28 0
 7385 07c0 2846     		mov	r0, r5
 7386 07c2 FFF7FEFF 		bl	chThdSleep
 7387              	.LVL590:
 7388 07c6 019A     		ldr	r2, [sp, #4]
 7389              	.LVL591:
 7390              	.LBE2657:
 7391              	.LBE2656:
 7392              	.LBE2651:
 7393              	.LBE2650:
 7394              	.LBE2660:
 7395              	.LBE2662:
 7396              	.LBB2663:
 7397              	.LBB2664:
 7398              	.LBB2665:
 7399              	.LBB2666:
 7400              	.LBB2667:
 7401              	.LBB2668:
 7402              	.LBB2669:
 7403              	.LBB2670:
 7404              		.loc 1 44 0
 7405 07c8 3E46     		mov	r6, r7
 7406              	.LBE2670:
 7407              	.LBE2669:
 7408              	.LBE2668:
 7409              	.LBE2667:
 7410              	.LBE2666:
