ARM GAS  /tmp/cccJFgwG.s 			page 1


   1              		.cpu cortex-m4
   2              		.eabi_attribute 27, 1
   3              		.eabi_attribute 28, 1
   4              		.eabi_attribute 20, 1
   5              		.eabi_attribute 21, 1
   6              		.eabi_attribute 23, 3
   7              		.eabi_attribute 24, 1
   8              		.eabi_attribute 25, 1
   9              		.eabi_attribute 26, 1
  10              		.eabi_attribute 30, 2
  11              		.eabi_attribute 34, 1
  12              		.eabi_attribute 18, 4
  13              		.file	"stm32_dma.c"
  14              		.text
  15              	.Ltext0:
  16              		.cfi_sections	.debug_frame
  17              		.section	.text.Vector6C,"ax",%progbits
  18              		.align	1
  19              		.p2align 2,,3
  20              		.global	Vector6C
  21              		.syntax unified
  22              		.thumb
  23              		.thumb_func
  24              		.fpu fpv4-sp-d16
  25              		.type	Vector6C, %function
  26              	Vector6C:
  27              	.LFB327:
  28              		.file 1 "./RM18A-ChibiOS18-Core/chibios/os/hal/ports/STM32/LLD/DMAv2/stm32_dma.c"
  29              		.loc 1 163 0
  30              		.cfi_startproc
  31              		@ args = 0, pretend = 0, frame = 0
  32              		@ frame_needed = 0, uses_anonymous_args = 0
  33 0000 08B5     		push	{r3, lr}
  34              		.cfi_def_cfa_offset 8
  35              		.cfi_offset 3, -8
  36              		.cfi_offset 14, -4
  37              		.loc 1 168 0
  38 0002 074B     		ldr	r3, .L8
  39              		.loc 1 170 0
  40 0004 0748     		ldr	r0, .L8+4
  41              		.loc 1 168 0
  42 0006 1968     		ldr	r1, [r3]
  43              		.loc 1 170 0
  44 0008 4268     		ldr	r2, [r0, #4]
  45              		.loc 1 168 0
  46 000a 01F03D01 		and	r1, r1, #61
  47              	.LVL0:
  48              		.loc 1 169 0
  49 000e 9960     		str	r1, [r3, #8]
  50              		.loc 1 170 0
  51 0010 0AB1     		cbz	r2, .L2
  52              		.loc 1 171 0
  53 0012 8068     		ldr	r0, [r0, #8]
  54 0014 9047     		blx	r2
  55              	.LVL1:
  56              	.L2:
  57              		.loc 1 174 0
ARM GAS  /tmp/cccJFgwG.s 			page 2


  58 0016 BDE80840 		pop	{r3, lr}
  59              		.cfi_restore 14
  60              		.cfi_restore 3
  61              		.cfi_def_cfa_offset 0
  62              		.loc 1 173 0
  63 001a FFF7FEBF 		b	_port_irq_epilogue
  64              	.LVL2:
  65              	.L9:
  66 001e 00BF     		.align	2
  67              	.L8:
  68 0020 00600240 		.word	1073897472
  69 0024 00000000 		.word	.LANCHOR0
  70              		.cfi_endproc
  71              	.LFE327:
  72              		.size	Vector6C, .-Vector6C
  73              		.section	.text.Vector70,"ax",%progbits
  74              		.align	1
  75              		.p2align 2,,3
  76              		.global	Vector70
  77              		.syntax unified
  78              		.thumb
  79              		.thumb_func
  80              		.fpu fpv4-sp-d16
  81              		.type	Vector70, %function
  82              	Vector70:
  83              	.LFB328:
  84              		.loc 1 181 0
  85              		.cfi_startproc
  86              		@ args = 0, pretend = 0, frame = 0
  87              		@ frame_needed = 0, uses_anonymous_args = 0
  88              		.loc 1 186 0
  89 0000 084B     		ldr	r3, .L16
  90              		.loc 1 188 0
  91 0002 0948     		ldr	r0, .L16+4
  92              		.loc 1 186 0
  93 0004 1968     		ldr	r1, [r3]
  94              		.loc 1 188 0
  95 0006 C268     		ldr	r2, [r0, #12]
  96              		.loc 1 186 0
  97 0008 8909     		lsrs	r1, r1, #6
  98 000a 01F03D01 		and	r1, r1, #61
  99              	.LVL3:
 100              		.loc 1 181 0
 101 000e 10B5     		push	{r4, lr}
 102              		.cfi_def_cfa_offset 8
 103              		.cfi_offset 4, -8
 104              		.cfi_offset 14, -4
 105              		.loc 1 187 0
 106 0010 8C01     		lsls	r4, r1, #6
 107 0012 9C60     		str	r4, [r3, #8]
 108              		.loc 1 188 0
 109 0014 0AB1     		cbz	r2, .L11
 110              		.loc 1 189 0
 111 0016 0069     		ldr	r0, [r0, #16]
 112 0018 9047     		blx	r2
 113              	.LVL4:
 114              	.L11:
ARM GAS  /tmp/cccJFgwG.s 			page 3


 115              		.loc 1 192 0
 116 001a BDE81040 		pop	{r4, lr}
 117              		.cfi_restore 14
 118              		.cfi_restore 4
 119              		.cfi_def_cfa_offset 0
 120              		.loc 1 191 0
 121 001e FFF7FEBF 		b	_port_irq_epilogue
 122              	.LVL5:
 123              	.L17:
 124 0022 00BF     		.align	2
 125              	.L16:
 126 0024 00600240 		.word	1073897472
 127 0028 00000000 		.word	.LANCHOR0
 128              		.cfi_endproc
 129              	.LFE328:
 130              		.size	Vector70, .-Vector70
 131              		.section	.text.Vector74,"ax",%progbits
 132              		.align	1
 133              		.p2align 2,,3
 134              		.global	Vector74
 135              		.syntax unified
 136              		.thumb
 137              		.thumb_func
 138              		.fpu fpv4-sp-d16
 139              		.type	Vector74, %function
 140              	Vector74:
 141              	.LFB329:
 142              		.loc 1 199 0
 143              		.cfi_startproc
 144              		@ args = 0, pretend = 0, frame = 0
 145              		@ frame_needed = 0, uses_anonymous_args = 0
 146              		.loc 1 204 0
 147 0000 084B     		ldr	r3, .L24
 148              		.loc 1 206 0
 149 0002 0948     		ldr	r0, .L24+4
 150              		.loc 1 204 0
 151 0004 1968     		ldr	r1, [r3]
 152              		.loc 1 206 0
 153 0006 4269     		ldr	r2, [r0, #20]
 154              		.loc 1 204 0
 155 0008 090C     		lsrs	r1, r1, #16
 156 000a 01F03D01 		and	r1, r1, #61
 157              	.LVL6:
 158              		.loc 1 199 0
 159 000e 10B5     		push	{r4, lr}
 160              		.cfi_def_cfa_offset 8
 161              		.cfi_offset 4, -8
 162              		.cfi_offset 14, -4
 163              		.loc 1 205 0
 164 0010 0C04     		lsls	r4, r1, #16
 165 0012 9C60     		str	r4, [r3, #8]
 166              		.loc 1 206 0
 167 0014 0AB1     		cbz	r2, .L19
 168              		.loc 1 207 0
 169 0016 8069     		ldr	r0, [r0, #24]
 170 0018 9047     		blx	r2
 171              	.LVL7:
ARM GAS  /tmp/cccJFgwG.s 			page 4


 172              	.L19:
 173              		.loc 1 210 0
 174 001a BDE81040 		pop	{r4, lr}
 175              		.cfi_restore 14
 176              		.cfi_restore 4
 177              		.cfi_def_cfa_offset 0
 178              		.loc 1 209 0
 179 001e FFF7FEBF 		b	_port_irq_epilogue
 180              	.LVL8:
 181              	.L25:
 182 0022 00BF     		.align	2
 183              	.L24:
 184 0024 00600240 		.word	1073897472
 185 0028 00000000 		.word	.LANCHOR0
 186              		.cfi_endproc
 187              	.LFE329:
 188              		.size	Vector74, .-Vector74
 189              		.section	.text.Vector78,"ax",%progbits
 190              		.align	1
 191              		.p2align 2,,3
 192              		.global	Vector78
 193              		.syntax unified
 194              		.thumb
 195              		.thumb_func
 196              		.fpu fpv4-sp-d16
 197              		.type	Vector78, %function
 198              	Vector78:
 199              	.LFB330:
 200              		.loc 1 217 0
 201              		.cfi_startproc
 202              		@ args = 0, pretend = 0, frame = 0
 203              		@ frame_needed = 0, uses_anonymous_args = 0
 204              		.loc 1 222 0
 205 0000 084B     		ldr	r3, .L32
 206              		.loc 1 224 0
 207 0002 0948     		ldr	r0, .L32+4
 208              		.loc 1 222 0
 209 0004 1968     		ldr	r1, [r3]
 210              		.loc 1 224 0
 211 0006 C269     		ldr	r2, [r0, #28]
 212              		.loc 1 222 0
 213 0008 890D     		lsrs	r1, r1, #22
 214 000a 01F03D01 		and	r1, r1, #61
 215              	.LVL9:
 216              		.loc 1 217 0
 217 000e 10B5     		push	{r4, lr}
 218              		.cfi_def_cfa_offset 8
 219              		.cfi_offset 4, -8
 220              		.cfi_offset 14, -4
 221              		.loc 1 223 0
 222 0010 8C05     		lsls	r4, r1, #22
 223 0012 9C60     		str	r4, [r3, #8]
 224              		.loc 1 224 0
 225 0014 0AB1     		cbz	r2, .L27
 226              		.loc 1 225 0
 227 0016 006A     		ldr	r0, [r0, #32]
 228 0018 9047     		blx	r2
ARM GAS  /tmp/cccJFgwG.s 			page 5


 229              	.LVL10:
 230              	.L27:
 231              		.loc 1 228 0
 232 001a BDE81040 		pop	{r4, lr}
 233              		.cfi_restore 14
 234              		.cfi_restore 4
 235              		.cfi_def_cfa_offset 0
 236              		.loc 1 227 0
 237 001e FFF7FEBF 		b	_port_irq_epilogue
 238              	.LVL11:
 239              	.L33:
 240 0022 00BF     		.align	2
 241              	.L32:
 242 0024 00600240 		.word	1073897472
 243 0028 00000000 		.word	.LANCHOR0
 244              		.cfi_endproc
 245              	.LFE330:
 246              		.size	Vector78, .-Vector78
 247              		.section	.text.Vector7C,"ax",%progbits
 248              		.align	1
 249              		.p2align 2,,3
 250              		.global	Vector7C
 251              		.syntax unified
 252              		.thumb
 253              		.thumb_func
 254              		.fpu fpv4-sp-d16
 255              		.type	Vector7C, %function
 256              	Vector7C:
 257              	.LFB331:
 258              		.loc 1 235 0
 259              		.cfi_startproc
 260              		@ args = 0, pretend = 0, frame = 0
 261              		@ frame_needed = 0, uses_anonymous_args = 0
 262 0000 08B5     		push	{r3, lr}
 263              		.cfi_def_cfa_offset 8
 264              		.cfi_offset 3, -8
 265              		.cfi_offset 14, -4
 266              		.loc 1 240 0
 267 0002 074B     		ldr	r3, .L40
 268              		.loc 1 242 0
 269 0004 0748     		ldr	r0, .L40+4
 270              		.loc 1 240 0
 271 0006 5968     		ldr	r1, [r3, #4]
 272              		.loc 1 242 0
 273 0008 426A     		ldr	r2, [r0, #36]
 274              		.loc 1 240 0
 275 000a 01F03D01 		and	r1, r1, #61
 276              	.LVL12:
 277              		.loc 1 241 0
 278 000e D960     		str	r1, [r3, #12]
 279              		.loc 1 242 0
 280 0010 0AB1     		cbz	r2, .L35
 281              		.loc 1 243 0
 282 0012 806A     		ldr	r0, [r0, #40]
 283 0014 9047     		blx	r2
 284              	.LVL13:
 285              	.L35:
ARM GAS  /tmp/cccJFgwG.s 			page 6


 286              		.loc 1 246 0
 287 0016 BDE80840 		pop	{r3, lr}
 288              		.cfi_restore 14
 289              		.cfi_restore 3
 290              		.cfi_def_cfa_offset 0
 291              		.loc 1 245 0
 292 001a FFF7FEBF 		b	_port_irq_epilogue
 293              	.LVL14:
 294              	.L41:
 295 001e 00BF     		.align	2
 296              	.L40:
 297 0020 00600240 		.word	1073897472
 298 0024 00000000 		.word	.LANCHOR0
 299              		.cfi_endproc
 300              	.LFE331:
 301              		.size	Vector7C, .-Vector7C
 302              		.section	.text.Vector80,"ax",%progbits
 303              		.align	1
 304              		.p2align 2,,3
 305              		.global	Vector80
 306              		.syntax unified
 307              		.thumb
 308              		.thumb_func
 309              		.fpu fpv4-sp-d16
 310              		.type	Vector80, %function
 311              	Vector80:
 312              	.LFB332:
 313              		.loc 1 253 0
 314              		.cfi_startproc
 315              		@ args = 0, pretend = 0, frame = 0
 316              		@ frame_needed = 0, uses_anonymous_args = 0
 317              		.loc 1 258 0
 318 0000 084B     		ldr	r3, .L48
 319              		.loc 1 260 0
 320 0002 0948     		ldr	r0, .L48+4
 321              		.loc 1 258 0
 322 0004 5968     		ldr	r1, [r3, #4]
 323              		.loc 1 260 0
 324 0006 C26A     		ldr	r2, [r0, #44]
 325              		.loc 1 258 0
 326 0008 8909     		lsrs	r1, r1, #6
 327 000a 01F03D01 		and	r1, r1, #61
 328              	.LVL15:
 329              		.loc 1 253 0
 330 000e 10B5     		push	{r4, lr}
 331              		.cfi_def_cfa_offset 8
 332              		.cfi_offset 4, -8
 333              		.cfi_offset 14, -4
 334              		.loc 1 259 0
 335 0010 8C01     		lsls	r4, r1, #6
 336 0012 DC60     		str	r4, [r3, #12]
 337              		.loc 1 260 0
 338 0014 0AB1     		cbz	r2, .L43
 339              		.loc 1 261 0
 340 0016 006B     		ldr	r0, [r0, #48]
 341 0018 9047     		blx	r2
 342              	.LVL16:
ARM GAS  /tmp/cccJFgwG.s 			page 7


 343              	.L43:
 344              		.loc 1 264 0
 345 001a BDE81040 		pop	{r4, lr}
 346              		.cfi_restore 14
 347              		.cfi_restore 4
 348              		.cfi_def_cfa_offset 0
 349              		.loc 1 263 0
 350 001e FFF7FEBF 		b	_port_irq_epilogue
 351              	.LVL17:
 352              	.L49:
 353 0022 00BF     		.align	2
 354              	.L48:
 355 0024 00600240 		.word	1073897472
 356 0028 00000000 		.word	.LANCHOR0
 357              		.cfi_endproc
 358              	.LFE332:
 359              		.size	Vector80, .-Vector80
 360              		.section	.text.Vector84,"ax",%progbits
 361              		.align	1
 362              		.p2align 2,,3
 363              		.global	Vector84
 364              		.syntax unified
 365              		.thumb
 366              		.thumb_func
 367              		.fpu fpv4-sp-d16
 368              		.type	Vector84, %function
 369              	Vector84:
 370              	.LFB333:
 371              		.loc 1 271 0
 372              		.cfi_startproc
 373              		@ args = 0, pretend = 0, frame = 0
 374              		@ frame_needed = 0, uses_anonymous_args = 0
 375              		.loc 1 276 0
 376 0000 084B     		ldr	r3, .L56
 377              		.loc 1 278 0
 378 0002 0948     		ldr	r0, .L56+4
 379              		.loc 1 276 0
 380 0004 5968     		ldr	r1, [r3, #4]
 381              		.loc 1 278 0
 382 0006 426B     		ldr	r2, [r0, #52]
 383              		.loc 1 276 0
 384 0008 090C     		lsrs	r1, r1, #16
 385 000a 01F03D01 		and	r1, r1, #61
 386              	.LVL18:
 387              		.loc 1 271 0
 388 000e 10B5     		push	{r4, lr}
 389              		.cfi_def_cfa_offset 8
 390              		.cfi_offset 4, -8
 391              		.cfi_offset 14, -4
 392              		.loc 1 277 0
 393 0010 0C04     		lsls	r4, r1, #16
 394 0012 DC60     		str	r4, [r3, #12]
 395              		.loc 1 278 0
 396 0014 0AB1     		cbz	r2, .L51
 397              		.loc 1 279 0
 398 0016 806B     		ldr	r0, [r0, #56]
 399 0018 9047     		blx	r2
ARM GAS  /tmp/cccJFgwG.s 			page 8


 400              	.LVL19:
 401              	.L51:
 402              		.loc 1 282 0
 403 001a BDE81040 		pop	{r4, lr}
 404              		.cfi_restore 14
 405              		.cfi_restore 4
 406              		.cfi_def_cfa_offset 0
 407              		.loc 1 281 0
 408 001e FFF7FEBF 		b	_port_irq_epilogue
 409              	.LVL20:
 410              	.L57:
 411 0022 00BF     		.align	2
 412              	.L56:
 413 0024 00600240 		.word	1073897472
 414 0028 00000000 		.word	.LANCHOR0
 415              		.cfi_endproc
 416              	.LFE333:
 417              		.size	Vector84, .-Vector84
 418              		.section	.text.VectorFC,"ax",%progbits
 419              		.align	1
 420              		.p2align 2,,3
 421              		.global	VectorFC
 422              		.syntax unified
 423              		.thumb
 424              		.thumb_func
 425              		.fpu fpv4-sp-d16
 426              		.type	VectorFC, %function
 427              	VectorFC:
 428              	.LFB334:
 429              		.loc 1 289 0
 430              		.cfi_startproc
 431              		@ args = 0, pretend = 0, frame = 0
 432              		@ frame_needed = 0, uses_anonymous_args = 0
 433              		.loc 1 294 0
 434 0000 084B     		ldr	r3, .L64
 435              		.loc 1 296 0
 436 0002 0948     		ldr	r0, .L64+4
 437              		.loc 1 294 0
 438 0004 5968     		ldr	r1, [r3, #4]
 439              		.loc 1 296 0
 440 0006 C26B     		ldr	r2, [r0, #60]
 441              		.loc 1 294 0
 442 0008 890D     		lsrs	r1, r1, #22
 443 000a 01F03D01 		and	r1, r1, #61
 444              	.LVL21:
 445              		.loc 1 289 0
 446 000e 10B5     		push	{r4, lr}
 447              		.cfi_def_cfa_offset 8
 448              		.cfi_offset 4, -8
 449              		.cfi_offset 14, -4
 450              		.loc 1 295 0
 451 0010 8C05     		lsls	r4, r1, #22
 452 0012 DC60     		str	r4, [r3, #12]
 453              		.loc 1 296 0
 454 0014 0AB1     		cbz	r2, .L59
 455              		.loc 1 297 0
 456 0016 006C     		ldr	r0, [r0, #64]
ARM GAS  /tmp/cccJFgwG.s 			page 9


 457 0018 9047     		blx	r2
 458              	.LVL22:
 459              	.L59:
 460              		.loc 1 300 0
 461 001a BDE81040 		pop	{r4, lr}
 462              		.cfi_restore 14
 463              		.cfi_restore 4
 464              		.cfi_def_cfa_offset 0
 465              		.loc 1 299 0
 466 001e FFF7FEBF 		b	_port_irq_epilogue
 467              	.LVL23:
 468              	.L65:
 469 0022 00BF     		.align	2
 470              	.L64:
 471 0024 00600240 		.word	1073897472
 472 0028 00000000 		.word	.LANCHOR0
 473              		.cfi_endproc
 474              	.LFE334:
 475              		.size	VectorFC, .-VectorFC
 476              		.section	.text.Vector120,"ax",%progbits
 477              		.align	1
 478              		.p2align 2,,3
 479              		.global	Vector120
 480              		.syntax unified
 481              		.thumb
 482              		.thumb_func
 483              		.fpu fpv4-sp-d16
 484              		.type	Vector120, %function
 485              	Vector120:
 486              	.LFB335:
 487              		.loc 1 307 0
 488              		.cfi_startproc
 489              		@ args = 0, pretend = 0, frame = 0
 490              		@ frame_needed = 0, uses_anonymous_args = 0
 491 0000 08B5     		push	{r3, lr}
 492              		.cfi_def_cfa_offset 8
 493              		.cfi_offset 3, -8
 494              		.cfi_offset 14, -4
 495              		.loc 1 312 0
 496 0002 074B     		ldr	r3, .L72
 497              		.loc 1 314 0
 498 0004 0748     		ldr	r0, .L72+4
 499              		.loc 1 312 0
 500 0006 1968     		ldr	r1, [r3]
 501              		.loc 1 314 0
 502 0008 426C     		ldr	r2, [r0, #68]
 503              		.loc 1 312 0
 504 000a 01F03D01 		and	r1, r1, #61
 505              	.LVL24:
 506              		.loc 1 313 0
 507 000e 9960     		str	r1, [r3, #8]
 508              		.loc 1 314 0
 509 0010 0AB1     		cbz	r2, .L67
 510              		.loc 1 315 0
 511 0012 806C     		ldr	r0, [r0, #72]
 512 0014 9047     		blx	r2
 513              	.LVL25:
ARM GAS  /tmp/cccJFgwG.s 			page 10


 514              	.L67:
 515              		.loc 1 318 0
 516 0016 BDE80840 		pop	{r3, lr}
 517              		.cfi_restore 14
 518              		.cfi_restore 3
 519              		.cfi_def_cfa_offset 0
 520              		.loc 1 317 0
 521 001a FFF7FEBF 		b	_port_irq_epilogue
 522              	.LVL26:
 523              	.L73:
 524 001e 00BF     		.align	2
 525              	.L72:
 526 0020 00640240 		.word	1073898496
 527 0024 00000000 		.word	.LANCHOR0
 528              		.cfi_endproc
 529              	.LFE335:
 530              		.size	Vector120, .-Vector120
 531              		.section	.text.Vector124,"ax",%progbits
 532              		.align	1
 533              		.p2align 2,,3
 534              		.global	Vector124
 535              		.syntax unified
 536              		.thumb
 537              		.thumb_func
 538              		.fpu fpv4-sp-d16
 539              		.type	Vector124, %function
 540              	Vector124:
 541              	.LFB336:
 542              		.loc 1 325 0
 543              		.cfi_startproc
 544              		@ args = 0, pretend = 0, frame = 0
 545              		@ frame_needed = 0, uses_anonymous_args = 0
 546              		.loc 1 330 0
 547 0000 084B     		ldr	r3, .L80
 548              		.loc 1 332 0
 549 0002 0948     		ldr	r0, .L80+4
 550              		.loc 1 330 0
 551 0004 1968     		ldr	r1, [r3]
 552              		.loc 1 332 0
 553 0006 C26C     		ldr	r2, [r0, #76]
 554              		.loc 1 330 0
 555 0008 8909     		lsrs	r1, r1, #6
 556 000a 01F03D01 		and	r1, r1, #61
 557              	.LVL27:
 558              		.loc 1 325 0
 559 000e 10B5     		push	{r4, lr}
 560              		.cfi_def_cfa_offset 8
 561              		.cfi_offset 4, -8
 562              		.cfi_offset 14, -4
 563              		.loc 1 331 0
 564 0010 8C01     		lsls	r4, r1, #6
 565 0012 9C60     		str	r4, [r3, #8]
 566              		.loc 1 332 0
 567 0014 0AB1     		cbz	r2, .L75
 568              		.loc 1 333 0
 569 0016 006D     		ldr	r0, [r0, #80]
 570 0018 9047     		blx	r2
ARM GAS  /tmp/cccJFgwG.s 			page 11


 571              	.LVL28:
 572              	.L75:
 573              		.loc 1 336 0
 574 001a BDE81040 		pop	{r4, lr}
 575              		.cfi_restore 14
 576              		.cfi_restore 4
 577              		.cfi_def_cfa_offset 0
 578              		.loc 1 335 0
 579 001e FFF7FEBF 		b	_port_irq_epilogue
 580              	.LVL29:
 581              	.L81:
 582 0022 00BF     		.align	2
 583              	.L80:
 584 0024 00640240 		.word	1073898496
 585 0028 00000000 		.word	.LANCHOR0
 586              		.cfi_endproc
 587              	.LFE336:
 588              		.size	Vector124, .-Vector124
 589              		.section	.text.Vector128,"ax",%progbits
 590              		.align	1
 591              		.p2align 2,,3
 592              		.global	Vector128
 593              		.syntax unified
 594              		.thumb
 595              		.thumb_func
 596              		.fpu fpv4-sp-d16
 597              		.type	Vector128, %function
 598              	Vector128:
 599              	.LFB337:
 600              		.loc 1 343 0
 601              		.cfi_startproc
 602              		@ args = 0, pretend = 0, frame = 0
 603              		@ frame_needed = 0, uses_anonymous_args = 0
 604              		.loc 1 348 0
 605 0000 084B     		ldr	r3, .L88
 606              		.loc 1 350 0
 607 0002 0948     		ldr	r0, .L88+4
 608              		.loc 1 348 0
 609 0004 1968     		ldr	r1, [r3]
 610              		.loc 1 350 0
 611 0006 426D     		ldr	r2, [r0, #84]
 612              		.loc 1 348 0
 613 0008 090C     		lsrs	r1, r1, #16
 614 000a 01F03D01 		and	r1, r1, #61
 615              	.LVL30:
 616              		.loc 1 343 0
 617 000e 10B5     		push	{r4, lr}
 618              		.cfi_def_cfa_offset 8
 619              		.cfi_offset 4, -8
 620              		.cfi_offset 14, -4
 621              		.loc 1 349 0
 622 0010 0C04     		lsls	r4, r1, #16
 623 0012 9C60     		str	r4, [r3, #8]
 624              		.loc 1 350 0
 625 0014 0AB1     		cbz	r2, .L83
 626              		.loc 1 351 0
 627 0016 806D     		ldr	r0, [r0, #88]
ARM GAS  /tmp/cccJFgwG.s 			page 12


 628 0018 9047     		blx	r2
 629              	.LVL31:
 630              	.L83:
 631              		.loc 1 354 0
 632 001a BDE81040 		pop	{r4, lr}
 633              		.cfi_restore 14
 634              		.cfi_restore 4
 635              		.cfi_def_cfa_offset 0
 636              		.loc 1 353 0
 637 001e FFF7FEBF 		b	_port_irq_epilogue
 638              	.LVL32:
 639              	.L89:
 640 0022 00BF     		.align	2
 641              	.L88:
 642 0024 00640240 		.word	1073898496
 643 0028 00000000 		.word	.LANCHOR0
 644              		.cfi_endproc
 645              	.LFE337:
 646              		.size	Vector128, .-Vector128
 647              		.section	.text.Vector12C,"ax",%progbits
 648              		.align	1
 649              		.p2align 2,,3
 650              		.global	Vector12C
 651              		.syntax unified
 652              		.thumb
 653              		.thumb_func
 654              		.fpu fpv4-sp-d16
 655              		.type	Vector12C, %function
 656              	Vector12C:
 657              	.LFB338:
 658              		.loc 1 361 0
 659              		.cfi_startproc
 660              		@ args = 0, pretend = 0, frame = 0
 661              		@ frame_needed = 0, uses_anonymous_args = 0
 662              		.loc 1 366 0
 663 0000 084B     		ldr	r3, .L96
 664              		.loc 1 368 0
 665 0002 0948     		ldr	r0, .L96+4
 666              		.loc 1 366 0
 667 0004 1968     		ldr	r1, [r3]
 668              		.loc 1 368 0
 669 0006 C26D     		ldr	r2, [r0, #92]
 670              		.loc 1 366 0
 671 0008 890D     		lsrs	r1, r1, #22
 672 000a 01F03D01 		and	r1, r1, #61
 673              	.LVL33:
 674              		.loc 1 361 0
 675 000e 10B5     		push	{r4, lr}
 676              		.cfi_def_cfa_offset 8
 677              		.cfi_offset 4, -8
 678              		.cfi_offset 14, -4
 679              		.loc 1 367 0
 680 0010 8C05     		lsls	r4, r1, #22
 681 0012 9C60     		str	r4, [r3, #8]
 682              		.loc 1 368 0
 683 0014 0AB1     		cbz	r2, .L91
 684              		.loc 1 369 0
ARM GAS  /tmp/cccJFgwG.s 			page 13


 685 0016 006E     		ldr	r0, [r0, #96]
 686 0018 9047     		blx	r2
 687              	.LVL34:
 688              	.L91:
 689              		.loc 1 372 0
 690 001a BDE81040 		pop	{r4, lr}
 691              		.cfi_restore 14
 692              		.cfi_restore 4
 693              		.cfi_def_cfa_offset 0
 694              		.loc 1 371 0
 695 001e FFF7FEBF 		b	_port_irq_epilogue
 696              	.LVL35:
 697              	.L97:
 698 0022 00BF     		.align	2
 699              	.L96:
 700 0024 00640240 		.word	1073898496
 701 0028 00000000 		.word	.LANCHOR0
 702              		.cfi_endproc
 703              	.LFE338:
 704              		.size	Vector12C, .-Vector12C
 705              		.section	.text.Vector130,"ax",%progbits
 706              		.align	1
 707              		.p2align 2,,3
 708              		.global	Vector130
 709              		.syntax unified
 710              		.thumb
 711              		.thumb_func
 712              		.fpu fpv4-sp-d16
 713              		.type	Vector130, %function
 714              	Vector130:
 715              	.LFB339:
 716              		.loc 1 379 0
 717              		.cfi_startproc
 718              		@ args = 0, pretend = 0, frame = 0
 719              		@ frame_needed = 0, uses_anonymous_args = 0
 720 0000 08B5     		push	{r3, lr}
 721              		.cfi_def_cfa_offset 8
 722              		.cfi_offset 3, -8
 723              		.cfi_offset 14, -4
 724              		.loc 1 384 0
 725 0002 074B     		ldr	r3, .L104
 726              		.loc 1 386 0
 727 0004 0748     		ldr	r0, .L104+4
 728              		.loc 1 384 0
 729 0006 5968     		ldr	r1, [r3, #4]
 730              		.loc 1 386 0
 731 0008 426E     		ldr	r2, [r0, #100]
 732              		.loc 1 384 0
 733 000a 01F03D01 		and	r1, r1, #61
 734              	.LVL36:
 735              		.loc 1 385 0
 736 000e D960     		str	r1, [r3, #12]
 737              		.loc 1 386 0
 738 0010 0AB1     		cbz	r2, .L99
 739              		.loc 1 387 0
 740 0012 806E     		ldr	r0, [r0, #104]
 741 0014 9047     		blx	r2
ARM GAS  /tmp/cccJFgwG.s 			page 14


 742              	.LVL37:
 743              	.L99:
 744              		.loc 1 390 0
 745 0016 BDE80840 		pop	{r3, lr}
 746              		.cfi_restore 14
 747              		.cfi_restore 3
 748              		.cfi_def_cfa_offset 0
 749              		.loc 1 389 0
 750 001a FFF7FEBF 		b	_port_irq_epilogue
 751              	.LVL38:
 752              	.L105:
 753 001e 00BF     		.align	2
 754              	.L104:
 755 0020 00640240 		.word	1073898496
 756 0024 00000000 		.word	.LANCHOR0
 757              		.cfi_endproc
 758              	.LFE339:
 759              		.size	Vector130, .-Vector130
 760              		.section	.text.Vector150,"ax",%progbits
 761              		.align	1
 762              		.p2align 2,,3
 763              		.global	Vector150
 764              		.syntax unified
 765              		.thumb
 766              		.thumb_func
 767              		.fpu fpv4-sp-d16
 768              		.type	Vector150, %function
 769              	Vector150:
 770              	.LFB340:
 771              		.loc 1 397 0
 772              		.cfi_startproc
 773              		@ args = 0, pretend = 0, frame = 0
 774              		@ frame_needed = 0, uses_anonymous_args = 0
 775              		.loc 1 402 0
 776 0000 084B     		ldr	r3, .L112
 777              		.loc 1 404 0
 778 0002 0948     		ldr	r0, .L112+4
 779              		.loc 1 402 0
 780 0004 5968     		ldr	r1, [r3, #4]
 781              		.loc 1 404 0
 782 0006 C26E     		ldr	r2, [r0, #108]
 783              		.loc 1 402 0
 784 0008 8909     		lsrs	r1, r1, #6
 785 000a 01F03D01 		and	r1, r1, #61
 786              	.LVL39:
 787              		.loc 1 397 0
 788 000e 10B5     		push	{r4, lr}
 789              		.cfi_def_cfa_offset 8
 790              		.cfi_offset 4, -8
 791              		.cfi_offset 14, -4
 792              		.loc 1 403 0
 793 0010 8C01     		lsls	r4, r1, #6
 794 0012 DC60     		str	r4, [r3, #12]
 795              		.loc 1 404 0
 796 0014 0AB1     		cbz	r2, .L107
 797              		.loc 1 405 0
 798 0016 006F     		ldr	r0, [r0, #112]
ARM GAS  /tmp/cccJFgwG.s 			page 15


 799 0018 9047     		blx	r2
 800              	.LVL40:
 801              	.L107:
 802              		.loc 1 408 0
 803 001a BDE81040 		pop	{r4, lr}
 804              		.cfi_restore 14
 805              		.cfi_restore 4
 806              		.cfi_def_cfa_offset 0
 807              		.loc 1 407 0
 808 001e FFF7FEBF 		b	_port_irq_epilogue
 809              	.LVL41:
 810              	.L113:
 811 0022 00BF     		.align	2
 812              	.L112:
 813 0024 00640240 		.word	1073898496
 814 0028 00000000 		.word	.LANCHOR0
 815              		.cfi_endproc
 816              	.LFE340:
 817              		.size	Vector150, .-Vector150
 818              		.section	.text.Vector154,"ax",%progbits
 819              		.align	1
 820              		.p2align 2,,3
 821              		.global	Vector154
 822              		.syntax unified
 823              		.thumb
 824              		.thumb_func
 825              		.fpu fpv4-sp-d16
 826              		.type	Vector154, %function
 827              	Vector154:
 828              	.LFB341:
 829              		.loc 1 415 0
 830              		.cfi_startproc
 831              		@ args = 0, pretend = 0, frame = 0
 832              		@ frame_needed = 0, uses_anonymous_args = 0
 833              		.loc 1 420 0
 834 0000 084B     		ldr	r3, .L120
 835              		.loc 1 422 0
 836 0002 0948     		ldr	r0, .L120+4
 837              		.loc 1 420 0
 838 0004 5968     		ldr	r1, [r3, #4]
 839              		.loc 1 422 0
 840 0006 426F     		ldr	r2, [r0, #116]
 841              		.loc 1 420 0
 842 0008 090C     		lsrs	r1, r1, #16
 843 000a 01F03D01 		and	r1, r1, #61
 844              	.LVL42:
 845              		.loc 1 415 0
 846 000e 10B5     		push	{r4, lr}
 847              		.cfi_def_cfa_offset 8
 848              		.cfi_offset 4, -8
 849              		.cfi_offset 14, -4
 850              		.loc 1 421 0
 851 0010 0C04     		lsls	r4, r1, #16
 852 0012 DC60     		str	r4, [r3, #12]
 853              		.loc 1 422 0
 854 0014 0AB1     		cbz	r2, .L115
 855              		.loc 1 423 0
ARM GAS  /tmp/cccJFgwG.s 			page 16


 856 0016 806F     		ldr	r0, [r0, #120]
 857 0018 9047     		blx	r2
 858              	.LVL43:
 859              	.L115:
 860              		.loc 1 426 0
 861 001a BDE81040 		pop	{r4, lr}
 862              		.cfi_restore 14
 863              		.cfi_restore 4
 864              		.cfi_def_cfa_offset 0
 865              		.loc 1 425 0
 866 001e FFF7FEBF 		b	_port_irq_epilogue
 867              	.LVL44:
 868              	.L121:
 869 0022 00BF     		.align	2
 870              	.L120:
 871 0024 00640240 		.word	1073898496
 872 0028 00000000 		.word	.LANCHOR0
 873              		.cfi_endproc
 874              	.LFE341:
 875              		.size	Vector154, .-Vector154
 876              		.section	.text.Vector158,"ax",%progbits
 877              		.align	1
 878              		.p2align 2,,3
 879              		.global	Vector158
 880              		.syntax unified
 881              		.thumb
 882              		.thumb_func
 883              		.fpu fpv4-sp-d16
 884              		.type	Vector158, %function
 885              	Vector158:
 886              	.LFB342:
 887              		.loc 1 433 0
 888              		.cfi_startproc
 889              		@ args = 0, pretend = 0, frame = 0
 890              		@ frame_needed = 0, uses_anonymous_args = 0
 891              		.loc 1 438 0
 892 0000 084B     		ldr	r3, .L128
 893              		.loc 1 440 0
 894 0002 0948     		ldr	r0, .L128+4
 895              		.loc 1 438 0
 896 0004 5968     		ldr	r1, [r3, #4]
 897              		.loc 1 440 0
 898 0006 C26F     		ldr	r2, [r0, #124]
 899              		.loc 1 438 0
 900 0008 890D     		lsrs	r1, r1, #22
 901 000a 01F03D01 		and	r1, r1, #61
 902              	.LVL45:
 903              		.loc 1 433 0
 904 000e 10B5     		push	{r4, lr}
 905              		.cfi_def_cfa_offset 8
 906              		.cfi_offset 4, -8
 907              		.cfi_offset 14, -4
 908              		.loc 1 439 0
 909 0010 8C05     		lsls	r4, r1, #22
 910 0012 DC60     		str	r4, [r3, #12]
 911              		.loc 1 440 0
 912 0014 12B1     		cbz	r2, .L123
ARM GAS  /tmp/cccJFgwG.s 			page 17


 913              		.loc 1 441 0
 914 0016 D0F88000 		ldr	r0, [r0, #128]
 915 001a 9047     		blx	r2
 916              	.LVL46:
 917              	.L123:
 918              		.loc 1 444 0
 919 001c BDE81040 		pop	{r4, lr}
 920              		.cfi_restore 14
 921              		.cfi_restore 4
 922              		.cfi_def_cfa_offset 0
 923              		.loc 1 443 0
 924 0020 FFF7FEBF 		b	_port_irq_epilogue
 925              	.LVL47:
 926              	.L129:
 927              		.align	2
 928              	.L128:
 929 0024 00640240 		.word	1073898496
 930 0028 00000000 		.word	.LANCHOR0
 931              		.cfi_endproc
 932              	.LFE342:
 933              		.size	Vector158, .-Vector158
 934              		.section	.text.dmaInit,"ax",%progbits
 935              		.align	1
 936              		.p2align 2,,3
 937              		.global	dmaInit
 938              		.syntax unified
 939              		.thumb
 940              		.thumb_func
 941              		.fpu fpv4-sp-d16
 942              		.type	dmaInit, %function
 943              	dmaInit:
 944              	.LFB343:
 945              		.loc 1 455 0
 946              		.cfi_startproc
 947              		@ args = 0, pretend = 0, frame = 0
 948              		@ frame_needed = 0, uses_anonymous_args = 0
 949              		@ link register save eliminated.
 950 0000 F0B4     		push	{r4, r5, r6, r7}
 951              		.cfi_def_cfa_offset 16
 952              		.cfi_offset 4, -16
 953              		.cfi_offset 5, -12
 954              		.cfi_offset 6, -8
 955              		.cfi_offset 7, -4
 956              		.loc 1 458 0
 957 0002 1E4A     		ldr	r2, .L132
 958              		.loc 1 460 0
 959 0004 1E4C     		ldr	r4, .L132+4
 960 0006 1F49     		ldr	r1, .L132+8
 961 0008 1F4D     		ldr	r5, .L132+12
 962 000a 2048     		ldr	r0, .L132+16
 963 000c 204F     		ldr	r7, .L132+20
 964 000e 214E     		ldr	r6, .L132+24
 965              		.loc 1 458 0
 966 0010 0023     		movs	r3, #0
 967              		.loc 1 461 0
 968 0012 C2E90033 		strd	r3, r3, [r2]
 969              	.LVL48:
ARM GAS  /tmp/cccJFgwG.s 			page 18


 970 0016 D360     		str	r3, [r2, #12]
 971              	.LVL49:
 972 0018 5361     		str	r3, [r2, #20]
 973              	.LVL50:
 974 001a D361     		str	r3, [r2, #28]
 975              	.LVL51:
 976 001c 5362     		str	r3, [r2, #36]
 977              	.LVL52:
 978 001e D362     		str	r3, [r2, #44]
 979              	.LVL53:
 980 0020 5363     		str	r3, [r2, #52]
 981              	.LVL54:
 982 0022 D363     		str	r3, [r2, #60]
 983              	.LVL55:
 984 0024 5364     		str	r3, [r2, #68]
 985              	.LVL56:
 986 0026 D364     		str	r3, [r2, #76]
 987              	.LVL57:
 988 0028 5365     		str	r3, [r2, #84]
 989              	.LVL58:
 990 002a D365     		str	r3, [r2, #92]
 991              	.LVL59:
 992 002c 5366     		str	r3, [r2, #100]
 993              	.LVL60:
 994 002e D366     		str	r3, [r2, #108]
 995              	.LVL61:
 996 0030 5367     		str	r3, [r2, #116]
 997              	.LVL62:
 998              		.loc 1 463 0
 999 0032 703C     		subs	r4, r4, #112
 1000              		.loc 1 460 0
 1001 0034 3B60     		str	r3, [r7]
 1002 0036 3360     		str	r3, [r6]
 1003 0038 0B60     		str	r3, [r1]
 1004 003a 2B60     		str	r3, [r5]
 1005 003c 2367     		str	r3, [r4, #112]
 1006 003e 0360     		str	r3, [r0]
 1007 0040 0B66     		str	r3, [r1, #96]
 1008 0042 2B66     		str	r3, [r5, #96]
 1009 0044 C4F81034 		str	r3, [r4, #1040]
 1010 0048 C0F8A033 		str	r3, [r0, #928]
 1011 004c C1F80034 		str	r3, [r1, #1024]
 1012 0050 C5F80034 		str	r3, [r5, #1024]
 1013 0054 C4F87034 		str	r3, [r4, #1136]
 1014 0058 C0F80034 		str	r3, [r0, #1024]
 1015 005c C1F86034 		str	r3, [r1, #1120]
 1016              		.loc 1 463 0
 1017 0060 4FF0FF31 		mov	r1, #-1
 1018              		.loc 1 460 0
 1019 0064 C5F86034 		str	r3, [r5, #1120]
 1020              		.loc 1 461 0
 1021 0068 D367     		str	r3, [r2, #124]
 1022              	.LVL63:
 1023              		.loc 1 463 0
 1024 006a A160     		str	r1, [r4, #8]
 1025              		.loc 1 464 0
 1026 006c E160     		str	r1, [r4, #12]
ARM GAS  /tmp/cccJFgwG.s 			page 19


 1027              		.loc 1 465 0
 1028 006e C0F88013 		str	r1, [r0, #896]
 1029              		.loc 1 467 0
 1030 0072 F0BC     		pop	{r4, r5, r6, r7}
 1031              		.cfi_restore 7
 1032              		.cfi_restore 6
 1033              		.cfi_restore 5
 1034              		.cfi_restore 4
 1035              		.cfi_def_cfa_offset 0
 1036              		.loc 1 466 0
 1037 0074 C0F88413 		str	r1, [r0, #900]
 1038              		.loc 1 467 0
 1039 0078 7047     		bx	lr
 1040              	.L133:
 1041 007a 00BF     		.align	2
 1042              	.L132:
 1043 007c 00000000 		.word	.LANCHOR0
 1044 0080 70600240 		.word	1073897584
 1045 0084 40600240 		.word	1073897536
 1046 0088 58600240 		.word	1073897560
 1047 008c 88600240 		.word	1073897608
 1048 0090 10600240 		.word	1073897488
 1049 0094 28600240 		.word	1073897512
 1050              		.cfi_endproc
 1051              	.LFE343:
 1052              		.size	dmaInit, .-dmaInit
 1053              		.section	.text.dmaStreamAllocI,"ax",%progbits
 1054              		.align	1
 1055              		.p2align 2,,3
 1056              		.global	dmaStreamAllocI
 1057              		.syntax unified
 1058              		.thumb
 1059              		.thumb_func
 1060              		.fpu fpv4-sp-d16
 1061              		.type	dmaStreamAllocI, %function
 1062              	dmaStreamAllocI:
 1063              	.LFB344:
 1064              		.loc 1 494 0
 1065              		.cfi_startproc
 1066              		@ args = 0, pretend = 0, frame = 0
 1067              		@ frame_needed = 0, uses_anonymous_args = 0
 1068              	.LVL64:
 1069              	.LBB52:
 1070              		.loc 1 523 0
 1071 0000 DFF8C4C0 		ldr	ip, .L155+8
 1072              	.LBE52:
 1073              		.loc 1 499 0
 1074 0004 0F28     		cmp	r0, #15
 1075              		.loc 1 494 0
 1076 0006 F8B5     		push	{r3, r4, r5, r6, r7, lr}
 1077              		.cfi_def_cfa_offset 24
 1078              		.cfi_offset 3, -24
 1079              		.cfi_offset 4, -20
 1080              		.cfi_offset 5, -16
 1081              		.cfi_offset 6, -12
 1082              		.cfi_offset 7, -8
 1083              		.cfi_offset 14, -4
ARM GAS  /tmp/cccJFgwG.s 			page 20


 1084              		.loc 1 499 0
 1085 0008 98BF     		it	ls
 1086 000a 0746     		movls	r7, r0
 1087              	.LBB54:
 1088              		.loc 1 523 0
 1089 000c DCF80000 		ldr	r0, [ip]
 1090              	.LVL65:
 1091              	.LBE54:
 1092              		.loc 1 499 0
 1093 0010 98BF     		it	ls
 1094 0012 3C46     		movls	r4, r7
 1095              	.LVL66:
 1096              	.LBB55:
 1097              		.loc 1 522 0
 1098 0014 0126     		movs	r6, #1
 1099              	.LVL67:
 1100              	.L141:
 1101 0016 06FA04F5 		lsl	r5, r6, r4
 1102              	.LVL68:
 1103              		.loc 1 523 0
 1104 001a 2842     		tst	r0, r5
 1105 001c 05D0     		beq	.L154
 1106              	.LBE55:
 1107              		.loc 1 521 0 discriminator 2
 1108 001e 0134     		adds	r4, r4, #1
 1109              	.LVL69:
 1110 0020 A742     		cmp	r7, r4
 1111 0022 F8D2     		bcs	.L141
 1112              		.loc 1 560 0
 1113 0024 0027     		movs	r7, #0
 1114              	.LVL70:
 1115              	.L134:
 1116              		.loc 1 561 0
 1117 0026 3846     		mov	r0, r7
 1118 0028 F8BD     		pop	{r3, r4, r5, r6, r7, pc}
 1119              	.LVL71:
 1120              	.L154:
 1121              	.LBB56:
 1122              	.LBB53:
 1123              		.loc 1 529 0
 1124 002a 2843     		orrs	r0, r0, r5
 1125              		.loc 1 527 0
 1126 002c 0CEBC407 		add	r7, ip, r4, lsl #3
 1127              	.LVL72:
 1128              		.loc 1 529 0
 1129 0030 CCF80000 		str	r0, [ip]
 1130              		.loc 1 524 0
 1131 0034 224E     		ldr	r6, .L155
 1132 0036 4FEA440C 		lsl	ip, r4, #1
 1133              		.loc 1 528 0
 1134 003a C7E90123 		strd	r2, r3, [r7, #4]
 1135              		.loc 1 532 0
 1136 003e 15F0FF0F 		tst	r5, #255
 1137              		.loc 1 524 0
 1138 0042 0CEB0407 		add	r7, ip, r4
 1139 0046 06EB8707 		add	r7, r6, r7, lsl #2
 1140              	.LVL73:
ARM GAS  /tmp/cccJFgwG.s 			page 21


 1141              		.loc 1 532 0
 1142 004a 09D0     		beq	.L137
 1143              		.loc 1 533 0
 1144 004c 1D4B     		ldr	r3, .L155+4
 1145              	.LVL74:
 1146 004e 186B     		ldr	r0, [r3, #48]
 1147 0050 40F40010 		orr	r0, r0, #2097152
 1148 0054 1863     		str	r0, [r3, #48]
 1149 0056 186D     		ldr	r0, [r3, #80]
 1150 0058 40F40010 		orr	r0, r0, #2097152
 1151 005c 1865     		str	r0, [r3, #80]
 1152 005e 1B6D     		ldr	r3, [r3, #80]
 1153              	.L137:
 1154              		.loc 1 535 0
 1155 0060 15F47F4F 		tst	r5, #65280
 1156 0064 09D0     		beq	.L138
 1157              		.loc 1 536 0
 1158 0066 174B     		ldr	r3, .L155+4
 1159 0068 186B     		ldr	r0, [r3, #48]
 1160 006a 40F48000 		orr	r0, r0, #4194304
 1161 006e 1863     		str	r0, [r3, #48]
 1162 0070 186D     		ldr	r0, [r3, #80]
 1163 0072 40F48000 		orr	r0, r0, #4194304
 1164 0076 1865     		str	r0, [r3, #80]
 1165 0078 1B6D     		ldr	r3, [r3, #80]
 1166              	.L138:
 1167              		.loc 1 547 0
 1168 007a 0CEB0403 		add	r3, ip, r4
 1169 007e 56F82300 		ldr	r0, [r6, r3, lsl #2]
 1170 0082 0368     		ldr	r3, [r0]
 1171 0084 23F01F03 		bic	r3, r3, #31
 1172 0088 0360     		str	r3, [r0]
 1173              	.L139:
 1174              		.loc 1 547 0 is_stmt 0 discriminator 2
 1175 008a 0368     		ldr	r3, [r0]
 1176 008c 13F00103 		ands	r3, r3, #1
 1177 0090 FBD1     		bne	.L139
 1178              		.loc 1 547 0 discriminator 3
 1179 0092 6444     		add	r4, r4, ip
 1180              	.LVL75:
 1181 0094 06EB8406 		add	r6, r6, r4, lsl #2
 1182 0098 3D24     		movs	r4, #61
 1183 009a 96F809C0 		ldrb	ip, [r6, #9]	@ zero_extendqisi2
 1184 009e 7568     		ldr	r5, [r6, #4]
 1185              	.LVL76:
 1186 00a0 04FA0CF4 		lsl	r4, r4, ip
 1187              		.loc 1 549 0 is_stmt 1 discriminator 3
 1188 00a4 4FF0210C 		mov	ip, #33
 1189              		.loc 1 547 0 discriminator 3
 1190 00a8 2C60     		str	r4, [r5]
 1191              		.loc 1 548 0 discriminator 3
 1192 00aa 0360     		str	r3, [r0]
 1193              		.loc 1 549 0 discriminator 3
 1194 00ac C0F814C0 		str	ip, [r0, #20]
 1195              		.loc 1 552 0 discriminator 3
 1196 00b0 002A     		cmp	r2, #0
 1197 00b2 B8D0     		beq	.L134
ARM GAS  /tmp/cccJFgwG.s 			page 22


 1198              		.loc 1 553 0
 1199 00b4 F07A     		ldrb	r0, [r6, #11]	@ zero_extendqisi2
 1200 00b6 FFF7FEFF 		bl	nvicEnableVector
 1201              	.LVL77:
 1202              	.LBE53:
 1203              	.LBE56:
 1204              		.loc 1 561 0
 1205 00ba 3846     		mov	r0, r7
 1206 00bc F8BD     		pop	{r3, r4, r5, r6, r7, pc}
 1207              	.LVL78:
 1208              	.L156:
 1209 00be 00BF     		.align	2
 1210              	.L155:
 1211 00c0 00000000 		.word	.LANCHOR1
 1212 00c4 00380240 		.word	1073887232
 1213 00c8 00000000 		.word	.LANCHOR0
 1214              		.cfi_endproc
 1215              	.LFE344:
 1216              		.size	dmaStreamAllocI, .-dmaStreamAllocI
 1217              		.section	.text.dmaStreamAlloc,"ax",%progbits
 1218              		.align	1
 1219              		.p2align 2,,3
 1220              		.global	dmaStreamAlloc
 1221              		.syntax unified
 1222              		.thumb
 1223              		.thumb_func
 1224              		.fpu fpv4-sp-d16
 1225              		.type	dmaStreamAlloc, %function
 1226              	dmaStreamAlloc:
 1227              	.LFB345:
 1228              		.loc 1 588 0
 1229              		.cfi_startproc
 1230              		@ args = 0, pretend = 0, frame = 0
 1231              		@ frame_needed = 0, uses_anonymous_args = 0
 1232              	.LVL79:
 1233 0000 F8B5     		push	{r3, r4, r5, r6, r7, lr}
 1234              		.cfi_def_cfa_offset 24
 1235              		.cfi_offset 3, -24
 1236              		.cfi_offset 4, -20
 1237              		.cfi_offset 5, -16
 1238              		.cfi_offset 6, -12
 1239              		.cfi_offset 7, -8
 1240              		.cfi_offset 14, -4
 1241              	.LBB72:
 1242              	.LBB73:
 1243              	.LBB74:
 1244              	.LBB75:
 1245              	.LBB76:
 1246              		.file 2 "./RM18A-ChibiOS18-Core/chibios/os/common/ext/ARM/CMSIS/Core/Include/cmsis_gcc.h"
 1247              		.loc 2 493 0
 1248 0002 2025     		movs	r5, #32
 1249              		.syntax unified
 1250              	@ 493 "./RM18A-ChibiOS18-Core/chibios/os/common/ext/ARM/CMSIS/Core/Include/cmsis_gcc.h" 1
 1251 0004 85F31188 		MSR basepri, r5
 1252              	@ 0 "" 2
 1253              	.LVL80:
 1254              		.thumb
ARM GAS  /tmp/cccJFgwG.s 			page 23


 1255              		.syntax unified
 1256              	.LBE76:
 1257              	.LBE75:
 1258              	.LBE74:
 1259              	.LBE73:
 1260              	.LBE72:
 1261              	.LBB77:
 1262              	.LBB78:
 1263              	.LBB79:
 1264              		.loc 1 523 0
 1265 0008 DFF8CCC0 		ldr	ip, .L178+8
 1266              	.LBE79:
 1267              		.loc 1 499 0
 1268 000c 0F28     		cmp	r0, #15
 1269 000e 98BF     		it	ls
 1270 0010 0746     		movls	r7, r0
 1271              	.LBB81:
 1272              		.loc 1 523 0
 1273 0012 DCF80000 		ldr	r0, [ip]
 1274              	.LVL81:
 1275              	.LBE81:
 1276              		.loc 1 499 0
 1277 0016 98BF     		it	ls
 1278 0018 3C46     		movls	r4, r7
 1279              	.LVL82:
 1280              	.LBB82:
 1281              		.loc 1 522 0
 1282 001a 0126     		movs	r6, #1
 1283              	.LVL83:
 1284              	.L164:
 1285 001c 06FA04F5 		lsl	r5, r6, r4
 1286              	.LVL84:
 1287              		.loc 1 523 0
 1288 0020 0542     		tst	r5, r0
 1289 0022 08D0     		beq	.L177
 1290              	.LBE82:
 1291              		.loc 1 521 0
 1292 0024 0134     		adds	r4, r4, #1
 1293              	.LVL85:
 1294 0026 BC42     		cmp	r4, r7
 1295 0028 F8D9     		bls	.L164
 1296              		.loc 1 560 0
 1297 002a 0027     		movs	r7, #0
 1298              	.LVL86:
 1299              	.L163:
 1300              	.LBE78:
 1301              	.LBE77:
 1302              	.LBB85:
 1303              	.LBB86:
 1304              	.LBB87:
 1305              	.LBB88:
 1306              	.LBB89:
 1307              	.LBB90:
 1308              		.loc 2 493 0
 1309 002c 0023     		movs	r3, #0
 1310              		.syntax unified
 1311              	@ 493 "./RM18A-ChibiOS18-Core/chibios/os/common/ext/ARM/CMSIS/Core/Include/cmsis_gcc.h" 1
ARM GAS  /tmp/cccJFgwG.s 			page 24


 1312 002e 83F31188 		MSR basepri, r3
 1313              	@ 0 "" 2
 1314              	.LVL87:
 1315              		.thumb
 1316              		.syntax unified
 1317              	.LBE90:
 1318              	.LBE89:
 1319              	.LBE88:
 1320              	.LBE87:
 1321              	.LBE86:
 1322              	.LBE85:
 1323              		.loc 1 596 0
 1324 0032 3846     		mov	r0, r7
 1325 0034 F8BD     		pop	{r3, r4, r5, r6, r7, pc}
 1326              	.LVL88:
 1327              	.L177:
 1328              	.LBB96:
 1329              	.LBB84:
 1330              	.LBB83:
 1331              	.LBB80:
 1332              		.loc 1 529 0
 1333 0036 2843     		orrs	r0, r0, r5
 1334              		.loc 1 527 0
 1335 0038 0CEBC407 		add	r7, ip, r4, lsl #3
 1336              	.LVL89:
 1337              		.loc 1 529 0
 1338 003c CCF80000 		str	r0, [ip]
 1339              		.loc 1 524 0
 1340 0040 234E     		ldr	r6, .L178
 1341 0042 4FEA440C 		lsl	ip, r4, #1
 1342              		.loc 1 528 0
 1343 0046 C7E90123 		strd	r2, r3, [r7, #4]
 1344              		.loc 1 532 0
 1345 004a 15F0FF0F 		tst	r5, #255
 1346              		.loc 1 524 0
 1347 004e 0CEB0407 		add	r7, ip, r4
 1348 0052 06EB8707 		add	r7, r6, r7, lsl #2
 1349              	.LVL90:
 1350              		.loc 1 532 0
 1351 0056 09D0     		beq	.L160
 1352              		.loc 1 533 0
 1353 0058 1E4B     		ldr	r3, .L178+4
 1354              	.LVL91:
 1355 005a 186B     		ldr	r0, [r3, #48]
 1356 005c 40F40010 		orr	r0, r0, #2097152
 1357 0060 1863     		str	r0, [r3, #48]
 1358 0062 186D     		ldr	r0, [r3, #80]
 1359 0064 40F40010 		orr	r0, r0, #2097152
 1360 0068 1865     		str	r0, [r3, #80]
 1361 006a 1B6D     		ldr	r3, [r3, #80]
 1362              	.L160:
 1363              		.loc 1 535 0
 1364 006c 15F47F4F 		tst	r5, #65280
 1365 0070 09D0     		beq	.L161
 1366              		.loc 1 536 0
 1367 0072 184B     		ldr	r3, .L178+4
 1368 0074 186B     		ldr	r0, [r3, #48]
ARM GAS  /tmp/cccJFgwG.s 			page 25


 1369 0076 40F48000 		orr	r0, r0, #4194304
 1370 007a 1863     		str	r0, [r3, #48]
 1371 007c 186D     		ldr	r0, [r3, #80]
 1372 007e 40F48000 		orr	r0, r0, #4194304
 1373 0082 1865     		str	r0, [r3, #80]
 1374 0084 1B6D     		ldr	r3, [r3, #80]
 1375              	.L161:
 1376              		.loc 1 547 0
 1377 0086 0CEB0403 		add	r3, ip, r4
 1378 008a 56F82300 		ldr	r0, [r6, r3, lsl #2]
 1379 008e 0368     		ldr	r3, [r0]
 1380 0090 23F01F03 		bic	r3, r3, #31
 1381 0094 0360     		str	r3, [r0]
 1382              	.L162:
 1383 0096 0368     		ldr	r3, [r0]
 1384 0098 13F00103 		ands	r3, r3, #1
 1385 009c FBD1     		bne	.L162
 1386 009e 6444     		add	r4, r4, ip
 1387              	.LVL92:
 1388 00a0 06EB8406 		add	r6, r6, r4, lsl #2
 1389 00a4 3D24     		movs	r4, #61
 1390 00a6 96F809C0 		ldrb	ip, [r6, #9]	@ zero_extendqisi2
 1391 00aa 7568     		ldr	r5, [r6, #4]
 1392              	.LVL93:
 1393 00ac 04FA0CF4 		lsl	r4, r4, ip
 1394              		.loc 1 549 0
 1395 00b0 4FF0210C 		mov	ip, #33
 1396              		.loc 1 547 0
 1397 00b4 2C60     		str	r4, [r5]
 1398              		.loc 1 548 0
 1399 00b6 0360     		str	r3, [r0]
 1400              		.loc 1 549 0
 1401 00b8 C0F814C0 		str	ip, [r0, #20]
 1402              		.loc 1 552 0
 1403 00bc 002A     		cmp	r2, #0
 1404 00be B5D0     		beq	.L163
 1405              		.loc 1 553 0
 1406 00c0 F07A     		ldrb	r0, [r6, #11]	@ zero_extendqisi2
 1407 00c2 FFF7FEFF 		bl	nvicEnableVector
 1408              	.LVL94:
 1409              	.LBE80:
 1410              	.LBE83:
 1411              	.LBE84:
 1412              	.LBE96:
 1413              	.LBB97:
 1414              	.LBB95:
 1415              	.LBB94:
 1416              	.LBB93:
 1417              	.LBB92:
 1418              	.LBB91:
 1419              		.loc 2 493 0
 1420 00c6 0023     		movs	r3, #0
 1421              		.syntax unified
 1422              	@ 493 "./RM18A-ChibiOS18-Core/chibios/os/common/ext/ARM/CMSIS/Core/Include/cmsis_gcc.h" 1
 1423 00c8 83F31188 		MSR basepri, r3
 1424              	@ 0 "" 2
 1425              	.LVL95:
ARM GAS  /tmp/cccJFgwG.s 			page 26


 1426              		.thumb
 1427              		.syntax unified
 1428              	.LBE91:
 1429              	.LBE92:
 1430              	.LBE93:
 1431              	.LBE94:
 1432              	.LBE95:
 1433              	.LBE97:
 1434              		.loc 1 596 0
 1435 00cc 3846     		mov	r0, r7
 1436 00ce F8BD     		pop	{r3, r4, r5, r6, r7, pc}
 1437              	.L179:
 1438              		.align	2
 1439              	.L178:
 1440 00d0 00000000 		.word	.LANCHOR1
 1441 00d4 00380240 		.word	1073887232
 1442 00d8 00000000 		.word	.LANCHOR0
 1443              		.cfi_endproc
 1444              	.LFE345:
 1445              		.size	dmaStreamAlloc, .-dmaStreamAlloc
 1446              		.section	.text.dmaStreamFreeI,"ax",%progbits
 1447              		.align	1
 1448              		.p2align 2,,3
 1449              		.global	dmaStreamFreeI
 1450              		.syntax unified
 1451              		.thumb
 1452              		.thumb_func
 1453              		.fpu fpv4-sp-d16
 1454              		.type	dmaStreamFreeI, %function
 1455              	dmaStreamFreeI:
 1456              	.LFB346:
 1457              		.loc 1 608 0
 1458              		.cfi_startproc
 1459              		@ args = 0, pretend = 0, frame = 0
 1460              		@ frame_needed = 0, uses_anonymous_args = 0
 1461              	.LVL96:
 1462 0000 10B5     		push	{r4, lr}
 1463              		.cfi_def_cfa_offset 8
 1464              		.cfi_offset 4, -8
 1465              		.cfi_offset 14, -4
 1466              		.loc 1 608 0
 1467 0002 0446     		mov	r4, r0
 1468              		.loc 1 617 0
 1469 0004 C07A     		ldrb	r0, [r0, #11]	@ zero_extendqisi2
 1470              	.LVL97:
 1471 0006 FFF7FEFF 		bl	nvicDisableVector
 1472              	.LVL98:
 1473              		.loc 1 620 0
 1474 000a 1149     		ldr	r1, .L184
 1475 000c A07A     		ldrb	r0, [r4, #10]	@ zero_extendqisi2
 1476 000e 0B68     		ldr	r3, [r1]
 1477 0010 0122     		movs	r2, #1
 1478 0012 8240     		lsls	r2, r2, r0
 1479 0014 23EA0203 		bic	r3, r3, r2
 1480              		.loc 1 623 0
 1481 0018 13F0FF0F 		tst	r3, #255
 1482              		.loc 1 620 0
ARM GAS  /tmp/cccJFgwG.s 			page 27


 1483 001c 0B60     		str	r3, [r1]
 1484              		.loc 1 623 0
 1485 001e 09D1     		bne	.L181
 1486              		.loc 1 624 0
 1487 0020 0C4A     		ldr	r2, .L184+4
 1488 0022 116B     		ldr	r1, [r2, #48]
 1489 0024 21F40011 		bic	r1, r1, #2097152
 1490 0028 1163     		str	r1, [r2, #48]
 1491 002a 116D     		ldr	r1, [r2, #80]
 1492 002c 21F40011 		bic	r1, r1, #2097152
 1493 0030 1165     		str	r1, [r2, #80]
 1494 0032 126D     		ldr	r2, [r2, #80]
 1495              	.L181:
 1496              		.loc 1 626 0
 1497 0034 13F47F4F 		tst	r3, #65280
 1498 0038 09D1     		bne	.L180
 1499              	.LVL99:
 1500              	.LBB100:
 1501              	.LBB101:
 1502              		.loc 1 627 0
 1503 003a 064B     		ldr	r3, .L184+4
 1504 003c 1A6B     		ldr	r2, [r3, #48]
 1505 003e 22F48002 		bic	r2, r2, #4194304
 1506 0042 1A63     		str	r2, [r3, #48]
 1507 0044 1A6D     		ldr	r2, [r3, #80]
 1508 0046 22F48002 		bic	r2, r2, #4194304
 1509 004a 1A65     		str	r2, [r3, #80]
 1510 004c 1B6D     		ldr	r3, [r3, #80]
 1511              	.LVL100:
 1512              	.L180:
 1513              	.LBE101:
 1514              	.LBE100:
 1515              		.loc 1 636 0
 1516 004e 10BD     		pop	{r4, pc}
 1517              	.LVL101:
 1518              	.L185:
 1519              		.align	2
 1520              	.L184:
 1521 0050 00000000 		.word	.LANCHOR0
 1522 0054 00380240 		.word	1073887232
 1523              		.cfi_endproc
 1524              	.LFE346:
 1525              		.size	dmaStreamFreeI, .-dmaStreamFreeI
 1526              		.section	.text.dmaStreamFree,"ax",%progbits
 1527              		.align	1
 1528              		.p2align 2,,3
 1529              		.global	dmaStreamFree
 1530              		.syntax unified
 1531              		.thumb
 1532              		.thumb_func
 1533              		.fpu fpv4-sp-d16
 1534              		.type	dmaStreamFree, %function
 1535              	dmaStreamFree:
 1536              	.LFB347:
 1537              		.loc 1 648 0
 1538              		.cfi_startproc
 1539              		@ args = 0, pretend = 0, frame = 0
ARM GAS  /tmp/cccJFgwG.s 			page 28


 1540              		@ frame_needed = 0, uses_anonymous_args = 0
 1541              	.LVL102:
 1542 0000 10B5     		push	{r4, lr}
 1543              		.cfi_def_cfa_offset 8
 1544              		.cfi_offset 4, -8
 1545              		.cfi_offset 14, -4
 1546              	.LBB117:
 1547              	.LBB118:
 1548              	.LBB119:
 1549              	.LBB120:
 1550              	.LBB121:
 1551              		.loc 2 493 0
 1552 0002 2023     		movs	r3, #32
 1553              	.LBE121:
 1554              	.LBE120:
 1555              	.LBE119:
 1556              	.LBE118:
 1557              	.LBE117:
 1558              		.loc 1 648 0
 1559 0004 0446     		mov	r4, r0
 1560              	.LBB126:
 1561              	.LBB125:
 1562              	.LBB124:
 1563              	.LBB123:
 1564              	.LBB122:
 1565              		.loc 2 493 0
 1566              		.syntax unified
 1567              	@ 493 "./RM18A-ChibiOS18-Core/chibios/os/common/ext/ARM/CMSIS/Core/Include/cmsis_gcc.h" 1
 1568 0006 83F31188 		MSR basepri, r3
 1569              	@ 0 "" 2
 1570              	.LVL103:
 1571              		.thumb
 1572              		.syntax unified
 1573              	.LBE122:
 1574              	.LBE123:
 1575              	.LBE124:
 1576              	.LBE125:
 1577              	.LBE126:
 1578              	.LBB127:
 1579              	.LBB128:
 1580              		.loc 1 617 0
 1581 000a C07A     		ldrb	r0, [r0, #11]	@ zero_extendqisi2
 1582              	.LVL104:
 1583 000c FFF7FEFF 		bl	nvicDisableVector
 1584              	.LVL105:
 1585              		.loc 1 620 0
 1586 0010 1249     		ldr	r1, .L190
 1587 0012 A07A     		ldrb	r0, [r4, #10]	@ zero_extendqisi2
 1588 0014 0B68     		ldr	r3, [r1]
 1589 0016 0122     		movs	r2, #1
 1590 0018 8240     		lsls	r2, r2, r0
 1591 001a 23EA0203 		bic	r3, r3, r2
 1592              		.loc 1 623 0
 1593 001e 13F0FF0F 		tst	r3, #255
 1594              		.loc 1 620 0
 1595 0022 0B60     		str	r3, [r1]
 1596              		.loc 1 623 0
ARM GAS  /tmp/cccJFgwG.s 			page 29


 1597 0024 09D1     		bne	.L187
 1598              		.loc 1 624 0
 1599 0026 0E4A     		ldr	r2, .L190+4
 1600 0028 116B     		ldr	r1, [r2, #48]
 1601 002a 21F40011 		bic	r1, r1, #2097152
 1602 002e 1163     		str	r1, [r2, #48]
 1603 0030 116D     		ldr	r1, [r2, #80]
 1604 0032 21F40011 		bic	r1, r1, #2097152
 1605 0036 1165     		str	r1, [r2, #80]
 1606 0038 126D     		ldr	r2, [r2, #80]
 1607              	.L187:
 1608              		.loc 1 626 0
 1609 003a 13F47F4F 		tst	r3, #65280
 1610 003e 09D1     		bne	.L188
 1611              	.LVL106:
 1612              	.LBB129:
 1613              	.LBB130:
 1614              		.loc 1 627 0
 1615 0040 074B     		ldr	r3, .L190+4
 1616 0042 1A6B     		ldr	r2, [r3, #48]
 1617 0044 22F48002 		bic	r2, r2, #4194304
 1618 0048 1A63     		str	r2, [r3, #48]
 1619 004a 1A6D     		ldr	r2, [r3, #80]
 1620 004c 22F48002 		bic	r2, r2, #4194304
 1621 0050 1A65     		str	r2, [r3, #80]
 1622 0052 1B6D     		ldr	r3, [r3, #80]
 1623              	.LVL107:
 1624              	.L188:
 1625              	.LBE130:
 1626              	.LBE129:
 1627              	.LBE128:
 1628              	.LBE127:
 1629              	.LBB131:
 1630              	.LBB132:
 1631              	.LBB133:
 1632              	.LBB134:
 1633              	.LBB135:
 1634              	.LBB136:
 1635              		.loc 2 493 0
 1636 0054 0023     		movs	r3, #0
 1637              		.syntax unified
 1638              	@ 493 "./RM18A-ChibiOS18-Core/chibios/os/common/ext/ARM/CMSIS/Core/Include/cmsis_gcc.h" 1
 1639 0056 83F31188 		MSR basepri, r3
 1640              	@ 0 "" 2
 1641              	.LVL108:
 1642              		.thumb
 1643              		.syntax unified
 1644              	.LBE136:
 1645              	.LBE135:
 1646              	.LBE134:
 1647              	.LBE133:
 1648              	.LBE132:
 1649              	.LBE131:
 1650              		.loc 1 653 0
 1651 005a 10BD     		pop	{r4, pc}
 1652              	.LVL109:
 1653              	.L191:
ARM GAS  /tmp/cccJFgwG.s 			page 30


 1654              		.align	2
 1655              	.L190:
 1656 005c 00000000 		.word	.LANCHOR0
 1657 0060 00380240 		.word	1073887232
 1658              		.cfi_endproc
 1659              	.LFE347:
 1660              		.size	dmaStreamFree, .-dmaStreamFree
 1661              		.global	_stm32_dma_streams
 1662              		.section	.bss.dma,"aw",%nobits
 1663              		.align	2
 1664              		.set	.LANCHOR0,. + 0
 1665              		.type	dma, %object
 1666              		.size	dma, 132
 1667              	dma:
 1668 0000 00000000 		.space	132
 1668      00000000 
 1668      00000000 
 1668      00000000 
 1668      00000000 
 1669              		.section	.rodata._stm32_dma_streams,"a",%progbits
 1670              		.align	2
 1671              		.set	.LANCHOR1,. + 0
 1672              		.type	_stm32_dma_streams, %object
 1673              		.size	_stm32_dma_streams, 192
 1674              	_stm32_dma_streams:
 1675 0000 10600240 		.word	1073897488
 1676 0004 08600240 		.word	1073897480
 1677 0008 00       		.byte	0
 1678 0009 00       		.byte	0
 1679 000a 00       		.byte	0
 1680 000b 0B       		.byte	11
 1681 000c 28600240 		.word	1073897512
 1682 0010 08600240 		.word	1073897480
 1683 0014 00       		.byte	0
 1684 0015 06       		.byte	6
 1685 0016 01       		.byte	1
 1686 0017 0C       		.byte	12
 1687 0018 40600240 		.word	1073897536
 1688 001c 08600240 		.word	1073897480
 1689 0020 00       		.byte	0
 1690 0021 10       		.byte	16
 1691 0022 02       		.byte	2
 1692 0023 0D       		.byte	13
 1693 0024 58600240 		.word	1073897560
 1694 0028 08600240 		.word	1073897480
 1695 002c 00       		.byte	0
 1696 002d 16       		.byte	22
 1697 002e 03       		.byte	3
 1698 002f 0E       		.byte	14
 1699 0030 70600240 		.word	1073897584
 1700 0034 0C600240 		.word	1073897484
 1701 0038 00       		.byte	0
 1702 0039 00       		.byte	0
 1703 003a 04       		.byte	4
 1704 003b 0F       		.byte	15
 1705 003c 88600240 		.word	1073897608
 1706 0040 0C600240 		.word	1073897484
ARM GAS  /tmp/cccJFgwG.s 			page 31


 1707 0044 00       		.byte	0
 1708 0045 06       		.byte	6
 1709 0046 05       		.byte	5
 1710 0047 10       		.byte	16
 1711 0048 A0600240 		.word	1073897632
 1712 004c 0C600240 		.word	1073897484
 1713 0050 00       		.byte	0
 1714 0051 10       		.byte	16
 1715 0052 06       		.byte	6
 1716 0053 11       		.byte	17
 1717 0054 B8600240 		.word	1073897656
 1718 0058 0C600240 		.word	1073897484
 1719 005c 00       		.byte	0
 1720 005d 16       		.byte	22
 1721 005e 07       		.byte	7
 1722 005f 2F       		.byte	47
 1723 0060 10640240 		.word	1073898512
 1724 0064 08640240 		.word	1073898504
 1725 0068 00       		.byte	0
 1726 0069 00       		.byte	0
 1727 006a 08       		.byte	8
 1728 006b 38       		.byte	56
 1729 006c 28640240 		.word	1073898536
 1730 0070 08640240 		.word	1073898504
 1731 0074 00       		.byte	0
 1732 0075 06       		.byte	6
 1733 0076 09       		.byte	9
 1734 0077 39       		.byte	57
 1735 0078 40640240 		.word	1073898560
 1736 007c 08640240 		.word	1073898504
 1737 0080 00       		.byte	0
 1738 0081 10       		.byte	16
 1739 0082 0A       		.byte	10
 1740 0083 3A       		.byte	58
 1741 0084 58640240 		.word	1073898584
 1742 0088 08640240 		.word	1073898504
 1743 008c 00       		.byte	0
 1744 008d 16       		.byte	22
 1745 008e 0B       		.byte	11
 1746 008f 3B       		.byte	59
 1747 0090 70640240 		.word	1073898608
 1748 0094 0C640240 		.word	1073898508
 1749 0098 00       		.byte	0
 1750 0099 00       		.byte	0
 1751 009a 0C       		.byte	12
 1752 009b 3C       		.byte	60
 1753 009c 88640240 		.word	1073898632
 1754 00a0 0C640240 		.word	1073898508
 1755 00a4 00       		.byte	0
 1756 00a5 06       		.byte	6
 1757 00a6 0D       		.byte	13
 1758 00a7 44       		.byte	68
 1759 00a8 A0640240 		.word	1073898656
 1760 00ac 0C640240 		.word	1073898508
 1761 00b0 00       		.byte	0
 1762 00b1 10       		.byte	16
 1763 00b2 0E       		.byte	14
ARM GAS  /tmp/cccJFgwG.s 			page 32


 1764 00b3 45       		.byte	69
 1765 00b4 B8640240 		.word	1073898680
 1766 00b8 0C640240 		.word	1073898508
 1767 00bc 00       		.byte	0
 1768 00bd 16       		.byte	22
 1769 00be 0F       		.byte	15
 1770 00bf 46       		.byte	70
 1771              		.text
 1772              	.Letext0:
 1773              		.file 3 "/usr/lib/gcc/arm-none-eabi/7.3.1/include/stddef.h"
 1774              		.file 4 "/usr/arm-none-eabi/include/machine/_default_types.h"
 1775              		.file 5 "/usr/arm-none-eabi/include/sys/_stdint.h"
 1776              		.file 6 "./RM18A-ChibiOS18-Core/chibios/os/common/ports/ARMCMx/compilers/GCC/chtypes.h"
 1777              		.file 7 "./RM18A-ChibiOS18-Core/chibios/os/rt/include/chsystypes.h"
 1778              		.file 8 "./RM18A-ChibiOS18-Core/chibios/os/rt/include/chschd.h"
 1779              		.file 9 "./RM18A-ChibiOS18-Core/chibios/os/rt/include/chtime.h"
 1780              		.file 10 "./RM18A-ChibiOS18-Core/chibios/os/common/ext/ARM/CMSIS/Core/Include/core_cm4.h"
 1781              		.file 11 "./RM18A-ChibiOS18-Core/chibios/os/common/ext/ST/STM32F4xx/system_stm32f4xx.h"
 1782              		.file 12 "./RM18A-ChibiOS18-Core/chibios/os/common/ext/ST/STM32F4xx/stm32f427xx.h"
 1783              		.file 13 "./RM18A-ChibiOS18-Core/chibios/os/common/ports/ARMCMx/chcore.h"
 1784              		.file 14 "./RM18A-ChibiOS18-Core/chibios/os/common/ports/ARMCMx/chcore_v7m.h"
 1785              		.file 15 "./RM18A-ChibiOS18-Core/chibios/os/hal/ports/STM32/LLD/TIMv1/stm32_tim.h"
 1786              		.file 16 "./RM18A-ChibiOS18-Core/chibios/os/rt/include/chtm.h"
 1787              		.file 17 "./RM18A-ChibiOS18-Core/chibios/os/rt/include/chsem.h"
 1788              		.file 18 "./RM18A-ChibiOS18-Core/chibios/os/rt/include/chmtx.h"
 1789              		.file 19 "./RM18A-ChibiOS18-Core/chibios/os/rt/include/chsys.h"
 1790              		.file 20 "./RM18A-ChibiOS18-Core/chibios/os/rt/include/chregistry.h"
 1791              		.file 21 "./RM18A-ChibiOS18-Core/chibios/os/rt/include/chevents.h"
 1792              		.file 22 "./RM18A-ChibiOS18-Core/chibios/os/oslib/include/chmemcore.h"
 1793              		.file 23 "./RM18A-ChibiOS18-Core/chibios/os/oslib/include/chmempools.h"
 1794              		.file 24 "./RM18A-ChibiOS18-Core/chibios/os/oslib/include/chfactory.h"
 1795              		.file 25 "./RM18A-ChibiOS18-Core/chibios/os/hal/ports/STM32/LLD/DMAv2/stm32_dma.h"
 1796              		.file 26 "./RM18A-ChibiOS18-Core/chibios/os/hal/include/hal_queues.h"
 1797              		.file 27 "./RM18A-ChibiOS18-Core/chibios/os/hal/include/hal_pal.h"
 1798              		.file 28 "./RM18A-ChibiOS18-Core/chibios/os/hal/ports/STM32/LLD/GPIOv2/hal_pal_lld.h"
 1799              		.file 29 "./RM18A-ChibiOS18-Core/chibios/os/hal/include/hal_adc.h"
 1800              		.file 30 "./RM18A-ChibiOS18-Core/chibios/os/hal/ports/STM32/LLD/ADCv2/hal_adc_lld.h"
 1801              		.file 31 "./RM18A-ChibiOS18-Core/chibios/os/hal/include/hal_can.h"
 1802              		.file 32 "./RM18A-ChibiOS18-Core/chibios/os/hal/ports/STM32/LLD/CANv1/hal_can_lld.h"
 1803              		.file 33 "./RM18A-ChibiOS18-Core/chibios/os/hal/include/hal_i2c.h"
 1804              		.file 34 "./RM18A-ChibiOS18-Core/chibios/os/hal/lib/fallback/I2C/hal_i2c_lld.h"
 1805              		.file 35 "./RM18A-ChibiOS18-Core/chibios/os/hal/include/hal_icu.h"
 1806              		.file 36 "./RM18A-ChibiOS18-Core/chibios/os/hal/ports/STM32/LLD/TIMv1/hal_icu_lld.h"
 1807              		.file 37 "./RM18A-ChibiOS18-Core/chibios/os/hal/include/hal_pwm.h"
 1808              		.file 38 "./RM18A-ChibiOS18-Core/chibios/os/hal/ports/STM32/LLD/TIMv1/hal_pwm_lld.h"
 1809              		.file 39 "./RM18A-ChibiOS18-Core/chibios/os/hal/include/hal_serial.h"
 1810              		.file 40 "./RM18A-ChibiOS18-Core/chibios/os/hal/ports/STM32/LLD/USARTv1/hal_serial_lld.h"
 1811              		.file 41 "./RM18A-ChibiOS18-Core/chibios/os/hal/include/hal_spi.h"
 1812              		.file 42 "./RM18A-ChibiOS18-Core/chibios/os/hal/ports/STM32/LLD/SPIv1/hal_spi_lld.h"
 1813              		.file 43 "./RM18A-ChibiOS18-Core/chibios/os/hal/include/hal_uart.h"
 1814              		.file 44 "./RM18A-ChibiOS18-Core/chibios/os/hal/ports/STM32/LLD/USARTv1/hal_uart_lld.h"
 1815              		.file 45 "./RM18A-ChibiOS18-Core/chibios/os/hal/include/hal_usb.h"
 1816              		.file 46 "./RM18A-ChibiOS18-Core/chibios/os/hal/ports/STM32/LLD/OTGv1/hal_usb_lld.h"
 1817              		.file 47 "./RM18A-ChibiOS18-Core/chibios/os/hal/ports/STM32/LLD/OTGv1/stm32_otg.h"
 1818              		.file 48 "./RM18A-ChibiOS18-Core/chibios/os/hal/osal/rt/osal.h"
 1819              		.file 49 "./RM18A-ChibiOS18-Core/chibios/os/hal/ports/common/ARMCMx/nvic.h"