ARM GAS  /tmp/ccIvOcuv.s 			page 1


   1              		.cpu cortex-m4
   2              		.eabi_attribute 27, 1
   3              		.eabi_attribute 28, 1
   4              		.eabi_attribute 20, 1
   5              		.eabi_attribute 21, 1
   6              		.eabi_attribute 23, 3
   7              		.eabi_attribute 24, 1
   8              		.eabi_attribute 25, 1
   9              		.eabi_attribute 26, 1
  10              		.eabi_attribute 30, 2
  11              		.eabi_attribute 34, 1
  12              		.eabi_attribute 18, 4
  13              		.file	"stm32_isr.c"
  14              		.text
  15              	.Ltext0:
  16              		.cfi_sections	.debug_frame
  17              		.section	.text.Vector58,"ax",%progbits
  18              		.align	1
  19              		.p2align 2,,3
  20              		.global	Vector58
  21              		.syntax unified
  22              		.thumb
  23              		.thumb_func
  24              		.fpu fpv4-sp-d16
  25              		.type	Vector58, %function
  26              	Vector58:
  27              	.LFB327:
  28              		.file 1 "./RM18A-ChibiOS18-Core/chibios/os/hal/ports/STM32/STM32F4xx/stm32_isr.c"
  29              		.loc 1 61 0
  30              		.cfi_startproc
  31              		@ args = 0, pretend = 0, frame = 0
  32              		@ frame_needed = 0, uses_anonymous_args = 0
  33              		.loc 1 66 0
  34 0000 0D4A     		ldr	r2, .L12
  35              		.loc 1 61 0
  36 0002 08B5     		push	{r3, lr}
  37              		.cfi_def_cfa_offset 8
  38              		.cfi_offset 3, -8
  39              		.cfi_offset 14, -4
  40              		.loc 1 66 0
  41 0004 5169     		ldr	r1, [r2, #20]
  42              	.LVL0:
  43              		.loc 1 67 0
  44 0006 1368     		ldr	r3, [r2]
  45 0008 0B40     		ands	r3, r3, r1
  46 000a 03F00103 		and	r3, r3, #1
  47              	.LVL1:
  48              		.loc 1 68 0
  49 000e 5361     		str	r3, [r2, #20]
  50              		.loc 1 70 0
  51 0010 73B1     		cbz	r3, .L2
  52              		.loc 1 70 0 is_stmt 0 discriminator 1
  53 0012 0A4A     		ldr	r2, .L12+4
  54 0014 9368     		ldr	r3, [r2, #8]
  55              	.LVL2:
  56 0016 0BB1     		cbz	r3, .L3
  57              		.loc 1 70 0 discriminator 2
ARM GAS  /tmp/ccIvOcuv.s 			page 2


  58 0018 D068     		ldr	r0, [r2, #12]
  59 001a 9847     		blx	r3
  60              	.LVL3:
  61              	.L3:
  62              	.LBB292:
  63              	.LBB293:
  64              	.LBB294:
  65              	.LBB295:
  66              	.LBB296:
  67              	.LBB297:
  68              		.file 2 "./RM18A-ChibiOS18-Core/chibios/os/common/ext/ARM/CMSIS/Core/Include/cmsis_gcc.h"
  69              		.loc 2 493 0 is_stmt 1 discriminator 4
  70 001c 2023     		movs	r3, #32
  71              		.syntax unified
  72              	@ 493 "./RM18A-ChibiOS18-Core/chibios/os/common/ext/ARM/CMSIS/Core/Include/cmsis_gcc.h" 1
  73 001e 83F31188 		MSR basepri, r3
  74              	@ 0 "" 2
  75              	.LVL4:
  76              		.thumb
  77              		.syntax unified
  78              	.LBE297:
  79              	.LBE296:
  80              	.LBE295:
  81              	.LBE294:
  82              	.LBE293:
  83              	.LBE292:
  84              	.LBB298:
  85              	.LBB299:
  86              		.file 3 "./RM18A-ChibiOS18-Core/chibios/os/hal/osal/rt/osal.h"
  87              		.loc 3 857 0 discriminator 4
  88 0022 0021     		movs	r1, #0
  89 0024 0548     		ldr	r0, .L12+4
  90 0026 FFF7FEFF 		bl	chThdDequeueAllI
  91              	.LVL5:
  92              	.LBE299:
  93              	.LBE298:
  94              	.LBB300:
  95              	.LBB301:
  96              	.LBB302:
  97              	.LBB303:
  98              	.LBB304:
  99              	.LBB305:
 100              		.loc 2 493 0 discriminator 4
 101 002a 0023     		movs	r3, #0
 102              		.syntax unified
 103              	@ 493 "./RM18A-ChibiOS18-Core/chibios/os/common/ext/ARM/CMSIS/Core/Include/cmsis_gcc.h" 1
 104 002c 83F31188 		MSR basepri, r3
 105              	@ 0 "" 2
 106              	.LVL6:
 107              		.thumb
 108              		.syntax unified
 109              	.L2:
 110              	.LBE305:
 111              	.LBE304:
 112              	.LBE303:
 113              	.LBE302:
 114              	.LBE301:
ARM GAS  /tmp/ccIvOcuv.s 			page 3


 115              	.LBE300:
 116              		.loc 1 73 0
 117 0030 BDE80840 		pop	{r3, lr}
 118              		.cfi_restore 14
 119              		.cfi_restore 3
 120              		.cfi_def_cfa_offset 0
 121              		.loc 1 72 0
 122 0034 FFF7FEBF 		b	_port_irq_epilogue
 123              	.LVL7:
 124              	.L13:
 125              		.align	2
 126              	.L12:
 127 0038 003C0140 		.word	1073822720
 128 003c 00000000 		.word	_pal_events
 129              		.cfi_endproc
 130              	.LFE327:
 131              		.size	Vector58, .-Vector58
 132              		.section	.text.Vector5C,"ax",%progbits
 133              		.align	1
 134              		.p2align 2,,3
 135              		.global	Vector5C
 136              		.syntax unified
 137              		.thumb
 138              		.thumb_func
 139              		.fpu fpv4-sp-d16
 140              		.type	Vector5C, %function
 141              	Vector5C:
 142              	.LFB328:
 143              		.loc 1 82 0
 144              		.cfi_startproc
 145              		@ args = 0, pretend = 0, frame = 0
 146              		@ frame_needed = 0, uses_anonymous_args = 0
 147              		.loc 1 87 0
 148 0000 0D4A     		ldr	r2, .L24
 149              		.loc 1 82 0
 150 0002 08B5     		push	{r3, lr}
 151              		.cfi_def_cfa_offset 8
 152              		.cfi_offset 3, -8
 153              		.cfi_offset 14, -4
 154              		.loc 1 87 0
 155 0004 5169     		ldr	r1, [r2, #20]
 156              	.LVL8:
 157              		.loc 1 88 0
 158 0006 1368     		ldr	r3, [r2]
 159 0008 0B40     		ands	r3, r3, r1
 160 000a 03F00203 		and	r3, r3, #2
 161              	.LVL9:
 162              		.loc 1 89 0
 163 000e 5361     		str	r3, [r2, #20]
 164              		.loc 1 91 0
 165 0010 73B1     		cbz	r3, .L15
 166              		.loc 1 91 0 is_stmt 0 discriminator 1
 167 0012 0A4A     		ldr	r2, .L24+4
 168 0014 9369     		ldr	r3, [r2, #24]
 169              	.LVL10:
 170 0016 0BB1     		cbz	r3, .L16
 171              		.loc 1 91 0 discriminator 2
ARM GAS  /tmp/ccIvOcuv.s 			page 4


 172 0018 D069     		ldr	r0, [r2, #28]
 173 001a 9847     		blx	r3
 174              	.LVL11:
 175              	.L16:
 176              	.LBB306:
 177              	.LBB307:
 178              	.LBB308:
 179              	.LBB309:
 180              	.LBB310:
 181              	.LBB311:
 182              		.loc 2 493 0 is_stmt 1 discriminator 4
 183 001c 2023     		movs	r3, #32
 184              		.syntax unified
 185              	@ 493 "./RM18A-ChibiOS18-Core/chibios/os/common/ext/ARM/CMSIS/Core/Include/cmsis_gcc.h" 1
 186 001e 83F31188 		MSR basepri, r3
 187              	@ 0 "" 2
 188              	.LVL12:
 189              		.thumb
 190              		.syntax unified
 191              	.LBE311:
 192              	.LBE310:
 193              	.LBE309:
 194              	.LBE308:
 195              	.LBE307:
 196              	.LBE306:
 197              	.LBB312:
 198              	.LBB313:
 199              		.loc 3 857 0 discriminator 4
 200 0022 0021     		movs	r1, #0
 201 0024 0648     		ldr	r0, .L24+8
 202              	.LVL13:
 203 0026 FFF7FEFF 		bl	chThdDequeueAllI
 204              	.LVL14:
 205              	.LBE313:
 206              	.LBE312:
 207              	.LBB314:
 208              	.LBB315:
 209              	.LBB316:
 210              	.LBB317:
 211              	.LBB318:
 212              	.LBB319:
 213              		.loc 2 493 0 discriminator 4
 214 002a 0023     		movs	r3, #0
 215              		.syntax unified
 216              	@ 493 "./RM18A-ChibiOS18-Core/chibios/os/common/ext/ARM/CMSIS/Core/Include/cmsis_gcc.h" 1
 217 002c 83F31188 		MSR basepri, r3
 218              	@ 0 "" 2
 219              	.LVL15:
 220              		.thumb
 221              		.syntax unified
 222              	.L15:
 223              	.LBE319:
 224              	.LBE318:
 225              	.LBE317:
 226              	.LBE316:
 227              	.LBE315:
 228              	.LBE314:
ARM GAS  /tmp/ccIvOcuv.s 			page 5


 229              		.loc 1 94 0
 230 0030 BDE80840 		pop	{r3, lr}
 231              		.cfi_restore 14
 232              		.cfi_restore 3
 233              		.cfi_def_cfa_offset 0
 234              		.loc 1 93 0
 235 0034 FFF7FEBF 		b	_port_irq_epilogue
 236              	.LVL16:
 237              	.L25:
 238              		.align	2
 239              	.L24:
 240 0038 003C0140 		.word	1073822720
 241 003c 00000000 		.word	_pal_events
 242 0040 10000000 		.word	_pal_events+16
 243              		.cfi_endproc
 244              	.LFE328:
 245              		.size	Vector5C, .-Vector5C
 246              		.section	.text.Vector60,"ax",%progbits
 247              		.align	1
 248              		.p2align 2,,3
 249              		.global	Vector60
 250              		.syntax unified
 251              		.thumb
 252              		.thumb_func
 253              		.fpu fpv4-sp-d16
 254              		.type	Vector60, %function
 255              	Vector60:
 256              	.LFB329:
 257              		.loc 1 103 0
 258              		.cfi_startproc
 259              		@ args = 0, pretend = 0, frame = 0
 260              		@ frame_needed = 0, uses_anonymous_args = 0
 261              		.loc 1 108 0
 262 0000 0D4A     		ldr	r2, .L36
 263              		.loc 1 103 0
 264 0002 08B5     		push	{r3, lr}
 265              		.cfi_def_cfa_offset 8
 266              		.cfi_offset 3, -8
 267              		.cfi_offset 14, -4
 268              		.loc 1 108 0
 269 0004 5169     		ldr	r1, [r2, #20]
 270              	.LVL17:
 271              		.loc 1 109 0
 272 0006 1368     		ldr	r3, [r2]
 273 0008 0B40     		ands	r3, r3, r1
 274 000a 03F00403 		and	r3, r3, #4
 275              	.LVL18:
 276              		.loc 1 110 0
 277 000e 5361     		str	r3, [r2, #20]
 278              		.loc 1 112 0
 279 0010 73B1     		cbz	r3, .L27
 280              		.loc 1 112 0 is_stmt 0 discriminator 1
 281 0012 0A4A     		ldr	r2, .L36+4
 282 0014 936A     		ldr	r3, [r2, #40]
 283              	.LVL19:
 284 0016 0BB1     		cbz	r3, .L28
 285              		.loc 1 112 0 discriminator 2
ARM GAS  /tmp/ccIvOcuv.s 			page 6


 286 0018 D06A     		ldr	r0, [r2, #44]
 287 001a 9847     		blx	r3
 288              	.LVL20:
 289              	.L28:
 290              	.LBB320:
 291              	.LBB321:
 292              	.LBB322:
 293              	.LBB323:
 294              	.LBB324:
 295              	.LBB325:
 296              		.loc 2 493 0 is_stmt 1 discriminator 4
 297 001c 2023     		movs	r3, #32
 298              		.syntax unified
 299              	@ 493 "./RM18A-ChibiOS18-Core/chibios/os/common/ext/ARM/CMSIS/Core/Include/cmsis_gcc.h" 1
 300 001e 83F31188 		MSR basepri, r3
 301              	@ 0 "" 2
 302              	.LVL21:
 303              		.thumb
 304              		.syntax unified
 305              	.LBE325:
 306              	.LBE324:
 307              	.LBE323:
 308              	.LBE322:
 309              	.LBE321:
 310              	.LBE320:
 311              	.LBB326:
 312              	.LBB327:
 313              		.loc 3 857 0 discriminator 4
 314 0022 0021     		movs	r1, #0
 315 0024 0648     		ldr	r0, .L36+8
 316              	.LVL22:
 317 0026 FFF7FEFF 		bl	chThdDequeueAllI
 318              	.LVL23:
 319              	.LBE327:
 320              	.LBE326:
 321              	.LBB328:
 322              	.LBB329:
 323              	.LBB330:
 324              	.LBB331:
 325              	.LBB332:
 326              	.LBB333:
 327              		.loc 2 493 0 discriminator 4
 328 002a 0023     		movs	r3, #0
 329              		.syntax unified
 330              	@ 493 "./RM18A-ChibiOS18-Core/chibios/os/common/ext/ARM/CMSIS/Core/Include/cmsis_gcc.h" 1
 331 002c 83F31188 		MSR basepri, r3
 332              	@ 0 "" 2
 333              	.LVL24:
 334              		.thumb
 335              		.syntax unified
 336              	.L27:
 337              	.LBE333:
 338              	.LBE332:
 339              	.LBE331:
 340              	.LBE330:
 341              	.LBE329:
 342              	.LBE328:
ARM GAS  /tmp/ccIvOcuv.s 			page 7


 343              		.loc 1 115 0
 344 0030 BDE80840 		pop	{r3, lr}
 345              		.cfi_restore 14
 346              		.cfi_restore 3
 347              		.cfi_def_cfa_offset 0
 348              		.loc 1 114 0
 349 0034 FFF7FEBF 		b	_port_irq_epilogue
 350              	.LVL25:
 351              	.L37:
 352              		.align	2
 353              	.L36:
 354 0038 003C0140 		.word	1073822720
 355 003c 00000000 		.word	_pal_events
 356 0040 20000000 		.word	_pal_events+32
 357              		.cfi_endproc
 358              	.LFE329:
 359              		.size	Vector60, .-Vector60
 360              		.section	.text.Vector64,"ax",%progbits
 361              		.align	1
 362              		.p2align 2,,3
 363              		.global	Vector64
 364              		.syntax unified
 365              		.thumb
 366              		.thumb_func
 367              		.fpu fpv4-sp-d16
 368              		.type	Vector64, %function
 369              	Vector64:
 370              	.LFB330:
 371              		.loc 1 124 0
 372              		.cfi_startproc
 373              		@ args = 0, pretend = 0, frame = 0
 374              		@ frame_needed = 0, uses_anonymous_args = 0
 375              		.loc 1 129 0
 376 0000 0D4A     		ldr	r2, .L48
 377              		.loc 1 124 0
 378 0002 08B5     		push	{r3, lr}
 379              		.cfi_def_cfa_offset 8
 380              		.cfi_offset 3, -8
 381              		.cfi_offset 14, -4
 382              		.loc 1 129 0
 383 0004 5169     		ldr	r1, [r2, #20]
 384              	.LVL26:
 385              		.loc 1 130 0
 386 0006 1368     		ldr	r3, [r2]
 387 0008 0B40     		ands	r3, r3, r1
 388 000a 03F00803 		and	r3, r3, #8
 389              	.LVL27:
 390              		.loc 1 131 0
 391 000e 5361     		str	r3, [r2, #20]
 392              		.loc 1 133 0
 393 0010 73B1     		cbz	r3, .L39
 394              		.loc 1 133 0 is_stmt 0 discriminator 1
 395 0012 0A4A     		ldr	r2, .L48+4
 396 0014 936B     		ldr	r3, [r2, #56]
 397              	.LVL28:
 398 0016 0BB1     		cbz	r3, .L40
 399              		.loc 1 133 0 discriminator 2
ARM GAS  /tmp/ccIvOcuv.s 			page 8


 400 0018 D06B     		ldr	r0, [r2, #60]
 401 001a 9847     		blx	r3
 402              	.LVL29:
 403              	.L40:
 404              	.LBB334:
 405              	.LBB335:
 406              	.LBB336:
 407              	.LBB337:
 408              	.LBB338:
 409              	.LBB339:
 410              		.loc 2 493 0 is_stmt 1 discriminator 4
 411 001c 2023     		movs	r3, #32
 412              		.syntax unified
 413              	@ 493 "./RM18A-ChibiOS18-Core/chibios/os/common/ext/ARM/CMSIS/Core/Include/cmsis_gcc.h" 1
 414 001e 83F31188 		MSR basepri, r3
 415              	@ 0 "" 2
 416              	.LVL30:
 417              		.thumb
 418              		.syntax unified
 419              	.LBE339:
 420              	.LBE338:
 421              	.LBE337:
 422              	.LBE336:
 423              	.LBE335:
 424              	.LBE334:
 425              	.LBB340:
 426              	.LBB341:
 427              		.loc 3 857 0 discriminator 4
 428 0022 0021     		movs	r1, #0
 429 0024 0648     		ldr	r0, .L48+8
 430              	.LVL31:
 431 0026 FFF7FEFF 		bl	chThdDequeueAllI
 432              	.LVL32:
 433              	.LBE341:
 434              	.LBE340:
 435              	.LBB342:
 436              	.LBB343:
 437              	.LBB344:
 438              	.LBB345:
 439              	.LBB346:
 440              	.LBB347:
 441              		.loc 2 493 0 discriminator 4
 442 002a 0023     		movs	r3, #0
 443              		.syntax unified
 444              	@ 493 "./RM18A-ChibiOS18-Core/chibios/os/common/ext/ARM/CMSIS/Core/Include/cmsis_gcc.h" 1
 445 002c 83F31188 		MSR basepri, r3
 446              	@ 0 "" 2
 447              	.LVL33:
 448              		.thumb
 449              		.syntax unified
 450              	.L39:
 451              	.LBE347:
 452              	.LBE346:
 453              	.LBE345:
 454              	.LBE344:
 455              	.LBE343:
 456              	.LBE342:
ARM GAS  /tmp/ccIvOcuv.s 			page 9


 457              		.loc 1 136 0
 458 0030 BDE80840 		pop	{r3, lr}
 459              		.cfi_restore 14
 460              		.cfi_restore 3
 461              		.cfi_def_cfa_offset 0
 462              		.loc 1 135 0
 463 0034 FFF7FEBF 		b	_port_irq_epilogue
 464              	.LVL34:
 465              	.L49:
 466              		.align	2
 467              	.L48:
 468 0038 003C0140 		.word	1073822720
 469 003c 00000000 		.word	_pal_events
 470 0040 30000000 		.word	_pal_events+48
 471              		.cfi_endproc
 472              	.LFE330:
 473              		.size	Vector64, .-Vector64
 474              		.section	.text.Vector68,"ax",%progbits
 475              		.align	1
 476              		.p2align 2,,3
 477              		.global	Vector68
 478              		.syntax unified
 479              		.thumb
 480              		.thumb_func
 481              		.fpu fpv4-sp-d16
 482              		.type	Vector68, %function
 483              	Vector68:
 484              	.LFB331:
 485              		.loc 1 145 0
 486              		.cfi_startproc
 487              		@ args = 0, pretend = 0, frame = 0
 488              		@ frame_needed = 0, uses_anonymous_args = 0
 489              		.loc 1 150 0
 490 0000 0D4A     		ldr	r2, .L60
 491              		.loc 1 145 0
 492 0002 08B5     		push	{r3, lr}
 493              		.cfi_def_cfa_offset 8
 494              		.cfi_offset 3, -8
 495              		.cfi_offset 14, -4
 496              		.loc 1 150 0
 497 0004 5169     		ldr	r1, [r2, #20]
 498              	.LVL35:
 499              		.loc 1 151 0
 500 0006 1368     		ldr	r3, [r2]
 501 0008 0B40     		ands	r3, r3, r1
 502 000a 03F01003 		and	r3, r3, #16
 503              	.LVL36:
 504              		.loc 1 152 0
 505 000e 5361     		str	r3, [r2, #20]
 506              		.loc 1 154 0
 507 0010 73B1     		cbz	r3, .L51
 508              		.loc 1 154 0 is_stmt 0 discriminator 1
 509 0012 0A4A     		ldr	r2, .L60+4
 510 0014 936C     		ldr	r3, [r2, #72]
 511              	.LVL37:
 512 0016 0BB1     		cbz	r3, .L52
 513              		.loc 1 154 0 discriminator 2
ARM GAS  /tmp/ccIvOcuv.s 			page 10


 514 0018 D06C     		ldr	r0, [r2, #76]
 515 001a 9847     		blx	r3
 516              	.LVL38:
 517              	.L52:
 518              	.LBB348:
 519              	.LBB349:
 520              	.LBB350:
 521              	.LBB351:
 522              	.LBB352:
 523              	.LBB353:
 524              		.loc 2 493 0 is_stmt 1 discriminator 4
 525 001c 2023     		movs	r3, #32
 526              		.syntax unified
 527              	@ 493 "./RM18A-ChibiOS18-Core/chibios/os/common/ext/ARM/CMSIS/Core/Include/cmsis_gcc.h" 1
 528 001e 83F31188 		MSR basepri, r3
 529              	@ 0 "" 2
 530              	.LVL39:
 531              		.thumb
 532              		.syntax unified
 533              	.LBE353:
 534              	.LBE352:
 535              	.LBE351:
 536              	.LBE350:
 537              	.LBE349:
 538              	.LBE348:
 539              	.LBB354:
 540              	.LBB355:
 541              		.loc 3 857 0 discriminator 4
 542 0022 0021     		movs	r1, #0
 543 0024 0648     		ldr	r0, .L60+8
 544              	.LVL40:
 545 0026 FFF7FEFF 		bl	chThdDequeueAllI
 546              	.LVL41:
 547              	.LBE355:
 548              	.LBE354:
 549              	.LBB356:
 550              	.LBB357:
 551              	.LBB358:
 552              	.LBB359:
 553              	.LBB360:
 554              	.LBB361:
 555              		.loc 2 493 0 discriminator 4
 556 002a 0023     		movs	r3, #0
 557              		.syntax unified
 558              	@ 493 "./RM18A-ChibiOS18-Core/chibios/os/common/ext/ARM/CMSIS/Core/Include/cmsis_gcc.h" 1
 559 002c 83F31188 		MSR basepri, r3
 560              	@ 0 "" 2
 561              	.LVL42:
 562              		.thumb
 563              		.syntax unified
 564              	.L51:
 565              	.LBE361:
 566              	.LBE360:
 567              	.LBE359:
 568              	.LBE358:
 569              	.LBE357:
 570              	.LBE356:
ARM GAS  /tmp/ccIvOcuv.s 			page 11


 571              		.loc 1 157 0
 572 0030 BDE80840 		pop	{r3, lr}
 573              		.cfi_restore 14
 574              		.cfi_restore 3
 575              		.cfi_def_cfa_offset 0
 576              		.loc 1 156 0
 577 0034 FFF7FEBF 		b	_port_irq_epilogue
 578              	.LVL43:
 579              	.L61:
 580              		.align	2
 581              	.L60:
 582 0038 003C0140 		.word	1073822720
 583 003c 00000000 		.word	_pal_events
 584 0040 40000000 		.word	_pal_events+64
 585              		.cfi_endproc
 586              	.LFE331:
 587              		.size	Vector68, .-Vector68
 588              		.section	.text.Vector9C,"ax",%progbits
 589              		.align	1
 590              		.p2align 2,,3
 591              		.global	Vector9C
 592              		.syntax unified
 593              		.thumb
 594              		.thumb_func
 595              		.fpu fpv4-sp-d16
 596              		.type	Vector9C, %function
 597              	Vector9C:
 598              	.LFB332:
 599              		.loc 1 166 0
 600              		.cfi_startproc
 601              		@ args = 0, pretend = 0, frame = 0
 602              		@ frame_needed = 0, uses_anonymous_args = 0
 603              		.loc 1 171 0
 604 0000 324B     		ldr	r3, .L104
 605              		.loc 1 166 0
 606 0002 10B5     		push	{r4, lr}
 607              		.cfi_def_cfa_offset 8
 608              		.cfi_offset 4, -8
 609              		.cfi_offset 14, -4
 610              		.loc 1 171 0
 611 0004 5A69     		ldr	r2, [r3, #20]
 612              	.LVL44:
 613              		.loc 1 172 0
 614 0006 1C68     		ldr	r4, [r3]
 615 0008 1440     		ands	r4, r4, r2
 616 000a 04F47872 		and	r2, r4, #992
 617              	.LVL45:
 618              		.loc 1 174 0
 619 000e 5A61     		str	r2, [r3, #20]
 620              		.loc 1 176 0
 621 0010 A306     		lsls	r3, r4, #26
 622 0012 0ED5     		bpl	.L63
 623              		.loc 1 176 0 is_stmt 0 discriminator 1
 624 0014 2E4A     		ldr	r2, .L104+4
 625              	.LVL46:
 626 0016 936D     		ldr	r3, [r2, #88]
 627 0018 0BB1     		cbz	r3, .L64
ARM GAS  /tmp/ccIvOcuv.s 			page 12


 628              		.loc 1 176 0 discriminator 2
 629 001a D06D     		ldr	r0, [r2, #92]
 630 001c 9847     		blx	r3
 631              	.LVL47:
 632              	.L64:
 633              	.LBB362:
 634              	.LBB363:
 635              	.LBB364:
 636              	.LBB365:
 637              	.LBB366:
 638              	.LBB367:
 639              		.loc 2 493 0 is_stmt 1 discriminator 4
 640 001e 2023     		movs	r3, #32
 641              		.syntax unified
 642              	@ 493 "./RM18A-ChibiOS18-Core/chibios/os/common/ext/ARM/CMSIS/Core/Include/cmsis_gcc.h" 1
 643 0020 83F31188 		MSR basepri, r3
 644              	@ 0 "" 2
 645              	.LVL48:
 646              		.thumb
 647              		.syntax unified
 648              	.LBE367:
 649              	.LBE366:
 650              	.LBE365:
 651              	.LBE364:
 652              	.LBE363:
 653              	.LBE362:
 654              	.LBB368:
 655              	.LBB369:
 656              		.loc 3 857 0 discriminator 4
 657 0024 0021     		movs	r1, #0
 658 0026 2B48     		ldr	r0, .L104+8
 659              	.LVL49:
 660 0028 FFF7FEFF 		bl	chThdDequeueAllI
 661              	.LVL50:
 662              	.LBE369:
 663              	.LBE368:
 664              	.LBB370:
 665              	.LBB371:
 666              	.LBB372:
 667              	.LBB373:
 668              	.LBB374:
 669              	.LBB375:
 670              		.loc 2 493 0 discriminator 4
 671 002c 0023     		movs	r3, #0
 672              		.syntax unified
 673              	@ 493 "./RM18A-ChibiOS18-Core/chibios/os/common/ext/ARM/CMSIS/Core/Include/cmsis_gcc.h" 1
 674 002e 83F31188 		MSR basepri, r3
 675              	@ 0 "" 2
 676              	.LVL51:
 677              		.thumb
 678              		.syntax unified
 679              	.L63:
 680              	.LBE375:
 681              	.LBE374:
 682              	.LBE373:
 683              	.LBE372:
 684              	.LBE371:
ARM GAS  /tmp/ccIvOcuv.s 			page 13


 685              	.LBE370:
 686              		.loc 1 177 0
 687 0032 6006     		lsls	r0, r4, #25
 688 0034 0ED5     		bpl	.L65
 689              		.loc 1 177 0 is_stmt 0 discriminator 1
 690 0036 264A     		ldr	r2, .L104+4
 691 0038 936E     		ldr	r3, [r2, #104]
 692 003a 0BB1     		cbz	r3, .L66
 693              		.loc 1 177 0 discriminator 2
 694 003c D06E     		ldr	r0, [r2, #108]
 695 003e 9847     		blx	r3
 696              	.LVL52:
 697              	.L66:
 698              	.LBB376:
 699              	.LBB377:
 700              	.LBB378:
 701              	.LBB379:
 702              	.LBB380:
 703              	.LBB381:
 704              		.loc 2 493 0 is_stmt 1 discriminator 4
 705 0040 2023     		movs	r3, #32
 706              		.syntax unified
 707              	@ 493 "./RM18A-ChibiOS18-Core/chibios/os/common/ext/ARM/CMSIS/Core/Include/cmsis_gcc.h" 1
 708 0042 83F31188 		MSR basepri, r3
 709              	@ 0 "" 2
 710              	.LVL53:
 711              		.thumb
 712              		.syntax unified
 713              	.LBE381:
 714              	.LBE380:
 715              	.LBE379:
 716              	.LBE378:
 717              	.LBE377:
 718              	.LBE376:
 719              	.LBB382:
 720              	.LBB383:
 721              		.loc 3 857 0 discriminator 4
 722 0046 0021     		movs	r1, #0
 723 0048 2348     		ldr	r0, .L104+12
 724              	.LVL54:
 725 004a FFF7FEFF 		bl	chThdDequeueAllI
 726              	.LVL55:
 727              	.LBE383:
 728              	.LBE382:
 729              	.LBB384:
 730              	.LBB385:
 731              	.LBB386:
 732              	.LBB387:
 733              	.LBB388:
 734              	.LBB389:
 735              		.loc 2 493 0 discriminator 4
 736 004e 0023     		movs	r3, #0
 737              		.syntax unified
 738              	@ 493 "./RM18A-ChibiOS18-Core/chibios/os/common/ext/ARM/CMSIS/Core/Include/cmsis_gcc.h" 1
 739 0050 83F31188 		MSR basepri, r3
 740              	@ 0 "" 2
 741              	.LVL56:
ARM GAS  /tmp/ccIvOcuv.s 			page 14


 742              		.thumb
 743              		.syntax unified
 744              	.L65:
 745              	.LBE389:
 746              	.LBE388:
 747              	.LBE387:
 748              	.LBE386:
 749              	.LBE385:
 750              	.LBE384:
 751              		.loc 1 178 0
 752 0054 2106     		lsls	r1, r4, #24
 753 0056 0ED5     		bpl	.L67
 754              		.loc 1 178 0 is_stmt 0 discriminator 1
 755 0058 1D4A     		ldr	r2, .L104+4
 756 005a 936F     		ldr	r3, [r2, #120]
 757 005c 0BB1     		cbz	r3, .L68
 758              		.loc 1 178 0 discriminator 2
 759 005e D06F     		ldr	r0, [r2, #124]
 760 0060 9847     		blx	r3
 761              	.LVL57:
 762              	.L68:
 763              	.LBB390:
 764              	.LBB391:
 765              	.LBB392:
 766              	.LBB393:
 767              	.LBB394:
 768              	.LBB395:
 769              		.loc 2 493 0 is_stmt 1 discriminator 4
 770 0062 2023     		movs	r3, #32
 771              		.syntax unified
 772              	@ 493 "./RM18A-ChibiOS18-Core/chibios/os/common/ext/ARM/CMSIS/Core/Include/cmsis_gcc.h" 1
 773 0064 83F31188 		MSR basepri, r3
 774              	@ 0 "" 2
 775              	.LVL58:
 776              		.thumb
 777              		.syntax unified
 778              	.LBE395:
 779              	.LBE394:
 780              	.LBE393:
 781              	.LBE392:
 782              	.LBE391:
 783              	.LBE390:
 784              	.LBB396:
 785              	.LBB397:
 786              		.loc 3 857 0 discriminator 4
 787 0068 0021     		movs	r1, #0
 788 006a 1C48     		ldr	r0, .L104+16
 789              	.LVL59:
 790 006c FFF7FEFF 		bl	chThdDequeueAllI
 791              	.LVL60:
 792              	.LBE397:
 793              	.LBE396:
 794              	.LBB398:
 795              	.LBB399:
 796              	.LBB400:
 797              	.LBB401:
 798              	.LBB402:
ARM GAS  /tmp/ccIvOcuv.s 			page 15


 799              	.LBB403:
 800              		.loc 2 493 0 discriminator 4
 801 0070 0023     		movs	r3, #0
 802              		.syntax unified
 803              	@ 493 "./RM18A-ChibiOS18-Core/chibios/os/common/ext/ARM/CMSIS/Core/Include/cmsis_gcc.h" 1
 804 0072 83F31188 		MSR basepri, r3
 805              	@ 0 "" 2
 806              	.LVL61:
 807              		.thumb
 808              		.syntax unified
 809              	.L67:
 810              	.LBE403:
 811              	.LBE402:
 812              	.LBE401:
 813              	.LBE400:
 814              	.LBE399:
 815              	.LBE398:
 816              		.loc 1 179 0
 817 0076 E205     		lsls	r2, r4, #23
 818 0078 10D5     		bpl	.L69
 819              		.loc 1 179 0 is_stmt 0 discriminator 1
 820 007a 154A     		ldr	r2, .L104+4
 821 007c D2F88830 		ldr	r3, [r2, #136]
 822 0080 13B1     		cbz	r3, .L70
 823              		.loc 1 179 0 discriminator 2
 824 0082 D2F88C00 		ldr	r0, [r2, #140]
 825 0086 9847     		blx	r3
 826              	.LVL62:
 827              	.L70:
 828              	.LBB404:
 829              	.LBB405:
 830              	.LBB406:
 831              	.LBB407:
 832              	.LBB408:
 833              	.LBB409:
 834              		.loc 2 493 0 is_stmt 1 discriminator 4
 835 0088 2023     		movs	r3, #32
 836              		.syntax unified
 837              	@ 493 "./RM18A-ChibiOS18-Core/chibios/os/common/ext/ARM/CMSIS/Core/Include/cmsis_gcc.h" 1
 838 008a 83F31188 		MSR basepri, r3
 839              	@ 0 "" 2
 840              	.LVL63:
 841              		.thumb
 842              		.syntax unified
 843              	.LBE409:
 844              	.LBE408:
 845              	.LBE407:
 846              	.LBE406:
 847              	.LBE405:
 848              	.LBE404:
 849              	.LBB410:
 850              	.LBB411:
 851              		.loc 3 857 0 discriminator 4
 852 008e 0021     		movs	r1, #0
 853 0090 1348     		ldr	r0, .L104+20
 854              	.LVL64:
 855 0092 FFF7FEFF 		bl	chThdDequeueAllI
ARM GAS  /tmp/ccIvOcuv.s 			page 16


 856              	.LVL65:
 857              	.LBE411:
 858              	.LBE410:
 859              	.LBB412:
 860              	.LBB413:
 861              	.LBB414:
 862              	.LBB415:
 863              	.LBB416:
 864              	.LBB417:
 865              		.loc 2 493 0 discriminator 4
 866 0096 0023     		movs	r3, #0
 867              		.syntax unified
 868              	@ 493 "./RM18A-ChibiOS18-Core/chibios/os/common/ext/ARM/CMSIS/Core/Include/cmsis_gcc.h" 1
 869 0098 83F31188 		MSR basepri, r3
 870              	@ 0 "" 2
 871              	.LVL66:
 872              		.thumb
 873              		.syntax unified
 874              	.L69:
 875              	.LBE417:
 876              	.LBE416:
 877              	.LBE415:
 878              	.LBE414:
 879              	.LBE413:
 880              	.LBE412:
 881              		.loc 1 180 0
 882 009c A305     		lsls	r3, r4, #22
 883 009e 10D5     		bpl	.L71
 884              		.loc 1 180 0 is_stmt 0 discriminator 1
 885 00a0 0B4A     		ldr	r2, .L104+4
 886 00a2 D2F89830 		ldr	r3, [r2, #152]
 887 00a6 13B1     		cbz	r3, .L72
 888              		.loc 1 180 0 discriminator 2
 889 00a8 D2F89C00 		ldr	r0, [r2, #156]
 890 00ac 9847     		blx	r3
 891              	.LVL67:
 892              	.L72:
 893              	.LBB418:
 894              	.LBB419:
 895              	.LBB420:
 896              	.LBB421:
 897              	.LBB422:
 898              	.LBB423:
 899              		.loc 2 493 0 is_stmt 1 discriminator 4
 900 00ae 2023     		movs	r3, #32
 901              		.syntax unified
 902              	@ 493 "./RM18A-ChibiOS18-Core/chibios/os/common/ext/ARM/CMSIS/Core/Include/cmsis_gcc.h" 1
 903 00b0 83F31188 		MSR basepri, r3
 904              	@ 0 "" 2
 905              	.LVL68:
 906              		.thumb
 907              		.syntax unified
 908              	.LBE423:
 909              	.LBE422:
 910              	.LBE421:
 911              	.LBE420:
 912              	.LBE419:
ARM GAS  /tmp/ccIvOcuv.s 			page 17


 913              	.LBE418:
 914              	.LBB424:
 915              	.LBB425:
 916              		.loc 3 857 0 discriminator 4
 917 00b4 0021     		movs	r1, #0
 918 00b6 0B48     		ldr	r0, .L104+24
 919              	.LVL69:
 920 00b8 FFF7FEFF 		bl	chThdDequeueAllI
 921              	.LVL70:
 922              	.LBE425:
 923              	.LBE424:
 924              	.LBB426:
 925              	.LBB427:
 926              	.LBB428:
 927              	.LBB429:
 928              	.LBB430:
 929              	.LBB431:
 930              		.loc 2 493 0 discriminator 4
 931 00bc 0023     		movs	r3, #0
 932              		.syntax unified
 933              	@ 493 "./RM18A-ChibiOS18-Core/chibios/os/common/ext/ARM/CMSIS/Core/Include/cmsis_gcc.h" 1
 934 00be 83F31188 		MSR basepri, r3
 935              	@ 0 "" 2
 936              	.LVL71:
 937              		.thumb
 938              		.syntax unified
 939              	.L71:
 940              	.LBE431:
 941              	.LBE430:
 942              	.LBE429:
 943              	.LBE428:
 944              	.LBE427:
 945              	.LBE426:
 946              		.loc 1 183 0
 947 00c2 BDE81040 		pop	{r4, lr}
 948              		.cfi_restore 14
 949              		.cfi_restore 4
 950              		.cfi_def_cfa_offset 0
 951              	.LVL72:
 952              		.loc 1 182 0
 953 00c6 FFF7FEBF 		b	_port_irq_epilogue
 954              	.LVL73:
 955              	.L105:
 956 00ca 00BF     		.align	2
 957              	.L104:
 958 00cc 003C0140 		.word	1073822720
 959 00d0 00000000 		.word	_pal_events
 960 00d4 50000000 		.word	_pal_events+80
 961 00d8 60000000 		.word	_pal_events+96
 962 00dc 70000000 		.word	_pal_events+112
 963 00e0 80000000 		.word	_pal_events+128
 964 00e4 90000000 		.word	_pal_events+144
 965              		.cfi_endproc
 966              	.LFE332:
 967              		.size	Vector9C, .-Vector9C
 968              		.section	.text.VectorE0,"ax",%progbits
 969              		.align	1
ARM GAS  /tmp/ccIvOcuv.s 			page 18


 970              		.p2align 2,,3
 971              		.global	VectorE0
 972              		.syntax unified
 973              		.thumb
 974              		.thumb_func
 975              		.fpu fpv4-sp-d16
 976              		.type	VectorE0, %function
 977              	VectorE0:
 978              	.LFB333:
 979              		.loc 1 192 0
 980              		.cfi_startproc
 981              		@ args = 0, pretend = 0, frame = 0
 982              		@ frame_needed = 0, uses_anonymous_args = 0
 983              		.loc 1 197 0
 984 0000 3E4B     		ldr	r3, .L156
 985              		.loc 1 192 0
 986 0002 10B5     		push	{r4, lr}
 987              		.cfi_def_cfa_offset 8
 988              		.cfi_offset 4, -8
 989              		.cfi_offset 14, -4
 990              		.loc 1 197 0
 991 0004 5A69     		ldr	r2, [r3, #20]
 992              	.LVL74:
 993              		.loc 1 198 0
 994 0006 1C68     		ldr	r4, [r3]
 995 0008 1440     		ands	r4, r4, r2
 996 000a 04F47C42 		and	r2, r4, #64512
 997              	.LVL75:
 998              		.loc 1 200 0
 999 000e 5A61     		str	r2, [r3, #20]
 1000              		.loc 1 202 0
 1001 0010 6205     		lsls	r2, r4, #21
 1002              	.LVL76:
 1003 0012 10D5     		bpl	.L107
 1004              		.loc 1 202 0 is_stmt 0 discriminator 1
 1005 0014 3A4A     		ldr	r2, .L156+4
 1006 0016 D2F8A830 		ldr	r3, [r2, #168]
 1007              	.LVL77:
 1008 001a 13B1     		cbz	r3, .L108
 1009              		.loc 1 202 0 discriminator 2
 1010 001c D2F8AC00 		ldr	r0, [r2, #172]
 1011 0020 9847     		blx	r3
 1012              	.LVL78:
 1013              	.L108:
 1014              	.LBB432:
 1015              	.LBB433:
 1016              	.LBB434:
 1017              	.LBB435:
 1018              	.LBB436:
 1019              	.LBB437:
 1020              		.loc 2 493 0 is_stmt 1 discriminator 4
 1021 0022 2023     		movs	r3, #32
 1022              		.syntax unified
 1023              	@ 493 "./RM18A-ChibiOS18-Core/chibios/os/common/ext/ARM/CMSIS/Core/Include/cmsis_gcc.h" 1
 1024 0024 83F31188 		MSR basepri, r3
 1025              	@ 0 "" 2
 1026              	.LVL79:
ARM GAS  /tmp/ccIvOcuv.s 			page 19


 1027              		.thumb
 1028              		.syntax unified
 1029              	.LBE437:
 1030              	.LBE436:
 1031              	.LBE435:
 1032              	.LBE434:
 1033              	.LBE433:
 1034              	.LBE432:
 1035              	.LBB438:
 1036              	.LBB439:
 1037              		.loc 3 857 0 discriminator 4
 1038 0028 0021     		movs	r1, #0
 1039 002a 3648     		ldr	r0, .L156+8
 1040              	.LVL80:
 1041 002c FFF7FEFF 		bl	chThdDequeueAllI
 1042              	.LVL81:
 1043              	.LBE439:
 1044              	.LBE438:
 1045              	.LBB440:
 1046              	.LBB441:
 1047              	.LBB442:
 1048              	.LBB443:
 1049              	.LBB444:
 1050              	.LBB445:
 1051              		.loc 2 493 0 discriminator 4
 1052 0030 0023     		movs	r3, #0
 1053              		.syntax unified
 1054              	@ 493 "./RM18A-ChibiOS18-Core/chibios/os/common/ext/ARM/CMSIS/Core/Include/cmsis_gcc.h" 1
 1055 0032 83F31188 		MSR basepri, r3
 1056              	@ 0 "" 2
 1057              	.LVL82:
 1058              		.thumb
 1059              		.syntax unified
 1060              	.L107:
 1061              	.LBE445:
 1062              	.LBE444:
 1063              	.LBE443:
 1064              	.LBE442:
 1065              	.LBE441:
 1066              	.LBE440:
 1067              		.loc 1 203 0
 1068 0036 2305     		lsls	r3, r4, #20
 1069 0038 10D5     		bpl	.L109
 1070              		.loc 1 203 0 is_stmt 0 discriminator 1
 1071 003a 314A     		ldr	r2, .L156+4
 1072 003c D2F8B830 		ldr	r3, [r2, #184]
 1073 0040 13B1     		cbz	r3, .L110
 1074              		.loc 1 203 0 discriminator 2
 1075 0042 D2F8BC00 		ldr	r0, [r2, #188]
 1076 0046 9847     		blx	r3
 1077              	.LVL83:
 1078              	.L110:
 1079              	.LBB446:
 1080              	.LBB447:
 1081              	.LBB448:
 1082              	.LBB449:
 1083              	.LBB450:
ARM GAS  /tmp/ccIvOcuv.s 			page 20


 1084              	.LBB451:
 1085              		.loc 2 493 0 is_stmt 1 discriminator 4
 1086 0048 2023     		movs	r3, #32
 1087              		.syntax unified
 1088              	@ 493 "./RM18A-ChibiOS18-Core/chibios/os/common/ext/ARM/CMSIS/Core/Include/cmsis_gcc.h" 1
 1089 004a 83F31188 		MSR basepri, r3
 1090              	@ 0 "" 2
 1091              	.LVL84:
 1092              		.thumb
 1093              		.syntax unified
 1094              	.LBE451:
 1095              	.LBE450:
 1096              	.LBE449:
 1097              	.LBE448:
 1098              	.LBE447:
 1099              	.LBE446:
 1100              	.LBB452:
 1101              	.LBB453:
 1102              		.loc 3 857 0 discriminator 4
 1103 004e 0021     		movs	r1, #0
 1104 0050 2D48     		ldr	r0, .L156+12
 1105              	.LVL85:
 1106 0052 FFF7FEFF 		bl	chThdDequeueAllI
 1107              	.LVL86:
 1108              	.LBE453:
 1109              	.LBE452:
 1110              	.LBB454:
 1111              	.LBB455:
 1112              	.LBB456:
 1113              	.LBB457:
 1114              	.LBB458:
 1115              	.LBB459:
 1116              		.loc 2 493 0 discriminator 4
 1117 0056 0023     		movs	r3, #0
 1118              		.syntax unified
 1119              	@ 493 "./RM18A-ChibiOS18-Core/chibios/os/common/ext/ARM/CMSIS/Core/Include/cmsis_gcc.h" 1
 1120 0058 83F31188 		MSR basepri, r3
 1121              	@ 0 "" 2
 1122              	.LVL87:
 1123              		.thumb
 1124              		.syntax unified
 1125              	.L109:
 1126              	.LBE459:
 1127              	.LBE458:
 1128              	.LBE457:
 1129              	.LBE456:
 1130              	.LBE455:
 1131              	.LBE454:
 1132              		.loc 1 204 0
 1133 005c E004     		lsls	r0, r4, #19
 1134 005e 10D5     		bpl	.L111
 1135              		.loc 1 204 0 is_stmt 0 discriminator 1
 1136 0060 274A     		ldr	r2, .L156+4
 1137 0062 D2F8C830 		ldr	r3, [r2, #200]
 1138 0066 13B1     		cbz	r3, .L112
 1139              		.loc 1 204 0 discriminator 2
 1140 0068 D2F8CC00 		ldr	r0, [r2, #204]
ARM GAS  /tmp/ccIvOcuv.s 			page 21


 1141 006c 9847     		blx	r3
 1142              	.LVL88:
 1143              	.L112:
 1144              	.LBB460:
 1145              	.LBB461:
 1146              	.LBB462:
 1147              	.LBB463:
 1148              	.LBB464:
 1149              	.LBB465:
 1150              		.loc 2 493 0 is_stmt 1 discriminator 4
 1151 006e 2023     		movs	r3, #32
 1152              		.syntax unified
 1153              	@ 493 "./RM18A-ChibiOS18-Core/chibios/os/common/ext/ARM/CMSIS/Core/Include/cmsis_gcc.h" 1
 1154 0070 83F31188 		MSR basepri, r3
 1155              	@ 0 "" 2
 1156              	.LVL89:
 1157              		.thumb
 1158              		.syntax unified
 1159              	.LBE465:
 1160              	.LBE464:
 1161              	.LBE463:
 1162              	.LBE462:
 1163              	.LBE461:
 1164              	.LBE460:
 1165              	.LBB466:
 1166              	.LBB467:
 1167              		.loc 3 857 0 discriminator 4
 1168 0074 0021     		movs	r1, #0
 1169 0076 2548     		ldr	r0, .L156+16
 1170              	.LVL90:
 1171 0078 FFF7FEFF 		bl	chThdDequeueAllI
 1172              	.LVL91:
 1173              	.LBE467:
 1174              	.LBE466:
 1175              	.LBB468:
 1176              	.LBB469:
 1177              	.LBB470:
 1178              	.LBB471:
 1179              	.LBB472:
 1180              	.LBB473:
 1181              		.loc 2 493 0 discriminator 4
 1182 007c 0023     		movs	r3, #0
 1183              		.syntax unified
 1184              	@ 493 "./RM18A-ChibiOS18-Core/chibios/os/common/ext/ARM/CMSIS/Core/Include/cmsis_gcc.h" 1
 1185 007e 83F31188 		MSR basepri, r3
 1186              	@ 0 "" 2
 1187              	.LVL92:
 1188              		.thumb
 1189              		.syntax unified
 1190              	.L111:
 1191              	.LBE473:
 1192              	.LBE472:
 1193              	.LBE471:
 1194              	.LBE470:
 1195              	.LBE469:
 1196              	.LBE468:
 1197              		.loc 1 205 0
ARM GAS  /tmp/ccIvOcuv.s 			page 22


 1198 0082 A104     		lsls	r1, r4, #18
 1199 0084 10D5     		bpl	.L113
 1200              		.loc 1 205 0 is_stmt 0 discriminator 1
 1201 0086 1E4A     		ldr	r2, .L156+4
 1202 0088 D2F8D830 		ldr	r3, [r2, #216]
 1203 008c 13B1     		cbz	r3, .L114
 1204              		.loc 1 205 0 discriminator 2
 1205 008e D2F8DC00 		ldr	r0, [r2, #220]
 1206 0092 9847     		blx	r3
 1207              	.LVL93:
 1208              	.L114:
 1209              	.LBB474:
 1210              	.LBB475:
 1211              	.LBB476:
 1212              	.LBB477:
 1213              	.LBB478:
 1214              	.LBB479:
 1215              		.loc 2 493 0 is_stmt 1 discriminator 4
 1216 0094 2023     		movs	r3, #32
 1217              		.syntax unified
 1218              	@ 493 "./RM18A-ChibiOS18-Core/chibios/os/common/ext/ARM/CMSIS/Core/Include/cmsis_gcc.h" 1
 1219 0096 83F31188 		MSR basepri, r3
 1220              	@ 0 "" 2
 1221              	.LVL94:
 1222              		.thumb
 1223              		.syntax unified
 1224              	.LBE479:
 1225              	.LBE478:
 1226              	.LBE477:
 1227              	.LBE476:
 1228              	.LBE475:
 1229              	.LBE474:
 1230              	.LBB480:
 1231              	.LBB481:
 1232              		.loc 3 857 0 discriminator 4
 1233 009a 0021     		movs	r1, #0
 1234 009c 1C48     		ldr	r0, .L156+20
 1235              	.LVL95:
 1236 009e FFF7FEFF 		bl	chThdDequeueAllI
 1237              	.LVL96:
 1238              	.LBE481:
 1239              	.LBE480:
 1240              	.LBB482:
 1241              	.LBB483:
 1242              	.LBB484:
 1243              	.LBB485:
 1244              	.LBB486:
 1245              	.LBB487:
 1246              		.loc 2 493 0 discriminator 4
 1247 00a2 0023     		movs	r3, #0
 1248              		.syntax unified
 1249              	@ 493 "./RM18A-ChibiOS18-Core/chibios/os/common/ext/ARM/CMSIS/Core/Include/cmsis_gcc.h" 1
 1250 00a4 83F31188 		MSR basepri, r3
 1251              	@ 0 "" 2
 1252              	.LVL97:
 1253              		.thumb
 1254              		.syntax unified
ARM GAS  /tmp/ccIvOcuv.s 			page 23


 1255              	.L113:
 1256              	.LBE487:
 1257              	.LBE486:
 1258              	.LBE485:
 1259              	.LBE484:
 1260              	.LBE483:
 1261              	.LBE482:
 1262              		.loc 1 206 0
 1263 00a8 6204     		lsls	r2, r4, #17
 1264 00aa 10D5     		bpl	.L115
 1265              		.loc 1 206 0 is_stmt 0 discriminator 1
 1266 00ac 144A     		ldr	r2, .L156+4
 1267 00ae D2F8E830 		ldr	r3, [r2, #232]
 1268 00b2 13B1     		cbz	r3, .L116
 1269              		.loc 1 206 0 discriminator 2
 1270 00b4 D2F8EC00 		ldr	r0, [r2, #236]
 1271 00b8 9847     		blx	r3
 1272              	.LVL98:
 1273              	.L116:
 1274              	.LBB488:
 1275              	.LBB489:
 1276              	.LBB490:
 1277              	.LBB491:
 1278              	.LBB492:
 1279              	.LBB493:
 1280              		.loc 2 493 0 is_stmt 1 discriminator 4
 1281 00ba 2023     		movs	r3, #32
 1282              		.syntax unified
 1283              	@ 493 "./RM18A-ChibiOS18-Core/chibios/os/common/ext/ARM/CMSIS/Core/Include/cmsis_gcc.h" 1
 1284 00bc 83F31188 		MSR basepri, r3
 1285              	@ 0 "" 2
 1286              	.LVL99:
 1287              		.thumb
 1288              		.syntax unified
 1289              	.LBE493:
 1290              	.LBE492:
 1291              	.LBE491:
 1292              	.LBE490:
 1293              	.LBE489:
 1294              	.LBE488:
 1295              	.LBB494:
 1296              	.LBB495:
 1297              		.loc 3 857 0 discriminator 4
 1298 00c0 0021     		movs	r1, #0
 1299 00c2 1448     		ldr	r0, .L156+24
 1300              	.LVL100:
 1301 00c4 FFF7FEFF 		bl	chThdDequeueAllI
 1302              	.LVL101:
 1303              	.LBE495:
 1304              	.LBE494:
 1305              	.LBB496:
 1306              	.LBB497:
 1307              	.LBB498:
 1308              	.LBB499:
 1309              	.LBB500:
 1310              	.LBB501:
 1311              		.loc 2 493 0 discriminator 4
ARM GAS  /tmp/ccIvOcuv.s 			page 24


 1312 00c8 0023     		movs	r3, #0
 1313              		.syntax unified
 1314              	@ 493 "./RM18A-ChibiOS18-Core/chibios/os/common/ext/ARM/CMSIS/Core/Include/cmsis_gcc.h" 1
 1315 00ca 83F31188 		MSR basepri, r3
 1316              	@ 0 "" 2
 1317              	.LVL102:
 1318              		.thumb
 1319              		.syntax unified
 1320              	.L115:
 1321              	.LBE501:
 1322              	.LBE500:
 1323              	.LBE499:
 1324              	.LBE498:
 1325              	.LBE497:
 1326              	.LBE496:
 1327              		.loc 1 207 0
 1328 00ce 2304     		lsls	r3, r4, #16
 1329 00d0 10D5     		bpl	.L117
 1330              		.loc 1 207 0 is_stmt 0 discriminator 1
 1331 00d2 0B4A     		ldr	r2, .L156+4
 1332 00d4 D2F8F830 		ldr	r3, [r2, #248]
 1333 00d8 13B1     		cbz	r3, .L118
 1334              		.loc 1 207 0 discriminator 2
 1335 00da D2F8FC00 		ldr	r0, [r2, #252]
 1336 00de 9847     		blx	r3
 1337              	.LVL103:
 1338              	.L118:
 1339              	.LBB502:
 1340              	.LBB503:
 1341              	.LBB504:
 1342              	.LBB505:
 1343              	.LBB506:
 1344              	.LBB507:
 1345              		.loc 2 493 0 is_stmt 1 discriminator 4
 1346 00e0 2023     		movs	r3, #32
 1347              		.syntax unified
 1348              	@ 493 "./RM18A-ChibiOS18-Core/chibios/os/common/ext/ARM/CMSIS/Core/Include/cmsis_gcc.h" 1
 1349 00e2 83F31188 		MSR basepri, r3
 1350              	@ 0 "" 2
 1351              	.LVL104:
 1352              		.thumb
 1353              		.syntax unified
 1354              	.LBE507:
 1355              	.LBE506:
 1356              	.LBE505:
 1357              	.LBE504:
 1358              	.LBE503:
 1359              	.LBE502:
 1360              	.LBB508:
 1361              	.LBB509:
 1362              		.loc 3 857 0 discriminator 4
 1363 00e6 0021     		movs	r1, #0
 1364 00e8 0B48     		ldr	r0, .L156+28
 1365              	.LVL105:
 1366 00ea FFF7FEFF 		bl	chThdDequeueAllI
 1367              	.LVL106:
 1368              	.LBE509:
ARM GAS  /tmp/ccIvOcuv.s 			page 25


 1369              	.LBE508:
 1370              	.LBB510:
 1371              	.LBB511:
 1372              	.LBB512:
 1373              	.LBB513:
 1374              	.LBB514:
 1375              	.LBB515:
 1376              		.loc 2 493 0 discriminator 4
 1377 00ee 0023     		movs	r3, #0
 1378              		.syntax unified
 1379              	@ 493 "./RM18A-ChibiOS18-Core/chibios/os/common/ext/ARM/CMSIS/Core/Include/cmsis_gcc.h" 1
 1380 00f0 83F31188 		MSR basepri, r3
 1381              	@ 0 "" 2
 1382              	.LVL107:
 1383              		.thumb
 1384              		.syntax unified
 1385              	.L117:
 1386              	.LBE515:
 1387              	.LBE514:
 1388              	.LBE513:
 1389              	.LBE512:
 1390              	.LBE511:
 1391              	.LBE510:
 1392              		.loc 1 210 0
 1393 00f4 BDE81040 		pop	{r4, lr}
 1394              		.cfi_restore 14
 1395              		.cfi_restore 4
 1396              		.cfi_def_cfa_offset 0
 1397              	.LVL108:
 1398              		.loc 1 209 0
 1399 00f8 FFF7FEBF 		b	_port_irq_epilogue
 1400              	.LVL109:
 1401              	.L157:
 1402              		.align	2
 1403              	.L156:
 1404 00fc 003C0140 		.word	1073822720
 1405 0100 00000000 		.word	_pal_events
 1406 0104 A0000000 		.word	_pal_events+160
 1407 0108 B0000000 		.word	_pal_events+176
 1408 010c C0000000 		.word	_pal_events+192
 1409 0110 D0000000 		.word	_pal_events+208
 1410 0114 E0000000 		.word	_pal_events+224
 1411 0118 F0000000 		.word	_pal_events+240
 1412              		.cfi_endproc
 1413              	.LFE333:
 1414              		.size	VectorE0, .-VectorE0
 1415              		.section	.text.irqInit,"ax",%progbits
 1416              		.align	1
 1417              		.p2align 2,,3
 1418              		.global	irqInit
 1419              		.syntax unified
 1420              		.thumb
 1421              		.thumb_func
 1422              		.fpu fpv4-sp-d16
 1423              		.type	irqInit, %function
 1424              	irqInit:
 1425              	.LFB334:
ARM GAS  /tmp/ccIvOcuv.s 			page 26


 1426              		.loc 1 224 0
 1427              		.cfi_startproc
 1428              		@ args = 0, pretend = 0, frame = 0
 1429              		@ frame_needed = 0, uses_anonymous_args = 0
 1430              		.loc 1 227 0
 1431 0000 0621     		movs	r1, #6
 1432              		.loc 1 224 0
 1433 0002 08B5     		push	{r3, lr}
 1434              		.cfi_def_cfa_offset 8
 1435              		.cfi_offset 3, -8
 1436              		.cfi_offset 14, -4
 1437              		.loc 1 227 0
 1438 0004 0846     		mov	r0, r1
 1439 0006 FFF7FEFF 		bl	nvicEnableVector
 1440              	.LVL110:
 1441              		.loc 1 228 0
 1442 000a 0621     		movs	r1, #6
 1443 000c 0720     		movs	r0, #7
 1444 000e FFF7FEFF 		bl	nvicEnableVector
 1445              	.LVL111:
 1446              		.loc 1 229 0
 1447 0012 0621     		movs	r1, #6
 1448 0014 0820     		movs	r0, #8
 1449 0016 FFF7FEFF 		bl	nvicEnableVector
 1450              	.LVL112:
 1451              		.loc 1 230 0
 1452 001a 0621     		movs	r1, #6
 1453 001c 0920     		movs	r0, #9
 1454 001e FFF7FEFF 		bl	nvicEnableVector
 1455              	.LVL113:
 1456              		.loc 1 231 0
 1457 0022 0621     		movs	r1, #6
 1458 0024 0A20     		movs	r0, #10
 1459 0026 FFF7FEFF 		bl	nvicEnableVector
 1460              	.LVL114:
 1461              		.loc 1 232 0
 1462 002a 0621     		movs	r1, #6
 1463 002c 1720     		movs	r0, #23
 1464 002e FFF7FEFF 		bl	nvicEnableVector
 1465              	.LVL115:
 1466              		.loc 1 233 0
 1467 0032 0621     		movs	r1, #6
 1468 0034 2820     		movs	r0, #40
 1469              		.loc 1 235 0
 1470 0036 BDE80840 		pop	{r3, lr}
 1471              		.cfi_restore 14
 1472              		.cfi_restore 3
 1473              		.cfi_def_cfa_offset 0
 1474              		.loc 1 233 0
 1475 003a FFF7FEBF 		b	nvicEnableVector
 1476              	.LVL116:
 1477              		.cfi_endproc
 1478              	.LFE334:
 1479              		.size	irqInit, .-irqInit
 1480 003e 00BF     		.section	.text.irqDeinit,"ax",%progbits
 1481              		.align	1
 1482              		.p2align 2,,3
ARM GAS  /tmp/ccIvOcuv.s 			page 27


 1483              		.global	irqDeinit
 1484              		.syntax unified
 1485              		.thumb
 1486              		.thumb_func
 1487              		.fpu fpv4-sp-d16
 1488              		.type	irqDeinit, %function
 1489              	irqDeinit:
 1490              	.LFB335:
 1491              		.loc 1 242 0
 1492              		.cfi_startproc
 1493              		@ args = 0, pretend = 0, frame = 0
 1494              		@ frame_needed = 0, uses_anonymous_args = 0
 1495 0000 08B5     		push	{r3, lr}
 1496              		.cfi_def_cfa_offset 8
 1497              		.cfi_offset 3, -8
 1498              		.cfi_offset 14, -4
 1499              		.loc 1 245 0
 1500 0002 0620     		movs	r0, #6
 1501 0004 FFF7FEFF 		bl	nvicDisableVector
 1502              	.LVL117:
 1503              		.loc 1 246 0
 1504 0008 0720     		movs	r0, #7
 1505 000a FFF7FEFF 		bl	nvicDisableVector
 1506              	.LVL118:
 1507              		.loc 1 247 0
 1508 000e 0820     		movs	r0, #8
 1509 0010 FFF7FEFF 		bl	nvicDisableVector
 1510              	.LVL119:
 1511              		.loc 1 248 0
 1512 0014 0920     		movs	r0, #9
 1513 0016 FFF7FEFF 		bl	nvicDisableVector
 1514              	.LVL120:
 1515              		.loc 1 249 0
 1516 001a 0A20     		movs	r0, #10
 1517 001c FFF7FEFF 		bl	nvicDisableVector
 1518              	.LVL121:
 1519              		.loc 1 250 0
 1520 0020 1720     		movs	r0, #23
 1521 0022 FFF7FEFF 		bl	nvicDisableVector
 1522              	.LVL122:
 1523              		.loc 1 251 0
 1524 0026 2820     		movs	r0, #40
 1525              		.loc 1 253 0
 1526 0028 BDE80840 		pop	{r3, lr}
 1527              		.cfi_restore 14
 1528              		.cfi_restore 3
 1529              		.cfi_def_cfa_offset 0
 1530              		.loc 1 251 0
 1531 002c FFF7FEBF 		b	nvicDisableVector
 1532              	.LVL123:
 1533              		.cfi_endproc
 1534              	.LFE335:
 1535              		.size	irqDeinit, .-irqDeinit
 1536              		.text
 1537              	.Letext0:
 1538              		.file 4 "/usr/lib/gcc/arm-none-eabi/7.3.1/include/stddef.h"
 1539              		.file 5 "/usr/arm-none-eabi/include/machine/_default_types.h"
ARM GAS  /tmp/ccIvOcuv.s 			page 28


 1540              		.file 6 "/usr/arm-none-eabi/include/sys/_stdint.h"
 1541              		.file 7 "./RM18A-ChibiOS18-Core/chibios/os/common/ports/ARMCMx/compilers/GCC/chtypes.h"
 1542              		.file 8 "./RM18A-ChibiOS18-Core/chibios/os/rt/include/chsystypes.h"
 1543              		.file 9 "./RM18A-ChibiOS18-Core/chibios/os/rt/include/chschd.h"
 1544              		.file 10 "./RM18A-ChibiOS18-Core/chibios/os/rt/include/chtime.h"
 1545              		.file 11 "./RM18A-ChibiOS18-Core/chibios/os/common/ext/ARM/CMSIS/Core/Include/core_cm4.h"
 1546              		.file 12 "./RM18A-ChibiOS18-Core/chibios/os/common/ext/ST/STM32F4xx/system_stm32f4xx.h"
 1547              		.file 13 "./RM18A-ChibiOS18-Core/chibios/os/common/ext/ST/STM32F4xx/stm32f427xx.h"
 1548              		.file 14 "./RM18A-ChibiOS18-Core/chibios/os/common/ports/ARMCMx/chcore.h"
 1549              		.file 15 "./RM18A-ChibiOS18-Core/chibios/os/common/ports/ARMCMx/chcore_v7m.h"
 1550              		.file 16 "./RM18A-ChibiOS18-Core/chibios/os/hal/ports/STM32/LLD/TIMv1/stm32_tim.h"
 1551              		.file 17 "./RM18A-ChibiOS18-Core/chibios/os/rt/include/chtm.h"
 1552              		.file 18 "./RM18A-ChibiOS18-Core/chibios/os/rt/include/chsem.h"
 1553              		.file 19 "./RM18A-ChibiOS18-Core/chibios/os/rt/include/chmtx.h"
 1554              		.file 20 "./RM18A-ChibiOS18-Core/chibios/os/rt/include/chsys.h"
 1555              		.file 21 "./RM18A-ChibiOS18-Core/chibios/os/rt/include/chregistry.h"
 1556              		.file 22 "./RM18A-ChibiOS18-Core/chibios/os/rt/include/chevents.h"
 1557              		.file 23 "./RM18A-ChibiOS18-Core/chibios/os/oslib/include/chmemcore.h"
 1558              		.file 24 "./RM18A-ChibiOS18-Core/chibios/os/oslib/include/chmempools.h"
 1559              		.file 25 "./RM18A-ChibiOS18-Core/chibios/os/oslib/include/chfactory.h"
 1560              		.file 26 "./RM18A-ChibiOS18-Core/chibios/os/hal/ports/STM32/LLD/DMAv2/stm32_dma.h"
 1561              		.file 27 "./RM18A-ChibiOS18-Core/chibios/os/hal/include/hal_queues.h"
 1562              		.file 28 "./RM18A-ChibiOS18-Core/chibios/os/hal/include/hal_pal.h"
 1563              		.file 29 "./RM18A-ChibiOS18-Core/chibios/os/hal/ports/STM32/LLD/GPIOv2/hal_pal_lld.h"
 1564              		.file 30 "./RM18A-ChibiOS18-Core/chibios/os/hal/include/hal_adc.h"
 1565              		.file 31 "./RM18A-ChibiOS18-Core/chibios/os/hal/ports/STM32/LLD/ADCv2/hal_adc_lld.h"
 1566              		.file 32 "./RM18A-ChibiOS18-Core/chibios/os/hal/include/hal_can.h"
 1567              		.file 33 "./RM18A-ChibiOS18-Core/chibios/os/hal/ports/STM32/LLD/CANv1/hal_can_lld.h"
 1568              		.file 34 "./RM18A-ChibiOS18-Core/chibios/os/hal/include/hal_icu.h"
 1569              		.file 35 "./RM18A-ChibiOS18-Core/chibios/os/hal/ports/STM32/LLD/TIMv1/hal_icu_lld.h"
 1570              		.file 36 "./RM18A-ChibiOS18-Core/chibios/os/hal/include/hal_pwm.h"
 1571              		.file 37 "./RM18A-ChibiOS18-Core/chibios/os/hal/ports/STM32/LLD/TIMv1/hal_pwm_lld.h"
 1572              		.file 38 "./RM18A-ChibiOS18-Core/chibios/os/hal/include/hal_serial.h"
 1573              		.file 39 "./RM18A-ChibiOS18-Core/chibios/os/hal/ports/STM32/LLD/USARTv1/hal_serial_lld.h"
 1574              		.file 40 "./RM18A-ChibiOS18-Core/chibios/os/hal/include/hal_spi.h"
 1575              		.file 41 "./RM18A-ChibiOS18-Core/chibios/os/hal/ports/STM32/LLD/SPIv1/hal_spi_lld.h"
 1576              		.file 42 "./RM18A-ChibiOS18-Core/chibios/os/hal/include/hal_uart.h"
 1577              		.file 43 "./RM18A-ChibiOS18-Core/chibios/os/hal/ports/STM32/LLD/USARTv1/hal_uart_lld.h"
 1578              		.file 44 "./RM18A-ChibiOS18-Core/chibios/os/hal/include/hal_usb.h"
 1579              		.file 45 "./RM18A-ChibiOS18-Core/chibios/os/hal/ports/STM32/LLD/OTGv1/hal_usb_lld.h"
 1580              		.file 46 "./RM18A-ChibiOS18-Core/chibios/os/hal/ports/STM32/LLD/OTGv1/stm32_otg.h"
 1581              		.file 47 "./RM18A-ChibiOS18-Core/chibios/os/hal/ports/common/ARMCMx/nvic.h"
 1582              		.file 48 "./RM18A-ChibiOS18-Core/chibios/os/rt/include/chthreads.h"