ARM GAS  /tmp/ccAwkf6C.s 			page 1


   1              		.cpu cortex-m4
   2              		.eabi_attribute 27, 1
   3              		.eabi_attribute 28, 1
   4              		.eabi_attribute 20, 1
   5              		.eabi_attribute 21, 1
   6              		.eabi_attribute 23, 3
   7              		.eabi_attribute 24, 1
   8              		.eabi_attribute 25, 1
   9              		.eabi_attribute 26, 1
  10              		.eabi_attribute 30, 2
  11              		.eabi_attribute 34, 1
  12              		.eabi_attribute 18, 4
  13              		.file	"usbcfg.c"
  14              		.text
  15              	.Ltext0:
  16              		.cfi_sections	.debug_frame
  17              		.section	.text.get_descriptor,"ax",%progbits
  18              		.align	1
  19              		.p2align 2,,3
  20              		.syntax unified
  21              		.thumb
  22              		.thumb_func
  23              		.fpu fpv4-sp-d16
  24              		.type	get_descriptor, %function
  25              	get_descriptor:
  26              	.LFB327:
  27              		.file 1 "./RM18A-ChibiOS18-Core/src/peripherals/usbcfg.c"
  28              		.loc 1 183 0
  29              		.cfi_startproc
  30              		@ args = 0, pretend = 0, frame = 0
  31              		@ frame_needed = 0, uses_anonymous_args = 0
  32              		@ link register save eliminated.
  33              	.LVL0:
  34              		.loc 1 187 0
  35 0000 0229     		cmp	r1, #2
  36 0002 06D0     		beq	.L3
  37 0004 0329     		cmp	r1, #3
  38 0006 06D0     		beq	.L4
  39 0008 0129     		cmp	r1, #1
  40              		.loc 1 197 0
  41 000a 0648     		ldr	r0, .L9
  42              	.LVL1:
  43 000c 18BF     		it	ne
  44 000e 0020     		movne	r0, #0
  45 0010 7047     		bx	lr
  46              	.LVL2:
  47              	.L3:
  48              		.loc 1 192 0
  49 0012 0548     		ldr	r0, .L9+4
  50              	.LVL3:
  51 0014 7047     		bx	lr
  52              	.LVL4:
  53              	.L4:
  54              		.loc 1 194 0
  55 0016 032A     		cmp	r2, #3
  56              		.loc 1 195 0
  57 0018 9ABF     		itte	ls
ARM GAS  /tmp/ccAwkf6C.s 			page 2


  58 001a 0448     		ldrls	r0, .L9+8
  59              	.LVL5:
  60 001c 00EBC200 		addls	r0, r0, r2, lsl #3
  61              		.loc 1 197 0
  62 0020 0020     		movhi	r0, #0
  63              		.loc 1 198 0
  64 0022 7047     		bx	lr
  65              	.L10:
  66              		.align	2
  67              	.L9:
  68 0024 00000000 		.word	.LANCHOR0
  69 0028 00000000 		.word	.LANCHOR1
  70 002c 00000000 		.word	.LANCHOR2
  71              		.cfi_endproc
  72              	.LFE327:
  73              		.size	get_descriptor, .-get_descriptor
  74              		.section	.text.sof_handler,"ax",%progbits
  75              		.align	1
  76              		.p2align 2,,3
  77              		.syntax unified
  78              		.thumb
  79              		.thumb_func
  80              		.fpu fpv4-sp-d16
  81              		.type	sof_handler, %function
  82              	sof_handler:
  83              	.LFB329:
  84              		.loc 1 300 0
  85              		.cfi_startproc
  86              		@ args = 0, pretend = 0, frame = 0
  87              		@ frame_needed = 0, uses_anonymous_args = 0
  88              	.LVL6:
  89 0000 08B5     		push	{r3, lr}
  90              		.cfi_def_cfa_offset 8
  91              		.cfi_offset 3, -8
  92              		.cfi_offset 14, -4
  93              	.LBB116:
  94              	.LBB117:
  95              	.LBB118:
  96              	.LBB119:
  97              	.LBB120:
  98              	.LBB121:
  99              		.file 2 "./RM18A-ChibiOS18-Core/chibios/os/common/ext/ARM/CMSIS/Core/Include/cmsis_gcc.h"
 100              		.loc 2 493 0
 101 0002 2023     		movs	r3, #32
 102              		.syntax unified
 103              	@ 493 "./RM18A-ChibiOS18-Core/chibios/os/common/ext/ARM/CMSIS/Core/Include/cmsis_gcc.h" 1
 104 0004 83F31188 		MSR basepri, r3
 105              	@ 0 "" 2
 106              	.LVL7:
 107              		.thumb
 108              		.syntax unified
 109              	.LBE121:
 110              	.LBE120:
 111              	.LBE119:
 112              	.LBE118:
 113              	.LBE117:
 114              	.LBE116:
ARM GAS  /tmp/ccAwkf6C.s 			page 3


 115              		.loc 1 305 0
 116 0008 0348     		ldr	r0, .L13
 117              	.LVL8:
 118 000a FFF7FEFF 		bl	sduSOFHookI
 119              	.LVL9:
 120              	.LBB122:
 121              	.LBB123:
 122              	.LBB124:
 123              	.LBB125:
 124              	.LBB126:
 125              	.LBB127:
 126              		.loc 2 493 0
 127 000e 0023     		movs	r3, #0
 128              		.syntax unified
 129              	@ 493 "./RM18A-ChibiOS18-Core/chibios/os/common/ext/ARM/CMSIS/Core/Include/cmsis_gcc.h" 1
 130 0010 83F31188 		MSR basepri, r3
 131              	@ 0 "" 2
 132              	.LVL10:
 133              		.thumb
 134              		.syntax unified
 135              	.LBE127:
 136              	.LBE126:
 137              	.LBE125:
 138              	.LBE124:
 139              	.LBE123:
 140              	.LBE122:
 141              		.loc 1 307 0
 142 0014 08BD     		pop	{r3, pc}
 143              	.L14:
 144 0016 00BF     		.align	2
 145              	.L13:
 146 0018 00000000 		.word	.LANCHOR3
 147              		.cfi_endproc
 148              	.LFE329:
 149              		.size	sof_handler, .-sof_handler
 150              		.section	.text.usb_event,"ax",%progbits
 151              		.align	1
 152              		.p2align 2,,3
 153              		.syntax unified
 154              		.thumb
 155              		.thumb_func
 156              		.fpu fpv4-sp-d16
 157              		.type	usb_event, %function
 158              	usb_event:
 159              	.LFB328:
 160              		.loc 1 249 0
 161              		.cfi_startproc
 162              		@ args = 0, pretend = 0, frame = 0
 163              		@ frame_needed = 0, uses_anonymous_args = 0
 164              	.LVL11:
 165 0000 10B5     		push	{r4, lr}
 166              		.cfi_def_cfa_offset 8
 167              		.cfi_offset 4, -8
 168              		.cfi_offset 14, -4
 169              		.loc 1 252 0
 170 0002 0529     		cmp	r1, #5
 171 0004 0DD8     		bhi	.L15
ARM GAS  /tmp/ccAwkf6C.s 			page 4


 172 0006 DFE801F0 		tbb	[pc, r1]
 173              	.L18:
 174 000a 21       		.byte	(.L17-.L18)/2
 175 000b 0C       		.byte	(.L15-.L18)/2
 176 000c 0D       		.byte	(.L19-.L18)/2
 177 000d 21       		.byte	(.L17-.L18)/2
 178 000e 21       		.byte	(.L17-.L18)/2
 179 000f 03       		.byte	(.L20-.L18)/2
 180              		.p2align 1
 181              	.L20:
 182              	.LVL12:
 183              	.LBB180:
 184              	.LBB181:
 185              	.LBB182:
 186              	.LBB183:
 187              	.LBB184:
 188              		.loc 2 493 0
 189 0010 2023     		movs	r3, #32
 190              		.syntax unified
 191              	@ 493 "./RM18A-ChibiOS18-Core/chibios/os/common/ext/ARM/CMSIS/Core/Include/cmsis_gcc.h" 1
 192 0012 83F31188 		MSR basepri, r3
 193              	@ 0 "" 2
 194              	.LVL13:
 195              		.thumb
 196              		.syntax unified
 197              	.LBE184:
 198              	.LBE183:
 199              	.LBE182:
 200              	.LBE181:
 201              	.LBE180:
 202              		.loc 1 286 0
 203 0016 1248     		ldr	r0, .L22
 204              	.LVL14:
 205 0018 FFF7FEFF 		bl	sduWakeupHookI
 206              	.LVL15:
 207              	.LBB185:
 208              	.LBB186:
 209              	.LBB187:
 210              	.LBB188:
 211              	.LBB189:
 212              		.loc 2 493 0
 213 001c 0023     		movs	r3, #0
 214              		.syntax unified
 215              	@ 493 "./RM18A-ChibiOS18-Core/chibios/os/common/ext/ARM/CMSIS/Core/Include/cmsis_gcc.h" 1
 216 001e 83F31188 		MSR basepri, r3
 217              	@ 0 "" 2
 218              	.LVL16:
 219              		.thumb
 220              		.syntax unified
 221              	.L15:
 222              	.LBE189:
 223              	.LBE188:
 224              	.LBE187:
 225              	.LBE186:
 226              	.LBE185:
 227              		.loc 1 294 0
 228 0022 10BD     		pop	{r4, pc}
ARM GAS  /tmp/ccAwkf6C.s 			page 5


 229              	.LVL17:
 230              	.L19:
 231 0024 0446     		mov	r4, r0
 232              	.LVL18:
 233              	.LBB190:
 234              	.LBB191:
 235              	.LBB192:
 236              	.LBB193:
 237              	.LBB194:
 238              	.LBB195:
 239              	.LBB196:
 240              		.loc 2 493 0
 241 0026 2023     		movs	r3, #32
 242              		.syntax unified
 243              	@ 493 "./RM18A-ChibiOS18-Core/chibios/os/common/ext/ARM/CMSIS/Core/Include/cmsis_gcc.h" 1
 244 0028 83F31188 		MSR basepri, r3
 245              	@ 0 "" 2
 246              	.LVL19:
 247              		.thumb
 248              		.syntax unified
 249              	.LBE196:
 250              	.LBE195:
 251              	.LBE194:
 252              	.LBE193:
 253              	.LBE192:
 254              		.loc 1 262 0
 255 002c 0D4A     		ldr	r2, .L22+4
 256 002e 0121     		movs	r1, #1
 257              	.LVL20:
 258 0030 FFF7FEFF 		bl	usbInitEndpointI
 259              	.LVL21:
 260              		.loc 1 263 0
 261 0034 2046     		mov	r0, r4
 262 0036 0C4A     		ldr	r2, .L22+8
 263 0038 0221     		movs	r1, #2
 264 003a FFF7FEFF 		bl	usbInitEndpointI
 265              	.LVL22:
 266              		.loc 1 266 0
 267 003e 0848     		ldr	r0, .L22
 268 0040 FFF7FEFF 		bl	sduConfigureHookI
 269              	.LVL23:
 270              	.LBB197:
 271              	.LBB198:
 272              	.LBB199:
 273              	.LBB200:
 274              	.LBB201:
 275              		.loc 2 493 0
 276 0044 0023     		movs	r3, #0
 277              		.syntax unified
 278              	@ 493 "./RM18A-ChibiOS18-Core/chibios/os/common/ext/ARM/CMSIS/Core/Include/cmsis_gcc.h" 1
 279 0046 83F31188 		MSR basepri, r3
 280              	@ 0 "" 2
 281              	.LVL24:
 282              		.thumb
 283              		.syntax unified
 284              	.LBE201:
 285              	.LBE200:
ARM GAS  /tmp/ccAwkf6C.s 			page 6


 286              	.LBE199:
 287              	.LBE198:
 288              	.LBE197:
 289              	.LBE191:
 290              	.LBE190:
 291              		.loc 1 294 0
 292 004a 10BD     		pop	{r4, pc}
 293              	.LVL25:
 294              	.L17:
 295              	.LBB202:
 296              	.LBB203:
 297              	.LBB204:
 298              	.LBB205:
 299              	.LBB206:
 300              		.loc 2 493 0
 301 004c 2023     		movs	r3, #32
 302              		.syntax unified
 303              	@ 493 "./RM18A-ChibiOS18-Core/chibios/os/common/ext/ARM/CMSIS/Core/Include/cmsis_gcc.h" 1
 304 004e 83F31188 		MSR basepri, r3
 305              	@ 0 "" 2
 306              	.LVL26:
 307              		.thumb
 308              		.syntax unified
 309              	.LBE206:
 310              	.LBE205:
 311              	.LBE204:
 312              	.LBE203:
 313              	.LBE202:
 314              		.loc 1 278 0
 315 0052 0348     		ldr	r0, .L22
 316              	.LVL27:
 317 0054 FFF7FEFF 		bl	sduSuspendHookI
 318              	.LVL28:
 319              	.LBB207:
 320              	.LBB208:
 321              	.LBB209:
 322              	.LBB210:
 323              	.LBB211:
 324              		.loc 2 493 0
 325 0058 0023     		movs	r3, #0
 326              		.syntax unified
 327              	@ 493 "./RM18A-ChibiOS18-Core/chibios/os/common/ext/ARM/CMSIS/Core/Include/cmsis_gcc.h" 1
 328 005a 83F31188 		MSR basepri, r3
 329              	@ 0 "" 2
 330              	.LVL29:
 331              		.thumb
 332              		.syntax unified
 333              	.LBE211:
 334              	.LBE210:
 335              	.LBE209:
 336              	.LBE208:
 337              	.LBE207:
 338              		.loc 1 294 0
 339 005e 10BD     		pop	{r4, pc}
 340              	.L23:
 341              		.align	2
 342              	.L22:
ARM GAS  /tmp/ccAwkf6C.s 			page 7


 343 0060 00000000 		.word	.LANCHOR3
 344 0064 00000000 		.word	.LANCHOR4
 345 0068 00000000 		.word	.LANCHOR5
 346              		.cfi_endproc
 347              	.LFE328:
 348              		.size	usb_event, .-usb_event
 349              		.section	.text.setup_USB,"ax",%progbits
 350              		.align	1
 351              		.p2align 2,,3
 352              		.global	setup_USB
 353              		.syntax unified
 354              		.thumb
 355              		.thumb_func
 356              		.fpu fpv4-sp-d16
 357              		.type	setup_USB, %function
 358              	setup_USB:
 359              	.LFB330:
 360              		.loc 1 331 0
 361              		.cfi_startproc
 362              		@ args = 0, pretend = 0, frame = 0
 363              		@ frame_needed = 0, uses_anonymous_args = 0
 364 0000 38B5     		push	{r3, r4, r5, lr}
 365              		.cfi_def_cfa_offset 16
 366              		.cfi_offset 3, -16
 367              		.cfi_offset 4, -12
 368              		.cfi_offset 5, -8
 369              		.cfi_offset 14, -4
 370              		.loc 1 332 0
 371 0002 0C4D     		ldr	r5, .L26
 372              		.loc 1 334 0
 373 0004 0C4C     		ldr	r4, .L26+4
 374              		.loc 1 332 0
 375 0006 2846     		mov	r0, r5
 376 0008 FFF7FEFF 		bl	sduObjectInit
 377              	.LVL30:
 378              		.loc 1 333 0
 379 000c 2846     		mov	r0, r5
 380 000e 0B49     		ldr	r1, .L26+8
 381 0010 FFF7FEFF 		bl	sduStart
 382              	.LVL31:
 383              		.loc 1 334 0
 384 0014 626D     		ldr	r2, [r4, #84]
 385              		.loc 1 335 0
 386 0016 0A49     		ldr	r1, .L26+12
 387              		.loc 1 334 0
 388 0018 936B     		ldr	r3, [r2, #56]
 389 001a 23F40023 		bic	r3, r3, #524288
 390 001e 9363     		str	r3, [r2, #56]
 391              		.loc 1 335 0
 392 0020 2046     		mov	r0, r4
 393 0022 FFF7FEFF 		bl	usbStart
 394              	.LVL32:
 395              		.loc 1 336 0
 396 0026 626D     		ldr	r2, [r4, #84]
 397 0028 936B     		ldr	r3, [r2, #56]
 398 002a 43F40023 		orr	r3, r3, #524288
 399 002e 9363     		str	r3, [r2, #56]
ARM GAS  /tmp/ccAwkf6C.s 			page 8


 400              		.loc 1 337 0
 401 0030 38BD     		pop	{r3, r4, r5, pc}
 402              	.L27:
 403 0032 00BF     		.align	2
 404              	.L26:
 405 0034 00000000 		.word	.LANCHOR3
 406 0038 00000000 		.word	USBD1
 407 003c 00000000 		.word	.LANCHOR6
 408 0040 00000000 		.word	.LANCHOR7
 409              		.cfi_endproc
 410              	.LFE330:
 411              		.size	setup_USB, .-setup_USB
 412              		.global	serusbcfg
 413              		.global	usbcfg
 414              		.global	SDU1
 415              		.section	.bss.SDU1,"aw",%nobits
 416              		.align	2
 417              		.set	.LANCHOR3,. + 0
 418              		.type	SDU1, %object
 419              		.size	SDU1, 1168
 420              	SDU1:
 421 0000 00000000 		.space	1168
 421      00000000 
 421      00000000 
 421      00000000 
 421      00000000 
 422              		.section	.bss.ep1instate,"aw",%nobits
 423              		.align	2
 424              		.type	ep1instate, %object
 425              		.size	ep1instate, 16
 426              	ep1instate:
 427 0000 00000000 		.space	16
 427      00000000 
 427      00000000 
 427      00000000 
 428              		.section	.bss.ep1outstate,"aw",%nobits
 429              		.align	2
 430              		.type	ep1outstate, %object
 431              		.size	ep1outstate, 16
 432              	ep1outstate:
 433 0000 00000000 		.space	16
 433      00000000 
 433      00000000 
 433      00000000 
 434              		.section	.bss.ep2instate,"aw",%nobits
 435              		.align	2
 436              		.type	ep2instate, %object
 437              		.size	ep2instate, 16
 438              	ep2instate:
 439 0000 00000000 		.space	16
 439      00000000 
 439      00000000 
 439      00000000 
 440              		.section	.rodata.ep1config,"a",%progbits
 441              		.align	2
 442              		.set	.LANCHOR4,. + 0
 443              		.type	ep1config, %object
ARM GAS  /tmp/ccAwkf6C.s 			page 9


 444              		.size	ep1config, 36
 445              	ep1config:
 446 0000 02000000 		.word	2
 447 0004 00000000 		.word	0
 448 0008 00000000 		.word	sduDataTransmitted
 449 000c 00000000 		.word	sduDataReceived
 450 0010 4000     		.short	64
 451 0012 4000     		.short	64
 452 0014 00000000 		.word	ep1instate
 453 0018 00000000 		.word	ep1outstate
 454 001c 0200     		.short	2
 455 001e 0000     		.space	2
 456 0020 00000000 		.word	0
 457              		.section	.rodata.ep2config,"a",%progbits
 458              		.align	2
 459              		.set	.LANCHOR5,. + 0
 460              		.type	ep2config, %object
 461              		.size	ep2config, 36
 462              	ep2config:
 463 0000 03000000 		.word	3
 464 0004 00000000 		.word	0
 465 0008 00000000 		.word	sduInterruptTransmitted
 466 000c 00000000 		.word	0
 467 0010 1000     		.short	16
 468 0012 0000     		.short	0
 469 0014 00000000 		.word	ep2instate
 470 0018 00000000 		.word	0
 471 001c 0100     		.short	1
 472 001e 0000     		.space	2
 473 0020 00000000 		.word	0
 474              		.section	.rodata.serusbcfg,"a",%progbits
 475              		.align	2
 476              		.set	.LANCHOR6,. + 0
 477              		.type	serusbcfg, %object
 478              		.size	serusbcfg, 8
 479              	serusbcfg:
 480 0000 00000000 		.word	USBD1
 481 0004 01       		.byte	1
 482 0005 01       		.byte	1
 483 0006 02       		.byte	2
 484 0007 00       		.space	1
 485              		.section	.rodata.usbcfg,"a",%progbits
 486              		.align	2
 487              		.set	.LANCHOR7,. + 0
 488              		.type	usbcfg, %object
 489              		.size	usbcfg, 16
 490              	usbcfg:
 491 0000 00000000 		.word	usb_event
 492 0004 00000000 		.word	get_descriptor
 493 0008 00000000 		.word	sduRequestsHook
 494 000c 00000000 		.word	sof_handler
 495              		.section	.rodata.vcom_configuration_descriptor,"a",%progbits
 496              		.align	2
 497              		.set	.LANCHOR1,. + 0
 498              		.type	vcom_configuration_descriptor, %object
 499              		.size	vcom_configuration_descriptor, 8
 500              	vcom_configuration_descriptor:
ARM GAS  /tmp/ccAwkf6C.s 			page 10


 501 0000 43000000 		.word	67
 502 0004 00000000 		.word	vcom_configuration_descriptor_data
 503              		.section	.rodata.vcom_configuration_descriptor_data,"a",%progbits
 504              		.align	2
 505              		.type	vcom_configuration_descriptor_data, %object
 506              		.size	vcom_configuration_descriptor_data, 67
 507              	vcom_configuration_descriptor_data:
 508 0000 09       		.byte	9
 509 0001 02       		.byte	2
 510 0002 43       		.byte	67
 511 0003 00       		.byte	0
 512 0004 02       		.byte	2
 513 0005 01       		.byte	1
 514 0006 00       		.byte	0
 515 0007 C0       		.byte	-64
 516 0008 32       		.byte	50
 517 0009 09       		.byte	9
 518 000a 04       		.byte	4
 519 000b 00       		.byte	0
 520 000c 00       		.byte	0
 521 000d 01       		.byte	1
 522 000e 02       		.byte	2
 523 000f 02       		.byte	2
 524 0010 01       		.byte	1
 525 0011 00       		.byte	0
 526 0012 05       		.byte	5
 527 0013 24       		.byte	36
 528 0014 00       		.byte	0
 529 0015 10       		.byte	16
 530 0016 01       		.byte	1
 531 0017 05       		.byte	5
 532 0018 24       		.byte	36
 533 0019 01       		.byte	1
 534 001a 00       		.byte	0
 535 001b 01       		.byte	1
 536 001c 04       		.byte	4
 537 001d 24       		.byte	36
 538 001e 02       		.byte	2
 539 001f 02       		.byte	2
 540 0020 05       		.byte	5
 541 0021 24       		.byte	36
 542 0022 06       		.byte	6
 543 0023 00       		.byte	0
 544 0024 01       		.byte	1
 545 0025 07       		.byte	7
 546 0026 05       		.byte	5
 547 0027 82       		.byte	-126
 548 0028 03       		.byte	3
 549 0029 08       		.byte	8
 550 002a 00       		.byte	0
 551 002b FF       		.byte	-1
 552 002c 09       		.byte	9
 553 002d 04       		.byte	4
 554 002e 01       		.byte	1
 555 002f 00       		.byte	0
 556 0030 02       		.byte	2
 557 0031 0A       		.byte	10
ARM GAS  /tmp/ccAwkf6C.s 			page 11


 558 0032 00       		.byte	0
 559 0033 00       		.byte	0
 560 0034 00       		.byte	0
 561 0035 07       		.byte	7
 562 0036 05       		.byte	5
 563 0037 01       		.byte	1
 564 0038 02       		.byte	2
 565 0039 40       		.byte	64
 566 003a 00       		.byte	0
 567 003b 00       		.byte	0
 568 003c 07       		.byte	7
 569 003d 05       		.byte	5
 570 003e 81       		.byte	-127
 571 003f 02       		.byte	2
 572 0040 40       		.byte	64
 573 0041 00       		.byte	0
 574 0042 00       		.byte	0
 575              		.section	.rodata.vcom_device_descriptor,"a",%progbits
 576              		.align	2
 577              		.set	.LANCHOR0,. + 0
 578              		.type	vcom_device_descriptor, %object
 579              		.size	vcom_device_descriptor, 8
 580              	vcom_device_descriptor:
 581 0000 12000000 		.word	18
 582 0004 00000000 		.word	vcom_device_descriptor_data
 583              		.section	.rodata.vcom_device_descriptor_data,"a",%progbits
 584              		.align	2
 585              		.type	vcom_device_descriptor_data, %object
 586              		.size	vcom_device_descriptor_data, 18
 587              	vcom_device_descriptor_data:
 588 0000 12       		.byte	18
 589 0001 01       		.byte	1
 590 0002 10       		.byte	16
 591 0003 01       		.byte	1
 592 0004 02       		.byte	2
 593 0005 00       		.byte	0
 594 0006 00       		.byte	0
 595 0007 40       		.byte	64
 596 0008 83       		.byte	-125
 597 0009 04       		.byte	4
 598 000a 40       		.byte	64
 599 000b 57       		.byte	87
 600 000c 00       		.byte	0
 601 000d 02       		.byte	2
 602 000e 01       		.byte	1
 603 000f 02       		.byte	2
 604 0010 03       		.byte	3
 605 0011 01       		.byte	1
 606              		.section	.rodata.vcom_string0,"a",%progbits
 607              		.align	2
 608              		.type	vcom_string0, %object
 609              		.size	vcom_string0, 4
 610              	vcom_string0:
 611 0000 04       		.byte	4
 612 0001 03       		.byte	3
 613 0002 09       		.byte	9
 614 0003 04       		.byte	4
ARM GAS  /tmp/ccAwkf6C.s 			page 12


 615              		.section	.rodata.vcom_string1,"a",%progbits
 616              		.align	2
 617              		.type	vcom_string1, %object
 618              		.size	vcom_string1, 38
 619              	vcom_string1:
 620 0000 26       		.byte	38
 621 0001 03       		.byte	3
 622 0002 53       		.byte	83
 623 0003 00       		.byte	0
 624 0004 54       		.byte	84
 625 0005 00       		.byte	0
 626 0006 4D       		.byte	77
 627 0007 00       		.byte	0
 628 0008 69       		.byte	105
 629 0009 00       		.byte	0
 630 000a 63       		.byte	99
 631 000b 00       		.byte	0
 632 000c 72       		.byte	114
 633 000d 00       		.byte	0
 634 000e 6F       		.byte	111
 635 000f 00       		.byte	0
 636 0010 65       		.byte	101
 637 0011 00       		.byte	0
 638 0012 6C       		.byte	108
 639 0013 00       		.byte	0
 640 0014 65       		.byte	101
 641 0015 00       		.byte	0
 642 0016 63       		.byte	99
 643 0017 00       		.byte	0
 644 0018 74       		.byte	116
 645 0019 00       		.byte	0
 646 001a 72       		.byte	114
 647 001b 00       		.byte	0
 648 001c 6F       		.byte	111
 649 001d 00       		.byte	0
 650 001e 6E       		.byte	110
 651 001f 00       		.byte	0
 652 0020 69       		.byte	105
 653 0021 00       		.byte	0
 654 0022 63       		.byte	99
 655 0023 00       		.byte	0
 656 0024 73       		.byte	115
 657 0025 00       		.byte	0
 658              		.section	.rodata.vcom_string2,"a",%progbits
 659              		.align	2
 660              		.type	vcom_string2, %object
 661              		.size	vcom_string2, 56
 662              	vcom_string2:
 663 0000 38       		.byte	56
 664 0001 03       		.byte	3
 665 0002 43       		.byte	67
 666 0003 00       		.byte	0
 667 0004 68       		.byte	104
 668 0005 00       		.byte	0
 669 0006 69       		.byte	105
 670 0007 00       		.byte	0
 671 0008 62       		.byte	98
ARM GAS  /tmp/ccAwkf6C.s 			page 13


 672 0009 00       		.byte	0
 673 000a 69       		.byte	105
 674 000b 00       		.byte	0
 675 000c 4F       		.byte	79
 676 000d 00       		.byte	0
 677 000e 53       		.byte	83
 678 000f 00       		.byte	0
 679 0010 2F       		.byte	47
 680 0011 00       		.byte	0
 681 0012 52       		.byte	82
 682 0013 00       		.byte	0
 683 0014 54       		.byte	84
 684 0015 00       		.byte	0
 685 0016 20       		.byte	32
 686 0017 00       		.byte	0
 687 0018 56       		.byte	86
 688 0019 00       		.byte	0
 689 001a 69       		.byte	105
 690 001b 00       		.byte	0
 691 001c 72       		.byte	114
 692 001d 00       		.byte	0
 693 001e 74       		.byte	116
 694 001f 00       		.byte	0
 695 0020 75       		.byte	117
 696 0021 00       		.byte	0
 697 0022 61       		.byte	97
 698 0023 00       		.byte	0
 699 0024 6C       		.byte	108
 700 0025 00       		.byte	0
 701 0026 20       		.byte	32
 702 0027 00       		.byte	0
 703 0028 43       		.byte	67
 704 0029 00       		.byte	0
 705 002a 4F       		.byte	79
 706 002b 00       		.byte	0
 707 002c 4D       		.byte	77
 708 002d 00       		.byte	0
 709 002e 20       		.byte	32
 710 002f 00       		.byte	0
 711 0030 50       		.byte	80
 712 0031 00       		.byte	0
 713 0032 6F       		.byte	111
 714 0033 00       		.byte	0
 715 0034 72       		.byte	114
 716 0035 00       		.byte	0
 717 0036 74       		.byte	116
 718 0037 00       		.byte	0
 719              		.section	.rodata.vcom_string3,"a",%progbits
 720              		.align	2
 721              		.type	vcom_string3, %object
 722              		.size	vcom_string3, 8
 723              	vcom_string3:
 724 0000 08       		.byte	8
 725 0001 03       		.byte	3
 726 0002 36       		.byte	54
 727 0003 00       		.byte	0
 728 0004 30       		.byte	48
ARM GAS  /tmp/ccAwkf6C.s 			page 14


 729 0005 00       		.byte	0
 730 0006 30       		.byte	48
 731 0007 00       		.byte	0
 732              		.section	.rodata.vcom_strings,"a",%progbits
 733              		.align	2
 734              		.set	.LANCHOR2,. + 0
 735              		.type	vcom_strings, %object
 736              		.size	vcom_strings, 32
 737              	vcom_strings:
 738 0000 04000000 		.word	4
 739 0004 00000000 		.word	vcom_string0
 740 0008 26000000 		.word	38
 741 000c 00000000 		.word	vcom_string1
 742 0010 38000000 		.word	56
 743 0014 00000000 		.word	vcom_string2
 744 0018 08000000 		.word	8
 745 001c 00000000 		.word	vcom_string3
 746              		.text
 747              	.Letext0:
 748              		.file 3 "/usr/lib/gcc/arm-none-eabi/7.3.1/include/stddef.h"
 749              		.file 4 "/usr/arm-none-eabi/include/machine/_default_types.h"
 750              		.file 5 "/usr/arm-none-eabi/include/sys/_stdint.h"
 751              		.file 6 "./RM18A-ChibiOS18-Core/chibios/os/common/ports/ARMCMx/compilers/GCC/chtypes.h"
 752              		.file 7 "./RM18A-ChibiOS18-Core/chibios/os/rt/include/chsystypes.h"
 753              		.file 8 "./RM18A-ChibiOS18-Core/chibios/os/rt/include/chschd.h"
 754              		.file 9 "./RM18A-ChibiOS18-Core/chibios/os/rt/include/chtime.h"
 755              		.file 10 "./RM18A-ChibiOS18-Core/chibios/os/common/ext/ARM/CMSIS/Core/Include/core_cm4.h"
 756              		.file 11 "./RM18A-ChibiOS18-Core/chibios/os/common/ext/ST/STM32F4xx/system_stm32f4xx.h"
 757              		.file 12 "./RM18A-ChibiOS18-Core/chibios/os/common/ext/ST/STM32F4xx/stm32f427xx.h"
 758              		.file 13 "./RM18A-ChibiOS18-Core/chibios/os/common/ports/ARMCMx/chcore.h"
 759              		.file 14 "./RM18A-ChibiOS18-Core/chibios/os/common/ports/ARMCMx/chcore_v7m.h"
 760              		.file 15 "./RM18A-ChibiOS18-Core/chibios/os/hal/ports/STM32/LLD/TIMv1/stm32_tim.h"
 761              		.file 16 "./RM18A-ChibiOS18-Core/chibios/os/rt/include/chtm.h"
 762              		.file 17 "./RM18A-ChibiOS18-Core/chibios/os/rt/include/chsem.h"
 763              		.file 18 "./RM18A-ChibiOS18-Core/chibios/os/rt/include/chmtx.h"
 764              		.file 19 "./RM18A-ChibiOS18-Core/chibios/os/rt/include/chsys.h"
 765              		.file 20 "./RM18A-ChibiOS18-Core/chibios/os/rt/include/chregistry.h"
 766              		.file 21 "./RM18A-ChibiOS18-Core/chibios/os/rt/include/chevents.h"
 767              		.file 22 "./RM18A-ChibiOS18-Core/chibios/os/oslib/include/chmemcore.h"
 768              		.file 23 "./RM18A-ChibiOS18-Core/chibios/os/oslib/include/chmempools.h"
 769              		.file 24 "./RM18A-ChibiOS18-Core/chibios/os/oslib/include/chfactory.h"
 770              		.file 25 "./RM18A-ChibiOS18-Core/chibios/os/hal/ports/STM32/LLD/DMAv2/stm32_dma.h"
 771              		.file 26 "./RM18A-ChibiOS18-Core/chibios/os/hal/include/hal_buffers.h"
 772              		.file 27 "./RM18A-ChibiOS18-Core/chibios/os/hal/include/hal_queues.h"
 773              		.file 28 "./RM18A-ChibiOS18-Core/chibios/os/hal/include/hal_pal.h"
 774              		.file 29 "./RM18A-ChibiOS18-Core/chibios/os/hal/ports/STM32/LLD/GPIOv2/hal_pal_lld.h"
 775              		.file 30 "./RM18A-ChibiOS18-Core/chibios/os/hal/include/hal_adc.h"
 776              		.file 31 "./RM18A-ChibiOS18-Core/chibios/os/hal/ports/STM32/LLD/ADCv2/hal_adc_lld.h"
 777              		.file 32 "./RM18A-ChibiOS18-Core/chibios/os/hal/include/hal_can.h"
 778              		.file 33 "./RM18A-ChibiOS18-Core/chibios/os/hal/ports/STM32/LLD/CANv1/hal_can_lld.h"
 779              		.file 34 "./RM18A-ChibiOS18-Core/chibios/os/hal/include/hal_icu.h"
 780              		.file 35 "./RM18A-ChibiOS18-Core/chibios/os/hal/ports/STM32/LLD/TIMv1/hal_icu_lld.h"
 781              		.file 36 "./RM18A-ChibiOS18-Core/chibios/os/hal/include/hal_pwm.h"
 782              		.file 37 "./RM18A-ChibiOS18-Core/chibios/os/hal/ports/STM32/LLD/TIMv1/hal_pwm_lld.h"
 783              		.file 38 "./RM18A-ChibiOS18-Core/chibios/os/hal/include/hal_serial.h"
 784              		.file 39 "./RM18A-ChibiOS18-Core/chibios/os/hal/ports/STM32/LLD/USARTv1/hal_serial_lld.h"
 785              		.file 40 "./RM18A-ChibiOS18-Core/chibios/os/hal/include/hal_spi.h"
ARM GAS  /tmp/ccAwkf6C.s 			page 15


 786              		.file 41 "./RM18A-ChibiOS18-Core/chibios/os/hal/ports/STM32/LLD/SPIv1/hal_spi_lld.h"
 787              		.file 42 "./RM18A-ChibiOS18-Core/chibios/os/hal/include/hal_uart.h"
 788              		.file 43 "./RM18A-ChibiOS18-Core/chibios/os/hal/ports/STM32/LLD/USARTv1/hal_uart_lld.h"
 789              		.file 44 "./RM18A-ChibiOS18-Core/chibios/os/hal/include/hal_usb.h"
 790              		.file 45 "./RM18A-ChibiOS18-Core/chibios/os/hal/ports/STM32/LLD/OTGv1/hal_usb_lld.h"
 791              		.file 46 "./RM18A-ChibiOS18-Core/chibios/os/hal/ports/STM32/LLD/OTGv1/stm32_otg.h"
 792              		.file 47 "./RM18A-ChibiOS18-Core/chibios/os/hal/include/hal_serial_usb.h"
 793              		.file 48 "./RM18A-ChibiOS18-Core/src/peripherals/usbcfg.h"
 794              		.file 49 "./RM18A-ChibiOS18-Core/chibios/os/hal/osal/rt/osal.h"