ARM GAS  /tmp/ccB6TMt4.s 			page 1


   1              		.cpu cortex-m4
   2              		.eabi_attribute 27, 1
   3              		.eabi_attribute 28, 1
   4              		.eabi_attribute 20, 1
   5              		.eabi_attribute 21, 1
   6              		.eabi_attribute 23, 3
   7              		.eabi_attribute 24, 1
   8              		.eabi_attribute 25, 1
   9              		.eabi_attribute 26, 1
  10              		.eabi_attribute 30, 2
  11              		.eabi_attribute 34, 1
  12              		.eabi_attribute 18, 4
  13              		.file	"vl6180x.c"
  14              		.text
  15              	.Ltext0:
  16              		.cfi_sections	.debug_frame
  17              		.section	.text.vl6180x_thd,"ax",%progbits
  18              		.align	1
  19              		.p2align 2,,3
  20              		.global	vl6180x_thd
  21              		.syntax unified
  22              		.thumb
  23              		.thumb_func
  24              		.fpu fpv4-sp-d16
  25              		.type	vl6180x_thd, %function
  26              	vl6180x_thd:
  27              	.LFB334:
  28              		.file 1 "./RM18A-ChibiOS18-Core/src/ext_hw/vl6180x.c"
  29              		.loc 1 217 0
  30              		.cfi_startproc
  31              		@ args = 0, pretend = 0, frame = 8
  32              		@ frame_needed = 0, uses_anonymous_args = 0
  33              	.LVL0:
  34 0000 2DE9F04F 		push	{r4, r5, r6, r7, r8, r9, r10, fp, lr}
  35              		.cfi_def_cfa_offset 36
  36              		.cfi_offset 4, -36
  37              		.cfi_offset 5, -32
  38              		.cfi_offset 6, -28
  39              		.cfi_offset 7, -24
  40              		.cfi_offset 8, -20
  41              		.cfi_offset 9, -16
  42              		.cfi_offset 10, -12
  43              		.cfi_offset 11, -8
  44              		.cfi_offset 14, -4
  45              	.LBB35:
  46              	.LBB36:
  47              	.LBB37:
  48              	.LBB38:
  49              		.file 2 "./RM18A-ChibiOS18-Core/chibios/os/rt/include/chthreads.h"
  50              		.loc 2 274 0
  51 0004 DFF800B1 		ldr	fp, .L22
  52              	.LBE38:
  53              	.LBE37:
  54              		.loc 2 347 0
  55 0008 DBF81830 		ldr	r3, [fp, #24]
  56              	.LBE36:
  57              	.LBE35:
ARM GAS  /tmp/ccB6TMt4.s 			page 2


  58              		.loc 1 218 0
  59 000c 93F82130 		ldrb	r3, [r3, #33]	@ zero_extendqisi2
  60 0010 5C07     		lsls	r4, r3, #29
  61              		.loc 1 217 0
  62 0012 87B0     		sub	sp, sp, #28
  63              		.cfi_def_cfa_offset 64
  64              		.loc 1 218 0
  65 0014 74D4     		bmi	.L1
  66 0016 A0F1080A 		sub	r10, r0, #8
  67              	.LBB40:
  68              	.LBB41:
  69              	.LBB42:
  70              	.LBB43:
  71              	.LBB44:
  72              		.loc 1 31 0
  73 001a 4FF49E49 		mov	r9, #20224
  74              		.loc 1 33 0
  75 001e 4FF0FF37 		mov	r7, #-1
  76              	.LVL1:
  77              	.L10:
  78 0022 5446     		mov	r4, r10
  79 0024 4FF00108 		mov	r8, #1
  80              	.LBE44:
  81              	.LBE43:
  82              	.LBE42:
  83              	.LBE41:
  84              		.loc 1 221 0
  85 0028 36E0     		b	.L3
  86              	.LVL2:
  87              	.L21:
  88              	.LBB59:
  89              	.LBB57:
  90              		.loc 1 148 0
  91 002a 032B     		cmp	r3, #3
  92 002c 33D1     		bne	.L4
  93 002e 05AD     		add	r5, sp, #20
  94 0030 0DF11306 		add	r6, sp, #19
  95              	.L6:
  96              	.LVL3:
  97              	.LBB46:
  98              	.LBB45:
  99              		.loc 1 33 0
 100 0034 A068     		ldr	r0, [r4, #8]
 101 0036 0096     		str	r6, [sp]
 102 0038 0223     		movs	r3, #2
 103 003a 2A46     		mov	r2, r5
 104 003c CDE90187 		strd	r8, r7, [sp, #4]
 105              		.loc 1 31 0
 106 0040 ADF81490 		strh	r9, [sp, #20]	@ movhi
 107              		.loc 1 33 0
 108 0044 FFF7FEFF 		bl	i2cMasterTransmitTimeout
 109              	.LVL4:
 110              		.loc 1 34 0
 111 0048 9DF81330 		ldrb	r3, [sp, #19]	@ zero_extendqisi2
 112              	.LVL5:
 113              	.LBE45:
 114              	.LBE46:
ARM GAS  /tmp/ccB6TMt4.s 			page 3


 115              		.loc 1 161 0
 116 004c 5A07     		lsls	r2, r3, #29
 117 004e 22D5     		bpl	.L4
 118              	.LVL6:
 119              	.LBB47:
 120              	.LBB48:
 121              	.LBB49:
 122              	.LBB50:
 123              		.loc 1 33 0
 124 0050 217B     		ldrb	r1, [r4, #12]	@ zero_extendqisi2
 125 0052 A068     		ldr	r0, [r4, #8]
 126 0054 0096     		str	r6, [sp]
 127 0056 2A46     		mov	r2, r5
 128              		.loc 1 31 0
 129 0058 4FF4C446 		mov	r6, #25088
 130              		.loc 1 33 0
 131 005c 0223     		movs	r3, #2
 132 005e CDE90187 		strd	r8, r7, [sp, #4]
 133              		.loc 1 31 0
 134 0062 ADF81460 		strh	r6, [sp, #20]	@ movhi
 135              		.loc 1 33 0
 136 0066 FFF7FEFF 		bl	i2cMasterTransmitTimeout
 137              	.LVL7:
 138              		.loc 1 34 0
 139 006a 9DF81330 		ldrb	r3, [sp, #19]	@ zero_extendqisi2
 140              	.LVL8:
 141              	.LBE50:
 142              	.LBE49:
 143              		.loc 1 164 0
 144 006e A373     		strb	r3, [r4, #14]
 145              	.LVL9:
 146              	.LBB51:
 147              	.LBB52:
 148              		.loc 1 25 0
 149 0070 0023     		movs	r3, #0
 150 0072 217B     		ldrb	r1, [r4, #12]	@ zero_extendqisi2
 151 0074 A068     		ldr	r0, [r4, #8]
 152 0076 0093     		str	r3, [sp]
 153 0078 2A46     		mov	r2, r5
 154 007a CDE90137 		strd	r3, r7, [sp, #4]
 155              		.loc 1 23 0
 156 007e 4FF4A856 		mov	r6, #5376
 157              		.loc 1 25 0
 158 0082 0323     		movs	r3, #3
 159              		.loc 1 23 0
 160 0084 0725     		movs	r5, #7
 161 0086 ADF81460 		strh	r6, [sp, #20]	@ movhi
 162 008a 8DF81650 		strb	r5, [sp, #22]
 163              		.loc 1 25 0
 164 008e FFF7FEFF 		bl	i2cMasterTransmitTimeout
 165              	.LVL10:
 166              	.LBE52:
 167              	.LBE51:
 168              		.loc 1 166 0
 169 0092 0223     		movs	r3, #2
 170 0094 6373     		strb	r3, [r4, #13]
 171              	.LVL11:
ARM GAS  /tmp/ccB6TMt4.s 			page 4


 172              	.L4:
 173 0096 0834     		adds	r4, r4, #8
 174              	.LVL12:
 175              	.L3:
 176              	.LBE48:
 177              	.LBE47:
 178              	.LBE57:
 179              	.LBE59:
 180              		.loc 1 221 0
 181 0098 217B     		ldrb	r1, [r4, #12]	@ zero_extendqisi2
 182 009a 41B3     		cbz	r1, .L20
 183              	.LBB60:
 184              	.LBB58:
 185              		.loc 1 148 0
 186 009c 637B     		ldrb	r3, [r4, #13]	@ zero_extendqisi2
 187 009e 022B     		cmp	r3, #2
 188 00a0 C3D1     		bne	.L21
 189              	.LVL13:
 190              	.LBB53:
 191              	.LBB54:
 192              		.loc 1 31 0
 193 00a2 06AD     		add	r5, sp, #24
 194 00a4 4FF49A42 		mov	r2, #19712
 195 00a8 25F8042D 		strh	r2, [r5, #-4]!	@ movhi
 196              		.loc 1 33 0
 197 00ac 0DF11306 		add	r6, sp, #19
 198 00b0 A068     		ldr	r0, [r4, #8]
 199 00b2 0297     		str	r7, [sp, #8]
 200 00b4 2A46     		mov	r2, r5
 201 00b6 CDE90068 		strd	r6, r8, [sp]
 202 00ba FFF7FEFF 		bl	i2cMasterTransmitTimeout
 203              	.LVL14:
 204              		.loc 1 34 0
 205 00be 9DF81330 		ldrb	r3, [sp, #19]	@ zero_extendqisi2
 206              	.LVL15:
 207              	.LBE54:
 208              	.LBE53:
 209              		.loc 1 152 0
 210 00c2 D907     		lsls	r1, r3, #31
 211 00c4 E7D5     		bpl	.L4
 212              	.LVL16:
 213              	.LBB55:
 214              	.LBB56:
 215              		.loc 1 25 0
 216 00c6 0023     		movs	r3, #0
 217 00c8 217B     		ldrb	r1, [r4, #12]	@ zero_extendqisi2
 218 00ca A068     		ldr	r0, [r4, #8]
 219 00cc 0297     		str	r7, [sp, #8]
 220 00ce CDE90033 		strd	r3, r3, [sp]
 221              		.loc 1 23 0
 222 00d2 4FF4C05C 		mov	ip, #6144
 223              		.loc 1 25 0
 224 00d6 0323     		movs	r3, #3
 225 00d8 2A46     		mov	r2, r5
 226              		.loc 1 23 0
 227 00da 8DF81680 		strb	r8, [sp, #22]
 228 00de ADF814C0 		strh	ip, [sp, #20]	@ movhi
ARM GAS  /tmp/ccB6TMt4.s 			page 5


 229              		.loc 1 25 0
 230 00e2 FFF7FEFF 		bl	i2cMasterTransmitTimeout
 231              	.LVL17:
 232              	.LBE56:
 233              	.LBE55:
 234              		.loc 1 156 0
 235 00e6 0323     		movs	r3, #3
 236 00e8 217B     		ldrb	r1, [r4, #12]	@ zero_extendqisi2
 237 00ea 6373     		strb	r3, [r4, #13]
 238 00ec A2E7     		b	.L6
 239              	.L20:
 240              	.LBE58:
 241              	.LBE60:
 242              	.LBB61:
 243              	.LBB62:
 244              		.loc 1 39 0
 245 00ee 0A20     		movs	r0, #10
 246 00f0 FFF7FEFF 		bl	chThdSleep
 247              	.LVL18:
 248              	.LBE62:
 249              	.LBE61:
 250              	.LBE40:
 251              	.LBB63:
 252              	.LBB39:
 253              		.loc 2 347 0
 254 00f4 DBF81830 		ldr	r3, [fp, #24]
 255              	.LBE39:
 256              	.LBE63:
 257              		.loc 1 218 0
 258 00f8 93F82130 		ldrb	r3, [r3, #33]	@ zero_extendqisi2
 259 00fc 5B07     		lsls	r3, r3, #29
 260 00fe 90D5     		bpl	.L10
 261              	.LVL19:
 262              	.L1:
 263              		.loc 1 227 0
 264 0100 07B0     		add	sp, sp, #28
 265              		.cfi_def_cfa_offset 36
 266              		@ sp needed
 267 0102 BDE8F08F 		pop	{r4, r5, r6, r7, r8, r9, r10, fp, pc}
 268              	.L23:
 269 0106 00BF     		.align	2
 270              	.L22:
 271 0108 00000000 		.word	ch
 272              		.cfi_endproc
 273              	.LFE334:
 274              		.size	vl6180x_thd, .-vl6180x_thd
 275              		.section	.text.vl6180x_write_register,"ax",%progbits
 276              		.align	1
 277              		.p2align 2,,3
 278              		.global	vl6180x_write_register
 279              		.syntax unified
 280              		.thumb
 281              		.thumb_func
 282              		.fpu fpv4-sp-d16
 283              		.type	vl6180x_write_register, %function
 284              	vl6180x_write_register:
 285              	.LFB327:
ARM GAS  /tmp/ccB6TMt4.s 			page 6


 286              		.loc 1 22 0
 287              		.cfi_startproc
 288              		@ args = 0, pretend = 0, frame = 8
 289              		@ frame_needed = 0, uses_anonymous_args = 0
 290              	.LVL20:
 291 0000 30B5     		push	{r4, r5, lr}
 292              		.cfi_def_cfa_offset 12
 293              		.cfi_offset 4, -12
 294              		.cfi_offset 5, -8
 295              		.cfi_offset 14, -4
 296 0002 87B0     		sub	sp, sp, #28
 297              		.cfi_def_cfa_offset 40
 298              		.loc 1 22 0
 299 0004 0C46     		mov	r4, r1
 300              		.loc 1 23 0
 301 0006 8DF81620 		strb	r2, [sp, #22]
 302              		.loc 1 25 0
 303 000a 0023     		movs	r3, #0
 304 000c 4FF0FF32 		mov	r2, #-1
 305              	.LVL21:
 306 0010 0179     		ldrb	r1, [r0, #4]	@ zero_extendqisi2
 307              	.LVL22:
 308 0012 0068     		ldr	r0, [r0]
 309              	.LVL23:
 310 0014 0292     		str	r2, [sp, #8]
 311 0016 CDE90033 		strd	r3, r3, [sp]
 312              		.loc 1 23 0
 313 001a 250A     		lsrs	r5, r4, #8
 314              		.loc 1 25 0
 315 001c 0323     		movs	r3, #3
 316 001e 05AA     		add	r2, sp, #20
 317              		.loc 1 23 0
 318 0020 8DF81540 		strb	r4, [sp, #21]
 319 0024 8DF81450 		strb	r5, [sp, #20]
 320              		.loc 1 25 0
 321 0028 FFF7FEFF 		bl	i2cMasterTransmitTimeout
 322              	.LVL24:
 323              		.loc 1 26 0
 324 002c 07B0     		add	sp, sp, #28
 325              		.cfi_def_cfa_offset 12
 326              		@ sp needed
 327 002e 30BD     		pop	{r4, r5, pc}
 328              		.cfi_endproc
 329              	.LFE327:
 330              		.size	vl6180x_write_register, .-vl6180x_write_register
 331              		.section	.text.vl6180x_read_register,"ax",%progbits
 332              		.align	1
 333              		.p2align 2,,3
 334              		.global	vl6180x_read_register
 335              		.syntax unified
 336              		.thumb
 337              		.thumb_func
 338              		.fpu fpv4-sp-d16
 339              		.type	vl6180x_read_register, %function
 340              	vl6180x_read_register:
 341              	.LFB328:
 342              		.loc 1 29 0
ARM GAS  /tmp/ccB6TMt4.s 			page 7


 343              		.cfi_startproc
 344              		@ args = 0, pretend = 0, frame = 8
 345              		@ frame_needed = 0, uses_anonymous_args = 0
 346              	.LVL25:
 347 0000 70B5     		push	{r4, r5, r6, lr}
 348              		.cfi_def_cfa_offset 16
 349              		.cfi_offset 4, -16
 350              		.cfi_offset 5, -12
 351              		.cfi_offset 6, -8
 352              		.cfi_offset 14, -4
 353 0002 86B0     		sub	sp, sp, #24
 354              		.cfi_def_cfa_offset 40
 355              		.loc 1 29 0
 356 0004 0C46     		mov	r4, r1
 357              		.loc 1 33 0
 358 0006 0DF11302 		add	r2, sp, #19
 359 000a 4FF0FF36 		mov	r6, #-1
 360 000e 0125     		movs	r5, #1
 361 0010 0179     		ldrb	r1, [r0, #4]	@ zero_extendqisi2
 362              	.LVL26:
 363              		.loc 1 31 0
 364 0012 8DF81540 		strb	r4, [sp, #21]
 365              		.loc 1 33 0
 366 0016 0068     		ldr	r0, [r0]
 367              	.LVL27:
 368 0018 0092     		str	r2, [sp]
 369              		.loc 1 31 0
 370 001a 240A     		lsrs	r4, r4, #8
 371              		.loc 1 33 0
 372 001c CDE90156 		strd	r5, r6, [sp, #4]
 373 0020 0223     		movs	r3, #2
 374 0022 05AA     		add	r2, sp, #20
 375              		.loc 1 31 0
 376 0024 8DF81440 		strb	r4, [sp, #20]
 377              		.loc 1 33 0
 378 0028 FFF7FEFF 		bl	i2cMasterTransmitTimeout
 379              	.LVL28:
 380              		.loc 1 35 0
 381 002c 9DF81300 		ldrb	r0, [sp, #19]	@ zero_extendqisi2
 382 0030 06B0     		add	sp, sp, #24
 383              		.cfi_def_cfa_offset 16
 384              		@ sp needed
 385 0032 70BD     		pop	{r4, r5, r6, pc}
 386              		.cfi_endproc
 387              	.LFE328:
 388              		.size	vl6180x_read_register, .-vl6180x_read_register
 389              		.section	.text.vl6180x_polling_delay,"ax",%progbits
 390              		.align	1
 391              		.p2align 2,,3
 392              		.global	vl6180x_polling_delay
 393              		.syntax unified
 394              		.thumb
 395              		.thumb_func
 396              		.fpu fpv4-sp-d16
 397              		.type	vl6180x_polling_delay, %function
 398              	vl6180x_polling_delay:
 399              	.LFB329:
ARM GAS  /tmp/ccB6TMt4.s 			page 8


 400              		.loc 1 38 0
 401              		.cfi_startproc
 402              		@ args = 0, pretend = 0, frame = 0
 403              		@ frame_needed = 0, uses_anonymous_args = 0
 404              		@ link register save eliminated.
 405              		.loc 1 39 0
 406 0000 0A20     		movs	r0, #10
 407 0002 FFF7FEBF 		b	chThdSleep
 408              	.LVL29:
 409              		.cfi_endproc
 410              	.LFE329:
 411              		.size	vl6180x_polling_delay, .-vl6180x_polling_delay
 412 0006 00BF     		.section	.text.vl6180x_ping,"ax",%progbits
 413              		.align	1
 414              		.p2align 2,,3
 415              		.global	vl6180x_ping
 416              		.syntax unified
 417              		.thumb
 418              		.thumb_func
 419              		.fpu fpv4-sp-d16
 420              		.type	vl6180x_ping, %function
 421              	vl6180x_ping:
 422              	.LFB330:
 423              		.loc 1 50 0
 424              		.cfi_startproc
 425              		@ args = 0, pretend = 0, frame = 8
 426              		@ frame_needed = 0, uses_anonymous_args = 0
 427              	.LVL30:
 428 0000 30B5     		push	{r4, r5, lr}
 429              		.cfi_def_cfa_offset 12
 430              		.cfi_offset 4, -12
 431              		.cfi_offset 5, -8
 432              		.cfi_offset 14, -4
 433 0002 87B0     		sub	sp, sp, #28
 434              		.cfi_def_cfa_offset 40
 435              	.LBB66:
 436              	.LBB67:
 437              		.loc 1 31 0
 438 0004 06AA     		add	r2, sp, #24
 439 0006 0023     		movs	r3, #0
 440 0008 22F8043D 		strh	r3, [r2, #-4]!	@ movhi
 441              		.loc 1 33 0
 442 000c 4FF0FF35 		mov	r5, #-1
 443 0010 0DF11303 		add	r3, sp, #19
 444 0014 0124     		movs	r4, #1
 445 0016 0179     		ldrb	r1, [r0, #4]	@ zero_extendqisi2
 446 0018 0068     		ldr	r0, [r0]
 447              	.LVL31:
 448 001a 0093     		str	r3, [sp]
 449 001c CDE90145 		strd	r4, r5, [sp, #4]
 450 0020 0223     		movs	r3, #2
 451 0022 FFF7FEFF 		bl	i2cMasterTransmitTimeout
 452              	.LVL32:
 453              		.loc 1 34 0
 454 0026 9DF81300 		ldrb	r0, [sp, #19]	@ zero_extendqisi2
 455              	.LVL33:
 456              	.LBE67:
ARM GAS  /tmp/ccB6TMt4.s 			page 9


 457              	.LBE66:
 458              		.loc 1 60 0
 459 002a A0F1B400 		sub	r0, #180
 460 002e B0FA80F0 		clz	r0, r0
 461 0032 4009     		lsrs	r0, r0, #5
 462 0034 07B0     		add	sp, sp, #28
 463              		.cfi_def_cfa_offset 12
 464              		@ sp needed
 465 0036 30BD     		pop	{r4, r5, pc}
 466              		.cfi_endproc
 467              	.LFE330:
 468              		.size	vl6180x_ping, .-vl6180x_ping
 469              		.section	.text.vl6180x_configure_single,"ax",%progbits
 470              		.align	1
 471              		.p2align 2,,3
 472              		.global	vl6180x_configure_single
 473              		.syntax unified
 474              		.thumb
 475              		.thumb_func
 476              		.fpu fpv4-sp-d16
 477              		.type	vl6180x_configure_single, %function
 478              	vl6180x_configure_single:
 479              	.LFB331:
 480              		.loc 1 70 0
 481              		.cfi_startproc
 482              		@ args = 0, pretend = 0, frame = 8
 483              		@ frame_needed = 0, uses_anonymous_args = 0
 484              	.LVL34:
 485 0000 2DE9F043 		push	{r4, r5, r6, r7, r8, r9, lr}
 486              		.cfi_def_cfa_offset 28
 487              		.cfi_offset 4, -28
 488              		.cfi_offset 5, -24
 489              		.cfi_offset 6, -20
 490              		.cfi_offset 7, -16
 491              		.cfi_offset 8, -12
 492              		.cfi_offset 9, -8
 493              		.cfi_offset 14, -4
 494 0004 87B0     		sub	sp, sp, #28
 495              		.cfi_def_cfa_offset 56
 496              	.LBB72:
 497              	.LBB73:
 498              		.loc 1 23 0
 499 0006 0025     		movs	r5, #0
 500              		.loc 1 25 0
 501 0008 4FF0FF37 		mov	r7, #-1
 502 000c 0179     		ldrb	r1, [r0, #4]	@ zero_extendqisi2
 503              		.loc 1 23 0
 504 000e 8DF81650 		strb	r5, [sp, #22]
 505 0012 4FF4B054 		mov	r4, #5632
 506              	.LBE73:
 507              	.LBE72:
 508              		.loc 1 70 0
 509 0016 0646     		mov	r6, r0
 510              	.LVL35:
 511              	.LBB75:
 512              	.LBB74:
 513              		.loc 1 25 0
ARM GAS  /tmp/ccB6TMt4.s 			page 10


 514 0018 05AA     		add	r2, sp, #20
 515 001a 0068     		ldr	r0, [r0]
 516              	.LVL36:
 517 001c 0195     		str	r5, [sp, #4]
 518 001e 0095     		str	r5, [sp]
 519 0020 0297     		str	r7, [sp, #8]
 520 0022 0323     		movs	r3, #3
 521              		.loc 1 23 0
 522 0024 ADF81440 		strh	r4, [sp, #20]	@ movhi
 523 0028 0F4C     		ldr	r4, .L35
 524              		.loc 1 25 0
 525 002a FFF7FEFF 		bl	i2cMasterTransmitTimeout
 526              	.LVL37:
 527              	.LBE74:
 528              	.LBE75:
 529              	.LBB76:
 530              	.LBB77:
 531 002e B846     		mov	r8, r7
 532 0030 04F19409 		add	r9, r4, #148
 533              	.LVL38:
 534              	.L32:
 535              	.LBE77:
 536              	.LBE76:
 537              		.loc 1 134 0 discriminator 3
 538 0034 2388     		ldrh	r3, [r4]
 539              	.LBB80:
 540              	.LBB78:
 541              		.loc 1 25 0 discriminator 3
 542 0036 3179     		ldrb	r1, [r6, #4]	@ zero_extendqisi2
 543 0038 3068     		ldr	r0, [r6]
 544 003a 0095     		str	r5, [sp]
 545 003c CDE90158 		strd	r5, r8, [sp, #4]
 546              		.loc 1 23 0 discriminator 3
 547 0040 4FEA132C 		lsr	ip, r3, #8
 548              	.LBE78:
 549              	.LBE80:
 550              		.loc 1 134 0 discriminator 3
 551 0044 A778     		ldrb	r7, [r4, #2]	@ zero_extendqisi2
 552              	.LVL39:
 553              	.LBB81:
 554              	.LBB79:
 555              		.loc 1 23 0 discriminator 3
 556 0046 8DF81530 		strb	r3, [sp, #21]
 557 004a 0434     		adds	r4, r4, #4
 558              		.loc 1 25 0 discriminator 3
 559 004c 0323     		movs	r3, #3
 560              	.LVL40:
 561 004e 05AA     		add	r2, sp, #20
 562              		.loc 1 23 0 discriminator 3
 563 0050 8DF814C0 		strb	ip, [sp, #20]
 564 0054 8DF81670 		strb	r7, [sp, #22]
 565              		.loc 1 25 0 discriminator 3
 566 0058 FFF7FEFF 		bl	i2cMasterTransmitTimeout
 567              	.LVL41:
 568              	.LBE79:
 569              	.LBE81:
 570              		.loc 1 132 0 discriminator 3
ARM GAS  /tmp/ccB6TMt4.s 			page 11


 571 005c A145     		cmp	r9, r4
 572 005e E9D1     		bne	.L32
 573              		.loc 1 136 0
 574 0060 07B0     		add	sp, sp, #28
 575              		.cfi_def_cfa_offset 28
 576              		@ sp needed
 577 0062 BDE8F083 		pop	{r4, r5, r6, r7, r8, r9, pc}
 578              	.LVL42:
 579              	.L36:
 580 0066 00BF     		.align	2
 581              	.L35:
 582 0068 00000000 		.word	.LANCHOR0
 583              		.cfi_endproc
 584              	.LFE331:
 585              		.size	vl6180x_configure_single, .-vl6180x_configure_single
 586              		.section	.text.vl6180x_measure_single,"ax",%progbits
 587              		.align	1
 588              		.p2align 2,,3
 589              		.global	vl6180x_measure_single
 590              		.syntax unified
 591              		.thumb
 592              		.thumb_func
 593              		.fpu fpv4-sp-d16
 594              		.type	vl6180x_measure_single, %function
 595              	vl6180x_measure_single:
 596              	.LFB332:
 597              		.loc 1 147 0
 598              		.cfi_startproc
 599              		@ args = 0, pretend = 0, frame = 8
 600              		@ frame_needed = 0, uses_anonymous_args = 0
 601              	.LVL43:
 602 0000 2DE9F041 		push	{r4, r5, r6, r7, r8, lr}
 603              		.cfi_def_cfa_offset 24
 604              		.cfi_offset 4, -24
 605              		.cfi_offset 5, -20
 606              		.cfi_offset 6, -16
 607              		.cfi_offset 7, -12
 608              		.cfi_offset 8, -8
 609              		.cfi_offset 14, -4
 610              		.loc 1 148 0
 611 0004 4379     		ldrb	r3, [r0, #5]	@ zero_extendqisi2
 612 0006 022B     		cmp	r3, #2
 613              		.loc 1 147 0
 614 0008 86B0     		sub	sp, sp, #24
 615              		.cfi_def_cfa_offset 48
 616              		.loc 1 147 0
 617 000a 0446     		mov	r4, r0
 618              		.loc 1 148 0
 619 000c 1CD0     		beq	.L39
 620 000e 032B     		cmp	r3, #3
 621 0010 17D1     		bne	.L37
 622 0012 05AD     		add	r5, sp, #20
 623 0014 0DF11306 		add	r6, sp, #19
 624              	.LVL44:
 625              	.L40:
 626              	.LBB94:
 627              	.LBB95:
ARM GAS  /tmp/ccB6TMt4.s 			page 12


 628              		.loc 1 33 0
 629 0018 4FF00108 		mov	r8, #1
 630 001c 4FF0FF37 		mov	r7, #-1
 631 0020 2179     		ldrb	r1, [r4, #4]	@ zero_extendqisi2
 632 0022 2068     		ldr	r0, [r4]
 633 0024 0096     		str	r6, [sp]
 634              		.loc 1 31 0
 635 0026 4FF49E4C 		mov	ip, #20224
 636              		.loc 1 33 0
 637 002a 0223     		movs	r3, #2
 638 002c CDE90187 		strd	r8, r7, [sp, #4]
 639 0030 2A46     		mov	r2, r5
 640              		.loc 1 31 0
 641 0032 ADF814C0 		strh	ip, [sp, #20]	@ movhi
 642              		.loc 1 33 0
 643 0036 FFF7FEFF 		bl	i2cMasterTransmitTimeout
 644              	.LVL45:
 645              		.loc 1 34 0
 646 003a 9DF81330 		ldrb	r3, [sp, #19]	@ zero_extendqisi2
 647              	.LVL46:
 648              	.LBE95:
 649              	.LBE94:
 650              		.loc 1 161 0
 651 003e 5B07     		lsls	r3, r3, #29
 652 0040 2CD4     		bmi	.L49
 653              	.L37:
 654              		.loc 1 168 0
 655 0042 06B0     		add	sp, sp, #24
 656              		.cfi_remember_state
 657              		.cfi_def_cfa_offset 24
 658              		@ sp needed
 659 0044 BDE8F081 		pop	{r4, r5, r6, r7, r8, pc}
 660              	.LVL47:
 661              	.L39:
 662              		.cfi_restore_state
 663              	.LBB96:
 664              	.LBB97:
 665              		.loc 1 31 0
 666 0048 06AD     		add	r5, sp, #24
 667 004a 4FF49A42 		mov	r2, #19712
 668 004e 25F8042D 		strh	r2, [r5, #-4]!	@ movhi
 669              		.loc 1 33 0
 670 0052 4FF0FF38 		mov	r8, #-1
 671 0056 0127     		movs	r7, #1
 672 0058 0DF11306 		add	r6, sp, #19
 673 005c 0179     		ldrb	r1, [r0, #4]	@ zero_extendqisi2
 674 005e 0068     		ldr	r0, [r0]
 675              	.LVL48:
 676 0060 0096     		str	r6, [sp]
 677 0062 2A46     		mov	r2, r5
 678 0064 CDE90178 		strd	r7, r8, [sp, #4]
 679 0068 FFF7FEFF 		bl	i2cMasterTransmitTimeout
 680              	.LVL49:
 681              		.loc 1 34 0
 682 006c 9DF81330 		ldrb	r3, [sp, #19]	@ zero_extendqisi2
 683              	.LVL50:
 684              	.LBE97:
ARM GAS  /tmp/ccB6TMt4.s 			page 13


 685              	.LBE96:
 686              		.loc 1 152 0
 687 0070 DA07     		lsls	r2, r3, #31
 688 0072 E6D5     		bpl	.L37
 689              	.LVL51:
 690              	.LBB98:
 691              	.LBB99:
 692              		.loc 1 25 0
 693 0074 0023     		movs	r3, #0
 694 0076 2179     		ldrb	r1, [r4, #4]	@ zero_extendqisi2
 695 0078 2068     		ldr	r0, [r4]
 696 007a CDF80880 		str	r8, [sp, #8]
 697 007e CDE90033 		strd	r3, r3, [sp]
 698              		.loc 1 23 0
 699 0082 4FF4C05C 		mov	ip, #6144
 700              		.loc 1 25 0
 701 0086 0323     		movs	r3, #3
 702 0088 2A46     		mov	r2, r5
 703              		.loc 1 23 0
 704 008a 8DF81670 		strb	r7, [sp, #22]
 705 008e ADF814C0 		strh	ip, [sp, #20]	@ movhi
 706              		.loc 1 25 0
 707 0092 FFF7FEFF 		bl	i2cMasterTransmitTimeout
 708              	.LVL52:
 709              	.LBE99:
 710              	.LBE98:
 711              		.loc 1 156 0
 712 0096 0323     		movs	r3, #3
 713 0098 6371     		strb	r3, [r4, #5]
 714 009a BDE7     		b	.L40
 715              	.L49:
 716              	.LVL53:
 717              	.LBB100:
 718              	.LBB101:
 719              	.LBB102:
 720              	.LBB103:
 721              		.loc 1 33 0
 722 009c 2179     		ldrb	r1, [r4, #4]	@ zero_extendqisi2
 723 009e 2068     		ldr	r0, [r4]
 724 00a0 0096     		str	r6, [sp]
 725 00a2 2A46     		mov	r2, r5
 726 00a4 CDE90187 		strd	r8, r7, [sp, #4]
 727              		.loc 1 31 0
 728 00a8 4FF4C446 		mov	r6, #25088
 729              		.loc 1 33 0
 730 00ac 0223     		movs	r3, #2
 731              		.loc 1 31 0
 732 00ae ADF81460 		strh	r6, [sp, #20]	@ movhi
 733              		.loc 1 33 0
 734 00b2 FFF7FEFF 		bl	i2cMasterTransmitTimeout
 735              	.LVL54:
 736              		.loc 1 34 0
 737 00b6 9DF81360 		ldrb	r6, [sp, #19]	@ zero_extendqisi2
 738              	.LVL55:
 739              	.LBE103:
 740              	.LBE102:
 741              	.LBB104:
ARM GAS  /tmp/ccB6TMt4.s 			page 14


 742              	.LBB105:
 743              		.loc 1 25 0
 744 00ba 2179     		ldrb	r1, [r4, #4]	@ zero_extendqisi2
 745 00bc 2068     		ldr	r0, [r4]
 746 00be 0297     		str	r7, [sp, #8]
 747 00c0 0023     		movs	r3, #0
 748              	.LBE105:
 749              	.LBE104:
 750              		.loc 1 164 0
 751 00c2 A671     		strb	r6, [r4, #6]
 752              	.LVL56:
 753              	.LBB107:
 754              	.LBB106:
 755              		.loc 1 25 0
 756 00c4 2A46     		mov	r2, r5
 757 00c6 CDE90033 		strd	r3, r3, [sp]
 758              		.loc 1 23 0
 759 00ca 4FF4A856 		mov	r6, #5376
 760 00ce 0725     		movs	r5, #7
 761              		.loc 1 25 0
 762 00d0 0323     		movs	r3, #3
 763              		.loc 1 23 0
 764 00d2 ADF81460 		strh	r6, [sp, #20]	@ movhi
 765 00d6 8DF81650 		strb	r5, [sp, #22]
 766              		.loc 1 25 0
 767 00da FFF7FEFF 		bl	i2cMasterTransmitTimeout
 768              	.LVL57:
 769              	.LBE106:
 770              	.LBE107:
 771              		.loc 1 166 0
 772 00de 0223     		movs	r3, #2
 773 00e0 6371     		strb	r3, [r4, #5]
 774              	.LBE101:
 775              	.LBE100:
 776              		.loc 1 168 0
 777 00e2 06B0     		add	sp, sp, #24
 778              		.cfi_def_cfa_offset 24
 779              		@ sp needed
 780 00e4 BDE8F081 		pop	{r4, r5, r6, r7, r8, pc}
 781              		.cfi_endproc
 782              	.LFE332:
 783              		.size	vl6180x_measure_single, .-vl6180x_measure_single
 784              		.section	.text.vl6180x_configure_all,"ax",%progbits
 785              		.align	1
 786              		.p2align 2,,3
 787              		.global	vl6180x_configure_all
 788              		.syntax unified
 789              		.thumb
 790              		.thumb_func
 791              		.fpu fpv4-sp-d16
 792              		.type	vl6180x_configure_all, %function
 793              	vl6180x_configure_all:
 794              	.LFB333:
 795              		.loc 1 177 0
 796              		.cfi_startproc
 797              		@ args = 0, pretend = 0, frame = 8
 798              		@ frame_needed = 0, uses_anonymous_args = 0
ARM GAS  /tmp/ccB6TMt4.s 			page 15


 799              	.LVL58:
 800 0000 2DE9F04F 		push	{r4, r5, r6, r7, r8, r9, r10, fp, lr}
 801              		.cfi_def_cfa_offset 36
 802              		.cfi_offset 4, -36
 803              		.cfi_offset 5, -32
 804              		.cfi_offset 6, -28
 805              		.cfi_offset 7, -24
 806              		.cfi_offset 8, -20
 807              		.cfi_offset 9, -16
 808              		.cfi_offset 10, -12
 809              		.cfi_offset 11, -8
 810              		.cfi_offset 14, -4
 811 0004 A0F10806 		sub	r6, r0, #8
 812 0008 87B0     		sub	sp, sp, #28
 813              		.cfi_def_cfa_offset 64
 814              		.loc 1 177 0
 815 000a 6427     		movs	r7, #100
 816              	.LBB119:
 817              		.loc 1 182 0
 818 000c 4FF0010B 		mov	fp, #1
 819              	.LBB120:
 820              	.LBB121:
 821              		.loc 1 31 0
 822 0010 4FF4B05A 		mov	r10, #5632
 823              	.LVL59:
 824              	.L55:
 825              	.LBE121:
 826              	.LBE120:
 827              		.loc 1 183 0
 828 0014 3446     		mov	r4, r6
 829              		.loc 1 182 0
 830 0016 4FF00108 		mov	r8, #1
 831              	.LBB124:
 832              	.LBB122:
 833              		.loc 1 33 0
 834 001a 4FF0FF39 		mov	r9, #-1
 835              	.LVL60:
 836              	.L51:
 837              	.LBE122:
 838              	.LBE124:
 839              		.loc 1 184 0
 840 001e 0834     		adds	r4, r4, #8
 841              	.LVL61:
 842 0020 2179     		ldrb	r1, [r4, #4]	@ zero_extendqisi2
 843 0022 C1B1     		cbz	r1, .L65
 844              	.L53:
 845              		.loc 1 186 0
 846 0024 6579     		ldrb	r5, [r4, #5]	@ zero_extendqisi2
 847 0026 002D     		cmp	r5, #0
 848 0028 F9D1     		bne	.L51
 849              	.LVL62:
 850              	.LBB125:
 851              	.LBB123:
 852              		.loc 1 33 0
 853 002a 0DF11303 		add	r3, sp, #19
 854 002e 2068     		ldr	r0, [r4]
 855 0030 CDF80890 		str	r9, [sp, #8]
ARM GAS  /tmp/ccB6TMt4.s 			page 16


 856 0034 CDE9003B 		strd	r3, fp, [sp]
 857 0038 05AA     		add	r2, sp, #20
 858 003a 0223     		movs	r3, #2
 859              		.loc 1 31 0
 860 003c ADF814A0 		strh	r10, [sp, #20]	@ movhi
 861              		.loc 1 33 0
 862 0040 FFF7FEFF 		bl	i2cMasterTransmitTimeout
 863              	.LVL63:
 864              		.loc 1 34 0
 865 0044 9DF81330 		ldrb	r3, [sp, #19]	@ zero_extendqisi2
 866              	.LVL64:
 867              	.LBE123:
 868              	.LBE125:
 869              		.loc 1 186 0
 870 0048 012B     		cmp	r3, #1
 871 004a 4AD0     		beq	.L66
 872              		.loc 1 184 0
 873 004c 0834     		adds	r4, r4, #8
 874              	.LVL65:
 875 004e 2179     		ldrb	r1, [r4, #4]	@ zero_extendqisi2
 876              		.loc 1 193 0
 877 0050 A846     		mov	r8, r5
 878              	.LVL66:
 879              		.loc 1 184 0
 880 0052 0029     		cmp	r1, #0
 881 0054 E6D1     		bne	.L53
 882              	.L65:
 883              		.loc 1 196 0
 884 0056 B8F1000F 		cmp	r8, #0
 885 005a 06D1     		bne	.L54
 886              	.LBB126:
 887              	.LBB127:
 888              		.loc 1 39 0
 889 005c 0A20     		movs	r0, #10
 890 005e 013F     		subs	r7, r7, #1
 891 0060 FFF7FEFF 		bl	chThdSleep
 892              	.LVL67:
 893              	.LBE127:
 894              	.LBE126:
 895              		.loc 1 180 0
 896 0064 17F0FF07 		ands	r7, r7, #255
 897 0068 D4D1     		bne	.L55
 898              	.L54:
 899              	.LVL68:
 900              	.LBE119:
 901              	.LBB128:
 902              	.LBB129:
 903              	.LBB130:
 904              	.LBB131:
 905              		.loc 1 23 0
 906 006a 4FF4B05A 		mov	r10, #5632
 907 006e 0027     		movs	r7, #0
 908              	.LBE131:
 909              	.LBE130:
 910              	.LBE129:
 911              	.LBE128:
 912              		.loc 1 201 0
ARM GAS  /tmp/ccB6TMt4.s 			page 17


 913 0070 02E0     		b	.L56
 914              	.LVL69:
 915              	.L68:
 916              		.loc 1 205 0
 917 0072 FF23     		movs	r3, #255
 918 0074 7373     		strb	r3, [r6, #13]
 919              	.L58:
 920 0076 0836     		adds	r6, r6, #8
 921              	.LVL70:
 922              	.L56:
 923              		.loc 1 201 0
 924 0078 317B     		ldrb	r1, [r6, #12]	@ zero_extendqisi2
 925 007a 0029     		cmp	r1, #0
 926 007c 36D0     		beq	.L67
 927              		.loc 1 203 0
 928 007e 737B     		ldrb	r3, [r6, #13]	@ zero_extendqisi2
 929 0080 002B     		cmp	r3, #0
 930 0082 F6D0     		beq	.L68
 931              		.loc 1 207 0
 932 0084 012B     		cmp	r3, #1
 933 0086 F6D1     		bne	.L58
 934              	.LVL71:
 935              	.LBB139:
 936              	.LBB138:
 937              	.LBB133:
 938              	.LBB132:
 939              		.loc 1 25 0
 940 0088 4FF0FF35 		mov	r5, #-1
 941 008c B068     		ldr	r0, [r6, #8]
 942 008e 0197     		str	r7, [sp, #4]
 943 0090 0097     		str	r7, [sp]
 944 0092 0295     		str	r5, [sp, #8]
 945 0094 0323     		movs	r3, #3
 946 0096 05AA     		add	r2, sp, #20
 947              		.loc 1 23 0
 948 0098 ADF814A0 		strh	r10, [sp, #20]	@ movhi
 949 009c 8DF81670 		strb	r7, [sp, #22]
 950 00a0 144C     		ldr	r4, .L69
 951              		.loc 1 25 0
 952 00a2 FFF7FEFF 		bl	i2cMasterTransmitTimeout
 953              	.LVL72:
 954              	.LBE132:
 955              	.LBE133:
 956              	.LBB134:
 957              	.LBB135:
 958 00a6 A846     		mov	r8, r5
 959 00a8 04F19409 		add	r9, r4, #148
 960              	.LVL73:
 961              	.L59:
 962              	.LBE135:
 963              	.LBE134:
 964              		.loc 1 134 0
 965 00ac 2588     		ldrh	r5, [r4]
 966 00ae 94F802C0 		ldrb	ip, [r4, #2]	@ zero_extendqisi2
 967              	.LVL74:
 968              	.LBB137:
 969              	.LBB136:
ARM GAS  /tmp/ccB6TMt4.s 			page 18


 970              		.loc 1 25 0
 971 00b2 317B     		ldrb	r1, [r6, #12]	@ zero_extendqisi2
 972 00b4 B068     		ldr	r0, [r6, #8]
 973 00b6 CDF80880 		str	r8, [sp, #8]
 974              		.loc 1 23 0
 975 00ba 4FEA152E 		lsr	lr, r5, #8
 976              		.loc 1 25 0
 977 00be CDE90077 		strd	r7, r7, [sp]
 978 00c2 0434     		adds	r4, r4, #4
 979 00c4 0323     		movs	r3, #3
 980 00c6 05AA     		add	r2, sp, #20
 981              		.loc 1 23 0
 982 00c8 8DF81550 		strb	r5, [sp, #21]
 983 00cc 8DF814E0 		strb	lr, [sp, #20]
 984 00d0 8DF816C0 		strb	ip, [sp, #22]
 985              		.loc 1 25 0
 986 00d4 FFF7FEFF 		bl	i2cMasterTransmitTimeout
 987              	.LVL75:
 988              	.LBE136:
 989              	.LBE137:
 990              		.loc 1 132 0
 991 00d8 4C45     		cmp	r4, r9
 992 00da E7D1     		bne	.L59
 993              	.LVL76:
 994              	.LBE138:
 995              	.LBE139:
 996              		.loc 1 210 0
 997 00dc 0223     		movs	r3, #2
 998 00de 7373     		strb	r3, [r6, #13]
 999 00e0 C9E7     		b	.L58
 1000              	.LVL77:
 1001              	.L66:
 1002              	.LBB140:
 1003              		.loc 1 188 0
 1004 00e2 6279     		ldrb	r2, [r4, #5]	@ zero_extendqisi2
 1005 00e4 002A     		cmp	r2, #0
 1006 00e6 9AD1     		bne	.L51
 1007              		.loc 1 189 0
 1008 00e8 6371     		strb	r3, [r4, #5]
 1009 00ea 98E7     		b	.L51
 1010              	.LVL78:
 1011              	.L67:
 1012              	.LBE140:
 1013              		.loc 1 213 0
 1014 00ec 07B0     		add	sp, sp, #28
 1015              		.cfi_def_cfa_offset 36
 1016              		@ sp needed
 1017 00ee BDE8F08F 		pop	{r4, r5, r6, r7, r8, r9, r10, fp, pc}
 1018              	.LVL79:
 1019              	.L70:
 1020 00f2 00BF     		.align	2
 1021              	.L69:
 1022 00f4 00000000 		.word	.LANCHOR0
 1023              		.cfi_endproc
 1024              	.LFE333:
 1025              		.size	vl6180x_configure_all, .-vl6180x_configure_all
 1026              		.section	.text.vl6180x_init,"ax",%progbits
ARM GAS  /tmp/ccB6TMt4.s 			page 19


 1027              		.align	1
 1028              		.p2align 2,,3
 1029              		.global	vl6180x_init
 1030              		.syntax unified
 1031              		.thumb
 1032              		.thumb_func
 1033              		.fpu fpv4-sp-d16
 1034              		.type	vl6180x_init, %function
 1035              	vl6180x_init:
 1036              	.LFB335:
 1037              		.loc 1 235 0
 1038              		.cfi_startproc
 1039              		@ args = 0, pretend = 0, frame = 0
 1040              		@ frame_needed = 0, uses_anonymous_args = 0
 1041              	.LVL80:
 1042 0000 10B5     		push	{r4, lr}
 1043              		.cfi_def_cfa_offset 8
 1044              		.cfi_offset 4, -8
 1045              		.cfi_offset 14, -4
 1046 0002 82B0     		sub	sp, sp, #8
 1047              		.cfi_def_cfa_offset 16
 1048              		.loc 1 235 0
 1049 0004 0446     		mov	r4, r0
 1050              		.loc 1 236 0
 1051 0006 FFF7FEFF 		bl	vl6180x_configure_all
 1052              	.LVL81:
 1053              		.loc 1 237 0
 1054 000a 0094     		str	r4, [sp]
 1055 000c 044B     		ldr	r3, .L73
 1056 000e 0548     		ldr	r0, .L73+4
 1057 0010 8322     		movs	r2, #131
 1058 0012 4FF4E871 		mov	r1, #464
 1059 0016 FFF7FEFF 		bl	chThdCreateStatic
 1060              	.LVL82:
 1061              		.loc 1 238 0
 1062 001a 02B0     		add	sp, sp, #8
 1063              		.cfi_def_cfa_offset 8
 1064              		@ sp needed
 1065 001c 10BD     		pop	{r4, pc}
 1066              	.LVL83:
 1067              	.L74:
 1068 001e 00BF     		.align	2
 1069              	.L73:
 1070 0020 00000000 		.word	vl6180x_thd
 1071 0024 00000000 		.word	.LANCHOR1
 1072              		.cfi_endproc
 1073              	.LFE335:
 1074              		.size	vl6180x_init, .-vl6180x_init
 1075              		.section	.text.vl6180x_change_i2c_address,"ax",%progbits
 1076              		.align	1
 1077              		.p2align 2,,3
 1078              		.global	vl6180x_change_i2c_address
 1079              		.syntax unified
 1080              		.thumb
 1081              		.thumb_func
 1082              		.fpu fpv4-sp-d16
 1083              		.type	vl6180x_change_i2c_address, %function
ARM GAS  /tmp/ccB6TMt4.s 			page 20


 1084              	vl6180x_change_i2c_address:
 1085              	.LFB336:
 1086              		.loc 1 247 0
 1087              		.cfi_startproc
 1088              		@ args = 0, pretend = 0, frame = 8
 1089              		@ frame_needed = 0, uses_anonymous_args = 0
 1090              	.LVL84:
 1091 0000 70B5     		push	{r4, r5, r6, lr}
 1092              		.cfi_def_cfa_offset 16
 1093              		.cfi_offset 4, -16
 1094              		.cfi_offset 5, -12
 1095              		.cfi_offset 6, -8
 1096              		.cfi_offset 14, -4
 1097 0002 86B0     		sub	sp, sp, #24
 1098              		.cfi_def_cfa_offset 40
 1099              	.LBB143:
 1100              	.LBB144:
 1101              		.loc 1 25 0
 1102 0004 0279     		ldrb	r2, [r0, #4]	@ zero_extendqisi2
 1103 0006 4FF0FF33 		mov	r3, #-1
 1104              	.LBE144:
 1105              	.LBE143:
 1106              		.loc 1 247 0
 1107 000a 0446     		mov	r4, r0
 1108              	.LVL85:
 1109              	.LBB147:
 1110              	.LBB145:
 1111              		.loc 1 25 0
 1112 000c 0068     		ldr	r0, [r0]
 1113              	.LVL86:
 1114 000e 0293     		str	r3, [sp, #8]
 1115 0010 0023     		movs	r3, #0
 1116              	.LBE145:
 1117              	.LBE147:
 1118              		.loc 1 247 0
 1119 0012 0D46     		mov	r5, r1
 1120              	.LVL87:
 1121              	.LBB148:
 1122              	.LBB146:
 1123              		.loc 1 25 0
 1124 0014 CDE90033 		strd	r3, r3, [sp]
 1125 0018 1146     		mov	r1, r2
 1126              	.LVL88:
 1127              		.loc 1 23 0
 1128 001a 41F20226 		movw	r6, #4610
 1129              		.loc 1 25 0
 1130 001e 0323     		movs	r3, #3
 1131 0020 05AA     		add	r2, sp, #20
 1132              		.loc 1 23 0
 1133 0022 8DF81650 		strb	r5, [sp, #22]
 1134 0026 ADF81460 		strh	r6, [sp, #20]	@ movhi
 1135              		.loc 1 25 0
 1136 002a FFF7FEFF 		bl	i2cMasterTransmitTimeout
 1137              	.LVL89:
 1138              	.LBE146:
 1139              	.LBE148:
 1140              		.loc 1 249 0
ARM GAS  /tmp/ccB6TMt4.s 			page 21


 1141 002e 2571     		strb	r5, [r4, #4]
 1142              		.loc 1 250 0
 1143 0030 06B0     		add	sp, sp, #24
 1144              		.cfi_def_cfa_offset 16
 1145              		@ sp needed
 1146 0032 70BD     		pop	{r4, r5, r6, pc}
 1147              		.cfi_endproc
 1148              	.LFE336:
 1149              		.size	vl6180x_change_i2c_address, .-vl6180x_change_i2c_address
 1150              		.global	vl6180x_thd_wa
 1151              		.section	.bss.vl6180x_thd_wa,"aw",%nobits
 1152              		.align	3
 1153              		.set	.LANCHOR1,. + 0
 1154              		.type	vl6180x_thd_wa, %object
 1155              		.size	vl6180x_thd_wa, 464
 1156              	vl6180x_thd_wa:
 1157 0000 00000000 		.space	464
 1157      00000000 
 1157      00000000 
 1157      00000000 
 1157      00000000 
 1158              		.section	.rodata.init_tab.10067,"a",%progbits
 1159              		.align	2
 1160              		.set	.LANCHOR0,. + 0
 1161              		.type	init_tab.10067, %object
 1162              		.size	init_tab.10067, 148
 1163              	init_tab.10067:
 1164 0000 0702     		.short	519
 1165 0002 01       		.byte	1
 1166 0003 00       		.space	1
 1167 0004 0802     		.short	520
 1168 0006 01       		.byte	1
 1169 0007 00       		.space	1
 1170 0008 9600     		.short	150
 1171 000a 00       		.byte	0
 1172 000b 00       		.space	1
 1173 000c 9700     		.short	151
 1174 000e FD       		.byte	-3
 1175 000f 00       		.space	1
 1176 0010 E300     		.short	227
 1177 0012 00       		.byte	0
 1178 0013 00       		.space	1
 1179 0014 E400     		.short	228
 1180 0016 04       		.byte	4
 1181 0017 00       		.space	1
 1182 0018 E500     		.short	229
 1183 001a 02       		.byte	2
 1184 001b 00       		.space	1
 1185 001c E600     		.short	230
 1186 001e 01       		.byte	1
 1187 001f 00       		.space	1
 1188 0020 E700     		.short	231
 1189 0022 03       		.byte	3
 1190 0023 00       		.space	1
 1191 0024 F500     		.short	245
 1192 0026 02       		.byte	2
 1193 0027 00       		.space	1
ARM GAS  /tmp/ccB6TMt4.s 			page 22


 1194 0028 D900     		.short	217
 1195 002a 05       		.byte	5
 1196 002b 00       		.space	1
 1197 002c DB00     		.short	219
 1198 002e CE       		.byte	-50
 1199 002f 00       		.space	1
 1200 0030 DC00     		.short	220
 1201 0032 03       		.byte	3
 1202 0033 00       		.space	1
 1203 0034 DD00     		.short	221
 1204 0036 F8       		.byte	-8
 1205 0037 00       		.space	1
 1206 0038 9F00     		.short	159
 1207 003a 00       		.byte	0
 1208 003b 00       		.space	1
 1209 003c A300     		.short	163
 1210 003e 3C       		.byte	60
 1211 003f 00       		.space	1
 1212 0040 B700     		.short	183
 1213 0042 00       		.byte	0
 1214 0043 00       		.space	1
 1215 0044 BB00     		.short	187
 1216 0046 3C       		.byte	60
 1217 0047 00       		.space	1
 1218 0048 B200     		.short	178
 1219 004a 09       		.byte	9
 1220 004b 00       		.space	1
 1221 004c CA00     		.short	202
 1222 004e 09       		.byte	9
 1223 004f 00       		.space	1
 1224 0050 9801     		.short	408
 1225 0052 01       		.byte	1
 1226 0053 00       		.space	1
 1227 0054 B001     		.short	432
 1228 0056 17       		.byte	23
 1229 0057 00       		.space	1
 1230 0058 AD01     		.short	429
 1231 005a 00       		.byte	0
 1232 005b 00       		.space	1
 1233 005c FF00     		.short	255
 1234 005e 05       		.byte	5
 1235 005f 00       		.space	1
 1236 0060 0001     		.short	256
 1237 0062 05       		.byte	5
 1238 0063 00       		.space	1
 1239 0064 9901     		.short	409
 1240 0066 05       		.byte	5
 1241 0067 00       		.space	1
 1242 0068 A601     		.short	422
 1243 006a 1B       		.byte	27
 1244 006b 00       		.space	1
 1245 006c AC01     		.short	428
 1246 006e 3E       		.byte	62
 1247 006f 00       		.space	1
 1248 0070 A701     		.short	423
 1249 0072 1F       		.byte	31
 1250 0073 00       		.space	1
ARM GAS  /tmp/ccB6TMt4.s 			page 23


 1251 0074 3000     		.short	48
 1252 0076 00       		.byte	0
 1253 0077 00       		.space	1
 1254 0078 1100     		.short	17
 1255 007a 10       		.byte	16
 1256 007b 00       		.space	1
 1257 007c 0A01     		.short	266
 1258 007e 30       		.byte	48
 1259 007f 00       		.space	1
 1260 0080 3F00     		.short	63
 1261 0082 46       		.byte	70
 1262 0083 00       		.space	1
 1263 0084 3100     		.short	49
 1264 0086 FF       		.byte	-1
 1265 0087 00       		.space	1
 1266 0088 4000     		.short	64
 1267 008a 63       		.byte	99
 1268 008b 00       		.space	1
 1269 008c 2E00     		.short	46
 1270 008e 01       		.byte	1
 1271 008f 00       		.space	1
 1272 0090 1400     		.short	20
 1273 0092 24       		.byte	36
 1274 0093 00       		.space	1
 1275              		.text
 1276              	.Letext0:
 1277              		.file 3 "/usr/lib/gcc/arm-none-eabi/7.3.1/include/stddef.h"
 1278              		.file 4 "/usr/arm-none-eabi/include/machine/_default_types.h"
 1279              		.file 5 "/usr/arm-none-eabi/include/sys/_stdint.h"
 1280              		.file 6 "./RM18A-ChibiOS18-Core/chibios/os/common/ports/ARMCMx/compilers/GCC/chtypes.h"
 1281              		.file 7 "./RM18A-ChibiOS18-Core/chibios/os/rt/include/chsystypes.h"
 1282              		.file 8 "./RM18A-ChibiOS18-Core/chibios/os/rt/include/chschd.h"
 1283              		.file 9 "./RM18A-ChibiOS18-Core/chibios/os/rt/include/chtime.h"
 1284              		.file 10 "./RM18A-ChibiOS18-Core/chibios/os/common/ext/ARM/CMSIS/Core/Include/core_cm4.h"
 1285              		.file 11 "./RM18A-ChibiOS18-Core/chibios/os/common/ext/ST/STM32F4xx/system_stm32f4xx.h"
 1286              		.file 12 "./RM18A-ChibiOS18-Core/chibios/os/common/ext/ST/STM32F4xx/stm32f427xx.h"
 1287              		.file 13 "./RM18A-ChibiOS18-Core/chibios/os/common/ports/ARMCMx/chcore.h"
 1288              		.file 14 "./RM18A-ChibiOS18-Core/chibios/os/common/ports/ARMCMx/chcore_v7m.h"
 1289              		.file 15 "./RM18A-ChibiOS18-Core/chibios/os/hal/ports/STM32/LLD/TIMv1/stm32_tim.h"
 1290              		.file 16 "./RM18A-ChibiOS18-Core/chibios/os/rt/include/chtm.h"
 1291              		.file 17 "./RM18A-ChibiOS18-Core/chibios/os/rt/include/chsem.h"
 1292              		.file 18 "./RM18A-ChibiOS18-Core/chibios/os/rt/include/chmtx.h"
 1293              		.file 19 "./RM18A-ChibiOS18-Core/chibios/os/rt/include/chsys.h"
 1294              		.file 20 "./RM18A-ChibiOS18-Core/chibios/os/rt/include/chregistry.h"
 1295              		.file 21 "./RM18A-ChibiOS18-Core/chibios/os/rt/include/chevents.h"
 1296              		.file 22 "./RM18A-ChibiOS18-Core/chibios/os/oslib/include/chmemcore.h"
 1297              		.file 23 "./RM18A-ChibiOS18-Core/chibios/os/oslib/include/chmempools.h"
 1298              		.file 24 "./RM18A-ChibiOS18-Core/chibios/os/oslib/include/chfactory.h"
 1299              		.file 25 "./RM18A-ChibiOS18-Core/chibios/os/hal/ports/STM32/LLD/DMAv2/stm32_dma.h"
 1300              		.file 26 "./RM18A-ChibiOS18-Core/chibios/os/hal/include/hal_queues.h"
 1301              		.file 27 "./RM18A-ChibiOS18-Core/chibios/os/hal/include/hal_pal.h"
 1302              		.file 28 "./RM18A-ChibiOS18-Core/chibios/os/hal/ports/STM32/LLD/GPIOv2/hal_pal_lld.h"
 1303              		.file 29 "./RM18A-ChibiOS18-Core/chibios/os/hal/include/hal_adc.h"
 1304              		.file 30 "./RM18A-ChibiOS18-Core/chibios/os/hal/ports/STM32/LLD/ADCv2/hal_adc_lld.h"
 1305              		.file 31 "./RM18A-ChibiOS18-Core/chibios/os/hal/include/hal_can.h"
 1306              		.file 32 "./RM18A-ChibiOS18-Core/chibios/os/hal/ports/STM32/LLD/CANv1/hal_can_lld.h"
 1307              		.file 33 "./RM18A-ChibiOS18-Core/chibios/os/hal/include/hal_i2c.h"
ARM GAS  /tmp/ccB6TMt4.s 			page 24


 1308              		.file 34 "./RM18A-ChibiOS18-Core/chibios/os/hal/lib/fallback/I2C/hal_i2c_lld.h"
 1309              		.file 35 "./RM18A-ChibiOS18-Core/chibios/os/hal/include/hal_icu.h"
 1310              		.file 36 "./RM18A-ChibiOS18-Core/chibios/os/hal/ports/STM32/LLD/TIMv1/hal_icu_lld.h"
 1311              		.file 37 "./RM18A-ChibiOS18-Core/chibios/os/hal/include/hal_pwm.h"
 1312              		.file 38 "./RM18A-ChibiOS18-Core/chibios/os/hal/ports/STM32/LLD/TIMv1/hal_pwm_lld.h"
 1313              		.file 39 "./RM18A-ChibiOS18-Core/chibios/os/hal/include/hal_serial.h"
 1314              		.file 40 "./RM18A-ChibiOS18-Core/chibios/os/hal/ports/STM32/LLD/USARTv1/hal_serial_lld.h"
 1315              		.file 41 "./RM18A-ChibiOS18-Core/chibios/os/hal/include/hal_spi.h"
 1316              		.file 42 "./RM18A-ChibiOS18-Core/chibios/os/hal/ports/STM32/LLD/SPIv1/hal_spi_lld.h"
 1317              		.file 43 "./RM18A-ChibiOS18-Core/chibios/os/hal/include/hal_uart.h"
 1318              		.file 44 "./RM18A-ChibiOS18-Core/chibios/os/hal/ports/STM32/LLD/USARTv1/hal_uart_lld.h"
 1319              		.file 45 "./RM18A-ChibiOS18-Core/chibios/os/hal/include/hal_usb.h"
 1320              		.file 46 "./RM18A-ChibiOS18-Core/chibios/os/hal/ports/STM32/LLD/OTGv1/hal_usb_lld.h"
 1321              		.file 47 "./RM18A-ChibiOS18-Core/chibios/os/hal/ports/STM32/LLD/OTGv1/stm32_otg.h"
 1322              		.file 48 "./RM18A-ChibiOS18-Core/src/ext_hw/vl6180x.h"